ARM GAS  /tmp/cc1Wy8eT.s 			page 1


   1              		.syntax unified
   2              		.cpu cortex-m3
   3              		.fpu softvfp
   4              		.eabi_attribute 20, 1	@ Tag_ABI_FP_denormal
   5              		.eabi_attribute 21, 1	@ Tag_ABI_FP_exceptions
   6              		.eabi_attribute 23, 3	@ Tag_ABI_FP_number_model
   7              		.eabi_attribute 24, 1	@ Tag_ABI_align8_needed
   8              		.eabi_attribute 25, 1	@ Tag_ABI_align8_preserved
   9              		.eabi_attribute 26, 1	@ Tag_ABI_enum_size
  10              		.eabi_attribute 30, 6	@ Tag_ABI_optimization_goals
  11              		.eabi_attribute 34, 1	@ Tag_CPU_unaligned_access
  12              		.eabi_attribute 18, 4	@ Tag_ABI_PCS_wchar_t
  13              		.file	"common.cpp"
  14              	@ GNU C++ (GNU Tools for ARM Embedded Processors) version 4.7.3 20130312 (release) [ARM/embedded-4_
  15              	@	compiled by GNU C version 4.3.6, GMP version 4.3.2, MPFR version 2.4.2, MPC version 0.8.1
  16              	@ GGC heuristics: --param ggc-min-expand=100 --param ggc-min-heapsize=131072
  17              	@ options passed:  -I .
  18              	@ -I /opt/ChibiStudio/ChibiOS_2.6.2/os/ports/common/ARMCMx/CMSIS/include
  19              	@ -I /opt/ChibiStudio/ChibiOS_2.6.2/os/ports/common/ARMCMx
  20              	@ -I /opt/ChibiStudio/ChibiOS_2.6.2/os/ports/GCC/ARMCMx
  21              	@ -I /opt/ChibiStudio/ChibiOS_2.6.2/os/ports/GCC/ARMCMx/STM32F1xx
  22              	@ -I /opt/ChibiStudio/ChibiOS_2.6.2/os/kernel/include
  23              	@ -I /opt/ChibiStudio/ChibiOS_2.6.2/os/hal/include
  24              	@ -I /opt/ChibiStudio/ChibiOS_2.6.2/os/hal/platforms/STM32F1xx
  25              	@ -I /opt/ChibiStudio/ChibiOS_2.6.2/os/hal/platforms/STM32
  26              	@ -I /opt/ChibiStudio/ChibiOS_2.6.2/os/hal/platforms/STM32/GPIOv1
  27              	@ -I /opt/ChibiStudio/ChibiOS_2.6.2/os/hal/platforms/STM32/I2Cv1
  28              	@ -I /opt/ChibiStudio/ChibiOS_2.6.2/os/hal/platforms/STM32/RTCv1
  29              	@ -I /opt/ChibiStudio/ChibiOS_2.6.2/os/hal/platforms/STM32/SPIv1
  30              	@ -I /opt/ChibiStudio/ChibiOS_2.6.2/os/hal/platforms/STM32/TIMv1
  31              	@ -I /opt/ChibiStudio/ChibiOS_2.6.2/os/hal/platforms/STM32/USARTv1
  32              	@ -I /opt/ChibiStudio/ChibiOS_2.6.2/os/hal/platforms/STM32/USBv1
  33              	@ -I /home/tino/workspace/openrobots/Middleware_v2/r2p/include
  34              	@ -I /home/tino/workspace/openrobots/Middleware_v2/r2p/port/chibios/include
  35              	@ -I /home/tino/workspace/openrobots/Middleware_v2/.
  36              	@ -I /opt/ChibiStudio/ChibiOS_2.6.2/os/various -I ../common
  37              	@ -imultilib armv7-m
  38              	@ -iprefix /opt/ChibiStudio/tools/gcc-arm-none-eabi-4_7-2013q1/bin/../lib/gcc/arm-none-eabi/4.7.3/
  39              	@ -isysroot /opt/ChibiStudio/tools/gcc-arm-none-eabi-4_7-2013q1/bin/../arm-none-eabi
  40              	@ -MD build/obj/common.d -MF .dep/common.o.d -MP -MQ build/obj/common.o
  41              	@ -D__USES_INITFINI__ -D PORT_INT_REQUIRED_STACK=128
  42              	@ -D R2P_MODULE_NAME=IMU0 -D THUMB_PRESENT -D THUMB_NO_INTERWORKING
  43              	@ -D THUMB ../common/common.cpp -mcpu=cortex-m3 -mno-thumb-interwork
  44              	@ -mthumb -auxbase-strip build/obj/common.o -ggdb -O0 -Wall -Wextra
  45              	@ -fomit-frame-pointer -fverbose-asm -fno-rtti -fno-exceptions
  46              	@ -fno-threadsafe-statics
  47              	@ options enabled:  -fauto-inc-dec -fbranch-count-reg -fcommon
  48              	@ -fdebug-types-section -fdelete-null-pointer-checks -fdwarf2-cfi-asm
  49              	@ -fearly-inlining -feliminate-unused-debug-types -ffunction-cse -fgcse-lm
  50              	@ -fgnu-runtime -fident -finline-atomics -fira-share-save-slots
  51              	@ -fira-share-spill-slots -fivopts -fkeep-static-consts
  52              	@ -fleading-underscore -fmath-errno -fmerge-debug-strings
  53              	@ -fmove-loop-invariants -fomit-frame-pointer -fpeephole
  54              	@ -fprefetch-loop-arrays -freg-struct-return
  55              	@ -fsched-critical-path-heuristic -fsched-dep-count-heuristic
  56              	@ -fsched-group-heuristic -fsched-interblock -fsched-last-insn-heuristic
  57              	@ -fsched-rank-heuristic -fsched-spec -fsched-spec-insn-heuristic
ARM GAS  /tmp/cc1Wy8eT.s 			page 2


  58              	@ -fsched-stalled-insns-dep -fshow-column -fsigned-zeros
  59              	@ -fsplit-ivs-in-unroller -fstrict-volatile-bitfields -ftrapping-math
  60              	@ -ftree-cselim -ftree-forwprop -ftree-loop-if-convert -ftree-loop-im
  61              	@ -ftree-loop-ivcanon -ftree-loop-optimize -ftree-parallelize-loops=
  62              	@ -ftree-phiprop -ftree-pta -ftree-reassoc -ftree-scev-cprop
  63              	@ -ftree-slp-vectorize -ftree-vect-loop-version -funit-at-a-time
  64              	@ -fverbose-asm -fzero-initialized-in-bss -mfix-cortex-m3-ldrd
  65              	@ -mlittle-endian -msched-prolog -mthumb -munaligned-access
  66              	@ -mvectorize-with-neon-quad
  67              	
  68              		.text
  69              	.Ltext0:
  70              		.cfi_sections	.debug_frame
  71              		.section	.rodata
  72              		.align	2
  73              	.LC0:
  74 0000 5232505F 		.ascii	"R2P_ASSERT()\000"
  74      41535345 
  74      52542829 
  74      00
  75 000d 000000   		.text
  76              		.align	2
  77              		.global	led2pin
  78              		.thumb
  79              		.thumb_func
  80              		.type	led2pin, %function
  81              	led2pin:
  82              	.LFB514:
  83              		.file 1 "../common/common.cpp"
  84              		.loc 1 4 0
  85              		.cfi_startproc
  86              		@ args = 0, pretend = 0, frame = 8
  87              		@ frame_needed = 0, uses_anonymous_args = 0
  88 0000 00B5     		push	{lr}	@
  89              	.LCFI0:
  90              		.cfi_def_cfa_offset 4
  91              		.cfi_offset 14, -4
  92 0002 83B0     		sub	sp, sp, #12	@,,
  93              	.LCFI1:
  94              		.cfi_def_cfa_offset 16
  95 0004 0190     		str	r0, [sp, #4]	@ led_id, led_id
  96              		.loc 1 6 0
  97 0006 019B     		ldr	r3, [sp, #4]	@ tmp136, led_id
  98 0008 032B     		cmp	r3, #3	@ tmp136,
  99 000a 17D8     		bhi	.L2	@
 100 000c 01A2     		adr	r2, .L7	@,
 101 000e 52F823F0 		ldr	pc, [r2, r3, lsl #2]	@, tmp136
 102 0012 00BF     		.align	2
 103              	.L7:
 104 0014 25000000 		.word	.L3+1
 105 0018 2B000000 		.word	.L4+1
 106 001c 31000000 		.word	.L5+1
 107 0020 37000000 		.word	.L6+1
 108              	.L3:
 109              		.loc 1 7 0
 110 0024 4FF00C03 		mov	r3, #12	@ D.12770,
 111 0028 10E0     		b	.L8	@
ARM GAS  /tmp/cc1Wy8eT.s 			page 3


 112              	.L4:
 113              		.loc 1 8 0
 114 002a 4FF00D03 		mov	r3, #13	@ D.12770,
 115 002e 0DE0     		b	.L8	@
 116              	.L5:
 117              		.loc 1 9 0
 118 0030 4FF00E03 		mov	r3, #14	@ D.12770,
 119 0034 0AE0     		b	.L8	@
 120              	.L6:
 121              		.loc 1 10 0
 122 0036 4FF00F03 		mov	r3, #15	@ D.12770,
 123 003a 07E0     		b	.L8	@
 124              	.L2:
 125              		.loc 1 12 0
 126 003c 40F20000 		movw	r0, #:lower16:.LC0	@,
 127 0040 C0F20000 		movt	r0, #:upper16:.LC0	@,
 128 0044 FFF7FEFF 		bl	chDbgPanic	@
 129              		.loc 1 13 0
 130 0048 4FF00003 		mov	r3, #0	@ D.12770,
 131              	.L8:
 132              		.loc 1 14 0
 133 004c 1846     		mov	r0, r3	@, <retval>
 134 004e 03B0     		add	sp, sp, #12	@,,
 135 0050 00BD     		pop	{pc}
 136              		.cfi_endproc
 137              	.LFE514:
 138              		.size	led2pin, .-led2pin
 139 0052 00BF     		.align	2
 140              		.global	_Z7pin2ledj
 141              		.thumb
 142              		.thumb_func
 143              		.type	_Z7pin2ledj, %function
 144              	_Z7pin2ledj:
 145              	.LFB515:
 146              		.loc 1 17 0
 147              		.cfi_startproc
 148              		@ args = 0, pretend = 0, frame = 8
 149              		@ frame_needed = 0, uses_anonymous_args = 0
 150 0054 00B5     		push	{lr}	@
 151              	.LCFI2:
 152              		.cfi_def_cfa_offset 4
 153              		.cfi_offset 14, -4
 154 0056 83B0     		sub	sp, sp, #12	@,,
 155              	.LCFI3:
 156              		.cfi_def_cfa_offset 16
 157 0058 0190     		str	r0, [sp, #4]	@ pin_id, pin_id
 158              		.loc 1 19 0
 159 005a 019B     		ldr	r3, [sp, #4]	@ tmp136, pin_id
 160 005c A3F10C03 		sub	r3, r3, #12	@ tmp137, tmp136,
 161 0060 032B     		cmp	r3, #3	@ tmp137,
 162 0062 17D8     		bhi	.L10	@
 163 0064 01A2     		adr	r2, .L15	@,
 164 0066 52F823F0 		ldr	pc, [r2, r3, lsl #2]	@, tmp137
 165 006a 00BF     		.align	2
 166              	.L15:
 167 006c 7D000000 		.word	.L11+1
 168 0070 83000000 		.word	.L12+1
ARM GAS  /tmp/cc1Wy8eT.s 			page 4


 169 0074 89000000 		.word	.L13+1
 170 0078 8F000000 		.word	.L14+1
 171              	.L11:
 172              		.loc 1 20 0
 173 007c 4FF00003 		mov	r3, #0	@ D.12766,
 174 0080 10E0     		b	.L16	@
 175              	.L12:
 176              		.loc 1 21 0
 177 0082 4FF00103 		mov	r3, #1	@ D.12766,
 178 0086 0DE0     		b	.L16	@
 179              	.L13:
 180              		.loc 1 22 0
 181 0088 4FF00203 		mov	r3, #2	@ D.12766,
 182 008c 0AE0     		b	.L16	@
 183              	.L14:
 184              		.loc 1 23 0
 185 008e 4FF00303 		mov	r3, #3	@ D.12766,
 186 0092 07E0     		b	.L16	@
 187              	.L10:
 188              		.loc 1 25 0
 189 0094 40F20000 		movw	r0, #:lower16:.LC0	@,
 190 0098 C0F20000 		movt	r0, #:upper16:.LC0	@,
 191 009c FFF7FEFF 		bl	chDbgPanic	@
 192              		.loc 1 26 0
 193 00a0 4FF00003 		mov	r3, #0	@ D.12766,
 194              	.L16:
 195              		.loc 1 27 0
 196 00a4 1846     		mov	r0, r3	@, <retval>
 197 00a6 03B0     		add	sp, sp, #12	@,,
 198 00a8 00BD     		pop	{pc}
 199              		.cfi_endproc
 200              	.LFE515:
 201              		.size	_Z7pin2ledj, .-_Z7pin2ledj
 202              	.Letext0:
 203              		.file 2 "/opt/ChibiStudio/tools/gcc-arm-none-eabi-4_7-2013q1/bin/../lib/gcc/arm-none-eabi/4.7.3/..
 204              		.file 3 "/opt/ChibiStudio/tools/gcc-arm-none-eabi-4_7-2013q1/bin/../lib/gcc/arm-none-eabi/4.7.3/..
 205              		.file 4 "/opt/ChibiStudio/tools/gcc-arm-none-eabi-4_7-2013q1/bin/../lib/gcc/arm-none-eabi/4.7.3/in
 206              		.file 5 "/opt/ChibiStudio/tools/gcc-arm-none-eabi-4_7-2013q1/bin/../lib/gcc/arm-none-eabi/4.7.3/..
 207              		.file 6 "/opt/ChibiStudio/ChibiOS_2.6.2/os/ports/GCC/ARMCMx/chtypes.h"
 208              		.file 7 "/opt/ChibiStudio/ChibiOS_2.6.2/os/kernel/include/chlists.h"
 209              		.file 8 "/opt/ChibiStudio/ChibiOS_2.6.2/os/kernel/include/chthreads.h"
 210              		.file 9 "/opt/ChibiStudio/ChibiOS_2.6.2/os/ports/GCC/ARMCMx/chcore_v7m.h"
 211              		.file 10 "/opt/ChibiStudio/ChibiOS_2.6.2/os/kernel/include/chschd.h"
 212              		.file 11 "/opt/ChibiStudio/ChibiOS_2.6.2/os/kernel/include/chmtx.h"
 213              		.file 12 "/home/tino/workspace/openrobots/Middleware_v2/r2p/port/chibios/include/r2p/impl/Flasher_
 214              		.file 13 "/opt/ChibiStudio/ChibiOS_2.6.2/os/ports/common/ARMCMx/CMSIS/include/core_cm3.h"
 215              		.file 14 "<built-in>"
 216              		.file 15 "/home/tino/workspace/openrobots/Middleware_v2/r2p/include/r2p/Uncopyable.hpp"
 217 00aa 00BF     		.section	.debug_info,"",%progbits
 218              	.Ldebug_info0:
 219 0000 CC050000 		.4byte	0x5cc
 220 0004 0200     		.2byte	0x2
 221 0006 00000000 		.4byte	.Ldebug_abbrev0
 222 000a 04       		.byte	0x4
 223 000b 01       		.uleb128 0x1
 224 000c 7A020000 		.4byte	.LASF81
 225 0010 04       		.byte	0x4
ARM GAS  /tmp/cc1Wy8eT.s 			page 5


 226 0011 E3010000 		.4byte	.LASF82
 227 0015 ED000000 		.4byte	.LASF83
 228 0019 00000000 		.4byte	.Ltext0
 229 001d AA000000 		.4byte	.Letext0
 230 0021 00000000 		.4byte	.Ldebug_line0
 231 0025 02       		.uleb128 0x2
 232 0026 04       		.byte	0x4
 233 0027 05       		.byte	0x5
 234 0028 696E7400 		.ascii	"int\000"
 235 002c 03       		.uleb128 0x3
 236 002d 27000000 		.4byte	.LASF15
 237 0031 04       		.byte	0x4
 238 0032 D5       		.byte	0xd5
 239 0033 37000000 		.4byte	0x37
 240 0037 04       		.uleb128 0x4
 241 0038 04       		.byte	0x4
 242 0039 07       		.byte	0x7
 243 003a C3010000 		.4byte	.LASF0
 244 003e 04       		.uleb128 0x4
 245 003f 01       		.byte	0x1
 246 0040 06       		.byte	0x6
 247 0041 97010000 		.4byte	.LASF1
 248 0045 04       		.uleb128 0x4
 249 0046 01       		.byte	0x1
 250 0047 08       		.byte	0x8
 251 0048 7C010000 		.4byte	.LASF2
 252 004c 04       		.uleb128 0x4
 253 004d 02       		.byte	0x2
 254 004e 05       		.byte	0x5
 255 004f 1D000000 		.4byte	.LASF3
 256 0053 04       		.uleb128 0x4
 257 0054 02       		.byte	0x2
 258 0055 07       		.byte	0x7
 259 0056 55020000 		.4byte	.LASF4
 260 005a 04       		.uleb128 0x4
 261 005b 08       		.byte	0x8
 262 005c 05       		.byte	0x5
 263 005d 5C000000 		.4byte	.LASF5
 264 0061 04       		.uleb128 0x4
 265 0062 08       		.byte	0x8
 266 0063 07       		.byte	0x7
 267 0064 28010000 		.4byte	.LASF6
 268 0068 04       		.uleb128 0x4
 269 0069 04       		.byte	0x4
 270 006a 05       		.byte	0x5
 271 006b 47010000 		.4byte	.LASF7
 272 006f 04       		.uleb128 0x4
 273 0070 04       		.byte	0x4
 274 0071 07       		.byte	0x7
 275 0072 46000000 		.4byte	.LASF8
 276 0076 05       		.uleb128 0x5
 277 0077 04       		.byte	0x4
 278 0078 04       		.uleb128 0x4
 279 0079 04       		.byte	0x4
 280 007a 07       		.byte	0x7
 281 007b DE020000 		.4byte	.LASF9
 282 007f 06       		.uleb128 0x6
ARM GAS  /tmp/cc1Wy8eT.s 			page 6


 283 0080 04       		.byte	0x4
 284 0081 85000000 		.4byte	0x85
 285 0085 04       		.uleb128 0x4
 286 0086 01       		.byte	0x1
 287 0087 08       		.byte	0x8
 288 0088 2B020000 		.4byte	.LASF10
 289 008c 06       		.uleb128 0x6
 290 008d 04       		.byte	0x4
 291 008e 92000000 		.4byte	0x92
 292 0092 07       		.uleb128 0x7
 293 0093 85000000 		.4byte	0x85
 294 0097 08       		.uleb128 0x8
 295 0098 73746400 		.ascii	"std\000"
 296 009c 0E       		.byte	0xe
 297 009d 00       		.byte	0
 298 009e BF000000 		.4byte	0xbf
 299 00a2 09       		.uleb128 0x9
 300 00a3 02       		.byte	0x2
 301 00a4 54       		.byte	0x54
 302 00a5 BF000000 		.4byte	0xbf
 303 00a9 09       		.uleb128 0x9
 304 00aa 02       		.byte	0x2
 305 00ab 57       		.byte	0x57
 306 00ac DB000000 		.4byte	0xdb
 307 00b0 09       		.uleb128 0x9
 308 00b1 02       		.byte	0x2
 309 00b2 5D       		.byte	0x5d
 310 00b3 F2000000 		.4byte	0xf2
 311 00b7 09       		.uleb128 0x9
 312 00b8 02       		.byte	0x2
 313 00b9 5E       		.byte	0x5e
 314 00ba 0E010000 		.4byte	0x10e
 315 00be 00       		.byte	0
 316 00bf 0A       		.uleb128 0xa
 317 00c0 01       		.byte	0x1
 318 00c1 4D020000 		.4byte	.LASF11
 319 00c5 03       		.byte	0x3
 320 00c6 1E       		.byte	0x1e
 321 00c7 25000000 		.4byte	0x25
 322 00cb 01       		.byte	0x1
 323 00cc DB000000 		.4byte	0xdb
 324 00d0 0B       		.uleb128 0xb
 325 00d1 8C000000 		.4byte	0x8c
 326 00d5 0B       		.uleb128 0xb
 327 00d6 8C000000 		.4byte	0x8c
 328 00da 00       		.byte	0
 329 00db 0A       		.uleb128 0xa
 330 00dc 01       		.byte	0x1
 331 00dd 96000000 		.4byte	.LASF12
 332 00e1 03       		.byte	0x3
 333 00e2 21       		.byte	0x21
 334 00e3 7F000000 		.4byte	0x7f
 335 00e7 01       		.byte	0x1
 336 00e8 F2000000 		.4byte	0xf2
 337 00ec 0B       		.uleb128 0xb
 338 00ed 25000000 		.4byte	0x25
 339 00f1 00       		.byte	0
ARM GAS  /tmp/cc1Wy8eT.s 			page 7


 340 00f2 0A       		.uleb128 0xa
 341 00f3 01       		.byte	0x1
 342 00f4 56010000 		.4byte	.LASF13
 343 00f8 03       		.byte	0x3
 344 00f9 2C       		.byte	0x2c
 345 00fa 7F000000 		.4byte	0x7f
 346 00fe 01       		.byte	0x1
 347 00ff 0E010000 		.4byte	0x10e
 348 0103 0B       		.uleb128 0xb
 349 0104 7F000000 		.4byte	0x7f
 350 0108 0B       		.uleb128 0xb
 351 0109 8C000000 		.4byte	0x8c
 352 010d 00       		.byte	0
 353 010e 0A       		.uleb128 0xa
 354 010f 01       		.byte	0x1
 355 0110 D6020000 		.4byte	.LASF14
 356 0114 03       		.byte	0x3
 357 0115 2F       		.byte	0x2f
 358 0116 2C000000 		.4byte	0x2c
 359 011a 01       		.byte	0x1
 360 011b 2F010000 		.4byte	0x12f
 361 011f 0B       		.uleb128 0xb
 362 0120 7F000000 		.4byte	0x7f
 363 0124 0B       		.uleb128 0xb
 364 0125 8C000000 		.4byte	0x8c
 365 0129 0B       		.uleb128 0xb
 366 012a 2C000000 		.4byte	0x2c
 367 012e 00       		.byte	0
 368 012f 0C       		.uleb128 0xc
 369 0130 72327000 		.ascii	"r2p\000"
 370 0134 0F       		.byte	0xf
 371 0135 03       		.byte	0x3
 372 0136 03       		.uleb128 0x3
 373 0137 B6000000 		.4byte	.LASF16
 374 013b 05       		.byte	0x5
 375 013c 2A       		.byte	0x2a
 376 013d 45000000 		.4byte	0x45
 377 0141 03       		.uleb128 0x3
 378 0142 3E020000 		.4byte	.LASF17
 379 0146 05       		.byte	0x5
 380 0147 4F       		.byte	0x4f
 381 0148 68000000 		.4byte	0x68
 382 014c 03       		.uleb128 0x3
 383 014d BA010000 		.4byte	.LASF18
 384 0151 05       		.byte	0x5
 385 0152 50       		.byte	0x50
 386 0153 78000000 		.4byte	0x78
 387 0157 03       		.uleb128 0x3
 388 0158 08000000 		.4byte	.LASF19
 389 015c 05       		.byte	0x5
 390 015d 78       		.byte	0x78
 391 015e 61000000 		.4byte	0x61
 392 0162 04       		.uleb128 0x4
 393 0163 01       		.byte	0x1
 394 0164 02       		.byte	0x2
 395 0165 CE000000 		.4byte	.LASF20
 396 0169 03       		.uleb128 0x3
ARM GAS  /tmp/cc1Wy8eT.s 			page 8


 397 016a E5000000 		.4byte	.LASF21
 398 016e 06       		.byte	0x6
 399 016f 2C       		.byte	0x2c
 400 0170 36010000 		.4byte	0x136
 401 0174 03       		.uleb128 0x3
 402 0175 18030000 		.4byte	.LASF22
 403 0179 06       		.byte	0x6
 404 017a 2D       		.byte	0x2d
 405 017b 36010000 		.4byte	0x136
 406 017f 03       		.uleb128 0x3
 407 0180 00000000 		.4byte	.LASF23
 408 0184 06       		.byte	0x6
 409 0185 2E       		.byte	0x2e
 410 0186 36010000 		.4byte	0x136
 411 018a 03       		.uleb128 0x3
 412 018b 3F010000 		.4byte	.LASF24
 413 018f 06       		.byte	0x6
 414 0190 30       		.byte	0x30
 415 0191 4C010000 		.4byte	0x14c
 416 0195 03       		.uleb128 0x3
 417 0196 A7030000 		.4byte	.LASF25
 418 019a 06       		.byte	0x6
 419 019b 31       		.byte	0x31
 420 019c 41010000 		.4byte	0x141
 421 01a0 03       		.uleb128 0x3
 422 01a1 6A000000 		.4byte	.LASF26
 423 01a5 06       		.byte	0x6
 424 01a6 33       		.byte	0x33
 425 01a7 4C010000 		.4byte	0x14c
 426 01ab 03       		.uleb128 0x3
 427 01ac 1B020000 		.4byte	.LASF27
 428 01b0 06       		.byte	0x6
 429 01b1 35       		.byte	0x35
 430 01b2 4C010000 		.4byte	0x14c
 431 01b6 03       		.uleb128 0x3
 432 01b7 03030000 		.4byte	.LASF28
 433 01bb 07       		.byte	0x7
 434 01bc 2A       		.byte	0x2a
 435 01bd C1010000 		.4byte	0x1c1
 436 01c1 0D       		.uleb128 0xd
 437 01c2 03030000 		.4byte	.LASF28
 438 01c6 4C       		.byte	0x4c
 439 01c7 08       		.byte	0x8
 440 01c8 5E       		.byte	0x5e
 441 01c9 1B030000 		.4byte	0x31b
 442 01cd 0E       		.uleb128 0xe
 443 01ce 04       		.byte	0x4
 444 01cf 08       		.byte	0x8
 445 01d0 96       		.byte	0x96
 446 01d1 02020000 		.4byte	0x202
 447 01d5 0F       		.uleb128 0xf
 448 01d6 98030000 		.4byte	.LASF29
 449 01da 08       		.byte	0x8
 450 01db 9D       		.byte	0x9d
 451 01dc 95010000 		.4byte	0x195
 452 01e0 0F       		.uleb128 0xf
 453 01e1 BE000000 		.4byte	.LASF30
ARM GAS  /tmp/cc1Wy8eT.s 			page 9


 454 01e5 08       		.byte	0x8
 455 01e6 A4       		.byte	0xa4
 456 01e7 95010000 		.4byte	0x195
 457 01eb 0F       		.uleb128 0xf
 458 01ec 0A030000 		.4byte	.LASF31
 459 01f0 08       		.byte	0x8
 460 01f1 AB       		.byte	0xab
 461 01f2 76000000 		.4byte	0x76
 462 01f6 0F       		.uleb128 0xf
 463 01f7 30020000 		.4byte	.LASF32
 464 01fb 08       		.byte	0x8
 465 01fc B2       		.byte	0xb2
 466 01fd A0010000 		.4byte	0x1a0
 467 0201 00       		.byte	0
 468 0202 10       		.uleb128 0x10
 469 0203 88000000 		.4byte	.LASF33
 470 0207 08       		.byte	0x8
 471 0208 5F       		.byte	0x5f
 472 0209 FB040000 		.4byte	0x4fb
 473 020d 02       		.byte	0x2
 474 020e 23       		.byte	0x23
 475 020f 00       		.uleb128 0
 476 0210 10       		.uleb128 0x10
 477 0211 4F000000 		.4byte	.LASF34
 478 0215 08       		.byte	0x8
 479 0216 61       		.byte	0x61
 480 0217 FB040000 		.4byte	0x4fb
 481 021b 02       		.byte	0x2
 482 021c 23       		.byte	0x23
 483 021d 04       		.uleb128 0x4
 484 021e 10       		.uleb128 0x10
 485 021f 81000000 		.4byte	.LASF35
 486 0223 08       		.byte	0x8
 487 0224 63       		.byte	0x63
 488 0225 8A010000 		.4byte	0x18a
 489 0229 02       		.byte	0x2
 490 022a 23       		.byte	0x23
 491 022b 08       		.uleb128 0x8
 492 022c 10       		.uleb128 0x10
 493 022d 57030000 		.4byte	.LASF36
 494 0231 08       		.byte	0x8
 495 0232 64       		.byte	0x64
 496 0233 1F040000 		.4byte	0x41f
 497 0237 02       		.byte	0x2
 498 0238 23       		.byte	0x23
 499 0239 0C       		.uleb128 0xc
 500 023a 10       		.uleb128 0x10
 501 023b A3010000 		.4byte	.LASF37
 502 023f 08       		.byte	0x8
 503 0240 66       		.byte	0x66
 504 0241 FB040000 		.4byte	0x4fb
 505 0245 02       		.byte	0x2
 506 0246 23       		.byte	0x23
 507 0247 10       		.uleb128 0x10
 508 0248 10       		.uleb128 0x10
 509 0249 4F030000 		.4byte	.LASF38
 510 024d 08       		.byte	0x8
ARM GAS  /tmp/cc1Wy8eT.s 			page 10


 511 024e 67       		.byte	0x67
 512 024f FB040000 		.4byte	0x4fb
 513 0253 02       		.byte	0x2
 514 0254 23       		.byte	0x23
 515 0255 14       		.uleb128 0x14
 516 0256 10       		.uleb128 0x10
 517 0257 37020000 		.4byte	.LASF39
 518 025b 08       		.byte	0x8
 519 025c 6E       		.byte	0x6e
 520 025d 8C000000 		.4byte	0x8c
 521 0261 02       		.byte	0x2
 522 0262 23       		.byte	0x23
 523 0263 18       		.uleb128 0x18
 524 0264 10       		.uleb128 0x10
 525 0265 D8010000 		.4byte	.LASF40
 526 0269 08       		.byte	0x8
 527 026a 74       		.byte	0x74
 528 026b 01050000 		.4byte	0x501
 529 026f 02       		.byte	0x2
 530 0270 23       		.byte	0x23
 531 0271 1C       		.uleb128 0x1c
 532 0272 10       		.uleb128 0x10
 533 0273 68020000 		.4byte	.LASF41
 534 0277 08       		.byte	0x8
 535 0278 79       		.byte	0x79
 536 0279 74010000 		.4byte	0x174
 537 027d 02       		.byte	0x2
 538 027e 23       		.byte	0x23
 539 027f 20       		.uleb128 0x20
 540 0280 10       		.uleb128 0x10
 541 0281 08020000 		.4byte	.LASF42
 542 0285 08       		.byte	0x8
 543 0286 7D       		.byte	0x7d
 544 0287 69010000 		.4byte	0x169
 545 028b 02       		.byte	0x2
 546 028c 23       		.byte	0x23
 547 028d 21       		.uleb128 0x21
 548 028e 10       		.uleb128 0x10
 549 028f 65010000 		.4byte	.LASF43
 550 0293 08       		.byte	0x8
 551 0294 82       		.byte	0x82
 552 0295 7F010000 		.4byte	0x17f
 553 0299 02       		.byte	0x2
 554 029a 23       		.byte	0x23
 555 029b 22       		.uleb128 0x22
 556 029c 10       		.uleb128 0x10
 557 029d C7000000 		.4byte	.LASF44
 558 02a1 08       		.byte	0x8
 559 02a2 8F       		.byte	0x8f
 560 02a3 42040000 		.4byte	0x442
 561 02a7 02       		.byte	0x2
 562 02a8 23       		.byte	0x23
 563 02a9 24       		.uleb128 0x24
 564 02aa 11       		.uleb128 0x11
 565 02ab 705F7500 		.ascii	"p_u\000"
 566 02af 08       		.byte	0x8
 567 02b0 B4       		.byte	0xb4
ARM GAS  /tmp/cc1Wy8eT.s 			page 11


 568 02b1 CD010000 		.4byte	0x1cd
 569 02b5 02       		.byte	0x2
 570 02b6 23       		.byte	0x23
 571 02b7 28       		.uleb128 0x28
 572 02b8 10       		.uleb128 0x10
 573 02b9 70020000 		.4byte	.LASF45
 574 02bd 08       		.byte	0x8
 575 02be B9       		.byte	0xb9
 576 02bf 70030000 		.4byte	0x370
 577 02c3 02       		.byte	0x2
 578 02c4 23       		.byte	0x23
 579 02c5 2C       		.uleb128 0x2c
 580 02c6 10       		.uleb128 0x10
 581 02c7 76000000 		.4byte	.LASF46
 582 02cb 08       		.byte	0x8
 583 02cc BF       		.byte	0xbf
 584 02cd 4A030000 		.4byte	0x34a
 585 02d1 02       		.byte	0x2
 586 02d2 23       		.byte	0x23
 587 02d3 30       		.uleb128 0x30
 588 02d4 10       		.uleb128 0x10
 589 02d5 76010000 		.4byte	.LASF47
 590 02d9 08       		.byte	0x8
 591 02da C3       		.byte	0xc3
 592 02db 95010000 		.4byte	0x195
 593 02df 02       		.byte	0x2
 594 02e0 23       		.byte	0x23
 595 02e1 38       		.uleb128 0x38
 596 02e2 10       		.uleb128 0x10
 597 02e3 D3000000 		.4byte	.LASF48
 598 02e7 08       		.byte	0x8
 599 02e8 C9       		.byte	0xc9
 600 02e9 A0010000 		.4byte	0x1a0
 601 02ed 02       		.byte	0x2
 602 02ee 23       		.byte	0x23
 603 02ef 3C       		.uleb128 0x3c
 604 02f0 10       		.uleb128 0x10
 605 02f1 C5020000 		.4byte	.LASF49
 606 02f5 08       		.byte	0x8
 607 02f6 D0       		.byte	0xd0
 608 02f7 07050000 		.4byte	0x507
 609 02fb 02       		.byte	0x2
 610 02fc 23       		.byte	0x23
 611 02fd 40       		.uleb128 0x40
 612 02fe 10       		.uleb128 0x10
 613 02ff 10020000 		.4byte	.LASF50
 614 0303 08       		.byte	0x8
 615 0304 D4       		.byte	0xd4
 616 0305 8A010000 		.4byte	0x18a
 617 0309 02       		.byte	0x2
 618 030a 23       		.byte	0x23
 619 030b 44       		.uleb128 0x44
 620 030c 10       		.uleb128 0x10
 621 030d F8010000 		.4byte	.LASF51
 622 0311 08       		.byte	0x8
 623 0312 DA       		.byte	0xda
 624 0313 76000000 		.4byte	0x76
ARM GAS  /tmp/cc1Wy8eT.s 			page 12


 625 0317 02       		.byte	0x2
 626 0318 23       		.byte	0x23
 627 0319 48       		.uleb128 0x48
 628 031a 00       		.byte	0
 629 031b 12       		.uleb128 0x12
 630 031c 08       		.byte	0x8
 631 031d 07       		.byte	0x7
 632 031e 61       		.byte	0x61
 633 031f AB010000 		.4byte	.LASF53
 634 0323 44030000 		.4byte	0x344
 635 0327 10       		.uleb128 0x10
 636 0328 88000000 		.4byte	.LASF33
 637 032c 07       		.byte	0x7
 638 032d 62       		.byte	0x62
 639 032e 44030000 		.4byte	0x344
 640 0332 02       		.byte	0x2
 641 0333 23       		.byte	0x23
 642 0334 00       		.uleb128 0
 643 0335 10       		.uleb128 0x10
 644 0336 4F000000 		.4byte	.LASF34
 645 033a 07       		.byte	0x7
 646 033b 64       		.byte	0x64
 647 033c 44030000 		.4byte	0x344
 648 0340 02       		.byte	0x2
 649 0341 23       		.byte	0x23
 650 0342 04       		.uleb128 0x4
 651 0343 00       		.byte	0
 652 0344 06       		.uleb128 0x6
 653 0345 04       		.byte	0x4
 654 0346 B6010000 		.4byte	0x1b6
 655 034a 03       		.uleb128 0x3
 656 034b 8A010000 		.4byte	.LASF52
 657 034f 07       		.byte	0x7
 658 0350 66       		.byte	0x66
 659 0351 1B030000 		.4byte	0x31b
 660 0355 12       		.uleb128 0x12
 661 0356 04       		.byte	0x4
 662 0357 07       		.byte	0x7
 663 0358 6B       		.byte	0x6b
 664 0359 36030000 		.4byte	.LASF54
 665 035d 70030000 		.4byte	0x370
 666 0361 10       		.uleb128 0x10
 667 0362 88000000 		.4byte	.LASF33
 668 0366 07       		.byte	0x7
 669 0367 6D       		.byte	0x6d
 670 0368 44030000 		.4byte	0x344
 671 036c 02       		.byte	0x2
 672 036d 23       		.byte	0x23
 673 036e 00       		.uleb128 0
 674 036f 00       		.byte	0
 675 0370 03       		.uleb128 0x3
 676 0371 11000000 		.4byte	.LASF55
 677 0375 07       		.byte	0x7
 678 0376 70       		.byte	0x70
 679 0377 55030000 		.4byte	0x355
 680 037b 03       		.uleb128 0x3
 681 037c 9F000000 		.4byte	.LASF56
ARM GAS  /tmp/cc1Wy8eT.s 			page 13


 682 0380 09       		.byte	0x9
 683 0381 E5       		.byte	0xe5
 684 0382 76000000 		.4byte	0x76
 685 0386 03       		.uleb128 0x3
 686 0387 21030000 		.4byte	.LASF57
 687 038b 09       		.byte	0x9
 688 038c EB       		.byte	0xeb
 689 038d 57010000 		.4byte	0x157
 690 0391 13       		.uleb128 0x13
 691 0392 CF020000 		.4byte	.LASF58
 692 0396 24       		.byte	0x24
 693 0397 09       		.byte	0x9
 694 0398 0C01     		.2byte	0x10c
 695 039a 1F040000 		.4byte	0x41f
 696 039e 14       		.uleb128 0x14
 697 039f 723400   		.ascii	"r4\000"
 698 03a2 09       		.byte	0x9
 699 03a3 1F01     		.2byte	0x11f
 700 03a5 7B030000 		.4byte	0x37b
 701 03a9 02       		.byte	0x2
 702 03aa 23       		.byte	0x23
 703 03ab 00       		.uleb128 0
 704 03ac 14       		.uleb128 0x14
 705 03ad 723500   		.ascii	"r5\000"
 706 03b0 09       		.byte	0x9
 707 03b1 2001     		.2byte	0x120
 708 03b3 7B030000 		.4byte	0x37b
 709 03b7 02       		.byte	0x2
 710 03b8 23       		.byte	0x23
 711 03b9 04       		.uleb128 0x4
 712 03ba 14       		.uleb128 0x14
 713 03bb 723600   		.ascii	"r6\000"
 714 03be 09       		.byte	0x9
 715 03bf 2101     		.2byte	0x121
 716 03c1 7B030000 		.4byte	0x37b
 717 03c5 02       		.byte	0x2
 718 03c6 23       		.byte	0x23
 719 03c7 08       		.uleb128 0x8
 720 03c8 14       		.uleb128 0x14
 721 03c9 723700   		.ascii	"r7\000"
 722 03cc 09       		.byte	0x9
 723 03cd 2201     		.2byte	0x122
 724 03cf 7B030000 		.4byte	0x37b
 725 03d3 02       		.byte	0x2
 726 03d4 23       		.byte	0x23
 727 03d5 0C       		.uleb128 0xc
 728 03d6 14       		.uleb128 0x14
 729 03d7 723800   		.ascii	"r8\000"
 730 03da 09       		.byte	0x9
 731 03db 2301     		.2byte	0x123
 732 03dd 7B030000 		.4byte	0x37b
 733 03e1 02       		.byte	0x2
 734 03e2 23       		.byte	0x23
 735 03e3 10       		.uleb128 0x10
 736 03e4 14       		.uleb128 0x14
 737 03e5 723900   		.ascii	"r9\000"
 738 03e8 09       		.byte	0x9
ARM GAS  /tmp/cc1Wy8eT.s 			page 14


 739 03e9 2401     		.2byte	0x124
 740 03eb 7B030000 		.4byte	0x37b
 741 03ef 02       		.byte	0x2
 742 03f0 23       		.byte	0x23
 743 03f1 14       		.uleb128 0x14
 744 03f2 14       		.uleb128 0x14
 745 03f3 72313000 		.ascii	"r10\000"
 746 03f7 09       		.byte	0x9
 747 03f8 2501     		.2byte	0x125
 748 03fa 7B030000 		.4byte	0x37b
 749 03fe 02       		.byte	0x2
 750 03ff 23       		.byte	0x23
 751 0400 18       		.uleb128 0x18
 752 0401 14       		.uleb128 0x14
 753 0402 72313100 		.ascii	"r11\000"
 754 0406 09       		.byte	0x9
 755 0407 2601     		.2byte	0x126
 756 0409 7B030000 		.4byte	0x37b
 757 040d 02       		.byte	0x2
 758 040e 23       		.byte	0x23
 759 040f 1C       		.uleb128 0x1c
 760 0410 14       		.uleb128 0x14
 761 0411 6C7200   		.ascii	"lr\000"
 762 0414 09       		.byte	0x9
 763 0415 2701     		.2byte	0x127
 764 0417 7B030000 		.4byte	0x37b
 765 041b 02       		.byte	0x2
 766 041c 23       		.byte	0x23
 767 041d 20       		.uleb128 0x20
 768 041e 00       		.byte	0
 769 041f 13       		.uleb128 0x13
 770 0420 D0010000 		.4byte	.LASF59
 771 0424 04       		.byte	0x4
 772 0425 09       		.byte	0x9
 773 0426 3101     		.2byte	0x131
 774 0428 3C040000 		.4byte	0x43c
 775 042c 14       		.uleb128 0x14
 776 042d 72313300 		.ascii	"r13\000"
 777 0431 09       		.byte	0x9
 778 0432 3201     		.2byte	0x132
 779 0434 3C040000 		.4byte	0x43c
 780 0438 02       		.byte	0x2
 781 0439 23       		.byte	0x23
 782 043a 00       		.uleb128 0
 783 043b 00       		.byte	0
 784 043c 06       		.uleb128 0x6
 785 043d 04       		.byte	0x4
 786 043e 91030000 		.4byte	0x391
 787 0442 15       		.uleb128 0x15
 788 0443 AB010000 		.4byte	0x1ab
 789 0447 12       		.uleb128 0x12
 790 0448 1C       		.byte	0x1c
 791 0449 0A       		.byte	0xa
 792 044a 5E       		.byte	0x5e
 793 044b 44030000 		.4byte	.LASF60
 794 044f A8040000 		.4byte	0x4a8
 795 0453 10       		.uleb128 0x10
ARM GAS  /tmp/cc1Wy8eT.s 			page 15


 796 0454 2E000000 		.4byte	.LASF61
 797 0458 0A       		.byte	0xa
 798 0459 5F       		.byte	0x5f
 799 045a 4A030000 		.4byte	0x34a
 800 045e 02       		.byte	0x2
 801 045f 23       		.byte	0x23
 802 0460 00       		.uleb128 0
 803 0461 10       		.uleb128 0x10
 804 0462 46020000 		.4byte	.LASF62
 805 0466 0A       		.byte	0xa
 806 0467 60       		.byte	0x60
 807 0468 8A010000 		.4byte	0x18a
 808 046c 02       		.byte	0x2
 809 046d 23       		.byte	0x23
 810 046e 08       		.uleb128 0x8
 811 046f 10       		.uleb128 0x10
 812 0470 56000000 		.4byte	.LASF63
 813 0474 0A       		.byte	0xa
 814 0475 62       		.byte	0x62
 815 0476 1F040000 		.4byte	0x41f
 816 047a 02       		.byte	0x2
 817 047b 23       		.byte	0x23
 818 047c 0C       		.uleb128 0xc
 819 047d 10       		.uleb128 0x10
 820 047e 00020000 		.4byte	.LASF64
 821 0482 0A       		.byte	0xa
 822 0483 65       		.byte	0x65
 823 0484 44030000 		.4byte	0x344
 824 0488 02       		.byte	0x2
 825 0489 23       		.byte	0x23
 826 048a 10       		.uleb128 0x10
 827 048b 10       		.uleb128 0x10
 828 048c AD030000 		.4byte	.LASF65
 829 0490 0A       		.byte	0xa
 830 0491 66       		.byte	0x66
 831 0492 44030000 		.4byte	0x344
 832 0496 02       		.byte	0x2
 833 0497 23       		.byte	0x23
 834 0498 14       		.uleb128 0x14
 835 0499 10       		.uleb128 0x10
 836 049a 6C010000 		.4byte	.LASF66
 837 049e 0A       		.byte	0xa
 838 049f 69       		.byte	0x69
 839 04a0 44030000 		.4byte	0x344
 840 04a4 02       		.byte	0x2
 841 04a5 23       		.byte	0x23
 842 04a6 18       		.uleb128 0x18
 843 04a7 00       		.byte	0
 844 04a8 03       		.uleb128 0x3
 845 04a9 2C030000 		.4byte	.LASF67
 846 04ad 0A       		.byte	0xa
 847 04ae 6B       		.byte	0x6b
 848 04af 47040000 		.4byte	0x447
 849 04b3 0D       		.uleb128 0xd
 850 04b4 50010000 		.4byte	.LASF68
 851 04b8 10       		.byte	0x10
 852 04b9 0B       		.byte	0xb
ARM GAS  /tmp/cc1Wy8eT.s 			page 16


 853 04ba 2C       		.byte	0x2c
 854 04bb EA040000 		.4byte	0x4ea
 855 04bf 10       		.uleb128 0x10
 856 04c0 5D010000 		.4byte	.LASF69
 857 04c4 0B       		.byte	0xb
 858 04c5 2D       		.byte	0x2d
 859 04c6 4A030000 		.4byte	0x34a
 860 04ca 02       		.byte	0x2
 861 04cb 23       		.byte	0x23
 862 04cc 00       		.uleb128 0
 863 04cd 10       		.uleb128 0x10
 864 04ce 88030000 		.4byte	.LASF70
 865 04d2 0B       		.byte	0xb
 866 04d3 2F       		.byte	0x2f
 867 04d4 44030000 		.4byte	0x344
 868 04d8 02       		.byte	0x2
 869 04d9 23       		.byte	0x23
 870 04da 08       		.uleb128 0x8
 871 04db 10       		.uleb128 0x10
 872 04dc 8F000000 		.4byte	.LASF71
 873 04e0 0B       		.byte	0xb
 874 04e1 31       		.byte	0x31
 875 04e2 EA040000 		.4byte	0x4ea
 876 04e6 02       		.byte	0x2
 877 04e7 23       		.byte	0x23
 878 04e8 0C       		.uleb128 0xc
 879 04e9 00       		.byte	0
 880 04ea 06       		.uleb128 0x6
 881 04eb 04       		.byte	0x4
 882 04ec B3040000 		.4byte	0x4b3
 883 04f0 03       		.uleb128 0x3
 884 04f1 50010000 		.4byte	.LASF68
 885 04f5 0B       		.byte	0xb
 886 04f6 33       		.byte	0x33
 887 04f7 B3040000 		.4byte	0x4b3
 888 04fb 06       		.uleb128 0x6
 889 04fc 04       		.byte	0x4
 890 04fd C1010000 		.4byte	0x1c1
 891 0501 06       		.uleb128 0x6
 892 0502 04       		.byte	0x4
 893 0503 86030000 		.4byte	0x386
 894 0507 06       		.uleb128 0x6
 895 0508 04       		.byte	0x4
 896 0509 F0040000 		.4byte	0x4f0
 897 050d 04       		.uleb128 0x4
 898 050e 08       		.byte	0x8
 899 050f 04       		.byte	0x4
 900 0510 FC020000 		.4byte	.LASF72
 901 0514 15       		.uleb128 0x15
 902 0515 41010000 		.4byte	0x141
 903 0519 16       		.uleb128 0x16
 904 051a 01       		.byte	0x1
 905 051b 90030000 		.4byte	.LASF84
 906 051f 01       		.byte	0x1
 907 0520 04       		.byte	0x4
 908 0521 37000000 		.4byte	0x37
 909 0525 00000000 		.4byte	.LFB514
ARM GAS  /tmp/cc1Wy8eT.s 			page 17


 910 0529 52000000 		.4byte	.LFE514
 911 052d 00000000 		.4byte	.LLST0
 912 0531 01       		.byte	0x1
 913 0532 45050000 		.4byte	0x545
 914 0536 17       		.uleb128 0x17
 915 0537 11030000 		.4byte	.LASF73
 916 053b 01       		.byte	0x1
 917 053c 04       		.byte	0x4
 918 053d 37000000 		.4byte	0x37
 919 0541 02       		.byte	0x2
 920 0542 91       		.byte	0x91
 921 0543 74       		.sleb128 -12
 922 0544 00       		.byte	0
 923 0545 18       		.uleb128 0x18
 924 0546 01       		.byte	0x1
 925 0547 9F030000 		.4byte	.LASF85
 926 054b 01       		.byte	0x1
 927 054c 11       		.byte	0x11
 928 054d F0020000 		.4byte	.LASF86
 929 0551 37000000 		.4byte	0x37
 930 0555 54000000 		.4byte	.LFB515
 931 0559 AA000000 		.4byte	.LFE515
 932 055d 2C000000 		.4byte	.LLST1
 933 0561 01       		.byte	0x1
 934 0562 75050000 		.4byte	0x575
 935 0566 17       		.uleb128 0x17
 936 0567 DE000000 		.4byte	.LASF74
 937 056b 01       		.byte	0x1
 938 056c 11       		.byte	0x11
 939 056d 37000000 		.4byte	0x37
 940 0571 02       		.byte	0x2
 941 0572 91       		.byte	0x91
 942 0573 74       		.sleb128 -12
 943 0574 00       		.byte	0
 944 0575 19       		.uleb128 0x19
 945 0576 25020000 		.4byte	.LASF75
 946 057a 0A       		.byte	0xa
 947 057b 6F       		.byte	0x6f
 948 057c A8040000 		.4byte	0x4a8
 949 0580 01       		.byte	0x1
 950 0581 01       		.byte	0x1
 951 0582 1A       		.uleb128 0x1a
 952 0583 45000000 		.4byte	0x45
 953 0587 8D050000 		.4byte	0x58d
 954 058b 1B       		.uleb128 0x1b
 955 058c 00       		.byte	0
 956 058d 19       		.uleb128 0x19
 957 058e 76030000 		.4byte	.LASF76
 958 0592 0C       		.byte	0xc
 959 0593 0A       		.byte	0xa
 960 0594 82050000 		.4byte	0x582
 961 0598 01       		.byte	0x1
 962 0599 01       		.byte	0x1
 963 059a 19       		.uleb128 0x19
 964 059b 36000000 		.4byte	.LASF77
 965 059f 0C       		.byte	0xc
 966 05a0 0B       		.byte	0xb
ARM GAS  /tmp/cc1Wy8eT.s 			page 18


 967 05a1 82050000 		.4byte	0x582
 968 05a5 01       		.byte	0x1
 969 05a6 01       		.byte	0x1
 970 05a7 19       		.uleb128 0x19
 971 05a8 A8000000 		.4byte	.LASF78
 972 05ac 0C       		.byte	0xc
 973 05ad 0D       		.byte	0xd
 974 05ae 82050000 		.4byte	0x582
 975 05b2 01       		.byte	0x1
 976 05b3 01       		.byte	0x1
 977 05b4 19       		.uleb128 0x19
 978 05b5 6A030000 		.4byte	.LASF79
 979 05b9 0C       		.byte	0xc
 980 05ba 0E       		.byte	0xe
 981 05bb 82050000 		.4byte	0x582
 982 05bf 01       		.byte	0x1
 983 05c0 01       		.byte	0x1
 984 05c1 1C       		.uleb128 0x1c
 985 05c2 5D030000 		.4byte	.LASF80
 986 05c6 0D       		.byte	0xd
 987 05c7 0706     		.2byte	0x607
 988 05c9 14050000 		.4byte	0x514
 989 05cd 01       		.byte	0x1
 990 05ce 01       		.byte	0x1
 991 05cf 00       		.byte	0
 992              		.section	.debug_abbrev,"",%progbits
 993              	.Ldebug_abbrev0:
 994 0000 01       		.uleb128 0x1
 995 0001 11       		.uleb128 0x11
 996 0002 01       		.byte	0x1
 997 0003 25       		.uleb128 0x25
 998 0004 0E       		.uleb128 0xe
 999 0005 13       		.uleb128 0x13
 1000 0006 0B       		.uleb128 0xb
 1001 0007 03       		.uleb128 0x3
 1002 0008 0E       		.uleb128 0xe
 1003 0009 1B       		.uleb128 0x1b
 1004 000a 0E       		.uleb128 0xe
 1005 000b 11       		.uleb128 0x11
 1006 000c 01       		.uleb128 0x1
 1007 000d 12       		.uleb128 0x12
 1008 000e 01       		.uleb128 0x1
 1009 000f 10       		.uleb128 0x10
 1010 0010 06       		.uleb128 0x6
 1011 0011 00       		.byte	0
 1012 0012 00       		.byte	0
 1013 0013 02       		.uleb128 0x2
 1014 0014 24       		.uleb128 0x24
 1015 0015 00       		.byte	0
 1016 0016 0B       		.uleb128 0xb
 1017 0017 0B       		.uleb128 0xb
 1018 0018 3E       		.uleb128 0x3e
 1019 0019 0B       		.uleb128 0xb
 1020 001a 03       		.uleb128 0x3
 1021 001b 08       		.uleb128 0x8
 1022 001c 00       		.byte	0
 1023 001d 00       		.byte	0
ARM GAS  /tmp/cc1Wy8eT.s 			page 19


 1024 001e 03       		.uleb128 0x3
 1025 001f 16       		.uleb128 0x16
 1026 0020 00       		.byte	0
 1027 0021 03       		.uleb128 0x3
 1028 0022 0E       		.uleb128 0xe
 1029 0023 3A       		.uleb128 0x3a
 1030 0024 0B       		.uleb128 0xb
 1031 0025 3B       		.uleb128 0x3b
 1032 0026 0B       		.uleb128 0xb
 1033 0027 49       		.uleb128 0x49
 1034 0028 13       		.uleb128 0x13
 1035 0029 00       		.byte	0
 1036 002a 00       		.byte	0
 1037 002b 04       		.uleb128 0x4
 1038 002c 24       		.uleb128 0x24
 1039 002d 00       		.byte	0
 1040 002e 0B       		.uleb128 0xb
 1041 002f 0B       		.uleb128 0xb
 1042 0030 3E       		.uleb128 0x3e
 1043 0031 0B       		.uleb128 0xb
 1044 0032 03       		.uleb128 0x3
 1045 0033 0E       		.uleb128 0xe
 1046 0034 00       		.byte	0
 1047 0035 00       		.byte	0
 1048 0036 05       		.uleb128 0x5
 1049 0037 0F       		.uleb128 0xf
 1050 0038 00       		.byte	0
 1051 0039 0B       		.uleb128 0xb
 1052 003a 0B       		.uleb128 0xb
 1053 003b 00       		.byte	0
 1054 003c 00       		.byte	0
 1055 003d 06       		.uleb128 0x6
 1056 003e 0F       		.uleb128 0xf
 1057 003f 00       		.byte	0
 1058 0040 0B       		.uleb128 0xb
 1059 0041 0B       		.uleb128 0xb
 1060 0042 49       		.uleb128 0x49
 1061 0043 13       		.uleb128 0x13
 1062 0044 00       		.byte	0
 1063 0045 00       		.byte	0
 1064 0046 07       		.uleb128 0x7
 1065 0047 26       		.uleb128 0x26
 1066 0048 00       		.byte	0
 1067 0049 49       		.uleb128 0x49
 1068 004a 13       		.uleb128 0x13
 1069 004b 00       		.byte	0
 1070 004c 00       		.byte	0
 1071 004d 08       		.uleb128 0x8
 1072 004e 39       		.uleb128 0x39
 1073 004f 01       		.byte	0x1
 1074 0050 03       		.uleb128 0x3
 1075 0051 08       		.uleb128 0x8
 1076 0052 3A       		.uleb128 0x3a
 1077 0053 0B       		.uleb128 0xb
 1078 0054 3B       		.uleb128 0x3b
 1079 0055 0B       		.uleb128 0xb
 1080 0056 01       		.uleb128 0x1
ARM GAS  /tmp/cc1Wy8eT.s 			page 20


 1081 0057 13       		.uleb128 0x13
 1082 0058 00       		.byte	0
 1083 0059 00       		.byte	0
 1084 005a 09       		.uleb128 0x9
 1085 005b 08       		.uleb128 0x8
 1086 005c 00       		.byte	0
 1087 005d 3A       		.uleb128 0x3a
 1088 005e 0B       		.uleb128 0xb
 1089 005f 3B       		.uleb128 0x3b
 1090 0060 0B       		.uleb128 0xb
 1091 0061 18       		.uleb128 0x18
 1092 0062 13       		.uleb128 0x13
 1093 0063 00       		.byte	0
 1094 0064 00       		.byte	0
 1095 0065 0A       		.uleb128 0xa
 1096 0066 2E       		.uleb128 0x2e
 1097 0067 01       		.byte	0x1
 1098 0068 3F       		.uleb128 0x3f
 1099 0069 0C       		.uleb128 0xc
 1100 006a 03       		.uleb128 0x3
 1101 006b 0E       		.uleb128 0xe
 1102 006c 3A       		.uleb128 0x3a
 1103 006d 0B       		.uleb128 0xb
 1104 006e 3B       		.uleb128 0x3b
 1105 006f 0B       		.uleb128 0xb
 1106 0070 49       		.uleb128 0x49
 1107 0071 13       		.uleb128 0x13
 1108 0072 3C       		.uleb128 0x3c
 1109 0073 0C       		.uleb128 0xc
 1110 0074 01       		.uleb128 0x1
 1111 0075 13       		.uleb128 0x13
 1112 0076 00       		.byte	0
 1113 0077 00       		.byte	0
 1114 0078 0B       		.uleb128 0xb
 1115 0079 05       		.uleb128 0x5
 1116 007a 00       		.byte	0
 1117 007b 49       		.uleb128 0x49
 1118 007c 13       		.uleb128 0x13
 1119 007d 00       		.byte	0
 1120 007e 00       		.byte	0
 1121 007f 0C       		.uleb128 0xc
 1122 0080 39       		.uleb128 0x39
 1123 0081 00       		.byte	0
 1124 0082 03       		.uleb128 0x3
 1125 0083 08       		.uleb128 0x8
 1126 0084 3A       		.uleb128 0x3a
 1127 0085 0B       		.uleb128 0xb
 1128 0086 3B       		.uleb128 0x3b
 1129 0087 0B       		.uleb128 0xb
 1130 0088 00       		.byte	0
 1131 0089 00       		.byte	0
 1132 008a 0D       		.uleb128 0xd
 1133 008b 13       		.uleb128 0x13
 1134 008c 01       		.byte	0x1
 1135 008d 03       		.uleb128 0x3
 1136 008e 0E       		.uleb128 0xe
 1137 008f 0B       		.uleb128 0xb
ARM GAS  /tmp/cc1Wy8eT.s 			page 21


 1138 0090 0B       		.uleb128 0xb
 1139 0091 3A       		.uleb128 0x3a
 1140 0092 0B       		.uleb128 0xb
 1141 0093 3B       		.uleb128 0x3b
 1142 0094 0B       		.uleb128 0xb
 1143 0095 01       		.uleb128 0x1
 1144 0096 13       		.uleb128 0x13
 1145 0097 00       		.byte	0
 1146 0098 00       		.byte	0
 1147 0099 0E       		.uleb128 0xe
 1148 009a 17       		.uleb128 0x17
 1149 009b 01       		.byte	0x1
 1150 009c 0B       		.uleb128 0xb
 1151 009d 0B       		.uleb128 0xb
 1152 009e 3A       		.uleb128 0x3a
 1153 009f 0B       		.uleb128 0xb
 1154 00a0 3B       		.uleb128 0x3b
 1155 00a1 0B       		.uleb128 0xb
 1156 00a2 01       		.uleb128 0x1
 1157 00a3 13       		.uleb128 0x13
 1158 00a4 00       		.byte	0
 1159 00a5 00       		.byte	0
 1160 00a6 0F       		.uleb128 0xf
 1161 00a7 0D       		.uleb128 0xd
 1162 00a8 00       		.byte	0
 1163 00a9 03       		.uleb128 0x3
 1164 00aa 0E       		.uleb128 0xe
 1165 00ab 3A       		.uleb128 0x3a
 1166 00ac 0B       		.uleb128 0xb
 1167 00ad 3B       		.uleb128 0x3b
 1168 00ae 0B       		.uleb128 0xb
 1169 00af 49       		.uleb128 0x49
 1170 00b0 13       		.uleb128 0x13
 1171 00b1 00       		.byte	0
 1172 00b2 00       		.byte	0
 1173 00b3 10       		.uleb128 0x10
 1174 00b4 0D       		.uleb128 0xd
 1175 00b5 00       		.byte	0
 1176 00b6 03       		.uleb128 0x3
 1177 00b7 0E       		.uleb128 0xe
 1178 00b8 3A       		.uleb128 0x3a
 1179 00b9 0B       		.uleb128 0xb
 1180 00ba 3B       		.uleb128 0x3b
 1181 00bb 0B       		.uleb128 0xb
 1182 00bc 49       		.uleb128 0x49
 1183 00bd 13       		.uleb128 0x13
 1184 00be 38       		.uleb128 0x38
 1185 00bf 0A       		.uleb128 0xa
 1186 00c0 00       		.byte	0
 1187 00c1 00       		.byte	0
 1188 00c2 11       		.uleb128 0x11
 1189 00c3 0D       		.uleb128 0xd
 1190 00c4 00       		.byte	0
 1191 00c5 03       		.uleb128 0x3
 1192 00c6 08       		.uleb128 0x8
 1193 00c7 3A       		.uleb128 0x3a
 1194 00c8 0B       		.uleb128 0xb
ARM GAS  /tmp/cc1Wy8eT.s 			page 22


 1195 00c9 3B       		.uleb128 0x3b
 1196 00ca 0B       		.uleb128 0xb
 1197 00cb 49       		.uleb128 0x49
 1198 00cc 13       		.uleb128 0x13
 1199 00cd 38       		.uleb128 0x38
 1200 00ce 0A       		.uleb128 0xa
 1201 00cf 00       		.byte	0
 1202 00d0 00       		.byte	0
 1203 00d1 12       		.uleb128 0x12
 1204 00d2 13       		.uleb128 0x13
 1205 00d3 01       		.byte	0x1
 1206 00d4 0B       		.uleb128 0xb
 1207 00d5 0B       		.uleb128 0xb
 1208 00d6 3A       		.uleb128 0x3a
 1209 00d7 0B       		.uleb128 0xb
 1210 00d8 3B       		.uleb128 0x3b
 1211 00d9 0B       		.uleb128 0xb
 1212 00da 8740     		.uleb128 0x2007
 1213 00dc 0E       		.uleb128 0xe
 1214 00dd 01       		.uleb128 0x1
 1215 00de 13       		.uleb128 0x13
 1216 00df 00       		.byte	0
 1217 00e0 00       		.byte	0
 1218 00e1 13       		.uleb128 0x13
 1219 00e2 13       		.uleb128 0x13
 1220 00e3 01       		.byte	0x1
 1221 00e4 03       		.uleb128 0x3
 1222 00e5 0E       		.uleb128 0xe
 1223 00e6 0B       		.uleb128 0xb
 1224 00e7 0B       		.uleb128 0xb
 1225 00e8 3A       		.uleb128 0x3a
 1226 00e9 0B       		.uleb128 0xb
 1227 00ea 3B       		.uleb128 0x3b
 1228 00eb 05       		.uleb128 0x5
 1229 00ec 01       		.uleb128 0x1
 1230 00ed 13       		.uleb128 0x13
 1231 00ee 00       		.byte	0
 1232 00ef 00       		.byte	0
 1233 00f0 14       		.uleb128 0x14
 1234 00f1 0D       		.uleb128 0xd
 1235 00f2 00       		.byte	0
 1236 00f3 03       		.uleb128 0x3
 1237 00f4 08       		.uleb128 0x8
 1238 00f5 3A       		.uleb128 0x3a
 1239 00f6 0B       		.uleb128 0xb
 1240 00f7 3B       		.uleb128 0x3b
 1241 00f8 05       		.uleb128 0x5
 1242 00f9 49       		.uleb128 0x49
 1243 00fa 13       		.uleb128 0x13
 1244 00fb 38       		.uleb128 0x38
 1245 00fc 0A       		.uleb128 0xa
 1246 00fd 00       		.byte	0
 1247 00fe 00       		.byte	0
 1248 00ff 15       		.uleb128 0x15
 1249 0100 35       		.uleb128 0x35
 1250 0101 00       		.byte	0
 1251 0102 49       		.uleb128 0x49
ARM GAS  /tmp/cc1Wy8eT.s 			page 23


 1252 0103 13       		.uleb128 0x13
 1253 0104 00       		.byte	0
 1254 0105 00       		.byte	0
 1255 0106 16       		.uleb128 0x16
 1256 0107 2E       		.uleb128 0x2e
 1257 0108 01       		.byte	0x1
 1258 0109 3F       		.uleb128 0x3f
 1259 010a 0C       		.uleb128 0xc
 1260 010b 03       		.uleb128 0x3
 1261 010c 0E       		.uleb128 0xe
 1262 010d 3A       		.uleb128 0x3a
 1263 010e 0B       		.uleb128 0xb
 1264 010f 3B       		.uleb128 0x3b
 1265 0110 0B       		.uleb128 0xb
 1266 0111 49       		.uleb128 0x49
 1267 0112 13       		.uleb128 0x13
 1268 0113 11       		.uleb128 0x11
 1269 0114 01       		.uleb128 0x1
 1270 0115 12       		.uleb128 0x12
 1271 0116 01       		.uleb128 0x1
 1272 0117 40       		.uleb128 0x40
 1273 0118 06       		.uleb128 0x6
 1274 0119 9642     		.uleb128 0x2116
 1275 011b 0C       		.uleb128 0xc
 1276 011c 01       		.uleb128 0x1
 1277 011d 13       		.uleb128 0x13
 1278 011e 00       		.byte	0
 1279 011f 00       		.byte	0
 1280 0120 17       		.uleb128 0x17
 1281 0121 05       		.uleb128 0x5
 1282 0122 00       		.byte	0
 1283 0123 03       		.uleb128 0x3
 1284 0124 0E       		.uleb128 0xe
 1285 0125 3A       		.uleb128 0x3a
 1286 0126 0B       		.uleb128 0xb
 1287 0127 3B       		.uleb128 0x3b
 1288 0128 0B       		.uleb128 0xb
 1289 0129 49       		.uleb128 0x49
 1290 012a 13       		.uleb128 0x13
 1291 012b 02       		.uleb128 0x2
 1292 012c 0A       		.uleb128 0xa
 1293 012d 00       		.byte	0
 1294 012e 00       		.byte	0
 1295 012f 18       		.uleb128 0x18
 1296 0130 2E       		.uleb128 0x2e
 1297 0131 01       		.byte	0x1
 1298 0132 3F       		.uleb128 0x3f
 1299 0133 0C       		.uleb128 0xc
 1300 0134 03       		.uleb128 0x3
 1301 0135 0E       		.uleb128 0xe
 1302 0136 3A       		.uleb128 0x3a
 1303 0137 0B       		.uleb128 0xb
 1304 0138 3B       		.uleb128 0x3b
 1305 0139 0B       		.uleb128 0xb
 1306 013a 8740     		.uleb128 0x2007
 1307 013c 0E       		.uleb128 0xe
 1308 013d 49       		.uleb128 0x49
ARM GAS  /tmp/cc1Wy8eT.s 			page 24


 1309 013e 13       		.uleb128 0x13
 1310 013f 11       		.uleb128 0x11
 1311 0140 01       		.uleb128 0x1
 1312 0141 12       		.uleb128 0x12
 1313 0142 01       		.uleb128 0x1
 1314 0143 40       		.uleb128 0x40
 1315 0144 06       		.uleb128 0x6
 1316 0145 9642     		.uleb128 0x2116
 1317 0147 0C       		.uleb128 0xc
 1318 0148 01       		.uleb128 0x1
 1319 0149 13       		.uleb128 0x13
 1320 014a 00       		.byte	0
 1321 014b 00       		.byte	0
 1322 014c 19       		.uleb128 0x19
 1323 014d 34       		.uleb128 0x34
 1324 014e 00       		.byte	0
 1325 014f 03       		.uleb128 0x3
 1326 0150 0E       		.uleb128 0xe
 1327 0151 3A       		.uleb128 0x3a
 1328 0152 0B       		.uleb128 0xb
 1329 0153 3B       		.uleb128 0x3b
 1330 0154 0B       		.uleb128 0xb
 1331 0155 49       		.uleb128 0x49
 1332 0156 13       		.uleb128 0x13
 1333 0157 3F       		.uleb128 0x3f
 1334 0158 0C       		.uleb128 0xc
 1335 0159 3C       		.uleb128 0x3c
 1336 015a 0C       		.uleb128 0xc
 1337 015b 00       		.byte	0
 1338 015c 00       		.byte	0
 1339 015d 1A       		.uleb128 0x1a
 1340 015e 01       		.uleb128 0x1
 1341 015f 01       		.byte	0x1
 1342 0160 49       		.uleb128 0x49
 1343 0161 13       		.uleb128 0x13
 1344 0162 01       		.uleb128 0x1
 1345 0163 13       		.uleb128 0x13
 1346 0164 00       		.byte	0
 1347 0165 00       		.byte	0
 1348 0166 1B       		.uleb128 0x1b
 1349 0167 21       		.uleb128 0x21
 1350 0168 00       		.byte	0
 1351 0169 00       		.byte	0
 1352 016a 00       		.byte	0
 1353 016b 1C       		.uleb128 0x1c
 1354 016c 34       		.uleb128 0x34
 1355 016d 00       		.byte	0
 1356 016e 03       		.uleb128 0x3
 1357 016f 0E       		.uleb128 0xe
 1358 0170 3A       		.uleb128 0x3a
 1359 0171 0B       		.uleb128 0xb
 1360 0172 3B       		.uleb128 0x3b
 1361 0173 05       		.uleb128 0x5
 1362 0174 49       		.uleb128 0x49
 1363 0175 13       		.uleb128 0x13
 1364 0176 3F       		.uleb128 0x3f
 1365 0177 0C       		.uleb128 0xc
ARM GAS  /tmp/cc1Wy8eT.s 			page 25


 1366 0178 3C       		.uleb128 0x3c
 1367 0179 0C       		.uleb128 0xc
 1368 017a 00       		.byte	0
 1369 017b 00       		.byte	0
 1370 017c 00       		.byte	0
 1371              		.section	.debug_loc,"",%progbits
 1372              	.Ldebug_loc0:
 1373              	.LLST0:
 1374 0000 00000000 		.4byte	.LFB514-.Ltext0
 1375 0004 02000000 		.4byte	.LCFI0-.Ltext0
 1376 0008 0200     		.2byte	0x2
 1377 000a 7D       		.byte	0x7d
 1378 000b 00       		.sleb128 0
 1379 000c 02000000 		.4byte	.LCFI0-.Ltext0
 1380 0010 04000000 		.4byte	.LCFI1-.Ltext0
 1381 0014 0200     		.2byte	0x2
 1382 0016 7D       		.byte	0x7d
 1383 0017 04       		.sleb128 4
 1384 0018 04000000 		.4byte	.LCFI1-.Ltext0
 1385 001c 52000000 		.4byte	.LFE514-.Ltext0
 1386 0020 0200     		.2byte	0x2
 1387 0022 7D       		.byte	0x7d
 1388 0023 10       		.sleb128 16
 1389 0024 00000000 		.4byte	0
 1390 0028 00000000 		.4byte	0
 1391              	.LLST1:
 1392 002c 54000000 		.4byte	.LFB515-.Ltext0
 1393 0030 56000000 		.4byte	.LCFI2-.Ltext0
 1394 0034 0200     		.2byte	0x2
 1395 0036 7D       		.byte	0x7d
 1396 0037 00       		.sleb128 0
 1397 0038 56000000 		.4byte	.LCFI2-.Ltext0
 1398 003c 58000000 		.4byte	.LCFI3-.Ltext0
 1399 0040 0200     		.2byte	0x2
 1400 0042 7D       		.byte	0x7d
 1401 0043 04       		.sleb128 4
 1402 0044 58000000 		.4byte	.LCFI3-.Ltext0
 1403 0048 AA000000 		.4byte	.LFE515-.Ltext0
 1404 004c 0200     		.2byte	0x2
 1405 004e 7D       		.byte	0x7d
 1406 004f 10       		.sleb128 16
 1407 0050 00000000 		.4byte	0
 1408 0054 00000000 		.4byte	0
 1409              		.section	.debug_aranges,"",%progbits
 1410 0000 1C000000 		.4byte	0x1c
 1411 0004 0200     		.2byte	0x2
 1412 0006 00000000 		.4byte	.Ldebug_info0
 1413 000a 04       		.byte	0x4
 1414 000b 00       		.byte	0
 1415 000c 0000     		.2byte	0
 1416 000e 0000     		.2byte	0
 1417 0010 00000000 		.4byte	.Ltext0
 1418 0014 AA000000 		.4byte	.Letext0-.Ltext0
 1419 0018 00000000 		.4byte	0
 1420 001c 00000000 		.4byte	0
 1421              		.section	.debug_line,"",%progbits
 1422              	.Ldebug_line0:
ARM GAS  /tmp/cc1Wy8eT.s 			page 26


 1423 0000 9E030000 		.section	.debug_str,"MS",%progbits,1
 1423      02007903 
 1423      00000201 
 1423      FB0E0D00 
 1423      01010101 
 1424              	.LASF23:
 1425 0000 74726566 		.ascii	"trefs_t\000"
 1425      735F7400 
 1426              	.LASF19:
 1427 0008 75696E74 		.ascii	"uint64_t\000"
 1427      36345F74 
 1427      00
 1428              	.LASF55:
 1429 0011 54687265 		.ascii	"ThreadsList\000"
 1429      6164734C 
 1429      69737400 
 1430              	.LASF3:
 1431 001d 73686F72 		.ascii	"short int\000"
 1431      7420696E 
 1431      7400
 1432              	.LASF15:
 1433 0027 73697A65 		.ascii	"size_t\000"
 1433      5F7400
 1434              	.LASF61:
 1435 002e 725F7175 		.ascii	"r_queue\000"
 1435      65756500 
 1436              	.LASF77:
 1437 0036 5F5F7072 		.ascii	"__program_end__\000"
 1437      6F677261 
 1437      6D5F656E 
 1437      645F5F00 
 1438              	.LASF8:
 1439 0046 73697A65 		.ascii	"sizetype\000"
 1439      74797065 
 1439      00
 1440              	.LASF34:
 1441 004f 705F7072 		.ascii	"p_prev\000"
 1441      657600
 1442              	.LASF63:
 1443 0056 725F6374 		.ascii	"r_ctx\000"
 1443      7800
 1444              	.LASF5:
 1445 005c 6C6F6E67 		.ascii	"long long int\000"
 1445      206C6F6E 
 1445      6720696E 
 1445      7400
 1446              	.LASF26:
 1447 006a 6576656E 		.ascii	"eventmask_t\000"
 1447      746D6173 
 1447      6B5F7400 
 1448              	.LASF46:
 1449 0076 705F6D73 		.ascii	"p_msgqueue\000"
 1449      67717565 
 1449      756500
 1450              	.LASF35:
 1451 0081 705F7072 		.ascii	"p_prio\000"
 1451      696F00
ARM GAS  /tmp/cc1Wy8eT.s 			page 27


 1452              	.LASF33:
 1453 0088 705F6E65 		.ascii	"p_next\000"
 1453      787400
 1454              	.LASF71:
 1455 008f 6D5F6E65 		.ascii	"m_next\000"
 1455      787400
 1456              	.LASF12:
 1457 0096 73747265 		.ascii	"strerror\000"
 1457      72726F72 
 1457      00
 1458              	.LASF56:
 1459 009f 72656761 		.ascii	"regarm_t\000"
 1459      726D5F74 
 1459      00
 1460              	.LASF78:
 1461 00a8 5F5F7261 		.ascii	"__ram_start__\000"
 1461      6D5F7374 
 1461      6172745F 
 1461      5F00
 1462              	.LASF16:
 1463 00b6 75696E74 		.ascii	"uint8_t\000"
 1463      385F7400 
 1464              	.LASF30:
 1465 00be 65786974 		.ascii	"exitcode\000"
 1465      636F6465 
 1465      00
 1466              	.LASF44:
 1467 00c7 705F7469 		.ascii	"p_time\000"
 1467      6D6500
 1468              	.LASF20:
 1469 00ce 626F6F6C 		.ascii	"bool\000"
 1469      00
 1470              	.LASF48:
 1471 00d3 705F6570 		.ascii	"p_epending\000"
 1471      656E6469 
 1471      6E6700
 1472              	.LASF74:
 1473 00de 70696E5F 		.ascii	"pin_id\000"
 1473      696400
 1474              	.LASF21:
 1475 00e5 746D6F64 		.ascii	"tmode_t\000"
 1475      655F7400 
 1476              	.LASF83:
 1477 00ed 2F686F6D 		.ascii	"/home/tino/workspace/openrobots/Middleware_v2/apps/"
 1477      652F7469 
 1477      6E6F2F77 
 1477      6F726B73 
 1477      70616365 
 1478 0120 7375625F 		.ascii	"sub_led\000"
 1478      6C656400 
 1479              	.LASF6:
 1480 0128 6C6F6E67 		.ascii	"long long unsigned int\000"
 1480      206C6F6E 
 1480      6720756E 
 1480      7369676E 
 1480      65642069 
 1481              	.LASF24:
ARM GAS  /tmp/cc1Wy8eT.s 			page 28


 1482 013f 74707269 		.ascii	"tprio_t\000"
 1482      6F5F7400 
 1483              	.LASF7:
 1484 0147 6C6F6E67 		.ascii	"long int\000"
 1484      20696E74 
 1484      00
 1485              	.LASF68:
 1486 0150 4D757465 		.ascii	"Mutex\000"
 1486      7800
 1487              	.LASF13:
 1488 0156 73747274 		.ascii	"strtok\000"
 1488      6F6B00
 1489              	.LASF69:
 1490 015d 6D5F7175 		.ascii	"m_queue\000"
 1490      65756500 
 1491              	.LASF43:
 1492 0165 705F7265 		.ascii	"p_refs\000"
 1492      667300
 1493              	.LASF66:
 1494 016c 725F6375 		.ascii	"r_current\000"
 1494      7272656E 
 1494      7400
 1495              	.LASF47:
 1496 0176 705F6D73 		.ascii	"p_msg\000"
 1496      6700
 1497              	.LASF2:
 1498 017c 756E7369 		.ascii	"unsigned char\000"
 1498      676E6564 
 1498      20636861 
 1498      7200
 1499              	.LASF52:
 1500 018a 54687265 		.ascii	"ThreadsQueue\000"
 1500      61647351 
 1500      75657565 
 1500      00
 1501              	.LASF1:
 1502 0197 7369676E 		.ascii	"signed char\000"
 1502      65642063 
 1502      68617200 
 1503              	.LASF37:
 1504 01a3 705F6E65 		.ascii	"p_newer\000"
 1504      77657200 
 1505              	.LASF53:
 1506 01ab 31325468 		.ascii	"12ThreadsQueue\000"
 1506      72656164 
 1506      73517565 
 1506      756500
 1507              	.LASF18:
 1508 01ba 75696E74 		.ascii	"uint32_t\000"
 1508      33325F74 
 1508      00
 1509              	.LASF0:
 1510 01c3 756E7369 		.ascii	"unsigned int\000"
 1510      676E6564 
 1510      20696E74 
 1510      00
 1511              	.LASF59:
ARM GAS  /tmp/cc1Wy8eT.s 			page 29


 1512 01d0 636F6E74 		.ascii	"context\000"
 1512      65787400 
 1513              	.LASF40:
 1514 01d8 705F7374 		.ascii	"p_stklimit\000"
 1514      6B6C696D 
 1514      697400
 1515              	.LASF82:
 1516 01e3 2E2E2F63 		.ascii	"../common/common.cpp\000"
 1516      6F6D6D6F 
 1516      6E2F636F 
 1516      6D6D6F6E 
 1516      2E637070 
 1517              	.LASF51:
 1518 01f8 705F6D70 		.ascii	"p_mpool\000"
 1518      6F6F6C00 
 1519              	.LASF64:
 1520 0200 725F6E65 		.ascii	"r_newer\000"
 1520      77657200 
 1521              	.LASF42:
 1522 0208 705F666C 		.ascii	"p_flags\000"
 1522      61677300 
 1523              	.LASF50:
 1524 0210 705F7265 		.ascii	"p_realprio\000"
 1524      616C7072 
 1524      696F00
 1525              	.LASF27:
 1526 021b 73797374 		.ascii	"systime_t\000"
 1526      696D655F 
 1526      7400
 1527              	.LASF75:
 1528 0225 726C6973 		.ascii	"rlist\000"
 1528      7400
 1529              	.LASF10:
 1530 022b 63686172 		.ascii	"char\000"
 1530      00
 1531              	.LASF32:
 1532 0230 65776D61 		.ascii	"ewmask\000"
 1532      736B00
 1533              	.LASF39:
 1534 0237 705F6E61 		.ascii	"p_name\000"
 1534      6D6500
 1535              	.LASF17:
 1536 023e 696E7433 		.ascii	"int32_t\000"
 1536      325F7400 
 1537              	.LASF62:
 1538 0246 725F7072 		.ascii	"r_prio\000"
 1538      696F00
 1539              	.LASF11:
 1540 024d 73747263 		.ascii	"strcoll\000"
 1540      6F6C6C00 
 1541              	.LASF4:
 1542 0255 73686F72 		.ascii	"short unsigned int\000"
 1542      7420756E 
 1542      7369676E 
 1542      65642069 
 1542      6E7400
 1543              	.LASF41:
ARM GAS  /tmp/cc1Wy8eT.s 			page 30


 1544 0268 705F7374 		.ascii	"p_state\000"
 1544      61746500 
 1545              	.LASF45:
 1546 0270 705F7761 		.ascii	"p_waiting\000"
 1546      6974696E 
 1546      6700
 1547              	.LASF81:
 1548 027a 474E5520 		.ascii	"GNU C++ 4.7.3 20130312 (release) [ARM/embedded-4_7-"
 1548      432B2B20 
 1548      342E372E 
 1548      33203230 
 1548      31333033 
 1549 02ad 6272616E 		.ascii	"branch revision 196615]\000"
 1549      63682072 
 1549      65766973 
 1549      696F6E20 
 1549      31393636 
 1550              	.LASF49:
 1551 02c5 705F6D74 		.ascii	"p_mtxlist\000"
 1551      786C6973 
 1551      7400
 1552              	.LASF58:
 1553 02cf 696E7463 		.ascii	"intctx\000"
 1553      747800
 1554              	.LASF14:
 1555 02d6 73747278 		.ascii	"strxfrm\000"
 1555      66726D00 
 1556              	.LASF9:
 1557 02de 6C6F6E67 		.ascii	"long unsigned int\000"
 1557      20756E73 
 1557      69676E65 
 1557      6420696E 
 1557      7400
 1558              	.LASF86:
 1559 02f0 5F5A3770 		.ascii	"_Z7pin2ledj\000"
 1559      696E326C 
 1559      65646A00 
 1560              	.LASF72:
 1561 02fc 646F7562 		.ascii	"double\000"
 1561      6C6500
 1562              	.LASF28:
 1563 0303 54687265 		.ascii	"Thread\000"
 1563      616400
 1564              	.LASF31:
 1565 030a 77746F62 		.ascii	"wtobjp\000"
 1565      6A7000
 1566              	.LASF73:
 1567 0311 6C65645F 		.ascii	"led_id\000"
 1567      696400
 1568              	.LASF22:
 1569 0318 74737461 		.ascii	"tstate_t\000"
 1569      74655F74 
 1569      00
 1570              	.LASF57:
 1571 0321 73746B61 		.ascii	"stkalign_t\000"
 1571      6C69676E 
 1571      5F7400
ARM GAS  /tmp/cc1Wy8eT.s 			page 31


 1572              	.LASF67:
 1573 032c 52656164 		.ascii	"ReadyList\000"
 1573      794C6973 
 1573      7400
 1574              	.LASF54:
 1575 0336 31315468 		.ascii	"11ThreadsList\000"
 1575      72656164 
 1575      734C6973 
 1575      7400
 1576              	.LASF60:
 1577 0344 39526561 		.ascii	"9ReadyList\000"
 1577      64794C69 
 1577      737400
 1578              	.LASF38:
 1579 034f 705F6F6C 		.ascii	"p_older\000"
 1579      64657200 
 1580              	.LASF36:
 1581 0357 705F6374 		.ascii	"p_ctx\000"
 1581      7800
 1582              	.LASF80:
 1583 035d 49544D5F 		.ascii	"ITM_RxBuffer\000"
 1583      52784275 
 1583      66666572 
 1583      00
 1584              	.LASF79:
 1585 036a 5F5F7261 		.ascii	"__ram_end__\000"
 1585      6D5F656E 
 1585      645F5F00 
 1586              	.LASF76:
 1587 0376 5F5F7072 		.ascii	"__program_start__\000"
 1587      6F677261 
 1587      6D5F7374 
 1587      6172745F 
 1587      5F00
 1588              	.LASF70:
 1589 0388 6D5F6F77 		.ascii	"m_owner\000"
 1589      6E657200 
 1590              	.LASF84:
 1591 0390 6C656432 		.ascii	"led2pin\000"
 1591      70696E00 
 1592              	.LASF29:
 1593 0398 7264796D 		.ascii	"rdymsg\000"
 1593      736700
 1594              	.LASF85:
 1595 039f 70696E32 		.ascii	"pin2led\000"
 1595      6C656400 
 1596              	.LASF25:
 1597 03a7 6D73675F 		.ascii	"msg_t\000"
 1597      7400
 1598              	.LASF65:
 1599 03ad 725F6F6C 		.ascii	"r_older\000"
 1599      64657200 
 1600              		.ident	"GCC: (GNU Tools for ARM Embedded Processors) 4.7.3 20130312 (release) [ARM/embedded-4_7-br
ARM GAS  /tmp/cc1Wy8eT.s 			page 32


DEFINED SYMBOLS
                            *ABS*:00000000 common.cpp
     /tmp/cc1Wy8eT.s:72     .rodata:00000000 $d
     /tmp/cc1Wy8eT.s:73     .rodata:00000000 .LC0
     /tmp/cc1Wy8eT.s:76     .text:00000000 $t
     /tmp/cc1Wy8eT.s:81     .text:00000000 led2pin
     /tmp/cc1Wy8eT.s:104    .text:00000014 $d
     /tmp/cc1Wy8eT.s:110    .text:00000024 $t
     /tmp/cc1Wy8eT.s:144    .text:00000054 _Z7pin2ledj
     /tmp/cc1Wy8eT.s:167    .text:0000006c $d
     /tmp/cc1Wy8eT.s:173    .text:0000007c $t
                     .debug_frame:00000010 $d

UNDEFINED SYMBOLS
chDbgPanic
