ARM GAS  /tmp/cc1Wy8eT.s 			page 1


   1              		.syntax unified
   2              		.cpu cortex-m3
   3              		.fpu softvfp
   4              		.eabi_attribute 20, 1	@ Tag_ABI_FP_denormal
   5              		.eabi_attribute 21, 1	@ Tag_ABI_FP_exceptions
   6              		.eabi_attribute 23, 3	@ Tag_ABI_FP_number_model
   7              		.eabi_attribute 24, 1	@ Tag_ABI_align8_needed
   8              		.eabi_attribute 25, 1	@ Tag_ABI_align8_preserved
   9              		.eabi_attribute 26, 1	@ Tag_ABI_enum_size
  10              		.eabi_attribute 30, 6	@ Tag_ABI_optimization_goals
  11              		.eabi_attribute 34, 1	@ Tag_CPU_unaligned_access
  12              		.eabi_attribute 18, 4	@ Tag_ABI_PCS_wchar_t
  13              		.file	"common.cpp"
  14              	@ GNU C++ (GNU Tools for ARM Embedded Processors) version 4.7.3 20130312 (release) [ARM/embedded-4_
  15              	@	compiled by GNU C version 4.3.6, GMP version 4.3.2, MPFR version 2.4.2, MPC version 0.8.1
  16              	@ GGC heuristics: --param ggc-min-expand=100 --param ggc-min-heapsize=131072
  17              	@ options passed:  -I .
  18              	@ -I /opt/ChibiStudio/ChibiOS_2.6.2/os/ports/common/ARMCMx/CMSIS/include
  19              	@ -I /opt/ChibiStudio/ChibiOS_2.6.2/os/ports/common/ARMCMx
  20              	@ -I /opt/ChibiStudio/ChibiOS_2.6.2/os/ports/GCC/ARMCMx
  21              	@ -I /opt/ChibiStudio/ChibiOS_2.6.2/os/ports/GCC/ARMCMx/STM32F1xx
  22              	@ -I /opt/ChibiStudio/ChibiOS_2.6.2/os/kernel/include
  23              	@ -I /opt/ChibiStudio/ChibiOS_2.6.2/os/hal/include
  24              	@ -I /opt/ChibiStudio/ChibiOS_2.6.2/os/hal/platforms/STM32F1xx
  25              	@ -I /opt/ChibiStudio/ChibiOS_2.6.2/os/hal/platforms/STM32
  26              	@ -I /opt/ChibiStudio/ChibiOS_2.6.2/os/hal/platforms/STM32/GPIOv1
  27              	@ -I /opt/ChibiStudio/ChibiOS_2.6.2/os/hal/platforms/STM32/I2Cv1
  28              	@ -I /opt/ChibiStudio/ChibiOS_2.6.2/os/hal/platforms/STM32/RTCv1
  29              	@ -I /opt/ChibiStudio/ChibiOS_2.6.2/os/hal/platforms/STM32/SPIv1
  30              	@ -I /opt/ChibiStudio/ChibiOS_2.6.2/os/hal/platforms/STM32/TIMv1
  31              	@ -I /opt/ChibiStudio/ChibiOS_2.6.2/os/hal/platforms/STM32/USARTv1
  32              	@ -I /opt/ChibiStudio/ChibiOS_2.6.2/os/hal/platforms/STM32/USBv1
  33              	@ -I /home/tino/workspace/openrobots/Middleware_v2/r2p/include
  34              	@ -I /home/tino/workspace/openrobots/Middleware_v2/r2p/port/chibios/include
  35              	@ -I /home/tino/workspace/openrobots/Middleware_v2/.
  36              	@ -I /opt/ChibiStudio/ChibiOS_2.6.2/os/various -I ../common
  37              	@ -imultilib armv7-m
  38              	@ -iprefix /opt/ChibiStudio/tools/gcc-arm-none-eabi-4_7-2013q1/bin/../lib/gcc/arm-none-eabi/4.7.3/
  39              	@ -isysroot /opt/ChibiStudio/tools/gcc-arm-none-eabi-4_7-2013q1/bin/../arm-none-eabi
  40              	@ -MD build/obj/common.d -MF .dep/common.o.d -MP -MQ build/obj/common.o
  41              	@ -D__USES_INITFINI__ -D PORT_INT_REQUIRED_STACK=128
  42              	@ -D R2P_MODULE_NAME=IMU0 -D THUMB_PRESENT -D THUMB_NO_INTERWORKING
  43              	@ -D THUMB ../common/common.cpp -mcpu=cortex-m3 -mno-thumb-interwork
  44              	@ -mthumb -auxbase-strip build/obj/common.o -ggdb -O0 -Wall -Wextra
  45              	@ -fomit-frame-pointer -fverbose-asm -fno-rtti -fno-exceptions
  46              	@ -fno-threadsafe-statics
  47              	@ options enabled:  -fauto-inc-dec -fbranch-count-reg -fcommon
  48              	@ -fdebug-types-section -fdelete-null-pointer-checks -fdwarf2-cfi-asm
  49              	@ -fearly-inlining -feliminate-unused-debug-types -ffunction-cse -fgcse-lm
  50              	@ -fgnu-runtime -fident -finline-atomics -fira-share-save-slots
  51              	@ -fira-share-spill-slots -fivopts -fkeep-static-consts
  52              	@ -fleading-underscore -fmath-errno -fmerge-debug-strings
  53              	@ -fmove-loop-invariants -fomit-frame-pointer -fpeephole
  54              	@ -fprefetch-loop-arrays -freg-struct-return
  55              	@ -fsched-critical-path-heuristic -fsched-dep-count-heuristic
  56              	@ -fsched-group-heuristic -fsched-interblock -fsched-last-insn-heuristic
  57              	@ -fsched-rank-heuristic -fsched-spec -fsched-spec-insn-heuristic
ARM GAS  /tmp/cc1Wy8eT.s 			page 2


  58              	@ -fsched-stalled-insns-dep -fshow-column -fsigned-zeros
  59              	@ -fsplit-ivs-in-unroller -fstrict-volatile-bitfields -ftrapping-math
  60              	@ -ftree-cselim -ftree-forwprop -ftree-loop-if-convert -ftree-loop-im
  61              	@ -ftree-loop-ivcanon -ftree-loop-optimize -ftree-parallelize-loops=
  62              	@ -ftree-phiprop -ftree-pta -ftree-reassoc -ftree-scev-cprop
  63              	@ -ftree-slp-vectorize -ftree-vect-loop-version -funit-at-a-time
  64              	@ -fverbose-asm -fzero-initialized-in-bss -mfix-cortex-m3-ldrd
  65              	@ -mlittle-endian -msched-prolog -mthumb -munaligned-access
  66              	@ -mvectorize-with-neon-quad
  67              	
  68              		.text
  69              	.Ltext0:
  70              		.cfi_sections	.debug_frame
  71              		.section	.rodata
  72              		.align	2
  73              	.LC0:
  74 0000 5232505F 		.ascii	"R2P_ASSERT()\000"
  74      41535345 
  74      52542829 
  74      00
  75 000d 000000   		.text
  76              		.align	2
  77              		.global	led2pin
  78              		.thumb
  79              		.thumb_func
  80              		.type	led2pin, %function
  81              	led2pin:
  82              	.LFB514:
  83              		.file 1 "../common/common.cpp"
  84              		.loc 1 4 0
  85              		.cfi_startproc
  86              		@ args = 0, pretend = 0, frame = 8
  87              		@ frame_needed = 0, uses_anonymous_args = 0
  88 0000 00B5     		push	{lr}	@
  89              	.LCFI0:
  90              		.cfi_def_cfa_offset 4
  91              		.cfi_offset 14, -4
  92 0002 83B0     		sub	sp, sp, #12	@,,
  93              	.LCFI1:
  94              		.cfi_def_cfa_offset 16
  95 0004 0190     		str	r0, [sp, #4]	@ led_id, led_id
  96              		.loc 1 6 0
  97 0006 019B     		ldr	r3, [sp, #4]	@ tmp136, led_id
  98 0008 032B     		cmp	r3, #3	@ tmp136,
  99 000a 17D8     		bhi	.L2	@
 100 000c 01A2     		adr	r2, .L7	@,
 101 000e 52F823F0 		ldr	pc, [r2, r3, lsl #2]	@, tmp136
 102 0012 00BF     		.align	2
 103              	.L7:
 104 0014 25000000 		.word	.L3+1
 105 0018 2B000000 		.word	.L4+1
 106 001c 31000000 		.word	.L5+1
 107 0020 37000000 		.word	.L6+1
 108              	.L3:
 109              		.loc 1 7 0
 110 0024 4FF00C03 		mov	r3, #12	@ D.12770,
 111 0028 10E0     		b	.L8	@
ARM GAS  /tmp/cc1Wy8eT.s 			page 3


 112              	.L4:
 113              		.loc 1 8 0
 114 002a 4FF00D03 		mov	r3, #13	@ D.12770,
 115 002e 0DE0     		b	.L8	@
 116              	.L5:
 117              		.loc 1 9 0
 118 0030 4FF00E03 		mov	r3, #14	@ D.12770,
 119 0034 0AE0     		b	.L8	@
 120              	.L6:
 121              		.loc 1 10 0
 122 0036 4FF00F03 		mov	r3, #15	@ D.12770,
 123 003a 07E0     		b	.L8	@
 124              	.L2:
 125              		.loc 1 12 0
 126 003c 40F20000 		movw	r0, #:lower16:.LC0	@,
 127 0040 C0F20000 		movt	r0, #:upper16:.LC0	@,
 128 0044 FFF7FEFF 		bl	chDbgPanic	@
 129              		.loc 1 13 0
 130 0048 4FF00003 		mov	r3, #0	@ D.12770,
 131              	.L8:
 132              		.loc 1 14 0
 133 004c 1846     		mov	r0, r3	@, <retval>
 134 004e 03B0     		add	sp, sp, #12	@,,
 135 0050 00BD     		pop	{pc}
 136              		.cfi_endproc
 137              	.LFE514:
 138              		.size	led2pin, .-led2pin
 139 0052 00BF     		.align	2
 140              		.global	_Z7pin2ledj
 141              		.thumb
 142              		.thumb_func
 143              		.type	_Z7pin2ledj, %function
 144              	_Z7pin2ledj:
 145              	.LFB515:
 146              		.loc 1 17 0
 147              		.cfi_startproc
 148              		@ args = 0, pretend = 0, frame = 8
 149              		@ frame_needed = 0, uses_anonymous_args = 0
 150 0054 00B5     		push	{lr}	@
 151              	.LCFI2:
 152              		.cfi_def_cfa_offset 4
 153              		.cfi_offset 14, -4
 154 0056 83B0     		sub	sp, sp, #12	@,,
 155              	.LCFI3:
 156              		.cfi_def_cfa_offset 16
 157 0058 0190     		str	r0, [sp, #4]	@ pin_id, pin_id
 158              		.loc 1 19 0
 159 005a 019B     		ldr	r3, [sp, #4]	@ tmp136, pin_id
 160 005c A3F10C03 		sub	r3, r3, #12	@ tmp137, tmp136,
 161 0060 032B     		cmp	r3, #3	@ tmp137,
 162 0062 17D8     		bhi	.L10	@
 163 0064 01A2     		adr	r2, .L15	@,
 164 0066 52F823F0 		ldr	pc, [r2, r3, lsl #2]	@, tmp137
 165 006a 00BF     		.align	2
 166              	.L15:
 167 006c 7D000000 		.word	.L11+1
 168 0070 83000000 		.word	.L12+1
ARM GAS  /tmp/cc1Wy8eT.s 			page 4


 169 0074 89000000 		.word	.L13+1
 170 0078 8F000000 		.word	.L14+1
 171              	.L11:
 172              		.loc 1 20 0
 173 007c 4FF00003 		mov	r3, #0	@ D.12766,
 174 0080 10E0     		b	.L16	@
 175              	.L12:
 176              		.loc 1 21 0
 177 0082 4FF00103 		mov	r3, #1	@ D.12766,
 178 0086 0DE0     		b	.L16	@
 179              	.L13:
 180              		.loc 1 22 0
 181 0088 4FF00203 		mov	r3, #2	@ D.12766,
 182 008c 0AE0     		b	.L16	@
 183              	.L14:
 184              		.loc 1 23 0
 185 008e 4FF00303 		mov	r3, #3	@ D.12766,
 186 0092 07E0     		b	.L16	@
 187              	.L10:
 188              		.loc 1 25 0
 189 0094 40F20000 		movw	r0, #:lower16:.LC0	@,
 190 0098 C0F20000 		movt	r0, #:upper16:.LC0	@,
 191 009c FFF7FEFF 		bl	chDbgPanic	@
 192              		.loc 1 26 0
 193 00a0 4FF00003 		mov	r3, #0	@ D.12766,
 194              	.L16:
 195              		.loc 1 27 0
 196 00a4 1846     		mov	r0, r3	@, <retval>
 197 00a6 03B0     		add	sp, sp, #12	@,,
 198 00a8 00BD     		pop	{pc}
 199              		.cfi_endproc
 200              	.LFE515:
 201              		.size	_Z7pin2ledj, .-_Z7pin2ledj
 202              	.Letext0:
 203              		.file 2 "/opt/ChibiStudio/tools/gcc-arm-none-eabi-4_7-2013q1/bin/../lib/gcc/arm-none-eabi/4.7.3/..
 204              		.file 3 "/opt/ChibiStudio/tools/gcc-arm-none-eabi-4_7-2013q1/bin/../lib/gcc/arm-none-eabi/4.7.3/..
 205              		.file 4 "/opt/ChibiStudio/tools/gcc-arm-none-eabi-4_7-2013q1/bin/../lib/gcc/arm-none-eabi/4.7.3/in
 206              		.file 5 "/opt/ChibiStudio/tools/gcc-arm-none-eabi-4_7-2013q1/bin/../lib/gcc/arm-none-eabi/4.7.3/..
 207              		.file 6 "/opt/ChibiStudio/ChibiOS_2.6.2/os/ports/GCC/ARMCMx/chtypes.h"
 208              		.file 7 "/opt/ChibiStudio/ChibiOS_2.6.2/os/kernel/include/chlists.h"
 209              		.file 8 "/opt/ChibiStudio/ChibiOS_2.6.2/os/kernel/include/chthreads.h"
 210              		.file 9 "/opt/ChibiStudio/ChibiOS_2.6.2/os/ports/GCC/ARMCMx/chcore_v7m.h"
 211              		.file 10 "/opt/ChibiStudio/ChibiOS_2.6.2/os/kernel/include/chschd.h"
 212              		.file 11 "/opt/ChibiStudio/ChibiOS_2.6.2/os/kernel/include/chmtx.h"
 213              		.file 12 "/home/tino/workspace/openrobots/Middleware_v2/r2p/port/chibios/include/r2p/impl/Flasher_
 214              		.file 13 "/opt/ChibiStudio/ChibiOS_2.6.2/os/ports/common/ARMCMx/CMSIS/include/core_cm3.h"
 215              		.file 14 "<built-in>"
 216              		.file 15 "/home/tino/workspace/openrobots/Middleware_v2/r2p/include/r2p/Uncopyable.hpp"