ARM GAS  /tmp/ccdGxQ12.s 			page 1


   1              		.syntax unified
   2              		.cpu cortex-m4
   3              		.fpu softvfp
   4              		.eabi_attribute 20, 1
   5              		.eabi_attribute 21, 1
   6              		.eabi_attribute 23, 3
   7              		.eabi_attribute 24, 1
   8              		.eabi_attribute 25, 1
   9              		.eabi_attribute 26, 1
  10              		.eabi_attribute 30, 6
  11              		.eabi_attribute 34, 1
  12              		.eabi_attribute 18, 4
  13              		.thumb
  14              		.file	"BaseSubscriberQueue.cpp"
  15              		.text
  16              	.Ltext0:
  17              		.cfi_sections	.debug_frame
  18              		.section	.text._ZN3r2p10UncopyableC2Ev,"axG",%progbits,_ZN3r2p10UncopyableC5Ev,comdat
  19              		.align	2
  20              		.weak	_ZN3r2p10UncopyableC2Ev
  21              		.thumb
  22              		.thumb_func
  23              		.type	_ZN3r2p10UncopyableC2Ev, %function
  24              	_ZN3r2p10UncopyableC2Ev:
  25              	.LFB6:
  26              		.file 1 "/opt/R2P/core/Middleware/include/r2p/Uncopyable.hpp"
  27              		.loc 1 20 0
  28              		.cfi_startproc
  29              		@ args = 0, pretend = 0, frame = 8
  30              		@ frame_needed = 0, uses_anonymous_args = 0
  31              		@ link register save eliminated.
  32 0000 82B0     		sub	sp, sp, #8
  33              		.cfi_def_cfa_offset 8
  34 0002 0190     		str	r0, [sp, #4]
  35              		.loc 1 20 0
  36 0004 019B     		ldr	r3, [sp, #4]
  37 0006 1846     		mov	r0, r3
  38 0008 02B0     		add	sp, sp, #8
  39              		.cfi_def_cfa_offset 0
  40              		@ sp needed
  41 000a 7047     		bx	lr
  42              		.cfi_endproc
  43              	.LFE6:
  44              		.size	_ZN3r2p10UncopyableC2Ev, .-_ZN3r2p10UncopyableC2Ev
  45              		.weak	_ZN3r2p10UncopyableC1Ev
  46              		.thumb_set _ZN3r2p10UncopyableC1Ev,_ZN3r2p10UncopyableC2Ev
  47              		.section	.text._ZN3r2p11StaticQueueINS_14BaseSubscriberEEC2Ev,"axG",%progbits,_ZN3r2p11StaticQueue
  48              		.align	2
  49              		.weak	_ZN3r2p11StaticQueueINS_14BaseSubscriberEEC2Ev
  50              		.thumb
  51              		.thumb_func
  52              		.type	_ZN3r2p11StaticQueueINS_14BaseSubscriberEEC2Ev, %function
  53              	_ZN3r2p11StaticQueueINS_14BaseSubscriberEEC2Ev:
  54              	.LFB77:
  55              		.file 2 "/opt/R2P/core/Middleware/include/r2p/StaticQueue.hpp"
  56              		.loc 2 10 0
  57              		.cfi_startproc
ARM GAS  /tmp/ccdGxQ12.s 			page 2


  58              		@ args = 0, pretend = 0, frame = 8
  59              		@ frame_needed = 0, uses_anonymous_args = 0
  60 0000 00B5     		push	{lr}
  61              		.cfi_def_cfa_offset 4
  62              		.cfi_offset 14, -4
  63 0002 83B0     		sub	sp, sp, #12
  64              		.cfi_def_cfa_offset 16
  65 0004 0190     		str	r0, [sp, #4]
  66              	.LBB2:
  67              		.loc 2 10 0
  68 0006 0198     		ldr	r0, [sp, #4]
  69 0008 FFF7FEFF 		bl	_ZN3r2p10UncopyableC2Ev
  70 000c 019B     		ldr	r3, [sp, #4]
  71 000e 0433     		adds	r3, r3, #4
  72 0010 1846     		mov	r0, r3
  73 0012 FFF7FEFF 		bl	_ZN3r2p12StaticQueue_C1Ev
  74              	.LBE2:
  75 0016 019B     		ldr	r3, [sp, #4]
  76 0018 1846     		mov	r0, r3
  77 001a 03B0     		add	sp, sp, #12
  78              		.cfi_def_cfa_offset 4
  79              		@ sp needed
  80 001c 5DF804FB 		ldr	pc, [sp], #4
  81              		.cfi_endproc
  82              	.LFE77:
  83              		.size	_ZN3r2p11StaticQueueINS_14BaseSubscriberEEC2Ev, .-_ZN3r2p11StaticQueueINS_14BaseSubscriberEE
  84              		.weak	_ZN3r2p11StaticQueueINS_14BaseSubscriberEEC1Ev
  85              		.thumb_set _ZN3r2p11StaticQueueINS_14BaseSubscriberEEC1Ev,_ZN3r2p11StaticQueueINS_14BaseSubscriber
  86              		.text
  87              		.align	2
  88              		.global	_ZN3r2p19BaseSubscriberQueueC2Ev
  89              		.thumb
  90              		.thumb_func
  91              		.type	_ZN3r2p19BaseSubscriberQueueC2Ev, %function
  92              	_ZN3r2p19BaseSubscriberQueueC2Ev:
  93              	.LFB82:
  94              		.file 3 "/opt/R2P/core/Middleware/src/BaseSubscriberQueue.cpp"
  95              		.loc 3 7 0
  96              		.cfi_startproc
  97              		@ args = 0, pretend = 0, frame = 8
  98              		@ frame_needed = 0, uses_anonymous_args = 0
  99 0000 00B5     		push	{lr}
 100              		.cfi_def_cfa_offset 4
 101              		.cfi_offset 14, -4
 102 0002 83B0     		sub	sp, sp, #12
 103              		.cfi_def_cfa_offset 16
 104 0004 0190     		str	r0, [sp, #4]
 105              	.LBB3:
 106              		.loc 3 7 0
 107 0006 019B     		ldr	r3, [sp, #4]
 108 0008 1846     		mov	r0, r3
 109 000a FFF7FEFF 		bl	_ZN3r2p11StaticQueueINS_14BaseSubscriberEEC2Ev
 110              	.LBE3:
 111 000e 019B     		ldr	r3, [sp, #4]
 112 0010 1846     		mov	r0, r3
 113 0012 03B0     		add	sp, sp, #12
 114              		.cfi_def_cfa_offset 4
ARM GAS  /tmp/ccdGxQ12.s 			page 3


 115              		@ sp needed
 116 0014 5DF804FB 		ldr	pc, [sp], #4
 117              		.cfi_endproc
 118              	.LFE82:
 119              		.size	_ZN3r2p19BaseSubscriberQueueC2Ev, .-_ZN3r2p19BaseSubscriberQueueC2Ev
 120              		.global	_ZN3r2p19BaseSubscriberQueueC1Ev
 121              		.thumb_set _ZN3r2p19BaseSubscriberQueueC1Ev,_ZN3r2p19BaseSubscriberQueueC2Ev
 122              	.Letext0:
 123              		.file 4 "/opt/R2P/tools/gcc-arm-none-eabi-4_9-2014q4/arm-none-eabi/include/c++/4.9.3/cstring"
 124              		.file 5 "/opt/R2P/tools/gcc-arm-none-eabi-4_9-2014q4/arm-none-eabi/include/string.h"
 125              		.file 6 "<built-in>"
 126              		.file 7 "/opt/R2P/core/Middleware/include/r2p/impl/StaticQueue_.hpp"
 127              		.file 8 "/opt/R2P/core/Middleware/include/r2p/BaseSubscriberQueue.hpp"
 128              		.file 9 "/opt/R2P/tools/gcc-arm-none-eabi-4_9-2014q4/lib/gcc/arm-none-eabi/4.9.3/include/stddef.h"