ARM GAS  /tmp/cc7uI4QX.s 			page 1


   1              		.syntax unified
   2              		.cpu cortex-m4
   3              		.fpu softvfp
   4              		.eabi_attribute 20, 1
   5              		.eabi_attribute 21, 1
   6              		.eabi_attribute 23, 3
   7              		.eabi_attribute 24, 1
   8              		.eabi_attribute 25, 1
   9              		.eabi_attribute 26, 1
  10              		.eabi_attribute 30, 6
  11              		.eabi_attribute 34, 1
  12              		.eabi_attribute 18, 4
  13              		.thumb
  14              		.file	"BaseSubscriber.cpp"
  15              		.text
  16              	.Ltext0:
  17              		.cfi_sections	.debug_frame
  18              		.section	.text._ZN3r2p10UncopyableC2Ev,"axG",%progbits,_ZN3r2p10UncopyableC5Ev,comdat
  19              		.align	2
  20              		.weak	_ZN3r2p10UncopyableC2Ev
  21              		.thumb
  22              		.thumb_func
  23              		.type	_ZN3r2p10UncopyableC2Ev, %function
  24              	_ZN3r2p10UncopyableC2Ev:
  25              	.LFB6:
  26              		.file 1 "/opt/R2P/core/Middleware/include/r2p/Uncopyable.hpp"
  27              		.loc 1 20 0
  28              		.cfi_startproc
  29              		@ args = 0, pretend = 0, frame = 8
  30              		@ frame_needed = 0, uses_anonymous_args = 0
  31              		@ link register save eliminated.
  32 0000 82B0     		sub	sp, sp, #8
  33              		.cfi_def_cfa_offset 8
  34 0002 0190     		str	r0, [sp, #4]
  35              		.loc 1 20 0
  36 0004 019B     		ldr	r3, [sp, #4]
  37 0006 1846     		mov	r0, r3
  38 0008 02B0     		add	sp, sp, #8
  39              		.cfi_def_cfa_offset 0
  40              		@ sp needed
  41 000a 7047     		bx	lr
  42              		.cfi_endproc
  43              	.LFE6:
  44              		.size	_ZN3r2p10UncopyableC2Ev, .-_ZN3r2p10UncopyableC2Ev
  45              		.weak	_ZN3r2p10UncopyableC1Ev
  46              		.thumb_set _ZN3r2p10UncopyableC1Ev,_ZN3r2p10UncopyableC2Ev
  47              		.section	.text._ZN3r2p10UncopyableD2Ev,"axG",%progbits,_ZN3r2p10UncopyableD5Ev,comdat
  48              		.align	2
  49              		.weak	_ZN3r2p10UncopyableD2Ev
  50              		.thumb
  51              		.thumb_func
  52              		.type	_ZN3r2p10UncopyableD2Ev, %function
  53              	_ZN3r2p10UncopyableD2Ev:
  54              	.LFB9:
  55              		.loc 1 21 0
  56              		.cfi_startproc
  57              		@ args = 0, pretend = 0, frame = 8
ARM GAS  /tmp/cc7uI4QX.s 			page 2


  58              		@ frame_needed = 0, uses_anonymous_args = 0
  59              		@ link register save eliminated.
  60 0000 82B0     		sub	sp, sp, #8
  61              		.cfi_def_cfa_offset 8
  62 0002 0190     		str	r0, [sp, #4]
  63              		.loc 1 21 0
  64 0004 019B     		ldr	r3, [sp, #4]
  65 0006 1846     		mov	r0, r3
  66 0008 02B0     		add	sp, sp, #8
  67              		.cfi_def_cfa_offset 0
  68              		@ sp needed
  69 000a 7047     		bx	lr
  70              		.cfi_endproc
  71              	.LFE9:
  72              		.size	_ZN3r2p10UncopyableD2Ev, .-_ZN3r2p10UncopyableD2Ev
  73              		.weak	_ZN3r2p10UncopyableD1Ev
  74              		.thumb_set _ZN3r2p10UncopyableD1Ev,_ZN3r2p10UncopyableD2Ev
  75              		.section	.text._ZN3r2p11MemoryPool_11free_unsafeEPv,"axG",%progbits,_ZN3r2p11MemoryPool_11free_uns
  76              		.align	2
  77              		.weak	_ZN3r2p11MemoryPool_11free_unsafeEPv
  78              		.thumb
  79              		.thumb_func
  80              		.type	_ZN3r2p11MemoryPool_11free_unsafeEPv, %function
  81              	_ZN3r2p11MemoryPool_11free_unsafeEPv:
  82              	.LFB135:
  83              		.file 2 "/opt/R2P/core/Middleware/port/chibios/include/r2p/impl/MemoryPool_.hpp"
  84              		.loc 2 60 0
  85              		.cfi_startproc
  86              		@ args = 0, pretend = 0, frame = 8
  87              		@ frame_needed = 0, uses_anonymous_args = 0
  88 0000 00B5     		push	{lr}
  89              		.cfi_def_cfa_offset 4
  90              		.cfi_offset 14, -4
  91 0002 83B0     		sub	sp, sp, #12
  92              		.cfi_def_cfa_offset 16
  93 0004 0190     		str	r0, [sp, #4]
  94 0006 0091     		str	r1, [sp]
  95              		.loc 2 62 0
  96 0008 009B     		ldr	r3, [sp]
  97 000a 002B     		cmp	r3, #0
  98 000c 04D0     		beq	.L7
  99              		.loc 2 63 0
 100 000e 019B     		ldr	r3, [sp, #4]
 101 0010 1846     		mov	r0, r3
 102 0012 0099     		ldr	r1, [sp]
 103 0014 FFF7FEFF 		bl	chPoolFreeI
 104              	.L7:
 105              		.loc 2 65 0
 106 0018 03B0     		add	sp, sp, #12
 107              		.cfi_def_cfa_offset 4
 108              		@ sp needed
 109 001a 5DF804FB 		ldr	pc, [sp], #4
 110              		.cfi_endproc
 111              	.LFE135:
 112              		.size	_ZN3r2p11MemoryPool_11free_unsafeEPv, .-_ZN3r2p11MemoryPool_11free_unsafeEPv
 113 001e 00BF     		.section	.text._ZN3r2p11MemoryPool_4freeEPv,"axG",%progbits,_ZN3r2p11MemoryPool_4freeEPv,comdat
 114              		.align	2
ARM GAS  /tmp/cc7uI4QX.s 			page 3


 115              		.weak	_ZN3r2p11MemoryPool_4freeEPv
 116              		.thumb
 117              		.thumb_func
 118              		.type	_ZN3r2p11MemoryPool_4freeEPv, %function
 119              	_ZN3r2p11MemoryPool_4freeEPv:
 120              	.LFB137:
 121              		.loc 2 76 0
 122              		.cfi_startproc
 123              		@ args = 0, pretend = 0, frame = 8
 124              		@ frame_needed = 0, uses_anonymous_args = 0
 125 0000 00B5     		push	{lr}
 126              		.cfi_def_cfa_offset 4
 127              		.cfi_offset 14, -4
 128 0002 83B0     		sub	sp, sp, #12
 129              		.cfi_def_cfa_offset 16
 130 0004 0190     		str	r0, [sp, #4]
 131 0006 0091     		str	r1, [sp]
 132              		.loc 2 78 0
 133 0008 009B     		ldr	r3, [sp]
 134 000a 002B     		cmp	r3, #0
 135 000c 04D0     		beq	.L9
 136              		.loc 2 79 0
 137 000e 019B     		ldr	r3, [sp, #4]
 138 0010 1846     		mov	r0, r3
 139 0012 0099     		ldr	r1, [sp]
 140 0014 FFF7FEFF 		bl	chPoolFree
 141              	.L9:
 142              		.loc 2 81 0
 143 0018 03B0     		add	sp, sp, #12
 144              		.cfi_def_cfa_offset 4
 145              		@ sp needed
 146 001a 5DF804FB 		ldr	pc, [sp], #4
 147              		.cfi_endproc
 148              	.LFE137:
 149              		.size	_ZN3r2p11MemoryPool_4freeEPv, .-_ZN3r2p11MemoryPool_4freeEPv
 150 001e 00BF     		.section	.rodata
 151              		.align	2
 152              	.LC0:
 153 0000 5232505F 		.ascii	"R2P_ASSERT()\000"
 153      41535345 
 153      52542829 
 153      00
 154 000d 000000   		.section	.text._ZN3r2p7Message14release_unsafeEv,"axG",%progbits,_ZN3r2p7Message14release_unsafeEv
 155              		.align	2
 156              		.weak	_ZN3r2p7Message14release_unsafeEv
 157              		.thumb
 158              		.thumb_func
 159              		.type	_ZN3r2p7Message14release_unsafeEv, %function
 160              	_ZN3r2p7Message14release_unsafeEv:
 161              	.LFB168:
 162              		.file 3 "/opt/R2P/core/Middleware/include/r2p/Message.hpp"
 163              		.loc 3 113 0
 164              		.cfi_startproc
 165              		@ args = 0, pretend = 0, frame = 8
 166              		@ frame_needed = 0, uses_anonymous_args = 0
 167 0000 00B5     		push	{lr}
 168              		.cfi_def_cfa_offset 4
ARM GAS  /tmp/cc7uI4QX.s 			page 4


 169              		.cfi_offset 14, -4
 170 0002 83B0     		sub	sp, sp, #12
 171              		.cfi_def_cfa_offset 16
 172 0004 0190     		str	r0, [sp, #4]
 173              		.loc 3 115 0
 174 0006 019B     		ldr	r3, [sp, #4]
 175 0008 1B88     		ldrh	r3, [r3]	@ unaligned
 176 000a 9BB2     		uxth	r3, r3
 177 000c 002B     		cmp	r3, #0
 178 000e 02D1     		bne	.L12
 179              		.loc 3 115 0 is_stmt 0 discriminator 1
 180 0010 0A48     		ldr	r0, .L14
 181 0012 FFF7FEFF 		bl	chDbgPanic
 182              	.L12:
 183              		.loc 3 117 0 is_stmt 1
 184 0016 019B     		ldr	r3, [sp, #4]
 185 0018 1B88     		ldrh	r3, [r3]	@ unaligned
 186 001a 9BB2     		uxth	r3, r3
 187 001c 013B     		subs	r3, r3, #1
 188 001e 9AB2     		uxth	r2, r3
 189 0020 019B     		ldr	r3, [sp, #4]
 190 0022 1A80     		strh	r2, [r3]	@ unaligned
 191 0024 019B     		ldr	r3, [sp, #4]
 192 0026 1B88     		ldrh	r3, [r3]	@ unaligned
 193 0028 9BB2     		uxth	r3, r3
 194 002a 002B     		cmp	r3, #0
 195 002c 14BF     		ite	ne
 196 002e 0123     		movne	r3, #1
 197 0030 0023     		moveq	r3, #0
 198 0032 DBB2     		uxtb	r3, r3
 199              		.loc 3 118 0
 200 0034 1846     		mov	r0, r3
 201 0036 03B0     		add	sp, sp, #12
 202              		.cfi_def_cfa_offset 4
 203              		@ sp needed
 204 0038 5DF804FB 		ldr	pc, [sp], #4
 205              	.L15:
 206              		.align	2
 207              	.L14:
 208 003c 00000000 		.word	.LC0
 209              		.cfi_endproc
 210              	.LFE168:
 211              		.size	_ZN3r2p7Message14release_unsafeEv, .-_ZN3r2p7Message14release_unsafeEv
 212              		.section	.text._ZNK3r2p5Topic8get_nameEv,"axG",%progbits,_ZNK3r2p5Topic8get_nameEv,comdat
 213              		.align	2
 214              		.weak	_ZNK3r2p5Topic8get_nameEv
 215              		.thumb
 216              		.thumb_func
 217              		.type	_ZNK3r2p5Topic8get_nameEv, %function
 218              	_ZNK3r2p5Topic8get_nameEv:
 219              	.LFB285:
 220              		.file 4 "/opt/R2P/core/Middleware/include/r2p/Topic.hpp"
 221              		.loc 4 131 0
 222              		.cfi_startproc
 223              		@ args = 0, pretend = 0, frame = 8
 224              		@ frame_needed = 0, uses_anonymous_args = 0
 225              		@ link register save eliminated.
ARM GAS  /tmp/cc7uI4QX.s 			page 5


 226 0000 82B0     		sub	sp, sp, #8
 227              		.cfi_def_cfa_offset 8
 228 0002 0190     		str	r0, [sp, #4]
 229              		.loc 4 133 0
 230 0004 019B     		ldr	r3, [sp, #4]
 231 0006 1B68     		ldr	r3, [r3]
 232              		.loc 4 134 0
 233 0008 1846     		mov	r0, r3
 234 000a 02B0     		add	sp, sp, #8
 235              		.cfi_def_cfa_offset 0
 236              		@ sp needed
 237 000c 7047     		bx	lr
 238              		.cfi_endproc
 239              	.LFE285:
 240              		.size	_ZNK3r2p5Topic8get_nameEv, .-_ZNK3r2p5Topic8get_nameEv
 241 000e 00BF     		.section	.text._ZN3r2p5Topic11free_unsafeERNS_7MessageE,"axG",%progbits,_ZN3r2p5Topic11free_unsafe
 242              		.align	2
 243              		.weak	_ZN3r2p5Topic11free_unsafeERNS_7MessageE
 244              		.thumb
 245              		.thumb_func
 246              		.type	_ZN3r2p5Topic11free_unsafeERNS_7MessageE, %function
 247              	_ZN3r2p5Topic11free_unsafeERNS_7MessageE:
 248              	.LFB304:
 249              		.loc 4 281 0
 250              		.cfi_startproc
 251              		@ args = 0, pretend = 0, frame = 8
 252              		@ frame_needed = 0, uses_anonymous_args = 0
 253 0000 00B5     		push	{lr}
 254              		.cfi_def_cfa_offset 4
 255              		.cfi_offset 14, -4
 256 0002 83B0     		sub	sp, sp, #12
 257              		.cfi_def_cfa_offset 16
 258 0004 0190     		str	r0, [sp, #4]
 259 0006 0091     		str	r1, [sp]
 260              		.loc 4 283 0
 261 0008 019B     		ldr	r3, [sp, #4]
 262 000a 0833     		adds	r3, r3, #8
 263 000c 1846     		mov	r0, r3
 264 000e 0099     		ldr	r1, [sp]
 265 0010 FFF7FEFF 		bl	_ZN3r2p11MemoryPool_11free_unsafeEPv
 266              		.loc 4 284 0
 267 0014 03B0     		add	sp, sp, #12
 268              		.cfi_def_cfa_offset 4
 269              		@ sp needed
 270 0016 5DF804FB 		ldr	pc, [sp], #4
 271              		.cfi_endproc
 272              	.LFE304:
 273              		.size	_ZN3r2p5Topic11free_unsafeERNS_7MessageE, .-_ZN3r2p5Topic11free_unsafeERNS_7MessageE
 274 001a 00BF     		.section	.text._ZN3r2p5Topic4freeERNS_7MessageE,"axG",%progbits,_ZN3r2p5Topic4freeERNS_7MessageE,c
 275              		.align	2
 276              		.weak	_ZN3r2p5Topic4freeERNS_7MessageE
 277              		.thumb
 278              		.thumb_func
 279              		.type	_ZN3r2p5Topic4freeERNS_7MessageE, %function
 280              	_ZN3r2p5Topic4freeERNS_7MessageE:
 281              	.LFB309:
 282              		.loc 4 323 0
ARM GAS  /tmp/cc7uI4QX.s 			page 6


 283              		.cfi_startproc
 284              		@ args = 0, pretend = 0, frame = 8
 285              		@ frame_needed = 0, uses_anonymous_args = 0
 286 0000 00B5     		push	{lr}
 287              		.cfi_def_cfa_offset 4
 288              		.cfi_offset 14, -4
 289 0002 83B0     		sub	sp, sp, #12
 290              		.cfi_def_cfa_offset 16
 291 0004 0190     		str	r0, [sp, #4]
 292 0006 0091     		str	r1, [sp]
 293              		.loc 4 325 0
 294 0008 019B     		ldr	r3, [sp, #4]
 295 000a 0833     		adds	r3, r3, #8
 296 000c 1846     		mov	r0, r3
 297 000e 0099     		ldr	r1, [sp]
 298 0010 FFF7FEFF 		bl	_ZN3r2p11MemoryPool_4freeEPv
 299              		.loc 4 326 0
 300 0014 03B0     		add	sp, sp, #12
 301              		.cfi_def_cfa_offset 4
 302              		@ sp needed
 303 0016 5DF804FB 		ldr	pc, [sp], #4
 304              		.cfi_endproc
 305              	.LFE309:
 306              		.size	_ZN3r2p5Topic4freeERNS_7MessageE, .-_ZN3r2p5Topic4freeERNS_7MessageE
 307 001a 00BF     		.section	.text._ZN3r2p5Topic8has_nameERKS0_PKc,"axG",%progbits,_ZN3r2p5Topic8has_nameERKS0_PKc,com
 308              		.align	2
 309              		.weak	_ZN3r2p5Topic8has_nameERKS0_PKc
 310              		.thumb
 311              		.thumb_func
 312              		.type	_ZN3r2p5Topic8has_nameERKS0_PKc, %function
 313              	_ZN3r2p5Topic8has_nameERKS0_PKc:
 314              	.LFB311:
 315              		.loc 4 337 0
 316              		.cfi_startproc
 317              		@ args = 0, pretend = 0, frame = 8
 318              		@ frame_needed = 0, uses_anonymous_args = 0
 319 0000 00B5     		push	{lr}
 320              		.cfi_def_cfa_offset 4
 321              		.cfi_offset 14, -4
 322 0002 83B0     		sub	sp, sp, #12
 323              		.cfi_def_cfa_offset 16
 324 0004 0190     		str	r0, [sp, #4]
 325 0006 0091     		str	r1, [sp]
 326              		.loc 4 339 0
 327 0008 009B     		ldr	r3, [sp]
 328 000a 002B     		cmp	r3, #0
 329 000c 0DD0     		beq	.L21
 330              		.loc 4 340 0 discriminator 1
 331 000e 0198     		ldr	r0, [sp, #4]
 332 0010 FFF7FEFF 		bl	_ZNK3r2p5Topic8get_nameEv
 333 0014 0346     		mov	r3, r0
 334 0016 1846     		mov	r0, r3
 335 0018 0099     		ldr	r1, [sp]
 336 001a 1022     		movs	r2, #16
 337 001c FFF7FEFF 		bl	strncmp
 338 0020 0346     		mov	r3, r0
 339              		.loc 4 339 0 discriminator 1
ARM GAS  /tmp/cc7uI4QX.s 			page 7


 340 0022 002B     		cmp	r3, #0
 341 0024 01D1     		bne	.L21
 342              		.loc 4 339 0 is_stmt 0 discriminator 3
 343 0026 0123     		movs	r3, #1
 344 0028 00E0     		b	.L22
 345              	.L21:
 346              		.loc 4 339 0 discriminator 4
 347 002a 0023     		movs	r3, #0
 348              	.L22:
 349              		.loc 4 341 0 is_stmt 1
 350 002c 1846     		mov	r0, r3
 351 002e 03B0     		add	sp, sp, #12
 352              		.cfi_def_cfa_offset 4
 353              		@ sp needed
 354 0030 5DF804FB 		ldr	pc, [sp], #4
 355              		.cfi_endproc
 356              	.LFE311:
 357              		.size	_ZN3r2p5Topic8has_nameERKS0_PKc, .-_ZN3r2p5Topic8has_nameERKS0_PKc
 358              		.text
 359              		.align	2
 360              		.global	_ZN3r2p14BaseSubscriber14release_unsafeERNS_7MessageE
 361              		.thumb
 362              		.thumb_func
 363              		.type	_ZN3r2p14BaseSubscriber14release_unsafeERNS_7MessageE, %function
 364              	_ZN3r2p14BaseSubscriber14release_unsafeERNS_7MessageE:
 365              	.LFB324:
 366              		.file 5 "/opt/R2P/core/Middleware/src/BaseSubscriber.cpp"
 367              		.loc 5 9 0
 368              		.cfi_startproc
 369              		@ args = 0, pretend = 0, frame = 8
 370              		@ frame_needed = 0, uses_anonymous_args = 0
 371 0000 00B5     		push	{lr}
 372              		.cfi_def_cfa_offset 4
 373              		.cfi_offset 14, -4
 374 0002 83B0     		sub	sp, sp, #12
 375              		.cfi_def_cfa_offset 16
 376 0004 0190     		str	r0, [sp, #4]
 377 0006 0091     		str	r1, [sp]
 378              		.loc 5 11 0
 379 0008 019B     		ldr	r3, [sp, #4]
 380 000a 5B68     		ldr	r3, [r3, #4]
 381 000c 002B     		cmp	r3, #0
 382 000e 02D1     		bne	.L25
 383              		.loc 5 11 0 is_stmt 0 discriminator 1
 384 0010 0C48     		ldr	r0, .L28
 385 0012 FFF7FEFF 		bl	chDbgPanic
 386              	.L25:
 387              		.loc 5 13 0 is_stmt 1
 388 0016 0098     		ldr	r0, [sp]
 389 0018 FFF7FEFF 		bl	_ZN3r2p7Message14release_unsafeEv
 390 001c 0346     		mov	r3, r0
 391 001e 83F00103 		eor	r3, r3, #1
 392 0022 DBB2     		uxtb	r3, r3
 393 0024 002B     		cmp	r3, #0
 394 0026 07D0     		beq	.L26
 395              		.loc 5 14 0
 396 0028 019B     		ldr	r3, [sp, #4]
ARM GAS  /tmp/cc7uI4QX.s 			page 8


 397 002a 5B68     		ldr	r3, [r3, #4]
 398 002c 1846     		mov	r0, r3
 399 002e 0099     		ldr	r1, [sp]
 400 0030 FFF7FEFF 		bl	_ZN3r2p5Topic11free_unsafeERNS_7MessageE
 401              		.loc 5 15 0
 402 0034 0023     		movs	r3, #0
 403 0036 00E0     		b	.L27
 404              	.L26:
 405              		.loc 5 17 0
 406 0038 0123     		movs	r3, #1
 407              	.L27:
 408              		.loc 5 18 0
 409 003a 1846     		mov	r0, r3
 410 003c 03B0     		add	sp, sp, #12
 411              		.cfi_def_cfa_offset 4
 412              		@ sp needed
 413 003e 5DF804FB 		ldr	pc, [sp], #4
 414              	.L29:
 415 0042 00BF     		.align	2
 416              	.L28:
 417 0044 00000000 		.word	.LC0
 418              		.cfi_endproc
 419              	.LFE324:
 420              		.size	_ZN3r2p14BaseSubscriber14release_unsafeERNS_7MessageE, .-_ZN3r2p14BaseSubscriber14release_un
 421              		.align	2
 422              		.global	_ZN3r2p14BaseSubscriber7releaseERNS_7MessageE
 423              		.thumb
 424              		.thumb_func
 425              		.type	_ZN3r2p14BaseSubscriber7releaseERNS_7MessageE, %function
 426              	_ZN3r2p14BaseSubscriber7releaseERNS_7MessageE:
 427              	.LFB325:
 428              		.loc 5 21 0
 429              		.cfi_startproc
 430              		@ args = 0, pretend = 0, frame = 8
 431              		@ frame_needed = 0, uses_anonymous_args = 0
 432 0048 00B5     		push	{lr}
 433              		.cfi_def_cfa_offset 4
 434              		.cfi_offset 14, -4
 435 004a 83B0     		sub	sp, sp, #12
 436              		.cfi_def_cfa_offset 16
 437 004c 0190     		str	r0, [sp, #4]
 438 004e 0091     		str	r1, [sp]
 439              		.loc 5 23 0
 440 0050 019B     		ldr	r3, [sp, #4]
 441 0052 5B68     		ldr	r3, [r3, #4]
 442 0054 002B     		cmp	r3, #0
 443 0056 02D1     		bne	.L31
 444              		.loc 5 23 0 is_stmt 0 discriminator 1
 445 0058 0C48     		ldr	r0, .L34
 446 005a FFF7FEFF 		bl	chDbgPanic
 447              	.L31:
 448              		.loc 5 25 0 is_stmt 1
 449 005e 0098     		ldr	r0, [sp]
 450 0060 FFF7FEFF 		bl	_ZN3r2p7Message7releaseEv
 451 0064 0346     		mov	r3, r0
 452 0066 83F00103 		eor	r3, r3, #1
 453 006a DBB2     		uxtb	r3, r3
ARM GAS  /tmp/cc7uI4QX.s 			page 9


 454 006c 002B     		cmp	r3, #0
 455 006e 07D0     		beq	.L32
 456              		.loc 5 26 0
 457 0070 019B     		ldr	r3, [sp, #4]
 458 0072 5B68     		ldr	r3, [r3, #4]
 459 0074 1846     		mov	r0, r3
 460 0076 0099     		ldr	r1, [sp]
 461 0078 FFF7FEFF 		bl	_ZN3r2p5Topic4freeERNS_7MessageE
 462              		.loc 5 27 0
 463 007c 0023     		movs	r3, #0
 464 007e 00E0     		b	.L33
 465              	.L32:
 466              		.loc 5 29 0
 467 0080 0123     		movs	r3, #1
 468              	.L33:
 469              		.loc 5 30 0
 470 0082 1846     		mov	r0, r3
 471 0084 03B0     		add	sp, sp, #12
 472              		.cfi_def_cfa_offset 4
 473              		@ sp needed
 474 0086 5DF804FB 		ldr	pc, [sp], #4
 475              	.L35:
 476 008a 00BF     		.align	2
 477              	.L34:
 478 008c 00000000 		.word	.LC0
 479              		.cfi_endproc
 480              	.LFE325:
 481              		.size	_ZN3r2p14BaseSubscriber7releaseERNS_7MessageE, .-_ZN3r2p14BaseSubscriber7releaseERNS_7Messag
 482              		.align	2
 483              		.global	_ZN3r2p14BaseSubscriberC2Ev
 484              		.thumb
 485              		.thumb_func
 486              		.type	_ZN3r2p14BaseSubscriberC2Ev, %function
 487              	_ZN3r2p14BaseSubscriberC2Ev:
 488              	.LFB327:
 489              		.loc 5 33 0
 490              		.cfi_startproc
 491              		@ args = 0, pretend = 0, frame = 8
 492              		@ frame_needed = 0, uses_anonymous_args = 0
 493 0090 00B5     		push	{lr}
 494              		.cfi_def_cfa_offset 4
 495              		.cfi_offset 14, -4
 496 0092 83B0     		sub	sp, sp, #12
 497              		.cfi_def_cfa_offset 16
 498 0094 0190     		str	r0, [sp, #4]
 499              	.LBB2:
 500              		.loc 5 35 0
 501 0096 0198     		ldr	r0, [sp, #4]
 502 0098 FFF7FEFF 		bl	_ZN3r2p10UncopyableC2Ev
 503 009c 019B     		ldr	r3, [sp, #4]
 504 009e 054A     		ldr	r2, .L39
 505 00a0 1A60     		str	r2, [r3]
 506 00a2 019B     		ldr	r3, [sp, #4]
 507 00a4 0022     		movs	r2, #0
 508 00a6 5A60     		str	r2, [r3, #4]
 509              	.LBE2:
 510              		.loc 5 36 0
ARM GAS  /tmp/cc7uI4QX.s 			page 10


 511 00a8 019B     		ldr	r3, [sp, #4]
 512 00aa 1846     		mov	r0, r3
 513 00ac 03B0     		add	sp, sp, #12
 514              		.cfi_def_cfa_offset 4
 515              		@ sp needed
 516 00ae 5DF804FB 		ldr	pc, [sp], #4
 517              	.L40:
 518 00b2 00BF     		.align	2
 519              	.L39:
 520 00b4 08000000 		.word	_ZTVN3r2p14BaseSubscriberE+8
 521              		.cfi_endproc
 522              	.LFE327:
 523              		.size	_ZN3r2p14BaseSubscriberC2Ev, .-_ZN3r2p14BaseSubscriberC2Ev
 524              		.global	_ZN3r2p14BaseSubscriberC1Ev
 525              		.thumb_set _ZN3r2p14BaseSubscriberC1Ev,_ZN3r2p14BaseSubscriberC2Ev
 526              		.align	2
 527              		.global	_ZN3r2p14BaseSubscriberD2Ev
 528              		.thumb
 529              		.thumb_func
 530              		.type	_ZN3r2p14BaseSubscriberD2Ev, %function
 531              	_ZN3r2p14BaseSubscriberD2Ev:
 532              	.LFB330:
 533              		.loc 5 39 0
 534              		.cfi_startproc
 535              		@ args = 0, pretend = 0, frame = 8
 536              		@ frame_needed = 0, uses_anonymous_args = 0
 537 00b8 00B5     		push	{lr}
 538              		.cfi_def_cfa_offset 4
 539              		.cfi_offset 14, -4
 540 00ba 83B0     		sub	sp, sp, #12
 541              		.cfi_def_cfa_offset 16
 542 00bc 0190     		str	r0, [sp, #4]
 543              	.LBB3:
 544              		.loc 5 39 0
 545 00be 019B     		ldr	r3, [sp, #4]
 546 00c0 074A     		ldr	r2, .L45
 547 00c2 1A60     		str	r2, [r3]
 548 00c4 0198     		ldr	r0, [sp, #4]
 549 00c6 FFF7FEFF 		bl	_ZN3r2p10UncopyableD2Ev
 550              	.LBE3:
 551 00ca 0023     		movs	r3, #0
 552 00cc 002B     		cmp	r3, #0
 553 00ce 02D0     		beq	.L43
 554              		.loc 5 39 0 is_stmt 0 discriminator 2
 555 00d0 0198     		ldr	r0, [sp, #4]
 556 00d2 FFF7FEFF 		bl	_ZdlPv
 557              	.L43:
 558              		.loc 5 39 0 discriminator 4
 559 00d6 019B     		ldr	r3, [sp, #4]
 560 00d8 1846     		mov	r0, r3
 561 00da 03B0     		add	sp, sp, #12
 562              		.cfi_def_cfa_offset 4
 563              		@ sp needed
 564 00dc 5DF804FB 		ldr	pc, [sp], #4
 565              	.L46:
 566              		.align	2
 567              	.L45:
ARM GAS  /tmp/cc7uI4QX.s 			page 11


 568 00e0 08000000 		.word	_ZTVN3r2p14BaseSubscriberE+8
 569              		.cfi_endproc
 570              	.LFE330:
 571              		.size	_ZN3r2p14BaseSubscriberD2Ev, .-_ZN3r2p14BaseSubscriberD2Ev
 572              		.global	_ZN3r2p14BaseSubscriberD1Ev
 573              		.thumb_set _ZN3r2p14BaseSubscriberD1Ev,_ZN3r2p14BaseSubscriberD2Ev
 574              		.align	2
 575              		.global	_ZN3r2p14BaseSubscriberD0Ev
 576              		.thumb
 577              		.thumb_func
 578              		.type	_ZN3r2p14BaseSubscriberD0Ev, %function
 579              	_ZN3r2p14BaseSubscriberD0Ev:
 580              	.LFB332:
 581              		.loc 5 39 0 is_stmt 1
 582              		.cfi_startproc
 583              		@ args = 0, pretend = 0, frame = 8
 584              		@ frame_needed = 0, uses_anonymous_args = 0
 585 00e4 00B5     		push	{lr}
 586              		.cfi_def_cfa_offset 4
 587              		.cfi_offset 14, -4
 588 00e6 83B0     		sub	sp, sp, #12
 589              		.cfi_def_cfa_offset 16
 590 00e8 0190     		str	r0, [sp, #4]
 591              		.loc 5 39 0
 592 00ea 0198     		ldr	r0, [sp, #4]
 593 00ec FFF7FEFF 		bl	_ZN3r2p14BaseSubscriberD2Ev
 594 00f0 0198     		ldr	r0, [sp, #4]
 595 00f2 FFF7FEFF 		bl	_ZdlPv
 596 00f6 019B     		ldr	r3, [sp, #4]
 597 00f8 1846     		mov	r0, r3
 598 00fa 03B0     		add	sp, sp, #12
 599              		.cfi_def_cfa_offset 4
 600              		@ sp needed
 601 00fc 5DF804FB 		ldr	pc, [sp], #4
 602              		.cfi_endproc
 603              	.LFE332:
 604              		.size	_ZN3r2p14BaseSubscriberD0Ev, .-_ZN3r2p14BaseSubscriberD0Ev
 605              		.align	2
 606              		.global	_ZN3r2p14BaseSubscriber9has_topicERKS0_PKc
 607              		.thumb
 608              		.thumb_func
 609              		.type	_ZN3r2p14BaseSubscriber9has_topicERKS0_PKc, %function
 610              	_ZN3r2p14BaseSubscriber9has_topicERKS0_PKc:
 611              	.LFB333:
 612              		.loc 5 42 0
 613              		.cfi_startproc
 614              		@ args = 0, pretend = 0, frame = 8
 615              		@ frame_needed = 0, uses_anonymous_args = 0
 616 0100 00B5     		push	{lr}
 617              		.cfi_def_cfa_offset 4
 618              		.cfi_offset 14, -4
 619 0102 83B0     		sub	sp, sp, #12
 620              		.cfi_def_cfa_offset 16
 621 0104 0190     		str	r0, [sp, #4]
 622 0106 0091     		str	r1, [sp]
 623              		.loc 5 44 0
 624 0108 019B     		ldr	r3, [sp, #4]
ARM GAS  /tmp/cc7uI4QX.s 			page 12


 625 010a 5B68     		ldr	r3, [r3, #4]
 626 010c 1846     		mov	r0, r3
 627 010e 0099     		ldr	r1, [sp]
 628 0110 FFF7FEFF 		bl	_ZN3r2p5Topic8has_nameERKS0_PKc
 629 0114 0346     		mov	r3, r0
 630              		.loc 5 45 0
 631 0116 1846     		mov	r0, r3
 632 0118 03B0     		add	sp, sp, #12
 633              		.cfi_def_cfa_offset 4
 634              		@ sp needed
 635 011a 5DF804FB 		ldr	pc, [sp], #4
 636              		.cfi_endproc
 637              	.LFE333:
 638              		.size	_ZN3r2p14BaseSubscriber9has_topicERKS0_PKc, .-_ZN3r2p14BaseSubscriber9has_topicERKS0_PKc
 639              		.weak	_ZTVN3r2p14BaseSubscriberE
 640              		.section	.rodata._ZTVN3r2p14BaseSubscriberE,"aG",%progbits,_ZTVN3r2p14BaseSubscriberE,comdat
 641              		.align	3
 642              		.type	_ZTVN3r2p14BaseSubscriberE, %object
 643              		.size	_ZTVN3r2p14BaseSubscriberE, 36
 644              	_ZTVN3r2p14BaseSubscriberE:
 645 0000 00000000 		.word	0
 646 0004 00000000 		.word	0
 647 0008 00000000 		.word	__cxa_pure_virtual
 648 000c 00000000 		.word	__cxa_pure_virtual
 649 0010 00000000 		.word	__cxa_pure_virtual
 650 0014 00000000 		.word	__cxa_pure_virtual
 651 0018 00000000 		.word	__cxa_pure_virtual
 652 001c 00000000 		.word	__cxa_pure_virtual
 653 0020 00000000 		.word	__cxa_pure_virtual
 654 0024 00000000 		.text
 655              	.Letext0:
 656              		.file 6 "/opt/R2P/tools/gcc-arm-none-eabi-4_9-2014q4/lib/gcc/arm-none-eabi/4.9.3/include/stddef.h"
 657              		.file 7 "/opt/R2P/tools/gcc-arm-none-eabi-4_9-2014q4/arm-none-eabi/include/machine/_default_types.
 658              		.file 8 "/opt/R2P/tools/gcc-arm-none-eabi-4_9-2014q4/arm-none-eabi/include/c++/4.9.3/cstring"
 659              		.file 9 "/opt/R2P/tools/gcc-arm-none-eabi-4_9-2014q4/arm-none-eabi/include/string.h"
 660              		.file 10 "<built-in>"
 661              		.file 11 "/opt/R2P/core/Middleware/include/r2p/Time.hpp"
 662              		.file 12 "/opt/R2P/core/Middleware/include/r2p/StaticList.hpp"
 663              		.file 13 "/opt/R2P/core/Middleware/include/r2p/BaseSubscriber.hpp"
 664              		.file 14 "/opt/R2P/tools/gcc-arm-none-eabi-4_9-2014q4/arm-none-eabi/include/stdint.h"
 665              		.file 15 "/opt/R2P/core/ChibiOS_2.6.5/os/ports/GCC/ARMCMx/chtypes.h"
 666              		.file 16 "/opt/R2P/core/ChibiOS_2.6.5/os/kernel/include/chlists.h"
 667              		.file 17 "/opt/R2P/core/ChibiOS_2.6.5/os/kernel/include/chthreads.h"
 668              		.file 18 "/opt/R2P/core/ChibiOS_2.6.5/os/ports/GCC/ARMCMx/chcore_v7m.h"
 669              		.file 19 "/opt/R2P/core/ChibiOS_2.6.5/os/kernel/include/chschd.h"
 670              		.file 20 "/opt/R2P/core/ChibiOS_2.6.5/os/kernel/include/chmtx.h"
 671              		.file 21 "/opt/R2P/core/ChibiOS_2.6.5/os/kernel/include/chmemcore.h"
 672              		.file 22 "/opt/R2P/core/ChibiOS_2.6.5/os/kernel/include/chmempools.h"