ARM GAS  /tmp/cc5OZvFd.s 			page 1


   1              		.syntax unified
   2              		.cpu cortex-m4
   3              		.fpu softvfp
   4              		.eabi_attribute 20, 1
   5              		.eabi_attribute 21, 1
   6              		.eabi_attribute 23, 3
   7              		.eabi_attribute 24, 1
   8              		.eabi_attribute 25, 1
   9              		.eabi_attribute 26, 1
  10              		.eabi_attribute 30, 6
  11              		.eabi_attribute 34, 1
  12              		.eabi_attribute 18, 4
  13              		.thumb
  14              		.file	"Bootloader.cpp"
  15              		.text
  16              	.Ltext0:
  17              		.cfi_sections	.debug_frame
  18              		.section	.text._ZN3r2p10UncopyableC2Ev,"axG",%progbits,_ZN3r2p10UncopyableC5Ev,comdat
  19              		.align	2
  20              		.weak	_ZN3r2p10UncopyableC2Ev
  21              		.thumb
  22              		.thumb_func
  23              		.type	_ZN3r2p10UncopyableC2Ev, %function
  24              	_ZN3r2p10UncopyableC2Ev:
  25              	.LFB6:
  26              		.file 1 "/opt/R2P/core/Middleware/include/r2p/Uncopyable.hpp"
  27              		.loc 1 20 0
  28              		.cfi_startproc
  29              		@ args = 0, pretend = 0, frame = 8
  30              		@ frame_needed = 0, uses_anonymous_args = 0
  31              		@ link register save eliminated.
  32 0000 82B0     		sub	sp, sp, #8
  33              		.cfi_def_cfa_offset 8
  34 0002 0190     		str	r0, [sp, #4]
  35              		.loc 1 20 0
  36 0004 019B     		ldr	r3, [sp, #4]
  37 0006 1846     		mov	r0, r3
  38 0008 02B0     		add	sp, sp, #8
  39              		.cfi_def_cfa_offset 0
  40              		@ sp needed
  41 000a 7047     		bx	lr
  42              		.cfi_endproc
  43              	.LFE6:
  44              		.size	_ZN3r2p10UncopyableC2Ev, .-_ZN3r2p10UncopyableC2Ev
  45              		.weak	_ZN3r2p10UncopyableC1Ev
  46              		.thumb_set _ZN3r2p10UncopyableC1Ev,_ZN3r2p10UncopyableC2Ev
  47              		.section	.text._ZN3r2p8SysLock_7acquireEv,"axG",%progbits,_ZN3r2p8SysLock_7acquireEv,comdat
  48              		.align	2
  49              		.weak	_ZN3r2p8SysLock_7acquireEv
  50              		.thumb
  51              		.thumb_func
  52              		.type	_ZN3r2p8SysLock_7acquireEv, %function
  53              	_ZN3r2p8SysLock_7acquireEv:
  54              	.LFB18:
  55              		.file 2 "/opt/R2P/core/Middleware/port/chibios/include/r2p/impl/SysLock_.hpp"
  56              		.loc 2 20 0
  57              		.cfi_startproc
ARM GAS  /tmp/cc5OZvFd.s 			page 2


  58              		@ args = 0, pretend = 0, frame = 0
  59              		@ frame_needed = 0, uses_anonymous_args = 0
  60 0000 08B5     		push	{r3, lr}
  61              		.cfi_def_cfa_offset 8
  62              		.cfi_offset 3, -8
  63              		.cfi_offset 14, -4
  64              	.LBB14:
  65              	.LBB15:
  66              	.LBB16:
  67              		.loc 2 22 0
  68 0002 2023     		movs	r3, #32
  69              	@ 22 "/opt/R2P/core/Middleware/port/chibios/include/r2p/impl/SysLock_.hpp" 1
  70 0004 83F31188 		msr     BASEPRI, r3
  71              	@ 0 "" 2
  72              		.thumb
  73              	.LBE16:
  74 0008 FFF7FEFF 		bl	dbg_check_lock
  75              	.LBE15:
  76              	.LBE14:
  77              		.loc 2 23 0
  78 000c 08BD     		pop	{r3, pc}
  79              		.cfi_endproc
  80              	.LFE18:
  81              		.size	_ZN3r2p8SysLock_7acquireEv, .-_ZN3r2p8SysLock_7acquireEv
  82 000e 00BF     		.section	.text._ZN3r2p8SysLock_7releaseEv,"axG",%progbits,_ZN3r2p8SysLock_7releaseEv,comdat
  83              		.align	2
  84              		.weak	_ZN3r2p8SysLock_7releaseEv
  85              		.thumb
  86              		.thumb_func
  87              		.type	_ZN3r2p8SysLock_7releaseEv, %function
  88              	_ZN3r2p8SysLock_7releaseEv:
  89              	.LFB19:
  90              		.loc 2 27 0
  91              		.cfi_startproc
  92              		@ args = 0, pretend = 0, frame = 0
  93              		@ frame_needed = 0, uses_anonymous_args = 0
  94 0000 08B5     		push	{r3, lr}
  95              		.cfi_def_cfa_offset 8
  96              		.cfi_offset 3, -8
  97              		.cfi_offset 14, -4
  98              	.LBB17:
  99              	.LBB18:
 100              		.loc 2 29 0
 101 0002 FFF7FEFF 		bl	dbg_check_unlock
 102              	.LBB19:
 103 0006 0023     		movs	r3, #0
 104              	@ 29 "/opt/R2P/core/Middleware/port/chibios/include/r2p/impl/SysLock_.hpp" 1
 105 0008 83F31188 		msr     BASEPRI, r3
 106              	@ 0 "" 2
 107              		.thumb
 108              	.LBE19:
 109              	.LBE18:
 110              	.LBE17:
 111              		.loc 2 30 0
 112 000c 08BD     		pop	{r3, pc}
 113              		.cfi_endproc
 114              	.LFE19:
ARM GAS  /tmp/cc5OZvFd.s 			page 3


 115              		.size	_ZN3r2p8SysLock_7releaseEv, .-_ZN3r2p8SysLock_7releaseEv
 116 000e 00BF     		.section	.text._ZN3r2p7SysLock7acquireEv,"axG",%progbits,_ZN3r2p7SysLock7acquireEv,comdat
 117              		.align	2
 118              		.weak	_ZN3r2p7SysLock7acquireEv
 119              		.thumb
 120              		.thumb_func
 121              		.type	_ZN3r2p7SysLock7acquireEv, %function
 122              	_ZN3r2p7SysLock7acquireEv:
 123              	.LFB26:
 124              		.file 3 "/opt/R2P/core/Middleware/include/r2p/SysLock.hpp"
 125              		.loc 3 27 0
 126              		.cfi_startproc
 127              		@ args = 0, pretend = 0, frame = 0
 128              		@ frame_needed = 0, uses_anonymous_args = 0
 129 0000 08B5     		push	{r3, lr}
 130              		.cfi_def_cfa_offset 8
 131              		.cfi_offset 3, -8
 132              		.cfi_offset 14, -4
 133              		.loc 3 29 0
 134 0002 FFF7FEFF 		bl	_ZN3r2p8SysLock_7acquireEv
 135              		.loc 3 30 0
 136 0006 08BD     		pop	{r3, pc}
 137              		.cfi_endproc
 138              	.LFE26:
 139              		.size	_ZN3r2p7SysLock7acquireEv, .-_ZN3r2p7SysLock7acquireEv
 140              		.section	.text._ZN3r2p7SysLock7releaseEv,"axG",%progbits,_ZN3r2p7SysLock7releaseEv,comdat
 141              		.align	2
 142              		.weak	_ZN3r2p7SysLock7releaseEv
 143              		.thumb
 144              		.thumb_func
 145              		.type	_ZN3r2p7SysLock7releaseEv, %function
 146              	_ZN3r2p7SysLock7releaseEv:
 147              	.LFB27:
 148              		.loc 3 34 0
 149              		.cfi_startproc
 150              		@ args = 0, pretend = 0, frame = 0
 151              		@ frame_needed = 0, uses_anonymous_args = 0
 152 0000 08B5     		push	{r3, lr}
 153              		.cfi_def_cfa_offset 8
 154              		.cfi_offset 3, -8
 155              		.cfi_offset 14, -4
 156              		.loc 3 36 0
 157 0002 FFF7FEFF 		bl	_ZN3r2p8SysLock_7releaseEv
 158              		.loc 3 37 0
 159 0006 08BD     		pop	{r3, pc}
 160              		.cfi_endproc
 161              	.LFE27:
 162              		.size	_ZN3r2p7SysLock7releaseEv, .-_ZN3r2p7SysLock7releaseEv
 163              		.section	.text._ZN3r2p12check_boundsEPKvjS1_j,"axG",%progbits,_ZN3r2p12check_boundsEPKvjS1_j,comda
 164              		.align	2
 165              		.weak	_ZN3r2p12check_boundsEPKvjS1_j
 166              		.thumb
 167              		.thumb_func
 168              		.type	_ZN3r2p12check_boundsEPKvjS1_j, %function
 169              	_ZN3r2p12check_boundsEPKvjS1_j:
 170              	.LFB33:
 171              		.file 4 "/opt/R2P/core/Middleware/include/r2p/common.hpp"
ARM GAS  /tmp/cc5OZvFd.s 			page 4


 172              		.loc 4 72 0
 173              		.cfi_startproc
 174              		@ args = 0, pretend = 0, frame = 16
 175              		@ frame_needed = 0, uses_anonymous_args = 0
 176              		@ link register save eliminated.
 177 0000 30B4     		push	{r4, r5}
 178              		.cfi_def_cfa_offset 8
 179              		.cfi_offset 4, -8
 180              		.cfi_offset 5, -4
 181 0002 84B0     		sub	sp, sp, #16
 182              		.cfi_def_cfa_offset 24
 183 0004 0390     		str	r0, [sp, #12]
 184 0006 0291     		str	r1, [sp, #8]
 185 0008 0192     		str	r2, [sp, #4]
 186 000a 0093     		str	r3, [sp]
 187              	.LBB20:
 188              		.loc 4 74 0
 189 000c 039D     		ldr	r5, [sp, #12]
 190              		.loc 4 75 0
 191 000e 019C     		ldr	r4, [sp, #4]
 192              		.loc 4 77 0
 193 0010 A542     		cmp	r5, r4
 194 0012 07D3     		bcc	.L9
 195              		.loc 4 77 0 is_stmt 0 discriminator 1
 196 0014 029B     		ldr	r3, [sp, #8]
 197 0016 EA18     		adds	r2, r5, r3
 198 0018 009B     		ldr	r3, [sp]
 199 001a 2344     		add	r3, r3, r4
 200 001c 9A42     		cmp	r2, r3
 201 001e 01D8     		bhi	.L9
 202              		.loc 4 77 0 discriminator 3
 203 0020 0123     		movs	r3, #1
 204 0022 00E0     		b	.L10
 205              	.L9:
 206              		.loc 4 77 0 discriminator 4
 207 0024 0023     		movs	r3, #0
 208              	.L10:
 209              	.LBE20:
 210              		.loc 4 78 0 is_stmt 1 discriminator 6
 211 0026 1846     		mov	r0, r3
 212 0028 04B0     		add	sp, sp, #16
 213              		.cfi_def_cfa_offset 8
 214              		@ sp needed
 215 002a 30BC     		pop	{r4, r5}
 216              		.cfi_restore 5
 217              		.cfi_restore 4
 218              		.cfi_def_cfa_offset 0
 219 002c 7047     		bx	lr
 220              		.cfi_endproc
 221              	.LFE33:
 222              		.size	_ZN3r2p12check_boundsEPKvjS1_j, .-_ZN3r2p12check_boundsEPKvjS1_j
 223 002e 00BF     		.section	.text._ZN3r2p8Flasher_10is_alignedEPKv,"axG",%progbits,_ZN3r2p8Flasher_10is_alignedEPKv,c
 224              		.align	2
 225              		.weak	_ZN3r2p8Flasher_10is_alignedEPKv
 226              		.thumb
 227              		.thumb_func
 228              		.type	_ZN3r2p8Flasher_10is_alignedEPKv, %function
ARM GAS  /tmp/cc5OZvFd.s 			page 5


 229              	_ZN3r2p8Flasher_10is_alignedEPKv:
 230              	.LFB36:
 231              		.file 5 "/opt/R2P/core/Middleware/port/chibios/include/r2p/impl/Flasher_.hpp"
 232              		.loc 5 95 0
 233              		.cfi_startproc
 234              		@ args = 0, pretend = 0, frame = 8
 235              		@ frame_needed = 0, uses_anonymous_args = 0
 236              		@ link register save eliminated.
 237 0000 82B0     		sub	sp, sp, #8
 238              		.cfi_def_cfa_offset 8
 239 0002 0190     		str	r0, [sp, #4]
 240              		.loc 5 97 0
 241 0004 019B     		ldr	r3, [sp, #4]
 242 0006 03F00103 		and	r3, r3, #1
 243 000a 002B     		cmp	r3, #0
 244 000c 0CBF     		ite	eq
 245 000e 0123     		moveq	r3, #1
 246 0010 0023     		movne	r3, #0
 247 0012 DBB2     		uxtb	r3, r3
 248              		.loc 5 98 0
 249 0014 1846     		mov	r0, r3
 250 0016 02B0     		add	sp, sp, #8
 251              		.cfi_def_cfa_offset 0
 252              		@ sp needed
 253 0018 7047     		bx	lr
 254              		.cfi_endproc
 255              	.LFE36:
 256              		.size	_ZN3r2p8Flasher_10is_alignedEPKv, .-_ZN3r2p8Flasher_10is_alignedEPKv
 257 001a 00BF     		.section	.text._ZN3r2p8Flasher_16is_within_boundsEPKv,"axG",%progbits,_ZN3r2p8Flasher_16is_within_
 258              		.align	2
 259              		.weak	_ZN3r2p8Flasher_16is_within_boundsEPKv
 260              		.thumb
 261              		.thumb_func
 262              		.type	_ZN3r2p8Flasher_16is_within_boundsEPKv, %function
 263              	_ZN3r2p8Flasher_16is_within_boundsEPKv:
 264              	.LFB37:
 265              		.loc 5 102 0
 266              		.cfi_startproc
 267              		@ args = 0, pretend = 0, frame = 8
 268              		@ frame_needed = 0, uses_anonymous_args = 0
 269 0000 00B5     		push	{lr}
 270              		.cfi_def_cfa_offset 4
 271              		.cfi_offset 14, -4
 272 0002 83B0     		sub	sp, sp, #12
 273              		.cfi_def_cfa_offset 16
 274 0004 0190     		str	r0, [sp, #4]
 275              		.loc 5 104 0
 276 0006 FFF7FEFF 		bl	_ZN3r2p8Flasher_17get_program_startEv
 277 000a 0246     		mov	r2, r0
 278 000c 019B     		ldr	r3, [sp, #4]
 279 000e 9A42     		cmp	r2, r3
 280 0010 07D8     		bhi	.L15
 281              		.loc 5 105 0 discriminator 1
 282 0012 FFF7FEFF 		bl	_ZN3r2p8Flasher_15get_program_endEv
 283 0016 0246     		mov	r2, r0
 284              		.loc 5 104 0 discriminator 1
 285 0018 019B     		ldr	r3, [sp, #4]
ARM GAS  /tmp/cc5OZvFd.s 			page 6


 286 001a 9A42     		cmp	r2, r3
 287 001c 01D9     		bls	.L15
 288              		.loc 5 104 0 is_stmt 0 discriminator 3
 289 001e 0123     		movs	r3, #1
 290 0020 00E0     		b	.L16
 291              	.L15:
 292              		.loc 5 104 0 discriminator 4
 293 0022 0023     		movs	r3, #0
 294              	.L16:
 295              		.loc 5 106 0 is_stmt 1
 296 0024 1846     		mov	r0, r3
 297 0026 03B0     		add	sp, sp, #12
 298              		.cfi_def_cfa_offset 4
 299              		@ sp needed
 300 0028 5DF804FB 		ldr	pc, [sp], #4
 301              		.cfi_endproc
 302              	.LFE37:
 303              		.size	_ZN3r2p8Flasher_16is_within_boundsEPKv, .-_ZN3r2p8Flasher_16is_within_boundsEPKv
 304              		.section	.text._ZN3r2p8Flasher_10align_prevEPKh,"axG",%progbits,_ZN3r2p8Flasher_10align_prevEPKh,c
 305              		.align	2
 306              		.weak	_ZN3r2p8Flasher_10align_prevEPKh
 307              		.thumb
 308              		.thumb_func
 309              		.type	_ZN3r2p8Flasher_10align_prevEPKh, %function
 310              	_ZN3r2p8Flasher_10align_prevEPKh:
 311              	.LFB40:
 312              		.loc 5 128 0
 313              		.cfi_startproc
 314              		@ args = 0, pretend = 0, frame = 8
 315              		@ frame_needed = 0, uses_anonymous_args = 0
 316              		@ link register save eliminated.
 317 0000 82B0     		sub	sp, sp, #8
 318              		.cfi_def_cfa_offset 8
 319 0002 0190     		str	r0, [sp, #4]
 320              		.loc 5 131 0
 321 0004 019B     		ldr	r3, [sp, #4]
 322 0006 23F00F03 		bic	r3, r3, #15
 323              		.loc 5 133 0
 324 000a 1846     		mov	r0, r3
 325 000c 02B0     		add	sp, sp, #8
 326              		.cfi_def_cfa_offset 0
 327              		@ sp needed
 328 000e 7047     		bx	lr
 329              		.cfi_endproc
 330              	.LFE40:
 331              		.size	_ZN3r2p8Flasher_10align_prevEPKh, .-_ZN3r2p8Flasher_10align_prevEPKh
 332              		.section	.text._ZN3r2p8Flasher_10align_nextEPKh,"axG",%progbits,_ZN3r2p8Flasher_10align_nextEPKh,c
 333              		.align	2
 334              		.weak	_ZN3r2p8Flasher_10align_nextEPKh
 335              		.thumb
 336              		.thumb_func
 337              		.type	_ZN3r2p8Flasher_10align_nextEPKh, %function
 338              	_ZN3r2p8Flasher_10align_nextEPKh:
 339              	.LFB41:
 340              		.loc 5 137 0
 341              		.cfi_startproc
 342              		@ args = 0, pretend = 0, frame = 8
ARM GAS  /tmp/cc5OZvFd.s 			page 7


 343              		@ frame_needed = 0, uses_anonymous_args = 0
 344 0000 00B5     		push	{lr}
 345              		.cfi_def_cfa_offset 4
 346              		.cfi_offset 14, -4
 347 0002 83B0     		sub	sp, sp, #12
 348              		.cfi_def_cfa_offset 16
 349 0004 0190     		str	r0, [sp, #4]
 350              		.loc 5 139 0
 351 0006 019B     		ldr	r3, [sp, #4]
 352 0008 0F33     		adds	r3, r3, #15
 353 000a 1846     		mov	r0, r3
 354 000c FFF7FEFF 		bl	_ZN3r2p8Flasher_10align_prevEPKh
 355 0010 0346     		mov	r3, r0
 356              		.loc 5 140 0
 357 0012 1846     		mov	r0, r3
 358 0014 03B0     		add	sp, sp, #12
 359              		.cfi_def_cfa_offset 4
 360              		@ sp needed
 361 0016 5DF804FB 		ldr	pc, [sp], #4
 362              		.cfi_endproc
 363              	.LFE41:
 364              		.size	_ZN3r2p8Flasher_10align_nextEPKh, .-_ZN3r2p8Flasher_10align_nextEPKh
 365 001a 00BF     		.section	.text._ZN3r2p8Flasher_17get_program_startEv,"axG",%progbits,_ZN3r2p8Flasher_17get_program
 366              		.align	2
 367              		.weak	_ZN3r2p8Flasher_17get_program_startEv
 368              		.thumb
 369              		.thumb_func
 370              		.type	_ZN3r2p8Flasher_17get_program_startEv, %function
 371              	_ZN3r2p8Flasher_17get_program_startEv:
 372              	.LFB42:
 373              		.loc 5 144 0
 374              		.cfi_startproc
 375              		@ args = 0, pretend = 0, frame = 0
 376              		@ frame_needed = 0, uses_anonymous_args = 0
 377              		@ link register save eliminated.
 378              		.loc 5 148 0
 379 0000 044B     		ldr	r3, .L24
 380 0002 03F2FF33 		addw	r3, r3, #1023
 381 0006 23F47F73 		bic	r3, r3, #1020
 382 000a 23F00303 		bic	r3, r3, #3
 383              		.loc 5 150 0
 384 000e 1846     		mov	r0, r3
 385 0010 7047     		bx	lr
 386              	.L25:
 387 0012 00BF     		.align	2
 388              	.L24:
 389 0014 00000000 		.word	__program_start__
 390              		.cfi_endproc
 391              	.LFE42:
 392              		.size	_ZN3r2p8Flasher_17get_program_startEv, .-_ZN3r2p8Flasher_17get_program_startEv
 393              		.section	.text._ZN3r2p8Flasher_15get_program_endEv,"axG",%progbits,_ZN3r2p8Flasher_15get_program_e
 394              		.align	2
 395              		.weak	_ZN3r2p8Flasher_15get_program_endEv
 396              		.thumb
 397              		.thumb_func
 398              		.type	_ZN3r2p8Flasher_15get_program_endEv, %function
 399              	_ZN3r2p8Flasher_15get_program_endEv:
ARM GAS  /tmp/cc5OZvFd.s 			page 8


 400              	.LFB43:
 401              		.loc 5 154 0
 402              		.cfi_startproc
 403              		@ args = 0, pretend = 0, frame = 0
 404              		@ frame_needed = 0, uses_anonymous_args = 0
 405 0000 08B5     		push	{r3, lr}
 406              		.cfi_def_cfa_offset 8
 407              		.cfi_offset 3, -8
 408              		.cfi_offset 14, -4
 409              		.loc 5 156 0
 410 0002 0348     		ldr	r0, .L28
 411 0004 FFF7FEFF 		bl	_ZN3r2p8Flasher_10align_prevEPKh
 412 0008 0346     		mov	r3, r0
 413              		.loc 5 157 0
 414 000a 1846     		mov	r0, r3
 415 000c 08BD     		pop	{r3, pc}
 416              	.L29:
 417 000e 00BF     		.align	2
 418              	.L28:
 419 0010 00000000 		.word	__program_end__
 420              		.cfi_endproc
 421              	.LFE43:
 422              		.size	_ZN3r2p8Flasher_15get_program_endEv, .-_ZN3r2p8Flasher_15get_program_endEv
 423              		.section	.text._ZN3r2p8Flasher_13get_ram_startEv,"axG",%progbits,_ZN3r2p8Flasher_13get_ram_startEv
 424              		.align	2
 425              		.weak	_ZN3r2p8Flasher_13get_ram_startEv
 426              		.thumb
 427              		.thumb_func
 428              		.type	_ZN3r2p8Flasher_13get_ram_startEv, %function
 429              	_ZN3r2p8Flasher_13get_ram_startEv:
 430              	.LFB45:
 431              		.loc 5 168 0
 432              		.cfi_startproc
 433              		@ args = 0, pretend = 0, frame = 0
 434              		@ frame_needed = 0, uses_anonymous_args = 0
 435              		@ link register save eliminated.
 436              		.loc 5 170 0
 437 0000 014B     		ldr	r3, .L32
 438              		.loc 5 171 0
 439 0002 1846     		mov	r0, r3
 440 0004 7047     		bx	lr
 441              	.L33:
 442 0006 00BF     		.align	2
 443              	.L32:
 444 0008 00000000 		.word	__ram_start__
 445              		.cfi_endproc
 446              	.LFE45:
 447              		.size	_ZN3r2p8Flasher_13get_ram_startEv, .-_ZN3r2p8Flasher_13get_ram_startEv
 448              		.section	.text._ZN3r2p8Flasher_11get_ram_endEv,"axG",%progbits,_ZN3r2p8Flasher_11get_ram_endEv,com
 449              		.align	2
 450              		.weak	_ZN3r2p8Flasher_11get_ram_endEv
 451              		.thumb
 452              		.thumb_func
 453              		.type	_ZN3r2p8Flasher_11get_ram_endEv, %function
 454              	_ZN3r2p8Flasher_11get_ram_endEv:
 455              	.LFB46:
 456              		.loc 5 175 0
ARM GAS  /tmp/cc5OZvFd.s 			page 9


 457              		.cfi_startproc
 458              		@ args = 0, pretend = 0, frame = 0
 459              		@ frame_needed = 0, uses_anonymous_args = 0
 460              		@ link register save eliminated.
 461              		.loc 5 177 0
 462 0000 014B     		ldr	r3, .L36
 463              		.loc 5 178 0
 464 0002 1846     		mov	r0, r3
 465 0004 7047     		bx	lr
 466              	.L37:
 467 0006 00BF     		.align	2
 468              	.L36:
 469 0008 00000000 		.word	__ram_end__
 470              		.cfi_endproc
 471              	.LFE46:
 472              		.size	_ZN3r2p8Flasher_11get_ram_endEv, .-_ZN3r2p8Flasher_11get_ram_endEv
 473              		.section	.text._ZN3r2p7Flasher10is_alignedEPKv,"axG",%progbits,_ZN3r2p7Flasher10is_alignedEPKv,com
 474              		.align	2
 475              		.weak	_ZN3r2p7Flasher10is_alignedEPKv
 476              		.thumb
 477              		.thumb_func
 478              		.type	_ZN3r2p7Flasher10is_alignedEPKv, %function
 479              	_ZN3r2p7Flasher10is_alignedEPKv:
 480              	.LFB48:
 481              		.file 6 "/opt/R2P/core/Middleware/include/r2p/Flasher.hpp"
 482              		.loc 6 71 0
 483              		.cfi_startproc
 484              		@ args = 0, pretend = 0, frame = 8
 485              		@ frame_needed = 0, uses_anonymous_args = 0
 486 0000 00B5     		push	{lr}
 487              		.cfi_def_cfa_offset 4
 488              		.cfi_offset 14, -4
 489 0002 83B0     		sub	sp, sp, #12
 490              		.cfi_def_cfa_offset 16
 491 0004 0190     		str	r0, [sp, #4]
 492              		.loc 6 73 0
 493 0006 0198     		ldr	r0, [sp, #4]
 494 0008 FFF7FEFF 		bl	_ZN3r2p8Flasher_10is_alignedEPKv
 495 000c 0346     		mov	r3, r0
 496              		.loc 6 74 0
 497 000e 1846     		mov	r0, r3
 498 0010 03B0     		add	sp, sp, #12
 499              		.cfi_def_cfa_offset 4
 500              		@ sp needed
 501 0012 5DF804FB 		ldr	pc, [sp], #4
 502              		.cfi_endproc
 503              	.LFE48:
 504              		.size	_ZN3r2p7Flasher10is_alignedEPKv, .-_ZN3r2p7Flasher10is_alignedEPKv
 505 0016 00BF     		.section	.text._ZN3r2p7Flasher16is_within_boundsEPKv,"axG",%progbits,_ZN3r2p7Flasher16is_within_bo
 506              		.align	2
 507              		.weak	_ZN3r2p7Flasher16is_within_boundsEPKv
 508              		.thumb
 509              		.thumb_func
 510              		.type	_ZN3r2p7Flasher16is_within_boundsEPKv, %function
 511              	_ZN3r2p7Flasher16is_within_boundsEPKv:
 512              	.LFB49:
 513              		.loc 6 78 0
ARM GAS  /tmp/cc5OZvFd.s 			page 10


 514              		.cfi_startproc
 515              		@ args = 0, pretend = 0, frame = 8
 516              		@ frame_needed = 0, uses_anonymous_args = 0
 517 0000 00B5     		push	{lr}
 518              		.cfi_def_cfa_offset 4
 519              		.cfi_offset 14, -4
 520 0002 83B0     		sub	sp, sp, #12
 521              		.cfi_def_cfa_offset 16
 522 0004 0190     		str	r0, [sp, #4]
 523              		.loc 6 80 0
 524 0006 0198     		ldr	r0, [sp, #4]
 525 0008 FFF7FEFF 		bl	_ZN3r2p8Flasher_16is_within_boundsEPKv
 526 000c 0346     		mov	r3, r0
 527              		.loc 6 81 0
 528 000e 1846     		mov	r0, r3
 529 0010 03B0     		add	sp, sp, #12
 530              		.cfi_def_cfa_offset 4
 531              		@ sp needed
 532 0012 5DF804FB 		ldr	pc, [sp], #4
 533              		.cfi_endproc
 534              	.LFE49:
 535              		.size	_ZN3r2p7Flasher16is_within_boundsEPKv, .-_ZN3r2p7Flasher16is_within_boundsEPKv
 536 0016 00BF     		.section	.text._ZN3r2p7Flasher5beginEv,"axG",%progbits,_ZN3r2p7Flasher5beginEv,comdat
 537              		.align	2
 538              		.weak	_ZN3r2p7Flasher5beginEv
 539              		.thumb
 540              		.thumb_func
 541              		.type	_ZN3r2p7Flasher5beginEv, %function
 542              	_ZN3r2p7Flasher5beginEv:
 543              	.LFB51:
 544              		.loc 6 92 0
 545              		.cfi_startproc
 546              		@ args = 0, pretend = 0, frame = 8
 547              		@ frame_needed = 0, uses_anonymous_args = 0
 548 0000 00B5     		push	{lr}
 549              		.cfi_def_cfa_offset 4
 550              		.cfi_offset 14, -4
 551 0002 83B0     		sub	sp, sp, #12
 552              		.cfi_def_cfa_offset 16
 553 0004 0190     		str	r0, [sp, #4]
 554              		.loc 6 94 0
 555 0006 019B     		ldr	r3, [sp, #4]
 556 0008 0433     		adds	r3, r3, #4
 557 000a 1846     		mov	r0, r3
 558 000c FFF7FEFF 		bl	_ZN3r2p8Flasher_5beginEv
 559              		.loc 6 95 0
 560 0010 03B0     		add	sp, sp, #12
 561              		.cfi_def_cfa_offset 4
 562              		@ sp needed
 563 0012 5DF804FB 		ldr	pc, [sp], #4
 564              		.cfi_endproc
 565              	.LFE51:
 566              		.size	_ZN3r2p7Flasher5beginEv, .-_ZN3r2p7Flasher5beginEv
 567 0016 00BF     		.section	.text._ZN3r2p7Flasher3endEv,"axG",%progbits,_ZN3r2p7Flasher3endEv,comdat
 568              		.align	2
 569              		.weak	_ZN3r2p7Flasher3endEv
 570              		.thumb
ARM GAS  /tmp/cc5OZvFd.s 			page 11


 571              		.thumb_func
 572              		.type	_ZN3r2p7Flasher3endEv, %function
 573              	_ZN3r2p7Flasher3endEv:
 574              	.LFB52:
 575              		.loc 6 99 0
 576              		.cfi_startproc
 577              		@ args = 0, pretend = 0, frame = 8
 578              		@ frame_needed = 0, uses_anonymous_args = 0
 579 0000 00B5     		push	{lr}
 580              		.cfi_def_cfa_offset 4
 581              		.cfi_offset 14, -4
 582 0002 83B0     		sub	sp, sp, #12
 583              		.cfi_def_cfa_offset 16
 584 0004 0190     		str	r0, [sp, #4]
 585              		.loc 6 101 0
 586 0006 019B     		ldr	r3, [sp, #4]
 587 0008 0433     		adds	r3, r3, #4
 588 000a 1846     		mov	r0, r3
 589 000c FFF7FEFF 		bl	_ZN3r2p8Flasher_3endEv
 590 0010 0346     		mov	r3, r0
 591              		.loc 6 102 0
 592 0012 1846     		mov	r0, r3
 593 0014 03B0     		add	sp, sp, #12
 594              		.cfi_def_cfa_offset 4
 595              		@ sp needed
 596 0016 5DF804FB 		ldr	pc, [sp], #4
 597              		.cfi_endproc
 598              	.LFE52:
 599              		.size	_ZN3r2p7Flasher3endEv, .-_ZN3r2p7Flasher3endEv
 600 001a 00BF     		.section	.text._ZN3r2p7Flasher5flashEPKhS2_j,"axG",%progbits,_ZN3r2p7Flasher5flashEPKhS2_j,comdat
 601              		.align	2
 602              		.weak	_ZN3r2p7Flasher5flashEPKhS2_j
 603              		.thumb
 604              		.thumb_func
 605              		.type	_ZN3r2p7Flasher5flashEPKhS2_j, %function
 606              	_ZN3r2p7Flasher5flashEPKhS2_j:
 607              	.LFB55:
 608              		.loc 6 122 0
 609              		.cfi_startproc
 610              		@ args = 0, pretend = 0, frame = 16
 611              		@ frame_needed = 0, uses_anonymous_args = 0
 612 0000 00B5     		push	{lr}
 613              		.cfi_def_cfa_offset 4
 614              		.cfi_offset 14, -4
 615 0002 85B0     		sub	sp, sp, #20
 616              		.cfi_def_cfa_offset 24
 617 0004 0390     		str	r0, [sp, #12]
 618 0006 0291     		str	r1, [sp, #8]
 619 0008 0192     		str	r2, [sp, #4]
 620 000a 0093     		str	r3, [sp]
 621              		.loc 6 124 0
 622 000c 039B     		ldr	r3, [sp, #12]
 623 000e 0433     		adds	r3, r3, #4
 624 0010 1846     		mov	r0, r3
 625 0012 0299     		ldr	r1, [sp, #8]
 626 0014 019A     		ldr	r2, [sp, #4]
 627 0016 009B     		ldr	r3, [sp]
ARM GAS  /tmp/cc5OZvFd.s 			page 12


 628 0018 FFF7FEFF 		bl	_ZN3r2p8Flasher_5flashEPKhS2_j
 629 001c 0346     		mov	r3, r0
 630              		.loc 6 125 0
 631 001e 1846     		mov	r0, r3
 632 0020 05B0     		add	sp, sp, #20
 633              		.cfi_def_cfa_offset 4
 634              		@ sp needed
 635 0022 5DF804FB 		ldr	pc, [sp], #4
 636              		.cfi_endproc
 637              	.LFE55:
 638              		.size	_ZN3r2p7Flasher5flashEPKhS2_j, .-_ZN3r2p7Flasher5flashEPKhS2_j
 639 0026 00BF     		.section	.text._ZN3r2p7Flasher5eraseEPKhj,"axG",%progbits,_ZN3r2p7Flasher5eraseEPKhj,comdat
 640              		.align	2
 641              		.weak	_ZN3r2p7Flasher5eraseEPKhj
 642              		.thumb
 643              		.thumb_func
 644              		.type	_ZN3r2p7Flasher5eraseEPKhj, %function
 645              	_ZN3r2p7Flasher5eraseEPKhj:
 646              	.LFB56:
 647              		.loc 6 129 0
 648              		.cfi_startproc
 649              		@ args = 0, pretend = 0, frame = 16
 650              		@ frame_needed = 0, uses_anonymous_args = 0
 651 0000 00B5     		push	{lr}
 652              		.cfi_def_cfa_offset 4
 653              		.cfi_offset 14, -4
 654 0002 85B0     		sub	sp, sp, #20
 655              		.cfi_def_cfa_offset 24
 656 0004 0390     		str	r0, [sp, #12]
 657 0006 0291     		str	r1, [sp, #8]
 658 0008 0192     		str	r2, [sp, #4]
 659              		.loc 6 131 0
 660 000a 039B     		ldr	r3, [sp, #12]
 661 000c 0433     		adds	r3, r3, #4
 662 000e 1846     		mov	r0, r3
 663 0010 0299     		ldr	r1, [sp, #8]
 664 0012 019A     		ldr	r2, [sp, #4]
 665 0014 FFF7FEFF 		bl	_ZN3r2p8Flasher_5eraseEPKhj
 666 0018 0346     		mov	r3, r0
 667              		.loc 6 132 0
 668 001a 1846     		mov	r0, r3
 669 001c 05B0     		add	sp, sp, #20
 670              		.cfi_def_cfa_offset 4
 671              		@ sp needed
 672 001e 5DF804FB 		ldr	pc, [sp], #4
 673              		.cfi_endproc
 674              	.LFE56:
 675              		.size	_ZN3r2p7Flasher5eraseEPKhj, .-_ZN3r2p7Flasher5eraseEPKhj
 676 0022 00BF     		.section	.text._ZN3r2p7FlasherC2EPt,"axG",%progbits,_ZN3r2p7FlasherC5EPt,comdat
 677              		.align	2
 678              		.weak	_ZN3r2p7FlasherC2EPt
 679              		.thumb
 680              		.thumb_func
 681              		.type	_ZN3r2p7FlasherC2EPt, %function
 682              	_ZN3r2p7FlasherC2EPt:
 683              	.LFB61:
 684              		.loc 6 136 0
ARM GAS  /tmp/cc5OZvFd.s 			page 13


 685              		.cfi_startproc
 686              		@ args = 0, pretend = 0, frame = 8
 687              		@ frame_needed = 0, uses_anonymous_args = 0
 688 0000 00B5     		push	{lr}
 689              		.cfi_def_cfa_offset 4
 690              		.cfi_offset 14, -4
 691 0002 83B0     		sub	sp, sp, #12
 692              		.cfi_def_cfa_offset 16
 693 0004 0190     		str	r0, [sp, #4]
 694 0006 0091     		str	r1, [sp]
 695              	.LBB21:
 696              		.loc 6 138 0
 697 0008 0198     		ldr	r0, [sp, #4]
 698 000a FFF7FEFF 		bl	_ZN3r2p10UncopyableC2Ev
 699 000e 019B     		ldr	r3, [sp, #4]
 700 0010 0433     		adds	r3, r3, #4
 701 0012 1846     		mov	r0, r3
 702 0014 0099     		ldr	r1, [sp]
 703 0016 FFF7FEFF 		bl	_ZN3r2p8Flasher_C1EPt
 704              	.LBE21:
 705              		.loc 6 139 0
 706 001a 019B     		ldr	r3, [sp, #4]
 707 001c 1846     		mov	r0, r3
 708 001e 03B0     		add	sp, sp, #12
 709              		.cfi_def_cfa_offset 4
 710              		@ sp needed
 711 0020 5DF804FB 		ldr	pc, [sp], #4
 712              		.cfi_endproc
 713              	.LFE61:
 714              		.size	_ZN3r2p7FlasherC2EPt, .-_ZN3r2p7FlasherC2EPt
 715              		.weak	_ZN3r2p7FlasherC1EPt
 716              		.thumb_set _ZN3r2p7FlasherC1EPt,_ZN3r2p7FlasherC2EPt
 717              		.section	.text._ZN3r2p7Flasher10align_nextEj,"axG",%progbits,_ZN3r2p7Flasher10align_nextEj,comdat
 718              		.align	2
 719              		.weak	_ZN3r2p7Flasher10align_nextEj
 720              		.thumb
 721              		.thumb_func
 722              		.type	_ZN3r2p7Flasher10align_nextEj, %function
 723              	_ZN3r2p7Flasher10align_nextEj:
 724              	.LFB74:
 725              		.loc 6 222 0
 726              		.cfi_startproc
 727              		@ args = 0, pretend = 0, frame = 8
 728              		@ frame_needed = 0, uses_anonymous_args = 0
 729 0000 00B5     		push	{lr}
 730              		.cfi_def_cfa_offset 4
 731              		.cfi_offset 14, -4
 732 0002 83B0     		sub	sp, sp, #12
 733              		.cfi_def_cfa_offset 16
 734 0004 0190     		str	r0, [sp, #4]
 735              		.loc 6 225 0
 736 0006 019B     		ldr	r3, [sp, #4]
 737 0008 1846     		mov	r0, r3
 738 000a FFF7FEFF 		bl	_ZN3r2p8Flasher_10align_nextEPKh
 739 000e 0346     		mov	r3, r0
 740              		.loc 6 227 0
 741 0010 1846     		mov	r0, r3
ARM GAS  /tmp/cc5OZvFd.s 			page 14


 742 0012 03B0     		add	sp, sp, #12
 743              		.cfi_def_cfa_offset 4
 744              		@ sp needed
 745 0014 5DF804FB 		ldr	pc, [sp], #4
 746              		.cfi_endproc
 747              	.LFE74:
 748              		.size	_ZN3r2p7Flasher10align_nextEj, .-_ZN3r2p7Flasher10align_nextEj
 749              		.section	.text._ZN3r2p7Flasher17get_program_startEv,"axG",%progbits,_ZN3r2p7Flasher17get_program_s
 750              		.align	2
 751              		.weak	_ZN3r2p7Flasher17get_program_startEv
 752              		.thumb
 753              		.thumb_func
 754              		.type	_ZN3r2p7Flasher17get_program_startEv, %function
 755              	_ZN3r2p7Flasher17get_program_startEv:
 756              	.LFB75:
 757              		.loc 6 231 0
 758              		.cfi_startproc
 759              		@ args = 0, pretend = 0, frame = 0
 760              		@ frame_needed = 0, uses_anonymous_args = 0
 761 0000 08B5     		push	{r3, lr}
 762              		.cfi_def_cfa_offset 8
 763              		.cfi_offset 3, -8
 764              		.cfi_offset 14, -4
 765              		.loc 6 233 0
 766 0002 FFF7FEFF 		bl	_ZN3r2p8Flasher_17get_program_startEv
 767 0006 0346     		mov	r3, r0
 768              		.loc 6 234 0
 769 0008 1846     		mov	r0, r3
 770 000a 08BD     		pop	{r3, pc}
 771              		.cfi_endproc
 772              	.LFE75:
 773              		.size	_ZN3r2p7Flasher17get_program_startEv, .-_ZN3r2p7Flasher17get_program_startEv
 774              		.section	.text._ZN3r2p7Flasher15get_program_endEv,"axG",%progbits,_ZN3r2p7Flasher15get_program_end
 775              		.align	2
 776              		.weak	_ZN3r2p7Flasher15get_program_endEv
 777              		.thumb
 778              		.thumb_func
 779              		.type	_ZN3r2p7Flasher15get_program_endEv, %function
 780              	_ZN3r2p7Flasher15get_program_endEv:
 781              	.LFB76:
 782              		.loc 6 238 0
 783              		.cfi_startproc
 784              		@ args = 0, pretend = 0, frame = 0
 785              		@ frame_needed = 0, uses_anonymous_args = 0
 786 0000 08B5     		push	{r3, lr}
 787              		.cfi_def_cfa_offset 8
 788              		.cfi_offset 3, -8
 789              		.cfi_offset 14, -4
 790              		.loc 6 240 0
 791 0002 FFF7FEFF 		bl	_ZN3r2p8Flasher_15get_program_endEv
 792 0006 0346     		mov	r3, r0
 793              		.loc 6 241 0
 794 0008 1846     		mov	r0, r3
 795 000a 08BD     		pop	{r3, pc}
 796              		.cfi_endproc
 797              	.LFE76:
 798              		.size	_ZN3r2p7Flasher15get_program_endEv, .-_ZN3r2p7Flasher15get_program_endEv
ARM GAS  /tmp/cc5OZvFd.s 			page 15


 799              		.section	.text._ZN3r2p7Flasher13get_ram_startEv,"axG",%progbits,_ZN3r2p7Flasher13get_ram_startEv,c
 800              		.align	2
 801              		.weak	_ZN3r2p7Flasher13get_ram_startEv
 802              		.thumb
 803              		.thumb_func
 804              		.type	_ZN3r2p7Flasher13get_ram_startEv, %function
 805              	_ZN3r2p7Flasher13get_ram_startEv:
 806              	.LFB77:
 807              		.loc 6 245 0
 808              		.cfi_startproc
 809              		@ args = 0, pretend = 0, frame = 0
 810              		@ frame_needed = 0, uses_anonymous_args = 0
 811 0000 08B5     		push	{r3, lr}
 812              		.cfi_def_cfa_offset 8
 813              		.cfi_offset 3, -8
 814              		.cfi_offset 14, -4
 815              		.loc 6 247 0
 816 0002 FFF7FEFF 		bl	_ZN3r2p8Flasher_13get_ram_startEv
 817 0006 0346     		mov	r3, r0
 818              		.loc 6 248 0
 819 0008 1846     		mov	r0, r3
 820 000a 08BD     		pop	{r3, pc}
 821              		.cfi_endproc
 822              	.LFE77:
 823              		.size	_ZN3r2p7Flasher13get_ram_startEv, .-_ZN3r2p7Flasher13get_ram_startEv
 824              		.section	.text._ZN3r2p7Flasher11get_ram_endEv,"axG",%progbits,_ZN3r2p7Flasher11get_ram_endEv,comda
 825              		.align	2
 826              		.weak	_ZN3r2p7Flasher11get_ram_endEv
 827              		.thumb
 828              		.thumb_func
 829              		.type	_ZN3r2p7Flasher11get_ram_endEv, %function
 830              	_ZN3r2p7Flasher11get_ram_endEv:
 831              	.LFB78:
 832              		.loc 6 252 0
 833              		.cfi_startproc
 834              		@ args = 0, pretend = 0, frame = 0
 835              		@ frame_needed = 0, uses_anonymous_args = 0
 836 0000 08B5     		push	{r3, lr}
 837              		.cfi_def_cfa_offset 8
 838              		.cfi_offset 3, -8
 839              		.cfi_offset 14, -4
 840              		.loc 6 254 0
 841 0002 FFF7FEFF 		bl	_ZN3r2p8Flasher_11get_ram_endEv
 842 0006 0346     		mov	r3, r0
 843              		.loc 6 255 0
 844 0008 1846     		mov	r0, r3
 845 000a 08BD     		pop	{r3, pc}
 846              		.cfi_endproc
 847              	.LFE78:
 848              		.size	_ZN3r2p7Flasher11get_ram_endEv, .-_ZN3r2p7Flasher11get_ram_endEv
 849              		.section	.text._ZN3r2p7Flasher18get_program_lengthEv,"axG",%progbits,_ZN3r2p7Flasher18get_program_
 850              		.align	2
 851              		.weak	_ZN3r2p7Flasher18get_program_lengthEv
 852              		.thumb
 853              		.thumb_func
 854              		.type	_ZN3r2p7Flasher18get_program_lengthEv, %function
 855              	_ZN3r2p7Flasher18get_program_lengthEv:
ARM GAS  /tmp/cc5OZvFd.s 			page 16


 856              	.LFB79:
 857              		.loc 6 259 0
 858              		.cfi_startproc
 859              		@ args = 0, pretend = 0, frame = 0
 860              		@ frame_needed = 0, uses_anonymous_args = 0
 861 0000 10B5     		push	{r4, lr}
 862              		.cfi_def_cfa_offset 8
 863              		.cfi_offset 4, -8
 864              		.cfi_offset 14, -4
 865              		.loc 6 261 0
 866 0002 FFF7FEFF 		bl	_ZN3r2p7Flasher17get_program_startEv
 867 0006 0446     		mov	r4, r0
 868 0008 FFF7FEFF 		bl	_ZN3r2p7Flasher15get_program_endEv
 869 000c 0346     		mov	r3, r0
 870 000e 2046     		mov	r0, r4
 871 0010 1946     		mov	r1, r3
 872 0012 FFF7FEFF 		bl	_ZN3r2p18compute_chunk_sizeIhEEjPKT_S3_
 873 0016 0346     		mov	r3, r0
 874              		.loc 6 262 0
 875 0018 1846     		mov	r0, r3
 876 001a 10BD     		pop	{r4, pc}
 877              		.cfi_endproc
 878              	.LFE79:
 879              		.size	_ZN3r2p7Flasher18get_program_lengthEv, .-_ZN3r2p7Flasher18get_program_lengthEv
 880              		.section	.text._ZN3r2p7Message12reset_unsafeEv,"axG",%progbits,_ZN3r2p7Message12reset_unsafeEv,com
 881              		.align	2
 882              		.weak	_ZN3r2p7Message12reset_unsafeEv
 883              		.thumb
 884              		.thumb_func
 885              		.type	_ZN3r2p7Message12reset_unsafeEv, %function
 886              	_ZN3r2p7Message12reset_unsafeEv:
 887              	.LFB88:
 888              		.file 7 "/opt/R2P/core/Middleware/include/r2p/Message.hpp"
 889              		.loc 7 122 0
 890              		.cfi_startproc
 891              		@ args = 0, pretend = 0, frame = 8
 892              		@ frame_needed = 0, uses_anonymous_args = 0
 893              		@ link register save eliminated.
 894 0000 82B0     		sub	sp, sp, #8
 895              		.cfi_def_cfa_offset 8
 896 0002 0190     		str	r0, [sp, #4]
 897              		.loc 7 127 0
 898 0004 019B     		ldr	r3, [sp, #4]
 899 0006 0022     		movs	r2, #0
 900 0008 1A70     		strb	r2, [r3]
 901 000a 0022     		movs	r2, #0
 902 000c 5A70     		strb	r2, [r3, #1]
 903              		.loc 7 128 0
 904 000e 02B0     		add	sp, sp, #8
 905              		.cfi_def_cfa_offset 0
 906              		@ sp needed
 907 0010 7047     		bx	lr
 908              		.cfi_endproc
 909              	.LFE88:
 910              		.size	_ZN3r2p7Message12reset_unsafeEv, .-_ZN3r2p7Message12reset_unsafeEv
 911 0012 00BF     		.section	.text._ZN3r2p7Message16get_payload_sizeEj,"axG",%progbits,_ZN3r2p7Message16get_payload_si
 912              		.align	2
ARM GAS  /tmp/cc5OZvFd.s 			page 17


 913              		.weak	_ZN3r2p7Message16get_payload_sizeEj
 914              		.thumb
 915              		.thumb_func
 916              		.type	_ZN3r2p7Message16get_payload_sizeEj, %function
 917              	_ZN3r2p7Message16get_payload_sizeEj:
 918              	.LFB92:
 919              		.loc 7 142 0
 920              		.cfi_startproc
 921              		@ args = 0, pretend = 0, frame = 8
 922              		@ frame_needed = 0, uses_anonymous_args = 0
 923              		@ link register save eliminated.
 924 0000 82B0     		sub	sp, sp, #8
 925              		.cfi_def_cfa_offset 8
 926 0002 0190     		str	r0, [sp, #4]
 927              		.loc 7 147 0
 928 0004 019B     		ldr	r3, [sp, #4]
 929 0006 023B     		subs	r3, r3, #2
 930              		.loc 7 149 0
 931 0008 1846     		mov	r0, r3
 932 000a 02B0     		add	sp, sp, #8
 933              		.cfi_def_cfa_offset 0
 934              		@ sp needed
 935 000c 7047     		bx	lr
 936              		.cfi_endproc
 937              	.LFE92:
 938              		.size	_ZN3r2p7Message16get_payload_sizeEj, .-_ZN3r2p7Message16get_payload_sizeEj
 939 000e 00BF     		.section	.text._ZN3r2p11MemoryPool_12alloc_unsafeEv,"axG",%progbits,_ZN3r2p11MemoryPool_12alloc_un
 940              		.align	2
 941              		.weak	_ZN3r2p11MemoryPool_12alloc_unsafeEv
 942              		.thumb
 943              		.thumb_func
 944              		.type	_ZN3r2p11MemoryPool_12alloc_unsafeEv, %function
 945              	_ZN3r2p11MemoryPool_12alloc_unsafeEv:
 946              	.LFB99:
 947              		.file 8 "/opt/R2P/core/Middleware/port/chibios/include/r2p/impl/MemoryPool_.hpp"
 948              		.loc 8 53 0
 949              		.cfi_startproc
 950              		@ args = 0, pretend = 0, frame = 8
 951              		@ frame_needed = 0, uses_anonymous_args = 0
 952 0000 00B5     		push	{lr}
 953              		.cfi_def_cfa_offset 4
 954              		.cfi_offset 14, -4
 955 0002 83B0     		sub	sp, sp, #12
 956              		.cfi_def_cfa_offset 16
 957 0004 0190     		str	r0, [sp, #4]
 958              		.loc 8 55 0
 959 0006 019B     		ldr	r3, [sp, #4]
 960 0008 1846     		mov	r0, r3
 961 000a FFF7FEFF 		bl	chPoolAllocI
 962 000e 0346     		mov	r3, r0
 963              		.loc 8 56 0
 964 0010 1846     		mov	r0, r3
 965 0012 03B0     		add	sp, sp, #12
 966              		.cfi_def_cfa_offset 4
 967              		@ sp needed
 968 0014 5DF804FB 		ldr	pc, [sp], #4
 969              		.cfi_endproc
ARM GAS  /tmp/cc5OZvFd.s 			page 18


 970              	.LFE99:
 971              		.size	_ZN3r2p11MemoryPool_12alloc_unsafeEv, .-_ZN3r2p11MemoryPool_12alloc_unsafeEv
 972              		.section	.text._ZNK3r2p4Time8to_s_rawEv,"axG",%progbits,_ZNK3r2p4Time8to_s_rawEv,comdat
 973              		.align	2
 974              		.weak	_ZNK3r2p4Time8to_s_rawEv
 975              		.thumb
 976              		.thumb_func
 977              		.type	_ZNK3r2p4Time8to_s_rawEv, %function
 978              	_ZNK3r2p4Time8to_s_rawEv:
 979              	.LFB119:
 980              		.file 9 "/opt/R2P/core/Middleware/include/r2p/Time.hpp"
 981              		.loc 9 89 0
 982              		.cfi_startproc
 983              		@ args = 0, pretend = 0, frame = 8
 984              		@ frame_needed = 0, uses_anonymous_args = 0
 985              		@ link register save eliminated.
 986 0000 82B0     		sub	sp, sp, #8
 987              		.cfi_def_cfa_offset 8
 988 0002 0190     		str	r0, [sp, #4]
 989              		.loc 9 91 0
 990 0004 019B     		ldr	r3, [sp, #4]
 991 0006 1B68     		ldr	r3, [r3]
 992 0008 044A     		ldr	r2, .L71
 993 000a 82FB0312 		smull	r1, r2, r2, r3
 994 000e 9214     		asrs	r2, r2, #18
 995 0010 DB17     		asrs	r3, r3, #31
 996 0012 D31A     		subs	r3, r2, r3
 997              		.loc 9 92 0
 998 0014 1846     		mov	r0, r3
 999 0016 02B0     		add	sp, sp, #8
 1000              		.cfi_def_cfa_offset 0
 1001              		@ sp needed
 1002 0018 7047     		bx	lr
 1003              	.L72:
 1004 001a 00BF     		.align	2
 1005              	.L71:
 1006 001c 83DE1B43 		.word	1125899907
 1007              		.cfi_endproc
 1008              	.LFE119:
 1009              		.size	_ZNK3r2p4Time8to_s_rawEv, .-_ZNK3r2p4Time8to_s_rawEv
 1010              		.section	.text._ZN3r2p4Time2msEl,"axG",%progbits,_ZN3r2p4Time2msEl,comdat
 1011              		.align	2
 1012              		.weak	_ZN3r2p4Time2msEl
 1013              		.thumb
 1014              		.thumb_func
 1015              		.type	_ZN3r2p4Time2msEl, %function
 1016              	_ZN3r2p4Time2msEl:
 1017              	.LFB139:
 1018              		.loc 9 184 0
 1019              		.cfi_startproc
 1020              		@ args = 0, pretend = 0, frame = 8
 1021              		@ frame_needed = 0, uses_anonymous_args = 0
 1022 0000 00B5     		push	{lr}
 1023              		.cfi_def_cfa_offset 4
 1024              		.cfi_offset 14, -4
 1025 0002 83B0     		sub	sp, sp, #12
 1026              		.cfi_def_cfa_offset 16
ARM GAS  /tmp/cc5OZvFd.s 			page 19


 1027 0004 0190     		str	r0, [sp, #4]
 1028 0006 0091     		str	r1, [sp]
 1029              		.loc 9 186 0
 1030 0008 009B     		ldr	r3, [sp]
 1031 000a 4FF47A72 		mov	r2, #1000
 1032 000e 02FB03F3 		mul	r3, r2, r3
 1033 0012 0198     		ldr	r0, [sp, #4]
 1034 0014 1946     		mov	r1, r3
 1035 0016 FFF7FEFF 		bl	_ZN3r2p4TimeC1IlEET_
 1036              		.loc 9 187 0
 1037 001a 0198     		ldr	r0, [sp, #4]
 1038 001c 03B0     		add	sp, sp, #12
 1039              		.cfi_def_cfa_offset 4
 1040              		@ sp needed
 1041 001e 5DF804FB 		ldr	pc, [sp], #4
 1042              		.cfi_endproc
 1043              	.LFE139:
 1044              		.size	_ZN3r2p4Time2msEl, .-_ZN3r2p4Time2msEl
 1045 0022 00BF     		.section	.text._ZN3r2p7Thread_11create_heapEPvjmPFlS1_ES1_PKc,"axG",%progbits,_ZN3r2p7Thread_11cre
 1046              		.align	2
 1047              		.weak	_ZN3r2p7Thread_11create_heapEPvjmPFlS1_ES1_PKc
 1048              		.thumb
 1049              		.thumb_func
 1050              		.type	_ZN3r2p7Thread_11create_heapEPvjmPFlS1_ES1_PKc, %function
 1051              	_ZN3r2p7Thread_11create_heapEPvjmPFlS1_ES1_PKc:
 1052              	.LFB155:
 1053              		.file 10 "/opt/R2P/core/Middleware/port/chibios/include/r2p/impl/Thread_.hpp"
 1054              		.loc 10 115 0
 1055              		.cfi_startproc
 1056              		@ args = 8, pretend = 0, frame = 24
 1057              		@ frame_needed = 0, uses_anonymous_args = 0
 1058 0000 00B5     		push	{lr}
 1059              		.cfi_def_cfa_offset 4
 1060              		.cfi_offset 14, -4
 1061 0002 89B0     		sub	sp, sp, #36
 1062              		.cfi_def_cfa_offset 40
 1063 0004 0590     		str	r0, [sp, #20]
 1064 0006 0491     		str	r1, [sp, #16]
 1065 0008 0392     		str	r2, [sp, #12]
 1066 000a 0293     		str	r3, [sp, #8]
 1067              	.LBB22:
 1068              		.loc 10 120 0
 1069 000c 0A9B     		ldr	r3, [sp, #40]
 1070 000e 0093     		str	r3, [sp]
 1071 0010 0598     		ldr	r0, [sp, #20]
 1072 0012 0499     		ldr	r1, [sp, #16]
 1073 0014 039A     		ldr	r2, [sp, #12]
 1074 0016 029B     		ldr	r3, [sp, #8]
 1075 0018 FFF7FEFF 		bl	chThdCreateFromHeap
 1076 001c 0790     		str	r0, [sp, #28]
 1077              		.loc 10 122 0
 1078 001e 079B     		ldr	r3, [sp, #28]
 1079 0020 002B     		cmp	r3, #0
 1080 0022 02D0     		beq	.L76
 1081              		.loc 10 123 0
 1082 0024 079B     		ldr	r3, [sp, #28]
 1083 0026 0B9A     		ldr	r2, [sp, #44]
ARM GAS  /tmp/cc5OZvFd.s 			page 20


 1084 0028 9A61     		str	r2, [r3, #24]
 1085              	.L76:
 1086              		.loc 10 128 0
 1087 002a 079B     		ldr	r3, [sp, #28]
 1088              	.LBE22:
 1089              		.loc 10 129 0
 1090 002c 1846     		mov	r0, r3
 1091 002e 09B0     		add	sp, sp, #36
 1092              		.cfi_def_cfa_offset 4
 1093              		@ sp needed
 1094 0030 5DF804FB 		ldr	pc, [sp], #4
 1095              		.cfi_endproc
 1096              	.LFE155:
 1097              		.size	_ZN3r2p7Thread_11create_heapEPvjmPFlS1_ES1_PKc, .-_ZN3r2p7Thread_11create_heapEPvjmPFlS1_ES1
 1098              		.section	.text._ZN3r2p7Thread_5sleepERKNS_4TimeE,"axG",%progbits,_ZN3r2p7Thread_5sleepERKNS_4TimeE
 1099              		.align	2
 1100              		.weak	_ZN3r2p7Thread_5sleepERKNS_4TimeE
 1101              		.thumb
 1102              		.thumb_func
 1103              		.type	_ZN3r2p7Thread_5sleepERKNS_4TimeE, %function
 1104              	_ZN3r2p7Thread_5sleepERKNS_4TimeE:
 1105              	.LFB161:
 1106              		.loc 10 180 0
 1107              		.cfi_startproc
 1108              		@ args = 0, pretend = 0, frame = 8
 1109              		@ frame_needed = 0, uses_anonymous_args = 0
 1110 0000 00B5     		push	{lr}
 1111              		.cfi_def_cfa_offset 4
 1112              		.cfi_offset 14, -4
 1113 0002 83B0     		sub	sp, sp, #12
 1114              		.cfi_def_cfa_offset 16
 1115 0004 0190     		str	r0, [sp, #4]
 1116              		.loc 10 182 0
 1117 0006 019B     		ldr	r3, [sp, #4]
 1118 0008 1B68     		ldr	r3, [r3]
 1119 000a 002B     		cmp	r3, #0
 1120 000c 21DD     		ble	.L79
 1121              		.loc 10 183 0
 1122 000e 019B     		ldr	r3, [sp, #4]
 1123 0010 1B68     		ldr	r3, [r3]
 1124 0012 124A     		ldr	r2, .L83
 1125 0014 9342     		cmp	r3, r2
 1126 0016 10DC     		bgt	.L80
 1127              		.loc 10 184 0
 1128 0018 019B     		ldr	r3, [sp, #4]
 1129 001a 1B68     		ldr	r3, [r3]
 1130 001c 1A46     		mov	r2, r3
 1131 001e 4FF47A73 		mov	r3, #1000
 1132 0022 03FB02F3 		mul	r3, r3, r2
 1133 0026 013B     		subs	r3, r3, #1
 1134 0028 0D4A     		ldr	r2, .L83+4
 1135 002a A2FB0323 		umull	r2, r3, r2, r3
 1136 002e 9B0C     		lsrs	r3, r3, #18
 1137 0030 0133     		adds	r3, r3, #1
 1138 0032 1846     		mov	r0, r3
 1139 0034 FFF7FEFF 		bl	chThdSleep
 1140 0038 0DE0     		b	.L78
ARM GAS  /tmp/cc5OZvFd.s 			page 21


 1141              	.L80:
 1142              		.loc 10 186 0
 1143 003a 0198     		ldr	r0, [sp, #4]
 1144 003c FFF7FEFF 		bl	_ZNK3r2p4Time8to_s_rawEv
 1145 0040 0246     		mov	r2, r0
 1146 0042 4FF47A73 		mov	r3, #1000
 1147 0046 03FB02F3 		mul	r3, r3, r2
 1148 004a 1846     		mov	r0, r3
 1149 004c FFF7FEFF 		bl	chThdSleep
 1150 0050 01E0     		b	.L78
 1151              	.L79:
 1152              		.loc 10 189 0
 1153 0052 FFF7FEFF 		bl	chThdYield
 1154              	.L78:
 1155              		.loc 10 191 0
 1156 0056 03B0     		add	sp, sp, #12
 1157              		.cfi_def_cfa_offset 4
 1158              		@ sp needed
 1159 0058 5DF804FB 		ldr	pc, [sp], #4
 1160              	.L84:
 1161              		.align	2
 1162              	.L83:
 1163 005c 3F420F00 		.word	999999
 1164 0060 83DE1B43 		.word	1125899907
 1165              		.cfi_endproc
 1166              	.LFE161:
 1167              		.size	_ZN3r2p7Thread_5sleepERKNS_4TimeE, .-_ZN3r2p7Thread_5sleepERKNS_4TimeE
 1168              		.section	.text._ZN3r2p6Thread11create_heapEPvjmPFlS1_ES1_PKc,"axG",%progbits,_ZN3r2p6Thread11creat
 1169              		.align	2
 1170              		.weak	_ZN3r2p6Thread11create_heapEPvjmPFlS1_ES1_PKc
 1171              		.thumb
 1172              		.thumb_func
 1173              		.type	_ZN3r2p6Thread11create_heapEPvjmPFlS1_ES1_PKc, %function
 1174              	_ZN3r2p6Thread11create_heapEPvjmPFlS1_ES1_PKc:
 1175              	.LFB177:
 1176              		.file 11 "/opt/R2P/core/Middleware/include/r2p/Thread.hpp"
 1177              		.loc 11 92 0
 1178              		.cfi_startproc
 1179              		@ args = 8, pretend = 0, frame = 16
 1180              		@ frame_needed = 0, uses_anonymous_args = 0
 1181 0000 00B5     		push	{lr}
 1182              		.cfi_def_cfa_offset 4
 1183              		.cfi_offset 14, -4
 1184 0002 87B0     		sub	sp, sp, #28
 1185              		.cfi_def_cfa_offset 32
 1186 0004 0590     		str	r0, [sp, #20]
 1187 0006 0491     		str	r1, [sp, #16]
 1188 0008 0392     		str	r2, [sp, #12]
 1189 000a 0293     		str	r3, [sp, #8]
 1190              		.loc 11 96 0
 1191 000c 089B     		ldr	r3, [sp, #32]
 1192 000e 0093     		str	r3, [sp]
 1193 0010 099B     		ldr	r3, [sp, #36]
 1194 0012 0193     		str	r3, [sp, #4]
 1195 0014 0598     		ldr	r0, [sp, #20]
 1196 0016 0499     		ldr	r1, [sp, #16]
 1197 0018 039A     		ldr	r2, [sp, #12]
ARM GAS  /tmp/cc5OZvFd.s 			page 22


 1198 001a 029B     		ldr	r3, [sp, #8]
 1199 001c FFF7FEFF 		bl	_ZN3r2p7Thread_11create_heapEPvjmPFlS1_ES1_PKc
 1200 0020 0346     		mov	r3, r0
 1201              		.loc 11 97 0
 1202 0022 1846     		mov	r0, r3
 1203 0024 07B0     		add	sp, sp, #28
 1204              		.cfi_def_cfa_offset 4
 1205              		@ sp needed
 1206 0026 5DF804FB 		ldr	pc, [sp], #4
 1207              		.cfi_endproc
 1208              	.LFE177:
 1209              		.size	_ZN3r2p6Thread11create_heapEPvjmPFlS1_ES1_PKc, .-_ZN3r2p6Thread11create_heapEPvjmPFlS1_ES1_P
 1210 002a 00BF     		.section	.text._ZN3r2p6Thread5sleepERKNS_4TimeE,"axG",%progbits,_ZN3r2p6Thread5sleepERKNS_4TimeE,c
 1211              		.align	2
 1212              		.weak	_ZN3r2p6Thread5sleepERKNS_4TimeE
 1213              		.thumb
 1214              		.thumb_func
 1215              		.type	_ZN3r2p6Thread5sleepERKNS_4TimeE, %function
 1216              	_ZN3r2p6Thread5sleepERKNS_4TimeE:
 1217              	.LFB183:
 1218              		.loc 11 140 0
 1219              		.cfi_startproc
 1220              		@ args = 0, pretend = 0, frame = 8
 1221              		@ frame_needed = 0, uses_anonymous_args = 0
 1222 0000 00B5     		push	{lr}
 1223              		.cfi_def_cfa_offset 4
 1224              		.cfi_offset 14, -4
 1225 0002 83B0     		sub	sp, sp, #12
 1226              		.cfi_def_cfa_offset 16
 1227 0004 0190     		str	r0, [sp, #4]
 1228              		.loc 11 142 0
 1229 0006 0198     		ldr	r0, [sp, #4]
 1230 0008 FFF7FEFF 		bl	_ZN3r2p7Thread_5sleepERKNS_4TimeE
 1231              		.loc 11 143 0
 1232 000c 03B0     		add	sp, sp, #12
 1233              		.cfi_def_cfa_offset 4
 1234              		@ sp needed
 1235 000e 5DF804FB 		ldr	pc, [sp], #4
 1236              		.cfi_endproc
 1237              	.LFE183:
 1238              		.size	_ZN3r2p6Thread5sleepERKNS_4TimeE, .-_ZN3r2p6Thread5sleepERKNS_4TimeE
 1239 0012 00BF     		.section	.text._ZN3r2p10Bootloader12FlashAppInfo15compute_programEPKS1_,"axG",%progbits,_ZN3r2p10B
 1240              		.align	2
 1241              		.weak	_ZN3r2p10Bootloader12FlashAppInfo15compute_programEPKS1_
 1242              		.thumb
 1243              		.thumb_func
 1244              		.type	_ZN3r2p10Bootloader12FlashAppInfo15compute_programEPKS1_, %function
 1245              	_ZN3r2p10Bootloader12FlashAppInfo15compute_programEPKS1_:
 1246              	.LFB185:
 1247              		.file 12 "/opt/R2P/core/Middleware/include/r2p/Bootloader.hpp"
 1248              		.loc 12 59 0
 1249              		.cfi_startproc
 1250              		@ args = 0, pretend = 0, frame = 8
 1251              		@ frame_needed = 0, uses_anonymous_args = 0
 1252 0000 00B5     		push	{lr}
 1253              		.cfi_def_cfa_offset 4
 1254              		.cfi_offset 14, -4
ARM GAS  /tmp/cc5OZvFd.s 			page 23


 1255 0002 83B0     		sub	sp, sp, #12
 1256              		.cfi_def_cfa_offset 16
 1257 0004 0190     		str	r0, [sp, #4]
 1258              		.loc 12 61 0
 1259 0006 4420     		movs	r0, #68
 1260 0008 FFF7FEFF 		bl	_ZN3r2p7Flasher10align_nextEj
 1261 000c 0246     		mov	r2, r0
 1262 000e 019B     		ldr	r3, [sp, #4]
 1263 0010 1344     		add	r3, r3, r2
 1264              		.loc 12 62 0
 1265 0012 1846     		mov	r0, r3
 1266 0014 03B0     		add	sp, sp, #12
 1267              		.cfi_def_cfa_offset 4
 1268              		@ sp needed
 1269 0016 5DF804FB 		ldr	pc, [sp], #4
 1270              		.cfi_endproc
 1271              	.LFE185:
 1272              		.size	_ZN3r2p10Bootloader12FlashAppInfo15compute_programEPKS1_, .-_ZN3r2p10Bootloader12FlashAppInf
 1273 001a 00BF     		.section	.text._ZN3r2p10Bootloader12FlashAppInfo20compute_data_programEPKS1_jj,"axG",%progbits,_ZN
 1274              		.align	2
 1275              		.weak	_ZN3r2p10Bootloader12FlashAppInfo20compute_data_programEPKS1_jj
 1276              		.thumb
 1277              		.thumb_func
 1278              		.type	_ZN3r2p10Bootloader12FlashAppInfo20compute_data_programEPKS1_jj, %function
 1279              	_ZN3r2p10Bootloader12FlashAppInfo20compute_data_programEPKS1_jj:
 1280              	.LFB186:
 1281              		.loc 12 64 0
 1282              		.cfi_startproc
 1283              		@ args = 0, pretend = 0, frame = 16
 1284              		@ frame_needed = 0, uses_anonymous_args = 0
 1285 0000 10B5     		push	{r4, lr}
 1286              		.cfi_def_cfa_offset 8
 1287              		.cfi_offset 4, -8
 1288              		.cfi_offset 14, -4
 1289 0002 84B0     		sub	sp, sp, #16
 1290              		.cfi_def_cfa_offset 24
 1291 0004 0390     		str	r0, [sp, #12]
 1292 0006 0291     		str	r1, [sp, #8]
 1293 0008 0192     		str	r2, [sp, #4]
 1294              		.loc 12 66 0
 1295 000a 019B     		ldr	r3, [sp, #4]
 1296 000c 002B     		cmp	r3, #0
 1297 000e 0BD0     		beq	.L91
 1298              		.loc 12 68 0
 1299 0010 4420     		movs	r0, #68
 1300 0012 FFF7FEFF 		bl	_ZN3r2p7Flasher10align_nextEj
 1301 0016 0446     		mov	r4, r0
 1302              		.loc 12 69 0
 1303 0018 0298     		ldr	r0, [sp, #8]
 1304 001a FFF7FEFF 		bl	_ZN3r2p7Flasher10align_nextEj
 1305 001e 0346     		mov	r3, r0
 1306 0020 2344     		add	r3, r3, r4
 1307 0022 039A     		ldr	r2, [sp, #12]
 1308 0024 1344     		add	r3, r3, r2
 1309 0026 00E0     		b	.L92
 1310              	.L91:
 1311              		.loc 12 71 0
ARM GAS  /tmp/cc5OZvFd.s 			page 24


 1312 0028 0023     		movs	r3, #0
 1313              	.L92:
 1314              		.loc 12 73 0
 1315 002a 1846     		mov	r0, r3
 1316 002c 04B0     		add	sp, sp, #16
 1317              		.cfi_def_cfa_offset 8
 1318              		@ sp needed
 1319 002e 10BD     		pop	{r4, pc}
 1320              		.cfi_endproc
 1321              	.LFE186:
 1322              		.size	_ZN3r2p10Bootloader12FlashAppInfo20compute_data_programEPKS1_jj, .-_ZN3r2p10Bootloader12Flas
 1323              		.section	.text._ZN3r2p10Bootloader12FlashAppInfo12compute_nextEPKS1_jj,"axG",%progbits,_ZN3r2p10Bo
 1324              		.align	2
 1325              		.weak	_ZN3r2p10Bootloader12FlashAppInfo12compute_nextEPKS1_jj
 1326              		.thumb
 1327              		.thumb_func
 1328              		.type	_ZN3r2p10Bootloader12FlashAppInfo12compute_nextEPKS1_jj, %function
 1329              	_ZN3r2p10Bootloader12FlashAppInfo12compute_nextEPKS1_jj:
 1330              	.LFB187:
 1331              		.loc 12 75 0
 1332              		.cfi_startproc
 1333              		@ args = 0, pretend = 0, frame = 16
 1334              		@ frame_needed = 0, uses_anonymous_args = 0
 1335 0000 10B5     		push	{r4, lr}
 1336              		.cfi_def_cfa_offset 8
 1337              		.cfi_offset 4, -8
 1338              		.cfi_offset 14, -4
 1339 0002 84B0     		sub	sp, sp, #16
 1340              		.cfi_def_cfa_offset 24
 1341 0004 0390     		str	r0, [sp, #12]
 1342 0006 0291     		str	r1, [sp, #8]
 1343 0008 0192     		str	r2, [sp, #4]
 1344              		.loc 12 79 0
 1345 000a 4420     		movs	r0, #68
 1346 000c FFF7FEFF 		bl	_ZN3r2p7Flasher10align_nextEj
 1347 0010 0446     		mov	r4, r0
 1348              		.loc 12 80 0
 1349 0012 0298     		ldr	r0, [sp, #8]
 1350 0014 FFF7FEFF 		bl	_ZN3r2p7Flasher10align_nextEj
 1351 0018 0346     		mov	r3, r0
 1352 001a 1C44     		add	r4, r4, r3
 1353              		.loc 12 81 0
 1354 001c 0198     		ldr	r0, [sp, #4]
 1355 001e FFF7FEFF 		bl	_ZN3r2p7Flasher10align_nextEj
 1356 0022 0346     		mov	r3, r0
 1357 0024 2344     		add	r3, r3, r4
 1358              		.loc 12 82 0
 1359 0026 039A     		ldr	r2, [sp, #12]
 1360 0028 1344     		add	r3, r3, r2
 1361              		.loc 12 83 0
 1362 002a 1846     		mov	r0, r3
 1363 002c 04B0     		add	sp, sp, #16
 1364              		.cfi_def_cfa_offset 8
 1365              		@ sp needed
 1366 002e 10BD     		pop	{r4, pc}
 1367              		.cfi_endproc
 1368              	.LFE187:
ARM GAS  /tmp/cc5OZvFd.s 			page 25


 1369              		.size	_ZN3r2p10Bootloader12FlashAppInfo12compute_nextEPKS1_jj, .-_ZN3r2p10Bootloader12FlashAppInfo
 1370              		.section	.text._ZNK3r2p10Bootloader12FlashAppInfo11get_programEv,"axG",%progbits,_ZNK3r2p10Bootloa
 1371              		.align	2
 1372              		.weak	_ZNK3r2p10Bootloader12FlashAppInfo11get_programEv
 1373              		.thumb
 1374              		.thumb_func
 1375              		.type	_ZNK3r2p10Bootloader12FlashAppInfo11get_programEv, %function
 1376              	_ZNK3r2p10Bootloader12FlashAppInfo11get_programEv:
 1377              	.LFB188:
 1378              		.loc 12 85 0
 1379              		.cfi_startproc
 1380              		@ args = 0, pretend = 0, frame = 8
 1381              		@ frame_needed = 0, uses_anonymous_args = 0
 1382 0000 00B5     		push	{lr}
 1383              		.cfi_def_cfa_offset 4
 1384              		.cfi_offset 14, -4
 1385 0002 83B0     		sub	sp, sp, #12
 1386              		.cfi_def_cfa_offset 16
 1387 0004 0190     		str	r0, [sp, #4]
 1388              		.loc 12 86 0
 1389 0006 0198     		ldr	r0, [sp, #4]
 1390 0008 FFF7FEFF 		bl	_ZN3r2p10Bootloader12FlashAppInfo15compute_programEPKS1_
 1391 000c 0346     		mov	r3, r0
 1392              		.loc 12 87 0
 1393 000e 1846     		mov	r0, r3
 1394 0010 03B0     		add	sp, sp, #12
 1395              		.cfi_def_cfa_offset 4
 1396              		@ sp needed
 1397 0012 5DF804FB 		ldr	pc, [sp], #4
 1398              		.cfi_endproc
 1399              	.LFE188:
 1400              		.size	_ZNK3r2p10Bootloader12FlashAppInfo11get_programEv, .-_ZNK3r2p10Bootloader12FlashAppInfo11get
 1401 0016 00BF     		.section	.text._ZNK3r2p10Bootloader12FlashAppInfo16get_data_programEv,"axG",%progbits,_ZNK3r2p10Bo
 1402              		.align	2
 1403              		.weak	_ZNK3r2p10Bootloader12FlashAppInfo16get_data_programEv
 1404              		.thumb
 1405              		.thumb_func
 1406              		.type	_ZNK3r2p10Bootloader12FlashAppInfo16get_data_programEv, %function
 1407              	_ZNK3r2p10Bootloader12FlashAppInfo16get_data_programEv:
 1408              	.LFB189:
 1409              		.loc 12 89 0
 1410              		.cfi_startproc
 1411              		@ args = 0, pretend = 0, frame = 8
 1412              		@ frame_needed = 0, uses_anonymous_args = 0
 1413 0000 00B5     		push	{lr}
 1414              		.cfi_def_cfa_offset 4
 1415              		.cfi_offset 14, -4
 1416 0002 83B0     		sub	sp, sp, #12
 1417              		.cfi_def_cfa_offset 16
 1418 0004 0190     		str	r0, [sp, #4]
 1419              		.loc 12 90 0
 1420 0006 019B     		ldr	r3, [sp, #4]
 1421 0008 5A68     		ldr	r2, [r3, #4]
 1422 000a 019B     		ldr	r3, [sp, #4]
 1423 000c DB68     		ldr	r3, [r3, #12]
 1424 000e 0198     		ldr	r0, [sp, #4]
 1425 0010 1146     		mov	r1, r2
ARM GAS  /tmp/cc5OZvFd.s 			page 26


 1426 0012 1A46     		mov	r2, r3
 1427 0014 FFF7FEFF 		bl	_ZN3r2p10Bootloader12FlashAppInfo20compute_data_programEPKS1_jj
 1428 0018 0346     		mov	r3, r0
 1429              		.loc 12 91 0
 1430 001a 1846     		mov	r0, r3
 1431 001c 03B0     		add	sp, sp, #12
 1432              		.cfi_def_cfa_offset 4
 1433              		@ sp needed
 1434 001e 5DF804FB 		ldr	pc, [sp], #4
 1435              		.cfi_endproc
 1436              	.LFE189:
 1437              		.size	_ZNK3r2p10Bootloader12FlashAppInfo16get_data_programEv, .-_ZNK3r2p10Bootloader12FlashAppInfo
 1438 0022 00BF     		.section	.text._ZNK3r2p10Bootloader12FlashAppInfo8get_nextEv,"axG",%progbits,_ZNK3r2p10Bootloader1
 1439              		.align	2
 1440              		.weak	_ZNK3r2p10Bootloader12FlashAppInfo8get_nextEv
 1441              		.thumb
 1442              		.thumb_func
 1443              		.type	_ZNK3r2p10Bootloader12FlashAppInfo8get_nextEv, %function
 1444              	_ZNK3r2p10Bootloader12FlashAppInfo8get_nextEv:
 1445              	.LFB190:
 1446              		.loc 12 93 0
 1447              		.cfi_startproc
 1448              		@ args = 0, pretend = 0, frame = 8
 1449              		@ frame_needed = 0, uses_anonymous_args = 0
 1450 0000 00B5     		push	{lr}
 1451              		.cfi_def_cfa_offset 4
 1452              		.cfi_offset 14, -4
 1453 0002 83B0     		sub	sp, sp, #12
 1454              		.cfi_def_cfa_offset 16
 1455 0004 0190     		str	r0, [sp, #4]
 1456              		.loc 12 94 0
 1457 0006 019B     		ldr	r3, [sp, #4]
 1458 0008 5A68     		ldr	r2, [r3, #4]
 1459 000a 019B     		ldr	r3, [sp, #4]
 1460 000c DB68     		ldr	r3, [r3, #12]
 1461 000e 0198     		ldr	r0, [sp, #4]
 1462 0010 1146     		mov	r1, r2
 1463 0012 1A46     		mov	r2, r3
 1464 0014 FFF7FEFF 		bl	_ZN3r2p10Bootloader12FlashAppInfo12compute_nextEPKS1_jj
 1465 0018 0346     		mov	r3, r0
 1466              		.loc 12 95 0
 1467 001a 1846     		mov	r0, r3
 1468 001c 03B0     		add	sp, sp, #12
 1469              		.cfi_def_cfa_offset 4
 1470              		@ sp needed
 1471 001e 5DF804FB 		ldr	pc, [sp], #4
 1472              		.cfi_endproc
 1473              	.LFE190:
 1474              		.size	_ZNK3r2p10Bootloader12FlashAppInfo8get_nextEv, .-_ZNK3r2p10Bootloader12FlashAppInfo8get_next
 1475 0022 00BF     		.section	.text._ZNK3r2p10Bootloader12FlashAppInfo8is_validEv,"axG",%progbits,_ZNK3r2p10Bootloader1
 1476              		.align	2
 1477              		.weak	_ZNK3r2p10Bootloader12FlashAppInfo8is_validEv
 1478              		.thumb
 1479              		.thumb_func
 1480              		.type	_ZNK3r2p10Bootloader12FlashAppInfo8is_validEv, %function
 1481              	_ZNK3r2p10Bootloader12FlashAppInfo8is_validEv:
 1482              	.LFB191:
ARM GAS  /tmp/cc5OZvFd.s 			page 27


 1483              		.loc 12 97 0
 1484              		.cfi_startproc
 1485              		@ args = 0, pretend = 0, frame = 8
 1486              		@ frame_needed = 0, uses_anonymous_args = 0
 1487 0000 00B5     		push	{lr}
 1488              		.cfi_def_cfa_offset 4
 1489              		.cfi_offset 14, -4
 1490 0002 83B0     		sub	sp, sp, #12
 1491              		.cfi_def_cfa_offset 16
 1492 0004 0190     		str	r0, [sp, #4]
 1493              		.loc 12 98 0
 1494 0006 019B     		ldr	r3, [sp, #4]
 1495 0008 1B68     		ldr	r3, [r3]
 1496 000a 084A     		ldr	r2, .L105
 1497 000c 9342     		cmp	r3, r2
 1498 000e 07D1     		bne	.L102
 1499              		.loc 12 99 0 discriminator 1
 1500 0010 0198     		ldr	r0, [sp, #4]
 1501 0012 FFF7FEFF 		bl	_ZN3r2p7Flasher16is_within_boundsEPKv
 1502 0016 0346     		mov	r3, r0
 1503              		.loc 12 98 0 discriminator 1
 1504 0018 002B     		cmp	r3, #0
 1505 001a 01D0     		beq	.L102
 1506              		.loc 12 98 0 is_stmt 0 discriminator 3
 1507 001c 0123     		movs	r3, #1
 1508 001e 00E0     		b	.L103
 1509              	.L102:
 1510              		.loc 12 98 0 discriminator 4
 1511 0020 0023     		movs	r3, #0
 1512              	.L103:
 1513              		.loc 12 100 0 is_stmt 1
 1514 0022 1846     		mov	r0, r3
 1515 0024 03B0     		add	sp, sp, #12
 1516              		.cfi_def_cfa_offset 4
 1517              		@ sp needed
 1518 0026 5DF804FB 		ldr	pc, [sp], #4
 1519              	.L106:
 1520 002a 00BF     		.align	2
 1521              	.L105:
 1522 002c 695A2C1D 		.word	489445993
 1523              		.cfi_endproc
 1524              	.LFE191:
 1525              		.size	_ZNK3r2p10Bootloader12FlashAppInfo8is_validEv, .-_ZNK3r2p10Bootloader12FlashAppInfo8is_valid
 1526              		.section	.text._ZNK3r2p10Bootloader12FlashAppInfo8has_nameEPKc,"axG",%progbits,_ZNK3r2p10Bootloade
 1527              		.align	2
 1528              		.weak	_ZNK3r2p10Bootloader12FlashAppInfo8has_nameEPKc
 1529              		.thumb
 1530              		.thumb_func
 1531              		.type	_ZNK3r2p10Bootloader12FlashAppInfo8has_nameEPKc, %function
 1532              	_ZNK3r2p10Bootloader12FlashAppInfo8has_nameEPKc:
 1533              	.LFB192:
 1534              		.loc 12 102 0
 1535              		.cfi_startproc
 1536              		@ args = 0, pretend = 0, frame = 8
 1537              		@ frame_needed = 0, uses_anonymous_args = 0
 1538 0000 00B5     		push	{lr}
 1539              		.cfi_def_cfa_offset 4
ARM GAS  /tmp/cc5OZvFd.s 			page 28


 1540              		.cfi_offset 14, -4
 1541 0002 83B0     		sub	sp, sp, #12
 1542              		.cfi_def_cfa_offset 16
 1543 0004 0190     		str	r0, [sp, #4]
 1544 0006 0091     		str	r1, [sp]
 1545              		.loc 12 103 0
 1546 0008 019B     		ldr	r3, [sp, #4]
 1547 000a 3833     		adds	r3, r3, #56
 1548 000c 1846     		mov	r0, r3
 1549 000e 0099     		ldr	r1, [sp]
 1550 0010 0822     		movs	r2, #8
 1551 0012 FFF7FEFF 		bl	strncmp
 1552 0016 0346     		mov	r3, r0
 1553 0018 002B     		cmp	r3, #0
 1554 001a 0CBF     		ite	eq
 1555 001c 0123     		moveq	r3, #1
 1556 001e 0023     		movne	r3, #0
 1557 0020 DBB2     		uxtb	r3, r3
 1558              		.loc 12 104 0
 1559 0022 1846     		mov	r0, r3
 1560 0024 03B0     		add	sp, sp, #12
 1561              		.cfi_def_cfa_offset 4
 1562              		@ sp needed
 1563 0026 5DF804FB 		ldr	pc, [sp], #4
 1564              		.cfi_endproc
 1565              	.LFE192:
 1566              		.size	_ZNK3r2p10Bootloader12FlashAppInfo8has_nameEPKc, .-_ZNK3r2p10Bootloader12FlashAppInfo8has_na
 1567 002a 00BF     		.section	.text._ZN3r2p10Bootloader8IteratorC2ERKS1_,"axG",%progbits,_ZN3r2p10Bootloader8IteratorC5
 1568              		.align	2
 1569              		.weak	_ZN3r2p10Bootloader8IteratorC2ERKS1_
 1570              		.thumb
 1571              		.thumb_func
 1572              		.type	_ZN3r2p10Bootloader8IteratorC2ERKS1_, %function
 1573              	_ZN3r2p10Bootloader8IteratorC2ERKS1_:
 1574              	.LFB194:
 1575              		.loc 12 183 0
 1576              		.cfi_startproc
 1577              		@ args = 0, pretend = 0, frame = 8
 1578              		@ frame_needed = 0, uses_anonymous_args = 0
 1579              		@ link register save eliminated.
 1580 0000 82B0     		sub	sp, sp, #8
 1581              		.cfi_def_cfa_offset 8
 1582 0002 0190     		str	r0, [sp, #4]
 1583 0004 0091     		str	r1, [sp]
 1584              	.LBB23:
 1585              		.loc 12 183 0
 1586 0006 009B     		ldr	r3, [sp]
 1587 0008 1A68     		ldr	r2, [r3]
 1588 000a 019B     		ldr	r3, [sp, #4]
 1589 000c 1A60     		str	r2, [r3]
 1590              	.LBE23:
 1591 000e 019B     		ldr	r3, [sp, #4]
 1592 0010 1846     		mov	r0, r3
 1593 0012 02B0     		add	sp, sp, #8
 1594              		.cfi_def_cfa_offset 0
 1595              		@ sp needed
 1596 0014 7047     		bx	lr
ARM GAS  /tmp/cc5OZvFd.s 			page 29


 1597              		.cfi_endproc
 1598              	.LFE194:
 1599              		.size	_ZN3r2p10Bootloader8IteratorC2ERKS1_, .-_ZN3r2p10Bootloader8IteratorC2ERKS1_
 1600              		.weak	_ZN3r2p10Bootloader8IteratorC1ERKS1_
 1601              		.thumb_set _ZN3r2p10Bootloader8IteratorC1ERKS1_,_ZN3r2p10Bootloader8IteratorC2ERKS1_
 1602 0016 00BF     		.section	.text._ZN3r2p10Bootloader8IteratorC2EPKNS0_12FlashAppInfoE,"axG",%progbits,_ZN3r2p10Bootl
 1603              		.align	2
 1604              		.weak	_ZN3r2p10Bootloader8IteratorC2EPKNS0_12FlashAppInfoE
 1605              		.thumb
 1606              		.thumb_func
 1607              		.type	_ZN3r2p10Bootloader8IteratorC2EPKNS0_12FlashAppInfoE, %function
 1608              	_ZN3r2p10Bootloader8IteratorC2EPKNS0_12FlashAppInfoE:
 1609              	.LFB197:
 1610              		.loc 12 186 0
 1611              		.cfi_startproc
 1612              		@ args = 0, pretend = 0, frame = 8
 1613              		@ frame_needed = 0, uses_anonymous_args = 0
 1614              		@ link register save eliminated.
 1615 0000 82B0     		sub	sp, sp, #8
 1616              		.cfi_def_cfa_offset 8
 1617 0002 0190     		str	r0, [sp, #4]
 1618 0004 0091     		str	r1, [sp]
 1619              	.LBB24:
 1620              		.loc 12 186 0
 1621 0006 019B     		ldr	r3, [sp, #4]
 1622 0008 009A     		ldr	r2, [sp]
 1623 000a 1A60     		str	r2, [r3]
 1624              	.LBE24:
 1625 000c 019B     		ldr	r3, [sp, #4]
 1626 000e 1846     		mov	r0, r3
 1627 0010 02B0     		add	sp, sp, #8
 1628              		.cfi_def_cfa_offset 0
 1629              		@ sp needed
 1630 0012 7047     		bx	lr
 1631              		.cfi_endproc
 1632              	.LFE197:
 1633              		.size	_ZN3r2p10Bootloader8IteratorC2EPKNS0_12FlashAppInfoE, .-_ZN3r2p10Bootloader8IteratorC2EPKNS0
 1634              		.weak	_ZN3r2p10Bootloader8IteratorC1EPKNS0_12FlashAppInfoE
 1635              		.thumb_set _ZN3r2p10Bootloader8IteratorC1EPKNS0_12FlashAppInfoE,_ZN3r2p10Bootloader8IteratorC2EPKN
 1636              		.section	.text._ZNK3r2p10Bootloader8IteratorptEv,"axG",%progbits,_ZNK3r2p10Bootloader8IteratorptEv
 1637              		.align	2
 1638              		.weak	_ZNK3r2p10Bootloader8IteratorptEv
 1639              		.thumb
 1640              		.thumb_func
 1641              		.type	_ZNK3r2p10Bootloader8IteratorptEv, %function
 1642              	_ZNK3r2p10Bootloader8IteratorptEv:
 1643              	.LFB200:
 1644              		.loc 12 195 0
 1645              		.cfi_startproc
 1646              		@ args = 0, pretend = 0, frame = 8
 1647              		@ frame_needed = 0, uses_anonymous_args = 0
 1648              		@ link register save eliminated.
 1649 0000 82B0     		sub	sp, sp, #8
 1650              		.cfi_def_cfa_offset 8
 1651 0002 0190     		str	r0, [sp, #4]
 1652              		.loc 12 196 0
 1653 0004 019B     		ldr	r3, [sp, #4]
ARM GAS  /tmp/cc5OZvFd.s 			page 30


 1654 0006 1B68     		ldr	r3, [r3]
 1655              		.loc 12 197 0
 1656 0008 1846     		mov	r0, r3
 1657 000a 02B0     		add	sp, sp, #8
 1658              		.cfi_def_cfa_offset 0
 1659              		@ sp needed
 1660 000c 7047     		bx	lr
 1661              		.cfi_endproc
 1662              	.LFE200:
 1663              		.size	_ZNK3r2p10Bootloader8IteratorptEv, .-_ZNK3r2p10Bootloader8IteratorptEv
 1664 000e 00BF     		.section	.text._ZNK3r2p10Bootloader8IteratordeEv,"axG",%progbits,_ZNK3r2p10Bootloader8IteratordeEv
 1665              		.align	2
 1666              		.weak	_ZNK3r2p10Bootloader8IteratordeEv
 1667              		.thumb
 1668              		.thumb_func
 1669              		.type	_ZNK3r2p10Bootloader8IteratordeEv, %function
 1670              	_ZNK3r2p10Bootloader8IteratordeEv:
 1671              	.LFB201:
 1672              		.loc 12 199 0
 1673              		.cfi_startproc
 1674              		@ args = 0, pretend = 0, frame = 8
 1675              		@ frame_needed = 0, uses_anonymous_args = 0
 1676              		@ link register save eliminated.
 1677 0000 82B0     		sub	sp, sp, #8
 1678              		.cfi_def_cfa_offset 8
 1679 0002 0190     		str	r0, [sp, #4]
 1680              		.loc 12 200 0
 1681 0004 019B     		ldr	r3, [sp, #4]
 1682 0006 1B68     		ldr	r3, [r3]
 1683              		.loc 12 201 0
 1684 0008 1846     		mov	r0, r3
 1685 000a 02B0     		add	sp, sp, #8
 1686              		.cfi_def_cfa_offset 0
 1687              		@ sp needed
 1688 000c 7047     		bx	lr
 1689              		.cfi_endproc
 1690              	.LFE201:
 1691              		.size	_ZNK3r2p10Bootloader8IteratordeEv, .-_ZNK3r2p10Bootloader8IteratordeEv
 1692 000e 00BF     		.section	.text._ZNK3r2p10Bootloader8IteratorcvPKNS0_12FlashAppInfoEEv,"axG",%progbits,_ZNK3r2p10Bo
 1693              		.align	2
 1694              		.weak	_ZNK3r2p10Bootloader8IteratorcvPKNS0_12FlashAppInfoEEv
 1695              		.thumb
 1696              		.thumb_func
 1697              		.type	_ZNK3r2p10Bootloader8IteratorcvPKNS0_12FlashAppInfoEEv, %function
 1698              	_ZNK3r2p10Bootloader8IteratorcvPKNS0_12FlashAppInfoEEv:
 1699              	.LFB202:
 1700              		.loc 12 203 0
 1701              		.cfi_startproc
 1702              		@ args = 0, pretend = 0, frame = 8
 1703              		@ frame_needed = 0, uses_anonymous_args = 0
 1704              		@ link register save eliminated.
 1705 0000 82B0     		sub	sp, sp, #8
 1706              		.cfi_def_cfa_offset 8
 1707 0002 0190     		str	r0, [sp, #4]
 1708              		.loc 12 204 0
 1709 0004 019B     		ldr	r3, [sp, #4]
 1710 0006 1B68     		ldr	r3, [r3]
ARM GAS  /tmp/cc5OZvFd.s 			page 31


 1711              		.loc 12 205 0
 1712 0008 1846     		mov	r0, r3
 1713 000a 02B0     		add	sp, sp, #8
 1714              		.cfi_def_cfa_offset 0
 1715              		@ sp needed
 1716 000c 7047     		bx	lr
 1717              		.cfi_endproc
 1718              	.LFE202:
 1719              		.size	_ZNK3r2p10Bootloader8IteratorcvPKNS0_12FlashAppInfoEEv, .-_ZNK3r2p10Bootloader8IteratorcvPKN
 1720 000e 00BF     		.section	.text._ZN3r2p10Bootloader8IteratorppEv,"axG",%progbits,_ZN3r2p10Bootloader8IteratorppEv,c
 1721              		.align	2
 1722              		.weak	_ZN3r2p10Bootloader8IteratorppEv
 1723              		.thumb
 1724              		.thumb_func
 1725              		.type	_ZN3r2p10Bootloader8IteratorppEv, %function
 1726              	_ZN3r2p10Bootloader8IteratorppEv:
 1727              	.LFB204:
 1728              		.loc 12 211 0
 1729              		.cfi_startproc
 1730              		@ args = 0, pretend = 0, frame = 8
 1731              		@ frame_needed = 0, uses_anonymous_args = 0
 1732 0000 00B5     		push	{lr}
 1733              		.cfi_def_cfa_offset 4
 1734              		.cfi_offset 14, -4
 1735 0002 83B0     		sub	sp, sp, #12
 1736              		.cfi_def_cfa_offset 16
 1737 0004 0190     		str	r0, [sp, #4]
 1738              		.loc 12 212 0
 1739 0006 019B     		ldr	r3, [sp, #4]
 1740 0008 1B68     		ldr	r3, [r3]
 1741 000a 1846     		mov	r0, r3
 1742 000c FFF7FEFF 		bl	_ZNK3r2p10Bootloader12FlashAppInfo8get_nextEv
 1743 0010 0246     		mov	r2, r0
 1744 0012 019B     		ldr	r3, [sp, #4]
 1745 0014 1A60     		str	r2, [r3]
 1746              		.loc 12 213 0
 1747 0016 019B     		ldr	r3, [sp, #4]
 1748              		.loc 12 214 0
 1749 0018 1846     		mov	r0, r3
 1750 001a 03B0     		add	sp, sp, #12
 1751              		.cfi_def_cfa_offset 4
 1752              		@ sp needed
 1753 001c 5DF804FB 		ldr	pc, [sp], #4
 1754              		.cfi_endproc
 1755              	.LFE204:
 1756              		.size	_ZN3r2p10Bootloader8IteratorppEv, .-_ZN3r2p10Bootloader8IteratorppEv
 1757              		.section	.text._ZNK3r2p10Bootloader8IteratorneERKS1_,"axG",%progbits,_ZNK3r2p10Bootloader8Iterator
 1758              		.align	2
 1759              		.weak	_ZNK3r2p10Bootloader8IteratorneERKS1_
 1760              		.thumb
 1761              		.thumb_func
 1762              		.type	_ZNK3r2p10Bootloader8IteratorneERKS1_, %function
 1763              	_ZNK3r2p10Bootloader8IteratorneERKS1_:
 1764              	.LFB207:
 1765              		.loc 12 226 0
 1766              		.cfi_startproc
 1767              		@ args = 0, pretend = 0, frame = 8
ARM GAS  /tmp/cc5OZvFd.s 			page 32


 1768              		@ frame_needed = 0, uses_anonymous_args = 0
 1769 0000 10B5     		push	{r4, lr}
 1770              		.cfi_def_cfa_offset 8
 1771              		.cfi_offset 4, -8
 1772              		.cfi_offset 14, -4
 1773 0002 82B0     		sub	sp, sp, #8
 1774              		.cfi_def_cfa_offset 16
 1775 0004 0190     		str	r0, [sp, #4]
 1776 0006 0091     		str	r1, [sp]
 1777              		.loc 12 227 0
 1778 0008 019B     		ldr	r3, [sp, #4]
 1779 000a 1B68     		ldr	r3, [r3]
 1780 000c 1846     		mov	r0, r3
 1781 000e FFF7FEFF 		bl	_ZNK3r2p10Bootloader12FlashAppInfo8is_validEv
 1782 0012 0346     		mov	r3, r0
 1783 0014 1C46     		mov	r4, r3
 1784 0016 009B     		ldr	r3, [sp]
 1785 0018 1B68     		ldr	r3, [r3]
 1786 001a 1846     		mov	r0, r3
 1787 001c FFF7FEFF 		bl	_ZNK3r2p10Bootloader12FlashAppInfo8is_validEv
 1788 0020 0346     		mov	r3, r0
 1789 0022 9C42     		cmp	r4, r3
 1790 0024 14BF     		ite	ne
 1791 0026 0123     		movne	r3, #1
 1792 0028 0023     		moveq	r3, #0
 1793 002a DBB2     		uxtb	r3, r3
 1794              		.loc 12 228 0
 1795 002c 1846     		mov	r0, r3
 1796 002e 02B0     		add	sp, sp, #8
 1797              		.cfi_def_cfa_offset 8
 1798              		@ sp needed
 1799 0030 10BD     		pop	{r4, pc}
 1800              		.cfi_endproc
 1801              	.LFE207:
 1802              		.size	_ZNK3r2p10Bootloader8IteratorneERKS1_, .-_ZNK3r2p10Bootloader8IteratorneERKS1_
 1803 0032 00BF     		.section	.text._ZN3r2p10Bootloader5allocENS_7BootMsg8TypeEnumE,"axG",%progbits,_ZN3r2p10Bootloader
 1804              		.align	2
 1805              		.weak	_ZN3r2p10Bootloader5allocENS_7BootMsg8TypeEnumE
 1806              		.thumb
 1807              		.thumb_func
 1808              		.type	_ZN3r2p10Bootloader5allocENS_7BootMsg8TypeEnumE, %function
 1809              	_ZN3r2p10Bootloader5allocENS_7BootMsg8TypeEnumE:
 1810              	.LFB208:
 1811              		.loc 12 235 0
 1812              		.cfi_startproc
 1813              		@ args = 0, pretend = 0, frame = 8
 1814              		@ frame_needed = 0, uses_anonymous_args = 0
 1815 0000 00B5     		push	{lr}
 1816              		.cfi_def_cfa_offset 4
 1817              		.cfi_offset 14, -4
 1818 0002 83B0     		sub	sp, sp, #12
 1819              		.cfi_def_cfa_offset 16
 1820 0004 0190     		str	r0, [sp, #4]
 1821 0006 0B46     		mov	r3, r1
 1822 0008 8DF80330 		strb	r3, [sp, #3]
 1823              		.loc 12 237 0
 1824 000c 0198     		ldr	r0, [sp, #4]
ARM GAS  /tmp/cc5OZvFd.s 			page 33


 1825 000e FFF7FEFF 		bl	_ZN3r2p10Bootloader5allocEv
 1826              		.loc 12 238 0
 1827 0012 019B     		ldr	r3, [sp, #4]
 1828 0014 DB69     		ldr	r3, [r3, #28]
 1829 0016 9DF80320 		ldrb	r2, [sp, #3]
 1830 001a 83F82020 		strb	r2, [r3, #32]
 1831              		.loc 12 239 0
 1832 001e 03B0     		add	sp, sp, #12
 1833              		.cfi_def_cfa_offset 4
 1834              		@ sp needed
 1835 0020 5DF804FB 		ldr	pc, [sp], #4
 1836              		.cfi_endproc
 1837              	.LFE208:
 1838              		.size	_ZN3r2p10Bootloader5allocENS_7BootMsg8TypeEnumE, .-_ZN3r2p10Bootloader5allocENS_7BootMsg8Typ
 1839              		.section	.text._ZN3r2p10Bootloader5fetchENS_7BootMsg8TypeEnumE,"axG",%progbits,_ZN3r2p10Bootloader
 1840              		.align	2
 1841              		.weak	_ZN3r2p10Bootloader5fetchENS_7BootMsg8TypeEnumE
 1842              		.thumb
 1843              		.thumb_func
 1844              		.type	_ZN3r2p10Bootloader5fetchENS_7BootMsg8TypeEnumE, %function
 1845              	_ZN3r2p10Bootloader5fetchENS_7BootMsg8TypeEnumE:
 1846              	.LFB209:
 1847              		.loc 12 243 0
 1848              		.cfi_startproc
 1849              		@ args = 0, pretend = 0, frame = 8
 1850              		@ frame_needed = 0, uses_anonymous_args = 0
 1851 0000 00B5     		push	{lr}
 1852              		.cfi_def_cfa_offset 4
 1853              		.cfi_offset 14, -4
 1854 0002 83B0     		sub	sp, sp, #12
 1855              		.cfi_def_cfa_offset 16
 1856 0004 0190     		str	r0, [sp, #4]
 1857 0006 0B46     		mov	r3, r1
 1858 0008 8DF80330 		strb	r3, [sp, #3]
 1859              		.loc 12 245 0
 1860 000c 0198     		ldr	r0, [sp, #4]
 1861 000e FFF7FEFF 		bl	_ZN3r2p10Bootloader5fetchEv
 1862              		.loc 12 246 0
 1863 0012 019B     		ldr	r3, [sp, #4]
 1864 0014 9B69     		ldr	r3, [r3, #24]
 1865 0016 93F82030 		ldrb	r3, [r3, #32]	@ zero_extendqisi2
 1866 001a 9DF80320 		ldrb	r2, [sp, #3]	@ zero_extendqisi2
 1867 001e 9A42     		cmp	r2, r3
 1868 0020 0CBF     		ite	eq
 1869 0022 0123     		moveq	r3, #1
 1870 0024 0023     		movne	r3, #0
 1871 0026 DBB2     		uxtb	r3, r3
 1872              		.loc 12 247 0
 1873 0028 1846     		mov	r0, r3
 1874 002a 03B0     		add	sp, sp, #12
 1875              		.cfi_def_cfa_offset 4
 1876              		@ sp needed
 1877 002c 5DF804FB 		ldr	pc, [sp], #4
 1878              		.cfi_endproc
 1879              	.LFE209:
 1880              		.size	_ZN3r2p10Bootloader5fetchENS_7BootMsg8TypeEnumE, .-_ZN3r2p10Bootloader5fetchENS_7BootMsg8Typ
 1881              		.section	.text._ZN3r2p10Bootloader11begin_writeEv,"axG",%progbits,_ZN3r2p10Bootloader11begin_write
ARM GAS  /tmp/cc5OZvFd.s 			page 34


 1882              		.align	2
 1883              		.weak	_ZN3r2p10Bootloader11begin_writeEv
 1884              		.thumb
 1885              		.thumb_func
 1886              		.type	_ZN3r2p10Bootloader11begin_writeEv, %function
 1887              	_ZN3r2p10Bootloader11begin_writeEv:
 1888              	.LFB210:
 1889              		.loc 12 251 0
 1890              		.cfi_startproc
 1891              		@ args = 0, pretend = 0, frame = 8
 1892              		@ frame_needed = 0, uses_anonymous_args = 0
 1893 0000 00B5     		push	{lr}
 1894              		.cfi_def_cfa_offset 4
 1895              		.cfi_offset 14, -4
 1896 0002 83B0     		sub	sp, sp, #12
 1897              		.cfi_def_cfa_offset 16
 1898 0004 0190     		str	r0, [sp, #4]
 1899              		.loc 12 253 0
 1900 0006 019B     		ldr	r3, [sp, #4]
 1901 0008 0433     		adds	r3, r3, #4
 1902 000a 1846     		mov	r0, r3
 1903 000c FFF7FEFF 		bl	_ZN3r2p7Flasher5beginEv
 1904              		.loc 12 254 0
 1905 0010 03B0     		add	sp, sp, #12
 1906              		.cfi_def_cfa_offset 4
 1907              		@ sp needed
 1908 0012 5DF804FB 		ldr	pc, [sp], #4
 1909              		.cfi_endproc
 1910              	.LFE210:
 1911              		.size	_ZN3r2p10Bootloader11begin_writeEv, .-_ZN3r2p10Bootloader11begin_writeEv
 1912 0016 00BF     		.section	.rodata
 1913              		.align	2
 1914              	.LC0:
 1915 0000 5232505F 		.ascii	"R2P_ASSERT()\000"
 1915      41535345 
 1915      52542829 
 1915      00
 1916              		.section	.text._ZN3r2p10Bootloader9end_writeEv,"axG",%progbits,_ZN3r2p10Bootloader9end_writeEv,com
 1917              		.align	2
 1918              		.weak	_ZN3r2p10Bootloader9end_writeEv
 1919              		.thumb
 1920              		.thumb_func
 1921              		.type	_ZN3r2p10Bootloader9end_writeEv, %function
 1922              	_ZN3r2p10Bootloader9end_writeEv:
 1923              	.LFB211:
 1924              		.loc 12 258 0
 1925              		.cfi_startproc
 1926              		@ args = 0, pretend = 0, frame = 16
 1927              		@ frame_needed = 0, uses_anonymous_args = 0
 1928 0000 00B5     		push	{lr}
 1929              		.cfi_def_cfa_offset 4
 1930              		.cfi_offset 14, -4
 1931 0002 85B0     		sub	sp, sp, #20
 1932              		.cfi_def_cfa_offset 24
 1933 0004 0190     		str	r0, [sp, #4]
 1934              	.LBB25:
 1935              		.loc 12 261 0
ARM GAS  /tmp/cc5OZvFd.s 			page 35


 1936 0006 019B     		ldr	r3, [sp, #4]
 1937 0008 0433     		adds	r3, r3, #4
 1938 000a 1846     		mov	r0, r3
 1939 000c FFF7FEFF 		bl	_ZN3r2p7Flasher3endEv
 1940 0010 0346     		mov	r3, r0
 1941 0012 8DF80F30 		strb	r3, [sp, #15]
 1942              		.loc 12 262 0
 1943 0016 9DF80F30 		ldrb	r3, [sp, #15]
 1944 001a 83F00103 		eor	r3, r3, #1
 1945 001e DBB2     		uxtb	r3, r3
 1946 0020 002B     		cmp	r3, #0
 1947 0022 02D0     		beq	.L129
 1948              		.loc 12 262 0 is_stmt 0 discriminator 1
 1949 0024 0248     		ldr	r0, .L131
 1950 0026 FFF7FEFF 		bl	chDbgPanic
 1951              	.L129:
 1952              	.LBE25:
 1953              		.loc 12 263 0 is_stmt 1
 1954 002a 05B0     		add	sp, sp, #20
 1955              		.cfi_def_cfa_offset 4
 1956              		@ sp needed
 1957 002c 5DF804FB 		ldr	pc, [sp], #4
 1958              	.L132:
 1959              		.align	2
 1960              	.L131:
 1961 0030 00000000 		.word	.LC0
 1962              		.cfi_endproc
 1963              	.LFE211:
 1964              		.size	_ZN3r2p10Bootloader9end_writeEv, .-_ZN3r2p10Bootloader9end_writeEv
 1965              		.section	.text._ZN3r2p10Bootloader5writeEPKvS2_j,"axG",%progbits,_ZN3r2p10Bootloader5writeEPKvS2_j
 1966              		.align	2
 1967              		.weak	_ZN3r2p10Bootloader5writeEPKvS2_j
 1968              		.thumb
 1969              		.thumb_func
 1970              		.type	_ZN3r2p10Bootloader5writeEPKvS2_j, %function
 1971              	_ZN3r2p10Bootloader5writeEPKvS2_j:
 1972              	.LFB212:
 1973              		.loc 12 267 0
 1974              		.cfi_startproc
 1975              		@ args = 0, pretend = 0, frame = 16
 1976              		@ frame_needed = 0, uses_anonymous_args = 0
 1977 0000 00B5     		push	{lr}
 1978              		.cfi_def_cfa_offset 4
 1979              		.cfi_offset 14, -4
 1980 0002 85B0     		sub	sp, sp, #20
 1981              		.cfi_def_cfa_offset 24
 1982 0004 0390     		str	r0, [sp, #12]
 1983 0006 0291     		str	r1, [sp, #8]
 1984 0008 0192     		str	r2, [sp, #4]
 1985 000a 0093     		str	r3, [sp]
 1986              		.loc 12 270 0
 1987 000c 039B     		ldr	r3, [sp, #12]
 1988 000e 0433     		adds	r3, r3, #4
 1989 0010 1846     		mov	r0, r3
 1990 0012 0299     		ldr	r1, [sp, #8]
 1991 0014 019A     		ldr	r2, [sp, #4]
 1992 0016 009B     		ldr	r3, [sp]
ARM GAS  /tmp/cc5OZvFd.s 			page 36


 1993 0018 FFF7FEFF 		bl	_ZN3r2p7Flasher5flashEPKhS2_j
 1994 001c 0346     		mov	r3, r0
 1995              		.loc 12 271 0
 1996 001e 1846     		mov	r0, r3
 1997 0020 05B0     		add	sp, sp, #20
 1998              		.cfi_def_cfa_offset 4
 1999              		@ sp needed
 2000 0022 5DF804FB 		ldr	pc, [sp], #4
 2001              		.cfi_endproc
 2002              	.LFE212:
 2003              		.size	_ZN3r2p10Bootloader5writeEPKvS2_j, .-_ZN3r2p10Bootloader5writeEPKvS2_j
 2004 0026 00BF     		.section	.text._ZN3r2p10Bootloader5beginEv,"axG",%progbits,_ZN3r2p10Bootloader5beginEv,comdat
 2005              		.align	2
 2006              		.weak	_ZN3r2p10Bootloader5beginEv
 2007              		.thumb
 2008              		.thumb_func
 2009              		.type	_ZN3r2p10Bootloader5beginEv, %function
 2010              	_ZN3r2p10Bootloader5beginEv:
 2011              	.LFB213:
 2012              		.loc 12 275 0
 2013              		.cfi_startproc
 2014              		@ args = 0, pretend = 0, frame = 8
 2015              		@ frame_needed = 0, uses_anonymous_args = 0
 2016 0000 00B5     		push	{lr}
 2017              		.cfi_def_cfa_offset 4
 2018              		.cfi_offset 14, -4
 2019 0002 83B0     		sub	sp, sp, #12
 2020              		.cfi_def_cfa_offset 16
 2021 0004 0190     		str	r0, [sp, #4]
 2022              		.loc 12 278 0
 2023 0006 FFF7FEFF 		bl	_ZN3r2p7Flasher17get_program_startEv
 2024 000a 0346     		mov	r3, r0
 2025              		.loc 12 279 0
 2026 000c 0198     		ldr	r0, [sp, #4]
 2027 000e 1946     		mov	r1, r3
 2028 0010 FFF7FEFF 		bl	_ZN3r2p10Bootloader8IteratorC1EPKNS0_12FlashAppInfoE
 2029              		.loc 12 280 0
 2030 0014 0198     		ldr	r0, [sp, #4]
 2031 0016 03B0     		add	sp, sp, #12
 2032              		.cfi_def_cfa_offset 4
 2033              		@ sp needed
 2034 0018 5DF804FB 		ldr	pc, [sp], #4
 2035              		.cfi_endproc
 2036              	.LFE213:
 2037              		.size	_ZN3r2p10Bootloader5beginEv, .-_ZN3r2p10Bootloader5beginEv
 2038              		.section	.text._ZN3r2p10Bootloader3endEv,"axG",%progbits,_ZN3r2p10Bootloader3endEv,comdat
 2039              		.align	2
 2040              		.weak	_ZN3r2p10Bootloader3endEv
 2041              		.thumb
 2042              		.thumb_func
 2043              		.type	_ZN3r2p10Bootloader3endEv, %function
 2044              	_ZN3r2p10Bootloader3endEv:
 2045              	.LFB214:
 2046              		.loc 12 284 0
 2047              		.cfi_startproc
 2048              		@ args = 0, pretend = 0, frame = 8
 2049              		@ frame_needed = 0, uses_anonymous_args = 0
ARM GAS  /tmp/cc5OZvFd.s 			page 37


 2050 0000 00B5     		push	{lr}
 2051              		.cfi_def_cfa_offset 4
 2052              		.cfi_offset 14, -4
 2053 0002 83B0     		sub	sp, sp, #12
 2054              		.cfi_def_cfa_offset 16
 2055 0004 0190     		str	r0, [sp, #4]
 2056              		.loc 12 288 0
 2057 0006 0198     		ldr	r0, [sp, #4]
 2058 0008 0349     		ldr	r1, .L139
 2059 000a FFF7FEFF 		bl	_ZN3r2p10Bootloader8IteratorC1EPKNS0_12FlashAppInfoE
 2060              		.loc 12 289 0
 2061 000e 0198     		ldr	r0, [sp, #4]
 2062 0010 03B0     		add	sp, sp, #12
 2063              		.cfi_def_cfa_offset 4
 2064              		@ sp needed
 2065 0012 5DF804FB 		ldr	pc, [sp], #4
 2066              	.L140:
 2067 0016 00BF     		.align	2
 2068              	.L139:
 2069 0018 00000000 		.word	_ZN3r2p10Bootloader20an_invalid_signatureE
 2070              		.cfi_endproc
 2071              	.LFE214:
 2072              		.size	_ZN3r2p10Bootloader3endEv, .-_ZN3r2p10Bootloader3endEv
 2073              		.section	.text._ZN3r2p10Bootloader16get_free_addressEv,"axG",%progbits,_ZN3r2p10Bootloader16get_fr
 2074              		.align	2
 2075              		.weak	_ZN3r2p10Bootloader16get_free_addressEv
 2076              		.thumb
 2077              		.thumb_func
 2078              		.type	_ZN3r2p10Bootloader16get_free_addressEv, %function
 2079              	_ZN3r2p10Bootloader16get_free_addressEv:
 2080              	.LFB215:
 2081              		.loc 12 293 0
 2082              		.cfi_startproc
 2083              		@ args = 0, pretend = 0, frame = 0
 2084              		@ frame_needed = 0, uses_anonymous_args = 0
 2085 0000 08B5     		push	{r3, lr}
 2086              		.cfi_def_cfa_offset 8
 2087              		.cfi_offset 3, -8
 2088              		.cfi_offset 14, -4
 2089              		.loc 12 295 0
 2090 0002 FFF7FEFF 		bl	_ZN3r2p10Bootloader12get_free_appEv
 2091 0006 0346     		mov	r3, r0
 2092              		.loc 12 296 0
 2093 0008 1846     		mov	r0, r3
 2094 000a 08BD     		pop	{r3, pc}
 2095              		.cfi_endproc
 2096              	.LFE215:
 2097              		.size	_ZN3r2p10Bootloader16get_free_addressEv, .-_ZN3r2p10Bootloader16get_free_addressEv
 2098              		.section	.text._ZN3r2p5Topic12alloc_unsafeEv,"axG",%progbits,_ZN3r2p5Topic12alloc_unsafeEv,comdat
 2099              		.align	2
 2100              		.weak	_ZN3r2p5Topic12alloc_unsafeEv
 2101              		.thumb
 2102              		.thumb_func
 2103              		.type	_ZN3r2p5Topic12alloc_unsafeEv, %function
 2104              	_ZN3r2p5Topic12alloc_unsafeEv:
 2105              	.LFB373:
 2106              		.file 13 "/opt/R2P/core/Middleware/include/r2p/Topic.hpp"
ARM GAS  /tmp/cc5OZvFd.s 			page 38


 2107              		.loc 13 250 0
 2108              		.cfi_startproc
 2109              		@ args = 0, pretend = 0, frame = 8
 2110              		@ frame_needed = 0, uses_anonymous_args = 0
 2111 0000 10B5     		push	{r4, lr}
 2112              		.cfi_def_cfa_offset 8
 2113              		.cfi_offset 4, -8
 2114              		.cfi_offset 14, -4
 2115 0002 82B0     		sub	sp, sp, #8
 2116              		.cfi_def_cfa_offset 16
 2117 0004 0190     		str	r0, [sp, #4]
 2118              	.LBB26:
 2119              		.loc 13 252 0
 2120 0006 019B     		ldr	r3, [sp, #4]
 2121 0008 0833     		adds	r3, r3, #8
 2122 000a 1846     		mov	r0, r3
 2123 000c FFF7FEFF 		bl	_ZN3r2p11MemoryPool_12alloc_unsafeEv
 2124 0010 0446     		mov	r4, r0
 2125              		.loc 13 253 0
 2126 0012 002C     		cmp	r4, #0
 2127 0014 04D0     		beq	.L144
 2128              		.loc 13 254 0
 2129 0016 2046     		mov	r0, r4
 2130 0018 FFF7FEFF 		bl	_ZN3r2p7Message12reset_unsafeEv
 2131              		.loc 13 255 0
 2132 001c 2346     		mov	r3, r4
 2133 001e 00E0     		b	.L145
 2134              	.L144:
 2135              		.loc 13 257 0
 2136 0020 0023     		movs	r3, #0
 2137              	.L145:
 2138              	.LBE26:
 2139              		.loc 13 258 0
 2140 0022 1846     		mov	r0, r3
 2141 0024 02B0     		add	sp, sp, #8
 2142              		.cfi_def_cfa_offset 8
 2143              		@ sp needed
 2144 0026 10BD     		pop	{r4, pc}
 2145              		.cfi_endproc
 2146              	.LFE373:
 2147              		.size	_ZN3r2p5Topic12alloc_unsafeEv, .-_ZN3r2p5Topic12alloc_unsafeEv
 2148              		.section	.text._ZN3r2p13BasePublisher12alloc_unsafeERPNS_7MessageE,"axG",%progbits,_ZN3r2p13BasePu
 2149              		.align	2
 2150              		.weak	_ZN3r2p13BasePublisher12alloc_unsafeERPNS_7MessageE
 2151              		.thumb
 2152              		.thumb_func
 2153              		.type	_ZN3r2p13BasePublisher12alloc_unsafeERPNS_7MessageE, %function
 2154              	_ZN3r2p13BasePublisher12alloc_unsafeERPNS_7MessageE:
 2155              	.LFB398:
 2156              		.file 14 "/opt/R2P/core/Middleware/include/r2p/BasePublisher.hpp"
 2157              		.loc 14 64 0
 2158              		.cfi_startproc
 2159              		@ args = 0, pretend = 0, frame = 8
 2160              		@ frame_needed = 0, uses_anonymous_args = 0
 2161 0000 00B5     		push	{lr}
 2162              		.cfi_def_cfa_offset 4
 2163              		.cfi_offset 14, -4
ARM GAS  /tmp/cc5OZvFd.s 			page 39


 2164 0002 83B0     		sub	sp, sp, #12
 2165              		.cfi_def_cfa_offset 16
 2166 0004 0190     		str	r0, [sp, #4]
 2167 0006 0091     		str	r1, [sp]
 2168              		.loc 14 66 0
 2169 0008 019B     		ldr	r3, [sp, #4]
 2170 000a 5B68     		ldr	r3, [r3, #4]
 2171 000c 002B     		cmp	r3, #0
 2172 000e 02D1     		bne	.L147
 2173              		.loc 14 66 0 is_stmt 0 discriminator 1
 2174 0010 0A48     		ldr	r0, .L149
 2175 0012 FFF7FEFF 		bl	chDbgPanic
 2176              	.L147:
 2177              		.loc 14 68 0 is_stmt 1
 2178 0016 019B     		ldr	r3, [sp, #4]
 2179 0018 5B68     		ldr	r3, [r3, #4]
 2180 001a 1846     		mov	r0, r3
 2181 001c FFF7FEFF 		bl	_ZN3r2p5Topic12alloc_unsafeEv
 2182 0020 0246     		mov	r2, r0
 2183 0022 009B     		ldr	r3, [sp]
 2184 0024 1A60     		str	r2, [r3]
 2185              		.loc 14 69 0
 2186 0026 009B     		ldr	r3, [sp]
 2187 0028 1B68     		ldr	r3, [r3]
 2188 002a 002B     		cmp	r3, #0
 2189 002c 14BF     		ite	ne
 2190 002e 0123     		movne	r3, #1
 2191 0030 0023     		moveq	r3, #0
 2192 0032 DBB2     		uxtb	r3, r3
 2193              		.loc 14 70 0
 2194 0034 1846     		mov	r0, r3
 2195 0036 03B0     		add	sp, sp, #12
 2196              		.cfi_def_cfa_offset 4
 2197              		@ sp needed
 2198 0038 5DF804FB 		ldr	pc, [sp], #4
 2199              	.L150:
 2200              		.align	2
 2201              	.L149:
 2202 003c 00000000 		.word	.LC0
 2203              		.cfi_endproc
 2204              	.LFE398:
 2205              		.size	_ZN3r2p13BasePublisher12alloc_unsafeERPNS_7MessageE, .-_ZN3r2p13BasePublisher12alloc_unsafeE
 2206              		.section	.text._ZN3r2p13BasePublisher5allocERPNS_7MessageE,"axG",%progbits,_ZN3r2p13BasePublisher5
 2207              		.align	2
 2208              		.weak	_ZN3r2p13BasePublisher5allocERPNS_7MessageE
 2209              		.thumb
 2210              		.thumb_func
 2211              		.type	_ZN3r2p13BasePublisher5allocERPNS_7MessageE, %function
 2212              	_ZN3r2p13BasePublisher5allocERPNS_7MessageE:
 2213              	.LFB399:
 2214              		.loc 14 74 0
 2215              		.cfi_startproc
 2216              		@ args = 0, pretend = 0, frame = 16
 2217              		@ frame_needed = 0, uses_anonymous_args = 0
 2218 0000 00B5     		push	{lr}
 2219              		.cfi_def_cfa_offset 4
 2220              		.cfi_offset 14, -4
ARM GAS  /tmp/cc5OZvFd.s 			page 40


 2221 0002 85B0     		sub	sp, sp, #20
 2222              		.cfi_def_cfa_offset 24
 2223 0004 0190     		str	r0, [sp, #4]
 2224 0006 0091     		str	r1, [sp]
 2225              	.LBB27:
 2226              		.loc 14 76 0
 2227 0008 FFF7FEFF 		bl	_ZN3r2p7SysLock7acquireEv
 2228              		.loc 14 77 0
 2229 000c 0198     		ldr	r0, [sp, #4]
 2230 000e 0099     		ldr	r1, [sp]
 2231 0010 FFF7FEFF 		bl	_ZN3r2p13BasePublisher12alloc_unsafeERPNS_7MessageE
 2232 0014 0346     		mov	r3, r0
 2233 0016 8DF80F30 		strb	r3, [sp, #15]
 2234              		.loc 14 78 0
 2235 001a FFF7FEFF 		bl	_ZN3r2p7SysLock7releaseEv
 2236              		.loc 14 79 0
 2237 001e 9DF80F30 		ldrb	r3, [sp, #15]	@ zero_extendqisi2
 2238              	.LBE27:
 2239              		.loc 14 80 0
 2240 0022 1846     		mov	r0, r3
 2241 0024 05B0     		add	sp, sp, #20
 2242              		.cfi_def_cfa_offset 4
 2243              		@ sp needed
 2244 0026 5DF804FB 		ldr	pc, [sp], #4
 2245              		.cfi_endproc
 2246              	.LFE399:
 2247              		.size	_ZN3r2p13BasePublisher5allocERPNS_7MessageE, .-_ZN3r2p13BasePublisher5allocERPNS_7MessageE
 2248 002a 00BF     		.section	.text._ZN3r2p13BasePublisher16publish_remotelyERNS_7MessageE,"axG",%progbits,_ZN3r2p13Bas
 2249              		.align	2
 2250              		.weak	_ZN3r2p13BasePublisher16publish_remotelyERNS_7MessageE
 2251              		.thumb
 2252              		.thumb_func
 2253              		.type	_ZN3r2p13BasePublisher16publish_remotelyERNS_7MessageE, %function
 2254              	_ZN3r2p13BasePublisher16publish_remotelyERNS_7MessageE:
 2255              	.LFB401:
 2256              		.loc 14 93 0
 2257              		.cfi_startproc
 2258              		@ args = 0, pretend = 0, frame = 16
 2259              		@ frame_needed = 0, uses_anonymous_args = 0
 2260 0000 10B5     		push	{r4, lr}
 2261              		.cfi_def_cfa_offset 8
 2262              		.cfi_offset 4, -8
 2263              		.cfi_offset 14, -4
 2264 0002 84B0     		sub	sp, sp, #16
 2265              		.cfi_def_cfa_offset 24
 2266 0004 0190     		str	r0, [sp, #4]
 2267 0006 0091     		str	r1, [sp]
 2268              		.loc 14 95 0
 2269 0008 019B     		ldr	r3, [sp, #4]
 2270 000a 5B68     		ldr	r3, [r3, #4]
 2271 000c 002B     		cmp	r3, #0
 2272 000e 02D1     		bne	.L154
 2273              		.loc 14 95 0 is_stmt 0 discriminator 1
 2274 0010 0948     		ldr	r0, .L156
 2275 0012 FFF7FEFF 		bl	chDbgPanic
 2276              	.L154:
 2277              		.loc 14 97 0 is_stmt 1
ARM GAS  /tmp/cc5OZvFd.s 			page 41


 2278 0016 019B     		ldr	r3, [sp, #4]
 2279 0018 5C68     		ldr	r4, [r3, #4]
 2280 001a 03AB     		add	r3, sp, #12
 2281 001c 1846     		mov	r0, r3
 2282 001e FFF7FEFF 		bl	_ZN3r2p4Time3nowEv
 2283 0022 03AB     		add	r3, sp, #12
 2284 0024 2046     		mov	r0, r4
 2285 0026 0099     		ldr	r1, [sp]
 2286 0028 1A46     		mov	r2, r3
 2287 002a FFF7FEFF 		bl	_ZN3r2p5Topic14notify_remotesERNS_7MessageERKNS_4TimeE
 2288 002e 0346     		mov	r3, r0
 2289              		.loc 14 98 0
 2290 0030 1846     		mov	r0, r3
 2291 0032 04B0     		add	sp, sp, #16
 2292              		.cfi_def_cfa_offset 8
 2293              		@ sp needed
 2294 0034 10BD     		pop	{r4, pc}
 2295              	.L157:
 2296 0036 00BF     		.align	2
 2297              	.L156:
 2298 0038 00000000 		.word	.LC0
 2299              		.cfi_endproc
 2300              	.LFE401:
 2301              		.size	_ZN3r2p13BasePublisher16publish_remotelyERNS_7MessageE, .-_ZN3r2p13BasePublisher16publish_re
 2302              		.global	_ZN3r2p10Bootloader20an_invalid_signatureE
 2303              		.section	.rodata
 2304 000d 000000   		.align	2
 2305              		.type	_ZN3r2p10Bootloader20an_invalid_signatureE, %object
 2306              		.size	_ZN3r2p10Bootloader20an_invalid_signatureE, 4
 2307              	_ZN3r2p10Bootloader20an_invalid_signatureE:
 2308 0010 96A5D3E2 		.word	-489445994
 2309              		.align	2
 2310              	.LC1:
 2311 0014 00       		.ascii	"\000"
 2312 0015 000000   		.text
 2313              		.align	2
 2314              		.global	_ZN3r2p10Bootloader9spin_loopEv
 2315              		.thumb
 2316              		.thumb_func
 2317              		.type	_ZN3r2p10Bootloader9spin_loopEv, %function
 2318              	_ZN3r2p10Bootloader9spin_loopEv:
 2319              	.LFB408:
 2320              		.file 15 "/opt/R2P/core/Middleware/src/Bootloader.cpp"
 2321              		.loc 15 15 0
 2322              		.cfi_startproc
 2323              		@ args = 0, pretend = 0, frame = 8
 2324              		@ frame_needed = 0, uses_anonymous_args = 0
 2325 0000 00B5     		push	{lr}
 2326              		.cfi_def_cfa_offset 4
 2327              		.cfi_offset 14, -4
 2328 0002 83B0     		sub	sp, sp, #12
 2329              		.cfi_def_cfa_offset 16
 2330 0004 0190     		str	r0, [sp, #4]
 2331              	.L166:
 2332              		.loc 15 18 0
 2333 0006 0198     		ldr	r0, [sp, #4]
 2334 0008 FFF7FEFF 		bl	_ZN3r2p10Bootloader5fetchEv
ARM GAS  /tmp/cc5OZvFd.s 			page 42


 2335              		.loc 15 19 0
 2336 000c 019B     		ldr	r3, [sp, #4]
 2337 000e 9B69     		ldr	r3, [r3, #24]
 2338 0010 93F82030 		ldrb	r3, [r3, #32]	@ zero_extendqisi2
 2339 0014 023B     		subs	r3, r3, #2
 2340 0016 0D2B     		cmp	r3, #13
 2341 0018 46D8     		bhi	.L159
 2342 001a 01A2     		adr	r2, .L161
 2343 001c 52F823F0 		ldr	pc, [r2, r3, lsl #2]
 2344              		.p2align 2
 2345              	.L161:
 2346 0020 59000000 		.word	.L160+1
 2347 0024 A9000000 		.word	.L159+1
 2348 0028 A9000000 		.word	.L159+1
 2349 002c A9000000 		.word	.L159+1
 2350 0030 A9000000 		.word	.L159+1
 2351 0034 A9000000 		.word	.L159+1
 2352 0038 A9000000 		.word	.L159+1
 2353 003c A9000000 		.word	.L159+1
 2354 0040 73000000 		.word	.L162+1
 2355 0044 A9000000 		.word	.L159+1
 2356 0048 A9000000 		.word	.L159+1
 2357 004c 8F000000 		.word	.L163+1
 2358 0050 A9000000 		.word	.L159+1
 2359 0054 81000000 		.word	.L164+1
 2360              		.p2align 1
 2361              	.L160:
 2362              		.loc 15 21 0
 2363 0058 0198     		ldr	r0, [sp, #4]
 2364 005a FFF7FEFF 		bl	_ZN3r2p10Bootloader7releaseEv
 2365              		.loc 15 22 0
 2366 005e 0198     		ldr	r0, [sp, #4]
 2367 0060 FFF7FEFF 		bl	_ZN3r2p10Bootloader11begin_writeEv
 2368              		.loc 15 23 0
 2369 0064 0198     		ldr	r0, [sp, #4]
 2370 0066 FFF7FEFF 		bl	_ZN3r2p10Bootloader9do_loaderEv
 2371              		.loc 15 24 0
 2372 006a 0198     		ldr	r0, [sp, #4]
 2373 006c FFF7FEFF 		bl	_ZN3r2p10Bootloader9end_writeEv
 2374              		.loc 15 25 0
 2375 0070 20E0     		b	.L165
 2376              	.L162:
 2377              		.loc 15 28 0
 2378 0072 0198     		ldr	r0, [sp, #4]
 2379 0074 FFF7FEFF 		bl	_ZN3r2p10Bootloader7releaseEv
 2380              		.loc 15 29 0
 2381 0078 0198     		ldr	r0, [sp, #4]
 2382 007a FFF7FEFF 		bl	_ZN3r2p10Bootloader10do_appinfoEv
 2383              		.loc 15 30 0
 2384 007e 19E0     		b	.L165
 2385              	.L164:
 2386              		.loc 15 33 0
 2387 0080 0198     		ldr	r0, [sp, #4]
 2388 0082 FFF7FEFF 		bl	_ZN3r2p10Bootloader7releaseEv
 2389              		.loc 15 34 0
 2390 0086 0198     		ldr	r0, [sp, #4]
 2391 0088 FFF7FEFF 		bl	_ZN3r2p10Bootloader11do_getparamEv
ARM GAS  /tmp/cc5OZvFd.s 			page 43


 2392              		.loc 15 35 0
 2393 008c 12E0     		b	.L165
 2394              	.L163:
 2395              		.loc 15 38 0
 2396 008e 0198     		ldr	r0, [sp, #4]
 2397 0090 FFF7FEFF 		bl	_ZN3r2p10Bootloader7releaseEv
 2398              		.loc 15 39 0
 2399 0094 0198     		ldr	r0, [sp, #4]
 2400 0096 FFF7FEFF 		bl	_ZN3r2p10Bootloader11begin_writeEv
 2401              		.loc 15 40 0
 2402 009a 0198     		ldr	r0, [sp, #4]
 2403 009c FFF7FEFF 		bl	_ZN3r2p10Bootloader11do_setparamEv
 2404              		.loc 15 41 0
 2405 00a0 0198     		ldr	r0, [sp, #4]
 2406 00a2 FFF7FEFF 		bl	_ZN3r2p10Bootloader9end_writeEv
 2407              		.loc 15 42 0
 2408 00a6 05E0     		b	.L165
 2409              	.L159:
 2410              		.loc 15 45 0
 2411 00a8 0198     		ldr	r0, [sp, #4]
 2412 00aa 2D21     		movs	r1, #45
 2413 00ac 024A     		ldr	r2, .L167
 2414 00ae FFF7FEFF 		bl	_ZN3r2p10Bootloader16do_release_errorEmPKc
 2415              		.loc 15 46 0
 2416 00b2 00BF     		nop
 2417              	.L165:
 2418              		.loc 15 15 0
 2419 00b4 A7E7     		b	.L166
 2420              	.L168:
 2421 00b6 00BF     		.align	2
 2422              	.L167:
 2423 00b8 14000000 		.word	.LC1
 2424              		.cfi_endproc
 2425              	.LFE408:
 2426              		.size	_ZN3r2p10Bootloader9spin_loopEv, .-_ZN3r2p10Bootloader9spin_loopEv
 2427              		.align	2
 2428              		.global	_ZN3r2p10Bootloader5allocEv
 2429              		.thumb
 2430              		.thumb_func
 2431              		.type	_ZN3r2p10Bootloader5allocEv, %function
 2432              	_ZN3r2p10Bootloader5allocEv:
 2433              	.LFB409:
 2434              		.loc 15 53 0
 2435              		.cfi_startproc
 2436              		@ args = 0, pretend = 0, frame = 16
 2437              		@ frame_needed = 0, uses_anonymous_args = 0
 2438 00bc 00B5     		push	{lr}
 2439              		.cfi_def_cfa_offset 4
 2440              		.cfi_offset 14, -4
 2441 00be 85B0     		sub	sp, sp, #20
 2442              		.cfi_def_cfa_offset 24
 2443 00c0 0190     		str	r0, [sp, #4]
 2444              		.loc 15 55 0
 2445 00c2 019B     		ldr	r3, [sp, #4]
 2446 00c4 1B69     		ldr	r3, [r3, #16]
 2447 00c6 002B     		cmp	r3, #0
 2448 00c8 02D1     		bne	.L170
ARM GAS  /tmp/cc5OZvFd.s 			page 44


 2449              		.loc 15 55 0 is_stmt 0 discriminator 1
 2450 00ca 1548     		ldr	r0, .L174
 2451 00cc FFF7FEFF 		bl	chDbgPanic
 2452              	.L170:
 2453              		.loc 15 56 0 is_stmt 1
 2454 00d0 019B     		ldr	r3, [sp, #4]
 2455 00d2 DB69     		ldr	r3, [r3, #28]
 2456 00d4 002B     		cmp	r3, #0
 2457 00d6 02D0     		beq	.L171
 2458              		.loc 15 56 0 is_stmt 0 discriminator 1
 2459 00d8 1148     		ldr	r0, .L174
 2460 00da FFF7FEFF 		bl	chDbgPanic
 2461              	.L171:
 2462              		.loc 15 58 0 is_stmt 1
 2463 00de 08E0     		b	.L172
 2464              	.L173:
 2465              		.loc 15 59 0
 2466 00e0 03AB     		add	r3, sp, #12
 2467 00e2 1846     		mov	r0, r3
 2468 00e4 0A21     		movs	r1, #10
 2469 00e6 FFF7FEFF 		bl	_ZN3r2p4Time2msEl
 2470 00ea 03AB     		add	r3, sp, #12
 2471 00ec 1846     		mov	r0, r3
 2472 00ee FFF7FEFF 		bl	_ZN3r2p6Thread5sleepERKNS_4TimeE
 2473              	.L172:
 2474              		.loc 15 58 0
 2475 00f2 019B     		ldr	r3, [sp, #4]
 2476 00f4 1A69     		ldr	r2, [r3, #16]
 2477 00f6 019B     		ldr	r3, [sp, #4]
 2478 00f8 1C33     		adds	r3, r3, #28
 2479 00fa 1046     		mov	r0, r2
 2480 00fc 1946     		mov	r1, r3
 2481 00fe FFF7FEFF 		bl	_ZN3r2p9PublisherINS_7BootMsgEE5allocERPS1_
 2482 0102 0346     		mov	r3, r0
 2483 0104 83F00103 		eor	r3, r3, #1
 2484 0108 DBB2     		uxtb	r3, r3
 2485 010a 002B     		cmp	r3, #0
 2486 010c E8D1     		bne	.L173
 2487              		.loc 15 61 0
 2488 010e 019B     		ldr	r3, [sp, #4]
 2489 0110 DB69     		ldr	r3, [r3, #28]
 2490 0112 1846     		mov	r0, r3
 2491 0114 FFF7FEFF 		bl	_ZN3r2p7Message13reset_payloadINS_7BootMsgEEEvRT_
 2492              		.loc 15 62 0
 2493 0118 05B0     		add	sp, sp, #20
 2494              		.cfi_def_cfa_offset 4
 2495              		@ sp needed
 2496 011a 5DF804FB 		ldr	pc, [sp], #4
 2497              	.L175:
 2498 011e 00BF     		.align	2
 2499              	.L174:
 2500 0120 00000000 		.word	.LC0
 2501              		.cfi_endproc
 2502              	.LFE409:
 2503              		.size	_ZN3r2p10Bootloader5allocEv, .-_ZN3r2p10Bootloader5allocEv
 2504              		.align	2
 2505              		.global	_ZN3r2p10Bootloader7publishEv
ARM GAS  /tmp/cc5OZvFd.s 			page 45


 2506              		.thumb
 2507              		.thumb_func
 2508              		.type	_ZN3r2p10Bootloader7publishEv, %function
 2509              	_ZN3r2p10Bootloader7publishEv:
 2510              	.LFB410:
 2511              		.loc 15 65 0
 2512              		.cfi_startproc
 2513              		@ args = 0, pretend = 0, frame = 16
 2514              		@ frame_needed = 0, uses_anonymous_args = 0
 2515 0124 00B5     		push	{lr}
 2516              		.cfi_def_cfa_offset 4
 2517              		.cfi_offset 14, -4
 2518 0126 85B0     		sub	sp, sp, #20
 2519              		.cfi_def_cfa_offset 24
 2520 0128 0190     		str	r0, [sp, #4]
 2521              		.loc 15 67 0
 2522 012a 019B     		ldr	r3, [sp, #4]
 2523 012c 1B69     		ldr	r3, [r3, #16]
 2524 012e 002B     		cmp	r3, #0
 2525 0130 02D1     		bne	.L177
 2526              		.loc 15 67 0 is_stmt 0 discriminator 1
 2527 0132 1448     		ldr	r0, .L181
 2528 0134 FFF7FEFF 		bl	chDbgPanic
 2529              	.L177:
 2530              		.loc 15 68 0 is_stmt 1
 2531 0138 019B     		ldr	r3, [sp, #4]
 2532 013a DB69     		ldr	r3, [r3, #28]
 2533 013c 002B     		cmp	r3, #0
 2534 013e 02D1     		bne	.L178
 2535              		.loc 15 68 0 is_stmt 0 discriminator 1
 2536 0140 1048     		ldr	r0, .L181
 2537 0142 FFF7FEFF 		bl	chDbgPanic
 2538              	.L178:
 2539              		.loc 15 70 0 is_stmt 1
 2540 0146 08E0     		b	.L179
 2541              	.L180:
 2542              		.loc 15 71 0
 2543 0148 03AB     		add	r3, sp, #12
 2544 014a 1846     		mov	r0, r3
 2545 014c 0A21     		movs	r1, #10
 2546 014e FFF7FEFF 		bl	_ZN3r2p4Time2msEl
 2547 0152 03AB     		add	r3, sp, #12
 2548 0154 1846     		mov	r0, r3
 2549 0156 FFF7FEFF 		bl	_ZN3r2p6Thread5sleepERKNS_4TimeE
 2550              	.L179:
 2551              		.loc 15 70 0
 2552 015a 019B     		ldr	r3, [sp, #4]
 2553 015c 1B69     		ldr	r3, [r3, #16]
 2554 015e 1A46     		mov	r2, r3
 2555 0160 019B     		ldr	r3, [sp, #4]
 2556 0162 DB69     		ldr	r3, [r3, #28]
 2557 0164 1046     		mov	r0, r2
 2558 0166 1946     		mov	r1, r3
 2559 0168 FFF7FEFF 		bl	_ZN3r2p13BasePublisher16publish_remotelyERNS_7MessageE
 2560 016c 0346     		mov	r3, r0
 2561 016e 83F00103 		eor	r3, r3, #1
 2562 0172 DBB2     		uxtb	r3, r3
ARM GAS  /tmp/cc5OZvFd.s 			page 46


 2563 0174 002B     		cmp	r3, #0
 2564 0176 E7D1     		bne	.L180
 2565              		.loc 15 73 0
 2566 0178 019B     		ldr	r3, [sp, #4]
 2567 017a 0022     		movs	r2, #0
 2568 017c DA61     		str	r2, [r3, #28]
 2569              		.loc 15 74 0
 2570 017e 05B0     		add	sp, sp, #20
 2571              		.cfi_def_cfa_offset 4
 2572              		@ sp needed
 2573 0180 5DF804FB 		ldr	pc, [sp], #4
 2574              	.L182:
 2575              		.align	2
 2576              	.L181:
 2577 0184 00000000 		.word	.LC0
 2578              		.cfi_endproc
 2579              	.LFE410:
 2580              		.size	_ZN3r2p10Bootloader7publishEv, .-_ZN3r2p10Bootloader7publishEv
 2581              		.align	2
 2582              		.global	_ZN3r2p10Bootloader5fetchEv
 2583              		.thumb
 2584              		.thumb_func
 2585              		.type	_ZN3r2p10Bootloader5fetchEv, %function
 2586              	_ZN3r2p10Bootloader5fetchEv:
 2587              	.LFB411:
 2588              		.loc 15 77 0
 2589              		.cfi_startproc
 2590              		@ args = 0, pretend = 0, frame = 16
 2591              		@ frame_needed = 0, uses_anonymous_args = 0
 2592 0188 00B5     		push	{lr}
 2593              		.cfi_def_cfa_offset 4
 2594              		.cfi_offset 14, -4
 2595 018a 85B0     		sub	sp, sp, #20
 2596              		.cfi_def_cfa_offset 24
 2597 018c 0190     		str	r0, [sp, #4]
 2598              		.loc 15 79 0
 2599 018e 019B     		ldr	r3, [sp, #4]
 2600 0190 5B69     		ldr	r3, [r3, #20]
 2601 0192 002B     		cmp	r3, #0
 2602 0194 02D1     		bne	.L184
 2603              		.loc 15 79 0 is_stmt 0 discriminator 1
 2604 0196 1248     		ldr	r0, .L188
 2605 0198 FFF7FEFF 		bl	chDbgPanic
 2606              	.L184:
 2607              		.loc 15 80 0 is_stmt 1
 2608 019c 019B     		ldr	r3, [sp, #4]
 2609 019e 9B69     		ldr	r3, [r3, #24]
 2610 01a0 002B     		cmp	r3, #0
 2611 01a2 02D0     		beq	.L185
 2612              		.loc 15 80 0 is_stmt 0 discriminator 1
 2613 01a4 0E48     		ldr	r0, .L188
 2614 01a6 FFF7FEFF 		bl	chDbgPanic
 2615              	.L185:
 2616              		.loc 15 82 0 is_stmt 1
 2617 01aa 08E0     		b	.L186
 2618              	.L187:
 2619              		.loc 15 83 0
ARM GAS  /tmp/cc5OZvFd.s 			page 47


 2620 01ac 03AB     		add	r3, sp, #12
 2621 01ae 1846     		mov	r0, r3
 2622 01b0 0A21     		movs	r1, #10
 2623 01b2 FFF7FEFF 		bl	_ZN3r2p4Time2msEl
 2624 01b6 03AB     		add	r3, sp, #12
 2625 01b8 1846     		mov	r0, r3
 2626 01ba FFF7FEFF 		bl	_ZN3r2p6Thread5sleepERKNS_4TimeE
 2627              	.L186:
 2628              		.loc 15 82 0
 2629 01be 019B     		ldr	r3, [sp, #4]
 2630 01c0 5A69     		ldr	r2, [r3, #20]
 2631 01c2 019B     		ldr	r3, [sp, #4]
 2632 01c4 1833     		adds	r3, r3, #24
 2633 01c6 1046     		mov	r0, r2
 2634 01c8 1946     		mov	r1, r3
 2635 01ca FFF7FEFF 		bl	_ZN3r2p16SubscriberExtBufINS_7BootMsgEE5fetchERPS1_
 2636 01ce 0346     		mov	r3, r0
 2637 01d0 83F00103 		eor	r3, r3, #1
 2638 01d4 DBB2     		uxtb	r3, r3
 2639 01d6 002B     		cmp	r3, #0
 2640 01d8 E8D1     		bne	.L187
 2641              		.loc 15 85 0
 2642 01da 05B0     		add	sp, sp, #20
 2643              		.cfi_def_cfa_offset 4
 2644              		@ sp needed
 2645 01dc 5DF804FB 		ldr	pc, [sp], #4
 2646              	.L189:
 2647              		.align	2
 2648              	.L188:
 2649 01e0 00000000 		.word	.LC0
 2650              		.cfi_endproc
 2651              	.LFE411:
 2652              		.size	_ZN3r2p10Bootloader5fetchEv, .-_ZN3r2p10Bootloader5fetchEv
 2653              		.align	2
 2654              		.global	_ZN3r2p10Bootloader7releaseEv
 2655              		.thumb
 2656              		.thumb_func
 2657              		.type	_ZN3r2p10Bootloader7releaseEv, %function
 2658              	_ZN3r2p10Bootloader7releaseEv:
 2659              	.LFB412:
 2660              		.loc 15 88 0
 2661              		.cfi_startproc
 2662              		@ args = 0, pretend = 0, frame = 8
 2663              		@ frame_needed = 0, uses_anonymous_args = 0
 2664 01e4 00B5     		push	{lr}
 2665              		.cfi_def_cfa_offset 4
 2666              		.cfi_offset 14, -4
 2667 01e6 83B0     		sub	sp, sp, #12
 2668              		.cfi_def_cfa_offset 16
 2669 01e8 0190     		str	r0, [sp, #4]
 2670              		.loc 15 90 0
 2671 01ea 019B     		ldr	r3, [sp, #4]
 2672 01ec 5B69     		ldr	r3, [r3, #20]
 2673 01ee 002B     		cmp	r3, #0
 2674 01f0 02D1     		bne	.L191
 2675              		.loc 15 90 0 is_stmt 0 discriminator 1
 2676 01f2 0C48     		ldr	r0, .L193
ARM GAS  /tmp/cc5OZvFd.s 			page 48


 2677 01f4 FFF7FEFF 		bl	chDbgPanic
 2678              	.L191:
 2679              		.loc 15 91 0 is_stmt 1
 2680 01f8 019B     		ldr	r3, [sp, #4]
 2681 01fa 9B69     		ldr	r3, [r3, #24]
 2682 01fc 002B     		cmp	r3, #0
 2683 01fe 02D1     		bne	.L192
 2684              		.loc 15 91 0 is_stmt 0 discriminator 1
 2685 0200 0848     		ldr	r0, .L193
 2686 0202 FFF7FEFF 		bl	chDbgPanic
 2687              	.L192:
 2688              		.loc 15 93 0 is_stmt 1
 2689 0206 019B     		ldr	r3, [sp, #4]
 2690 0208 5A69     		ldr	r2, [r3, #20]
 2691 020a 019B     		ldr	r3, [sp, #4]
 2692 020c 9B69     		ldr	r3, [r3, #24]
 2693 020e 1046     		mov	r0, r2
 2694 0210 1946     		mov	r1, r3
 2695 0212 FFF7FEFF 		bl	_ZN3r2p16SubscriberExtBufINS_7BootMsgEE7releaseERS1_
 2696              		.loc 15 94 0
 2697 0216 019B     		ldr	r3, [sp, #4]
 2698 0218 0022     		movs	r2, #0
 2699 021a 9A61     		str	r2, [r3, #24]
 2700              		.loc 15 95 0
 2701 021c 03B0     		add	sp, sp, #12
 2702              		.cfi_def_cfa_offset 4
 2703              		@ sp needed
 2704 021e 5DF804FB 		ldr	pc, [sp], #4
 2705              	.L194:
 2706 0222 00BF     		.align	2
 2707              	.L193:
 2708 0224 00000000 		.word	.LC0
 2709              		.cfi_endproc
 2710              	.LFE412:
 2711              		.size	_ZN3r2p10Bootloader7releaseEv, .-_ZN3r2p10Bootloader7releaseEv
 2712              		.align	2
 2713              		.global	_ZN3r2p10Bootloader9do_loaderEv
 2714              		.thumb
 2715              		.thumb_func
 2716              		.type	_ZN3r2p10Bootloader9do_loaderEv, %function
 2717              	_ZN3r2p10Bootloader9do_loaderEv:
 2718              	.LFB413:
 2719              		.loc 15 98 0
 2720              		.cfi_startproc
 2721              		@ args = 0, pretend = 0, frame = 96
 2722              		@ frame_needed = 0, uses_anonymous_args = 0
 2723 0228 30B5     		push	{r4, r5, lr}
 2724              		.cfi_def_cfa_offset 12
 2725              		.cfi_offset 4, -12
 2726              		.cfi_offset 5, -8
 2727              		.cfi_offset 14, -4
 2728 022a 9BB0     		sub	sp, sp, #108
 2729              		.cfi_def_cfa_offset 120
 2730 022c 0390     		str	r0, [sp, #12]
 2731              	.LBB28:
 2732              		.loc 15 100 0
 2733 022e 0398     		ldr	r0, [sp, #12]
ARM GAS  /tmp/cc5OZvFd.s 			page 49


 2734 0230 FFF7FEFF 		bl	_ZN3r2p10Bootloader6do_ackEv
 2735              	.L218:
 2736              	.LBB29:
 2737              	.LBB30:
 2738              		.loc 15 104 0
 2739 0234 0398     		ldr	r0, [sp, #12]
 2740 0236 FFF7FEFF 		bl	_ZN3r2p10Bootloader5fetchEv
 2741              		.loc 15 105 0
 2742 023a 039B     		ldr	r3, [sp, #12]
 2743 023c 9B69     		ldr	r3, [r3, #24]
 2744 023e 93F82030 		ldrb	r3, [r3, #32]	@ zero_extendqisi2
 2745 0242 033B     		subs	r3, r3, #3
 2746 0244 062B     		cmp	r3, #6
 2747 0246 44D8     		bhi	.L196
 2748 0248 01A2     		adr	r2, .L198
 2749 024a 52F823F0 		ldr	pc, [r2, r3, lsl #2]
 2750 024e 00BF     		.p2align 2
 2751              	.L198:
 2752 0250 6D020000 		.word	.L197+1
 2753 0254 DF020000 		.word	.L220+1
 2754 0258 D3020000 		.word	.L196+1
 2755 025c D3020000 		.word	.L196+1
 2756 0260 D3020000 		.word	.L196+1
 2757 0264 7B020000 		.word	.L200+1
 2758 0268 A7020000 		.word	.L201+1
 2759              		.p2align 1
 2760              	.L197:
 2761              		.loc 15 108 0
 2762 026c 0398     		ldr	r0, [sp, #12]
 2763 026e FFF7FEFF 		bl	_ZN3r2p10Bootloader7releaseEv
 2764              		.loc 15 109 0
 2765 0272 0398     		ldr	r0, [sp, #12]
 2766 0274 FFF7FEFF 		bl	_ZN3r2p10Bootloader6do_ackEv
 2767              		.loc 15 110 0
 2768 0278 F1E0     		b	.L195
 2769              	.L200:
 2770              		.loc 15 113 0
 2771 027a 0398     		ldr	r0, [sp, #12]
 2772 027c FFF7FEFF 		bl	_ZN3r2p10Bootloader7releaseEv
 2773              		.loc 15 114 0
 2774 0280 0398     		ldr	r0, [sp, #12]
 2775 0282 FFF7FEFF 		bl	_ZN3r2p10Bootloader11remove_lastEv
 2776 0286 0346     		mov	r3, r0
 2777 0288 83F00103 		eor	r3, r3, #1
 2778 028c DBB2     		uxtb	r3, r3
 2779 028e 002B     		cmp	r3, #0
 2780 0290 05D0     		beq	.L204
 2781              		.loc 15 115 0
 2782 0292 0398     		ldr	r0, [sp, #12]
 2783 0294 7321     		movs	r1, #115
 2784 0296 734A     		ldr	r2, .L221
 2785 0298 FFF7FEFF 		bl	_ZN3r2p10Bootloader8do_errorEmPKc
 2786              		.loc 15 116 0
 2787 029c DFE0     		b	.L195
 2788              	.L204:
 2789              		.loc 15 118 0
 2790 029e 0398     		ldr	r0, [sp, #12]
ARM GAS  /tmp/cc5OZvFd.s 			page 50


 2791 02a0 FFF7FEFF 		bl	_ZN3r2p10Bootloader6do_ackEv
 2792              		.loc 15 119 0
 2793 02a4 DAE0     		b	.L216
 2794              	.L201:
 2795              		.loc 15 122 0
 2796 02a6 0398     		ldr	r0, [sp, #12]
 2797 02a8 FFF7FEFF 		bl	_ZN3r2p10Bootloader7releaseEv
 2798              		.loc 15 123 0
 2799 02ac 0398     		ldr	r0, [sp, #12]
 2800 02ae FFF7FEFF 		bl	_ZN3r2p10Bootloader10remove_allEv
 2801 02b2 0346     		mov	r3, r0
 2802 02b4 83F00103 		eor	r3, r3, #1
 2803 02b8 DBB2     		uxtb	r3, r3
 2804 02ba 002B     		cmp	r3, #0
 2805 02bc 05D0     		beq	.L206
 2806              		.loc 15 124 0
 2807 02be 0398     		ldr	r0, [sp, #12]
 2808 02c0 7C21     		movs	r1, #124
 2809 02c2 684A     		ldr	r2, .L221
 2810 02c4 FFF7FEFF 		bl	_ZN3r2p10Bootloader8do_errorEmPKc
 2811              		.loc 15 125 0
 2812 02c8 C9E0     		b	.L195
 2813              	.L206:
 2814              		.loc 15 127 0
 2815 02ca 0398     		ldr	r0, [sp, #12]
 2816 02cc FFF7FEFF 		bl	_ZN3r2p10Bootloader6do_ackEv
 2817              		.loc 15 128 0
 2818 02d0 C4E0     		b	.L216
 2819              	.L196:
 2820              		.loc 15 131 0
 2821 02d2 0398     		ldr	r0, [sp, #12]
 2822 02d4 8321     		movs	r1, #131
 2823 02d6 634A     		ldr	r2, .L221
 2824 02d8 FFF7FEFF 		bl	_ZN3r2p10Bootloader16do_release_errorEmPKc
 2825              		.loc 15 132 0
 2826 02dc BFE0     		b	.L195
 2827              	.L220:
 2828              		.loc 15 106 0
 2829 02de 00BF     		nop
 2830              		.loc 15 137 0
 2831 02e0 039B     		ldr	r3, [sp, #12]
 2832 02e2 9B69     		ldr	r3, [r3, #24]
 2833 02e4 12AC     		add	r4, sp, #72
 2834 02e6 9D1C     		adds	r5, r3, #2
 2835 02e8 2868     		ldr	r0, [r5]	@ unaligned
 2836 02ea 6968     		ldr	r1, [r5, #4]	@ unaligned
 2837 02ec AA68     		ldr	r2, [r5, #8]	@ unaligned
 2838 02ee EB68     		ldr	r3, [r5, #12]	@ unaligned
 2839 02f0 0FC4     		stmia	r4!, {r0, r1, r2, r3}
 2840 02f2 2869     		ldr	r0, [r5, #16]	@ unaligned
 2841 02f4 6969     		ldr	r1, [r5, #20]	@ unaligned
 2842 02f6 03C4     		stmia	r4!, {r0, r1}
 2843 02f8 2B8B     		ldrh	r3, [r5, #24]	@ unaligned
 2844 02fa 2380     		strh	r3, [r4]	@ unaligned
 2845              		.loc 15 138 0
 2846 02fc 0398     		ldr	r0, [sp, #12]
 2847 02fe FFF7FEFF 		bl	_ZN3r2p10Bootloader7releaseEv
ARM GAS  /tmp/cc5OZvFd.s 			page 51


 2848              		.loc 15 141 0
 2849 0302 12AB     		add	r3, sp, #72
 2850 0304 1033     		adds	r3, r3, #16
 2851 0306 1846     		mov	r0, r3
 2852 0308 FFF7FEFF 		bl	_ZN3r2p10Bootloader7get_appEPKc
 2853 030c 0346     		mov	r3, r0
 2854 030e 002B     		cmp	r3, #0
 2855 0310 14BF     		ite	ne
 2856 0312 0123     		movne	r3, #1
 2857 0314 0023     		moveq	r3, #0
 2858 0316 DBB2     		uxtb	r3, r3
 2859 0318 002B     		cmp	r3, #0
 2860 031a 05D0     		beq	.L207
 2861              		.loc 15 142 0
 2862 031c 0398     		ldr	r0, [sp, #12]
 2863 031e 8E21     		movs	r1, #142
 2864 0320 504A     		ldr	r2, .L221
 2865 0322 FFF7FEFF 		bl	_ZN3r2p10Bootloader8do_errorEmPKc
 2866              		.loc 15 143 0
 2867 0326 9AE0     		b	.L195
 2868              	.L207:
 2869              		.loc 15 148 0
 2870 0328 12AA     		add	r2, sp, #72
 2871 032a 0CAB     		add	r3, sp, #48
 2872 032c 1046     		mov	r0, r2
 2873 032e 1946     		mov	r1, r3
 2874 0330 FFF7FEFF 		bl	_ZN3r2p10Bootloader17compute_addressesERKNS_7BootMsg12LinkingSetupERNS1_16LinkingAddressesE
 2875 0334 0346     		mov	r3, r0
 2876 0336 83F00103 		eor	r3, r3, #1
 2877 033a DBB2     		uxtb	r3, r3
 2878 033c 002B     		cmp	r3, #0
 2879 033e 05D0     		beq	.L208
 2880              		.loc 15 149 0
 2881 0340 0398     		ldr	r0, [sp, #12]
 2882 0342 9521     		movs	r1, #149
 2883 0344 474A     		ldr	r2, .L221
 2884 0346 FFF7FEFF 		bl	_ZN3r2p10Bootloader8do_errorEmPKc
 2885              		.loc 15 150 0
 2886 034a 88E0     		b	.L195
 2887              	.L208:
 2888              		.loc 15 152 0
 2889 034c 0398     		ldr	r0, [sp, #12]
 2890 034e 0521     		movs	r1, #5
 2891 0350 FFF7FEFF 		bl	_ZN3r2p10Bootloader5allocENS_7BootMsg8TypeEnumE
 2892              		.loc 15 153 0
 2893 0354 039B     		ldr	r3, [sp, #12]
 2894 0356 DB69     		ldr	r3, [r3, #28]
 2895 0358 9D1C     		adds	r5, r3, #2
 2896 035a 0CAC     		add	r4, sp, #48
 2897 035c 0FCC     		ldmia	r4!, {r0, r1, r2, r3}
 2898 035e 2860     		str	r0, [r5]	@ unaligned
 2899 0360 6960     		str	r1, [r5, #4]	@ unaligned
 2900 0362 AA60     		str	r2, [r5, #8]	@ unaligned
 2901 0364 EB60     		str	r3, [r5, #12]	@ unaligned
 2902 0366 03CC     		ldmia	r4!, {r0, r1}
 2903 0368 2861     		str	r0, [r5, #16]	@ unaligned
 2904 036a 6961     		str	r1, [r5, #20]	@ unaligned
ARM GAS  /tmp/cc5OZvFd.s 			page 52


 2905              		.loc 15 154 0
 2906 036c 0398     		ldr	r0, [sp, #12]
 2907 036e FFF7FEFF 		bl	_ZN3r2p10Bootloader7publishEv
 2908              		.loc 15 157 0
 2909 0372 0398     		ldr	r0, [sp, #12]
 2910 0374 0621     		movs	r1, #6
 2911 0376 FFF7FEFF 		bl	_ZN3r2p10Bootloader5fetchENS_7BootMsg8TypeEnumE
 2912 037a 0346     		mov	r3, r0
 2913 037c 83F00103 		eor	r3, r3, #1
 2914 0380 DBB2     		uxtb	r3, r3
 2915 0382 002B     		cmp	r3, #0
 2916 0384 05D0     		beq	.L209
 2917              		.loc 15 158 0
 2918 0386 0398     		ldr	r0, [sp, #12]
 2919 0388 9E21     		movs	r1, #158
 2920 038a 364A     		ldr	r2, .L221
 2921 038c FFF7FEFF 		bl	_ZN3r2p10Bootloader16do_release_errorEmPKc
 2922              		.loc 15 159 0
 2923 0390 65E0     		b	.L195
 2924              	.L209:
 2925              		.loc 15 161 0
 2926 0392 039B     		ldr	r3, [sp, #12]
 2927 0394 9B69     		ldr	r3, [r3, #24]
 2928 0396 05AC     		add	r4, sp, #20
 2929 0398 9D1C     		adds	r5, r3, #2
 2930 039a 2868     		ldr	r0, [r5]	@ unaligned
 2931 039c 6968     		ldr	r1, [r5, #4]	@ unaligned
 2932 039e AA68     		ldr	r2, [r5, #8]	@ unaligned
 2933 03a0 EB68     		ldr	r3, [r5, #12]	@ unaligned
 2934 03a2 0FC4     		stmia	r4!, {r0, r1, r2, r3}
 2935 03a4 2869     		ldr	r0, [r5, #16]	@ unaligned
 2936 03a6 6969     		ldr	r1, [r5, #20]	@ unaligned
 2937 03a8 AA69     		ldr	r2, [r5, #24]	@ unaligned
 2938 03aa 07C4     		stmia	r4!, {r0, r1, r2}
 2939              		.loc 15 162 0
 2940 03ac 0398     		ldr	r0, [sp, #12]
 2941 03ae FFF7FEFF 		bl	_ZN3r2p10Bootloader7releaseEv
 2942              		.loc 15 163 0
 2943 03b2 0398     		ldr	r0, [sp, #12]
 2944 03b4 FFF7FEFF 		bl	_ZN3r2p10Bootloader6do_ackEv
 2945              	.L214:
 2946              	.LBB31:
 2947              	.LBB32:
 2948              		.loc 15 167 0
 2949 03b8 0398     		ldr	r0, [sp, #12]
 2950 03ba 0721     		movs	r1, #7
 2951 03bc FFF7FEFF 		bl	_ZN3r2p10Bootloader5fetchENS_7BootMsg8TypeEnumE
 2952 03c0 0346     		mov	r3, r0
 2953 03c2 83F00103 		eor	r3, r3, #1
 2954 03c6 DBB2     		uxtb	r3, r3
 2955 03c8 002B     		cmp	r3, #0
 2956 03ca 05D0     		beq	.L210
 2957              		.loc 15 168 0
 2958 03cc 0398     		ldr	r0, [sp, #12]
 2959 03ce A821     		movs	r1, #168
 2960 03d0 244A     		ldr	r2, .L221
 2961 03d2 FFF7FEFF 		bl	_ZN3r2p10Bootloader16do_release_errorEmPKc
ARM GAS  /tmp/cc5OZvFd.s 			page 53


 2962              		.loc 15 169 0
 2963 03d6 42E0     		b	.L195
 2964              	.L210:
 2965              		.loc 15 171 0
 2966 03d8 039B     		ldr	r3, [sp, #12]
 2967 03da 9B69     		ldr	r3, [r3, #24]
 2968 03dc 0233     		adds	r3, r3, #2
 2969 03de 1993     		str	r3, [sp, #100]
 2970              		.loc 15 172 0
 2971 03e0 12AA     		add	r2, sp, #72
 2972 03e2 0CAB     		add	r3, sp, #48
 2973 03e4 0398     		ldr	r0, [sp, #12]
 2974 03e6 1999     		ldr	r1, [sp, #100]
 2975 03e8 FFF7FEFF 		bl	_ZN3r2p10Bootloader12process_ihexERKNS_10IhexRecordERKNS_7BootMsg12LinkingSetupERKNS4_16Linking
 2976 03ec 0346     		mov	r3, r0
 2977 03ee 83F00103 		eor	r3, r3, #1
 2978 03f2 DBB2     		uxtb	r3, r3
 2979 03f4 002B     		cmp	r3, #0
 2980 03f6 05D0     		beq	.L211
 2981              		.loc 15 173 0
 2982 03f8 0398     		ldr	r0, [sp, #12]
 2983 03fa AD21     		movs	r1, #173
 2984 03fc 194A     		ldr	r2, .L221
 2985 03fe FFF7FEFF 		bl	_ZN3r2p10Bootloader16do_release_errorEmPKc
 2986              		.loc 15 174 0
 2987 0402 2CE0     		b	.L195
 2988              	.L211:
 2989              		.loc 15 176 0
 2990 0404 199B     		ldr	r3, [sp, #100]
 2991 0406 DB78     		ldrb	r3, [r3, #3]	@ zero_extendqisi2
 2992 0408 012B     		cmp	r3, #1
 2993 040a 16D1     		bne	.L212
 2994              		.loc 15 177 0
 2995 040c 00BF     		nop
 2996              	.LBE32:
 2997              	.LBE31:
 2998              		.loc 15 182 0
 2999 040e 0398     		ldr	r0, [sp, #12]
 3000 0410 FFF7FEFF 		bl	_ZN3r2p10Bootloader7releaseEv
 3001              		.loc 15 183 0
 3002 0414 0398     		ldr	r0, [sp, #12]
 3003 0416 FFF7FEFF 		bl	_ZN3r2p10Bootloader6do_ackEv
 3004              		.loc 15 188 0
 3005 041a 0C99     		ldr	r1, [sp, #48]
 3006 041c 12AA     		add	r2, sp, #72
 3007 041e 0CAC     		add	r4, sp, #48
 3008 0420 05AB     		add	r3, sp, #20
 3009 0422 0093     		str	r3, [sp]
 3010 0424 0398     		ldr	r0, [sp, #12]
 3011 0426 2346     		mov	r3, r4
 3012 0428 FFF7FEFF 		bl	_ZN3r2p10Bootloader13write_appinfoEPKNS0_12FlashAppInfoERKNS_7BootMsg12LinkingSetupERKNS4_16Lin
 3013 042c 0346     		mov	r3, r0
 3014              		.loc 15 186 0
 3015 042e 83F00103 		eor	r3, r3, #1
 3016 0432 DBB2     		uxtb	r3, r3
 3017 0434 002B     		cmp	r3, #0
 3018 0436 0ED0     		beq	.L215
ARM GAS  /tmp/cc5OZvFd.s 			page 54


 3019 0438 06E0     		b	.L219
 3020              	.L212:
 3021              	.LBB34:
 3022              	.LBB33:
 3023              		.loc 15 179 0
 3024 043a 0398     		ldr	r0, [sp, #12]
 3025 043c FFF7FEFF 		bl	_ZN3r2p10Bootloader7releaseEv
 3026              		.loc 15 180 0
 3027 0440 0398     		ldr	r0, [sp, #12]
 3028 0442 FFF7FEFF 		bl	_ZN3r2p10Bootloader6do_ackEv
 3029              	.LBE33:
 3030              		.loc 15 181 0
 3031 0446 B7E7     		b	.L214
 3032              	.L219:
 3033              	.LBE34:
 3034              		.loc 15 189 0
 3035 0448 0398     		ldr	r0, [sp, #12]
 3036 044a BD21     		movs	r1, #189
 3037 044c 054A     		ldr	r2, .L221
 3038 044e FFF7FEFF 		bl	_ZN3r2p10Bootloader8do_errorEmPKc
 3039              		.loc 15 190 0
 3040 0452 00BF     		nop
 3041 0454 03E0     		b	.L195
 3042              	.L215:
 3043              		.loc 15 193 0
 3044 0456 0398     		ldr	r0, [sp, #12]
 3045 0458 FFF7FEFF 		bl	_ZN3r2p10Bootloader6do_ackEv
 3046              	.L216:
 3047              	.LBE30:
 3048              		.loc 15 194 0 discriminator 1
 3049 045c EAE6     		b	.L218
 3050              	.L195:
 3051              	.LBE29:
 3052              	.LBE28:
 3053              		.loc 15 195 0
 3054 045e 1BB0     		add	sp, sp, #108
 3055              		.cfi_def_cfa_offset 12
 3056              		@ sp needed
 3057 0460 30BD     		pop	{r4, r5, pc}
 3058              	.L222:
 3059 0462 00BF     		.align	2
 3060              	.L221:
 3061 0464 14000000 		.word	.LC1
 3062              		.cfi_endproc
 3063              	.LFE413:
 3064              		.size	_ZN3r2p10Bootloader9do_loaderEv, .-_ZN3r2p10Bootloader9do_loaderEv
 3065              		.align	2
 3066              		.global	_ZN3r2p10Bootloader10do_appinfoEv
 3067              		.thumb
 3068              		.thumb_func
 3069              		.type	_ZN3r2p10Bootloader10do_appinfoEv, %function
 3070              	_ZN3r2p10Bootloader10do_appinfoEv:
 3071              	.LFB414:
 3072              		.loc 15 198 0
 3073              		.cfi_startproc
 3074              		@ args = 0, pretend = 0, frame = 32
 3075              		@ frame_needed = 0, uses_anonymous_args = 0
ARM GAS  /tmp/cc5OZvFd.s 			page 55


 3076 0468 10B5     		push	{r4, lr}
 3077              		.cfi_def_cfa_offset 8
 3078              		.cfi_offset 4, -8
 3079              		.cfi_offset 14, -4
 3080 046a 88B0     		sub	sp, sp, #32
 3081              		.cfi_def_cfa_offset 40
 3082 046c 0190     		str	r0, [sp, #4]
 3083              	.LBB35:
 3084              		.loc 15 200 0
 3085 046e 0198     		ldr	r0, [sp, #4]
 3086 0470 0C21     		movs	r1, #12
 3087 0472 FFF7FEFF 		bl	_ZN3r2p10Bootloader5allocENS_7BootMsg8TypeEnumE
 3088              	.LBB36:
 3089              		.loc 15 202 0
 3090 0476 019B     		ldr	r3, [sp, #4]
 3091 0478 DB69     		ldr	r3, [r3, #28]
 3092 047a 0233     		adds	r3, r3, #2
 3093 047c 0793     		str	r3, [sp, #28]
 3094              		.loc 15 203 0
 3095 047e FFF7FEFF 		bl	_ZN3r2p10Bootloader12get_num_appsEv
 3096 0482 0246     		mov	r2, r0
 3097 0484 079B     		ldr	r3, [sp, #28]
 3098 0486 1A60     		str	r2, [r3]	@ unaligned
 3099              		.loc 15 204 0
 3100 0488 FFF7FEFF 		bl	_ZN3r2p10Bootloader16get_free_addressEv
 3101 048c 0246     		mov	r2, r0
 3102 048e 079B     		ldr	r3, [sp, #28]
 3103 0490 5A60     		str	r2, [r3, #4]	@ unaligned
 3104              		.loc 15 205 0
 3105 0492 FFF7FEFF 		bl	_ZN3r2p7Flasher17get_program_startEv
 3106 0496 0246     		mov	r2, r0
 3107 0498 079B     		ldr	r3, [sp, #28]
 3108 049a 9A60     		str	r2, [r3, #8]	@ unaligned
 3109              		.loc 15 206 0
 3110 049c FFF7FEFF 		bl	_ZN3r2p7Flasher15get_program_endEv
 3111 04a0 0246     		mov	r2, r0
 3112 04a2 079B     		ldr	r3, [sp, #28]
 3113 04a4 DA60     		str	r2, [r3, #12]	@ unaligned
 3114              		.loc 15 207 0
 3115 04a6 FFF7FEFF 		bl	_ZN3r2p7Flasher13get_ram_startEv
 3116 04aa 0246     		mov	r2, r0
 3117 04ac 079B     		ldr	r3, [sp, #28]
 3118 04ae 1A61     		str	r2, [r3, #16]	@ unaligned
 3119              		.loc 15 208 0
 3120 04b0 FFF7FEFF 		bl	_ZN3r2p7Flasher11get_ram_endEv
 3121 04b4 0246     		mov	r2, r0
 3122 04b6 079B     		ldr	r3, [sp, #28]
 3123 04b8 5A61     		str	r2, [r3, #20]	@ unaligned
 3124              	.LBE36:
 3125              		.loc 15 210 0
 3126 04ba 0198     		ldr	r0, [sp, #4]
 3127 04bc FFF7FEFF 		bl	_ZN3r2p10Bootloader7publishEv
 3128              		.loc 15 212 0
 3129 04c0 0198     		ldr	r0, [sp, #4]
 3130 04c2 0121     		movs	r1, #1
 3131 04c4 FFF7FEFF 		bl	_ZN3r2p10Bootloader5fetchENS_7BootMsg8TypeEnumE
 3132 04c8 0346     		mov	r3, r0
ARM GAS  /tmp/cc5OZvFd.s 			page 56


 3133 04ca 83F00103 		eor	r3, r3, #1
 3134 04ce DBB2     		uxtb	r3, r3
 3135 04d0 002B     		cmp	r3, #0
 3136 04d2 05D0     		beq	.L224
 3137              		.loc 15 213 0
 3138 04d4 0198     		ldr	r0, [sp, #4]
 3139 04d6 D521     		movs	r1, #213
 3140 04d8 9B4A     		ldr	r2, .L235
 3141 04da FFF7FEFF 		bl	_ZN3r2p10Bootloader16do_release_errorEmPKc
 3142              		.loc 15 214 0
 3143 04de 31E1     		b	.L223
 3144              	.L224:
 3145              		.loc 15 216 0
 3146 04e0 0198     		ldr	r0, [sp, #4]
 3147 04e2 FFF7FEFF 		bl	_ZN3r2p10Bootloader7releaseEv
 3148              	.LBB37:
 3149              		.loc 15 218 0
 3150 04e6 02AB     		add	r3, sp, #8
 3151 04e8 1846     		mov	r0, r3
 3152 04ea FFF7FEFF 		bl	_ZN3r2p10Bootloader5beginEv
 3153 04ee FDE0     		b	.L226
 3154              	.L231:
 3155              	.LBB38:
 3156              		.loc 15 219 0
 3157 04f0 0198     		ldr	r0, [sp, #4]
 3158 04f2 0421     		movs	r1, #4
 3159 04f4 FFF7FEFF 		bl	_ZN3r2p10Bootloader5allocENS_7BootMsg8TypeEnumE
 3160              	.LBB39:
 3161              		.loc 15 221 0
 3162 04f8 019B     		ldr	r3, [sp, #4]
 3163 04fa DB69     		ldr	r3, [r3, #28]
 3164 04fc 0233     		adds	r3, r3, #2
 3165 04fe 0693     		str	r3, [sp, #24]
 3166              		.loc 15 222 0
 3167 0500 02AB     		add	r3, sp, #8
 3168 0502 1846     		mov	r0, r3
 3169 0504 FFF7FEFF 		bl	_ZNK3r2p10Bootloader8IteratorptEv
 3170 0508 0346     		mov	r3, r0
 3171 050a 5A68     		ldr	r2, [r3, #4]
 3172 050c 069B     		ldr	r3, [sp, #24]
 3173 050e 1A60     		str	r2, [r3]	@ unaligned
 3174              		.loc 15 223 0
 3175 0510 02AB     		add	r3, sp, #8
 3176 0512 1846     		mov	r0, r3
 3177 0514 FFF7FEFF 		bl	_ZNK3r2p10Bootloader8IteratorptEv
 3178 0518 0346     		mov	r3, r0
 3179 051a 9A68     		ldr	r2, [r3, #8]
 3180 051c 069B     		ldr	r3, [sp, #24]
 3181 051e 5A60     		str	r2, [r3, #4]	@ unaligned
 3182              		.loc 15 224 0
 3183 0520 02AB     		add	r3, sp, #8
 3184 0522 1846     		mov	r0, r3
 3185 0524 FFF7FEFF 		bl	_ZNK3r2p10Bootloader8IteratorptEv
 3186 0528 0346     		mov	r3, r0
 3187 052a DA68     		ldr	r2, [r3, #12]
 3188 052c 069B     		ldr	r3, [sp, #24]
 3189 052e 9A60     		str	r2, [r3, #8]	@ unaligned
ARM GAS  /tmp/cc5OZvFd.s 			page 57


 3190              		.loc 15 225 0
 3191 0530 02AB     		add	r3, sp, #8
 3192 0532 1846     		mov	r0, r3
 3193 0534 FFF7FEFF 		bl	_ZNK3r2p10Bootloader8IteratorptEv
 3194 0538 0346     		mov	r3, r0
 3195 053a 1A6A     		ldr	r2, [r3, #32]
 3196 053c 069B     		ldr	r3, [sp, #24]
 3197 053e DA60     		str	r2, [r3, #12]	@ unaligned
 3198              		.loc 15 226 0
 3199 0540 069B     		ldr	r3, [sp, #24]
 3200 0542 03F11004 		add	r4, r3, #16
 3201 0546 02AB     		add	r3, sp, #8
 3202 0548 1846     		mov	r0, r3
 3203 054a FFF7FEFF 		bl	_ZNK3r2p10Bootloader8IteratorptEv
 3204 054e 0346     		mov	r3, r0
 3205 0550 3833     		adds	r3, r3, #56
 3206 0552 2046     		mov	r0, r4
 3207 0554 1946     		mov	r1, r3
 3208 0556 0822     		movs	r2, #8
 3209 0558 FFF7FEFF 		bl	strncpy
 3210              	.LBE39:
 3211              		.loc 15 228 0
 3212 055c 0198     		ldr	r0, [sp, #4]
 3213 055e FFF7FEFF 		bl	_ZN3r2p10Bootloader7publishEv
 3214              		.loc 15 230 0
 3215 0562 0198     		ldr	r0, [sp, #4]
 3216 0564 0121     		movs	r1, #1
 3217 0566 FFF7FEFF 		bl	_ZN3r2p10Bootloader5fetchENS_7BootMsg8TypeEnumE
 3218 056a 0346     		mov	r3, r0
 3219 056c 83F00103 		eor	r3, r3, #1
 3220 0570 DBB2     		uxtb	r3, r3
 3221 0572 002B     		cmp	r3, #0
 3222 0574 05D0     		beq	.L227
 3223              		.loc 15 231 0
 3224 0576 0198     		ldr	r0, [sp, #4]
 3225 0578 E721     		movs	r1, #231
 3226 057a 734A     		ldr	r2, .L235
 3227 057c FFF7FEFF 		bl	_ZN3r2p10Bootloader16do_release_errorEmPKc
 3228              		.loc 15 232 0
 3229 0580 E0E0     		b	.L223
 3230              	.L227:
 3231              		.loc 15 234 0
 3232 0582 0198     		ldr	r0, [sp, #4]
 3233 0584 FFF7FEFF 		bl	_ZN3r2p10Bootloader7releaseEv
 3234              		.loc 15 236 0
 3235 0588 0198     		ldr	r0, [sp, #4]
 3236 058a 0521     		movs	r1, #5
 3237 058c FFF7FEFF 		bl	_ZN3r2p10Bootloader5allocENS_7BootMsg8TypeEnumE
 3238              	.LBB40:
 3239              		.loc 15 238 0
 3240 0590 019B     		ldr	r3, [sp, #4]
 3241 0592 DB69     		ldr	r3, [r3, #28]
 3242 0594 0233     		adds	r3, r3, #2
 3243 0596 0593     		str	r3, [sp, #20]
 3244              		.loc 15 239 0
 3245 0598 02AB     		add	r3, sp, #8
 3246 059a 1846     		mov	r0, r3
ARM GAS  /tmp/cc5OZvFd.s 			page 58


 3247 059c FFF7FEFF 		bl	_ZNK3r2p10Bootloader8IteratordeEv
 3248 05a0 0246     		mov	r2, r0
 3249 05a2 059B     		ldr	r3, [sp, #20]
 3250 05a4 1A60     		str	r2, [r3]	@ unaligned
 3251              		.loc 15 240 0
 3252 05a6 02AB     		add	r3, sp, #8
 3253 05a8 1846     		mov	r0, r3
 3254 05aa FFF7FEFF 		bl	_ZNK3r2p10Bootloader8IteratorptEv
 3255 05ae 0346     		mov	r3, r0
 3256 05b0 1846     		mov	r0, r3
 3257 05b2 FFF7FEFF 		bl	_ZNK3r2p10Bootloader12FlashAppInfo11get_programEv
 3258 05b6 0246     		mov	r2, r0
 3259 05b8 059B     		ldr	r3, [sp, #20]
 3260 05ba 5A60     		str	r2, [r3, #4]	@ unaligned
 3261              		.loc 15 241 0
 3262 05bc 02AB     		add	r3, sp, #8
 3263 05be 1846     		mov	r0, r3
 3264 05c0 FFF7FEFF 		bl	_ZNK3r2p10Bootloader8IteratorptEv
 3265 05c4 0346     		mov	r3, r0
 3266 05c6 1A69     		ldr	r2, [r3, #16]
 3267 05c8 059B     		ldr	r3, [sp, #20]
 3268 05ca 9A60     		str	r2, [r3, #8]	@ unaligned
 3269              		.loc 15 242 0
 3270 05cc 02AB     		add	r3, sp, #8
 3271 05ce 1846     		mov	r0, r3
 3272 05d0 FFF7FEFF 		bl	_ZNK3r2p10Bootloader8IteratorptEv
 3273 05d4 0346     		mov	r3, r0
 3274 05d6 5A69     		ldr	r2, [r3, #20]
 3275 05d8 059B     		ldr	r3, [sp, #20]
 3276 05da DA60     		str	r2, [r3, #12]	@ unaligned
 3277              		.loc 15 243 0
 3278 05dc 02AB     		add	r3, sp, #8
 3279 05de 1846     		mov	r0, r3
 3280 05e0 FFF7FEFF 		bl	_ZNK3r2p10Bootloader8IteratorptEv
 3281 05e4 0346     		mov	r3, r0
 3282 05e6 1846     		mov	r0, r3
 3283 05e8 FFF7FEFF 		bl	_ZNK3r2p10Bootloader12FlashAppInfo16get_data_programEv
 3284 05ec 0246     		mov	r2, r0
 3285 05ee 059B     		ldr	r3, [sp, #20]
 3286 05f0 1A61     		str	r2, [r3, #16]	@ unaligned
 3287              		.loc 15 244 0
 3288 05f2 02AB     		add	r3, sp, #8
 3289 05f4 1846     		mov	r0, r3
 3290 05f6 FFF7FEFF 		bl	_ZNK3r2p10Bootloader8IteratorptEv
 3291 05fa 0346     		mov	r3, r0
 3292 05fc 1846     		mov	r0, r3
 3293 05fe FFF7FEFF 		bl	_ZNK3r2p10Bootloader12FlashAppInfo8get_nextEv
 3294 0602 0246     		mov	r2, r0
 3295 0604 059B     		ldr	r3, [sp, #20]
 3296 0606 5A61     		str	r2, [r3, #20]	@ unaligned
 3297              	.LBE40:
 3298              		.loc 15 246 0
 3299 0608 0198     		ldr	r0, [sp, #4]
 3300 060a FFF7FEFF 		bl	_ZN3r2p10Bootloader7publishEv
 3301              		.loc 15 248 0
 3302 060e 0198     		ldr	r0, [sp, #4]
 3303 0610 0121     		movs	r1, #1
ARM GAS  /tmp/cc5OZvFd.s 			page 59


 3304 0612 FFF7FEFF 		bl	_ZN3r2p10Bootloader5fetchENS_7BootMsg8TypeEnumE
 3305 0616 0346     		mov	r3, r0
 3306 0618 83F00103 		eor	r3, r3, #1
 3307 061c DBB2     		uxtb	r3, r3
 3308 061e 002B     		cmp	r3, #0
 3309 0620 05D0     		beq	.L229
 3310              		.loc 15 249 0
 3311 0622 0198     		ldr	r0, [sp, #4]
 3312 0624 F921     		movs	r1, #249
 3313 0626 484A     		ldr	r2, .L235
 3314 0628 FFF7FEFF 		bl	_ZN3r2p10Bootloader16do_release_errorEmPKc
 3315              		.loc 15 250 0
 3316 062c 8AE0     		b	.L223
 3317              	.L229:
 3318              		.loc 15 252 0
 3319 062e 0198     		ldr	r0, [sp, #4]
 3320 0630 FFF7FEFF 		bl	_ZN3r2p10Bootloader7releaseEv
 3321              		.loc 15 254 0
 3322 0634 0198     		ldr	r0, [sp, #4]
 3323 0636 0621     		movs	r1, #6
 3324 0638 FFF7FEFF 		bl	_ZN3r2p10Bootloader5allocENS_7BootMsg8TypeEnumE
 3325              	.LBB41:
 3326              		.loc 15 256 0
 3327 063c 019B     		ldr	r3, [sp, #4]
 3328 063e DB69     		ldr	r3, [r3, #28]
 3329 0640 0233     		adds	r3, r3, #2
 3330 0642 0493     		str	r3, [sp, #16]
 3331              		.loc 15 257 0
 3332 0644 02AB     		add	r3, sp, #8
 3333 0646 1846     		mov	r0, r3
 3334 0648 FFF7FEFF 		bl	_ZNK3r2p10Bootloader8IteratorptEv
 3335 064c 0346     		mov	r3, r0
 3336 064e 5A6A     		ldr	r2, [r3, #36]
 3337 0650 049B     		ldr	r3, [sp, #16]
 3338 0652 1A60     		str	r2, [r3]	@ unaligned
 3339              		.loc 15 258 0
 3340 0654 02AB     		add	r3, sp, #8
 3341 0656 1846     		mov	r0, r3
 3342 0658 FFF7FEFF 		bl	_ZNK3r2p10Bootloader8IteratorptEv
 3343 065c 0346     		mov	r3, r0
 3344 065e 9A69     		ldr	r2, [r3, #24]
 3345 0660 049B     		ldr	r3, [sp, #16]
 3346 0662 5A60     		str	r2, [r3, #4]	@ unaligned
 3347              		.loc 15 259 0
 3348 0664 02AB     		add	r3, sp, #8
 3349 0666 1846     		mov	r0, r3
 3350 0668 FFF7FEFF 		bl	_ZNK3r2p10Bootloader8IteratorptEv
 3351 066c 0346     		mov	r3, r0
 3352 066e DA69     		ldr	r2, [r3, #28]
 3353 0670 049B     		ldr	r3, [sp, #16]
 3354 0672 9A60     		str	r2, [r3, #8]	@ unaligned
 3355              		.loc 15 260 0
 3356 0674 02AB     		add	r3, sp, #8
 3357 0676 1846     		mov	r0, r3
 3358 0678 FFF7FEFF 		bl	_ZNK3r2p10Bootloader8IteratorptEv
 3359 067c 0346     		mov	r3, r0
 3360 067e 9A6A     		ldr	r2, [r3, #40]
ARM GAS  /tmp/cc5OZvFd.s 			page 60


 3361 0680 049B     		ldr	r3, [sp, #16]
 3362 0682 DA60     		str	r2, [r3, #12]	@ unaligned
 3363              		.loc 15 261 0
 3364 0684 02AB     		add	r3, sp, #8
 3365 0686 1846     		mov	r0, r3
 3366 0688 FFF7FEFF 		bl	_ZNK3r2p10Bootloader8IteratorptEv
 3367 068c 0346     		mov	r3, r0
 3368 068e DA6A     		ldr	r2, [r3, #44]
 3369 0690 049B     		ldr	r3, [sp, #16]
 3370 0692 1A61     		str	r2, [r3, #16]	@ unaligned
 3371              		.loc 15 262 0
 3372 0694 02AB     		add	r3, sp, #8
 3373 0696 1846     		mov	r0, r3
 3374 0698 FFF7FEFF 		bl	_ZNK3r2p10Bootloader8IteratorptEv
 3375 069c 0346     		mov	r3, r0
 3376 069e 1A6B     		ldr	r2, [r3, #48]
 3377 06a0 049B     		ldr	r3, [sp, #16]
 3378 06a2 5A61     		str	r2, [r3, #20]	@ unaligned
 3379              		.loc 15 263 0
 3380 06a4 02AB     		add	r3, sp, #8
 3381 06a6 1846     		mov	r0, r3
 3382 06a8 FFF7FEFF 		bl	_ZNK3r2p10Bootloader8IteratorptEv
 3383 06ac 0346     		mov	r3, r0
 3384 06ae 5A6B     		ldr	r2, [r3, #52]
 3385 06b0 049B     		ldr	r3, [sp, #16]
 3386 06b2 9A61     		str	r2, [r3, #24]	@ unaligned
 3387              	.LBE41:
 3388              		.loc 15 265 0
 3389 06b4 0198     		ldr	r0, [sp, #4]
 3390 06b6 FFF7FEFF 		bl	_ZN3r2p10Bootloader7publishEv
 3391              		.loc 15 267 0
 3392 06ba 0198     		ldr	r0, [sp, #4]
 3393 06bc 0121     		movs	r1, #1
 3394 06be FFF7FEFF 		bl	_ZN3r2p10Bootloader5fetchENS_7BootMsg8TypeEnumE
 3395 06c2 0346     		mov	r3, r0
 3396 06c4 83F00103 		eor	r3, r3, #1
 3397 06c8 DBB2     		uxtb	r3, r3
 3398 06ca 002B     		cmp	r3, #0
 3399 06cc 07D0     		beq	.L230
 3400              		.loc 15 268 0
 3401 06ce 0198     		ldr	r0, [sp, #4]
 3402 06d0 4FF48671 		mov	r1, #268
 3403 06d4 1C4A     		ldr	r2, .L235
 3404 06d6 FFF7FEFF 		bl	_ZN3r2p10Bootloader16do_release_errorEmPKc
 3405              		.loc 15 269 0
 3406 06da 00BF     		nop
 3407 06dc 32E0     		b	.L223
 3408              	.L230:
 3409              		.loc 15 271 0 discriminator 2
 3410 06de 0198     		ldr	r0, [sp, #4]
 3411 06e0 FFF7FEFF 		bl	_ZN3r2p10Bootloader7releaseEv
 3412              	.LBE38:
 3413              		.loc 15 218 0 discriminator 2
 3414 06e4 02AB     		add	r3, sp, #8
 3415 06e6 1846     		mov	r0, r3
 3416 06e8 FFF7FEFF 		bl	_ZN3r2p10Bootloader8IteratorppEv
 3417              	.L226:
ARM GAS  /tmp/cc5OZvFd.s 			page 61


 3418              		.loc 15 218 0 is_stmt 0 discriminator 1
 3419 06ec 03AB     		add	r3, sp, #12
 3420 06ee 1846     		mov	r0, r3
 3421 06f0 FFF7FEFF 		bl	_ZN3r2p10Bootloader3endEv
 3422 06f4 02AA     		add	r2, sp, #8
 3423 06f6 03AB     		add	r3, sp, #12
 3424 06f8 1046     		mov	r0, r2
 3425 06fa 1946     		mov	r1, r3
 3426 06fc FFF7FEFF 		bl	_ZNK3r2p10Bootloader8IteratorneERKS1_
 3427 0700 0346     		mov	r3, r0
 3428 0702 002B     		cmp	r3, #0
 3429 0704 7FF4F4AE 		bne	.L231
 3430              	.LBE37:
 3431              		.loc 15 274 0 is_stmt 1
 3432 0708 0198     		ldr	r0, [sp, #4]
 3433 070a 0B21     		movs	r1, #11
 3434 070c FFF7FEFF 		bl	_ZN3r2p10Bootloader5allocENS_7BootMsg8TypeEnumE
 3435              		.loc 15 275 0
 3436 0710 0198     		ldr	r0, [sp, #4]
 3437 0712 FFF7FEFF 		bl	_ZN3r2p10Bootloader7publishEv
 3438              		.loc 15 276 0
 3439 0716 0198     		ldr	r0, [sp, #4]
 3440 0718 0121     		movs	r1, #1
 3441 071a FFF7FEFF 		bl	_ZN3r2p10Bootloader5fetchENS_7BootMsg8TypeEnumE
 3442 071e 0346     		mov	r3, r0
 3443 0720 83F00103 		eor	r3, r3, #1
 3444 0724 DBB2     		uxtb	r3, r3
 3445 0726 002B     		cmp	r3, #0
 3446 0728 06D0     		beq	.L234
 3447              		.loc 15 277 0
 3448 072a 0198     		ldr	r0, [sp, #4]
 3449 072c 40F21511 		movw	r1, #277
 3450 0730 054A     		ldr	r2, .L235
 3451 0732 FFF7FEFF 		bl	_ZN3r2p10Bootloader16do_release_errorEmPKc
 3452              		.loc 15 278 0
 3453 0736 05E0     		b	.L223
 3454              	.L234:
 3455              		.loc 15 280 0
 3456 0738 0198     		ldr	r0, [sp, #4]
 3457 073a FFF7FEFF 		bl	_ZN3r2p10Bootloader7releaseEv
 3458              		.loc 15 281 0
 3459 073e 0198     		ldr	r0, [sp, #4]
 3460 0740 FFF7FEFF 		bl	_ZN3r2p10Bootloader6do_ackEv
 3461              	.L223:
 3462              	.LBE35:
 3463              		.loc 15 282 0
 3464 0744 08B0     		add	sp, sp, #32
 3465              		.cfi_def_cfa_offset 8
 3466              		@ sp needed
 3467 0746 10BD     		pop	{r4, pc}
 3468              	.L236:
 3469              		.align	2
 3470              	.L235:
 3471 0748 14000000 		.word	.LC1
 3472              		.cfi_endproc
 3473              	.LFE414:
 3474              		.size	_ZN3r2p10Bootloader10do_appinfoEv, .-_ZN3r2p10Bootloader10do_appinfoEv
ARM GAS  /tmp/cc5OZvFd.s 			page 62


 3475              		.align	2
 3476              		.global	_ZN3r2p10Bootloader11do_getparamEv
 3477              		.thumb
 3478              		.thumb_func
 3479              		.type	_ZN3r2p10Bootloader11do_getparamEv, %function
 3480              	_ZN3r2p10Bootloader11do_getparamEv:
 3481              	.LFB415:
 3482              		.loc 15 285 0
 3483              		.cfi_startproc
 3484              		@ args = 0, pretend = 0, frame = 32
 3485              		@ frame_needed = 0, uses_anonymous_args = 0
 3486 074c 00B5     		push	{lr}
 3487              		.cfi_def_cfa_offset 4
 3488              		.cfi_offset 14, -4
 3489 074e 89B0     		sub	sp, sp, #36
 3490              		.cfi_def_cfa_offset 40
 3491 0750 0190     		str	r0, [sp, #4]
 3492              	.LBB42:
 3493              		.loc 15 289 0
 3494 0752 0198     		ldr	r0, [sp, #4]
 3495 0754 FFF7FEFF 		bl	_ZN3r2p10Bootloader6do_ackEv
 3496              	.L255:
 3497              	.LBB43:
 3498              	.LBB44:
 3499              		.loc 15 293 0
 3500 0758 0198     		ldr	r0, [sp, #4]
 3501 075a FFF7FEFF 		bl	_ZN3r2p10Bootloader5fetchEv
 3502              		.loc 15 294 0
 3503 075e 019B     		ldr	r3, [sp, #4]
 3504 0760 9B69     		ldr	r3, [r3, #24]
 3505 0762 93F82030 		ldrb	r3, [r3, #32]	@ zero_extendqisi2
 3506 0766 102B     		cmp	r3, #16
 3507 0768 02D0     		beq	.L239
 3508 076a 112B     		cmp	r3, #17
 3509 076c 0ED0     		beq	.L257
 3510 076e 06E0     		b	.L256
 3511              	.L239:
 3512              		.loc 15 297 0
 3513 0770 0198     		ldr	r0, [sp, #4]
 3514 0772 FFF7FEFF 		bl	_ZN3r2p10Bootloader7releaseEv
 3515              		.loc 15 298 0
 3516 0776 0198     		ldr	r0, [sp, #4]
 3517 0778 FFF7FEFF 		bl	_ZN3r2p10Bootloader6do_ackEv
 3518              		.loc 15 299 0
 3519 077c A3E0     		b	.L237
 3520              	.L256:
 3521              		.loc 15 302 0
 3522 077e 0198     		ldr	r0, [sp, #4]
 3523 0780 4FF49771 		mov	r1, #302
 3524 0784 514A     		ldr	r2, .L258
 3525 0786 FFF7FEFF 		bl	_ZN3r2p10Bootloader16do_release_errorEmPKc
 3526              		.loc 15 303 0
 3527 078a 9CE0     		b	.L237
 3528              	.L257:
 3529              		.loc 15 295 0
 3530 078c 00BF     		nop
 3531              		.loc 15 308 0
ARM GAS  /tmp/cc5OZvFd.s 			page 63


 3532 078e 019B     		ldr	r3, [sp, #4]
 3533 0790 9B69     		ldr	r3, [r3, #24]
 3534 0792 0233     		adds	r3, r3, #2
 3535 0794 0593     		str	r3, [sp, #20]
 3536              		.loc 15 309 0
 3537 0796 059B     		ldr	r3, [sp, #20]
 3538 0798 1B7B     		ldrb	r3, [r3, #12]	@ zero_extendqisi2
 3539 079a 002B     		cmp	r3, #0
 3540 079c 06D1     		bne	.L243
 3541              		.loc 15 310 0
 3542 079e 0198     		ldr	r0, [sp, #4]
 3543 07a0 4FF49B71 		mov	r1, #310
 3544 07a4 494A     		ldr	r2, .L258
 3545 07a6 FFF7FEFF 		bl	_ZN3r2p10Bootloader16do_release_errorEmPKc
 3546              		.loc 15 311 0
 3547 07aa 8CE0     		b	.L237
 3548              	.L243:
 3549              		.loc 15 313 0
 3550 07ac 059B     		ldr	r3, [sp, #20]
 3551 07ae 0433     		adds	r3, r3, #4
 3552 07b0 1846     		mov	r0, r3
 3553 07b2 FFF7FEFF 		bl	_ZN3r2p10Bootloader7get_appEPKc
 3554 07b6 0490     		str	r0, [sp, #16]
 3555              		.loc 15 314 0
 3556 07b8 049B     		ldr	r3, [sp, #16]
 3557 07ba 002B     		cmp	r3, #0
 3558 07bc 06D1     		bne	.L244
 3559              		.loc 15 315 0
 3560 07be 0198     		ldr	r0, [sp, #4]
 3561 07c0 40F23B11 		movw	r1, #315
 3562 07c4 414A     		ldr	r2, .L258
 3563 07c6 FFF7FEFF 		bl	_ZN3r2p10Bootloader16do_release_errorEmPKc
 3564              		.loc 15 316 0
 3565 07ca 7CE0     		b	.L237
 3566              	.L244:
 3567              		.loc 15 318 0
 3568 07cc 059B     		ldr	r3, [sp, #20]
 3569 07ce 1B68     		ldr	r3, [r3]	@ unaligned
 3570              		.loc 15 320 0
 3571 07d0 B3F1FF3F 		cmp	r3, #-1
 3572 07d4 05D0     		beq	.L245
 3573              		.loc 15 319 0 discriminator 1
 3574 07d6 049B     		ldr	r3, [sp, #16]
 3575 07d8 9A69     		ldr	r2, [r3, #24]
 3576 07da 059B     		ldr	r3, [sp, #20]
 3577 07dc 1B68     		ldr	r3, [r3]	@ unaligned
 3578              		.loc 15 320 0 discriminator 1
 3579 07de 1344     		add	r3, r3, r2
 3580 07e0 01E0     		b	.L246
 3581              	.L245:
 3582              		.loc 15 320 0 is_stmt 0 discriminator 2
 3583 07e2 049B     		ldr	r3, [sp, #16]
 3584 07e4 4033     		adds	r3, r3, #64
 3585              	.L246:
 3586              		.loc 15 320 0 discriminator 4
 3587 07e6 0793     		str	r3, [sp, #28]
 3588              		.loc 15 321 0 is_stmt 1 discriminator 4
ARM GAS  /tmp/cc5OZvFd.s 			page 64


 3589 07e8 059B     		ldr	r3, [sp, #20]
 3590 07ea 1B7B     		ldrb	r3, [r3, #12]	@ zero_extendqisi2
 3591 07ec 1946     		mov	r1, r3
 3592 07ee 049B     		ldr	r3, [sp, #16]
 3593 07f0 9A69     		ldr	r2, [r3, #24]
 3594 07f2 049B     		ldr	r3, [sp, #16]
 3595 07f4 DB69     		ldr	r3, [r3, #28]
 3596 07f6 0798     		ldr	r0, [sp, #28]
 3597 07f8 FFF7FEFF 		bl	_ZN3r2p12check_boundsEPKvjS1_j
 3598 07fc 0346     		mov	r3, r0
 3599 07fe 83F00103 		eor	r3, r3, #1
 3600 0802 DBB2     		uxtb	r3, r3
 3601 0804 002B     		cmp	r3, #0
 3602 0806 12D0     		beq	.L247
 3603              		.loc 15 323 0 discriminator 1
 3604 0808 059B     		ldr	r3, [sp, #20]
 3605 080a 1B7B     		ldrb	r3, [r3, #12]	@ zero_extendqisi2
 3606 080c 1A46     		mov	r2, r3
 3607 080e 049B     		ldr	r3, [sp, #16]
 3608 0810 4033     		adds	r3, r3, #64
 3609 0812 0798     		ldr	r0, [sp, #28]
 3610 0814 1146     		mov	r1, r2
 3611 0816 1A46     		mov	r2, r3
 3612 0818 0423     		movs	r3, #4
 3613 081a FFF7FEFF 		bl	_ZN3r2p12check_boundsEPKvjS1_j
 3614 081e 0346     		mov	r3, r0
 3615 0820 83F00103 		eor	r3, r3, #1
 3616 0824 DBB2     		uxtb	r3, r3
 3617              		.loc 15 321 0 discriminator 1
 3618 0826 002B     		cmp	r3, #0
 3619 0828 01D0     		beq	.L247
 3620              		.loc 15 321 0 is_stmt 0 discriminator 3
 3621 082a 0123     		movs	r3, #1
 3622 082c 00E0     		b	.L248
 3623              	.L247:
 3624              		.loc 15 321 0 discriminator 4
 3625 082e 0023     		movs	r3, #0
 3626              	.L248:
 3627              		.loc 15 321 0 discriminator 6
 3628 0830 002B     		cmp	r3, #0
 3629 0832 06D0     		beq	.L249
 3630              		.loc 15 324 0 is_stmt 1
 3631 0834 0198     		ldr	r0, [sp, #4]
 3632 0836 4FF4A271 		mov	r1, #324
 3633 083a 244A     		ldr	r2, .L258
 3634 083c FFF7FEFF 		bl	_ZN3r2p10Bootloader16do_release_errorEmPKc
 3635              		.loc 15 325 0
 3636 0840 41E0     		b	.L237
 3637              	.L249:
 3638              		.loc 15 327 0
 3639 0842 059B     		ldr	r3, [sp, #20]
 3640 0844 1B7B     		ldrb	r3, [r3, #12]	@ zero_extendqisi2
 3641 0846 0693     		str	r3, [sp, #24]
 3642              		.loc 15 328 0
 3643 0848 0198     		ldr	r0, [sp, #4]
 3644 084a FFF7FEFF 		bl	_ZN3r2p10Bootloader7releaseEv
 3645              		.loc 15 331 0
ARM GAS  /tmp/cc5OZvFd.s 			page 65


 3646 084e 36E0     		b	.L250
 3647              	.L254:
 3648              	.LBB45:
 3649              		.loc 15 332 0
 3650 0850 0198     		ldr	r0, [sp, #4]
 3651 0852 1221     		movs	r1, #18
 3652 0854 FFF7FEFF 		bl	_ZN3r2p10Bootloader5allocENS_7BootMsg8TypeEnumE
 3653              		.loc 15 333 0
 3654 0858 019B     		ldr	r3, [sp, #4]
 3655 085a DB69     		ldr	r3, [r3, #28]
 3656 085c 0233     		adds	r3, r3, #2
 3657 085e 0393     		str	r3, [sp, #12]
 3658              		.loc 15 334 0
 3659 0860 069B     		ldr	r3, [sp, #24]
 3660 0862 0F2B     		cmp	r3, #15
 3661 0864 0CD9     		bls	.L251
 3662              		.loc 15 335 0
 3663 0866 039B     		ldr	r3, [sp, #12]
 3664 0868 1846     		mov	r0, r3
 3665 086a 0799     		ldr	r1, [sp, #28]
 3666 086c 1022     		movs	r2, #16
 3667 086e FFF7FEFF 		bl	memcpy
 3668              		.loc 15 336 0
 3669 0872 079B     		ldr	r3, [sp, #28]
 3670 0874 1033     		adds	r3, r3, #16
 3671 0876 0793     		str	r3, [sp, #28]
 3672              		.loc 15 337 0
 3673 0878 069B     		ldr	r3, [sp, #24]
 3674 087a 103B     		subs	r3, r3, #16
 3675 087c 0693     		str	r3, [sp, #24]
 3676 087e 07E0     		b	.L252
 3677              	.L251:
 3678              		.loc 15 339 0
 3679 0880 039B     		ldr	r3, [sp, #12]
 3680 0882 1846     		mov	r0, r3
 3681 0884 0799     		ldr	r1, [sp, #28]
 3682 0886 069A     		ldr	r2, [sp, #24]
 3683 0888 FFF7FEFF 		bl	memcpy
 3684              		.loc 15 340 0
 3685 088c 0023     		movs	r3, #0
 3686 088e 0693     		str	r3, [sp, #24]
 3687              	.L252:
 3688              		.loc 15 342 0
 3689 0890 0198     		ldr	r0, [sp, #4]
 3690 0892 FFF7FEFF 		bl	_ZN3r2p10Bootloader7publishEv
 3691              		.loc 15 343 0
 3692 0896 0198     		ldr	r0, [sp, #4]
 3693 0898 0121     		movs	r1, #1
 3694 089a FFF7FEFF 		bl	_ZN3r2p10Bootloader5fetchENS_7BootMsg8TypeEnumE
 3695 089e 0346     		mov	r3, r0
 3696 08a0 83F00103 		eor	r3, r3, #1
 3697 08a4 DBB2     		uxtb	r3, r3
 3698 08a6 002B     		cmp	r3, #0
 3699 08a8 06D0     		beq	.L253
 3700              		.loc 15 344 0
 3701 08aa 0198     		ldr	r0, [sp, #4]
 3702 08ac 4FF4AC71 		mov	r1, #344
ARM GAS  /tmp/cc5OZvFd.s 			page 66


 3703 08b0 064A     		ldr	r2, .L258
 3704 08b2 FFF7FEFF 		bl	_ZN3r2p10Bootloader16do_release_errorEmPKc
 3705              		.loc 15 345 0
 3706 08b6 06E0     		b	.L237
 3707              	.L253:
 3708              		.loc 15 347 0
 3709 08b8 0198     		ldr	r0, [sp, #4]
 3710 08ba FFF7FEFF 		bl	_ZN3r2p10Bootloader7releaseEv
 3711              	.L250:
 3712              	.LBE45:
 3713              		.loc 15 331 0
 3714 08be 069B     		ldr	r3, [sp, #24]
 3715 08c0 002B     		cmp	r3, #0
 3716 08c2 C5D1     		bne	.L254
 3717              	.LBE44:
 3718              		.loc 15 349 0
 3719 08c4 48E7     		b	.L255
 3720              	.L237:
 3721              	.LBE43:
 3722              	.LBE42:
 3723              		.loc 15 350 0
 3724 08c6 09B0     		add	sp, sp, #36
 3725              		.cfi_def_cfa_offset 4
 3726              		@ sp needed
 3727 08c8 5DF804FB 		ldr	pc, [sp], #4
 3728              	.L259:
 3729              		.align	2
 3730              	.L258:
 3731 08cc 14000000 		.word	.LC1
 3732              		.cfi_endproc
 3733              	.LFE415:
 3734              		.size	_ZN3r2p10Bootloader11do_getparamEv, .-_ZN3r2p10Bootloader11do_getparamEv
 3735              		.align	2
 3736              		.global	_ZN3r2p10Bootloader11do_setparamEv
 3737              		.thumb
 3738              		.thumb_func
 3739              		.type	_ZN3r2p10Bootloader11do_setparamEv, %function
 3740              	_ZN3r2p10Bootloader11do_setparamEv:
 3741              	.LFB416:
 3742              		.loc 15 353 0
 3743              		.cfi_startproc
 3744              		@ args = 0, pretend = 0, frame = 32
 3745              		@ frame_needed = 0, uses_anonymous_args = 0
 3746 08d0 00B5     		push	{lr}
 3747              		.cfi_def_cfa_offset 4
 3748              		.cfi_offset 14, -4
 3749 08d2 89B0     		sub	sp, sp, #36
 3750              		.cfi_def_cfa_offset 40
 3751 08d4 0190     		str	r0, [sp, #4]
 3752              	.LBB46:
 3753              		.loc 15 357 0
 3754 08d6 0198     		ldr	r0, [sp, #4]
 3755 08d8 FFF7FEFF 		bl	_ZN3r2p10Bootloader6do_ackEv
 3756              	.L280:
 3757              	.LBB47:
 3758              	.LBB48:
 3759              		.loc 15 361 0
ARM GAS  /tmp/cc5OZvFd.s 			page 67


 3760 08dc 0198     		ldr	r0, [sp, #4]
 3761 08de FFF7FEFF 		bl	_ZN3r2p10Bootloader5fetchEv
 3762              		.loc 15 362 0
 3763 08e2 019B     		ldr	r3, [sp, #4]
 3764 08e4 9B69     		ldr	r3, [r3, #24]
 3765 08e6 93F82030 		ldrb	r3, [r3, #32]	@ zero_extendqisi2
 3766 08ea 0E2B     		cmp	r3, #14
 3767 08ec 02D0     		beq	.L262
 3768 08ee 112B     		cmp	r3, #17
 3769 08f0 0ED0     		beq	.L282
 3770 08f2 06E0     		b	.L281
 3771              	.L262:
 3772              		.loc 15 365 0
 3773 08f4 0198     		ldr	r0, [sp, #4]
 3774 08f6 FFF7FEFF 		bl	_ZN3r2p10Bootloader7releaseEv
 3775              		.loc 15 366 0
 3776 08fa 0198     		ldr	r0, [sp, #4]
 3777 08fc FFF7FEFF 		bl	_ZN3r2p10Bootloader6do_ackEv
 3778              		.loc 15 367 0
 3779 0900 BEE0     		b	.L260
 3780              	.L281:
 3781              		.loc 15 370 0
 3782 0902 0198     		ldr	r0, [sp, #4]
 3783 0904 4FF4B971 		mov	r1, #370
 3784 0908 5F4A     		ldr	r2, .L283
 3785 090a FFF7FEFF 		bl	_ZN3r2p10Bootloader16do_release_errorEmPKc
 3786              		.loc 15 371 0
 3787 090e B7E0     		b	.L260
 3788              	.L282:
 3789              		.loc 15 363 0
 3790 0910 00BF     		nop
 3791              		.loc 15 376 0
 3792 0912 019B     		ldr	r3, [sp, #4]
 3793 0914 9B69     		ldr	r3, [r3, #24]
 3794 0916 0233     		adds	r3, r3, #2
 3795 0918 0593     		str	r3, [sp, #20]
 3796              		.loc 15 377 0
 3797 091a 059B     		ldr	r3, [sp, #20]
 3798 091c 1B7B     		ldrb	r3, [r3, #12]	@ zero_extendqisi2
 3799 091e 002B     		cmp	r3, #0
 3800 0920 06D1     		bne	.L266
 3801              		.loc 15 378 0
 3802 0922 0198     		ldr	r0, [sp, #4]
 3803 0924 4FF4BD71 		mov	r1, #378
 3804 0928 574A     		ldr	r2, .L283
 3805 092a FFF7FEFF 		bl	_ZN3r2p10Bootloader16do_release_errorEmPKc
 3806              		.loc 15 379 0
 3807 092e A7E0     		b	.L260
 3808              	.L266:
 3809              		.loc 15 381 0
 3810 0930 059B     		ldr	r3, [sp, #20]
 3811 0932 0433     		adds	r3, r3, #4
 3812 0934 1846     		mov	r0, r3
 3813 0936 FFF7FEFF 		bl	_ZN3r2p10Bootloader7get_appEPKc
 3814 093a 0490     		str	r0, [sp, #16]
 3815              		.loc 15 382 0
 3816 093c 049B     		ldr	r3, [sp, #16]
ARM GAS  /tmp/cc5OZvFd.s 			page 68


 3817 093e 002B     		cmp	r3, #0
 3818 0940 06D1     		bne	.L267
 3819              		.loc 15 383 0
 3820 0942 0198     		ldr	r0, [sp, #4]
 3821 0944 40F27F11 		movw	r1, #383
 3822 0948 4F4A     		ldr	r2, .L283
 3823 094a FFF7FEFF 		bl	_ZN3r2p10Bootloader16do_release_errorEmPKc
 3824              		.loc 15 384 0
 3825 094e 97E0     		b	.L260
 3826              	.L267:
 3827              		.loc 15 386 0
 3828 0950 059B     		ldr	r3, [sp, #20]
 3829 0952 1B68     		ldr	r3, [r3]	@ unaligned
 3830              		.loc 15 388 0
 3831 0954 B3F1FF3F 		cmp	r3, #-1
 3832 0958 05D0     		beq	.L268
 3833              		.loc 15 387 0 discriminator 1
 3834 095a 049B     		ldr	r3, [sp, #16]
 3835 095c 9A69     		ldr	r2, [r3, #24]
 3836 095e 059B     		ldr	r3, [sp, #20]
 3837 0960 1B68     		ldr	r3, [r3]	@ unaligned
 3838              		.loc 15 388 0 discriminator 1
 3839 0962 1344     		add	r3, r3, r2
 3840 0964 01E0     		b	.L269
 3841              	.L268:
 3842              		.loc 15 388 0 is_stmt 0 discriminator 2
 3843 0966 049B     		ldr	r3, [sp, #16]
 3844 0968 4033     		adds	r3, r3, #64
 3845              	.L269:
 3846              		.loc 15 388 0 discriminator 4
 3847 096a 0793     		str	r3, [sp, #28]
 3848              		.loc 15 389 0 is_stmt 1 discriminator 4
 3849 096c 059B     		ldr	r3, [sp, #20]
 3850 096e 1B7B     		ldrb	r3, [r3, #12]	@ zero_extendqisi2
 3851 0970 1946     		mov	r1, r3
 3852 0972 049B     		ldr	r3, [sp, #16]
 3853 0974 9A69     		ldr	r2, [r3, #24]
 3854 0976 049B     		ldr	r3, [sp, #16]
 3855 0978 DB69     		ldr	r3, [r3, #28]
 3856 097a 0798     		ldr	r0, [sp, #28]
 3857 097c FFF7FEFF 		bl	_ZN3r2p12check_boundsEPKvjS1_j
 3858 0980 0346     		mov	r3, r0
 3859 0982 83F00103 		eor	r3, r3, #1
 3860 0986 DBB2     		uxtb	r3, r3
 3861 0988 002B     		cmp	r3, #0
 3862 098a 12D0     		beq	.L270
 3863              		.loc 15 391 0 discriminator 1
 3864 098c 059B     		ldr	r3, [sp, #20]
 3865 098e 1B7B     		ldrb	r3, [r3, #12]	@ zero_extendqisi2
 3866 0990 1A46     		mov	r2, r3
 3867 0992 049B     		ldr	r3, [sp, #16]
 3868 0994 4033     		adds	r3, r3, #64
 3869 0996 0798     		ldr	r0, [sp, #28]
 3870 0998 1146     		mov	r1, r2
 3871 099a 1A46     		mov	r2, r3
 3872 099c 0423     		movs	r3, #4
 3873 099e FFF7FEFF 		bl	_ZN3r2p12check_boundsEPKvjS1_j
ARM GAS  /tmp/cc5OZvFd.s 			page 69


 3874 09a2 0346     		mov	r3, r0
 3875 09a4 83F00103 		eor	r3, r3, #1
 3876 09a8 DBB2     		uxtb	r3, r3
 3877              		.loc 15 389 0 discriminator 1
 3878 09aa 002B     		cmp	r3, #0
 3879 09ac 01D0     		beq	.L270
 3880              		.loc 15 389 0 is_stmt 0 discriminator 3
 3881 09ae 0123     		movs	r3, #1
 3882 09b0 00E0     		b	.L271
 3883              	.L270:
 3884              		.loc 15 389 0 discriminator 4
 3885 09b2 0023     		movs	r3, #0
 3886              	.L271:
 3887              		.loc 15 389 0 discriminator 6
 3888 09b4 002B     		cmp	r3, #0
 3889 09b6 06D0     		beq	.L272
 3890              		.loc 15 392 0 is_stmt 1
 3891 09b8 0198     		ldr	r0, [sp, #4]
 3892 09ba 4FF4C471 		mov	r1, #392
 3893 09be 324A     		ldr	r2, .L283
 3894 09c0 FFF7FEFF 		bl	_ZN3r2p10Bootloader16do_release_errorEmPKc
 3895              		.loc 15 393 0
 3896 09c4 5CE0     		b	.L260
 3897              	.L272:
 3898              		.loc 15 395 0
 3899 09c6 059B     		ldr	r3, [sp, #20]
 3900 09c8 1B7B     		ldrb	r3, [r3, #12]	@ zero_extendqisi2
 3901 09ca 0693     		str	r3, [sp, #24]
 3902              		.loc 15 396 0
 3903 09cc 0198     		ldr	r0, [sp, #4]
 3904 09ce FFF7FEFF 		bl	_ZN3r2p10Bootloader7releaseEv
 3905              		.loc 15 397 0
 3906 09d2 0198     		ldr	r0, [sp, #4]
 3907 09d4 FFF7FEFF 		bl	_ZN3r2p10Bootloader6do_ackEv
 3908              		.loc 15 400 0
 3909 09d8 4EE0     		b	.L273
 3910              	.L279:
 3911              	.LBB49:
 3912              		.loc 15 401 0
 3913 09da 0198     		ldr	r0, [sp, #4]
 3914 09dc 1221     		movs	r1, #18
 3915 09de FFF7FEFF 		bl	_ZN3r2p10Bootloader5fetchENS_7BootMsg8TypeEnumE
 3916 09e2 0346     		mov	r3, r0
 3917 09e4 83F00103 		eor	r3, r3, #1
 3918 09e8 DBB2     		uxtb	r3, r3
 3919 09ea 002B     		cmp	r3, #0
 3920 09ec 06D0     		beq	.L274
 3921              		.loc 15 402 0
 3922 09ee 0198     		ldr	r0, [sp, #4]
 3923 09f0 4FF4C971 		mov	r1, #402
 3924 09f4 244A     		ldr	r2, .L283
 3925 09f6 FFF7FEFF 		bl	_ZN3r2p10Bootloader16do_release_errorEmPKc
 3926              		.loc 15 403 0
 3927 09fa 41E0     		b	.L260
 3928              	.L274:
 3929              		.loc 15 405 0
 3930 09fc 019B     		ldr	r3, [sp, #4]
ARM GAS  /tmp/cc5OZvFd.s 			page 70


 3931 09fe 9B69     		ldr	r3, [r3, #24]
 3932 0a00 0233     		adds	r3, r3, #2
 3933 0a02 0393     		str	r3, [sp, #12]
 3934              		.loc 15 406 0
 3935 0a04 069B     		ldr	r3, [sp, #24]
 3936 0a06 0F2B     		cmp	r3, #15
 3937 0a08 1AD9     		bls	.L275
 3938              		.loc 15 407 0
 3939 0a0a 039B     		ldr	r3, [sp, #12]
 3940 0a0c 0198     		ldr	r0, [sp, #4]
 3941 0a0e 0799     		ldr	r1, [sp, #28]
 3942 0a10 1A46     		mov	r2, r3
 3943 0a12 1023     		movs	r3, #16
 3944 0a14 FFF7FEFF 		bl	_ZN3r2p10Bootloader5writeEPKvS2_j
 3945 0a18 0346     		mov	r3, r0
 3946 0a1a 83F00103 		eor	r3, r3, #1
 3947 0a1e DBB2     		uxtb	r3, r3
 3948 0a20 002B     		cmp	r3, #0
 3949 0a22 06D0     		beq	.L276
 3950              		.loc 15 408 0
 3951 0a24 0198     		ldr	r0, [sp, #4]
 3952 0a26 4FF4CC71 		mov	r1, #408
 3953 0a2a 174A     		ldr	r2, .L283
 3954 0a2c FFF7FEFF 		bl	_ZN3r2p10Bootloader16do_release_errorEmPKc
 3955              		.loc 15 409 0
 3956 0a30 26E0     		b	.L260
 3957              	.L276:
 3958              		.loc 15 411 0
 3959 0a32 079B     		ldr	r3, [sp, #28]
 3960 0a34 1033     		adds	r3, r3, #16
 3961 0a36 0793     		str	r3, [sp, #28]
 3962              		.loc 15 412 0
 3963 0a38 069B     		ldr	r3, [sp, #24]
 3964 0a3a 103B     		subs	r3, r3, #16
 3965 0a3c 0693     		str	r3, [sp, #24]
 3966 0a3e 15E0     		b	.L277
 3967              	.L275:
 3968              		.loc 15 414 0
 3969 0a40 039B     		ldr	r3, [sp, #12]
 3970 0a42 0198     		ldr	r0, [sp, #4]
 3971 0a44 0799     		ldr	r1, [sp, #28]
 3972 0a46 1A46     		mov	r2, r3
 3973 0a48 069B     		ldr	r3, [sp, #24]
 3974 0a4a FFF7FEFF 		bl	_ZN3r2p10Bootloader5writeEPKvS2_j
 3975 0a4e 0346     		mov	r3, r0
 3976 0a50 83F00103 		eor	r3, r3, #1
 3977 0a54 DBB2     		uxtb	r3, r3
 3978 0a56 002B     		cmp	r3, #0
 3979 0a58 06D0     		beq	.L278
 3980              		.loc 15 415 0
 3981 0a5a 0198     		ldr	r0, [sp, #4]
 3982 0a5c 40F29F11 		movw	r1, #415
 3983 0a60 094A     		ldr	r2, .L283
 3984 0a62 FFF7FEFF 		bl	_ZN3r2p10Bootloader16do_release_errorEmPKc
 3985              		.loc 15 416 0
 3986 0a66 0BE0     		b	.L260
 3987              	.L278:
ARM GAS  /tmp/cc5OZvFd.s 			page 71


 3988              		.loc 15 418 0
 3989 0a68 0023     		movs	r3, #0
 3990 0a6a 0693     		str	r3, [sp, #24]
 3991              	.L277:
 3992              		.loc 15 420 0
 3993 0a6c 0198     		ldr	r0, [sp, #4]
 3994 0a6e FFF7FEFF 		bl	_ZN3r2p10Bootloader7releaseEv
 3995              		.loc 15 421 0
 3996 0a72 0198     		ldr	r0, [sp, #4]
 3997 0a74 FFF7FEFF 		bl	_ZN3r2p10Bootloader6do_ackEv
 3998              	.L273:
 3999              	.LBE49:
 4000              		.loc 15 400 0
 4001 0a78 069B     		ldr	r3, [sp, #24]
 4002 0a7a 002B     		cmp	r3, #0
 4003 0a7c ADD1     		bne	.L279
 4004              	.LBE48:
 4005              		.loc 15 423 0
 4006 0a7e 2DE7     		b	.L280
 4007              	.L260:
 4008              	.LBE47:
 4009              	.LBE46:
 4010              		.loc 15 424 0
 4011 0a80 09B0     		add	sp, sp, #36
 4012              		.cfi_def_cfa_offset 4
 4013              		@ sp needed
 4014 0a82 5DF804FB 		ldr	pc, [sp], #4
 4015              	.L284:
 4016 0a86 00BF     		.align	2
 4017              	.L283:
 4018 0a88 14000000 		.word	.LC1
 4019              		.cfi_endproc
 4020              	.LFE416:
 4021              		.size	_ZN3r2p10Bootloader11do_setparamEv, .-_ZN3r2p10Bootloader11do_setparamEv
 4022              		.align	2
 4023              		.global	_ZN3r2p10Bootloader6do_ackEv
 4024              		.thumb
 4025              		.thumb_func
 4026              		.type	_ZN3r2p10Bootloader6do_ackEv, %function
 4027              	_ZN3r2p10Bootloader6do_ackEv:
 4028              	.LFB417:
 4029              		.loc 15 427 0
 4030              		.cfi_startproc
 4031              		@ args = 0, pretend = 0, frame = 8
 4032              		@ frame_needed = 0, uses_anonymous_args = 0
 4033 0a8c 00B5     		push	{lr}
 4034              		.cfi_def_cfa_offset 4
 4035              		.cfi_offset 14, -4
 4036 0a8e 83B0     		sub	sp, sp, #12
 4037              		.cfi_def_cfa_offset 16
 4038 0a90 0190     		str	r0, [sp, #4]
 4039              		.loc 15 429 0
 4040 0a92 0198     		ldr	r0, [sp, #4]
 4041 0a94 0121     		movs	r1, #1
 4042 0a96 FFF7FEFF 		bl	_ZN3r2p10Bootloader5allocENS_7BootMsg8TypeEnumE
 4043              		.loc 15 430 0
 4044 0a9a 0198     		ldr	r0, [sp, #4]
ARM GAS  /tmp/cc5OZvFd.s 			page 72


 4045 0a9c FFF7FEFF 		bl	_ZN3r2p10Bootloader7publishEv
 4046              		.loc 15 431 0
 4047 0aa0 03B0     		add	sp, sp, #12
 4048              		.cfi_def_cfa_offset 4
 4049              		@ sp needed
 4050 0aa2 5DF804FB 		ldr	pc, [sp], #4
 4051              		.cfi_endproc
 4052              	.LFE417:
 4053              		.size	_ZN3r2p10Bootloader6do_ackEv, .-_ZN3r2p10Bootloader6do_ackEv
 4054 0aa6 00BF     		.align	2
 4055              		.global	_ZN3r2p10Bootloader8do_errorEmPKc
 4056              		.thumb
 4057              		.thumb_func
 4058              		.type	_ZN3r2p10Bootloader8do_errorEmPKc, %function
 4059              	_ZN3r2p10Bootloader8do_errorEmPKc:
 4060              	.LFB418:
 4061              		.loc 15 434 0
 4062              		.cfi_startproc
 4063              		@ args = 0, pretend = 0, frame = 16
 4064              		@ frame_needed = 0, uses_anonymous_args = 0
 4065 0aa8 00B5     		push	{lr}
 4066              		.cfi_def_cfa_offset 4
 4067              		.cfi_offset 14, -4
 4068 0aaa 85B0     		sub	sp, sp, #20
 4069              		.cfi_def_cfa_offset 24
 4070 0aac 0390     		str	r0, [sp, #12]
 4071 0aae 0291     		str	r1, [sp, #8]
 4072 0ab0 0192     		str	r2, [sp, #4]
 4073              		.loc 15 436 0
 4074 0ab2 0398     		ldr	r0, [sp, #12]
 4075 0ab4 0021     		movs	r1, #0
 4076 0ab6 FFF7FEFF 		bl	_ZN3r2p10Bootloader5allocENS_7BootMsg8TypeEnumE
 4077              		.loc 15 437 0
 4078 0aba 039B     		ldr	r3, [sp, #12]
 4079 0abc DB69     		ldr	r3, [r3, #28]
 4080 0abe 029A     		ldr	r2, [sp, #8]
 4081 0ac0 92B2     		uxth	r2, r2
 4082 0ac2 5A80     		strh	r2, [r3, #2]	@ unaligned
 4083              		.loc 15 439 0
 4084 0ac4 039B     		ldr	r3, [sp, #12]
 4085 0ac6 DB69     		ldr	r3, [r3, #28]
 4086 0ac8 0633     		adds	r3, r3, #6
 4087 0aca 1846     		mov	r0, r3
 4088 0acc 0199     		ldr	r1, [sp, #4]
 4089 0ace 1822     		movs	r2, #24
 4090 0ad0 FFF7FEFF 		bl	strncpy
 4091              		.loc 15 440 0
 4092 0ad4 0398     		ldr	r0, [sp, #12]
 4093 0ad6 FFF7FEFF 		bl	_ZN3r2p10Bootloader7publishEv
 4094              		.loc 15 441 0
 4095 0ada 05B0     		add	sp, sp, #20
 4096              		.cfi_def_cfa_offset 4
 4097              		@ sp needed
 4098 0adc 5DF804FB 		ldr	pc, [sp], #4
 4099              		.cfi_endproc
 4100              	.LFE418:
 4101              		.size	_ZN3r2p10Bootloader8do_errorEmPKc, .-_ZN3r2p10Bootloader8do_errorEmPKc
ARM GAS  /tmp/cc5OZvFd.s 			page 73


 4102              		.align	2
 4103              		.global	_ZN3r2p10Bootloader16do_release_errorEmPKc
 4104              		.thumb
 4105              		.thumb_func
 4106              		.type	_ZN3r2p10Bootloader16do_release_errorEmPKc, %function
 4107              	_ZN3r2p10Bootloader16do_release_errorEmPKc:
 4108              	.LFB419:
 4109              		.loc 15 444 0
 4110              		.cfi_startproc
 4111              		@ args = 0, pretend = 0, frame = 16
 4112              		@ frame_needed = 0, uses_anonymous_args = 0
 4113 0ae0 00B5     		push	{lr}
 4114              		.cfi_def_cfa_offset 4
 4115              		.cfi_offset 14, -4
 4116 0ae2 85B0     		sub	sp, sp, #20
 4117              		.cfi_def_cfa_offset 24
 4118 0ae4 0390     		str	r0, [sp, #12]
 4119 0ae6 0291     		str	r1, [sp, #8]
 4120 0ae8 0192     		str	r2, [sp, #4]
 4121              		.loc 15 446 0
 4122 0aea 0398     		ldr	r0, [sp, #12]
 4123 0aec FFF7FEFF 		bl	_ZN3r2p10Bootloader7releaseEv
 4124              		.loc 15 447 0
 4125 0af0 0398     		ldr	r0, [sp, #12]
 4126 0af2 0021     		movs	r1, #0
 4127 0af4 FFF7FEFF 		bl	_ZN3r2p10Bootloader5allocENS_7BootMsg8TypeEnumE
 4128              		.loc 15 448 0
 4129 0af8 039B     		ldr	r3, [sp, #12]
 4130 0afa DB69     		ldr	r3, [r3, #28]
 4131 0afc 029A     		ldr	r2, [sp, #8]
 4132 0afe 92B2     		uxth	r2, r2
 4133 0b00 5A80     		strh	r2, [r3, #2]	@ unaligned
 4134              		.loc 15 450 0
 4135 0b02 039B     		ldr	r3, [sp, #12]
 4136 0b04 DB69     		ldr	r3, [r3, #28]
 4137 0b06 0633     		adds	r3, r3, #6
 4138 0b08 1846     		mov	r0, r3
 4139 0b0a 0199     		ldr	r1, [sp, #4]
 4140 0b0c 1822     		movs	r2, #24
 4141 0b0e FFF7FEFF 		bl	strncpy
 4142              		.loc 15 451 0
 4143 0b12 0398     		ldr	r0, [sp, #12]
 4144 0b14 FFF7FEFF 		bl	_ZN3r2p10Bootloader7publishEv
 4145              		.loc 15 452 0
 4146 0b18 05B0     		add	sp, sp, #20
 4147              		.cfi_def_cfa_offset 4
 4148              		@ sp needed
 4149 0b1a 5DF804FB 		ldr	pc, [sp], #4
 4150              		.cfi_endproc
 4151              	.LFE419:
 4152              		.size	_ZN3r2p10Bootloader16do_release_errorEmPKc, .-_ZN3r2p10Bootloader16do_release_errorEmPKc
 4153 0b1e 00BF     		.align	2
 4154              		.global	_ZN3r2p10Bootloader13write_appinfoEPKNS0_12FlashAppInfoERKNS_7BootMsg12LinkingSetupERKNS4_
 4155              		.thumb
 4156              		.thumb_func
 4157              		.type	_ZN3r2p10Bootloader13write_appinfoEPKNS0_12FlashAppInfoERKNS_7BootMsg12LinkingSetupERKNS4_16
 4158              	_ZN3r2p10Bootloader13write_appinfoEPKNS0_12FlashAppInfoERKNS_7BootMsg12LinkingSetupERKNS4_16Linking
ARM GAS  /tmp/cc5OZvFd.s 			page 74


 4159              	.LFB420:
 4160              		.loc 15 458 0
 4161              		.cfi_startproc
 4162              		@ args = 4, pretend = 0, frame = 24
 4163              		@ frame_needed = 0, uses_anonymous_args = 0
 4164 0b20 00B5     		push	{lr}
 4165              		.cfi_def_cfa_offset 4
 4166              		.cfi_offset 14, -4
 4167 0b22 87B0     		sub	sp, sp, #28
 4168              		.cfi_def_cfa_offset 32
 4169 0b24 0390     		str	r0, [sp, #12]
 4170 0b26 0291     		str	r1, [sp, #8]
 4171 0b28 0192     		str	r2, [sp, #4]
 4172 0b2a 0093     		str	r3, [sp]
 4173              	.LBB50:
 4174              		.loc 15 465 0
 4175 0b2c 984B     		ldr	r3, .L307
 4176 0b2e 0593     		str	r3, [sp, #20]
 4177              		.loc 15 466 0
 4178 0b30 029A     		ldr	r2, [sp, #8]
 4179 0b32 05AB     		add	r3, sp, #20
 4180 0b34 0398     		ldr	r0, [sp, #12]
 4181 0b36 1146     		mov	r1, r2
 4182 0b38 1A46     		mov	r2, r3
 4183 0b3a 0423     		movs	r3, #4
 4184 0b3c FFF7FEFF 		bl	_ZN3r2p10Bootloader5writeEPKvS2_j
 4185 0b40 0346     		mov	r3, r0
 4186 0b42 83F00103 		eor	r3, r3, #1
 4187 0b46 DBB2     		uxtb	r3, r3
 4188 0b48 002B     		cmp	r3, #0
 4189 0b4a 01D0     		beq	.L289
 4190              		.loc 15 466 0 is_stmt 0 discriminator 1
 4191 0b4c 0023     		movs	r3, #0
 4192 0b4e 1AE1     		b	.L306
 4193              	.L289:
 4194              		.loc 15 467 0 is_stmt 1
 4195 0b50 029B     		ldr	r3, [sp, #8]
 4196 0b52 1A1D     		adds	r2, r3, #4
 4197 0b54 019B     		ldr	r3, [sp, #4]
 4198 0b56 0398     		ldr	r0, [sp, #12]
 4199 0b58 1146     		mov	r1, r2
 4200 0b5a 1A46     		mov	r2, r3
 4201 0b5c 0423     		movs	r3, #4
 4202 0b5e FFF7FEFF 		bl	_ZN3r2p10Bootloader5writeEPKvS2_j
 4203 0b62 0346     		mov	r3, r0
 4204 0b64 83F00103 		eor	r3, r3, #1
 4205 0b68 DBB2     		uxtb	r3, r3
 4206 0b6a 002B     		cmp	r3, #0
 4207 0b6c 01D0     		beq	.L291
 4208              		.loc 15 467 0 is_stmt 0 discriminator 1
 4209 0b6e 0023     		movs	r3, #0
 4210 0b70 09E1     		b	.L306
 4211              	.L291:
 4212              		.loc 15 468 0 is_stmt 1
 4213 0b72 029B     		ldr	r3, [sp, #8]
 4214 0b74 03F10802 		add	r2, r3, #8
 4215 0b78 019B     		ldr	r3, [sp, #4]
ARM GAS  /tmp/cc5OZvFd.s 			page 75


 4216 0b7a 0433     		adds	r3, r3, #4
 4217 0b7c 0398     		ldr	r0, [sp, #12]
 4218 0b7e 1146     		mov	r1, r2
 4219 0b80 1A46     		mov	r2, r3
 4220 0b82 0423     		movs	r3, #4
 4221 0b84 FFF7FEFF 		bl	_ZN3r2p10Bootloader5writeEPKvS2_j
 4222 0b88 0346     		mov	r3, r0
 4223 0b8a 83F00103 		eor	r3, r3, #1
 4224 0b8e DBB2     		uxtb	r3, r3
 4225 0b90 002B     		cmp	r3, #0
 4226 0b92 01D0     		beq	.L292
 4227              		.loc 15 468 0 is_stmt 0 discriminator 1
 4228 0b94 0023     		movs	r3, #0
 4229 0b96 F6E0     		b	.L306
 4230              	.L292:
 4231              		.loc 15 469 0 is_stmt 1
 4232 0b98 029B     		ldr	r3, [sp, #8]
 4233 0b9a 03F10C02 		add	r2, r3, #12
 4234 0b9e 019B     		ldr	r3, [sp, #4]
 4235 0ba0 0833     		adds	r3, r3, #8
 4236 0ba2 0398     		ldr	r0, [sp, #12]
 4237 0ba4 1146     		mov	r1, r2
 4238 0ba6 1A46     		mov	r2, r3
 4239 0ba8 0423     		movs	r3, #4
 4240 0baa FFF7FEFF 		bl	_ZN3r2p10Bootloader5writeEPKvS2_j
 4241 0bae 0346     		mov	r3, r0
 4242 0bb0 83F00103 		eor	r3, r3, #1
 4243 0bb4 DBB2     		uxtb	r3, r3
 4244 0bb6 002B     		cmp	r3, #0
 4245 0bb8 01D0     		beq	.L293
 4246              		.loc 15 469 0 is_stmt 0 discriminator 1
 4247 0bba 0023     		movs	r3, #0
 4248 0bbc E3E0     		b	.L306
 4249              	.L293:
 4250              		.loc 15 470 0 is_stmt 1
 4251 0bbe 029B     		ldr	r3, [sp, #8]
 4252 0bc0 03F11002 		add	r2, r3, #16
 4253 0bc4 009B     		ldr	r3, [sp]
 4254 0bc6 0833     		adds	r3, r3, #8
 4255 0bc8 0398     		ldr	r0, [sp, #12]
 4256 0bca 1146     		mov	r1, r2
 4257 0bcc 1A46     		mov	r2, r3
 4258 0bce 0423     		movs	r3, #4
 4259 0bd0 FFF7FEFF 		bl	_ZN3r2p10Bootloader5writeEPKvS2_j
 4260 0bd4 0346     		mov	r3, r0
 4261 0bd6 83F00103 		eor	r3, r3, #1
 4262 0bda DBB2     		uxtb	r3, r3
 4263 0bdc 002B     		cmp	r3, #0
 4264 0bde 01D0     		beq	.L294
 4265              		.loc 15 470 0 is_stmt 0 discriminator 1
 4266 0be0 0023     		movs	r3, #0
 4267 0be2 D0E0     		b	.L306
 4268              	.L294:
 4269              		.loc 15 471 0 is_stmt 1
 4270 0be4 029B     		ldr	r3, [sp, #8]
 4271 0be6 03F11402 		add	r2, r3, #20
 4272 0bea 009B     		ldr	r3, [sp]
ARM GAS  /tmp/cc5OZvFd.s 			page 76


 4273 0bec 0C33     		adds	r3, r3, #12
 4274 0bee 0398     		ldr	r0, [sp, #12]
 4275 0bf0 1146     		mov	r1, r2
 4276 0bf2 1A46     		mov	r2, r3
 4277 0bf4 0423     		movs	r3, #4
 4278 0bf6 FFF7FEFF 		bl	_ZN3r2p10Bootloader5writeEPKvS2_j
 4279 0bfa 0346     		mov	r3, r0
 4280 0bfc 83F00103 		eor	r3, r3, #1
 4281 0c00 DBB2     		uxtb	r3, r3
 4282 0c02 002B     		cmp	r3, #0
 4283 0c04 01D0     		beq	.L295
 4284              		.loc 15 471 0 is_stmt 0 discriminator 1
 4285 0c06 0023     		movs	r3, #0
 4286 0c08 BDE0     		b	.L306
 4287              	.L295:
 4288              		.loc 15 472 0 is_stmt 1
 4289 0c0a 029B     		ldr	r3, [sp, #8]
 4290 0c0c 03F11802 		add	r2, r3, #24
 4291 0c10 089B     		ldr	r3, [sp, #32]
 4292 0c12 0433     		adds	r3, r3, #4
 4293 0c14 0398     		ldr	r0, [sp, #12]
 4294 0c16 1146     		mov	r1, r2
 4295 0c18 1A46     		mov	r2, r3
 4296 0c1a 0423     		movs	r3, #4
 4297 0c1c FFF7FEFF 		bl	_ZN3r2p10Bootloader5writeEPKvS2_j
 4298 0c20 0346     		mov	r3, r0
 4299 0c22 83F00103 		eor	r3, r3, #1
 4300 0c26 DBB2     		uxtb	r3, r3
 4301 0c28 002B     		cmp	r3, #0
 4302 0c2a 01D0     		beq	.L296
 4303              		.loc 15 472 0 is_stmt 0 discriminator 1
 4304 0c2c 0023     		movs	r3, #0
 4305 0c2e AAE0     		b	.L306
 4306              	.L296:
 4307              		.loc 15 473 0 is_stmt 1
 4308 0c30 029B     		ldr	r3, [sp, #8]
 4309 0c32 03F11C02 		add	r2, r3, #28
 4310 0c36 089B     		ldr	r3, [sp, #32]
 4311 0c38 0833     		adds	r3, r3, #8
 4312 0c3a 0398     		ldr	r0, [sp, #12]
 4313 0c3c 1146     		mov	r1, r2
 4314 0c3e 1A46     		mov	r2, r3
 4315 0c40 0423     		movs	r3, #4
 4316 0c42 FFF7FEFF 		bl	_ZN3r2p10Bootloader5writeEPKvS2_j
 4317 0c46 0346     		mov	r3, r0
 4318 0c48 83F00103 		eor	r3, r3, #1
 4319 0c4c DBB2     		uxtb	r3, r3
 4320 0c4e 002B     		cmp	r3, #0
 4321 0c50 01D0     		beq	.L297
 4322              		.loc 15 473 0 is_stmt 0 discriminator 1
 4323 0c52 0023     		movs	r3, #0
 4324 0c54 97E0     		b	.L306
 4325              	.L297:
 4326              		.loc 15 474 0 is_stmt 1
 4327 0c56 029B     		ldr	r3, [sp, #8]
 4328 0c58 03F12002 		add	r2, r3, #32
 4329 0c5c 019B     		ldr	r3, [sp, #4]
ARM GAS  /tmp/cc5OZvFd.s 			page 77


 4330 0c5e 0C33     		adds	r3, r3, #12
 4331 0c60 0398     		ldr	r0, [sp, #12]
 4332 0c62 1146     		mov	r1, r2
 4333 0c64 1A46     		mov	r2, r3
 4334 0c66 0423     		movs	r3, #4
 4335 0c68 FFF7FEFF 		bl	_ZN3r2p10Bootloader5writeEPKvS2_j
 4336 0c6c 0346     		mov	r3, r0
 4337 0c6e 83F00103 		eor	r3, r3, #1
 4338 0c72 DBB2     		uxtb	r3, r3
 4339 0c74 002B     		cmp	r3, #0
 4340 0c76 01D0     		beq	.L298
 4341              		.loc 15 474 0 is_stmt 0 discriminator 1
 4342 0c78 0023     		movs	r3, #0
 4343 0c7a 84E0     		b	.L306
 4344              	.L298:
 4345              		.loc 15 475 0 is_stmt 1
 4346 0c7c 029B     		ldr	r3, [sp, #8]
 4347 0c7e 03F12402 		add	r2, r3, #36
 4348 0c82 089B     		ldr	r3, [sp, #32]
 4349 0c84 0398     		ldr	r0, [sp, #12]
 4350 0c86 1146     		mov	r1, r2
 4351 0c88 1A46     		mov	r2, r3
 4352 0c8a 0423     		movs	r3, #4
 4353 0c8c FFF7FEFF 		bl	_ZN3r2p10Bootloader5writeEPKvS2_j
 4354 0c90 0346     		mov	r3, r0
 4355 0c92 83F00103 		eor	r3, r3, #1
 4356 0c96 DBB2     		uxtb	r3, r3
 4357 0c98 002B     		cmp	r3, #0
 4358 0c9a 01D0     		beq	.L299
 4359              		.loc 15 475 0 is_stmt 0 discriminator 1
 4360 0c9c 0023     		movs	r3, #0
 4361 0c9e 72E0     		b	.L306
 4362              	.L299:
 4363              		.loc 15 476 0 is_stmt 1
 4364 0ca0 029B     		ldr	r3, [sp, #8]
 4365 0ca2 03F12802 		add	r2, r3, #40
 4366 0ca6 089B     		ldr	r3, [sp, #32]
 4367 0ca8 0C33     		adds	r3, r3, #12
 4368 0caa 0398     		ldr	r0, [sp, #12]
 4369 0cac 1146     		mov	r1, r2
 4370 0cae 1A46     		mov	r2, r3
 4371 0cb0 0423     		movs	r3, #4
 4372 0cb2 FFF7FEFF 		bl	_ZN3r2p10Bootloader5writeEPKvS2_j
 4373 0cb6 0346     		mov	r3, r0
 4374 0cb8 83F00103 		eor	r3, r3, #1
 4375 0cbc DBB2     		uxtb	r3, r3
 4376 0cbe 002B     		cmp	r3, #0
 4377 0cc0 01D0     		beq	.L300
 4378              		.loc 15 476 0 is_stmt 0 discriminator 1
 4379 0cc2 0023     		movs	r3, #0
 4380 0cc4 5FE0     		b	.L306
 4381              	.L300:
 4382              		.loc 15 477 0 is_stmt 1
 4383 0cc6 029B     		ldr	r3, [sp, #8]
 4384 0cc8 03F12C02 		add	r2, r3, #44
 4385 0ccc 089B     		ldr	r3, [sp, #32]
 4386 0cce 1033     		adds	r3, r3, #16
ARM GAS  /tmp/cc5OZvFd.s 			page 78


 4387 0cd0 0398     		ldr	r0, [sp, #12]
 4388 0cd2 1146     		mov	r1, r2
 4389 0cd4 1A46     		mov	r2, r3
 4390 0cd6 0423     		movs	r3, #4
 4391 0cd8 FFF7FEFF 		bl	_ZN3r2p10Bootloader5writeEPKvS2_j
 4392 0cdc 0346     		mov	r3, r0
 4393 0cde 83F00103 		eor	r3, r3, #1
 4394 0ce2 DBB2     		uxtb	r3, r3
 4395 0ce4 002B     		cmp	r3, #0
 4396 0ce6 01D0     		beq	.L301
 4397              		.loc 15 477 0 is_stmt 0 discriminator 1
 4398 0ce8 0023     		movs	r3, #0
 4399 0cea 4CE0     		b	.L306
 4400              	.L301:
 4401              		.loc 15 478 0 is_stmt 1
 4402 0cec 029B     		ldr	r3, [sp, #8]
 4403 0cee 03F13002 		add	r2, r3, #48
 4404 0cf2 089B     		ldr	r3, [sp, #32]
 4405 0cf4 1433     		adds	r3, r3, #20
 4406 0cf6 0398     		ldr	r0, [sp, #12]
 4407 0cf8 1146     		mov	r1, r2
 4408 0cfa 1A46     		mov	r2, r3
 4409 0cfc 0423     		movs	r3, #4
 4410 0cfe FFF7FEFF 		bl	_ZN3r2p10Bootloader5writeEPKvS2_j
 4411 0d02 0346     		mov	r3, r0
 4412 0d04 83F00103 		eor	r3, r3, #1
 4413 0d08 DBB2     		uxtb	r3, r3
 4414 0d0a 002B     		cmp	r3, #0
 4415 0d0c 01D0     		beq	.L302
 4416              		.loc 15 478 0 is_stmt 0 discriminator 1
 4417 0d0e 0023     		movs	r3, #0
 4418 0d10 39E0     		b	.L306
 4419              	.L302:
 4420              		.loc 15 479 0 is_stmt 1
 4421 0d12 029B     		ldr	r3, [sp, #8]
 4422 0d14 03F13402 		add	r2, r3, #52
 4423 0d18 089B     		ldr	r3, [sp, #32]
 4424 0d1a 1833     		adds	r3, r3, #24
 4425 0d1c 0398     		ldr	r0, [sp, #12]
 4426 0d1e 1146     		mov	r1, r2
 4427 0d20 1A46     		mov	r2, r3
 4428 0d22 0423     		movs	r3, #4
 4429 0d24 FFF7FEFF 		bl	_ZN3r2p10Bootloader5writeEPKvS2_j
 4430 0d28 0346     		mov	r3, r0
 4431 0d2a 83F00103 		eor	r3, r3, #1
 4432 0d2e DBB2     		uxtb	r3, r3
 4433 0d30 002B     		cmp	r3, #0
 4434 0d32 01D0     		beq	.L303
 4435              		.loc 15 479 0 is_stmt 0 discriminator 1
 4436 0d34 0023     		movs	r3, #0
 4437 0d36 26E0     		b	.L306
 4438              	.L303:
 4439              		.loc 15 480 0 is_stmt 1
 4440 0d38 029B     		ldr	r3, [sp, #8]
 4441 0d3a 03F13802 		add	r2, r3, #56
 4442 0d3e 019B     		ldr	r3, [sp, #4]
 4443 0d40 1033     		adds	r3, r3, #16
ARM GAS  /tmp/cc5OZvFd.s 			page 79


 4444 0d42 0398     		ldr	r0, [sp, #12]
 4445 0d44 1146     		mov	r1, r2
 4446 0d46 1A46     		mov	r2, r3
 4447 0d48 0823     		movs	r3, #8
 4448 0d4a FFF7FEFF 		bl	_ZN3r2p10Bootloader5writeEPKvS2_j
 4449 0d4e 0346     		mov	r3, r0
 4450 0d50 83F00103 		eor	r3, r3, #1
 4451 0d54 DBB2     		uxtb	r3, r3
 4452 0d56 002B     		cmp	r3, #0
 4453 0d58 01D0     		beq	.L304
 4454              		.loc 15 481 0
 4455 0d5a 0023     		movs	r3, #0
 4456 0d5c 13E0     		b	.L306
 4457              	.L304:
 4458              		.loc 15 483 0
 4459 0d5e 029B     		ldr	r3, [sp, #8]
 4460 0d60 03F14002 		add	r2, r3, #64
 4461 0d64 019B     		ldr	r3, [sp, #4]
 4462 0d66 1833     		adds	r3, r3, #24
 4463 0d68 0398     		ldr	r0, [sp, #12]
 4464 0d6a 1146     		mov	r1, r2
 4465 0d6c 1A46     		mov	r2, r3
 4466 0d6e 0223     		movs	r3, #2
 4467 0d70 FFF7FEFF 		bl	_ZN3r2p10Bootloader5writeEPKvS2_j
 4468 0d74 0346     		mov	r3, r0
 4469 0d76 83F00103 		eor	r3, r3, #1
 4470 0d7a DBB2     		uxtb	r3, r3
 4471 0d7c 002B     		cmp	r3, #0
 4472 0d7e 01D0     		beq	.L305
 4473              		.loc 15 483 0 is_stmt 0 discriminator 1
 4474 0d80 0023     		movs	r3, #0
 4475 0d82 00E0     		b	.L306
 4476              	.L305:
 4477              		.loc 15 484 0 is_stmt 1
 4478 0d84 0123     		movs	r3, #1
 4479              	.L306:
 4480              	.LBE50:
 4481              		.loc 15 487 0 discriminator 1
 4482 0d86 1846     		mov	r0, r3
 4483 0d88 07B0     		add	sp, sp, #28
 4484              		.cfi_def_cfa_offset 4
 4485              		@ sp needed
 4486 0d8a 5DF804FB 		ldr	pc, [sp], #4
 4487              	.L308:
 4488 0d8e 00BF     		.align	2
 4489              	.L307:
 4490 0d90 695A2C1D 		.word	489445993
 4491              		.cfi_endproc
 4492              	.LFE420:
 4493              		.size	_ZN3r2p10Bootloader13write_appinfoEPKNS0_12FlashAppInfoERKNS_7BootMsg12LinkingSetupERKNS4_16
 4494              		.align	2
 4495              		.global	_ZN3r2p10Bootloader12process_ihexERKNS_10IhexRecordERKNS_7BootMsg12LinkingSetupERKNS4_16Li
 4496              		.thumb
 4497              		.thumb_func
 4498              		.type	_ZN3r2p10Bootloader12process_ihexERKNS_10IhexRecordERKNS_7BootMsg12LinkingSetupERKNS4_16Link
 4499              	_ZN3r2p10Bootloader12process_ihexERKNS_10IhexRecordERKNS_7BootMsg12LinkingSetupERKNS4_16LinkingAddr
 4500              	.LFB421:
ARM GAS  /tmp/cc5OZvFd.s 			page 80


 4501              		.loc 15 492 0
 4502              		.cfi_startproc
 4503              		@ args = 0, pretend = 0, frame = 24
 4504              		@ frame_needed = 0, uses_anonymous_args = 0
 4505 0d94 10B5     		push	{r4, lr}
 4506              		.cfi_def_cfa_offset 8
 4507              		.cfi_offset 4, -8
 4508              		.cfi_offset 14, -4
 4509 0d96 86B0     		sub	sp, sp, #24
 4510              		.cfi_def_cfa_offset 32
 4511 0d98 0390     		str	r0, [sp, #12]
 4512 0d9a 0291     		str	r1, [sp, #8]
 4513 0d9c 0192     		str	r2, [sp, #4]
 4514 0d9e 0093     		str	r3, [sp]
 4515              	.LBB51:
 4516              		.loc 15 495 0
 4517 0da0 029B     		ldr	r3, [sp, #8]
 4518 0da2 1C7D     		ldrb	r4, [r3, #20]	@ zero_extendqisi2
 4519 0da4 0298     		ldr	r0, [sp, #8]
 4520 0da6 FFF7FEFF 		bl	_ZNK3r2p10IhexRecord16compute_checksumEv
 4521 0daa 0346     		mov	r3, r0
 4522 0dac 9C42     		cmp	r4, r3
 4523 0dae 14BF     		ite	ne
 4524 0db0 0123     		movne	r3, #1
 4525 0db2 0023     		moveq	r3, #0
 4526 0db4 DBB2     		uxtb	r3, r3
 4527 0db6 002B     		cmp	r3, #0
 4528 0db8 01D0     		beq	.L310
 4529              		.loc 15 495 0 is_stmt 0 discriminator 1
 4530 0dba 0023     		movs	r3, #0
 4531 0dbc CEE0     		b	.L311
 4532              	.L310:
 4533              	.LBB52:
 4534              		.loc 15 498 0 is_stmt 1
 4535 0dbe 029B     		ldr	r3, [sp, #8]
 4536 0dc0 DB78     		ldrb	r3, [r3, #3]	@ zero_extendqisi2
 4537 0dc2 052B     		cmp	r3, #5
 4538 0dc4 00F2C980 		bhi	.L312
 4539 0dc8 01A2     		adr	r2, .L314
 4540 0dca 52F823F0 		ldr	pc, [r2, r3, lsl #2]
 4541 0dce 00BF     		.p2align 2
 4542              	.L314:
 4543 0dd0 E90D0000 		.word	.L313+1
 4544 0dd4 930E0000 		.word	.L315+1
 4545 0dd8 B30E0000 		.word	.L316+1
 4546 0ddc E70E0000 		.word	.L317+1
 4547 0de0 070F0000 		.word	.L318+1
 4548 0de4 3B0F0000 		.word	.L319+1
 4549              		.p2align 1
 4550              	.L313:
 4551              	.LBB53:
 4552              	.LBB54:
 4553              		.loc 15 500 0
 4554 0de8 039B     		ldr	r3, [sp, #12]
 4555 0dea 1B68     		ldr	r3, [r3]
 4556 0dec 029A     		ldr	r2, [sp, #8]
 4557 0dee B2F80120 		ldrh	r2, [r2, #1]	@ unaligned
ARM GAS  /tmp/cc5OZvFd.s 			page 81


 4558 0df2 92B2     		uxth	r2, r2
 4559 0df4 1344     		add	r3, r3, r2
 4560 0df6 0593     		str	r3, [sp, #20]
 4561              		.loc 15 501 0
 4562 0df8 029B     		ldr	r3, [sp, #8]
 4563 0dfa 1B78     		ldrb	r3, [r3]	@ zero_extendqisi2
 4564 0dfc 1A46     		mov	r2, r3
 4565 0dfe 059B     		ldr	r3, [sp, #20]
 4566 0e00 1344     		add	r3, r3, r2
 4567 0e02 0493     		str	r3, [sp, #16]
 4568              		.loc 15 503 0
 4569 0e04 009B     		ldr	r3, [sp]
 4570 0e06 5A68     		ldr	r2, [r3, #4]	@ unaligned
 4571 0e08 019B     		ldr	r3, [sp, #4]
 4572 0e0a 1B68     		ldr	r3, [r3]	@ unaligned
 4573 0e0c 1A44     		add	r2, r2, r3
 4574 0e0e 049B     		ldr	r3, [sp, #16]
 4575 0e10 9A42     		cmp	r2, r3
 4576 0e12 14D3     		bcc	.L320
 4577              		.loc 15 504 0 discriminator 1
 4578 0e14 009B     		ldr	r3, [sp]
 4579 0e16 5A68     		ldr	r2, [r3, #4]	@ unaligned
 4580              		.loc 15 503 0 discriminator 1
 4581 0e18 059B     		ldr	r3, [sp, #20]
 4582 0e1a 9A42     		cmp	r2, r3
 4583 0e1c 0FD8     		bhi	.L320
 4584              		.loc 15 506 0
 4585 0e1e 039B     		ldr	r3, [sp, #12]
 4586 0e20 1B68     		ldr	r3, [r3]
 4587 0e22 029A     		ldr	r2, [sp, #8]
 4588 0e24 B2F80120 		ldrh	r2, [r2, #1]	@ unaligned
 4589 0e28 92B2     		uxth	r2, r2
 4590 0e2a 9918     		adds	r1, r3, r2
 4591 0e2c 029B     		ldr	r3, [sp, #8]
 4592 0e2e 1A1D     		adds	r2, r3, #4
 4593 0e30 029B     		ldr	r3, [sp, #8]
 4594 0e32 1B78     		ldrb	r3, [r3]	@ zero_extendqisi2
 4595 0e34 0398     		ldr	r0, [sp, #12]
 4596 0e36 FFF7FEFF 		bl	_ZN3r2p10Bootloader5writeEPKvS2_j
 4597 0e3a 0346     		mov	r3, r0
 4598 0e3c 8EE0     		b	.L311
 4599              	.L320:
 4600              		.loc 15 508 0
 4601 0e3e 009B     		ldr	r3, [sp]
 4602 0e40 1A69     		ldr	r2, [r3, #16]	@ unaligned
 4603 0e42 019B     		ldr	r3, [sp, #4]
 4604 0e44 9B68     		ldr	r3, [r3, #8]	@ unaligned
 4605 0e46 1A44     		add	r2, r2, r3
 4606 0e48 049B     		ldr	r3, [sp, #16]
 4607 0e4a 9A42     		cmp	r2, r3
 4608 0e4c 1FD3     		bcc	.L321
 4609              		.loc 15 509 0 discriminator 1
 4610 0e4e 009B     		ldr	r3, [sp]
 4611 0e50 1A69     		ldr	r2, [r3, #16]	@ unaligned
 4612              		.loc 15 508 0 discriminator 1
 4613 0e52 059B     		ldr	r3, [sp, #20]
 4614 0e54 9A42     		cmp	r2, r3
ARM GAS  /tmp/cc5OZvFd.s 			page 82


 4615 0e56 1AD8     		bhi	.L321
 4616              		.loc 15 509 0
 4617 0e58 019B     		ldr	r3, [sp, #4]
 4618 0e5a 9B68     		ldr	r3, [r3, #8]	@ unaligned
 4619 0e5c 002B     		cmp	r3, #0
 4620 0e5e 16D0     		beq	.L321
 4621              		.loc 15 511 0
 4622 0e60 009B     		ldr	r3, [sp]
 4623 0e62 1B69     		ldr	r3, [r3, #16]	@ unaligned
 4624 0e64 002B     		cmp	r3, #0
 4625 0e66 02D1     		bne	.L322
 4626              		.loc 15 511 0 is_stmt 0 discriminator 1
 4627 0e68 3E48     		ldr	r0, .L333
 4628 0e6a FFF7FEFF 		bl	chDbgPanic
 4629              	.L322:
 4630              		.loc 15 512 0 is_stmt 1
 4631 0e6e 039B     		ldr	r3, [sp, #12]
 4632 0e70 1B68     		ldr	r3, [r3]
 4633 0e72 029A     		ldr	r2, [sp, #8]
 4634 0e74 B2F80120 		ldrh	r2, [r2, #1]	@ unaligned
 4635 0e78 92B2     		uxth	r2, r2
 4636 0e7a 9918     		adds	r1, r3, r2
 4637 0e7c 029B     		ldr	r3, [sp, #8]
 4638 0e7e 1A1D     		adds	r2, r3, #4
 4639 0e80 029B     		ldr	r3, [sp, #8]
 4640 0e82 1B78     		ldrb	r3, [r3]	@ zero_extendqisi2
 4641 0e84 0398     		ldr	r0, [sp, #12]
 4642 0e86 FFF7FEFF 		bl	_ZN3r2p10Bootloader5writeEPKvS2_j
 4643 0e8a 0346     		mov	r3, r0
 4644 0e8c 66E0     		b	.L311
 4645              	.L321:
 4646              		.loc 15 514 0
 4647 0e8e 0023     		movs	r3, #0
 4648 0e90 64E0     		b	.L311
 4649              	.L315:
 4650              	.LBE54:
 4651              		.loc 15 517 0
 4652 0e92 029B     		ldr	r3, [sp, #8]
 4653 0e94 1B78     		ldrb	r3, [r3]	@ zero_extendqisi2
 4654 0e96 002B     		cmp	r3, #0
 4655 0e98 01D0     		beq	.L323
 4656              		.loc 15 517 0 is_stmt 0 discriminator 1
 4657 0e9a 0023     		movs	r3, #0
 4658 0e9c 5EE0     		b	.L311
 4659              	.L323:
 4660              		.loc 15 518 0 is_stmt 1
 4661 0e9e 029B     		ldr	r3, [sp, #8]
 4662 0ea0 B3F80130 		ldrh	r3, [r3, #1]	@ unaligned
 4663 0ea4 9BB2     		uxth	r3, r3
 4664 0ea6 002B     		cmp	r3, #0
 4665 0ea8 01D0     		beq	.L324
 4666              		.loc 15 518 0 is_stmt 0 discriminator 1
 4667 0eaa 0023     		movs	r3, #0
 4668 0eac 56E0     		b	.L311
 4669              	.L324:
 4670              		.loc 15 519 0 is_stmt 1
 4671 0eae 0123     		movs	r3, #1
ARM GAS  /tmp/cc5OZvFd.s 			page 83


 4672 0eb0 54E0     		b	.L311
 4673              	.L316:
 4674              		.loc 15 522 0
 4675 0eb2 029B     		ldr	r3, [sp, #8]
 4676 0eb4 1B78     		ldrb	r3, [r3]	@ zero_extendqisi2
 4677 0eb6 022B     		cmp	r3, #2
 4678 0eb8 01D0     		beq	.L325
 4679              		.loc 15 522 0 is_stmt 0 discriminator 1
 4680 0eba 0023     		movs	r3, #0
 4681 0ebc 4EE0     		b	.L311
 4682              	.L325:
 4683              		.loc 15 523 0 is_stmt 1
 4684 0ebe 029B     		ldr	r3, [sp, #8]
 4685 0ec0 B3F80130 		ldrh	r3, [r3, #1]	@ unaligned
 4686 0ec4 9BB2     		uxth	r3, r3
 4687 0ec6 002B     		cmp	r3, #0
 4688 0ec8 01D0     		beq	.L326
 4689              		.loc 15 523 0 is_stmt 0 discriminator 1
 4690 0eca 0023     		movs	r3, #0
 4691 0ecc 46E0     		b	.L311
 4692              	.L326:
 4693              		.loc 15 525 0 is_stmt 1
 4694 0ece 029B     		ldr	r3, [sp, #8]
 4695 0ed0 1B79     		ldrb	r3, [r3, #4]	@ zero_extendqisi2
 4696 0ed2 1A03     		lsls	r2, r3, #12
 4697              		.loc 15 526 0
 4698 0ed4 029B     		ldr	r3, [sp, #8]
 4699 0ed6 5B79     		ldrb	r3, [r3, #5]	@ zero_extendqisi2
 4700 0ed8 1B01     		lsls	r3, r3, #4
 4701              		.loc 15 525 0
 4702 0eda 1343     		orrs	r3, r3, r2
 4703              		.loc 15 527 0
 4704 0edc 1A46     		mov	r2, r3
 4705 0ede 039B     		ldr	r3, [sp, #12]
 4706 0ee0 1A60     		str	r2, [r3]
 4707              		.loc 15 528 0
 4708 0ee2 0123     		movs	r3, #1
 4709 0ee4 3AE0     		b	.L311
 4710              	.L317:
 4711              		.loc 15 531 0
 4712 0ee6 029B     		ldr	r3, [sp, #8]
 4713 0ee8 1B78     		ldrb	r3, [r3]	@ zero_extendqisi2
 4714 0eea 042B     		cmp	r3, #4
 4715 0eec 01D0     		beq	.L327
 4716              		.loc 15 531 0 is_stmt 0 discriminator 1
 4717 0eee 0023     		movs	r3, #0
 4718 0ef0 34E0     		b	.L311
 4719              	.L327:
 4720              		.loc 15 532 0 is_stmt 1
 4721 0ef2 029B     		ldr	r3, [sp, #8]
 4722 0ef4 B3F80130 		ldrh	r3, [r3, #1]	@ unaligned
 4723 0ef8 9BB2     		uxth	r3, r3
 4724 0efa 002B     		cmp	r3, #0
 4725 0efc 01D0     		beq	.L328
 4726              		.loc 15 532 0 is_stmt 0 discriminator 1
 4727 0efe 0023     		movs	r3, #0
 4728 0f00 2CE0     		b	.L311
ARM GAS  /tmp/cc5OZvFd.s 			page 84


 4729              	.L328:
 4730              		.loc 15 533 0 is_stmt 1
 4731 0f02 0123     		movs	r3, #1
 4732 0f04 2AE0     		b	.L311
 4733              	.L318:
 4734              		.loc 15 536 0
 4735 0f06 029B     		ldr	r3, [sp, #8]
 4736 0f08 1B78     		ldrb	r3, [r3]	@ zero_extendqisi2
 4737 0f0a 022B     		cmp	r3, #2
 4738 0f0c 01D0     		beq	.L329
 4739              		.loc 15 536 0 is_stmt 0 discriminator 1
 4740 0f0e 0023     		movs	r3, #0
 4741 0f10 24E0     		b	.L311
 4742              	.L329:
 4743              		.loc 15 537 0 is_stmt 1
 4744 0f12 029B     		ldr	r3, [sp, #8]
 4745 0f14 B3F80130 		ldrh	r3, [r3, #1]	@ unaligned
 4746 0f18 9BB2     		uxth	r3, r3
 4747 0f1a 002B     		cmp	r3, #0
 4748 0f1c 01D0     		beq	.L330
 4749              		.loc 15 537 0 is_stmt 0 discriminator 1
 4750 0f1e 0023     		movs	r3, #0
 4751 0f20 1CE0     		b	.L311
 4752              	.L330:
 4753              		.loc 15 539 0 is_stmt 1
 4754 0f22 029B     		ldr	r3, [sp, #8]
 4755 0f24 1B79     		ldrb	r3, [r3, #4]	@ zero_extendqisi2
 4756 0f26 1A06     		lsls	r2, r3, #24
 4757              		.loc 15 540 0
 4758 0f28 029B     		ldr	r3, [sp, #8]
 4759 0f2a 5B79     		ldrb	r3, [r3, #5]	@ zero_extendqisi2
 4760 0f2c 1B04     		lsls	r3, r3, #16
 4761              		.loc 15 539 0
 4762 0f2e 1343     		orrs	r3, r3, r2
 4763              		.loc 15 541 0
 4764 0f30 1A46     		mov	r2, r3
 4765 0f32 039B     		ldr	r3, [sp, #12]
 4766 0f34 1A60     		str	r2, [r3]
 4767              		.loc 15 542 0
 4768 0f36 0123     		movs	r3, #1
 4769 0f38 10E0     		b	.L311
 4770              	.L319:
 4771              		.loc 15 545 0
 4772 0f3a 029B     		ldr	r3, [sp, #8]
 4773 0f3c 1B78     		ldrb	r3, [r3]	@ zero_extendqisi2
 4774 0f3e 042B     		cmp	r3, #4
 4775 0f40 01D0     		beq	.L331
 4776              		.loc 15 545 0 is_stmt 0 discriminator 1
 4777 0f42 0023     		movs	r3, #0
 4778 0f44 0AE0     		b	.L311
 4779              	.L331:
 4780              		.loc 15 546 0 is_stmt 1
 4781 0f46 029B     		ldr	r3, [sp, #8]
 4782 0f48 B3F80130 		ldrh	r3, [r3, #1]	@ unaligned
 4783 0f4c 9BB2     		uxth	r3, r3
 4784 0f4e 002B     		cmp	r3, #0
 4785 0f50 01D0     		beq	.L332
ARM GAS  /tmp/cc5OZvFd.s 			page 85


 4786              		.loc 15 546 0 is_stmt 0 discriminator 1
 4787 0f52 0023     		movs	r3, #0
 4788 0f54 02E0     		b	.L311
 4789              	.L332:
 4790              		.loc 15 547 0 is_stmt 1
 4791 0f56 0123     		movs	r3, #1
 4792 0f58 00E0     		b	.L311
 4793              	.L312:
 4794              		.loc 15 549 0
 4795 0f5a 0023     		movs	r3, #0
 4796              	.L311:
 4797              	.LBE53:
 4798              	.LBE52:
 4799              	.LBE51:
 4800              		.loc 15 551 0
 4801 0f5c 1846     		mov	r0, r3
 4802 0f5e 06B0     		add	sp, sp, #24
 4803              		.cfi_def_cfa_offset 8
 4804              		@ sp needed
 4805 0f60 10BD     		pop	{r4, pc}
 4806              	.L334:
 4807 0f62 00BF     		.align	2
 4808              	.L333:
 4809 0f64 00000000 		.word	.LC0
 4810              		.cfi_endproc
 4811              	.LFE421:
 4812              		.size	_ZN3r2p10Bootloader12process_ihexERKNS_10IhexRecordERKNS_7BootMsg12LinkingSetupERKNS4_16Link
 4813              		.align	2
 4814              		.global	_ZN3r2p10Bootloader11remove_lastEv
 4815              		.thumb
 4816              		.thumb_func
 4817              		.type	_ZN3r2p10Bootloader11remove_lastEv, %function
 4818              	_ZN3r2p10Bootloader11remove_lastEv:
 4819              	.LFB422:
 4820              		.loc 15 554 0
 4821              		.cfi_startproc
 4822              		@ args = 0, pretend = 0, frame = 16
 4823              		@ frame_needed = 0, uses_anonymous_args = 0
 4824 0f68 00B5     		push	{lr}
 4825              		.cfi_def_cfa_offset 4
 4826              		.cfi_offset 14, -4
 4827 0f6a 85B0     		sub	sp, sp, #20
 4828              		.cfi_def_cfa_offset 24
 4829 0f6c 0190     		str	r0, [sp, #4]
 4830              	.LBB55:
 4831              		.loc 15 556 0
 4832 0f6e FFF7FEFF 		bl	_ZN3r2p10Bootloader12get_last_appEv
 4833 0f72 0390     		str	r0, [sp, #12]
 4834              		.loc 15 557 0
 4835 0f74 039B     		ldr	r3, [sp, #12]
 4836 0f76 002B     		cmp	r3, #0
 4837 0f78 01D1     		bne	.L336
 4838              		.loc 15 557 0 is_stmt 0 discriminator 1
 4839 0f7a 0023     		movs	r3, #0
 4840 0f7c 10E0     		b	.L337
 4841              	.L336:
 4842              		.loc 15 559 0 is_stmt 1
ARM GAS  /tmp/cc5OZvFd.s 			page 86


 4843 0f7e 039B     		ldr	r3, [sp, #12]
 4844 0f80 9B68     		ldr	r3, [r3, #8]
 4845 0f82 1846     		mov	r0, r3
 4846 0f84 FFF7FEFF 		bl	_ZN3r2p10Bootloader13unreserve_ramEj
 4847              		.loc 15 560 0
 4848 0f88 039B     		ldr	r3, [sp, #12]
 4849 0f8a DB68     		ldr	r3, [r3, #12]
 4850 0f8c 1846     		mov	r0, r3
 4851 0f8e FFF7FEFF 		bl	_ZN3r2p10Bootloader13unreserve_ramEj
 4852              		.loc 15 562 0
 4853 0f92 0198     		ldr	r0, [sp, #4]
 4854 0f94 0399     		ldr	r1, [sp, #12]
 4855 0f96 044A     		ldr	r2, .L338
 4856 0f98 0423     		movs	r3, #4
 4857 0f9a FFF7FEFF 		bl	_ZN3r2p10Bootloader5writeEPKvS2_j
 4858              		.loc 15 563 0
 4859 0f9e 0123     		movs	r3, #1
 4860              	.L337:
 4861              	.LBE55:
 4862              		.loc 15 564 0
 4863 0fa0 1846     		mov	r0, r3
 4864 0fa2 05B0     		add	sp, sp, #20
 4865              		.cfi_def_cfa_offset 4
 4866              		@ sp needed
 4867 0fa4 5DF804FB 		ldr	pc, [sp], #4
 4868              	.L339:
 4869              		.align	2
 4870              	.L338:
 4871 0fa8 00000000 		.word	_ZN3r2p10Bootloader20an_invalid_signatureE
 4872              		.cfi_endproc
 4873              	.LFE422:
 4874              		.size	_ZN3r2p10Bootloader11remove_lastEv, .-_ZN3r2p10Bootloader11remove_lastEv
 4875              		.align	2
 4876              		.global	_ZN3r2p10Bootloader10remove_allEv
 4877              		.thumb
 4878              		.thumb_func
 4879              		.type	_ZN3r2p10Bootloader10remove_allEv, %function
 4880              	_ZN3r2p10Bootloader10remove_allEv:
 4881              	.LFB423:
 4882              		.loc 15 567 0
 4883              		.cfi_startproc
 4884              		@ args = 0, pretend = 0, frame = 24
 4885              		@ frame_needed = 0, uses_anonymous_args = 0
 4886 0fac 30B5     		push	{r4, r5, lr}
 4887              		.cfi_def_cfa_offset 12
 4888              		.cfi_offset 4, -12
 4889              		.cfi_offset 5, -8
 4890              		.cfi_offset 14, -4
 4891 0fae 87B0     		sub	sp, sp, #28
 4892              		.cfi_def_cfa_offset 40
 4893 0fb0 0190     		str	r0, [sp, #4]
 4894              	.LBB56:
 4895              		.loc 15 569 0
 4896 0fb2 FFF7FEFF 		bl	_ZN3r2p10Bootloader12get_last_appEv
 4897 0fb6 0590     		str	r0, [sp, #20]
 4898              		.loc 15 570 0
 4899 0fb8 35E0     		b	.L341
ARM GAS  /tmp/cc5OZvFd.s 			page 87


 4900              	.L346:
 4901              	.LBB57:
 4902              		.loc 15 571 0
 4903 0fba 059B     		ldr	r3, [sp, #20]
 4904 0fbc 9B68     		ldr	r3, [r3, #8]
 4905 0fbe 1846     		mov	r0, r3
 4906 0fc0 FFF7FEFF 		bl	_ZN3r2p10Bootloader13unreserve_ramEj
 4907              		.loc 15 572 0
 4908 0fc4 059B     		ldr	r3, [sp, #20]
 4909 0fc6 DB68     		ldr	r3, [r3, #12]
 4910 0fc8 1846     		mov	r0, r3
 4911 0fca FFF7FEFF 		bl	_ZN3r2p10Bootloader13unreserve_ramEj
 4912              		.loc 15 574 0
 4913 0fce 03AB     		add	r3, sp, #12
 4914 0fd0 1846     		mov	r0, r3
 4915 0fd2 FFF7FEFF 		bl	_ZN3r2p10Bootloader5beginEv
 4916              		.loc 15 575 0
 4917 0fd6 03AB     		add	r3, sp, #12
 4918 0fd8 1846     		mov	r0, r3
 4919 0fda FFF7FEFF 		bl	_ZNK3r2p10Bootloader8IteratorcvPKNS0_12FlashAppInfoEEv
 4920 0fde 0246     		mov	r2, r0
 4921 0fe0 059B     		ldr	r3, [sp, #20]
 4922 0fe2 9A42     		cmp	r2, r3
 4923 0fe4 0CBF     		ite	eq
 4924 0fe6 0123     		moveq	r3, #1
 4925 0fe8 0023     		movne	r3, #0
 4926 0fea DBB2     		uxtb	r3, r3
 4927 0fec 002B     		cmp	r3, #0
 4928 0fee 1DD1     		bne	.L343
 4929              		.loc 15 576 0
 4930 0ff0 03E0     		b	.L344
 4931              	.L345:
 4932              		.loc 15 576 0 is_stmt 0 discriminator 2
 4933 0ff2 03AB     		add	r3, sp, #12
 4934 0ff4 1846     		mov	r0, r3
 4935 0ff6 FFF7FEFF 		bl	_ZN3r2p10Bootloader8IteratorppEv
 4936              	.L344:
 4937              		.loc 15 576 0 discriminator 1
 4938 0ffa 03AB     		add	r3, sp, #12
 4939 0ffc 1846     		mov	r0, r3
 4940 0ffe FFF7FEFF 		bl	_ZNK3r2p10Bootloader8IteratorptEv
 4941 1002 0346     		mov	r3, r0
 4942 1004 1846     		mov	r0, r3
 4943 1006 FFF7FEFF 		bl	_ZNK3r2p10Bootloader12FlashAppInfo8get_nextEv
 4944 100a 0246     		mov	r2, r0
 4945 100c 059B     		ldr	r3, [sp, #20]
 4946 100e 9A42     		cmp	r2, r3
 4947 1010 14BF     		ite	ne
 4948 1012 0123     		movne	r3, #1
 4949 1014 0023     		moveq	r3, #0
 4950 1016 DBB2     		uxtb	r3, r3
 4951 1018 002B     		cmp	r3, #0
 4952 101a EAD1     		bne	.L345
 4953              		.loc 15 577 0 is_stmt 1
 4954 101c 03AB     		add	r3, sp, #12
 4955 101e 1846     		mov	r0, r3
 4956 1020 FFF7FEFF 		bl	_ZNK3r2p10Bootloader8IteratorcvPKNS0_12FlashAppInfoEEv
ARM GAS  /tmp/cc5OZvFd.s 			page 88


 4957 1024 0590     		str	r0, [sp, #20]
 4958              	.L341:
 4959              	.LBE57:
 4960              		.loc 15 570 0
 4961 1026 059B     		ldr	r3, [sp, #20]
 4962 1028 002B     		cmp	r3, #0
 4963 102a C6D1     		bne	.L346
 4964              	.L343:
 4965              		.loc 15 581 0
 4966 102c FFF7FEFF 		bl	_ZN3r2p7Flasher17get_program_startEv
 4967 1030 0346     		mov	r3, r0
 4968 1032 1846     		mov	r0, r3
 4969 1034 FFF7FEFF 		bl	_ZN3r2p7Flasher10is_alignedEPKv
 4970 1038 0346     		mov	r3, r0
 4971 103a 83F00103 		eor	r3, r3, #1
 4972 103e DBB2     		uxtb	r3, r3
 4973 1040 002B     		cmp	r3, #0
 4974 1042 02D0     		beq	.L347
 4975              		.loc 15 581 0 is_stmt 0 discriminator 1
 4976 1044 1048     		ldr	r0, .L350
 4977 1046 FFF7FEFF 		bl	chDbgPanic
 4978              	.L347:
 4979              		.loc 15 583 0 is_stmt 1
 4980 104a 019B     		ldr	r3, [sp, #4]
 4981 104c 1C1D     		adds	r4, r3, #4
 4982 104e FFF7FEFF 		bl	_ZN3r2p7Flasher17get_program_startEv
 4983 1052 0546     		mov	r5, r0
 4984 1054 FFF7FEFF 		bl	_ZN3r2p7Flasher18get_program_lengthEv
 4985 1058 0346     		mov	r3, r0
 4986 105a 2046     		mov	r0, r4
 4987 105c 2946     		mov	r1, r5
 4988 105e 1A46     		mov	r2, r3
 4989 1060 FFF7FEFF 		bl	_ZN3r2p7Flasher5eraseEPKhj
 4990 1064 0346     		mov	r3, r0
 4991 1066 8DF81330 		strb	r3, [sp, #19]
 4992              		.loc 15 584 0
 4993 106a 9DF81330 		ldrb	r3, [sp, #19]
 4994 106e 83F00103 		eor	r3, r3, #1
 4995 1072 DBB2     		uxtb	r3, r3
 4996 1074 002B     		cmp	r3, #0
 4997 1076 02D0     		beq	.L348
 4998              		.loc 15 584 0 is_stmt 0 discriminator 1
 4999 1078 0348     		ldr	r0, .L350
 5000 107a FFF7FEFF 		bl	chDbgPanic
 5001              	.L348:
 5002              		.loc 15 585 0 is_stmt 1
 5003 107e 0123     		movs	r3, #1
 5004              	.LBE56:
 5005              		.loc 15 586 0
 5006 1080 1846     		mov	r0, r3
 5007 1082 07B0     		add	sp, sp, #28
 5008              		.cfi_def_cfa_offset 12
 5009              		@ sp needed
 5010 1084 30BD     		pop	{r4, r5, pc}
 5011              	.L351:
 5012 1086 00BF     		.align	2
 5013              	.L350:
ARM GAS  /tmp/cc5OZvFd.s 			page 89


 5014 1088 00000000 		.word	.LC0
 5015              		.cfi_endproc
 5016              	.LFE423:
 5017              		.size	_ZN3r2p10Bootloader10remove_allEv, .-_ZN3r2p10Bootloader10remove_allEv
 5018              		.align	2
 5019              		.global	_ZN3r2p10BootloaderC2EPtRNS_9PublisherINS_7BootMsgEEERNS_16SubscriberExtBufIS3_EE
 5020              		.thumb
 5021              		.thumb_func
 5022              		.type	_ZN3r2p10BootloaderC2EPtRNS_9PublisherINS_7BootMsgEEERNS_16SubscriberExtBufIS3_EE, %function
 5023              	_ZN3r2p10BootloaderC2EPtRNS_9PublisherINS_7BootMsgEEERNS_16SubscriberExtBufIS3_EE:
 5024              	.LFB428:
 5025              		.loc 15 589 0
 5026              		.cfi_startproc
 5027              		@ args = 0, pretend = 0, frame = 16
 5028              		@ frame_needed = 0, uses_anonymous_args = 0
 5029 108c 00B5     		push	{lr}
 5030              		.cfi_def_cfa_offset 4
 5031              		.cfi_offset 14, -4
 5032 108e 85B0     		sub	sp, sp, #20
 5033              		.cfi_def_cfa_offset 24
 5034 1090 0390     		str	r0, [sp, #12]
 5035 1092 0291     		str	r1, [sp, #8]
 5036 1094 0192     		str	r2, [sp, #4]
 5037 1096 0093     		str	r3, [sp]
 5038              	.LBB58:
 5039              		.loc 15 598 0
 5040 1098 0398     		ldr	r0, [sp, #12]
 5041 109a FFF7FEFF 		bl	_ZN3r2p10UncopyableC2Ev
 5042 109e 039B     		ldr	r3, [sp, #12]
 5043 10a0 0022     		movs	r2, #0
 5044 10a2 1A60     		str	r2, [r3]
 5045 10a4 039B     		ldr	r3, [sp, #12]
 5046 10a6 0433     		adds	r3, r3, #4
 5047 10a8 1846     		mov	r0, r3
 5048 10aa 0299     		ldr	r1, [sp, #8]
 5049 10ac FFF7FEFF 		bl	_ZN3r2p7FlasherC1EPt
 5050 10b0 039B     		ldr	r3, [sp, #12]
 5051 10b2 019A     		ldr	r2, [sp, #4]
 5052 10b4 1A61     		str	r2, [r3, #16]
 5053 10b6 039B     		ldr	r3, [sp, #12]
 5054 10b8 009A     		ldr	r2, [sp]
 5055 10ba 5A61     		str	r2, [r3, #20]
 5056 10bc 039B     		ldr	r3, [sp, #12]
 5057 10be 0022     		movs	r2, #0
 5058 10c0 9A61     		str	r2, [r3, #24]
 5059 10c2 039B     		ldr	r3, [sp, #12]
 5060 10c4 0022     		movs	r2, #0
 5061 10c6 DA61     		str	r2, [r3, #28]
 5062              		.loc 15 600 0
 5063 10c8 029B     		ldr	r3, [sp, #8]
 5064 10ca 002B     		cmp	r3, #0
 5065 10cc 02D1     		bne	.L353
 5066              		.loc 15 600 0 is_stmt 0 discriminator 1
 5067 10ce 0448     		ldr	r0, .L355
 5068 10d0 FFF7FEFF 		bl	chDbgPanic
 5069              	.L353:
 5070              	.LBE58:
ARM GAS  /tmp/cc5OZvFd.s 			page 90


 5071              		.loc 15 601 0 is_stmt 1
 5072 10d4 039B     		ldr	r3, [sp, #12]
 5073 10d6 1846     		mov	r0, r3
 5074 10d8 05B0     		add	sp, sp, #20
 5075              		.cfi_def_cfa_offset 4
 5076              		@ sp needed
 5077 10da 5DF804FB 		ldr	pc, [sp], #4
 5078              	.L356:
 5079 10de 00BF     		.align	2
 5080              	.L355:
 5081 10e0 00000000 		.word	.LC0
 5082              		.cfi_endproc
 5083              	.LFE428:
 5084              		.size	_ZN3r2p10BootloaderC2EPtRNS_9PublisherINS_7BootMsgEEERNS_16SubscriberExtBufIS3_EE, .-_ZN3r2p
 5085              		.global	_ZN3r2p10BootloaderC1EPtRNS_9PublisherINS_7BootMsgEEERNS_16SubscriberExtBufIS3_EE
 5086              		.thumb_set _ZN3r2p10BootloaderC1EPtRNS_9PublisherINS_7BootMsgEEERNS_16SubscriberExtBufIS3_EE,_ZN3r
 5087              		.align	2
 5088              		.global	_ZN3r2p10Bootloader12get_num_appsEv
 5089              		.thumb
 5090              		.thumb_func
 5091              		.type	_ZN3r2p10Bootloader12get_num_appsEv, %function
 5092              	_ZN3r2p10Bootloader12get_num_appsEv:
 5093              	.LFB430:
 5094              		.loc 15 604 0
 5095              		.cfi_startproc
 5096              		@ args = 0, pretend = 0, frame = 8
 5097              		@ frame_needed = 0, uses_anonymous_args = 0
 5098 10e4 00B5     		push	{lr}
 5099              		.cfi_def_cfa_offset 4
 5100              		.cfi_offset 14, -4
 5101 10e6 83B0     		sub	sp, sp, #12
 5102              		.cfi_def_cfa_offset 16
 5103              	.LBB59:
 5104              		.loc 15 606 0
 5105 10e8 0023     		movs	r3, #0
 5106 10ea 0193     		str	r3, [sp, #4]
 5107              	.LBB60:
 5108              		.loc 15 607 0
 5109 10ec 6B46     		mov	r3, sp
 5110 10ee 1846     		mov	r0, r3
 5111 10f0 FFF7FEFF 		bl	_ZN3r2p10Bootloader5beginEv
 5112 10f4 06E0     		b	.L358
 5113              	.L359:
 5114              		.loc 15 608 0 discriminator 3
 5115 10f6 019B     		ldr	r3, [sp, #4]
 5116 10f8 0133     		adds	r3, r3, #1
 5117 10fa 0193     		str	r3, [sp, #4]
 5118              		.loc 15 607 0 discriminator 3
 5119 10fc 6B46     		mov	r3, sp
 5120 10fe 1846     		mov	r0, r3
 5121 1100 FFF7FEFF 		bl	_ZN3r2p10Bootloader8IteratorppEv
 5122              	.L358:
 5123              		.loc 15 607 0 is_stmt 0 discriminator 1
 5124 1104 6B46     		mov	r3, sp
 5125 1106 1846     		mov	r0, r3
 5126 1108 FFF7FEFF 		bl	_ZNK3r2p10Bootloader8IteratorptEv
 5127 110c 0346     		mov	r3, r0
ARM GAS  /tmp/cc5OZvFd.s 			page 91


 5128 110e 1846     		mov	r0, r3
 5129 1110 FFF7FEFF 		bl	_ZNK3r2p10Bootloader12FlashAppInfo8is_validEv
 5130 1114 0346     		mov	r3, r0
 5131 1116 002B     		cmp	r3, #0
 5132 1118 EDD1     		bne	.L359
 5133              	.LBE60:
 5134              		.loc 15 610 0 is_stmt 1
 5135 111a 019B     		ldr	r3, [sp, #4]
 5136              	.LBE59:
 5137              		.loc 15 611 0
 5138 111c 1846     		mov	r0, r3
 5139 111e 03B0     		add	sp, sp, #12
 5140              		.cfi_def_cfa_offset 4
 5141              		@ sp needed
 5142 1120 5DF804FB 		ldr	pc, [sp], #4
 5143              		.cfi_endproc
 5144              	.LFE430:
 5145              		.size	_ZN3r2p10Bootloader12get_num_appsEv, .-_ZN3r2p10Bootloader12get_num_appsEv
 5146              		.align	2
 5147              		.global	_ZN3r2p10Bootloader12get_free_appEv
 5148              		.thumb
 5149              		.thumb_func
 5150              		.type	_ZN3r2p10Bootloader12get_free_appEv, %function
 5151              	_ZN3r2p10Bootloader12get_free_appEv:
 5152              	.LFB431:
 5153              		.loc 15 614 0
 5154              		.cfi_startproc
 5155              		@ args = 0, pretend = 0, frame = 16
 5156              		@ frame_needed = 0, uses_anonymous_args = 0
 5157 1124 00B5     		push	{lr}
 5158              		.cfi_def_cfa_offset 4
 5159              		.cfi_offset 14, -4
 5160 1126 85B0     		sub	sp, sp, #20
 5161              		.cfi_def_cfa_offset 24
 5162              	.LBB61:
 5163              		.loc 15 616 0
 5164 1128 01AB     		add	r3, sp, #4
 5165 112a 1846     		mov	r0, r3
 5166 112c FFF7FEFF 		bl	_ZN3r2p10Bootloader5beginEv
 5167              		.loc 15 617 0
 5168 1130 03E0     		b	.L362
 5169              	.L363:
 5170              		.loc 15 617 0 is_stmt 0 discriminator 2
 5171 1132 01AB     		add	r3, sp, #4
 5172 1134 1846     		mov	r0, r3
 5173 1136 FFF7FEFF 		bl	_ZN3r2p10Bootloader8IteratorppEv
 5174              	.L362:
 5175              		.loc 15 617 0 discriminator 1
 5176 113a 02AB     		add	r3, sp, #8
 5177 113c 1846     		mov	r0, r3
 5178 113e FFF7FEFF 		bl	_ZN3r2p10Bootloader3endEv
 5179 1142 01AA     		add	r2, sp, #4
 5180 1144 02AB     		add	r3, sp, #8
 5181 1146 1046     		mov	r0, r2
 5182 1148 1946     		mov	r1, r3
 5183 114a FFF7FEFF 		bl	_ZNK3r2p10Bootloader8IteratorneERKS1_
 5184 114e 0346     		mov	r3, r0
ARM GAS  /tmp/cc5OZvFd.s 			page 92


 5185 1150 002B     		cmp	r3, #0
 5186 1152 EED1     		bne	.L363
 5187              		.loc 15 618 0 is_stmt 1
 5188 1154 01AB     		add	r3, sp, #4
 5189 1156 1846     		mov	r0, r3
 5190 1158 FFF7FEFF 		bl	_ZNK3r2p10Bootloader8IteratordeEv
 5191 115c 0346     		mov	r3, r0
 5192 115e 1846     		mov	r0, r3
 5193 1160 FFF7FEFF 		bl	_ZN3r2p7Flasher16is_within_boundsEPKv
 5194 1164 0346     		mov	r3, r0
 5195 1166 002B     		cmp	r3, #0
 5196 1168 06D0     		beq	.L364
 5197              		.loc 15 618 0 is_stmt 0 discriminator 1
 5198 116a 03AA     		add	r2, sp, #12
 5199 116c 01AB     		add	r3, sp, #4
 5200 116e 1046     		mov	r0, r2
 5201 1170 1946     		mov	r1, r3
 5202 1172 FFF7FEFF 		bl	_ZN3r2p10Bootloader8IteratorC1ERKS1_
 5203 1176 04E0     		b	.L365
 5204              	.L364:
 5205              		.loc 15 618 0 discriminator 2
 5206 1178 03AB     		add	r3, sp, #12
 5207 117a 1846     		mov	r0, r3
 5208 117c 0021     		movs	r1, #0
 5209 117e FFF7FEFF 		bl	_ZN3r2p10Bootloader8IteratorC1EPKNS0_12FlashAppInfoE
 5210              	.L365:
 5211              		.loc 15 618 0 discriminator 4
 5212 1182 03AB     		add	r3, sp, #12
 5213 1184 1846     		mov	r0, r3
 5214 1186 FFF7FEFF 		bl	_ZNK3r2p10Bootloader8IteratorcvPKNS0_12FlashAppInfoEEv
 5215 118a 0346     		mov	r3, r0
 5216              	.LBE61:
 5217              		.loc 15 619 0 is_stmt 1 discriminator 4
 5218 118c 1846     		mov	r0, r3
 5219 118e 05B0     		add	sp, sp, #20
 5220              		.cfi_def_cfa_offset 4
 5221              		@ sp needed
 5222 1190 5DF804FB 		ldr	pc, [sp], #4
 5223              		.cfi_endproc
 5224              	.LFE431:
 5225              		.size	_ZN3r2p10Bootloader12get_free_appEv, .-_ZN3r2p10Bootloader12get_free_appEv
 5226              		.align	2
 5227              		.global	_ZN3r2p10Bootloader12get_last_appEv
 5228              		.thumb
 5229              		.thumb_func
 5230              		.type	_ZN3r2p10Bootloader12get_last_appEv, %function
 5231              	_ZN3r2p10Bootloader12get_last_appEv:
 5232              	.LFB432:
 5233              		.loc 15 622 0
 5234              		.cfi_startproc
 5235              		@ args = 0, pretend = 0, frame = 16
 5236              		@ frame_needed = 0, uses_anonymous_args = 0
 5237 1194 00B5     		push	{lr}
 5238              		.cfi_def_cfa_offset 4
 5239              		.cfi_offset 14, -4
 5240 1196 85B0     		sub	sp, sp, #20
 5241              		.cfi_def_cfa_offset 24
ARM GAS  /tmp/cc5OZvFd.s 			page 93


 5242              	.LBB62:
 5243              		.loc 15 624 0
 5244 1198 0023     		movs	r3, #0
 5245 119a 0393     		str	r3, [sp, #12]
 5246              	.LBB63:
 5247              		.loc 15 625 0
 5248 119c 01AB     		add	r3, sp, #4
 5249 119e 1846     		mov	r0, r3
 5250 11a0 FFF7FEFF 		bl	_ZN3r2p10Bootloader5beginEv
 5251 11a4 08E0     		b	.L368
 5252              	.L369:
 5253              		.loc 15 626 0 discriminator 3
 5254 11a6 01AB     		add	r3, sp, #4
 5255 11a8 1846     		mov	r0, r3
 5256 11aa FFF7FEFF 		bl	_ZNK3r2p10Bootloader8IteratorcvPKNS0_12FlashAppInfoEEv
 5257 11ae 0390     		str	r0, [sp, #12]
 5258              		.loc 15 625 0 discriminator 3
 5259 11b0 01AB     		add	r3, sp, #4
 5260 11b2 1846     		mov	r0, r3
 5261 11b4 FFF7FEFF 		bl	_ZN3r2p10Bootloader8IteratorppEv
 5262              	.L368:
 5263              		.loc 15 625 0 is_stmt 0 discriminator 1
 5264 11b8 02AB     		add	r3, sp, #8
 5265 11ba 1846     		mov	r0, r3
 5266 11bc FFF7FEFF 		bl	_ZN3r2p10Bootloader3endEv
 5267 11c0 01AA     		add	r2, sp, #4
 5268 11c2 02AB     		add	r3, sp, #8
 5269 11c4 1046     		mov	r0, r2
 5270 11c6 1946     		mov	r1, r3
 5271 11c8 FFF7FEFF 		bl	_ZNK3r2p10Bootloader8IteratorneERKS1_
 5272 11cc 0346     		mov	r3, r0
 5273 11ce 002B     		cmp	r3, #0
 5274 11d0 E9D1     		bne	.L369
 5275              	.LBE63:
 5276              		.loc 15 628 0 is_stmt 1
 5277 11d2 0398     		ldr	r0, [sp, #12]
 5278 11d4 FFF7FEFF 		bl	_ZN3r2p7Flasher16is_within_boundsEPKv
 5279 11d8 0346     		mov	r3, r0
 5280 11da 002B     		cmp	r3, #0
 5281 11dc 01D0     		beq	.L370
 5282              		.loc 15 628 0 is_stmt 0 discriminator 1
 5283 11de 039B     		ldr	r3, [sp, #12]
 5284 11e0 00E0     		b	.L371
 5285              	.L370:
 5286              		.loc 15 628 0 discriminator 2
 5287 11e2 0023     		movs	r3, #0
 5288              	.L371:
 5289              	.LBE62:
 5290              		.loc 15 629 0 is_stmt 1 discriminator 4
 5291 11e4 1846     		mov	r0, r3
 5292 11e6 05B0     		add	sp, sp, #20
 5293              		.cfi_def_cfa_offset 4
 5294              		@ sp needed
 5295 11e8 5DF804FB 		ldr	pc, [sp], #4
 5296              		.cfi_endproc
 5297              	.LFE432:
 5298              		.size	_ZN3r2p10Bootloader12get_last_appEv, .-_ZN3r2p10Bootloader12get_last_appEv
ARM GAS  /tmp/cc5OZvFd.s 			page 94


 5299              		.align	2
 5300              		.global	_ZN3r2p10Bootloader7get_appEPKc
 5301              		.thumb
 5302              		.thumb_func
 5303              		.type	_ZN3r2p10Bootloader7get_appEPKc, %function
 5304              	_ZN3r2p10Bootloader7get_appEPKc:
 5305              	.LFB433:
 5306              		.loc 15 632 0
 5307              		.cfi_startproc
 5308              		@ args = 0, pretend = 0, frame = 16
 5309              		@ frame_needed = 0, uses_anonymous_args = 0
 5310 11ec 00B5     		push	{lr}
 5311              		.cfi_def_cfa_offset 4
 5312              		.cfi_offset 14, -4
 5313 11ee 85B0     		sub	sp, sp, #20
 5314              		.cfi_def_cfa_offset 24
 5315 11f0 0190     		str	r0, [sp, #4]
 5316              	.LBB64:
 5317              	.LBB65:
 5318              		.loc 15 634 0
 5319 11f2 02AB     		add	r3, sp, #8
 5320 11f4 1846     		mov	r0, r3
 5321 11f6 FFF7FEFF 		bl	_ZN3r2p10Bootloader5beginEv
 5322 11fa 15E0     		b	.L374
 5323              	.L377:
 5324              		.loc 15 635 0
 5325 11fc 02AB     		add	r3, sp, #8
 5326 11fe 1846     		mov	r0, r3
 5327 1200 FFF7FEFF 		bl	_ZNK3r2p10Bootloader8IteratorptEv
 5328 1204 0346     		mov	r3, r0
 5329 1206 1846     		mov	r0, r3
 5330 1208 0199     		ldr	r1, [sp, #4]
 5331 120a FFF7FEFF 		bl	_ZNK3r2p10Bootloader12FlashAppInfo8has_nameEPKc
 5332 120e 0346     		mov	r3, r0
 5333 1210 002B     		cmp	r3, #0
 5334 1212 05D0     		beq	.L375
 5335              		.loc 15 636 0
 5336 1214 02AB     		add	r3, sp, #8
 5337 1216 1846     		mov	r0, r3
 5338 1218 FFF7FEFF 		bl	_ZNK3r2p10Bootloader8IteratorcvPKNS0_12FlashAppInfoEEv
 5339 121c 0346     		mov	r3, r0
 5340 121e 11E0     		b	.L376
 5341              	.L375:
 5342              		.loc 15 634 0 discriminator 2
 5343 1220 02AB     		add	r3, sp, #8
 5344 1222 1846     		mov	r0, r3
 5345 1224 FFF7FEFF 		bl	_ZN3r2p10Bootloader8IteratorppEv
 5346              	.L374:
 5347              		.loc 15 634 0 is_stmt 0 discriminator 1
 5348 1228 03AB     		add	r3, sp, #12
 5349 122a 1846     		mov	r0, r3
 5350 122c FFF7FEFF 		bl	_ZN3r2p10Bootloader3endEv
 5351 1230 02AA     		add	r2, sp, #8
 5352 1232 03AB     		add	r3, sp, #12
 5353 1234 1046     		mov	r0, r2
 5354 1236 1946     		mov	r1, r3
 5355 1238 FFF7FEFF 		bl	_ZNK3r2p10Bootloader8IteratorneERKS1_
ARM GAS  /tmp/cc5OZvFd.s 			page 95


 5356 123c 0346     		mov	r3, r0
 5357 123e 002B     		cmp	r3, #0
 5358 1240 DCD1     		bne	.L377
 5359              	.LBE65:
 5360              		.loc 15 639 0 is_stmt 1
 5361 1242 0023     		movs	r3, #0
 5362              	.L376:
 5363              	.LBE64:
 5364              		.loc 15 640 0
 5365 1244 1846     		mov	r0, r3
 5366 1246 05B0     		add	sp, sp, #20
 5367              		.cfi_def_cfa_offset 4
 5368              		@ sp needed
 5369 1248 5DF804FB 		ldr	pc, [sp], #4
 5370              		.cfi_endproc
 5371              	.LFE433:
 5372              		.size	_ZN3r2p10Bootloader7get_appEPKc, .-_ZN3r2p10Bootloader7get_appEPKc
 5373              		.align	2
 5374              		.global	_ZN3r2p10Bootloader17compute_addressesERKNS_7BootMsg12LinkingSetupERNS1_16LinkingAddresses
 5375              		.thumb
 5376              		.thumb_func
 5377              		.type	_ZN3r2p10Bootloader17compute_addressesERKNS_7BootMsg12LinkingSetupERNS1_16LinkingAddressesE,
 5378              	_ZN3r2p10Bootloader17compute_addressesERKNS_7BootMsg12LinkingSetupERNS1_16LinkingAddressesE:
 5379              	.LFB434:
 5380              		.loc 15 644 0
 5381              		.cfi_startproc
 5382              		@ args = 0, pretend = 0, frame = 24
 5383              		@ frame_needed = 0, uses_anonymous_args = 0
 5384 124c 10B5     		push	{r4, lr}
 5385              		.cfi_def_cfa_offset 8
 5386              		.cfi_offset 4, -8
 5387              		.cfi_offset 14, -4
 5388 124e 86B0     		sub	sp, sp, #24
 5389              		.cfi_def_cfa_offset 32
 5390 1250 0190     		str	r0, [sp, #4]
 5391 1252 0091     		str	r1, [sp]
 5392              	.LBB66:
 5393              		.loc 15 646 0
 5394 1254 0098     		ldr	r0, [sp]
 5395 1256 0021     		movs	r1, #0
 5396 1258 1822     		movs	r2, #24
 5397 125a FFF7FEFF 		bl	memset
 5398              		.loc 15 649 0
 5399 125e 019B     		ldr	r3, [sp, #4]
 5400 1260 DB68     		ldr	r3, [r3, #12]	@ unaligned
 5401 1262 002B     		cmp	r3, #0
 5402 1264 01D1     		bne	.L379
 5403              		.loc 15 649 0 is_stmt 0 discriminator 1
 5404 1266 0023     		movs	r3, #0
 5405 1268 7EE0     		b	.L380
 5406              	.L379:
 5407              		.loc 15 653 0 is_stmt 1
 5408 126a FFF7FEFF 		bl	_ZN3r2p10Bootloader12get_free_appEv
 5409 126e 0590     		str	r0, [sp, #20]
 5410              		.loc 15 654 0
 5411 1270 059B     		ldr	r3, [sp, #20]
 5412 1272 002B     		cmp	r3, #0
ARM GAS  /tmp/cc5OZvFd.s 			page 96


 5413 1274 01D1     		bne	.L381
 5414              		.loc 15 654 0 is_stmt 0 discriminator 1
 5415 1276 0023     		movs	r3, #0
 5416 1278 76E0     		b	.L380
 5417              	.L381:
 5418              		.loc 15 655 0 is_stmt 1
 5419 127a 009B     		ldr	r3, [sp]
 5420 127c 059A     		ldr	r2, [sp, #20]
 5421 127e 1A60     		str	r2, [r3]	@ unaligned
 5422              		.loc 15 656 0
 5423 1280 0598     		ldr	r0, [sp, #20]
 5424 1282 FFF7FEFF 		bl	_ZN3r2p10Bootloader12FlashAppInfo15compute_programEPKS1_
 5425 1286 0246     		mov	r2, r0
 5426 1288 009B     		ldr	r3, [sp]
 5427 128a 5A60     		str	r2, [r3, #4]	@ unaligned
 5428              		.loc 15 658 0
 5429 128c 019B     		ldr	r3, [sp, #4]
 5430 128e 1A68     		ldr	r2, [r3]	@ unaligned
 5431 1290 019B     		ldr	r3, [sp, #4]
 5432 1292 9B68     		ldr	r3, [r3, #8]	@ unaligned
 5433 1294 0598     		ldr	r0, [sp, #20]
 5434 1296 1146     		mov	r1, r2
 5435 1298 1A46     		mov	r2, r3
 5436 129a FFF7FEFF 		bl	_ZN3r2p10Bootloader12FlashAppInfo20compute_data_programEPKS1_jj
 5437 129e 0246     		mov	r2, r0
 5438 12a0 009B     		ldr	r3, [sp]
 5439 12a2 1A61     		str	r2, [r3, #16]	@ unaligned
 5440              		.loc 15 660 0
 5441 12a4 019B     		ldr	r3, [sp, #4]
 5442 12a6 1A68     		ldr	r2, [r3]	@ unaligned
 5443 12a8 019B     		ldr	r3, [sp, #4]
 5444 12aa 9B68     		ldr	r3, [r3, #8]	@ unaligned
 5445 12ac 0598     		ldr	r0, [sp, #20]
 5446 12ae 1146     		mov	r1, r2
 5447 12b0 1A46     		mov	r2, r3
 5448 12b2 FFF7FEFF 		bl	_ZN3r2p10Bootloader12FlashAppInfo12compute_nextEPKS1_jj
 5449 12b6 0246     		mov	r2, r0
 5450              		.loc 15 661 0
 5451 12b8 009B     		ldr	r3, [sp]
 5452 12ba 5A61     		str	r2, [r3, #20]	@ unaligned
 5453              		.loc 15 662 0
 5454 12bc 009B     		ldr	r3, [sp]
 5455 12be 1C68     		ldr	r4, [r3]	@ unaligned
 5456 12c0 FFF7FEFF 		bl	_ZN3r2p7Flasher15get_program_endEv
 5457 12c4 0346     		mov	r3, r0
 5458 12c6 9C42     		cmp	r4, r3
 5459 12c8 06D2     		bcs	.L382
 5460              		.loc 15 663 0 discriminator 2
 5461 12ca 009B     		ldr	r3, [sp]
 5462 12cc 5C69     		ldr	r4, [r3, #20]	@ unaligned
 5463 12ce FFF7FEFF 		bl	_ZN3r2p7Flasher15get_program_endEv
 5464 12d2 0346     		mov	r3, r0
 5465              		.loc 15 662 0 discriminator 2
 5466 12d4 9C42     		cmp	r4, r3
 5467 12d6 01D9     		bls	.L383
 5468              	.L382:
 5469              		.loc 15 662 0 is_stmt 0 discriminator 3
ARM GAS  /tmp/cc5OZvFd.s 			page 97


 5470 12d8 0123     		movs	r3, #1
 5471 12da 00E0     		b	.L384
 5472              	.L383:
 5473              		.loc 15 662 0 discriminator 4
 5474 12dc 0023     		movs	r3, #0
 5475              	.L384:
 5476              		.loc 15 662 0 discriminator 6
 5477 12de 002B     		cmp	r3, #0
 5478 12e0 01D0     		beq	.L385
 5479              		.loc 15 664 0 is_stmt 1
 5480 12e2 0023     		movs	r3, #0
 5481 12e4 40E0     		b	.L380
 5482              	.L385:
 5483              	.LBB67:
 5484              		.loc 15 668 0
 5485 12e6 019B     		ldr	r3, [sp, #4]
 5486 12e8 5B68     		ldr	r3, [r3, #4]	@ unaligned
 5487 12ea 002B     		cmp	r3, #0
 5488 12ec 14D0     		beq	.L386
 5489              	.LBB68:
 5490              		.loc 15 669 0
 5491 12ee 019B     		ldr	r3, [sp, #4]
 5492 12f0 5B68     		ldr	r3, [r3, #4]	@ unaligned
 5493 12f2 1846     		mov	r0, r3
 5494 12f4 FFF7FEFF 		bl	_ZN3r2p10Bootloader11reserve_ramEj
 5495 12f8 0490     		str	r0, [sp, #16]
 5496              		.loc 15 670 0
 5497 12fa 009B     		ldr	r3, [sp]
 5498 12fc 049A     		ldr	r2, [sp, #16]
 5499 12fe 9A60     		str	r2, [r3, #8]	@ unaligned
 5500              		.loc 15 671 0
 5501 1300 049B     		ldr	r3, [sp, #16]
 5502 1302 002B     		cmp	r3, #0
 5503 1304 01D1     		bne	.L387
 5504              		.loc 15 671 0 is_stmt 0 discriminator 1
 5505 1306 0023     		movs	r3, #0
 5506 1308 2EE0     		b	.L380
 5507              	.L387:
 5508              		.loc 15 672 0 is_stmt 1
 5509 130a 019B     		ldr	r3, [sp, #4]
 5510 130c 5B68     		ldr	r3, [r3, #4]	@ unaligned
 5511 130e 0498     		ldr	r0, [sp, #16]
 5512 1310 0021     		movs	r1, #0
 5513 1312 1A46     		mov	r2, r3
 5514 1314 FFF7FEFF 		bl	memset
 5515              	.L386:
 5516              	.LBE68:
 5517              	.LBE67:
 5518              	.LBB69:
 5519              		.loc 15 676 0
 5520 1318 019B     		ldr	r3, [sp, #4]
 5521 131a 9B68     		ldr	r3, [r3, #8]	@ unaligned
 5522 131c 002B     		cmp	r3, #0
 5523 131e 22D0     		beq	.L388
 5524              	.LBB70:
 5525              		.loc 15 677 0
 5526 1320 019B     		ldr	r3, [sp, #4]
ARM GAS  /tmp/cc5OZvFd.s 			page 98


 5527 1322 9B68     		ldr	r3, [r3, #8]	@ unaligned
 5528 1324 1846     		mov	r0, r3
 5529 1326 FFF7FEFF 		bl	_ZN3r2p10Bootloader11reserve_ramEj
 5530 132a 0390     		str	r0, [sp, #12]
 5531              		.loc 15 678 0
 5532 132c 009B     		ldr	r3, [sp]
 5533 132e 039A     		ldr	r2, [sp, #12]
 5534 1330 DA60     		str	r2, [r3, #12]	@ unaligned
 5535              		.loc 15 679 0
 5536 1332 039B     		ldr	r3, [sp, #12]
 5537 1334 002B     		cmp	r3, #0
 5538 1336 0FD1     		bne	.L389
 5539              		.loc 15 680 0
 5540 1338 019B     		ldr	r3, [sp, #4]
 5541 133a 5B68     		ldr	r3, [r3, #4]	@ unaligned
 5542 133c 1846     		mov	r0, r3
 5543 133e FFF7FEFF 		bl	_ZN3r2p10Bootloader13unreserve_ramEj
 5544              		.loc 15 681 0
 5545 1342 009B     		ldr	r3, [sp]
 5546 1344 0022     		movs	r2, #0
 5547 1346 1A72     		strb	r2, [r3, #8]
 5548 1348 0022     		movs	r2, #0
 5549 134a 5A72     		strb	r2, [r3, #9]
 5550 134c 0022     		movs	r2, #0
 5551 134e 9A72     		strb	r2, [r3, #10]
 5552 1350 0022     		movs	r2, #0
 5553 1352 DA72     		strb	r2, [r3, #11]
 5554              		.loc 15 682 0
 5555 1354 0023     		movs	r3, #0
 5556 1356 07E0     		b	.L380
 5557              	.L389:
 5558              		.loc 15 684 0
 5559 1358 019B     		ldr	r3, [sp, #4]
 5560 135a 9B68     		ldr	r3, [r3, #8]	@ unaligned
 5561 135c 0398     		ldr	r0, [sp, #12]
 5562 135e CC21     		movs	r1, #204
 5563 1360 1A46     		mov	r2, r3
 5564 1362 FFF7FEFF 		bl	memset
 5565              	.L388:
 5566              	.LBE70:
 5567              	.LBE69:
 5568              		.loc 15 686 0
 5569 1366 0123     		movs	r3, #1
 5570              	.L380:
 5571              	.LBE66:
 5572              		.loc 15 687 0
 5573 1368 1846     		mov	r0, r3
 5574 136a 06B0     		add	sp, sp, #24
 5575              		.cfi_def_cfa_offset 8
 5576              		@ sp needed
 5577 136c 10BD     		pop	{r4, pc}
 5578              		.cfi_endproc
 5579              	.LFE434:
 5580              		.size	_ZN3r2p10Bootloader17compute_addressesERKNS_7BootMsg12LinkingSetupERNS1_16LinkingAddressesE,
 5581 136e 00BF     		.align	2
 5582              		.global	_ZN3r2p10Bootloader6launchEPKc
 5583              		.thumb
ARM GAS  /tmp/cc5OZvFd.s 			page 99


 5584              		.thumb_func
 5585              		.type	_ZN3r2p10Bootloader6launchEPKc, %function
 5586              	_ZN3r2p10Bootloader6launchEPKc:
 5587              	.LFB435:
 5588              		.loc 15 690 0
 5589              		.cfi_startproc
 5590              		@ args = 0, pretend = 0, frame = 24
 5591              		@ frame_needed = 0, uses_anonymous_args = 0
 5592 1370 00B5     		push	{lr}
 5593              		.cfi_def_cfa_offset 4
 5594              		.cfi_offset 14, -4
 5595 1372 89B0     		sub	sp, sp, #36
 5596              		.cfi_def_cfa_offset 40
 5597 1374 0390     		str	r0, [sp, #12]
 5598              	.LBB71:
 5599              		.loc 15 692 0
 5600 1376 0398     		ldr	r0, [sp, #12]
 5601 1378 FFF7FEFF 		bl	_ZN3r2p10Bootloader7get_appEPKc
 5602 137c 0790     		str	r0, [sp, #28]
 5603              		.loc 15 693 0
 5604 137e 079B     		ldr	r3, [sp, #28]
 5605 1380 002B     		cmp	r3, #0
 5606 1382 01D1     		bne	.L391
 5607              		.loc 15 693 0 is_stmt 0 discriminator 1
 5608 1384 0023     		movs	r3, #0
 5609 1386 30E0     		b	.L392
 5610              	.L391:
 5611              		.loc 15 694 0 is_stmt 1
 5612 1388 079B     		ldr	r3, [sp, #28]
 5613 138a 93F84030 		ldrb	r3, [r3, #64]	@ zero_extendqisi2
 5614 138e 03F00103 		and	r3, r3, #1
 5615 1392 DBB2     		uxtb	r3, r3
 5616 1394 002B     		cmp	r3, #0
 5617 1396 01D1     		bne	.L393
 5618              		.loc 15 694 0 is_stmt 0 discriminator 1
 5619 1398 0123     		movs	r3, #1
 5620 139a 26E0     		b	.L392
 5621              	.L393:
 5622              		.loc 15 696 0 is_stmt 1
 5623 139c 0920     		movs	r0, #9
 5624 139e FFF7FEFF 		bl	_Znaj
 5625 13a2 0690     		str	r0, [sp, #24]
 5626              		.loc 15 697 0
 5627 13a4 069B     		ldr	r3, [sp, #24]
 5628 13a6 002B     		cmp	r3, #0
 5629 13a8 01D1     		bne	.L394
 5630              		.loc 15 697 0 is_stmt 0 discriminator 1
 5631 13aa 0023     		movs	r3, #0
 5632 13ac 1DE0     		b	.L392
 5633              	.L394:
 5634              		.loc 15 698 0 is_stmt 1
 5635 13ae 079B     		ldr	r3, [sp, #28]
 5636 13b0 3833     		adds	r3, r3, #56
 5637 13b2 0698     		ldr	r0, [sp, #24]
 5638 13b4 1946     		mov	r1, r3
 5639 13b6 0822     		movs	r2, #8
 5640 13b8 FFF7FEFF 		bl	strncpy
ARM GAS  /tmp/cc5OZvFd.s 			page 100


 5641              		.loc 15 699 0
 5642 13bc 069B     		ldr	r3, [sp, #24]
 5643 13be 0833     		adds	r3, r3, #8
 5644 13c0 0022     		movs	r2, #0
 5645 13c2 1A70     		strb	r2, [r3]
 5646              		.loc 15 704 0
 5647 13c4 079B     		ldr	r3, [sp, #28]
 5648 13c6 1A6A     		ldr	r2, [r3, #32]
 5649 13c8 079B     		ldr	r3, [sp, #28]
 5650 13ca 0093     		str	r3, [sp]
 5651 13cc 069B     		ldr	r3, [sp, #24]
 5652 13ce 0193     		str	r3, [sp, #4]
 5653 13d0 0020     		movs	r0, #0
 5654 13d2 1146     		mov	r1, r2
 5655 13d4 4022     		movs	r2, #64
 5656 13d6 074B     		ldr	r3, .L395
 5657 13d8 FFF7FEFF 		bl	_ZN3r2p6Thread11create_heapEPvjmPFlS1_ES1_PKc
 5658 13dc 0590     		str	r0, [sp, #20]
 5659              		.loc 15 705 0
 5660 13de 059B     		ldr	r3, [sp, #20]
 5661 13e0 002B     		cmp	r3, #0
 5662 13e2 14BF     		ite	ne
 5663 13e4 0123     		movne	r3, #1
 5664 13e6 0023     		moveq	r3, #0
 5665 13e8 DBB2     		uxtb	r3, r3
 5666              	.L392:
 5667              	.LBE71:
 5668              		.loc 15 706 0
 5669 13ea 1846     		mov	r0, r3
 5670 13ec 09B0     		add	sp, sp, #36
 5671              		.cfi_def_cfa_offset 4
 5672              		@ sp needed
 5673 13ee 5DF804FB 		ldr	pc, [sp], #4
 5674              	.L396:
 5675 13f2 00BF     		.align	2
 5676              	.L395:
 5677 13f4 00000000 		.word	_ZN3r2p10Bootloader19app_threadf_wrapperEPv
 5678              		.cfi_endproc
 5679              	.LFE435:
 5680              		.size	_ZN3r2p10Bootloader6launchEPKc, .-_ZN3r2p10Bootloader6launchEPKc
 5681              		.align	2
 5682              		.global	_ZN3r2p10Bootloader19app_threadf_wrapperEPv
 5683              		.thumb
 5684              		.thumb_func
 5685              		.type	_ZN3r2p10Bootloader19app_threadf_wrapperEPv, %function
 5686              	_ZN3r2p10Bootloader19app_threadf_wrapperEPv:
 5687              	.LFB436:
 5688              		.loc 15 709 0
 5689              		.cfi_startproc
 5690              		@ args = 0, pretend = 0, frame = 16
 5691              		@ frame_needed = 0, uses_anonymous_args = 0
 5692 13f8 30B5     		push	{r4, r5, lr}
 5693              		.cfi_def_cfa_offset 12
 5694              		.cfi_offset 4, -12
 5695              		.cfi_offset 5, -8
 5696              		.cfi_offset 14, -4
 5697 13fa 85B0     		sub	sp, sp, #20
ARM GAS  /tmp/cc5OZvFd.s 			page 101


 5698              		.cfi_def_cfa_offset 32
 5699 13fc 0190     		str	r0, [sp, #4]
 5700              	.LBB72:
 5701              		.loc 15 714 0
 5702 13fe 019C     		ldr	r4, [sp, #4]
 5703              		.loc 15 717 0
 5704 1400 2269     		ldr	r2, [r4, #16]
 5705 1402 A368     		ldr	r3, [r4, #8]
 5706 1404 1046     		mov	r0, r2
 5707 1406 0021     		movs	r1, #0
 5708 1408 1A46     		mov	r2, r3
 5709 140a FFF7FEFF 		bl	memset
 5710              		.loc 15 721 0
 5711 140e 6569     		ldr	r5, [r4, #20]
 5712              		.loc 15 720 0
 5713 1410 2046     		mov	r0, r4
 5714 1412 FFF7FEFF 		bl	_ZNK3r2p10Bootloader12FlashAppInfo16get_data_programEv
 5715 1416 0246     		mov	r2, r0
 5716              		.loc 15 721 0
 5717 1418 E368     		ldr	r3, [r4, #12]
 5718 141a 2846     		mov	r0, r5
 5719 141c 1146     		mov	r1, r2
 5720 141e 1A46     		mov	r2, r3
 5721 1420 FFF7FEFF 		bl	memcpy
 5722              	.LBB73:
 5723              		.loc 15 724 0
 5724 1424 0023     		movs	r3, #0
 5725 1426 0393     		str	r3, [sp, #12]
 5726 1428 08E0     		b	.L398
 5727              	.L399:
 5728              		.loc 15 725 0 discriminator 3
 5729 142a A26A     		ldr	r2, [r4, #40]
 5730 142c 039B     		ldr	r3, [sp, #12]
 5731 142e 9B00     		lsls	r3, r3, #2
 5732 1430 1344     		add	r3, r3, r2
 5733 1432 1B68     		ldr	r3, [r3]
 5734 1434 9847     		blx	r3
 5735              		.loc 15 724 0 discriminator 3
 5736 1436 039B     		ldr	r3, [sp, #12]
 5737 1438 0133     		adds	r3, r3, #1
 5738 143a 0393     		str	r3, [sp, #12]
 5739              	.L398:
 5740              		.loc 15 724 0 is_stmt 0 discriminator 1
 5741 143c E26A     		ldr	r2, [r4, #44]
 5742 143e 039B     		ldr	r3, [sp, #12]
 5743 1440 9A42     		cmp	r2, r3
 5744 1442 F2D8     		bhi	.L399
 5745              	.LBE73:
 5746              		.loc 15 729 0 is_stmt 1
 5747 1444 636A     		ldr	r3, [r4, #36]
 5748 1446 9847     		blx	r3
 5749              	.LBB74:
 5750              		.loc 15 732 0
 5751 1448 0023     		movs	r3, #0
 5752 144a 0293     		str	r3, [sp, #8]
 5753 144c 08E0     		b	.L400
 5754              	.L401:
ARM GAS  /tmp/cc5OZvFd.s 			page 102


 5755              		.loc 15 733 0 discriminator 3
 5756 144e 226B     		ldr	r2, [r4, #48]
 5757 1450 029B     		ldr	r3, [sp, #8]
 5758 1452 9B00     		lsls	r3, r3, #2
 5759 1454 1344     		add	r3, r3, r2
 5760 1456 1B68     		ldr	r3, [r3]
 5761 1458 9847     		blx	r3
 5762              		.loc 15 732 0 discriminator 3
 5763 145a 029B     		ldr	r3, [sp, #8]
 5764 145c 0133     		adds	r3, r3, #1
 5765 145e 0293     		str	r3, [sp, #8]
 5766              	.L400:
 5767              		.loc 15 732 0 is_stmt 0 discriminator 1
 5768 1460 626B     		ldr	r2, [r4, #52]
 5769 1462 029B     		ldr	r3, [sp, #8]
 5770 1464 9A42     		cmp	r2, r3
 5771 1466 F2D8     		bhi	.L401
 5772              	.LBE74:
 5773              		.loc 15 736 0 is_stmt 1
 5774 1468 0023     		movs	r3, #0
 5775              	.LBE72:
 5776              		.loc 15 737 0
 5777 146a 1846     		mov	r0, r3
 5778 146c 05B0     		add	sp, sp, #20
 5779              		.cfi_def_cfa_offset 12
 5780              		@ sp needed
 5781 146e 30BD     		pop	{r4, r5, pc}
 5782              		.cfi_endproc
 5783              	.LFE436:
 5784              		.size	_ZN3r2p10Bootloader19app_threadf_wrapperEPv, .-_ZN3r2p10Bootloader19app_threadf_wrapperEPv
 5785              		.align	2
 5786              		.global	_ZN3r2p10Bootloader10launch_allEv
 5787              		.thumb
 5788              		.thumb_func
 5789              		.type	_ZN3r2p10Bootloader10launch_allEv, %function
 5790              	_ZN3r2p10Bootloader10launch_allEv:
 5791              	.LFB437:
 5792              		.loc 15 740 0
 5793              		.cfi_startproc
 5794              		@ args = 0, pretend = 0, frame = 16
 5795              		@ frame_needed = 0, uses_anonymous_args = 0
 5796 1470 00B5     		push	{lr}
 5797              		.cfi_def_cfa_offset 4
 5798              		.cfi_offset 14, -4
 5799 1472 85B0     		sub	sp, sp, #20
 5800              		.cfi_def_cfa_offset 24
 5801              	.LBB75:
 5802              		.loc 15 742 0
 5803 1474 0123     		movs	r3, #1
 5804 1476 8DF80F30 		strb	r3, [sp, #15]
 5805              	.LBB76:
 5806              		.loc 15 743 0
 5807 147a 01AB     		add	r3, sp, #4
 5808 147c 1846     		mov	r0, r3
 5809 147e FFF7FEFF 		bl	_ZN3r2p10Bootloader5beginEv
 5810 1482 15E0     		b	.L404
 5811              	.L406:
ARM GAS  /tmp/cc5OZvFd.s 			page 103


 5812              		.loc 15 744 0
 5813 1484 01AB     		add	r3, sp, #4
 5814 1486 1846     		mov	r0, r3
 5815 1488 FFF7FEFF 		bl	_ZNK3r2p10Bootloader8IteratorptEv
 5816 148c 0346     		mov	r3, r0
 5817 148e 3833     		adds	r3, r3, #56
 5818 1490 1846     		mov	r0, r3
 5819 1492 FFF7FEFF 		bl	_ZN3r2p10Bootloader6launchEPKc
 5820 1496 0346     		mov	r3, r0
 5821 1498 83F00103 		eor	r3, r3, #1
 5822 149c DBB2     		uxtb	r3, r3
 5823 149e 002B     		cmp	r3, #0
 5824 14a0 02D0     		beq	.L405
 5825              		.loc 15 745 0
 5826 14a2 0023     		movs	r3, #0
 5827 14a4 8DF80F30 		strb	r3, [sp, #15]
 5828              	.L405:
 5829              		.loc 15 743 0 discriminator 2
 5830 14a8 01AB     		add	r3, sp, #4
 5831 14aa 1846     		mov	r0, r3
 5832 14ac FFF7FEFF 		bl	_ZN3r2p10Bootloader8IteratorppEv
 5833              	.L404:
 5834              		.loc 15 743 0 is_stmt 0 discriminator 1
 5835 14b0 02AB     		add	r3, sp, #8
 5836 14b2 1846     		mov	r0, r3
 5837 14b4 FFF7FEFF 		bl	_ZN3r2p10Bootloader3endEv
 5838 14b8 01AA     		add	r2, sp, #4
 5839 14ba 02AB     		add	r3, sp, #8
 5840 14bc 1046     		mov	r0, r2
 5841 14be 1946     		mov	r1, r3
 5842 14c0 FFF7FEFF 		bl	_ZNK3r2p10Bootloader8IteratorneERKS1_
 5843 14c4 0346     		mov	r3, r0
 5844 14c6 002B     		cmp	r3, #0
 5845 14c8 DCD1     		bne	.L406
 5846              	.LBE76:
 5847              		.loc 15 748 0 is_stmt 1
 5848 14ca 9DF80F30 		ldrb	r3, [sp, #15]	@ zero_extendqisi2
 5849              	.LBE75:
 5850              		.loc 15 749 0
 5851 14ce 1846     		mov	r0, r3
 5852 14d0 05B0     		add	sp, sp, #20
 5853              		.cfi_def_cfa_offset 4
 5854              		@ sp needed
 5855 14d2 5DF804FB 		ldr	pc, [sp], #4
 5856              		.cfi_endproc
 5857              	.LFE437:
 5858              		.size	_ZN3r2p10Bootloader10launch_allEv, .-_ZN3r2p10Bootloader10launch_allEv
 5859              		.section	.text._ZN3r2p18compute_chunk_sizeIhEEjPKT_S3_,"axG",%progbits,_ZN3r2p18compute_chunk_size
 5860              		.align	2
 5861              		.weak	_ZN3r2p18compute_chunk_sizeIhEEjPKT_S3_
 5862              		.thumb
 5863              		.thumb_func
 5864              		.type	_ZN3r2p18compute_chunk_sizeIhEEjPKT_S3_, %function
 5865              	_ZN3r2p18compute_chunk_sizeIhEEjPKT_S3_:
 5866              	.LFB438:
 5867              		.loc 4 62 0
 5868              		.cfi_startproc
ARM GAS  /tmp/cc5OZvFd.s 			page 104


 5869              		@ args = 0, pretend = 0, frame = 8
 5870              		@ frame_needed = 0, uses_anonymous_args = 0
 5871              		@ link register save eliminated.
 5872 0000 82B0     		sub	sp, sp, #8
 5873              		.cfi_def_cfa_offset 8
 5874 0002 0190     		str	r0, [sp, #4]
 5875 0004 0091     		str	r1, [sp]
 5876              		.loc 4 66 0
 5877 0006 009A     		ldr	r2, [sp]
 5878 0008 019B     		ldr	r3, [sp, #4]
 5879 000a D31A     		subs	r3, r2, r3
 5880              		.loc 4 67 0
 5881 000c 1846     		mov	r0, r3
 5882 000e 02B0     		add	sp, sp, #8
 5883              		.cfi_def_cfa_offset 0
 5884              		@ sp needed
 5885 0010 7047     		bx	lr
 5886              		.cfi_endproc
 5887              	.LFE438:
 5888              		.size	_ZN3r2p18compute_chunk_sizeIhEEjPKT_S3_, .-_ZN3r2p18compute_chunk_sizeIhEEjPKT_S3_
 5889 0012 00BF     		.section	.text._ZN3r2p4TimeC2IlEET_,"axG",%progbits,_ZN3r2p4TimeC5IlEET_,comdat
 5890              		.align	2
 5891              		.weak	_ZN3r2p4TimeC2IlEET_
 5892              		.thumb
 5893              		.thumb_func
 5894              		.type	_ZN3r2p4TimeC2IlEET_, %function
 5895              	_ZN3r2p4TimeC2IlEET_:
 5896              	.LFB440:
 5897              		.loc 9 159 0
 5898              		.cfi_startproc
 5899              		@ args = 0, pretend = 0, frame = 8
 5900              		@ frame_needed = 0, uses_anonymous_args = 0
 5901              		@ link register save eliminated.
 5902 0000 82B0     		sub	sp, sp, #8
 5903              		.cfi_def_cfa_offset 8
 5904 0002 0190     		str	r0, [sp, #4]
 5905 0004 0091     		str	r1, [sp]
 5906              	.LBB77:
 5907              		.loc 9 161 0
 5908 0006 019B     		ldr	r3, [sp, #4]
 5909 0008 009A     		ldr	r2, [sp]
 5910 000a 1A60     		str	r2, [r3]
 5911              	.LBE77:
 5912              		.loc 9 162 0
 5913 000c 019B     		ldr	r3, [sp, #4]
 5914 000e 1846     		mov	r0, r3
 5915 0010 02B0     		add	sp, sp, #8
 5916              		.cfi_def_cfa_offset 0
 5917              		@ sp needed
 5918 0012 7047     		bx	lr
 5919              		.cfi_endproc
 5920              	.LFE440:
 5921              		.size	_ZN3r2p4TimeC2IlEET_, .-_ZN3r2p4TimeC2IlEET_
 5922              		.weak	_ZN3r2p4TimeC1IlEET_
 5923              		.thumb_set _ZN3r2p4TimeC1IlEET_,_ZN3r2p4TimeC2IlEET_
 5924              		.section	.text._ZN3r2p9PublisherINS_7BootMsgEE5allocERPS1_,"axG",%progbits,_ZN3r2p9PublisherINS_7B
 5925              		.align	2
ARM GAS  /tmp/cc5OZvFd.s 			page 105


 5926              		.weak	_ZN3r2p9PublisherINS_7BootMsgEE5allocERPS1_
 5927              		.thumb
 5928              		.thumb_func
 5929              		.type	_ZN3r2p9PublisherINS_7BootMsgEE5allocERPS1_, %function
 5930              	_ZN3r2p9PublisherINS_7BootMsgEE5allocERPS1_:
 5931              	.LFB453:
 5932              		.file 16 "/opt/R2P/core/Middleware/include/r2p/Publisher.hpp"
 5933              		.loc 16 25 0
 5934              		.cfi_startproc
 5935              		@ args = 0, pretend = 0, frame = 8
 5936              		@ frame_needed = 0, uses_anonymous_args = 0
 5937 0000 00B5     		push	{lr}
 5938              		.cfi_def_cfa_offset 4
