ARM GAS  /tmp/cc5OZvFd.s 			page 1


   1              		.syntax unified
   2              		.cpu cortex-m4
   3              		.fpu softvfp
   4              		.eabi_attribute 20, 1
   5              		.eabi_attribute 21, 1
   6              		.eabi_attribute 23, 3
   7              		.eabi_attribute 24, 1
   8              		.eabi_attribute 25, 1
   9              		.eabi_attribute 26, 1
  10              		.eabi_attribute 30, 6
  11              		.eabi_attribute 34, 1
  12              		.eabi_attribute 18, 4
  13              		.thumb
  14              		.file	"Bootloader.cpp"
  15              		.text
  16              	.Ltext0:
  17              		.cfi_sections	.debug_frame
  18              		.section	.text._ZN3r2p10UncopyableC2Ev,"axG",%progbits,_ZN3r2p10UncopyableC5Ev,comdat
  19              		.align	2
  20              		.weak	_ZN3r2p10UncopyableC2Ev
  21              		.thumb
  22              		.thumb_func
  23              		.type	_ZN3r2p10UncopyableC2Ev, %function
  24              	_ZN3r2p10UncopyableC2Ev:
  25              	.LFB6:
  26              		.file 1 "/opt/R2P/core/Middleware/include/r2p/Uncopyable.hpp"
  27              		.loc 1 20 0
  28              		.cfi_startproc
  29              		@ args = 0, pretend = 0, frame = 8
  30              		@ frame_needed = 0, uses_anonymous_args = 0
  31              		@ link register save eliminated.
  32 0000 82B0     		sub	sp, sp, #8
  33              		.cfi_def_cfa_offset 8
  34 0002 0190     		str	r0, [sp, #4]
  35              		.loc 1 20 0
  36 0004 019B     		ldr	r3, [sp, #4]
  37 0006 1846     		mov	r0, r3
  38 0008 02B0     		add	sp, sp, #8
  39              		.cfi_def_cfa_offset 0
  40              		@ sp needed
  41 000a 7047     		bx	lr
  42              		.cfi_endproc
  43              	.LFE6:
  44              		.size	_ZN3r2p10UncopyableC2Ev, .-_ZN3r2p10UncopyableC2Ev
  45              		.weak	_ZN3r2p10UncopyableC1Ev
  46              		.thumb_set _ZN3r2p10UncopyableC1Ev,_ZN3r2p10UncopyableC2Ev
  47              		.section	.text._ZN3r2p8SysLock_7acquireEv,"axG",%progbits,_ZN3r2p8SysLock_7acquireEv,comdat
  48              		.align	2
  49              		.weak	_ZN3r2p8SysLock_7acquireEv
  50              		.thumb
  51              		.thumb_func
  52              		.type	_ZN3r2p8SysLock_7acquireEv, %function
  53              	_ZN3r2p8SysLock_7acquireEv:
  54              	.LFB18:
  55              		.file 2 "/opt/R2P/core/Middleware/port/chibios/include/r2p/impl/SysLock_.hpp"
  56              		.loc 2 20 0
  57              		.cfi_startproc
ARM GAS  /tmp/cc5OZvFd.s 			page 2


  58              		@ args = 0, pretend = 0, frame = 0
  59              		@ frame_needed = 0, uses_anonymous_args = 0
  60 0000 08B5     		push	{r3, lr}
  61              		.cfi_def_cfa_offset 8
  62              		.cfi_offset 3, -8
  63              		.cfi_offset 14, -4
  64              	.LBB14:
  65              	.LBB15:
  66              	.LBB16:
  67              		.loc 2 22 0
  68 0002 2023     		movs	r3, #32
  69              	@ 22 "/opt/R2P/core/Middleware/port/chibios/include/r2p/impl/SysLock_.hpp" 1
  70 0004 83F31188 		msr     BASEPRI, r3
  71              	@ 0 "" 2
  72              		.thumb
  73              	.LBE16:
  74 0008 FFF7FEFF 		bl	dbg_check_lock
  75              	.LBE15:
  76              	.LBE14:
  77              		.loc 2 23 0
  78 000c 08BD     		pop	{r3, pc}
  79              		.cfi_endproc
  80              	.LFE18:
  81              		.size	_ZN3r2p8SysLock_7acquireEv, .-_ZN3r2p8SysLock_7acquireEv
  82 000e 00BF     		.section	.text._ZN3r2p8SysLock_7releaseEv,"axG",%progbits,_ZN3r2p8SysLock_7releaseEv,comdat
  83              		.align	2
  84              		.weak	_ZN3r2p8SysLock_7releaseEv
  85              		.thumb
  86              		.thumb_func
  87              		.type	_ZN3r2p8SysLock_7releaseEv, %function
  88              	_ZN3r2p8SysLock_7releaseEv:
  89              	.LFB19:
  90              		.loc 2 27 0
  91              		.cfi_startproc
  92              		@ args = 0, pretend = 0, frame = 0
  93              		@ frame_needed = 0, uses_anonymous_args = 0
  94 0000 08B5     		push	{r3, lr}
  95              		.cfi_def_cfa_offset 8
  96              		.cfi_offset 3, -8
  97              		.cfi_offset 14, -4
  98              	.LBB17:
  99              	.LBB18:
 100              		.loc 2 29 0
 101 0002 FFF7FEFF 		bl	dbg_check_unlock
 102              	.LBB19:
 103 0006 0023     		movs	r3, #0
 104              	@ 29 "/opt/R2P/core/Middleware/port/chibios/include/r2p/impl/SysLock_.hpp" 1
 105 0008 83F31188 		msr     BASEPRI, r3
 106              	@ 0 "" 2
 107              		.thumb
 108              	.LBE19:
 109              	.LBE18:
 110              	.LBE17:
 111              		.loc 2 30 0
 112 000c 08BD     		pop	{r3, pc}
 113              		.cfi_endproc
 114              	.LFE19:
ARM GAS  /tmp/cc5OZvFd.s 			page 3


 115              		.size	_ZN3r2p8SysLock_7releaseEv, .-_ZN3r2p8SysLock_7releaseEv
 116 000e 00BF     		.section	.text._ZN3r2p7SysLock7acquireEv,"axG",%progbits,_ZN3r2p7SysLock7acquireEv,comdat
 117              		.align	2
 118              		.weak	_ZN3r2p7SysLock7acquireEv
 119              		.thumb
 120              		.thumb_func
 121              		.type	_ZN3r2p7SysLock7acquireEv, %function
 122              	_ZN3r2p7SysLock7acquireEv:
 123              	.LFB26:
 124              		.file 3 "/opt/R2P/core/Middleware/include/r2p/SysLock.hpp"
 125              		.loc 3 27 0
 126              		.cfi_startproc
 127              		@ args = 0, pretend = 0, frame = 0
 128              		@ frame_needed = 0, uses_anonymous_args = 0
 129 0000 08B5     		push	{r3, lr}
 130              		.cfi_def_cfa_offset 8
 131              		.cfi_offset 3, -8
 132              		.cfi_offset 14, -4
 133              		.loc 3 29 0
 134 0002 FFF7FEFF 		bl	_ZN3r2p8SysLock_7acquireEv
 135              		.loc 3 30 0
 136 0006 08BD     		pop	{r3, pc}
 137              		.cfi_endproc
 138              	.LFE26:
 139              		.size	_ZN3r2p7SysLock7acquireEv, .-_ZN3r2p7SysLock7acquireEv
 140              		.section	.text._ZN3r2p7SysLock7releaseEv,"axG",%progbits,_ZN3r2p7SysLock7releaseEv,comdat
 141              		.align	2
 142              		.weak	_ZN3r2p7SysLock7releaseEv
 143              		.thumb
 144              		.thumb_func
 145              		.type	_ZN3r2p7SysLock7releaseEv, %function
 146              	_ZN3r2p7SysLock7releaseEv:
 147              	.LFB27:
 148              		.loc 3 34 0
 149              		.cfi_startproc
 150              		@ args = 0, pretend = 0, frame = 0
 151              		@ frame_needed = 0, uses_anonymous_args = 0
 152 0000 08B5     		push	{r3, lr}
 153              		.cfi_def_cfa_offset 8
 154              		.cfi_offset 3, -8
 155              		.cfi_offset 14, -4
 156              		.loc 3 36 0
 157 0002 FFF7FEFF 		bl	_ZN3r2p8SysLock_7releaseEv
 158              		.loc 3 37 0
 159 0006 08BD     		pop	{r3, pc}
 160              		.cfi_endproc
 161              	.LFE27:
 162              		.size	_ZN3r2p7SysLock7releaseEv, .-_ZN3r2p7SysLock7releaseEv
 163              		.section	.text._ZN3r2p12check_boundsEPKvjS1_j,"axG",%progbits,_ZN3r2p12check_boundsEPKvjS1_j,comda
 164              		.align	2
 165              		.weak	_ZN3r2p12check_boundsEPKvjS1_j
 166              		.thumb
 167              		.thumb_func
 168              		.type	_ZN3r2p12check_boundsEPKvjS1_j, %function
 169              	_ZN3r2p12check_boundsEPKvjS1_j:
 170              	.LFB33:
 171              		.file 4 "/opt/R2P/core/Middleware/include/r2p/common.hpp"
ARM GAS  /tmp/cc5OZvFd.s 			page 4


 172              		.loc 4 72 0
 173              		.cfi_startproc
 174              		@ args = 0, pretend = 0, frame = 16
 175              		@ frame_needed = 0, uses_anonymous_args = 0
 176              		@ link register save eliminated.
 177 0000 30B4     		push	{r4, r5}
 178              		.cfi_def_cfa_offset 8
 179              		.cfi_offset 4, -8
 180              		.cfi_offset 5, -4
 181 0002 84B0     		sub	sp, sp, #16
 182              		.cfi_def_cfa_offset 24
 183 0004 0390     		str	r0, [sp, #12]
 184 0006 0291     		str	r1, [sp, #8]
 185 0008 0192     		str	r2, [sp, #4]
 186 000a 0093     		str	r3, [sp]
 187              	.LBB20:
 188              		.loc 4 74 0
 189 000c 039D     		ldr	r5, [sp, #12]
 190              		.loc 4 75 0
 191 000e 019C     		ldr	r4, [sp, #4]
 192              		.loc 4 77 0
 193 0010 A542     		cmp	r5, r4
 194 0012 07D3     		bcc	.L9
 195              		.loc 4 77 0 is_stmt 0 discriminator 1
 196 0014 029B     		ldr	r3, [sp, #8]
 197 0016 EA18     		adds	r2, r5, r3
 198 0018 009B     		ldr	r3, [sp]
 199 001a 2344     		add	r3, r3, r4
 200 001c 9A42     		cmp	r2, r3
 201 001e 01D8     		bhi	.L9
 202              		.loc 4 77 0 discriminator 3
 203 0020 0123     		movs	r3, #1
 204 0022 00E0     		b	.L10
 205              	.L9:
 206              		.loc 4 77 0 discriminator 4
 207 0024 0023     		movs	r3, #0
 208              	.L10:
 209              	.LBE20:
 210              		.loc 4 78 0 is_stmt 1 discriminator 6
 211 0026 1846     		mov	r0, r3
 212 0028 04B0     		add	sp, sp, #16
 213              		.cfi_def_cfa_offset 8
 214              		@ sp needed
 215 002a 30BC     		pop	{r4, r5}
 216              		.cfi_restore 5
 217              		.cfi_restore 4
 218              		.cfi_def_cfa_offset 0
 219 002c 7047     		bx	lr
 220              		.cfi_endproc
 221              	.LFE33:
 222              		.size	_ZN3r2p12check_boundsEPKvjS1_j, .-_ZN3r2p12check_boundsEPKvjS1_j
 223 002e 00BF     		.section	.text._ZN3r2p8Flasher_10is_alignedEPKv,"axG",%progbits,_ZN3r2p8Flasher_10is_alignedEPKv,c
 224              		.align	2
 225              		.weak	_ZN3r2p8Flasher_10is_alignedEPKv
 226              		.thumb
 227              		.thumb_func
 228              		.type	_ZN3r2p8Flasher_10is_alignedEPKv, %function
ARM GAS  /tmp/cc5OZvFd.s 			page 5


 229              	_ZN3r2p8Flasher_10is_alignedEPKv:
 230              	.LFB36:
 231              		.file 5 "/opt/R2P/core/Middleware/port/chibios/include/r2p/impl/Flasher_.hpp"
 232              		.loc 5 95 0
 233              		.cfi_startproc
 234              		@ args = 0, pretend = 0, frame = 8
 235              		@ frame_needed = 0, uses_anonymous_args = 0
 236              		@ link register save eliminated.
 237 0000 82B0     		sub	sp, sp, #8
 238              		.cfi_def_cfa_offset 8
 239 0002 0190     		str	r0, [sp, #4]
 240              		.loc 5 97 0
 241 0004 019B     		ldr	r3, [sp, #4]
 242 0006 03F00103 		and	r3, r3, #1
 243 000a 002B     		cmp	r3, #0
 244 000c 0CBF     		ite	eq
 245 000e 0123     		moveq	r3, #1
 246 0010 0023     		movne	r3, #0
 247 0012 DBB2     		uxtb	r3, r3
 248              		.loc 5 98 0
 249 0014 1846     		mov	r0, r3
 250 0016 02B0     		add	sp, sp, #8
 251              		.cfi_def_cfa_offset 0
 252              		@ sp needed
 253 0018 7047     		bx	lr
 254              		.cfi_endproc
 255              	.LFE36:
 256              		.size	_ZN3r2p8Flasher_10is_alignedEPKv, .-_ZN3r2p8Flasher_10is_alignedEPKv
 257 001a 00BF     		.section	.text._ZN3r2p8Flasher_16is_within_boundsEPKv,"axG",%progbits,_ZN3r2p8Flasher_16is_within_
 258              		.align	2
 259              		.weak	_ZN3r2p8Flasher_16is_within_boundsEPKv
 260              		.thumb
 261              		.thumb_func
 262              		.type	_ZN3r2p8Flasher_16is_within_boundsEPKv, %function
 263              	_ZN3r2p8Flasher_16is_within_boundsEPKv:
 264              	.LFB37:
 265              		.loc 5 102 0
 266              		.cfi_startproc
 267              		@ args = 0, pretend = 0, frame = 8
 268              		@ frame_needed = 0, uses_anonymous_args = 0
 269 0000 00B5     		push	{lr}
 270              		.cfi_def_cfa_offset 4
 271              		.cfi_offset 14, -4
 272 0002 83B0     		sub	sp, sp, #12
 273              		.cfi_def_cfa_offset 16
 274 0004 0190     		str	r0, [sp, #4]
 275              		.loc 5 104 0
 276 0006 FFF7FEFF 		bl	_ZN3r2p8Flasher_17get_program_startEv
 277 000a 0246     		mov	r2, r0
 278 000c 019B     		ldr	r3, [sp, #4]
 279 000e 9A42     		cmp	r2, r3
 280 0010 07D8     		bhi	.L15
 281              		.loc 5 105 0 discriminator 1
 282 0012 FFF7FEFF 		bl	_ZN3r2p8Flasher_15get_program_endEv
 283 0016 0246     		mov	r2, r0
 284              		.loc 5 104 0 discriminator 1
 285 0018 019B     		ldr	r3, [sp, #4]
ARM GAS  /tmp/cc5OZvFd.s 			page 6


 286 001a 9A42     		cmp	r2, r3
 287 001c 01D9     		bls	.L15
 288              		.loc 5 104 0 is_stmt 0 discriminator 3
 289 001e 0123     		movs	r3, #1
 290 0020 00E0     		b	.L16
 291              	.L15:
 292              		.loc 5 104 0 discriminator 4
 293 0022 0023     		movs	r3, #0
 294              	.L16:
 295              		.loc 5 106 0 is_stmt 1
 296 0024 1846     		mov	r0, r3
 297 0026 03B0     		add	sp, sp, #12
 298              		.cfi_def_cfa_offset 4
 299              		@ sp needed
 300 0028 5DF804FB 		ldr	pc, [sp], #4
 301              		.cfi_endproc
 302              	.LFE37:
 303              		.size	_ZN3r2p8Flasher_16is_within_boundsEPKv, .-_ZN3r2p8Flasher_16is_within_boundsEPKv
 304              		.section	.text._ZN3r2p8Flasher_10align_prevEPKh,"axG",%progbits,_ZN3r2p8Flasher_10align_prevEPKh,c
 305              		.align	2
 306              		.weak	_ZN3r2p8Flasher_10align_prevEPKh
 307              		.thumb
 308              		.thumb_func
 309              		.type	_ZN3r2p8Flasher_10align_prevEPKh, %function
 310              	_ZN3r2p8Flasher_10align_prevEPKh:
 311              	.LFB40:
 312              		.loc 5 128 0
 313              		.cfi_startproc
 314              		@ args = 0, pretend = 0, frame = 8
 315              		@ frame_needed = 0, uses_anonymous_args = 0
 316              		@ link register save eliminated.
 317 0000 82B0     		sub	sp, sp, #8
 318              		.cfi_def_cfa_offset 8
 319 0002 0190     		str	r0, [sp, #4]
 320              		.loc 5 131 0
 321 0004 019B     		ldr	r3, [sp, #4]
 322 0006 23F00F03 		bic	r3, r3, #15
 323              		.loc 5 133 0
 324 000a 1846     		mov	r0, r3
 325 000c 02B0     		add	sp, sp, #8
 326              		.cfi_def_cfa_offset 0
 327              		@ sp needed
 328 000e 7047     		bx	lr
 329              		.cfi_endproc
 330              	.LFE40:
 331              		.size	_ZN3r2p8Flasher_10align_prevEPKh, .-_ZN3r2p8Flasher_10align_prevEPKh
 332              		.section	.text._ZN3r2p8Flasher_10align_nextEPKh,"axG",%progbits,_ZN3r2p8Flasher_10align_nextEPKh,c
 333              		.align	2
 334              		.weak	_ZN3r2p8Flasher_10align_nextEPKh
 335              		.thumb
 336              		.thumb_func
 337              		.type	_ZN3r2p8Flasher_10align_nextEPKh, %function
 338              	_ZN3r2p8Flasher_10align_nextEPKh:
 339              	.LFB41:
 340              		.loc 5 137 0
 341              		.cfi_startproc
 342              		@ args = 0, pretend = 0, frame = 8
ARM GAS  /tmp/cc5OZvFd.s 			page 7


 343              		@ frame_needed = 0, uses_anonymous_args = 0
 344 0000 00B5     		push	{lr}
 345              		.cfi_def_cfa_offset 4
 346              		.cfi_offset 14, -4
 347 0002 83B0     		sub	sp, sp, #12
 348              		.cfi_def_cfa_offset 16
 349 0004 0190     		str	r0, [sp, #4]
 350              		.loc 5 139 0
 351 0006 019B     		ldr	r3, [sp, #4]
 352 0008 0F33     		adds	r3, r3, #15
 353 000a 1846     		mov	r0, r3
 354 000c FFF7FEFF 		bl	_ZN3r2p8Flasher_10align_prevEPKh
 355 0010 0346     		mov	r3, r0
 356              		.loc 5 140 0
 357 0012 1846     		mov	r0, r3
 358 0014 03B0     		add	sp, sp, #12
 359              		.cfi_def_cfa_offset 4
 360              		@ sp needed
 361 0016 5DF804FB 		ldr	pc, [sp], #4
 362              		.cfi_endproc
 363              	.LFE41:
 364              		.size	_ZN3r2p8Flasher_10align_nextEPKh, .-_ZN3r2p8Flasher_10align_nextEPKh
 365 001a 00BF     		.section	.text._ZN3r2p8Flasher_17get_program_startEv,"axG",%progbits,_ZN3r2p8Flasher_17get_program
 366              		.align	2
 367              		.weak	_ZN3r2p8Flasher_17get_program_startEv
 368              		.thumb
 369              		.thumb_func
 370              		.type	_ZN3r2p8Flasher_17get_program_startEv, %function
 371              	_ZN3r2p8Flasher_17get_program_startEv:
 372              	.LFB42:
 373              		.loc 5 144 0
 374              		.cfi_startproc
 375              		@ args = 0, pretend = 0, frame = 0
 376              		@ frame_needed = 0, uses_anonymous_args = 0
 377              		@ link register save eliminated.
 378              		.loc 5 148 0
 379 0000 044B     		ldr	r3, .L24
 380 0002 03F2FF33 		addw	r3, r3, #1023
 381 0006 23F47F73 		bic	r3, r3, #1020
 382 000a 23F00303 		bic	r3, r3, #3
 383              		.loc 5 150 0
 384 000e 1846     		mov	r0, r3
 385 0010 7047     		bx	lr
 386              	.L25:
 387 0012 00BF     		.align	2
 388              	.L24:
 389 0014 00000000 		.word	__program_start__
 390              		.cfi_endproc
 391              	.LFE42:
 392              		.size	_ZN3r2p8Flasher_17get_program_startEv, .-_ZN3r2p8Flasher_17get_program_startEv
 393              		.section	.text._ZN3r2p8Flasher_15get_program_endEv,"axG",%progbits,_ZN3r2p8Flasher_15get_program_e
 394              		.align	2
 395              		.weak	_ZN3r2p8Flasher_15get_program_endEv
 396              		.thumb
 397              		.thumb_func
 398              		.type	_ZN3r2p8Flasher_15get_program_endEv, %function
 399              	_ZN3r2p8Flasher_15get_program_endEv:
ARM GAS  /tmp/cc5OZvFd.s 			page 8


 400              	.LFB43:
 401              		.loc 5 154 0
 402              		.cfi_startproc
 403              		@ args = 0, pretend = 0, frame = 0
 404              		@ frame_needed = 0, uses_anonymous_args = 0
 405 0000 08B5     		push	{r3, lr}
 406              		.cfi_def_cfa_offset 8
 407              		.cfi_offset 3, -8
 408              		.cfi_offset 14, -4
 409              		.loc 5 156 0
 410 0002 0348     		ldr	r0, .L28
 411 0004 FFF7FEFF 		bl	_ZN3r2p8Flasher_10align_prevEPKh
 412 0008 0346     		mov	r3, r0
 413              		.loc 5 157 0
 414 000a 1846     		mov	r0, r3
 415 000c 08BD     		pop	{r3, pc}
 416              	.L29:
 417 000e 00BF     		.align	2
 418              	.L28:
 419 0010 00000000 		.word	__program_end__
 420              		.cfi_endproc
 421              	.LFE43:
 422              		.size	_ZN3r2p8Flasher_15get_program_endEv, .-_ZN3r2p8Flasher_15get_program_endEv
 423              		.section	.text._ZN3r2p8Flasher_13get_ram_startEv,"axG",%progbits,_ZN3r2p8Flasher_13get_ram_startEv
 424              		.align	2
 425              		.weak	_ZN3r2p8Flasher_13get_ram_startEv
 426              		.thumb
 427              		.thumb_func
 428              		.type	_ZN3r2p8Flasher_13get_ram_startEv, %function
 429              	_ZN3r2p8Flasher_13get_ram_startEv:
 430              	.LFB45:
 431              		.loc 5 168 0
 432              		.cfi_startproc
 433              		@ args = 0, pretend = 0, frame = 0
 434              		@ frame_needed = 0, uses_anonymous_args = 0
 435              		@ link register save eliminated.
 436              		.loc 5 170 0
 437 0000 014B     		ldr	r3, .L32
 438              		.loc 5 171 0
 439 0002 1846     		mov	r0, r3
 440 0004 7047     		bx	lr
 441              	.L33:
 442 0006 00BF     		.align	2
 443              	.L32:
 444 0008 00000000 		.word	__ram_start__
 445              		.cfi_endproc
 446              	.LFE45:
 447              		.size	_ZN3r2p8Flasher_13get_ram_startEv, .-_ZN3r2p8Flasher_13get_ram_startEv
 448              		.section	.text._ZN3r2p8Flasher_11get_ram_endEv,"axG",%progbits,_ZN3r2p8Flasher_11get_ram_endEv,com
 449              		.align	2
 450              		.weak	_ZN3r2p8Flasher_11get_ram_endEv
 451              		.thumb
 452              		.thumb_func
 453              		.type	_ZN3r2p8Flasher_11get_ram_endEv, %function
 454              	_ZN3r2p8Flasher_11get_ram_endEv:
 455              	.LFB46:
 456              		.loc 5 175 0
ARM GAS  /tmp/cc5OZvFd.s 			page 9


 457              		.cfi_startproc
 458              		@ args = 0, pretend = 0, frame = 0
 459              		@ frame_needed = 0, uses_anonymous_args = 0
 460              		@ link register save eliminated.
 461              		.loc 5 177 0
 462 0000 014B     		ldr	r3, .L36
 463              		.loc 5 178 0
 464 0002 1846     		mov	r0, r3
 465 0004 7047     		bx	lr
 466              	.L37:
 467 0006 00BF     		.align	2
 468              	.L36:
 469 0008 00000000 		.word	__ram_end__
 470              		.cfi_endproc
 471              	.LFE46:
 472              		.size	_ZN3r2p8Flasher_11get_ram_endEv, .-_ZN3r2p8Flasher_11get_ram_endEv
 473              		.section	.text._ZN3r2p7Flasher10is_alignedEPKv,"axG",%progbits,_ZN3r2p7Flasher10is_alignedEPKv,com
 474              		.align	2
 475              		.weak	_ZN3r2p7Flasher10is_alignedEPKv
 476              		.thumb
 477              		.thumb_func
 478              		.type	_ZN3r2p7Flasher10is_alignedEPKv, %function
 479              	_ZN3r2p7Flasher10is_alignedEPKv:
 480              	.LFB48:
 481              		.file 6 "/opt/R2P/core/Middleware/include/r2p/Flasher.hpp"
 482              		.loc 6 71 0
 483              		.cfi_startproc
 484              		@ args = 0, pretend = 0, frame = 8
 485              		@ frame_needed = 0, uses_anonymous_args = 0
 486 0000 00B5     		push	{lr}
 487              		.cfi_def_cfa_offset 4
 488              		.cfi_offset 14, -4
 489 0002 83B0     		sub	sp, sp, #12
 490              		.cfi_def_cfa_offset 16
 491 0004 0190     		str	r0, [sp, #4]
 492              		.loc 6 73 0
 493 0006 0198     		ldr	r0, [sp, #4]
 494 0008 FFF7FEFF 		bl	_ZN3r2p8Flasher_10is_alignedEPKv
 495 000c 0346     		mov	r3, r0
 496              		.loc 6 74 0
 497 000e 1846     		mov	r0, r3
 498 0010 03B0     		add	sp, sp, #12
 499              		.cfi_def_cfa_offset 4
 500              		@ sp needed
 501 0012 5DF804FB 		ldr	pc, [sp], #4
 502              		.cfi_endproc
 503              	.LFE48:
 504              		.size	_ZN3r2p7Flasher10is_alignedEPKv, .-_ZN3r2p7Flasher10is_alignedEPKv
 505 0016 00BF     		.section	.text._ZN3r2p7Flasher16is_within_boundsEPKv,"axG",%progbits,_ZN3r2p7Flasher16is_within_bo
 506              		.align	2
 507              		.weak	_ZN3r2p7Flasher16is_within_boundsEPKv
 508              		.thumb
 509              		.thumb_func
 510              		.type	_ZN3r2p7Flasher16is_within_boundsEPKv, %function
 511              	_ZN3r2p7Flasher16is_within_boundsEPKv:
 512              	.LFB49:
 513              		.loc 6 78 0
ARM GAS  /tmp/cc5OZvFd.s 			page 10


 514              		.cfi_startproc
 515              		@ args = 0, pretend = 0, frame = 8
 516              		@ frame_needed = 0, uses_anonymous_args = 0
 517 0000 00B5     		push	{lr}
 518              		.cfi_def_cfa_offset 4
 519              		.cfi_offset 14, -4
 520 0002 83B0     		sub	sp, sp, #12
 521              		.cfi_def_cfa_offset 16
 522 0004 0190     		str	r0, [sp, #4]
 523              		.loc 6 80 0
 524 0006 0198     		ldr	r0, [sp, #4]
 525 0008 FFF7FEFF 		bl	_ZN3r2p8Flasher_16is_within_boundsEPKv
 526 000c 0346     		mov	r3, r0
 527              		.loc 6 81 0
 528 000e 1846     		mov	r0, r3
 529 0010 03B0     		add	sp, sp, #12
 530              		.cfi_def_cfa_offset 4
 531              		@ sp needed
 532 0012 5DF804FB 		ldr	pc, [sp], #4
 533              		.cfi_endproc
 534              	.LFE49:
 535              		.size	_ZN3r2p7Flasher16is_within_boundsEPKv, .-_ZN3r2p7Flasher16is_within_boundsEPKv
 536 0016 00BF     		.section	.text._ZN3r2p7Flasher5beginEv,"axG",%progbits,_ZN3r2p7Flasher5beginEv,comdat
 537              		.align	2
 538              		.weak	_ZN3r2p7Flasher5beginEv
 539              		.thumb
 540              		.thumb_func
 541              		.type	_ZN3r2p7Flasher5beginEv, %function
 542              	_ZN3r2p7Flasher5beginEv:
 543              	.LFB51:
 544              		.loc 6 92 0
 545              		.cfi_startproc
 546              		@ args = 0, pretend = 0, frame = 8
 547              		@ frame_needed = 0, uses_anonymous_args = 0
 548 0000 00B5     		push	{lr}
 549              		.cfi_def_cfa_offset 4
 550              		.cfi_offset 14, -4
 551 0002 83B0     		sub	sp, sp, #12
 552              		.cfi_def_cfa_offset 16
 553 0004 0190     		str	r0, [sp, #4]
 554              		.loc 6 94 0
 555 0006 019B     		ldr	r3, [sp, #4]
 556 0008 0433     		adds	r3, r3, #4
 557 000a 1846     		mov	r0, r3
 558 000c FFF7FEFF 		bl	_ZN3r2p8Flasher_5beginEv
 559              		.loc 6 95 0
 560 0010 03B0     		add	sp, sp, #12
 561              		.cfi_def_cfa_offset 4
 562              		@ sp needed
 563 0012 5DF804FB 		ldr	pc, [sp], #4
 564              		.cfi_endproc
 565              	.LFE51:
 566              		.size	_ZN3r2p7Flasher5beginEv, .-_ZN3r2p7Flasher5beginEv
 567 0016 00BF     		.section	.text._ZN3r2p7Flasher3endEv,"axG",%progbits,_ZN3r2p7Flasher3endEv,comdat
 568              		.align	2
 569              		.weak	_ZN3r2p7Flasher3endEv
 570              		.thumb
ARM GAS  /tmp/cc5OZvFd.s 			page 11


 571              		.thumb_func
 572              		.type	_ZN3r2p7Flasher3endEv, %function
 573              	_ZN3r2p7Flasher3endEv:
 574              	.LFB52:
 575              		.loc 6 99 0
 576              		.cfi_startproc
 577              		@ args = 0, pretend = 0, frame = 8
 578              		@ frame_needed = 0, uses_anonymous_args = 0
 579 0000 00B5     		push	{lr}
 580              		.cfi_def_cfa_offset 4
 581              		.cfi_offset 14, -4
 582 0002 83B0     		sub	sp, sp, #12
 583              		.cfi_def_cfa_offset 16
 584 0004 0190     		str	r0, [sp, #4]
 585              		.loc 6 101 0
 586 0006 019B     		ldr	r3, [sp, #4]
 587 0008 0433     		adds	r3, r3, #4
 588 000a 1846     		mov	r0, r3
 589 000c FFF7FEFF 		bl	_ZN3r2p8Flasher_3endEv
 590 0010 0346     		mov	r3, r0
 591              		.loc 6 102 0
 592 0012 1846     		mov	r0, r3
 593 0014 03B0     		add	sp, sp, #12
 594              		.cfi_def_cfa_offset 4
 595              		@ sp needed
 596 0016 5DF804FB 		ldr	pc, [sp], #4
 597              		.cfi_endproc
 598              	.LFE52:
 599              		.size	_ZN3r2p7Flasher3endEv, .-_ZN3r2p7Flasher3endEv
 600 001a 00BF     		.section	.text._ZN3r2p7Flasher5flashEPKhS2_j,"axG",%progbits,_ZN3r2p7Flasher5flashEPKhS2_j,comdat
 601              		.align	2
 602              		.weak	_ZN3r2p7Flasher5flashEPKhS2_j
 603              		.thumb
 604              		.thumb_func
 605              		.type	_ZN3r2p7Flasher5flashEPKhS2_j, %function
 606              	_ZN3r2p7Flasher5flashEPKhS2_j:
 607              	.LFB55:
 608              		.loc 6 122 0
 609              		.cfi_startproc
 610              		@ args = 0, pretend = 0, frame = 16
 611              		@ frame_needed = 0, uses_anonymous_args = 0
 612 0000 00B5     		push	{lr}
 613              		.cfi_def_cfa_offset 4
 614              		.cfi_offset 14, -4
 615 0002 85B0     		sub	sp, sp, #20
 616              		.cfi_def_cfa_offset 24
 617 0004 0390     		str	r0, [sp, #12]
 618 0006 0291     		str	r1, [sp, #8]
 619 0008 0192     		str	r2, [sp, #4]
 620 000a 0093     		str	r3, [sp]
 621              		.loc 6 124 0
 622 000c 039B     		ldr	r3, [sp, #12]
 623 000e 0433     		adds	r3, r3, #4
 624 0010 1846     		mov	r0, r3
 625 0012 0299     		ldr	r1, [sp, #8]
 626 0014 019A     		ldr	r2, [sp, #4]
 627 0016 009B     		ldr	r3, [sp]
ARM GAS  /tmp/cc5OZvFd.s 			page 12


 628 0018 FFF7FEFF 		bl	_ZN3r2p8Flasher_5flashEPKhS2_j
 629 001c 0346     		mov	r3, r0
 630              		.loc 6 125 0
 631 001e 1846     		mov	r0, r3
 632 0020 05B0     		add	sp, sp, #20
 633              		.cfi_def_cfa_offset 4
 634              		@ sp needed
 635 0022 5DF804FB 		ldr	pc, [sp], #4
 636              		.cfi_endproc
 637              	.LFE55:
 638              		.size	_ZN3r2p7Flasher5flashEPKhS2_j, .-_ZN3r2p7Flasher5flashEPKhS2_j
 639 0026 00BF     		.section	.text._ZN3r2p7Flasher5eraseEPKhj,"axG",%progbits,_ZN3r2p7Flasher5eraseEPKhj,comdat
 640              		.align	2
 641              		.weak	_ZN3r2p7Flasher5eraseEPKhj
 642              		.thumb
 643              		.thumb_func
 644              		.type	_ZN3r2p7Flasher5eraseEPKhj, %function
 645              	_ZN3r2p7Flasher5eraseEPKhj:
 646              	.LFB56:
 647              		.loc 6 129 0
 648              		.cfi_startproc
 649              		@ args = 0, pretend = 0, frame = 16
 650              		@ frame_needed = 0, uses_anonymous_args = 0
 651 0000 00B5     		push	{lr}
 652              		.cfi_def_cfa_offset 4
 653              		.cfi_offset 14, -4
 654 0002 85B0     		sub	sp, sp, #20
 655              		.cfi_def_cfa_offset 24
 656 0004 0390     		str	r0, [sp, #12]
 657 0006 0291     		str	r1, [sp, #8]
 658 0008 0192     		str	r2, [sp, #4]
 659              		.loc 6 131 0
 660 000a 039B     		ldr	r3, [sp, #12]
 661 000c 0433     		adds	r3, r3, #4
 662 000e 1846     		mov	r0, r3
 663 0010 0299     		ldr	r1, [sp, #8]
 664 0012 019A     		ldr	r2, [sp, #4]
 665 0014 FFF7FEFF 		bl	_ZN3r2p8Flasher_5eraseEPKhj
 666 0018 0346     		mov	r3, r0
 667              		.loc 6 132 0
 668 001a 1846     		mov	r0, r3
 669 001c 05B0     		add	sp, sp, #20
 670              		.cfi_def_cfa_offset 4
 671              		@ sp needed
 672 001e 5DF804FB 		ldr	pc, [sp], #4
 673              		.cfi_endproc
 674              	.LFE56:
 675              		.size	_ZN3r2p7Flasher5eraseEPKhj, .-_ZN3r2p7Flasher5eraseEPKhj
 676 0022 00BF     		.section	.text._ZN3r2p7FlasherC2EPt,"axG",%progbits,_ZN3r2p7FlasherC5EPt,comdat
 677              		.align	2
 678              		.weak	_ZN3r2p7FlasherC2EPt
 679              		.thumb
 680              		.thumb_func
 681              		.type	_ZN3r2p7FlasherC2EPt, %function
 682              	_ZN3r2p7FlasherC2EPt:
 683              	.LFB61:
 684              		.loc 6 136 0
ARM GAS  /tmp/cc5OZvFd.s 			page 13


 685              		.cfi_startproc
 686              		@ args = 0, pretend = 0, frame = 8
 687              		@ frame_needed = 0, uses_anonymous_args = 0
 688 0000 00B5     		push	{lr}
 689              		.cfi_def_cfa_offset 4
 690              		.cfi_offset 14, -4
 691 0002 83B0     		sub	sp, sp, #12
 692              		.cfi_def_cfa_offset 16
 693 0004 0190     		str	r0, [sp, #4]
 694 0006 0091     		str	r1, [sp]
 695              	.LBB21:
 696              		.loc 6 138 0
 697 0008 0198     		ldr	r0, [sp, #4]
 698 000a FFF7FEFF 		bl	_ZN3r2p10UncopyableC2Ev
 699 000e 019B     		ldr	r3, [sp, #4]
 700 0010 0433     		adds	r3, r3, #4
 701 0012 1846     		mov	r0, r3
 702 0014 0099     		ldr	r1, [sp]
 703 0016 FFF7FEFF 		bl	_ZN3r2p8Flasher_C1EPt
 704              	.LBE21:
 705              		.loc 6 139 0
 706 001a 019B     		ldr	r3, [sp, #4]
 707 001c 1846     		mov	r0, r3
 708 001e 03B0     		add	sp, sp, #12
 709              		.cfi_def_cfa_offset 4
 710              		@ sp needed
 711 0020 5DF804FB 		ldr	pc, [sp], #4
 712              		.cfi_endproc
 713              	.LFE61:
 714              		.size	_ZN3r2p7FlasherC2EPt, .-_ZN3r2p7FlasherC2EPt
 715              		.weak	_ZN3r2p7FlasherC1EPt
 716              		.thumb_set _ZN3r2p7FlasherC1EPt,_ZN3r2p7FlasherC2EPt
 717              		.section	.text._ZN3r2p7Flasher10align_nextEj,"axG",%progbits,_ZN3r2p7Flasher10align_nextEj,comdat
 718              		.align	2
 719              		.weak	_ZN3r2p7Flasher10align_nextEj
 720              		.thumb
 721              		.thumb_func
 722              		.type	_ZN3r2p7Flasher10align_nextEj, %function
 723              	_ZN3r2p7Flasher10align_nextEj:
 724              	.LFB74:
 725              		.loc 6 222 0
 726              		.cfi_startproc
 727              		@ args = 0, pretend = 0, frame = 8
 728              		@ frame_needed = 0, uses_anonymous_args = 0
 729 0000 00B5     		push	{lr}
 730              		.cfi_def_cfa_offset 4
 731              		.cfi_offset 14, -4
 732 0002 83B0     		sub	sp, sp, #12
 733              		.cfi_def_cfa_offset 16
 734 0004 0190     		str	r0, [sp, #4]
 735              		.loc 6 225 0
 736 0006 019B     		ldr	r3, [sp, #4]
 737 0008 1846     		mov	r0, r3
 738 000a FFF7FEFF 		bl	_ZN3r2p8Flasher_10align_nextEPKh
 739 000e 0346     		mov	r3, r0
 740              		.loc 6 227 0
 741 0010 1846     		mov	r0, r3
ARM GAS  /tmp/cc5OZvFd.s 			page 14


 742 0012 03B0     		add	sp, sp, #12
 743              		.cfi_def_cfa_offset 4
 744              		@ sp needed
 745 0014 5DF804FB 		ldr	pc, [sp], #4
 746              		.cfi_endproc
 747              	.LFE74:
 748              		.size	_ZN3r2p7Flasher10align_nextEj, .-_ZN3r2p7Flasher10align_nextEj
 749              		.section	.text._ZN3r2p7Flasher17get_program_startEv,"axG",%progbits,_ZN3r2p7Flasher17get_program_s
 750              		.align	2
 751              		.weak	_ZN3r2p7Flasher17get_program_startEv
 752              		.thumb
 753              		.thumb_func
 754              		.type	_ZN3r2p7Flasher17get_program_startEv, %function
 755              	_ZN3r2p7Flasher17get_program_startEv:
 756              	.LFB75:
 757              		.loc 6 231 0
 758              		.cfi_startproc
 759              		@ args = 0, pretend = 0, frame = 0
 760              		@ frame_needed = 0, uses_anonymous_args = 0
 761 0000 08B5     		push	{r3, lr}
 762              		.cfi_def_cfa_offset 8
 763              		.cfi_offset 3, -8
 764              		.cfi_offset 14, -4
 765              		.loc 6 233 0
 766 0002 FFF7FEFF 		bl	_ZN3r2p8Flasher_17get_program_startEv
 767 0006 0346     		mov	r3, r0
 768              		.loc 6 234 0
 769 0008 1846     		mov	r0, r3
 770 000a 08BD     		pop	{r3, pc}
 771              		.cfi_endproc
 772              	.LFE75:
 773              		.size	_ZN3r2p7Flasher17get_program_startEv, .-_ZN3r2p7Flasher17get_program_startEv
 774              		.section	.text._ZN3r2p7Flasher15get_program_endEv,"axG",%progbits,_ZN3r2p7Flasher15get_program_end
 775              		.align	2
 776              		.weak	_ZN3r2p7Flasher15get_program_endEv
 777              		.thumb
 778              		.thumb_func
 779              		.type	_ZN3r2p7Flasher15get_program_endEv, %function
 780              	_ZN3r2p7Flasher15get_program_endEv:
 781              	.LFB76:
 782              		.loc 6 238 0
 783              		.cfi_startproc
 784              		@ args = 0, pretend = 0, frame = 0
 785              		@ frame_needed = 0, uses_anonymous_args = 0
 786 0000 08B5     		push	{r3, lr}
 787              		.cfi_def_cfa_offset 8
 788              		.cfi_offset 3, -8
 789              		.cfi_offset 14, -4
 790              		.loc 6 240 0
 791 0002 FFF7FEFF 		bl	_ZN3r2p8Flasher_15get_program_endEv
 792 0006 0346     		mov	r3, r0
 793              		.loc 6 241 0
 794 0008 1846     		mov	r0, r3
 795 000a 08BD     		pop	{r3, pc}
 796              		.cfi_endproc
 797              	.LFE76:
 798              		.size	_ZN3r2p7Flasher15get_program_endEv, .-_ZN3r2p7Flasher15get_program_endEv
ARM GAS  /tmp/cc5OZvFd.s 			page 15


 799              		.section	.text._ZN3r2p7Flasher13get_ram_startEv,"axG",%progbits,_ZN3r2p7Flasher13get_ram_startEv,c
 800              		.align	2
 801              		.weak	_ZN3r2p7Flasher13get_ram_startEv
 802              		.thumb
 803              		.thumb_func
 804              		.type	_ZN3r2p7Flasher13get_ram_startEv, %function
 805              	_ZN3r2p7Flasher13get_ram_startEv:
 806              	.LFB77:
 807              		.loc 6 245 0
 808              		.cfi_startproc
 809              		@ args = 0, pretend = 0, frame = 0
 810              		@ frame_needed = 0, uses_anonymous_args = 0
 811 0000 08B5     		push	{r3, lr}
 812              		.cfi_def_cfa_offset 8
 813              		.cfi_offset 3, -8
 814              		.cfi_offset 14, -4
 815              		.loc 6 247 0
 816 0002 FFF7FEFF 		bl	_ZN3r2p8Flasher_13get_ram_startEv
 817 0006 0346     		mov	r3, r0
 818              		.loc 6 248 0
 819 0008 1846     		mov	r0, r3
 820 000a 08BD     		pop	{r3, pc}
 821              		.cfi_endproc
 822              	.LFE77:
 823              		.size	_ZN3r2p7Flasher13get_ram_startEv, .-_ZN3r2p7Flasher13get_ram_startEv
 824              		.section	.text._ZN3r2p7Flasher11get_ram_endEv,"axG",%progbits,_ZN3r2p7Flasher11get_ram_endEv,comda
 825              		.align	2
 826              		.weak	_ZN3r2p7Flasher11get_ram_endEv
 827              		.thumb
 828              		.thumb_func
 829              		.type	_ZN3r2p7Flasher11get_ram_endEv, %function
 830              	_ZN3r2p7Flasher11get_ram_endEv:
 831              	.LFB78:
 832              		.loc 6 252 0
 833              		.cfi_startproc
 834              		@ args = 0, pretend = 0, frame = 0
 835              		@ frame_needed = 0, uses_anonymous_args = 0
 836 0000 08B5     		push	{r3, lr}
 837              		.cfi_def_cfa_offset 8
 838              		.cfi_offset 3, -8
 839              		.cfi_offset 14, -4
 840              		.loc 6 254 0
 841 0002 FFF7FEFF 		bl	_ZN3r2p8Flasher_11get_ram_endEv
 842 0006 0346     		mov	r3, r0
 843              		.loc 6 255 0
 844 0008 1846     		mov	r0, r3
 845 000a 08BD     		pop	{r3, pc}
 846              		.cfi_endproc
 847              	.LFE78:
 848              		.size	_ZN3r2p7Flasher11get_ram_endEv, .-_ZN3r2p7Flasher11get_ram_endEv
 849              		.section	.text._ZN3r2p7Flasher18get_program_lengthEv,"axG",%progbits,_ZN3r2p7Flasher18get_program_
 850              		.align	2
 851              		.weak	_ZN3r2p7Flasher18get_program_lengthEv
 852              		.thumb
 853              		.thumb_func
 854              		.type	_ZN3r2p7Flasher18get_program_lengthEv, %function
 855              	_ZN3r2p7Flasher18get_program_lengthEv:
ARM GAS  /tmp/cc5OZvFd.s 			page 16


 856              	.LFB79:
 857              		.loc 6 259 0
 858              		.cfi_startproc
 859              		@ args = 0, pretend = 0, frame = 0
 860              		@ frame_needed = 0, uses_anonymous_args = 0
 861 0000 10B5     		push	{r4, lr}
 862              		.cfi_def_cfa_offset 8
 863              		.cfi_offset 4, -8
 864              		.cfi_offset 14, -4
 865              		.loc 6 261 0
 866 0002 FFF7FEFF 		bl	_ZN3r2p7Flasher17get_program_startEv
 867 0006 0446     		mov	r4, r0
 868 0008 FFF7FEFF 		bl	_ZN3r2p7Flasher15get_program_endEv
 869 000c 0346     		mov	r3, r0
 870 000e 2046     		mov	r0, r4
 871 0010 1946     		mov	r1, r3
 872 0012 FFF7FEFF 		bl	_ZN3r2p18compute_chunk_sizeIhEEjPKT_S3_
 873 0016 0346     		mov	r3, r0
 874              		.loc 6 262 0
 875 0018 1846     		mov	r0, r3
 876 001a 10BD     		pop	{r4, pc}
 877              		.cfi_endproc
 878              	.LFE79:
 879              		.size	_ZN3r2p7Flasher18get_program_lengthEv, .-_ZN3r2p7Flasher18get_program_lengthEv
 880              		.section	.text._ZN3r2p7Message12reset_unsafeEv,"axG",%progbits,_ZN3r2p7Message12reset_unsafeEv,com
 881              		.align	2
 882              		.weak	_ZN3r2p7Message12reset_unsafeEv
 883              		.thumb
 884              		.thumb_func
 885              		.type	_ZN3r2p7Message12reset_unsafeEv, %function
 886              	_ZN3r2p7Message12reset_unsafeEv:
 887              	.LFB88:
 888              		.file 7 "/opt/R2P/core/Middleware/include/r2p/Message.hpp"
 889              		.loc 7 122 0
 890              		.cfi_startproc
 891              		@ args = 0, pretend = 0, frame = 8
 892              		@ frame_needed = 0, uses_anonymous_args = 0
 893              		@ link register save eliminated.
 894 0000 82B0     		sub	sp, sp, #8
 895              		.cfi_def_cfa_offset 8
 896 0002 0190     		str	r0, [sp, #4]
 897              		.loc 7 127 0
 898 0004 019B     		ldr	r3, [sp, #4]
 899 0006 0022     		movs	r2, #0
 900 0008 1A70     		strb	r2, [r3]
 901 000a 0022     		movs	r2, #0
 902 000c 5A70     		strb	r2, [r3, #1]
 903              		.loc 7 128 0
 904 000e 02B0     		add	sp, sp, #8
 905              		.cfi_def_cfa_offset 0
 906              		@ sp needed
 907 0010 7047     		bx	lr
 908              		.cfi_endproc
 909              	.LFE88:
 910              		.size	_ZN3r2p7Message12reset_unsafeEv, .-_ZN3r2p7Message12reset_unsafeEv
 911 0012 00BF     		.section	.text._ZN3r2p7Message16get_payload_sizeEj,"axG",%progbits,_ZN3r2p7Message16get_payload_si
 912              		.align	2
ARM GAS  /tmp/cc5OZvFd.s 			page 17


 913              		.weak	_ZN3r2p7Message16get_payload_sizeEj
 914              		.thumb
 915              		.thumb_func
 916              		.type	_ZN3r2p7Message16get_payload_sizeEj, %function
 917              	_ZN3r2p7Message16get_payload_sizeEj:
 918              	.LFB92:
 919              		.loc 7 142 0
 920              		.cfi_startproc
 921              		@ args = 0, pretend = 0, frame = 8
 922              		@ frame_needed = 0, uses_anonymous_args = 0
 923              		@ link register save eliminated.
 924 0000 82B0     		sub	sp, sp, #8
 925              		.cfi_def_cfa_offset 8
 926 0002 0190     		str	r0, [sp, #4]
 927              		.loc 7 147 0
 928 0004 019B     		ldr	r3, [sp, #4]
 929 0006 023B     		subs	r3, r3, #2
 930              		.loc 7 149 0
 931 0008 1846     		mov	r0, r3
 932 000a 02B0     		add	sp, sp, #8
 933              		.cfi_def_cfa_offset 0
 934              		@ sp needed
 935 000c 7047     		bx	lr
 936              		.cfi_endproc
 937              	.LFE92:
 938              		.size	_ZN3r2p7Message16get_payload_sizeEj, .-_ZN3r2p7Message16get_payload_sizeEj
 939 000e 00BF     		.section	.text._ZN3r2p11MemoryPool_12alloc_unsafeEv,"axG",%progbits,_ZN3r2p11MemoryPool_12alloc_un
 940              		.align	2
 941              		.weak	_ZN3r2p11MemoryPool_12alloc_unsafeEv
 942              		.thumb
 943              		.thumb_func
 944              		.type	_ZN3r2p11MemoryPool_12alloc_unsafeEv, %function
 945              	_ZN3r2p11MemoryPool_12alloc_unsafeEv:
 946              	.LFB99:
 947              		.file 8 "/opt/R2P/core/Middleware/port/chibios/include/r2p/impl/MemoryPool_.hpp"
 948              		.loc 8 53 0
 949              		.cfi_startproc
 950              		@ args = 0, pretend = 0, frame = 8
 951              		@ frame_needed = 0, uses_anonymous_args = 0
 952 0000 00B5     		push	{lr}
 953              		.cfi_def_cfa_offset 4
 954              		.cfi_offset 14, -4
 955 0002 83B0     		sub	sp, sp, #12
 956              		.cfi_def_cfa_offset 16
 957 0004 0190     		str	r0, [sp, #4]
 958              		.loc 8 55 0
 959 0006 019B     		ldr	r3, [sp, #4]
 960 0008 1846     		mov	r0, r3
 961 000a FFF7FEFF 		bl	chPoolAllocI
 962 000e 0346     		mov	r3, r0
 963              		.loc 8 56 0
 964 0010 1846     		mov	r0, r3
 965 0012 03B0     		add	sp, sp, #12
 966              		.cfi_def_cfa_offset 4
 967              		@ sp needed
 968 0014 5DF804FB 		ldr	pc, [sp], #4
 969              		.cfi_endproc
ARM GAS  /tmp/cc5OZvFd.s 			page 18


 970              	.LFE99:
 971              		.size	_ZN3r2p11MemoryPool_12alloc_unsafeEv, .-_ZN3r2p11MemoryPool_12alloc_unsafeEv
 972              		.section	.text._ZNK3r2p4Time8to_s_rawEv,"axG",%progbits,_ZNK3r2p4Time8to_s_rawEv,comdat
 973              		.align	2
 974              		.weak	_ZNK3r2p4Time8to_s_rawEv
 975              		.thumb
 976              		.thumb_func
 977              		.type	_ZNK3r2p4Time8to_s_rawEv, %function
 978              	_ZNK3r2p4Time8to_s_rawEv:
 979              	.LFB119:
 980              		.file 9 "/opt/R2P/core/Middleware/include/r2p/Time.hpp"
 981              		.loc 9 89 0
 982              		.cfi_startproc
 983              		@ args = 0, pretend = 0, frame = 8
 984              		@ frame_needed = 0, uses_anonymous_args = 0
 985              		@ link register save eliminated.
 986 0000 82B0     		sub	sp, sp, #8
 987              		.cfi_def_cfa_offset 8
 988 0002 0190     		str	r0, [sp, #4]
 989              		.loc 9 91 0
 990 0004 019B     		ldr	r3, [sp, #4]
 991 0006 1B68     		ldr	r3, [r3]
 992 0008 044A     		ldr	r2, .L71
 993 000a 82FB0312 		smull	r1, r2, r2, r3
 994 000e 9214     		asrs	r2, r2, #18
 995 0010 DB17     		asrs	r3, r3, #31
 996 0012 D31A     		subs	r3, r2, r3
 997              		.loc 9 92 0
 998 0014 1846     		mov	r0, r3
 999 0016 02B0     		add	sp, sp, #8
 1000              		.cfi_def_cfa_offset 0
 1001              		@ sp needed
 1002 0018 7047     		bx	lr
 1003              	.L72:
 1004 001a 00BF     		.align	2
 1005              	.L71:
 1006 001c 83DE1B43 		.word	1125899907
 1007              		.cfi_endproc
 1008              	.LFE119:
 1009              		.size	_ZNK3r2p4Time8to_s_rawEv, .-_ZNK3r2p4Time8to_s_rawEv
 1010              		.section	.text._ZN3r2p4Time2msEl,"axG",%progbits,_ZN3r2p4Time2msEl,comdat
 1011              		.align	2
 1012              		.weak	_ZN3r2p4Time2msEl
 1013              		.thumb
 1014              		.thumb_func
 1015              		.type	_ZN3r2p4Time2msEl, %function
 1016              	_ZN3r2p4Time2msEl:
 1017              	.LFB139:
 1018              		.loc 9 184 0
 1019              		.cfi_startproc
 1020              		@ args = 0, pretend = 0, frame = 8
 1021              		@ frame_needed = 0, uses_anonymous_args = 0
 1022 0000 00B5     		push	{lr}
 1023              		.cfi_def_cfa_offset 4
 1024              		.cfi_offset 14, -4
 1025 0002 83B0     		sub	sp, sp, #12
 1026              		.cfi_def_cfa_offset 16
ARM GAS  /tmp/cc5OZvFd.s 			page 19


 1027 0004 0190     		str	r0, [sp, #4]
 1028 0006 0091     		str	r1, [sp]
 1029              		.loc 9 186 0
 1030 0008 009B     		ldr	r3, [sp]
 1031 000a 4FF47A72 		mov	r2, #1000
 1032 000e 02FB03F3 		mul	r3, r2, r3
 1033 0012 0198     		ldr	r0, [sp, #4]
 1034 0014 1946     		mov	r1, r3
 1035 0016 FFF7FEFF 		bl	_ZN3r2p4TimeC1IlEET_
 1036              		.loc 9 187 0
 1037 001a 0198     		ldr	r0, [sp, #4]
 1038 001c 03B0     		add	sp, sp, #12
 1039              		.cfi_def_cfa_offset 4
 1040              		@ sp needed
 1041 001e 5DF804FB 		ldr	pc, [sp], #4
 1042              		.cfi_endproc
 1043              	.LFE139:
 1044              		.size	_ZN3r2p4Time2msEl, .-_ZN3r2p4Time2msEl
 1045 0022 00BF     		.section	.text._ZN3r2p7Thread_11create_heapEPvjmPFlS1_ES1_PKc,"axG",%progbits,_ZN3r2p7Thread_11cre
 1046              		.align	2
 1047              		.weak	_ZN3r2p7Thread_11create_heapEPvjmPFlS1_ES1_PKc
 1048              		.thumb
 1049              		.thumb_func
 1050              		.type	_ZN3r2p7Thread_11create_heapEPvjmPFlS1_ES1_PKc, %function
 1051              	_ZN3r2p7Thread_11create_heapEPvjmPFlS1_ES1_PKc:
 1052              	.LFB155:
 1053              		.file 10 "/opt/R2P/core/Middleware/port/chibios/include/r2p/impl/Thread_.hpp"
 1054              		.loc 10 115 0
 1055              		.cfi_startproc
 1056              		@ args = 8, pretend = 0, frame = 24
 1057              		@ frame_needed = 0, uses_anonymous_args = 0
 1058 0000 00B5     		push	{lr}
 1059              		.cfi_def_cfa_offset 4
 1060              		.cfi_offset 14, -4
 1061 0002 89B0     		sub	sp, sp, #36
 1062              		.cfi_def_cfa_offset 40
 1063 0004 0590     		str	r0, [sp, #20]
 1064 0006 0491     		str	r1, [sp, #16]
 1065 0008 0392     		str	r2, [sp, #12]
 1066 000a 0293     		str	r3, [sp, #8]
 1067              	.LBB22:
 1068              		.loc 10 120 0
 1069 000c 0A9B     		ldr	r3, [sp, #40]
 1070 000e 0093     		str	r3, [sp]
 1071 0010 0598     		ldr	r0, [sp, #20]
 1072 0012 0499     		ldr	r1, [sp, #16]
 1073 0014 039A     		ldr	r2, [sp, #12]
 1074 0016 029B     		ldr	r3, [sp, #8]
 1075 0018 FFF7FEFF 		bl	chThdCreateFromHeap
 1076 001c 0790     		str	r0, [sp, #28]
 1077              		.loc 10 122 0
 1078 001e 079B     		ldr	r3, [sp, #28]
 1079 0020 002B     		cmp	r3, #0
 1080 0022 02D0     		beq	.L76
 1081              		.loc 10 123 0
 1082 0024 079B     		ldr	r3, [sp, #28]
 1083 0026 0B9A     		ldr	r2, [sp, #44]
ARM GAS  /tmp/cc5OZvFd.s 			page 20


 1084 0028 9A61     		str	r2, [r3, #24]
 1085              	.L76:
 1086              		.loc 10 128 0
 1087 002a 079B     		ldr	r3, [sp, #28]
 1088              	.LBE22:
 1089              		.loc 10 129 0
 1090 002c 1846     		mov	r0, r3
 1091 002e 09B0     		add	sp, sp, #36
 1092              		.cfi_def_cfa_offset 4
 1093              		@ sp needed
 1094 0030 5DF804FB 		ldr	pc, [sp], #4
 1095              		.cfi_endproc
 1096              	.LFE155:
 1097              		.size	_ZN3r2p7Thread_11create_heapEPvjmPFlS1_ES1_PKc, .-_ZN3r2p7Thread_11create_heapEPvjmPFlS1_ES1
 1098              		.section	.text._ZN3r2p7Thread_5sleepERKNS_4TimeE,"axG",%progbits,_ZN3r2p7Thread_5sleepERKNS_4TimeE
 1099              		.align	2
 1100              		.weak	_ZN3r2p7Thread_5sleepERKNS_4TimeE
 1101              		.thumb
 1102              		.thumb_func
 1103              		.type	_ZN3r2p7Thread_5sleepERKNS_4TimeE, %function
 1104              	_ZN3r2p7Thread_5sleepERKNS_4TimeE:
 1105              	.LFB161:
 1106              		.loc 10 180 0
 1107              		.cfi_startproc
 1108              		@ args = 0, pretend = 0, frame = 8
 1109              		@ frame_needed = 0, uses_anonymous_args = 0
 1110 0000 00B5     		push	{lr}
 1111              		.cfi_def_cfa_offset 4
 1112              		.cfi_offset 14, -4
 1113 0002 83B0     		sub	sp, sp, #12
 1114              		.cfi_def_cfa_offset 16
 1115 0004 0190     		str	r0, [sp, #4]
 1116              		.loc 10 182 0
 1117 0006 019B     		ldr	r3, [sp, #4]
 1118 0008 1B68     		ldr	r3, [r3]
 1119 000a 002B     		cmp	r3, #0
 1120 000c 21DD     		ble	.L79
 1121              		.loc 10 183 0
 1122 000e 019B     		ldr	r3, [sp, #4]
 1123 0010 1B68     		ldr	r3, [r3]
 1124 0012 124A     		ldr	r2, .L83
 1125 0014 9342     		cmp	r3, r2
 1126 0016 10DC     		bgt	.L80
 1127              		.loc 10 184 0
 1128 0018 019B     		ldr	r3, [sp, #4]
 1129 001a 1B68     		ldr	r3, [r3]
 1130 001c 1A46     		mov	r2, r3
 1131 001e 4FF47A73 		mov	r3, #1000
 1132 0022 03FB02F3 		mul	r3, r3, r2
 1133 0026 013B     		subs	r3, r3, #1
 1134 0028 0D4A     		ldr	r2, .L83+4
 1135 002a A2FB0323 		umull	r2, r3, r2, r3
 1136 002e 9B0C     		lsrs	r3, r3, #18
 1137 0030 0133     		adds	r3, r3, #1
 1138 0032 1846     		mov	r0, r3
 1139 0034 FFF7FEFF 		bl	chThdSleep
 1140 0038 0DE0     		b	.L78
ARM GAS  /tmp/cc5OZvFd.s 			page 21


 1141              	.L80:
 1142              		.loc 10 186 0
 1143 003a 0198     		ldr	r0, [sp, #4]
 1144 003c FFF7FEFF 		bl	_ZNK3r2p4Time8to_s_rawEv
 1145 0040 0246     		mov	r2, r0
 1146 0042 4FF47A73 		mov	r3, #1000
 1147 0046 03FB02F3 		mul	r3, r3, r2
 1148 004a 1846     		mov	r0, r3
 1149 004c FFF7FEFF 		bl	chThdSleep
 1150 0050 01E0     		b	.L78
 1151              	.L79:
 1152              		.loc 10 189 0
 1153 0052 FFF7FEFF 		bl	chThdYield
 1154              	.L78:
 1155              		.loc 10 191 0
 1156 0056 03B0     		add	sp, sp, #12
 1157              		.cfi_def_cfa_offset 4
 1158              		@ sp needed
 1159 0058 5DF804FB 		ldr	pc, [sp], #4
 1160              	.L84:
 1161              		.align	2
 1162              	.L83:
 1163 005c 3F420F00 		.word	999999
 1164 0060 83DE1B43 		.word	1125899907
 1165              		.cfi_endproc
 1166              	.LFE161:
 1167              		.size	_ZN3r2p7Thread_5sleepERKNS_4TimeE, .-_ZN3r2p7Thread_5sleepERKNS_4TimeE
 1168              		.section	.text._ZN3r2p6Thread11create_heapEPvjmPFlS1_ES1_PKc,"axG",%progbits,_ZN3r2p6Thread11creat
 1169              		.align	2
 1170              		.weak	_ZN3r2p6Thread11create_heapEPvjmPFlS1_ES1_PKc
 1171              		.thumb
 1172              		.thumb_func
 1173              		.type	_ZN3r2p6Thread11create_heapEPvjmPFlS1_ES1_PKc, %function
 1174              	_ZN3r2p6Thread11create_heapEPvjmPFlS1_ES1_PKc:
 1175              	.LFB177:
 1176              		.file 11 "/opt/R2P/core/Middleware/include/r2p/Thread.hpp"
 1177              		.loc 11 92 0
 1178              		.cfi_startproc
 1179              		@ args = 8, pretend = 0, frame = 16
 1180              		@ frame_needed = 0, uses_anonymous_args = 0
 1181 0000 00B5     		push	{lr}
 1182              		.cfi_def_cfa_offset 4
 1183              		.cfi_offset 14, -4
 1184 0002 87B0     		sub	sp, sp, #28
 1185              		.cfi_def_cfa_offset 32
 1186 0004 0590     		str	r0, [sp, #20]
 1187 0006 0491     		str	r1, [sp, #16]
 1188 0008 0392     		str	r2, [sp, #12]
 1189 000a 0293     		str	r3, [sp, #8]
 1190              		.loc 11 96 0
 1191 000c 089B     		ldr	r3, [sp, #32]
 1192 000e 0093     		str	r3, [sp]
 1193 0010 099B     		ldr	r3, [sp, #36]
 1194 0012 0193     		str	r3, [sp, #4]
 1195 0014 0598     		ldr	r0, [sp, #20]
 1196 0016 0499     		ldr	r1, [sp, #16]
 1197 0018 039A     		ldr	r2, [sp, #12]
ARM GAS  /tmp/cc5OZvFd.s 			page 22


 1198 001a 029B     		ldr	r3, [sp, #8]
 1199 001c FFF7FEFF 		bl	_ZN3r2p7Thread_11create_heapEPvjmPFlS1_ES1_PKc
 1200 0020 0346     		mov	r3, r0
 1201              		.loc 11 97 0
 1202 0022 1846     		mov	r0, r3
 1203 0024 07B0     		add	sp, sp, #28
 1204              		.cfi_def_cfa_offset 4
 1205              		@ sp needed
 1206 0026 5DF804FB 		ldr	pc, [sp], #4
 1207              		.cfi_endproc
 1208              	.LFE177:
 1209              		.size	_ZN3r2p6Thread11create_heapEPvjmPFlS1_ES1_PKc, .-_ZN3r2p6Thread11create_heapEPvjmPFlS1_ES1_P
 1210 002a 00BF     		.section	.text._ZN3r2p6Thread5sleepERKNS_4TimeE,"axG",%progbits,_ZN3r2p6Thread5sleepERKNS_4TimeE,c
 1211              		.align	2
 1212              		.weak	_ZN3r2p6Thread5sleepERKNS_4TimeE
 1213              		.thumb
 1214              		.thumb_func
 1215              		.type	_ZN3r2p6Thread5sleepERKNS_4TimeE, %function
 1216              	_ZN3r2p6Thread5sleepERKNS_4TimeE:
 1217              	.LFB183:
 1218              		.loc 11 140 0
 1219              		.cfi_startproc
 1220              		@ args = 0, pretend = 0, frame = 8
 1221              		@ frame_needed = 0, uses_anonymous_args = 0
 1222 0000 00B5     		push	{lr}
 1223              		.cfi_def_cfa_offset 4
 1224              		.cfi_offset 14, -4
 1225 0002 83B0     		sub	sp, sp, #12
 1226              		.cfi_def_cfa_offset 16
 1227 0004 0190     		str	r0, [sp, #4]
 1228              		.loc 11 142 0
 1229 0006 0198     		ldr	r0, [sp, #4]
 1230 0008 FFF7FEFF 		bl	_ZN3r2p7Thread_5sleepERKNS_4TimeE
 1231              		.loc 11 143 0
 1232 000c 03B0     		add	sp, sp, #12
 1233              		.cfi_def_cfa_offset 4
 1234              		@ sp needed
 1235 000e 5DF804FB 		ldr	pc, [sp], #4
 1236              		.cfi_endproc
 1237              	.LFE183:
 1238              		.size	_ZN3r2p6Thread5sleepERKNS_4TimeE, .-_ZN3r2p6Thread5sleepERKNS_4TimeE
 1239 0012 00BF     		.section	.text._ZN3r2p10Bootloader12FlashAppInfo15compute_programEPKS1_,"axG",%progbits,_ZN3r2p10B
 1240              		.align	2
 1241              		.weak	_ZN3r2p10Bootloader12FlashAppInfo15compute_programEPKS1_
 1242              		.thumb
 1243              		.thumb_func
 1244              		.type	_ZN3r2p10Bootloader12FlashAppInfo15compute_programEPKS1_, %function
 1245              	_ZN3r2p10Bootloader12FlashAppInfo15compute_programEPKS1_:
 1246              	.LFB185:
 1247              		.file 12 "/opt/R2P/core/Middleware/include/r2p/Bootloader.hpp"
 1248              		.loc 12 59 0
 1249              		.cfi_startproc
 1250              		@ args = 0, pretend = 0, frame = 8
 1251              		@ frame_needed = 0, uses_anonymous_args = 0
 1252 0000 00B5     		push	{lr}
 1253              		.cfi_def_cfa_offset 4
 1254              		.cfi_offset 14, -4
ARM GAS  /tmp/cc5OZvFd.s 			page 23


 1255 0002 83B0     		sub	sp, sp, #12
 1256              		.cfi_def_cfa_offset 16
 1257 0004 0190     		str	r0, [sp, #4]
 1258              		.loc 12 61 0
 1259 0006 4420     		movs	r0, #68
 1260 0008 FFF7FEFF 		bl	_ZN3r2p7Flasher10align_nextEj
 1261 000c 0246     		mov	r2, r0
 1262 000e 019B     		ldr	r3, [sp, #4]
 1263 0010 1344     		add	r3, r3, r2
 1264              		.loc 12 62 0
 1265 0012 1846     		mov	r0, r3
 1266 0014 03B0     		add	sp, sp, #12
 1267              		.cfi_def_cfa_offset 4
 1268              		@ sp needed
 1269 0016 5DF804FB 		ldr	pc, [sp], #4
 1270              		.cfi_endproc
 1271              	.LFE185:
 1272              		.size	_ZN3r2p10Bootloader12FlashAppInfo15compute_programEPKS1_, .-_ZN3r2p10Bootloader12FlashAppInf
 1273 001a 00BF     		.section	.text._ZN3r2p10Bootloader12FlashAppInfo20compute_data_programEPKS1_jj,"axG",%progbits,_ZN
 1274              		.align	2
 1275              		.weak	_ZN3r2p10Bootloader12FlashAppInfo20compute_data_programEPKS1_jj
 1276              		.thumb
 1277              		.thumb_func
 1278              		.type	_ZN3r2p10Bootloader12FlashAppInfo20compute_data_programEPKS1_jj, %function
 1279              	_ZN3r2p10Bootloader12FlashAppInfo20compute_data_programEPKS1_jj:
 1280              	.LFB186:
 1281              		.loc 12 64 0
 1282              		.cfi_startproc
 1283              		@ args = 0, pretend = 0, frame = 16
 1284              		@ frame_needed = 0, uses_anonymous_args = 0
 1285 0000 10B5     		push	{r4, lr}
 1286              		.cfi_def_cfa_offset 8
 1287              		.cfi_offset 4, -8
 1288              		.cfi_offset 14, -4
 1289 0002 84B0     		sub	sp, sp, #16
 1290              		.cfi_def_cfa_offset 24
 1291 0004 0390     		str	r0, [sp, #12]
 1292 0006 0291     		str	r1, [sp, #8]
 1293 0008 0192     		str	r2, [sp, #4]
 1294              		.loc 12 66 0
 1295 000a 019B     		ldr	r3, [sp, #4]
 1296 000c 002B     		cmp	r3, #0
 1297 000e 0BD0     		beq	.L91
 1298              		.loc 12 68 0
 1299 0010 4420     		movs	r0, #68
 1300 0012 FFF7FEFF 		bl	_ZN3r2p7Flasher10align_nextEj
 1301 0016 0446     		mov	r4, r0
 1302              		.loc 12 69 0
 1303 0018 0298     		ldr	r0, [sp, #8]
 1304 001a FFF7FEFF 		bl	_ZN3r2p7Flasher10align_nextEj
 1305 001e 0346     		mov	r3, r0
 1306 0020 2344     		add	r3, r3, r4
 1307 0022 039A     		ldr	r2, [sp, #12]
 1308 0024 1344     		add	r3, r3, r2
 1309 0026 00E0     		b	.L92
 1310              	.L91:
 1311              		.loc 12 71 0
ARM GAS  /tmp/cc5OZvFd.s 			page 24


 1312 0028 0023     		movs	r3, #0
 1313              	.L92:
 1314              		.loc 12 73 0
 1315 002a 1846     		mov	r0, r3
 1316 002c 04B0     		add	sp, sp, #16
 1317              		.cfi_def_cfa_offset 8
 1318              		@ sp needed
 1319 002e 10BD     		pop	{r4, pc}
 1320              		.cfi_endproc
 1321              	.LFE186:
 1322              		.size	_ZN3r2p10Bootloader12FlashAppInfo20compute_data_programEPKS1_jj, .-_ZN3r2p10Bootloader12Flas
 1323              		.section	.text._ZN3r2p10Bootloader12FlashAppInfo12compute_nextEPKS1_jj,"axG",%progbits,_ZN3r2p10Bo
 1324              		.align	2
 1325              		.weak	_ZN3r2p10Bootloader12FlashAppInfo12compute_nextEPKS1_jj
 1326              		.thumb
 1327              		.thumb_func
 1328              		.type	_ZN3r2p10Bootloader12FlashAppInfo12compute_nextEPKS1_jj, %function
 1329              	_ZN3r2p10Bootloader12FlashAppInfo12compute_nextEPKS1_jj:
 1330              	.LFB187:
 1331              		.loc 12 75 0
 1332              		.cfi_startproc
 1333              		@ args = 0, pretend = 0, frame = 16
 1334              		@ frame_needed = 0, uses_anonymous_args = 0
 1335 0000 10B5     		push	{r4, lr}
 1336              		.cfi_def_cfa_offset 8
 1337              		.cfi_offset 4, -8
 1338              		.cfi_offset 14, -4
 1339 0002 84B0     		sub	sp, sp, #16
 1340              		.cfi_def_cfa_offset 24
 1341 0004 0390     		str	r0, [sp, #12]
 1342 0006 0291     		str	r1, [sp, #8]
 1343 0008 0192     		str	r2, [sp, #4]
 1344              		.loc 12 79 0
 1345 000a 4420     		movs	r0, #68
 1346 000c FFF7FEFF 		bl	_ZN3r2p7Flasher10align_nextEj
 1347 0010 0446     		mov	r4, r0
 1348              		.loc 12 80 0
 1349 0012 0298     		ldr	r0, [sp, #8]
 1350 0014 FFF7FEFF 		bl	_ZN3r2p7Flasher10align_nextEj
 1351 0018 0346     		mov	r3, r0
 1352 001a 1C44     		add	r4, r4, r3
 1353              		.loc 12 81 0
 1354 001c 0198     		ldr	r0, [sp, #4]
 1355 001e FFF7FEFF 		bl	_ZN3r2p7Flasher10align_nextEj
 1356 0022 0346     		mov	r3, r0
 1357 0024 2344     		add	r3, r3, r4
 1358              		.loc 12 82 0
 1359 0026 039A     		ldr	r2, [sp, #12]
 1360 0028 1344     		add	r3, r3, r2
 1361              		.loc 12 83 0
 1362 002a 1846     		mov	r0, r3
 1363 002c 04B0     		add	sp, sp, #16
 1364              		.cfi_def_cfa_offset 8
 1365              		@ sp needed
 1366 002e 10BD     		pop	{r4, pc}
 1367              		.cfi_endproc
 1368              	.LFE187:
ARM GAS  /tmp/cc5OZvFd.s 			page 25


 1369              		.size	_ZN3r2p10Bootloader12FlashAppInfo12compute_nextEPKS1_jj, .-_ZN3r2p10Bootloader12FlashAppInfo
 1370              		.section	.text._ZNK3r2p10Bootloader12FlashAppInfo11get_programEv,"axG",%progbits,_ZNK3r2p10Bootloa
 1371              		.align	2
 1372              		.weak	_ZNK3r2p10Bootloader12FlashAppInfo11get_programEv
 1373              		.thumb
 1374              		.thumb_func
 1375              		.type	_ZNK3r2p10Bootloader12FlashAppInfo11get_programEv, %function
 1376              	_ZNK3r2p10Bootloader12FlashAppInfo11get_programEv:
 1377              	.LFB188:
 1378              		.loc 12 85 0
 1379              		.cfi_startproc
 1380              		@ args = 0, pretend = 0, frame = 8
 1381              		@ frame_needed = 0, uses_anonymous_args = 0
 1382 0000 00B5     		push	{lr}
 1383              		.cfi_def_cfa_offset 4
 1384              		.cfi_offset 14, -4
 1385 0002 83B0     		sub	sp, sp, #12
 1386              		.cfi_def_cfa_offset 16
 1387 0004 0190     		str	r0, [sp, #4]
 1388              		.loc 12 86 0
 1389 0006 0198     		ldr	r0, [sp, #4]
 1390 0008 FFF7FEFF 		bl	_ZN3r2p10Bootloader12FlashAppInfo15compute_programEPKS1_
 1391 000c 0346     		mov	r3, r0
 1392              		.loc 12 87 0
 1393 000e 1846     		mov	r0, r3
 1394 0010 03B0     		add	sp, sp, #12
 1395              		.cfi_def_cfa_offset 4
 1396              		@ sp needed
 1397 0012 5DF804FB 		ldr	pc, [sp], #4
 1398              		.cfi_endproc
 1399              	.LFE188:
 1400              		.size	_ZNK3r2p10Bootloader12FlashAppInfo11get_programEv, .-_ZNK3r2p10Bootloader12FlashAppInfo11get
 1401 0016 00BF     		.section	.text._ZNK3r2p10Bootloader12FlashAppInfo16get_data_programEv,"axG",%progbits,_ZNK3r2p10Bo
 1402              		.align	2
 1403              		.weak	_ZNK3r2p10Bootloader12FlashAppInfo16get_data_programEv
 1404              		.thumb
 1405              		.thumb_func
 1406              		.type	_ZNK3r2p10Bootloader12FlashAppInfo16get_data_programEv, %function
 1407              	_ZNK3r2p10Bootloader12FlashAppInfo16get_data_programEv:
 1408              	.LFB189:
 1409              		.loc 12 89 0
 1410              		.cfi_startproc
 1411              		@ args = 0, pretend = 0, frame = 8
 1412              		@ frame_needed = 0, uses_anonymous_args = 0
 1413 0000 00B5     		push	{lr}
 1414              		.cfi_def_cfa_offset 4
 1415              		.cfi_offset 14, -4
 1416 0002 83B0     		sub	sp, sp, #12
 1417              		.cfi_def_cfa_offset 16
 1418 0004 0190     		str	r0, [sp, #4]
 1419              		.loc 12 90 0
 1420 0006 019B     		ldr	r3, [sp, #4]
 1421 0008 5A68     		ldr	r2, [r3, #4]
 1422 000a 019B     		ldr	r3, [sp, #4]
 1423 000c DB68     		ldr	r3, [r3, #12]
 1424 000e 0198     		ldr	r0, [sp, #4]
 1425 0010 1146     		mov	r1, r2
ARM GAS  /tmp/cc5OZvFd.s 			page 26


 1426 0012 1A46     		mov	r2, r3
 1427 0014 FFF7FEFF 		bl	_ZN3r2p10Bootloader12FlashAppInfo20compute_data_programEPKS1_jj
 1428 0018 0346     		mov	r3, r0
 1429              		.loc 12 91 0
 1430 001a 1846     		mov	r0, r3
 1431 001c 03B0     		add	sp, sp, #12
 1432              		.cfi_def_cfa_offset 4
 1433              		@ sp needed
 1434 001e 5DF804FB 		ldr	pc, [sp], #4
 1435              		.cfi_endproc
 1436              	.LFE189:
 1437              		.size	_ZNK3r2p10Bootloader12FlashAppInfo16get_data_programEv, .-_ZNK3r2p10Bootloader12FlashAppInfo
 1438 0022 00BF     		.section	.text._ZNK3r2p10Bootloader12FlashAppInfo8get_nextEv,"axG",%progbits,_ZNK3r2p10Bootloader1
 1439              		.align	2
 1440              		.weak	_ZNK3r2p10Bootloader12FlashAppInfo8get_nextEv
 1441              		.thumb
 1442              		.thumb_func
 1443              		.type	_ZNK3r2p10Bootloader12FlashAppInfo8get_nextEv, %function
 1444              	_ZNK3r2p10Bootloader12FlashAppInfo8get_nextEv:
 1445              	.LFB190:
 1446              		.loc 12 93 0
 1447              		.cfi_startproc
 1448              		@ args = 0, pretend = 0, frame = 8
 1449              		@ frame_needed = 0, uses_anonymous_args = 0
 1450 0000 00B5     		push	{lr}
 1451              		.cfi_def_cfa_offset 4
 1452              		.cfi_offset 14, -4
 1453 0002 83B0     		sub	sp, sp, #12
 1454              		.cfi_def_cfa_offset 16
 1455 0004 0190     		str	r0, [sp, #4]
 1456              		.loc 12 94 0
 1457 0006 019B     		ldr	r3, [sp, #4]
 1458 0008 5A68     		ldr	r2, [r3, #4]
 1459 000a 019B     		ldr	r3, [sp, #4]
 1460 000c DB68     		ldr	r3, [r3, #12]
 1461 000e 0198     		ldr	r0, [sp, #4]
 1462 0010 1146     		mov	r1, r2
 1463 0012 1A46     		mov	r2, r3
 1464 0014 FFF7FEFF 		bl	_ZN3r2p10Bootloader12FlashAppInfo12compute_nextEPKS1_jj
 1465 0018 0346     		mov	r3, r0
 1466              		.loc 12 95 0
 1467 001a 1846     		mov	r0, r3
 1468 001c 03B0     		add	sp, sp, #12
 1469              		.cfi_def_cfa_offset 4
 1470              		@ sp needed
 1471 001e 5DF804FB 		ldr	pc, [sp], #4
 1472              		.cfi_endproc
 1473              	.LFE190:
 1474              		.size	_ZNK3r2p10Bootloader12FlashAppInfo8get_nextEv, .-_ZNK3r2p10Bootloader12FlashAppInfo8get_next
 1475 0022 00BF     		.section	.text._ZNK3r2p10Bootloader12FlashAppInfo8is_validEv,"axG",%progbits,_ZNK3r2p10Bootloader1
 1476              		.align	2
 1477              		.weak	_ZNK3r2p10Bootloader12FlashAppInfo8is_validEv
 1478              		.thumb
 1479              		.thumb_func
 1480              		.type	_ZNK3r2p10Bootloader12FlashAppInfo8is_validEv, %function
 1481              	_ZNK3r2p10Bootloader12FlashAppInfo8is_validEv:
 1482              	.LFB191:
ARM GAS  /tmp/cc5OZvFd.s 			page 27


 1483              		.loc 12 97 0
 1484              		.cfi_startproc
 1485              		@ args = 0, pretend = 0, frame = 8
 1486              		@ frame_needed = 0, uses_anonymous_args = 0
 1487 0000 00B5     		push	{lr}
 1488              		.cfi_def_cfa_offset 4
 1489              		.cfi_offset 14, -4
 1490 0002 83B0     		sub	sp, sp, #12
 1491              		.cfi_def_cfa_offset 16
 1492 0004 0190     		str	r0, [sp, #4]
 1493              		.loc 12 98 0
 1494 0006 019B     		ldr	r3, [sp, #4]
 1495 0008 1B68     		ldr	r3, [r3]
 1496 000a 084A     		ldr	r2, .L105
 1497 000c 9342     		cmp	r3, r2
 1498 000e 07D1     		bne	.L102
 1499              		.loc 12 99 0 discriminator 1
 1500 0010 0198     		ldr	r0, [sp, #4]
 1501 0012 FFF7FEFF 		bl	_ZN3r2p7Flasher16is_within_boundsEPKv
 1502 0016 0346     		mov	r3, r0
 1503              		.loc 12 98 0 discriminator 1
 1504 0018 002B     		cmp	r3, #0
 1505 001a 01D0     		beq	.L102
 1506              		.loc 12 98 0 is_stmt 0 discriminator 3
 1507 001c 0123     		movs	r3, #1
 1508 001e 00E0     		b	.L103
 1509              	.L102:
 1510              		.loc 12 98 0 discriminator 4
 1511 0020 0023     		movs	r3, #0
 1512              	.L103:
 1513              		.loc 12 100 0 is_stmt 1
 1514 0022 1846     		mov	r0, r3
 1515 0024 03B0     		add	sp, sp, #12
 1516              		.cfi_def_cfa_offset 4
 1517              		@ sp needed
 1518 0026 5DF804FB 		ldr	pc, [sp], #4
 1519              	.L106:
 1520 002a 00BF     		.align	2
 1521              	.L105:
 1522 002c 695A2C1D 		.word	489445993
 1523              		.cfi_endproc
 1524              	.LFE191:
 1525              		.size	_ZNK3r2p10Bootloader12FlashAppInfo8is_validEv, .-_ZNK3r2p10Bootloader12FlashAppInfo8is_valid
 1526              		.section	.text._ZNK3r2p10Bootloader12FlashAppInfo8has_nameEPKc,"axG",%progbits,_ZNK3r2p10Bootloade
 1527              		.align	2
 1528              		.weak	_ZNK3r2p10Bootloader12FlashAppInfo8has_nameEPKc
 1529              		.thumb
 1530              		.thumb_func
 1531              		.type	_ZNK3r2p10Bootloader12FlashAppInfo8has_nameEPKc, %function
 1532              	_ZNK3r2p10Bootloader12FlashAppInfo8has_nameEPKc:
 1533              	.LFB192:
 1534              		.loc 12 102 0
 1535              		.cfi_startproc
 1536              		@ args = 0, pretend = 0, frame = 8
 1537              		@ frame_needed = 0, uses_anonymous_args = 0
 1538 0000 00B5     		push	{lr}
 1539              		.cfi_def_cfa_offset 4
ARM GAS  /tmp/cc5OZvFd.s 			page 28


 1540              		.cfi_offset 14, -4
 1541 0002 83B0     		sub	sp, sp, #12
 1542              		.cfi_def_cfa_offset 16
 1543 0004 0190     		str	r0, [sp, #4]
 1544 0006 0091     		str	r1, [sp]
 1545              		.loc 12 103 0
 1546 0008 019B     		ldr	r3, [sp, #4]
 1547 000a 3833     		adds	r3, r3, #56
 1548 000c 1846     		mov	r0, r3
 1549 000e 0099     		ldr	r1, [sp]
 1550 0010 0822     		movs	r2, #8
 1551 0012 FFF7FEFF 		bl	strncmp
 1552 0016 0346     		mov	r3, r0
 1553 0018 002B     		cmp	r3, #0
 1554 001a 0CBF     		ite	eq
 1555 001c 0123     		moveq	r3, #1
 1556 001e 0023     		movne	r3, #0
 1557 0020 DBB2     		uxtb	r3, r3
 1558              		.loc 12 104 0
 1559 0022 1846     		mov	r0, r3
 1560 0024 03B0     		add	sp, sp, #12
 1561              		.cfi_def_cfa_offset 4
 1562              		@ sp needed
 1563 0026 5DF804FB 		ldr	pc, [sp], #4
 1564              		.cfi_endproc
 1565              	.LFE192:
 1566              		.size	_ZNK3r2p10Bootloader12FlashAppInfo8has_nameEPKc, .-_ZNK3r2p10Bootloader12FlashAppInfo8has_na
 1567 002a 00BF     		.section	.text._ZN3r2p10Bootloader8IteratorC2ERKS1_,"axG",%progbits,_ZN3r2p10Bootloader8IteratorC5
 1568              		.align	2
 1569              		.weak	_ZN3r2p10Bootloader8IteratorC2ERKS1_
 1570              		.thumb
 1571              		.thumb_func
 1572              		.type	_ZN3r2p10Bootloader8IteratorC2ERKS1_, %function
 1573              	_ZN3r2p10Bootloader8IteratorC2ERKS1_:
 1574              	.LFB194:
 1575              		.loc 12 183 0
 1576              		.cfi_startproc
 1577              		@ args = 0, pretend = 0, frame = 8
 1578              		@ frame_needed = 0, uses_anonymous_args = 0
 1579              		@ link register save eliminated.
 1580 0000 82B0     		sub	sp, sp, #8
 1581              		.cfi_def_cfa_offset 8
 1582 0002 0190     		str	r0, [sp, #4]
 1583 0004 0091     		str	r1, [sp]
 1584              	.LBB23:
 1585              		.loc 12 183 0
 1586 0006 009B     		ldr	r3, [sp]
 1587 0008 1A68     		ldr	r2, [r3]
 1588 000a 019B     		ldr	r3, [sp, #4]
 1589 000c 1A60     		str	r2, [r3]
 1590              	.LBE23:
 1591 000e 019B     		ldr	r3, [sp, #4]
 1592 0010 1846     		mov	r0, r3
 1593 0012 02B0     		add	sp, sp, #8
 1594              		.cfi_def_cfa_offset 0
 1595              		@ sp needed
 1596 0014 7047     		bx	lr
ARM GAS  /tmp/cc5OZvFd.s 			page 29


 1597              		.cfi_endproc
 1598              	.LFE194:
 1599              		.size	_ZN3r2p10Bootloader8IteratorC2ERKS1_, .-_ZN3r2p10Bootloader8IteratorC2ERKS1_
 1600              		.weak	_ZN3r2p10Bootloader8IteratorC1ERKS1_
 1601              		.thumb_set _ZN3r2p10Bootloader8IteratorC1ERKS1_,_ZN3r2p10Bootloader8IteratorC2ERKS1_
 1602 0016 00BF     		.section	.text._ZN3r2p10Bootloader8IteratorC2EPKNS0_12FlashAppInfoE,"axG",%progbits,_ZN3r2p10Bootl
 1603              		.align	2
 1604              		.weak	_ZN3r2p10Bootloader8IteratorC2EPKNS0_12FlashAppInfoE
 1605              		.thumb
 1606              		.thumb_func
 1607              		.type	_ZN3r2p10Bootloader8IteratorC2EPKNS0_12FlashAppInfoE, %function
 1608              	_ZN3r2p10Bootloader8IteratorC2EPKNS0_12FlashAppInfoE:
 1609              	.LFB197:
 1610              		.loc 12 186 0
 1611              		.cfi_startproc
 1612              		@ args = 0, pretend = 0, frame = 8
 1613              		@ frame_needed = 0, uses_anonymous_args = 0
 1614              		@ link register save eliminated.
 1615 0000 82B0     		sub	sp, sp, #8
 1616              		.cfi_def_cfa_offset 8
 1617 0002 0190     		str	r0, [sp, #4]
 1618 0004 0091     		str	r1, [sp]
 1619              	.LBB24:
 1620              		.loc 12 186 0
 1621 0006 019B     		ldr	r3, [sp, #4]
 1622 0008 009A     		ldr	r2, [sp]
 1623 000a 1A60     		str	r2, [r3]
 1624              	.LBE24:
 1625 000c 019B     		ldr	r3, [sp, #4]
 1626 000e 1846     		mov	r0, r3
 1627 0010 02B0     		add	sp, sp, #8
 1628              		.cfi_def_cfa_offset 0
 1629              		@ sp needed
 1630 0012 7047     		bx	lr
 1631              		.cfi_endproc
 1632              	.LFE197:
 1633              		.size	_ZN3r2p10Bootloader8IteratorC2EPKNS0_12FlashAppInfoE, .-_ZN3r2p10Bootloader8IteratorC2EPKNS0
 1634              		.weak	_ZN3r2p10Bootloader8IteratorC1EPKNS0_12FlashAppInfoE
 1635              		.thumb_set _ZN3r2p10Bootloader8IteratorC1EPKNS0_12FlashAppInfoE,_ZN3r2p10Bootloader8IteratorC2EPKN
 1636              		.section	.text._ZNK3r2p10Bootloader8IteratorptEv,"axG",%progbits,_ZNK3r2p10Bootloader8IteratorptEv
 1637              		.align	2
 1638              		.weak	_ZNK3r2p10Bootloader8IteratorptEv
 1639              		.thumb
 1640              		.thumb_func
 1641              		.type	_ZNK3r2p10Bootloader8IteratorptEv, %function
 1642              	_ZNK3r2p10Bootloader8IteratorptEv:
 1643              	.LFB200:
 1644              		.loc 12 195 0
 1645              		.cfi_startproc
 1646              		@ args = 0, pretend = 0, frame = 8
 1647              		@ frame_needed = 0, uses_anonymous_args = 0
 1648              		@ link register save eliminated.
 1649 0000 82B0     		sub	sp, sp, #8
 1650              		.cfi_def_cfa_offset 8
 1651 0002 0190     		str	r0, [sp, #4]
 1652              		.loc 12 196 0
 1653 0004 019B     		ldr	r3, [sp, #4]
ARM GAS  /tmp/cc5OZvFd.s 			page 30


 1654 0006 1B68     		ldr	r3, [r3]
 1655              		.loc 12 197 0
 1656 0008 1846     		mov	r0, r3
 1657 000a 02B0     		add	sp, sp, #8
 1658              		.cfi_def_cfa_offset 0
 1659              		@ sp needed
 1660 000c 7047     		bx	lr
 1661              		.cfi_endproc
 1662              	.LFE200:
 1663              		.size	_ZNK3r2p10Bootloader8IteratorptEv, .-_ZNK3r2p10Bootloader8IteratorptEv
 1664 000e 00BF     		.section	.text._ZNK3r2p10Bootloader8IteratordeEv,"axG",%progbits,_ZNK3r2p10Bootloader8IteratordeEv
 1665              		.align	2
 1666              		.weak	_ZNK3r2p10Bootloader8IteratordeEv
 1667              		.thumb
 1668              		.thumb_func
 1669              		.type	_ZNK3r2p10Bootloader8IteratordeEv, %function
 1670              	_ZNK3r2p10Bootloader8IteratordeEv:
 1671              	.LFB201:
 1672              		.loc 12 199 0
 1673              		.cfi_startproc
 1674              		@ args = 0, pretend = 0, frame = 8
 1675              		@ frame_needed = 0, uses_anonymous_args = 0
 1676              		@ link register save eliminated.
 1677 0000 82B0     		sub	sp, sp, #8
 1678              		.cfi_def_cfa_offset 8
 1679 0002 0190     		str	r0, [sp, #4]
 1680              		.loc 12 200 0
 1681 0004 019B     		ldr	r3, [sp, #4]
 1682 0006 1B68     		ldr	r3, [r3]
 1683              		.loc 12 201 0
 1684 0008 1846     		mov	r0, r3
 1685 000a 02B0     		add	sp, sp, #8
 1686              		.cfi_def_cfa_offset 0
 1687              		@ sp needed
 1688 000c 7047     		bx	lr
 1689              		.cfi_endproc
 1690              	.LFE201:
 1691              		.size	_ZNK3r2p10Bootloader8IteratordeEv, .-_ZNK3r2p10Bootloader8IteratordeEv
 1692 000e 00BF     		.section	.text._ZNK3r2p10Bootloader8IteratorcvPKNS0_12FlashAppInfoEEv,"axG",%progbits,_ZNK3r2p10Bo
 1693              		.align	2
 1694              		.weak	_ZNK3r2p10Bootloader8IteratorcvPKNS0_12FlashAppInfoEEv
 1695              		.thumb
 1696              		.thumb_func
 1697              		.type	_ZNK3r2p10Bootloader8IteratorcvPKNS0_12FlashAppInfoEEv, %function
 1698              	_ZNK3r2p10Bootloader8IteratorcvPKNS0_12FlashAppInfoEEv:
 1699              	.LFB202:
 1700              		.loc 12 203 0
 1701              		.cfi_startproc
 1702              		@ args = 0, pretend = 0, frame = 8
 1703              		@ frame_needed = 0, uses_anonymous_args = 0
 1704              		@ link register save eliminated.
 1705 0000 82B0     		sub	sp, sp, #8
 1706              		.cfi_def_cfa_offset 8
 1707 0002 0190     		str	r0, [sp, #4]
 1708              		.loc 12 204 0
 1709 0004 019B     		ldr	r3, [sp, #4]
 1710 0006 1B68     		ldr	r3, [r3]
ARM GAS  /tmp/cc5OZvFd.s 			page 31


 1711              		.loc 12 205 0
 1712 0008 1846     		mov	r0, r3
 1713 000a 02B0     		add	sp, sp, #8
 1714              		.cfi_def_cfa_offset 0
 1715              		@ sp needed
 1716 000c 7047     		bx	lr
 1717              		.cfi_endproc
 1718              	.LFE202:
 1719              		.size	_ZNK3r2p10Bootloader8IteratorcvPKNS0_12FlashAppInfoEEv, .-_ZNK3r2p10Bootloader8IteratorcvPKN
 1720 000e 00BF     		.section	.text._ZN3r2p10Bootloader8IteratorppEv,"axG",%progbits,_ZN3r2p10Bootloader8IteratorppEv,c
 1721              		.align	2
 1722              		.weak	_ZN3r2p10Bootloader8IteratorppEv
 1723              		.thumb
 1724              		.thumb_func
 1725              		.type	_ZN3r2p10Bootloader8IteratorppEv, %function
 1726              	_ZN3r2p10Bootloader8IteratorppEv:
 1727              	.LFB204:
 1728              		.loc 12 211 0
 1729              		.cfi_startproc
 1730              		@ args = 0, pretend = 0, frame = 8
 1731              		@ frame_needed = 0, uses_anonymous_args = 0
 1732 0000 00B5     		push	{lr}
 1733              		.cfi_def_cfa_offset 4
 1734              		.cfi_offset 14, -4
 1735 0002 83B0     		sub	sp, sp, #12
 1736              		.cfi_def_cfa_offset 16
 1737 0004 0190     		str	r0, [sp, #4]
 1738              		.loc 12 212 0
 1739 0006 019B     		ldr	r3, [sp, #4]
 1740 0008 1B68     		ldr	r3, [r3]
 1741 000a 1846     		mov	r0, r3
 1742 000c FFF7FEFF 		bl	_ZNK3r2p10Bootloader12FlashAppInfo8get_nextEv
 1743 0010 0246     		mov	r2, r0
 1744 0012 019B     		ldr	r3, [sp, #4]
 1745 0014 1A60     		str	r2, [r3]
 1746              		.loc 12 213 0
 1747 0016 019B     		ldr	r3, [sp, #4]
 1748              		.loc 12 214 0
 1749 0018 1846     		mov	r0, r3
 1750 001a 03B0     		add	sp, sp, #12
 1751              		.cfi_def_cfa_offset 4
 1752              		@ sp needed
 1753 001c 5DF804FB 		ldr	pc, [sp], #4
 1754              		.cfi_endproc
 1755              	.LFE204:
 1756              		.size	_ZN3r2p10Bootloader8IteratorppEv, .-_ZN3r2p10Bootloader8IteratorppEv
 1757              		.section	.text._ZNK3r2p10Bootloader8IteratorneERKS1_,"axG",%progbits,_ZNK3r2p10Bootloader8Iterator
 1758              		.align	2
 1759              		.weak	_ZNK3r2p10Bootloader8IteratorneERKS1_
 1760              		.thumb
 1761              		.thumb_func
 1762              		.type	_ZNK3r2p10Bootloader8IteratorneERKS1_, %function
 1763              	_ZNK3r2p10Bootloader8IteratorneERKS1_:
 1764              	.LFB207:
 1765              		.loc 12 226 0
 1766              		.cfi_startproc
 1767              		@ args = 0, pretend = 0, frame = 8
ARM GAS  /tmp/cc5OZvFd.s 			page 32


 1768              		@ frame_needed = 0, uses_anonymous_args = 0
 1769 0000 10B5     		push	{r4, lr}
 1770              		.cfi_def_cfa_offset 8
 1771              		.cfi_offset 4, -8
 1772              		.cfi_offset 14, -4
 1773 0002 82B0     		sub	sp, sp, #8
 1774              		.cfi_def_cfa_offset 16
 1775 0004 0190     		str	r0, [sp, #4]
 1776 0006 0091     		str	r1, [sp]
 1777              		.loc 12 227 0
 1778 0008 019B     		ldr	r3, [sp, #4]
 1779 000a 1B68     		ldr	r3, [r3]
 1780 000c 1846     		mov	r0, r3
 1781 000e FFF7FEFF 		bl	_ZNK3r2p10Bootloader12FlashAppInfo8is_validEv
 1782 0012 0346     		mov	r3, r0
 1783 0014 1C46     		mov	r4, r3
 1784 0016 009B     		ldr	r3, [sp]
 1785 0018 1B68     		ldr	r3, [r3]
 1786 001a 1846     		mov	r0, r3
 1787 001c FFF7FEFF 		bl	_ZNK3r2p10Bootloader12FlashAppInfo8is_validEv
 1788 0020 0346     		mov	r3, r0
 1789 0022 9C42     		cmp	r4, r3
 1790 0024 14BF     		ite	ne
 1791 0026 0123     		movne	r3, #1
 1792 0028 0023     		moveq	r3, #0
 1793 002a DBB2     		uxtb	r3, r3
 1794              		.loc 12 228 0
 1795 002c 1846     		mov	r0, r3
 1796 002e 02B0     		add	sp, sp, #8
 1797              		.cfi_def_cfa_offset 8
 1798              		@ sp needed
 1799 0030 10BD     		pop	{r4, pc}
 1800              		.cfi_endproc
 1801              	.LFE207:
 1802              		.size	_ZNK3r2p10Bootloader8IteratorneERKS1_, .-_ZNK3r2p10Bootloader8IteratorneERKS1_
 1803 0032 00BF     		.section	.text._ZN3r2p10Bootloader5allocENS_7BootMsg8TypeEnumE,"axG",%progbits,_ZN3r2p10Bootloader
 1804              		.align	2
 1805              		.weak	_ZN3r2p10Bootloader5allocENS_7BootMsg8TypeEnumE
 1806              		.thumb
 1807              		.thumb_func
 1808              		.type	_ZN3r2p10Bootloader5allocENS_7BootMsg8TypeEnumE, %function
 1809              	_ZN3r2p10Bootloader5allocENS_7BootMsg8TypeEnumE:
 1810              	.LFB208:
 1811              		.loc 12 235 0
 1812              		.cfi_startproc
 1813              		@ args = 0, pretend = 0, frame = 8
 1814              		@ frame_needed = 0, uses_anonymous_args = 0
 1815 0000 00B5     		push	{lr}
 1816              		.cfi_def_cfa_offset 4
 1817              		.cfi_offset 14, -4
 1818 0002 83B0     		sub	sp, sp, #12
 1819              		.cfi_def_cfa_offset 16
 1820 0004 0190     		str	r0, [sp, #4]
 1821 0006 0B46     		mov	r3, r1
 1822 0008 8DF80330 		strb	r3, [sp, #3]
 1823              		.loc 12 237 0
 1824 000c 0198     		ldr	r0, [sp, #4]
ARM GAS  /tmp/cc5OZvFd.s 			page 33


 1825 000e FFF7FEFF 		bl	_ZN3r2p10Bootloader5allocEv
 1826              		.loc 12 238 0
 1827 0012 019B     		ldr	r3, [sp, #4]
 1828 0014 DB69     		ldr	r3, [r3, #28]
 1829 0016 9DF80320 		ldrb	r2, [sp, #3]
 1830 001a 83F82020 		strb	r2, [r3, #32]
 1831              		.loc 12 239 0
 1832 001e 03B0     		add	sp, sp, #12
 1833              		.cfi_def_cfa_offset 4
 1834              		@ sp needed
 1835 0020 5DF804FB 		ldr	pc, [sp], #4
 1836              		.cfi_endproc
 1837              	.LFE208:
 1838              		.size	_ZN3r2p10Bootloader5allocENS_7BootMsg8TypeEnumE, .-_ZN3r2p10Bootloader5allocENS_7BootMsg8Typ
 1839              		.section	.text._ZN3r2p10Bootloader5fetchENS_7BootMsg8TypeEnumE,"axG",%progbits,_ZN3r2p10Bootloader
 1840              		.align	2
 1841              		.weak	_ZN3r2p10Bootloader5fetchENS_7BootMsg8TypeEnumE
 1842              		.thumb
 1843              		.thumb_func
 1844              		.type	_ZN3r2p10Bootloader5fetchENS_7BootMsg8TypeEnumE, %function
 1845              	_ZN3r2p10Bootloader5fetchENS_7BootMsg8TypeEnumE:
 1846              	.LFB209:
 1847              		.loc 12 243 0
 1848              		.cfi_startproc
 1849              		@ args = 0, pretend = 0, frame = 8
 1850              		@ frame_needed = 0, uses_anonymous_args = 0
 1851 0000 00B5     		push	{lr}
 1852              		.cfi_def_cfa_offset 4
 1853              		.cfi_offset 14, -4
 1854 0002 83B0     		sub	sp, sp, #12
 1855              		.cfi_def_cfa_offset 16
 1856 0004 0190     		str	r0, [sp, #4]
 1857 0006 0B46     		mov	r3, r1
 1858 0008 8DF80330 		strb	r3, [sp, #3]
 1859              		.loc 12 245 0
 1860 000c 0198     		ldr	r0, [sp, #4]
 1861 000e FFF7FEFF 		bl	_ZN3r2p10Bootloader5fetchEv
 1862              		.loc 12 246 0
 1863 0012 019B     		ldr	r3, [sp, #4]
 1864 0014 9B69     		ldr	r3, [r3, #24]
 1865 0016 93F82030 		ldrb	r3, [r3, #32]	@ zero_extendqisi2
 1866 001a 9DF80320 		ldrb	r2, [sp, #3]	@ zero_extendqisi2
 1867 001e 9A42     		cmp	r2, r3
 1868 0020 0CBF     		ite	eq
 1869 0022 0123     		moveq	r3, #1
 1870 0024 0023     		movne	r3, #0
 1871 0026 DBB2     		uxtb	r3, r3
 1872              		.loc 12 247 0
 1873 0028 1846     		mov	r0, r3
 1874 002a 03B0     		add	sp, sp, #12
 1875              		.cfi_def_cfa_offset 4
 1876              		@ sp needed
 1877 002c 5DF804FB 		ldr	pc, [sp], #4
 1878              		.cfi_endproc
 1879              	.LFE209:
 1880              		.size	_ZN3r2p10Bootloader5fetchENS_7BootMsg8TypeEnumE, .-_ZN3r2p10Bootloader5fetchENS_7BootMsg8Typ
 1881              		.section	.text._ZN3r2p10Bootloader11begin_writeEv,"axG",%progbits,_ZN3r2p10Bootloader11begin_write
ARM GAS  /tmp/cc5OZvFd.s 			page 34


 1882              		.align	2
 1883              		.weak	_ZN3r2p10Bootloader11begin_writeEv
 1884              		.thumb
 1885              		.thumb_func
 1886              		.type	_ZN3r2p10Bootloader11begin_writeEv, %function
 1887              	_ZN3r2p10Bootloader11begin_writeEv:
 1888              	.LFB210:
 1889              		.loc 12 251 0
 1890              		.cfi_startproc
 1891              		@ args = 0, pretend = 0, frame = 8
 1892              		@ frame_needed = 0, uses_anonymous_args = 0
 1893 0000 00B5     		push	{lr}
 1894              		.cfi_def_cfa_offset 4
 1895              		.cfi_offset 14, -4
 1896 0002 83B0     		sub	sp, sp, #12
 1897              		.cfi_def_cfa_offset 16
 1898 0004 0190     		str	r0, [sp, #4]
 1899              		.loc 12 253 0
 1900 0006 019B     		ldr	r3, [sp, #4]
 1901 0008 0433     		adds	r3, r3, #4
 1902 000a 1846     		mov	r0, r3
 1903 000c FFF7FEFF 		bl	_ZN3r2p7Flasher5beginEv
 1904              		.loc 12 254 0
 1905 0010 03B0     		add	sp, sp, #12
 1906              		.cfi_def_cfa_offset 4
 1907              		@ sp needed
 1908 0012 5DF804FB 		ldr	pc, [sp], #4
 1909              		.cfi_endproc
 1910              	.LFE210:
 1911              		.size	_ZN3r2p10Bootloader11begin_writeEv, .-_ZN3r2p10Bootloader11begin_writeEv
 1912 0016 00BF     		.section	.rodata
 1913              		.align	2
 1914              	.LC0:
 1915 0000 5232505F 		.ascii	"R2P_ASSERT()\000"
 1915      41535345 
 1915      52542829 
 1915      00
 1916              		.section	.text._ZN3r2p10Bootloader9end_writeEv,"axG",%progbits,_ZN3r2p10Bootloader9end_writeEv,com
 1917              		.align	2
 1918              		.weak	_ZN3r2p10Bootloader9end_writeEv
 1919              		.thumb
 1920              		.thumb_func
 1921              		.type	_ZN3r2p10Bootloader9end_writeEv, %function
 1922              	_ZN3r2p10Bootloader9end_writeEv:
 1923              	.LFB211:
 1924              		.loc 12 258 0
 1925              		.cfi_startproc
 1926              		@ args = 0, pretend = 0, frame = 16
 1927              		@ frame_needed = 0, uses_anonymous_args = 0
 1928 0000 00B5     		push	{lr}
 1929              		.cfi_def_cfa_offset 4
 1930              		.cfi_offset 14, -4
 1931 0002 85B0     		sub	sp, sp, #20
 1932              		.cfi_def_cfa_offset 24
 1933 0004 0190     		str	r0, [sp, #4]
 1934              	.LBB25:
 1935              		.loc 12 261 0
ARM GAS  /tmp/cc5OZvFd.s 			page 35


 1936 0006 019B     		ldr	r3, [sp, #4]
 1937 0008 0433     		adds	r3, r3, #4
 1938 000a 1846     		mov	r0, r3
 1939 000c FFF7FEFF 		bl	_ZN3r2p7Flasher3endEv
 1940 0010 0346     		mov	r3, r0
 1941 0012 8DF80F30 		strb	r3, [sp, #15]
 1942              		.loc 12 262 0
 1943 0016 9DF80F30 		ldrb	r3, [sp, #15]
 1944 001a 83F00103 		eor	r3, r3, #1
 1945 001e DBB2     		uxtb	r3, r3
 1946 0020 002B     		cmp	r3, #0
 1947 0022 02D0     		beq	.L129
 1948              		.loc 12 262 0 is_stmt 0 discriminator 1
 1949 0024 0248     		ldr	r0, .L131
 1950 0026 FFF7FEFF 		bl	chDbgPanic
 1951              	.L129:
 1952              	.LBE25:
 1953              		.loc 12 263 0 is_stmt 1
 1954 002a 05B0     		add	sp, sp, #20
 1955              		.cfi_def_cfa_offset 4
 1956              		@ sp needed
 1957 002c 5DF804FB 		ldr	pc, [sp], #4
 1958              	.L132:
 1959              		.align	2
 1960              	.L131:
 1961 0030 00000000 		.word	.LC0
 1962              		.cfi_endproc
 1963              	.LFE211:
 1964              		.size	_ZN3r2p10Bootloader9end_writeEv, .-_ZN3r2p10Bootloader9end_writeEv
 1965              		.section	.text._ZN3r2p10Bootloader5writeEPKvS2_j,"axG",%progbits,_ZN3r2p10Bootloader5writeEPKvS2_j
 1966              		.align	2
 1967              		.weak	_ZN3r2p10Bootloader5writeEPKvS2_j
 1968              		.thumb
 1969              		.thumb_func
 1970              		.type	_ZN3r2p10Bootloader5writeEPKvS2_j, %function
 1971              	_ZN3r2p10Bootloader5writeEPKvS2_j:
 1972              	.LFB212:
 1973              		.loc 12 267 0
 1974              		.cfi_startproc
 1975              		@ args = 0, pretend = 0, frame = 16
 1976              		@ frame_needed = 0, uses_anonymous_args = 0
 1977 0000 00B5     		push	{lr}
 1978              		.cfi_def_cfa_offset 4
 1979              		.cfi_offset 14, -4
 1980 0002 85B0     		sub	sp, sp, #20
 1981              		.cfi_def_cfa_offset 24
 1982 0004 0390     		str	r0, [sp, #12]
 1983 0006 0291     		str	r1, [sp, #8]
 1984 0008 0192     		str	r2, [sp, #4]
 1985 000a 0093     		str	r3, [sp]
 1986              		.loc 12 270 0
 1987 000c 039B     		ldr	r3, [sp, #12]
 1988 000e 0433     		adds	r3, r3, #4
 1989 0010 1846     		mov	r0, r3
 1990 0012 0299     		ldr	r1, [sp, #8]
 1991 0014 019A     		ldr	r2, [sp, #4]
 1992 0016 009B     		ldr	r3, [sp]
ARM GAS  /tmp/cc5OZvFd.s 			page 36


 1993 0018 FFF7FEFF 		bl	_ZN3r2p7Flasher5flashEPKhS2_j
 1994 001c 0346     		mov	r3, r0
 1995              		.loc 12 271 0
 1996 001e 1846     		mov	r0, r3
 1997 0020 05B0     		add	sp, sp, #20
 1998              		.cfi_def_cfa_offset 4
 1999              		@ sp needed
 2000 0022 5DF804FB 		ldr	pc, [sp], #4
 2001              		.cfi_endproc
 2002              	.LFE212:
 2003              		.size	_ZN3r2p10Bootloader5writeEPKvS2_j, .-_ZN3r2p10Bootloader5writeEPKvS2_j
 2004 0026 00BF     		.section	.text._ZN3r2p10Bootloader5beginEv,"axG",%progbits,_ZN3r2p10Bootloader5beginEv,comdat
 2005              		.align	2
 2006              		.weak	_ZN3r2p10Bootloader5beginEv
 2007              		.thumb
 2008              		.thumb_func
 2009              		.type	_ZN3r2p10Bootloader5beginEv, %function
 2010              	_ZN3r2p10Bootloader5beginEv:
 2011              	.LFB213:
 2012              		.loc 12 275 0
 2013              		.cfi_startproc
 2014              		@ args = 0, pretend = 0, frame = 8
 2015              		@ frame_needed = 0, uses_anonymous_args = 0
 2016 0000 00B5     		push	{lr}
 2017              		.cfi_def_cfa_offset 4
 2018              		.cfi_offset 14, -4
 2019 0002 83B0     		sub	sp, sp, #12
 2020              		.cfi_def_cfa_offset 16
 2021 0004 0190     		str	r0, [sp, #4]
 2022              		.loc 12 278 0
 2023 0006 FFF7FEFF 		bl	_ZN3r2p7Flasher17get_program_startEv
 2024 000a 0346     		mov	r3, r0
 2025              		.loc 12 279 0
 2026 000c 0198     		ldr	r0, [sp, #4]
 2027 000e 1946     		mov	r1, r3
 2028 0010 FFF7FEFF 		bl	_ZN3r2p10Bootloader8IteratorC1EPKNS0_12FlashAppInfoE
 2029              		.loc 12 280 0
 2030 0014 0198     		ldr	r0, [sp, #4]
 2031 0016 03B0     		add	sp, sp, #12
 2032              		.cfi_def_cfa_offset 4
 2033              		@ sp needed
 2034 0018 5DF804FB 		ldr	pc, [sp], #4
 2035              		.cfi_endproc
 2036              	.LFE213:
 2037              		.size	_ZN3r2p10Bootloader5beginEv, .-_ZN3r2p10Bootloader5beginEv
 2038              		.section	.text._ZN3r2p10Bootloader3endEv,"axG",%progbits,_ZN3r2p10Bootloader3endEv,comdat
 2039              		.align	2
 2040              		.weak	_ZN3r2p10Bootloader3endEv
 2041              		.thumb
 2042              		.thumb_func
 2043              		.type	_ZN3r2p10Bootloader3endEv, %function
 2044              	_ZN3r2p10Bootloader3endEv:
 2045              	.LFB214:
 2046              		.loc 12 284 0
 2047              		.cfi_startproc
 2048              		@ args = 0, pretend = 0, frame = 8
 2049              		@ frame_needed = 0, uses_anonymous_args = 0
ARM GAS  /tmp/cc5OZvFd.s 			page 37


 2050 0000 00B5     		push	{lr}
 2051              		.cfi_def_cfa_offset 4
 2052              		.cfi_offset 14, -4
 2053 0002 83B0     		sub	sp, sp, #12
 2054              		.cfi_def_cfa_offset 16
 2055 0004 0190     		str	r0, [sp, #4]
 2056              		.loc 12 288 0
 2057 0006 0198     		ldr	r0, [sp, #4]
 2058 0008 0349     		ldr	r1, .L139
 2059 000a FFF7FEFF 		bl	_ZN3r2p10Bootloader8IteratorC1EPKNS0_12FlashAppInfoE
 2060              		.loc 12 289 0
 2061 000e 0198     		ldr	r0, [sp, #4]
 2062 0010 03B0     		add	sp, sp, #12
 2063              		.cfi_def_cfa_offset 4
 2064              		@ sp needed
 2065 0012 5DF804FB 		ldr	pc, [sp], #4
 2066              	.L140:
 2067 0016 00BF     		.align	2
 2068              	.L139:
 2069 0018 00000000 		.word	_ZN3r2p10Bootloader20an_invalid_signatureE
 2070              		.cfi_endproc
 2071              	.LFE214:
 2072              		.size	_ZN3r2p10Bootloader3endEv, .-_ZN3r2p10Bootloader3endEv
 2073              		.section	.text._ZN3r2p10Bootloader16get_free_addressEv,"axG",%progbits,_ZN3r2p10Bootloader16get_fr
 2074              		.align	2
 2075              		.weak	_ZN3r2p10Bootloader16get_free_addressEv
 2076              		.thumb
 2077              		.thumb_func
 2078              		.type	_ZN3r2p10Bootloader16get_free_addressEv, %function
 2079              	_ZN3r2p10Bootloader16get_free_addressEv:
 2080              	.LFB215:
 2081              		.loc 12 293 0
 2082              		.cfi_startproc
 2083              		@ args = 0, pretend = 0, frame = 0
 2084              		@ frame_needed = 0, uses_anonymous_args = 0
 2085 0000 08B5     		push	{r3, lr}
 2086              		.cfi_def_cfa_offset 8
 2087              		.cfi_offset 3, -8
 2088              		.cfi_offset 14, -4
 2089              		.loc 12 295 0
 2090 0002 FFF7FEFF 		bl	_ZN3r2p10Bootloader12get_free_appEv
 2091 0006 0346     		mov	r3, r0
 2092              		.loc 12 296 0
 2093 0008 1846     		mov	r0, r3
 2094 000a 08BD     		pop	{r3, pc}
 2095              		.cfi_endproc
 2096              	.LFE215:
 2097              		.size	_ZN3r2p10Bootloader16get_free_addressEv, .-_ZN3r2p10Bootloader16get_free_addressEv
 2098              		.section	.text._ZN3r2p5Topic12alloc_unsafeEv,"axG",%progbits,_ZN3r2p5Topic12alloc_unsafeEv,comdat
 2099              		.align	2
 2100              		.weak	_ZN3r2p5Topic12alloc_unsafeEv
 2101              		.thumb
 2102              		.thumb_func
 2103              		.type	_ZN3r2p5Topic12alloc_unsafeEv, %function
 2104              	_ZN3r2p5Topic12alloc_unsafeEv:
 2105              	.LFB373:
 2106              		.file 13 "/opt/R2P/core/Middleware/include/r2p/Topic.hpp"
ARM GAS  /tmp/cc5OZvFd.s 			page 38


 2107              		.loc 13 250 0
 2108              		.cfi_startproc
 2109              		@ args = 0, pretend = 0, frame = 8
 2110              		@ frame_needed = 0, uses_anonymous_args = 0
 2111 0000 10B5     		push	{r4, lr}
 2112              		.cfi_def_cfa_offset 8
 2113              		.cfi_offset 4, -8
 2114              		.cfi_offset 14, -4
 2115 0002 82B0     		sub	sp, sp, #8
 2116              		.cfi_def_cfa_offset 16
 2117 0004 0190     		str	r0, [sp, #4]
 2118              	.LBB26:
 2119              		.loc 13 252 0
 2120 0006 019B     		ldr	r3, [sp, #4]
 2121 0008 0833     		adds	r3, r3, #8
 2122 000a 1846     		mov	r0, r3
 2123 000c FFF7FEFF 		bl	_ZN3r2p11MemoryPool_12alloc_unsafeEv
 2124 0010 0446     		mov	r4, r0
 2125              		.loc 13 253 0
 2126 0012 002C     		cmp	r4, #0
 2127 0014 04D0     		beq	.L144
 2128              		.loc 13 254 0
 2129 0016 2046     		mov	r0, r4
 2130 0018 FFF7FEFF 		bl	_ZN3r2p7Message12reset_unsafeEv
 2131              		.loc 13 255 0
 2132 001c 2346     		mov	r3, r4
 2133 001e 00E0     		b	.L145
 2134              	.L144:
 2135              		.loc 13 257 0
 2136 0020 0023     		movs	r3, #0
 2137              	.L145:
 2138              	.LBE26:
 2139              		.loc 13 258 0
 2140 0022 1846     		mov	r0, r3
 2141 0024 02B0     		add	sp, sp, #8
 2142              		.cfi_def_cfa_offset 8
 2143              		@ sp needed
 2144 0026 10BD     		pop	{r4, pc}
 2145              		.cfi_endproc
 2146              	.LFE373:
 2147              		.size	_ZN3r2p5Topic12alloc_unsafeEv, .-_ZN3r2p5Topic12alloc_unsafeEv
 2148              		.section	.text._ZN3r2p13BasePublisher12alloc_unsafeERPNS_7MessageE,"axG",%progbits,_ZN3r2p13BasePu
 2149              		.align	2
 2150              		.weak	_ZN3r2p13BasePublisher12alloc_unsafeERPNS_7MessageE
 2151              		.thumb
 2152              		.thumb_func
 2153              		.type	_ZN3r2p13BasePublisher12alloc_unsafeERPNS_7MessageE, %function
 2154              	_ZN3r2p13BasePublisher12alloc_unsafeERPNS_7MessageE:
 2155              	.LFB398:
 2156              		.file 14 "/opt/R2P/core/Middleware/include/r2p/BasePublisher.hpp"
 2157              		.loc 14 64 0
 2158              		.cfi_startproc
 2159              		@ args = 0, pretend = 0, frame = 8
 2160              		@ frame_needed = 0, uses_anonymous_args = 0
 2161 0000 00B5     		push	{lr}
 2162              		.cfi_def_cfa_offset 4
 2163              		.cfi_offset 14, -4
ARM GAS  /tmp/cc5OZvFd.s 			page 39


 2164 0002 83B0     		sub	sp, sp, #12
 2165              		.cfi_def_cfa_offset 16
 2166 0004 0190     		str	r0, [sp, #4]
 2167 0006 0091     		str	r1, [sp]
 2168              		.loc 14 66 0
 2169 0008 019B     		ldr	r3, [sp, #4]
 2170 000a 5B68     		ldr	r3, [r3, #4]
 2171 000c 002B     		cmp	r3, #0
 2172 000e 02D1     		bne	.L147
 2173              		.loc 14 66 0 is_stmt 0 discriminator 1
 2174 0010 0A48     		ldr	r0, .L149
 2175 0012 FFF7FEFF 		bl	chDbgPanic
 2176              	.L147:
 2177              		.loc 14 68 0 is_stmt 1
 2178 0016 019B     		ldr	r3, [sp, #4]
 2179 0018 5B68     		ldr	r3, [r3, #4]
 2180 001a 1846     		mov	r0, r3
 2181 001c FFF7FEFF 		bl	_ZN3r2p5Topic12alloc_unsafeEv
 2182 0020 0246     		mov	r2, r0
 2183 0022 009B     		ldr	r3, [sp]
 2184 0024 1A60     		str	r2, [r3]
 2185              		.loc 14 69 0
 2186 0026 009B     		ldr	r3, [sp]
 2187 0028 1B68     		ldr	r3, [r3]
 2188 002a 002B     		cmp	r3, #0
 2189 002c 14BF     		ite	ne
 2190 002e 0123     		movne	r3, #1
 2191 0030 0023     		moveq	r3, #0
 2192 0032 DBB2     		uxtb	r3, r3
 2193              		.loc 14 70 0
 2194 0034 1846     		mov	r0, r3
 2195 0036 03B0     		add	sp, sp, #12
 2196              		.cfi_def_cfa_offset 4
 2197              		@ sp needed
 2198 0038 5DF804FB 		ldr	pc, [sp], #4
 2199              	.L150:
 2200              		.align	2
 2201              	.L149:
 2202 003c 00000000 		.word	.LC0
 2203              		.cfi_endproc
 2204              	.LFE398:
 2205              		.size	_ZN3r2p13BasePublisher12alloc_unsafeERPNS_7MessageE, .-_ZN3r2p13BasePublisher12alloc_unsafeE
 2206              		.section	.text._ZN3r2p13BasePublisher5allocERPNS_7MessageE,"axG",%progbits,_ZN3r2p13BasePublisher5
 2207              		.align	2
 2208              		.weak	_ZN3r2p13BasePublisher5allocERPNS_7MessageE
 2209              		.thumb
 2210              		.thumb_func
 2211              		.type	_ZN3r2p13BasePublisher5allocERPNS_7MessageE, %function
 2212              	_ZN3r2p13BasePublisher5allocERPNS_7MessageE:
 2213              	.LFB399:
 2214              		.loc 14 74 0
 2215              		.cfi_startproc
 2216              		@ args = 0, pretend = 0, frame = 16
 2217              		@ frame_needed = 0, uses_anonymous_args = 0
 2218 0000 00B5     		push	{lr}
 2219              		.cfi_def_cfa_offset 4
 2220              		.cfi_offset 14, -4
ARM GAS  /tmp/cc5OZvFd.s 			page 40


 2221 0002 85B0     		sub	sp, sp, #20
 2222              		.cfi_def_cfa_offset 24
 2223 0004 0190     		str	r0, [sp, #4]
 2224 0006 0091     		str	r1, [sp]
 2225              	.LBB27:
 2226              		.loc 14 76 0
 2227 0008 FFF7FEFF 		bl	_ZN3r2p7SysLock7acquireEv
 2228              		.loc 14 77 0
 2229 000c 0198     		ldr	r0, [sp, #4]
 2230 000e 0099     		ldr	r1, [sp]
 2231 0010 FFF7FEFF 		bl	_ZN3r2p13BasePublisher12alloc_unsafeERPNS_7MessageE
 2232 0014 0346     		mov	r3, r0
 2233 0016 8DF80F30 		strb	r3, [sp, #15]
 2234              		.loc 14 78 0
 2235 001a FFF7FEFF 		bl	_ZN3r2p7SysLock7releaseEv
 2236              		.loc 14 79 0
 2237 001e 9DF80F30 		ldrb	r3, [sp, #15]	@ zero_extendqisi2
 2238              	.LBE27:
 2239              		.loc 14 80 0
 2240 0022 1846     		mov	r0, r3
 2241 0024 05B0     		add	sp, sp, #20
 2242              		.cfi_def_cfa_offset 4
 2243              		@ sp needed
 2244 0026 5DF804FB 		ldr	pc, [sp], #4
 2245              		.cfi_endproc
 2246              	.LFE399:
 2247              		.size	_ZN3r2p13BasePublisher5allocERPNS_7MessageE, .-_ZN3r2p13BasePublisher5allocERPNS_7MessageE
 2248 002a 00BF     		.section	.text._ZN3r2p13BasePublisher16publish_remotelyERNS_7MessageE,"axG",%progbits,_ZN3r2p13Bas
 2249              		.align	2
 2250              		.weak	_ZN3r2p13BasePublisher16publish_remotelyERNS_7MessageE
 2251              		.thumb
 2252              		.thumb_func
 2253              		.type	_ZN3r2p13BasePublisher16publish_remotelyERNS_7MessageE, %function
 2254              	_ZN3r2p13BasePublisher16publish_remotelyERNS_7MessageE:
 2255              	.LFB401:
 2256              		.loc 14 93 0
 2257              		.cfi_startproc
 2258              		@ args = 0, pretend = 0, frame = 16
 2259              		@ frame_needed = 0, uses_anonymous_args = 0
 2260 0000 10B5     		push	{r4, lr}
 2261              		.cfi_def_cfa_offset 8
 2262              		.cfi_offset 4, -8
 2263              		.cfi_offset 14, -4
 2264 0002 84B0     		sub	sp, sp, #16
 2265              		.cfi_def_cfa_offset 24
 2266 0004 0190     		str	r0, [sp, #4]
 2267 0006 0091     		str	r1, [sp]
 2268              		.loc 14 95 0
 2269 0008 019B     		ldr	r3, [sp, #4]
 2270 000a 5B68     		ldr	r3, [r3, #4]
 2271 000c 002B     		cmp	r3, #0
 2272 000e 02D1     		bne	.L154
 2273              		.loc 14 95 0 is_stmt 0 discriminator 1
 2274 0010 0948     		ldr	r0, .L156
 2275 0012 FFF7FEFF 		bl	chDbgPanic
 2276              	.L154:
 2277              		.loc 14 97 0 is_stmt 1
ARM GAS  /tmp/cc5OZvFd.s 			page 41


 2278 0016 019B     		ldr	r3, [sp, #4]
 2279 0018 5C68     		ldr	r4, [r3, #4]
 2280 001a 03AB     		add	r3, sp, #12
 2281 001c 1846     		mov	r0, r3
 2282 001e FFF7FEFF 		bl	_ZN3r2p4Time3nowEv
 2283 0022 03AB     		add	r3, sp, #12
 2284 0024 2046     		mov	r0, r4
 2285 0026 0099     		ldr	r1, [sp]
 2286 0028 1A46     		mov	r2, r3
 2287 002a FFF7FEFF 		bl	_ZN3r2p5Topic14notify_remotesERNS_7MessageERKNS_4TimeE
 2288 002e 0346     		mov	r3, r0
 2289              		.loc 14 98 0
 2290 0030 1846     		mov	r0, r3
 2291 0032 04B0     		add	sp, sp, #16
 2292              		.cfi_def_cfa_offset 8
 2293              		@ sp needed
 2294 0034 10BD     		pop	{r4, pc}
 2295              	.L157:
 2296 0036 00BF     		.align	2
 2297              	.L156:
 2298 0038 00000000 		.word	.LC0
 2299              		.cfi_endproc
 2300              	.LFE401:
 2301              		.size	_ZN3r2p13BasePublisher16publish_remotelyERNS_7MessageE, .-_ZN3r2p13BasePublisher16publish_re
 2302              		.global	_ZN3r2p10Bootloader20an_invalid_signatureE
 2303              		.section	.rodata
 2304 000d 000000   		.align	2
 2305              		.type	_ZN3r2p10Bootloader20an_invalid_signatureE, %object
 2306              		.size	_ZN3r2p10Bootloader20an_invalid_signatureE, 4
 2307              	_ZN3r2p10Bootloader20an_invalid_signatureE:
 2308 0010 96A5D3E2 		.word	-489445994
 2309              		.align	2
 2310              	.LC1:
 2311 0014 00       		.ascii	"\000"
 2312 0015 000000   		.text
 2313              		.align	2
 2314              		.global	_ZN3r2p10Bootloader9spin_loopEv
 2315              		.thumb
 2316              		.thumb_func
 2317              		.type	_ZN3r2p10Bootloader9spin_loopEv, %function
 2318              	_ZN3r2p10Bootloader9spin_loopEv:
 2319              	.LFB408:
 2320              		.file 15 "/opt/R2P/core/Middleware/src/Bootloader.cpp"
 2321              		.loc 15 15 0
 2322              		.cfi_startproc
 2323              		@ args = 0, pretend = 0, frame = 8
 2324              		@ frame_needed = 0, uses_anonymous_args = 0
 2325 0000 00B5     		push	{lr}
 2326              		.cfi_def_cfa_offset 4
 2327              		.cfi_offset 14, -4
 2328 0002 83B0     		sub	sp, sp, #12
 2329              		.cfi_def_cfa_offset 16
 2330 0004 0190     		str	r0, [sp, #4]
 2331              	.L166:
 2332              		.loc 15 18 0
 2333 0006 0198     		ldr	r0, [sp, #4]
 2334 0008 FFF7FEFF 		bl	_ZN3r2p10Bootloader5fetchEv
ARM GAS  /tmp/cc5OZvFd.s 			page 42


 2335              		.loc 15 19 0
 2336 000c 019B     		ldr	r3, [sp, #4]
 2337 000e 9B69     		ldr	r3, [r3, #24]
 2338 0010 93F82030 		ldrb	r3, [r3, #32]	@ zero_extendqisi2
 2339 0014 023B     		subs	r3, r3, #2
 2340 0016 0D2B     		cmp	r3, #13
 2341 0018 46D8     		bhi	.L159
 2342 001a 01A2     		adr	r2, .L161
 2343 001c 52F823F0 		ldr	pc, [r2, r3, lsl #2]
 2344              		.p2align 2
 2345              	.L161:
 2346 0020 59000000 		.word	.L160+1
 2347 0024 A9000000 		.word	.L159+1
 2348 0028 A9000000 		.word	.L159+1
 2349 002c A9000000 		.word	.L159+1
 2350 0030 A9000000 		.word	.L159+1
 2351 0034 A9000000 		.word	.L159+1
 2352 0038 A9000000 		.word	.L159+1
 2353 003c A9000000 		.word	.L159+1
 2354 0040 73000000 		.word	.L162+1
 2355 0044 A9000000 		.word	.L159+1
 2356 0048 A9000000 		.word	.L159+1
 2357 004c 8F000000 		.word	.L163+1
 2358 0050 A9000000 		.word	.L159+1
 2359 0054 81000000 		.word	.L164+1
 2360              		.p2align 1
 2361              	.L160:
 2362              		.loc 15 21 0
 2363 0058 0198     		ldr	r0, [sp, #4]
 2364 005a FFF7FEFF 		bl	_ZN3r2p10Bootloader7releaseEv
 2365              		.loc 15 22 0
 2366 005e 0198     		ldr	r0, [sp, #4]
 2367 0060 FFF7FEFF 		bl	_ZN3r2p10Bootloader11begin_writeEv
 2368              		.loc 15 23 0
 2369 0064 0198     		ldr	r0, [sp, #4]
 2370 0066 FFF7FEFF 		bl	_ZN3r2p10Bootloader9do_loaderEv
 2371              		.loc 15 24 0
 2372 006a 0198     		ldr	r0, [sp, #4]
 2373 006c FFF7FEFF 		bl	_ZN3r2p10Bootloader9end_writeEv
 2374              		.loc 15 25 0
 2375 0070 20E0     		b	.L165
 2376              	.L162:
 2377              		.loc 15 28 0
 2378 0072 0198     		ldr	r0, [sp, #4]
 2379 0074 FFF7FEFF 		bl	_ZN3r2p10Bootloader7releaseEv
 2380              		.loc 15 29 0
 2381 0078 0198     		ldr	r0, [sp, #4]
 2382 007a FFF7FEFF 		bl	_ZN3r2p10Bootloader10do_appinfoEv
 2383              		.loc 15 30 0
 2384 007e 19E0     		b	.L165
 2385              	.L164:
 2386              		.loc 15 33 0
 2387 0080 0198     		ldr	r0, [sp, #4]
 2388 0082 FFF7FEFF 		bl	_ZN3r2p10Bootloader7releaseEv
 2389              		.loc 15 34 0
 2390 0086 0198     		ldr	r0, [sp, #4]
 2391 0088 FFF7FEFF 		bl	_ZN3r2p10Bootloader11do_getparamEv
ARM GAS  /tmp/cc5OZvFd.s 			page 43


 2392              		.loc 15 35 0
 2393 008c 12E0     		b	.L165
 2394              	.L163:
 2395              		.loc 15 38 0
 2396 008e 0198     		ldr	r0, [sp, #4]
 2397 0090 FFF7FEFF 		bl	_ZN3r2p10Bootloader7releaseEv
 2398              		.loc 15 39 0
 2399 0094 0198     		ldr	r0, [sp, #4]
 2400 0096 FFF7FEFF 		bl	_ZN3r2p10Bootloader11begin_writeEv
 2401              		.loc 15 40 0
 2402 009a 0198     		ldr	r0, [sp, #4]
 2403 009c FFF7FEFF 		bl	_ZN3r2p10Bootloader11do_setparamEv
 2404              		.loc 15 41 0
 2405 00a0 0198     		ldr	r0, [sp, #4]
 2406 00a2 FFF7FEFF 		bl	_ZN3r2p10Bootloader9end_writeEv
 2407              		.loc 15 42 0
 2408 00a6 05E0     		b	.L165
 2409              	.L159:
 2410              		.loc 15 45 0
 2411 00a8 0198     		ldr	r0, [sp, #4]
 2412 00aa 2D21     		movs	r1, #45
 2413 00ac 024A     		ldr	r2, .L167
 2414 00ae FFF7FEFF 		bl	_ZN3r2p10Bootloader16do_release_errorEmPKc
 2415              		.loc 15 46 0
 2416 00b2 00BF     		nop
 2417              	.L165:
 2418              		.loc 15 15 0
 2419 00b4 A7E7     		b	.L166
 2420              	.L168:
 2421 00b6 00BF     		.align	2
 2422              	.L167:
 2423 00b8 14000000 		.word	.LC1
 2424              		.cfi_endproc
 2425              	.LFE408:
 2426              		.size	_ZN3r2p10Bootloader9spin_loopEv, .-_ZN3r2p10Bootloader9spin_loopEv
 2427              		.align	2
 2428              		.global	_ZN3r2p10Bootloader5allocEv
 2429              		.thumb
 2430              		.thumb_func
 2431              		.type	_ZN3r2p10Bootloader5allocEv, %function
 2432              	_ZN3r2p10Bootloader5allocEv:
 2433              	.LFB409:
 2434              		.loc 15 53 0
 2435              		.cfi_startproc
 2436              		@ args = 0, pretend = 0, frame = 16
 2437              		@ frame_needed = 0, uses_anonymous_args = 0
 2438 00bc 00B5     		push	{lr}
 2439              		.cfi_def_cfa_offset 4
 2440              		.cfi_offset 14, -4
 2441 00be 85B0     		sub	sp, sp, #20
 2442              		.cfi_def_cfa_offset 24
 2443 00c0 0190     		str	r0, [sp, #4]
 2444              		.loc 15 55 0
 2445 00c2 019B     		ldr	r3, [sp, #4]
 2446 00c4 1B69     		ldr	r3, [r3, #16]
 2447 00c6 002B     		cmp	r3, #0
 2448 00c8 02D1     		bne	.L170
ARM GAS  /tmp/cc5OZvFd.s 			page 44


 2449              		.loc 15 55 0 is_stmt 0 discriminator 1
 2450 00ca 1548     		ldr	r0, .L174
 2451 00cc FFF7FEFF 		bl	chDbgPanic
 2452              	.L170:
 2453              		.loc 15 56 0 is_stmt 1
 2454 00d0 019B     		ldr	r3, [sp, #4]
 2455 00d2 DB69     		ldr	r3, [r3, #28]
 2456 00d4 002B     		cmp	r3, #0
 2457 00d6 02D0     		beq	.L171
 2458              		.loc 15 56 0 is_stmt 0 discriminator 1
 2459 00d8 1148     		ldr	r0, .L174
 2460 00da FFF7FEFF 		bl	chDbgPanic
 2461              	.L171:
 2462              		.loc 15 58 0 is_stmt 1
 2463 00de 08E0     		b	.L172
 2464              	.L173:
 2465              		.loc 15 59 0
 2466 00e0 03AB     		add	r3, sp, #12
 2467 00e2 1846     		mov	r0, r3
 2468 00e4 0A21     		movs	r1, #10
 2469 00e6 FFF7FEFF 		bl	_ZN3r2p4Time2msEl
 2470 00ea 03AB     		add	r3, sp, #12
 2471 00ec 1846     		mov	r0, r3
 2472 00ee FFF7FEFF 		bl	_ZN3r2p6Thread5sleepERKNS_4TimeE
 2473              	.L172:
 2474              		.loc 15 58 0
 2475 00f2 019B     		ldr	r3, [sp, #4]
 2476 00f4 1A69     		ldr	r2, [r3, #16]
 2477 00f6 019B     		ldr	r3, [sp, #4]
 2478 00f8 1C33     		adds	r3, r3, #28
 2479 00fa 1046     		mov	r0, r2
 2480 00fc 1946     		mov	r1, r3
 2481 00fe FFF7FEFF 		bl	_ZN3r2p9PublisherINS_7BootMsgEE5allocERPS1_
 2482 0102 0346     		mov	r3, r0
 2483 0104 83F00103 		eor	r3, r3, #1
 2484 0108 DBB2     		uxtb	r3, r3
 2485 010a 002B     		cmp	r3, #0
 2486 010c E8D1     		bne	.L173
 2487              		.loc 15 61 0
 2488 010e 019B     		ldr	r3, [sp, #4]
 2489 0110 DB69     		ldr	r3, [r3, #28]
 2490 0112 1846     		mov	r0, r3
 2491 0114 FFF7FEFF 		bl	_ZN3r2p7Message13reset_payloadINS_7BootMsgEEEvRT_
 2492              		.loc 15 62 0
 2493 0118 05B0     		add	sp, sp, #20
 2494              		.cfi_def_cfa_offset 4
 2495              		@ sp needed
 2496 011a 5DF804FB 		ldr	pc, [sp], #4
 2497              	.L175:
 2498 011e 00BF     		.align	2
 2499              	.L174:
 2500 0120 00000000 		.word	.LC0
 2501              		.cfi_endproc
 2502              	.LFE409:
 2503              		.size	_ZN3r2p10Bootloader5allocEv, .-_ZN3r2p10Bootloader5allocEv
 2504              		.align	2
 2505              		.global	_ZN3r2p10Bootloader7publishEv
ARM GAS  /tmp/cc5OZvFd.s 			page 45


 2506              		.thumb
 2507              		.thumb_func
 2508              		.type	_ZN3r2p10Bootloader7publishEv, %function
 2509              	_ZN3r2p10Bootloader7publishEv:
 2510              	.LFB410:
 2511              		.loc 15 65 0
 2512              		.cfi_startproc
 2513              		@ args = 0, pretend = 0, frame = 16
 2514              		@ frame_needed = 0, uses_anonymous_args = 0
 2515 0124 00B5     		push	{lr}
 2516              		.cfi_def_cfa_offset 4
 2517              		.cfi_offset 14, -4
 2518 0126 85B0     		sub	sp, sp, #20
 2519              		.cfi_def_cfa_offset 24
 2520 0128 0190     		str	r0, [sp, #4]
 2521              		.loc 15 67 0
 2522 012a 019B     		ldr	r3, [sp, #4]
 2523 012c 1B69     		ldr	r3, [r3, #16]
 2524 012e 002B     		cmp	r3, #0
 2525 0130 02D1     		bne	.L177
 2526              		.loc 15 67 0 is_stmt 0 discriminator 1
 2527 0132 1448     		ldr	r0, .L181
 2528 0134 FFF7FEFF 		bl	chDbgPanic
 2529              	.L177:
 2530              		.loc 15 68 0 is_stmt 1
 2531 0138 019B     		ldr	r3, [sp, #4]
 2532 013a DB69     		ldr	r3, [r3, #28]
 2533 013c 002B     		cmp	r3, #0
 2534 013e 02D1     		bne	.L178
 2535              		.loc 15 68 0 is_stmt 0 discriminator 1
 2536 0140 1048     		ldr	r0, .L181
 2537 0142 FFF7FEFF 		bl	chDbgPanic
 2538              	.L178:
 2539              		.loc 15 70 0 is_stmt 1
 2540 0146 08E0     		b	.L179
 2541              	.L180:
 2542              		.loc 15 71 0
 2543 0148 03AB     		add	r3, sp, #12
 2544 014a 1846     		mov	r0, r3
 2545 014c 0A21     		movs	r1, #10
 2546 014e FFF7FEFF 		bl	_ZN3r2p4Time2msEl
 2547 0152 03AB     		add	r3, sp, #12
 2548 0154 1846     		mov	r0, r3
 2549 0156 FFF7FEFF 		bl	_ZN3r2p6Thread5sleepERKNS_4TimeE
 2550              	.L179:
 2551              		.loc 15 70 0
 2552 015a 019B     		ldr	r3, [sp, #4]
 2553 015c 1B69     		ldr	r3, [r3, #16]
 2554 015e 1A46     		mov	r2, r3
 2555 0160 019B     		ldr	r3, [sp, #4]
 2556 0162 DB69     		ldr	r3, [r3, #28]
 2557 0164 1046     		mov	r0, r2
 2558 0166 1946     		mov	r1, r3
 2559 0168 FFF7FEFF 		bl	_ZN3r2p13BasePublisher16publish_remotelyERNS_7MessageE
 2560 016c 0346     		mov	r3, r0
 2561 016e 83F00103 		eor	r3, r3, #1
 2562 0172 DBB2     		uxtb	r3, r3
ARM GAS  /tmp/cc5OZvFd.s 			page 46


 2563 0174 002B     		cmp	r3, #0
 2564 0176 E7D1     		bne	.L180
 2565              		.loc 15 73 0
 2566 0178 019B     		ldr	r3, [sp, #4]
 2567 017a 0022     		movs	r2, #0
 2568 017c DA61     		str	r2, [r3, #28]
 2569              		.loc 15 74 0
 2570 017e 05B0     		add	sp, sp, #20
 2571              		.cfi_def_cfa_offset 4
 2572              		@ sp needed
 2573 0180 5DF804FB 		ldr	pc, [sp], #4
 2574              	.L182:
 2575              		.align	2
 2576              	.L181:
 2577 0184 00000000 		.word	.LC0
 2578              		.cfi_endproc
 2579              	.LFE410:
 2580              		.size	_ZN3r2p10Bootloader7publishEv, .-_ZN3r2p10Bootloader7publishEv
 2581              		.align	2
 2582              		.global	_ZN3r2p10Bootloader5fetchEv
 2583              		.thumb
 2584              		.thumb_func
 2585              		.type	_ZN3r2p10Bootloader5fetchEv, %function
 2586              	_ZN3r2p10Bootloader5fetchEv:
 2587              	.LFB411:
 2588              		.loc 15 77 0
 2589              		.cfi_startproc
 2590              		@ args = 0, pretend = 0, frame = 16
 2591              		@ frame_needed = 0, uses_anonymous_args = 0
 2592 0188 00B5     		push	{lr}
 2593              		.cfi_def_cfa_offset 4
 2594              		.cfi_offset 14, -4
 2595 018a 85B0     		sub	sp, sp, #20
 2596              		.cfi_def_cfa_offset 24
 2597 018c 0190     		str	r0, [sp, #4]
 2598              		.loc 15 79 0
 2599 018e 019B     		ldr	r3, [sp, #4]
 2600 0190 5B69     		ldr	r3, [r3, #20]
 2601 0192 002B     		cmp	r3, #0
 2602 0194 02D1     		bne	.L184
 2603              		.loc 15 79 0 is_stmt 0 discriminator 1
 2604 0196 1248     		ldr	r0, .L188
 2605 0198 FFF7FEFF 		bl	chDbgPanic
 2606              	.L184:
 2607              		.loc 15 80 0 is_stmt 1
 2608 019c 019B     		ldr	r3, [sp, #4]
 2609 019e 9B69     		ldr	r3, [r3, #24]
 2610 01a0 002B     		cmp	r3, #0
 2611 01a2 02D0     		beq	.L185
 2612              		.loc 15 80 0 is_stmt 0 discriminator 1
 2613 01a4 0E48     		ldr	r0, .L188
 2614 01a6 FFF7FEFF 		bl	chDbgPanic
 2615              	.L185:
 2616              		.loc 15 82 0 is_stmt 1
 2617 01aa 08E0     		b	.L186
 2618              	.L187:
 2619              		.loc 15 83 0
ARM GAS  /tmp/cc5OZvFd.s 			page 47


 2620 01ac 03AB     		add	r3, sp, #12
 2621 01ae 1846     		mov	r0, r3
 2622 01b0 0A21     		movs	r1, #10
 2623 01b2 FFF7FEFF 		bl	_ZN3r2p4Time2msEl
 2624 01b6 03AB     		add	r3, sp, #12
 2625 01b8 1846     		mov	r0, r3
 2626 01ba FFF7FEFF 		bl	_ZN3r2p6Thread5sleepERKNS_4TimeE
 2627              	.L186:
 2628              		.loc 15 82 0
 2629 01be 019B     		ldr	r3, [sp, #4]
 2630 01c0 5A69     		ldr	r2, [r3, #20]
 2631 01c2 019B     		ldr	r3, [sp, #4]
 2632 01c4 1833     		adds	r3, r3, #24
 2633 01c6 1046     		mov	r0, r2
 2634 01c8 1946     		mov	r1, r3
 2635 01ca FFF7FEFF 		bl	_ZN3r2p16SubscriberExtBufINS_7BootMsgEE5fetchERPS1_
 2636 01ce 0346     		mov	r3, r0
 2637 01d0 83F00103 		eor	r3, r3, #1
 2638 01d4 DBB2     		uxtb	r3, r3
 2639 01d6 002B     		cmp	r3, #0
 2640 01d8 E8D1     		bne	.L187
 2641              		.loc 15 85 0
 2642 01da 05B0     		add	sp, sp, #20
 2643              		.cfi_def_cfa_offset 4
 2644              		@ sp needed
 2645 01dc 5DF804FB 		ldr	pc, [sp], #4
 2646              	.L189:
 2647              		.align	2
 2648              	.L188:
 2649 01e0 00000000 		.word	.LC0
 2650              		.cfi_endproc
 2651              	.LFE411:
 2652              		.size	_ZN3r2p10Bootloader5fetchEv, .-_ZN3r2p10Bootloader5fetchEv
 2653              		.align	2
 2654              		.global	_ZN3r2p10Bootloader7releaseEv
 2655              		.thumb
 2656              		.thumb_func
 2657              		.type	_ZN3r2p10Bootloader7releaseEv, %function
 2658              	_ZN3r2p10Bootloader7releaseEv:
 2659              	.LFB412:
 2660              		.loc 15 88 0
 2661              		.cfi_startproc
 2662              		@ args = 0, pretend = 0, frame = 8
 2663              		@ frame_needed = 0, uses_anonymous_args = 0
 2664 01e4 00B5     		push	{lr}
 2665              		.cfi_def_cfa_offset 4
 2666              		.cfi_offset 14, -4
 2667 01e6 83B0     		sub	sp, sp, #12
 2668              		.cfi_def_cfa_offset 16
 2669 01e8 0190     		str	r0, [sp, #4]
 2670              		.loc 15 90 0
 2671 01ea 019B     		ldr	r3, [sp, #4]
 2672 01ec 5B69     		ldr	r3, [r3, #20]
 2673 01ee 002B     		cmp	r3, #0
 2674 01f0 02D1     		bne	.L191
 2675              		.loc 15 90 0 is_stmt 0 discriminator 1
 2676 01f2 0C48     		ldr	r0, .L193
ARM GAS  /tmp/cc5OZvFd.s 			page 48


 2677 01f4 FFF7FEFF 		bl	chDbgPanic
 2678              	.L191:
 2679              		.loc 15 91 0 is_stmt 1
 2680 01f8 019B     		ldr	r3, [sp, #4]
 2681 01fa 9B69     		ldr	r3, [r3, #24]
 2682 01fc 002B     		cmp	r3, #0
 2683 01fe 02D1     		bne	.L192
 2684              		.loc 15 91 0 is_stmt 0 discriminator 1
 2685 0200 0848     		ldr	r0, .L193
 2686 0202 FFF7FEFF 		bl	chDbgPanic
 2687              	.L192:
 2688              		.loc 15 93 0 is_stmt 1
 2689 0206 019B     		ldr	r3, [sp, #4]
 2690 0208 5A69     		ldr	r2, [r3, #20]
 2691 020a 019B     		ldr	r3, [sp, #4]
 2692 020c 9B69     		ldr	r3, [r3, #24]
 2693 020e 1046     		mov	r0, r2
 2694 0210 1946     		mov	r1, r3
 2695 0212 FFF7FEFF 		bl	_ZN3r2p16SubscriberExtBufINS_7BootMsgEE7releaseERS1_
 2696              		.loc 15 94 0
 2697 0216 019B     		ldr	r3, [sp, #4]
 2698 0218 0022     		movs	r2, #0
 2699 021a 9A61     		str	r2, [r3, #24]
 2700              		.loc 15 95 0
 2701 021c 03B0     		add	sp, sp, #12
 2702              		.cfi_def_cfa_offset 4
 2703              		@ sp needed
 2704 021e 5DF804FB 		ldr	pc, [sp], #4
 2705              	.L194:
 2706 0222 00BF     		.align	2
 2707              	.L193:
 2708 0224 00000000 		.word	.LC0
 2709              		.cfi_endproc
 2710              	.LFE412:
 2711              		.size	_ZN3r2p10Bootloader7releaseEv, .-_ZN3r2p10Bootloader7releaseEv
 2712              		.align	2
 2713              		.global	_ZN3r2p10Bootloader9do_loaderEv
 2714              		.thumb
 2715              		.thumb_func
 2716              		.type	_ZN3r2p10Bootloader9do_loaderEv, %function
 2717              	_ZN3r2p10Bootloader9do_loaderEv:
 2718              	.LFB413:
 2719              		.loc 15 98 0
 2720              		.cfi_startproc
 2721              		@ args = 0, pretend = 0, frame = 96
 2722              		@ frame_needed = 0, uses_anonymous_args = 0
 2723 0228 30B5     		push	{r4, r5, lr}
 2724              		.cfi_def_cfa_offset 12
 2725              		.cfi_offset 4, -12
 2726              		.cfi_offset 5, -8
 2727              		.cfi_offset 14, -4
 2728 022a 9BB0     		sub	sp, sp, #108
 2729              		.cfi_def_cfa_offset 120
 2730 022c 0390     		str	r0, [sp, #12]
 2731              	.LBB28:
 2732              		.loc 15 100 0
 2733 022e 0398     		ldr	r0, [sp, #12]
ARM GAS  /tmp/cc5OZvFd.s 			page 49


 2734 0230 FFF7FEFF 		bl	_ZN3r2p10Bootloader6do_ackEv
 2735              	.L218:
 2736              	.LBB29:
 2737              	.LBB30:
 2738              		.loc 15 104 0
 2739 0234 0398     		ldr	r0, [sp, #12]
 2740 0236 FFF7FEFF 		bl	_ZN3r2p10Bootloader5fetchEv
 2741              		.loc 15 105 0
 2742 023a 039B     		ldr	r3, [sp, #12]
 2743 023c 9B69     		ldr	r3, [r3, #24]
 2744 023e 93F82030 		ldrb	r3, [r3, #32]	@ zero_extendqisi2
 2745 0242 033B     		subs	r3, r3, #3
 2746 0244 062B     		cmp	r3, #6
 2747 0246 44D8     		bhi	.L196
 2748 0248 01A2     		adr	r2, .L198
 2749 024a 52F823F0 		ldr	pc, [r2, r3, lsl #2]
 2750 024e 00BF     		.p2align 2
 2751              	.L198:
 2752 0250 6D020000 		.word	.L197+1
 2753 0254 DF020000 		.word	.L220+1
 2754 0258 D3020000 		.word	.L196+1
 2755 025c D3020000 		.word	.L196+1
 2756 0260 D3020000 		.word	.L196+1
 2757 0264 7B020000 		.word	.L200+1
 2758 0268 A7020000 		.word	.L201+1
 2759              		.p2align 1
 2760              	.L197:
 2761              		.loc 15 108 0
 2762 026c 0398     		ldr	r0, [sp, #12]
 2763 026e FFF7FEFF 		bl	_ZN3r2p10Bootloader7releaseEv
 2764              		.loc 15 109 0
 2765 0272 0398     		ldr	r0, [sp, #12]
 2766 0274 FFF7FEFF 		bl	_ZN3r2p10Bootloader6do_ackEv
 2767              		.loc 15 110 0
 2768 0278 F1E0     		b	.L195
 2769              	.L200:
 2770              		.loc 15 113 0
 2771 027a 0398     		ldr	r0, [sp, #12]
 2772 027c FFF7FEFF 		bl	_ZN3r2p10Bootloader7releaseEv
 2773              		.loc 15 114 0
 2774 0280 0398     		ldr	r0, [sp, #12]
 2775 0282 FFF7FEFF 		bl	_ZN3r2p10Bootloader11remove_lastEv
 2776 0286 0346     		mov	r3, r0
 2777 0288 83F00103 		eor	r3, r3, #1
 2778 028c DBB2     		uxtb	r3, r3
 2779 028e 002B     		cmp	r3, #0
 2780 0290 05D0     		beq	.L204
 2781              		.loc 15 115 0
 2782 0292 0398     		ldr	r0, [sp, #12]
 2783 0294 7321     		movs	r1, #115
 2784 0296 734A     		ldr	r2, .L221
 2785 0298 FFF7FEFF 		bl	_ZN3r2p10Bootloader8do_errorEmPKc
 2786              		.loc 15 116 0
 2787 029c DFE0     		b	.L195
 2788              	.L204:
 2789              		.loc 15 118 0
 2790 029e 0398     		ldr	r0, [sp, #12]
ARM GAS  /tmp/cc5OZvFd.s 			page 50


 2791 02a0 FFF7FEFF 		bl	_ZN3r2p10Bootloader6do_ackEv
 2792              		.loc 15 119 0
 2793 02a4 DAE0     		b	.L216
 2794              	.L201:
 2795              		.loc 15 122 0
 2796 02a6 0398     		ldr	r0, [sp, #12]
 2797 02a8 FFF7FEFF 		bl	_ZN3r2p10Bootloader7releaseEv
 2798              		.loc 15 123 0
 2799 02ac 0398     		ldr	r0, [sp, #12]
 2800 02ae FFF7FEFF 		bl	_ZN3r2p10Bootloader10remove_allEv
 2801 02b2 0346     		mov	r3, r0
 2802 02b4 83F00103 		eor	r3, r3, #1
 2803 02b8 DBB2     		uxtb	r3, r3
 2804 02ba 002B     		cmp	r3, #0
 2805 02bc 05D0     		beq	.L206
 2806              		.loc 15 124 0
 2807 02be 0398     		ldr	r0, [sp, #12]
 2808 02c0 7C21     		movs	r1, #124
 2809 02c2 684A     		ldr	r2, .L221
 2810 02c4 FFF7FEFF 		bl	_ZN3r2p10Bootloader8do_errorEmPKc
 2811              		.loc 15 125 0
 2812 02c8 C9E0     		b	.L195
 2813              	.L206:
 2814              		.loc 15 127 0
 2815 02ca 0398     		ldr	r0, [sp, #12]
 2816 02cc FFF7FEFF 		bl	_ZN3r2p10Bootloader6do_ackEv
 2817              		.loc 15 128 0
 2818 02d0 C4E0     		b	.L216
 2819              	.L196:
 2820              		.loc 15 131 0
 2821 02d2 0398     		ldr	r0, [sp, #12]
 2822 02d4 8321     		movs	r1, #131
 2823 02d6 634A     		ldr	r2, .L221
 2824 02d8 FFF7FEFF 		bl	_ZN3r2p10Bootloader16do_release_errorEmPKc
 2825              		.loc 15 132 0
 2826 02dc BFE0     		b	.L195
 2827              	.L220:
 2828              		.loc 15 106 0
 2829 02de 00BF     		nop
 2830              		.loc 15 137 0
 2831 02e0 039B     		ldr	r3, [sp, #12]
 2832 02e2 9B69     		ldr	r3, [r3, #24]
 2833 02e4 12AC     		add	r4, sp, #72
 2834 02e6 9D1C     		adds	r5, r3, #2
 2835 02e8 2868     		ldr	r0, [r5]	@ unaligned
 2836 02ea 6968     		ldr	r1, [r5, #4]	@ unaligned
 2837 02ec AA68     		ldr	r2, [r5, #8]	@ unaligned
 2838 02ee EB68     		ldr	r3, [r5, #12]	@ unaligned
 2839 02f0 0FC4     		stmia	r4!, {r0, r1, r2, r3}
 2840 02f2 2869     		ldr	r0, [r5, #16]	@ unaligned
 2841 02f4 6969     		ldr	r1, [r5, #20]	@ unaligned
 2842 02f6 03C4     		stmia	r4!, {r0, r1}
 2843 02f8 2B8B     		ldrh	r3, [r5, #24]	@ unaligned
 2844 02fa 2380     		strh	r3, [r4]	@ unaligned
 2845              		.loc 15 138 0
 2846 02fc 0398     		ldr	r0, [sp, #12]
 2847 02fe FFF7FEFF 		bl	_ZN3r2p10Bootloader7releaseEv
ARM GAS  /tmp/cc5OZvFd.s 			page 51


 2848              		.loc 15 141 0
 2849 0302 12AB     		add	r3, sp, #72
 2850 0304 1033     		adds	r3, r3, #16
 2851 0306 1846     		mov	r0, r3
 2852 0308 FFF7FEFF 		bl	_ZN3r2p10Bootloader7get_appEPKc
 2853 030c 0346     		mov	r3, r0
 2854 030e 002B     		cmp	r3, #0
 2855 0310 14BF     		ite	ne
 2856 0312 0123     		movne	r3, #1
 2857 0314 0023     		moveq	r3, #0
 2858 0316 DBB2     		uxtb	r3, r3
 2859 0318 002B     		cmp	r3, #0
 2860 031a 05D0     		beq	.L207
 2861              		.loc 15 142 0
 2862 031c 0398     		ldr	r0, [sp, #12]
 2863 031e 8E21     		movs	r1, #142
 2864 0320 504A     		ldr	r2, .L221
 2865 0322 FFF7FEFF 		bl	_ZN3r2p10Bootloader8do_errorEmPKc
 2866              		.loc 15 143 0
 2867 0326 9AE0     		b	.L195
 2868              	.L207:
 2869              		.loc 15 148 0
 2870 0328 12AA     		add	r2, sp, #72
 2871 032a 0CAB     		add	r3, sp, #48
 2872 032c 1046     		mov	r0, r2
 2873 032e 1946     		mov	r1, r3
 2874 0330 FFF7FEFF 		bl	_ZN3r2p10Bootloader17compute_addressesERKNS_7BootMsg12LinkingSetupERNS1_16LinkingAddressesE
 2875 0334 0346     		mov	r3, r0
 2876 0336 83F00103 		eor	r3, r3, #1
 2877 033a DBB2     		uxtb	r3, r3
 2878 033c 002B     		cmp	r3, #0
 2879 033e 05D0     		beq	.L208
 2880              		.loc 15 149 0
 2881 0340 0398     		ldr	r0, [sp, #12]
 2882 0342 9521     		movs	r1, #149
 2883 0344 474A     		ldr	r2, .L221
 2884 0346 FFF7FEFF 		bl	_ZN3r2p10Bootloader8do_errorEmPKc
 2885              		.loc 15 150 0
 2886 034a 88E0     		b	.L195
 2887              	.L208:
 2888              		.loc 15 152 0
 2889 034c 0398     		ldr	r0, [sp, #12]
 2890 034e 0521     		movs	r1, #5
 2891 0350 FFF7FEFF 		bl	_ZN3r2p10Bootloader5allocENS_7BootMsg8TypeEnumE
 2892              		.loc 15 153 0
 2893 0354 039B     		ldr	r3, [sp, #12]
 2894 0356 DB69     		ldr	r3, [r3, #28]
 2895 0358 9D1C     		adds	r5, r3, #2
 2896 035a 0CAC     		add	r4, sp, #48
 2897 035c 0FCC     		ldmia	r4!, {r0, r1, r2, r3}
 2898 035e 2860     		str	r0, [r5]	@ unaligned
 2899 0360 6960     		str	r1, [r5, #4]	@ unaligned
 2900 0362 AA60     		str	r2, [r5, #8]	@ unaligned
 2901 0364 EB60     		str	r3, [r5, #12]	@ unaligned
 2902 0366 03CC     		ldmia	r4!, {r0, r1}
 2903 0368 2861     		str	r0, [r5, #16]	@ unaligned
 2904 036a 6961     		str	r1, [r5, #20]	@ unaligned
ARM GAS  /tmp/cc5OZvFd.s 			page 52


 2905              		.loc 15 154 0
 2906 036c 0398     		ldr	r0, [sp, #12]
 2907 036e FFF7FEFF 		bl	_ZN3r2p10Bootloader7publishEv
 2908              		.loc 15 157 0
 2909 0372 0398     		ldr	r0, [sp, #12]
 2910 0374 0621     		movs	r1, #6
 2911 0376 FFF7FEFF 		bl	_ZN3r2p10Bootloader5fetchENS_7BootMsg8TypeEnumE
 2912 037a 0346     		mov	r3, r0
 2913 037c 83F00103 		eor	r3, r3, #1
 2914 0380 DBB2     		uxtb	r3, r3
 2915 0382 002B     		cmp	r3, #0
 2916 0384 05D0     		beq	.L209
 2917              		.loc 15 158 0
 2918 0386 0398     		ldr	r0, [sp, #12]
 2919 0388 9E21     		movs	r1, #158
 2920 038a 364A     		ldr	r2, .L221
 2921 038c FFF7FEFF 		bl	_ZN3r2p10Bootloader16do_release_errorEmPKc
 2922              		.loc 15 159 0
 2923 0390 65E0     		b	.L195
 2924              	.L209:
 2925              		.loc 15 161 0
 2926 0392 039B     		ldr	r3, [sp, #12]
 2927 0394 9B69     		ldr	r3, [r3, #24]
 2928 0396 05AC     		add	r4, sp, #20
 2929 0398 9D1C     		adds	r5, r3, #2
 2930 039a 2868     		ldr	r0, [r5]	@ unaligned
 2931 039c 6968     		ldr	r1, [r5, #4]	@ unaligned
 2932 039e AA68     		ldr	r2, [r5, #8]	@ unaligned
 2933 03a0 EB68     		ldr	r3, [r5, #12]	@ unaligned
 2934 03a2 0FC4     		stmia	r4!, {r0, r1, r2, r3}
 2935 03a4 2869     		ldr	r0, [r5, #16]	@ unaligned
 2936 03a6 6969     		ldr	r1, [r5, #20]	@ unaligned
 2937 03a8 AA69     		ldr	r2, [r5, #24]	@ unaligned
 2938 03aa 07C4     		stmia	r4!, {r0, r1, r2}
 2939              		.loc 15 162 0
 2940 03ac 0398     		ldr	r0, [sp, #12]
 2941 03ae FFF7FEFF 		bl	_ZN3r2p10Bootloader7releaseEv
 2942              		.loc 15 163 0
 2943 03b2 0398     		ldr	r0, [sp, #12]
 2944 03b4 FFF7FEFF 		bl	_ZN3r2p10Bootloader6do_ackEv
 2945              	.L214:
 2946              	.LBB31:
 2947              	.LBB32:
 2948              		.loc 15 167 0
 2949 03b8 0398     		ldr	r0, [sp, #12]
 2950 03ba 0721     		movs	r1, #7
 2951 03bc FFF7FEFF 		bl	_ZN3r2p10Bootloader5fetchENS_7BootMsg8TypeEnumE
 2952 03c0 0346     		mov	r3, r0
 2953 03c2 83F00103 		eor	r3, r3, #1
 2954 03c6 DBB2     		uxtb	r3, r3
 2955 03c8 002B     		cmp	r3, #0
 2956 03ca 05D0     		beq	.L210
 2957              		.loc 15 168 0
 2958 03cc 0398     		ldr	r0, [sp, #12]
 2959 03ce A821     		movs	r1, #168
 2960 03d0 244A     		ldr	r2, .L221
 2961 03d2 FFF7FEFF 		bl	_ZN3r2p10Bootloader16do_release_errorEmPKc
ARM GAS  /tmp/cc5OZvFd.s 			page 53


 2962              		.loc 15 169 0
 2963 03d6 42E0     		b	.L195
 2964              	.L210:
 2965              		.loc 15 171 0
 2966 03d8 039B     		ldr	r3, [sp, #12]
 2967 03da 9B69     		ldr	r3, [r3, #24]
 2968 03dc 0233     		adds	r3, r3, #2
 2969 03de 1993     		str	r3, [sp, #100]
 2970              		.loc 15 172 0
 2971 03e0 12AA     		add	r2, sp, #72
 2972 03e2 0CAB     		add	r3, sp, #48
 2973 03e4 0398     		ldr	r0, [sp, #12]
 2974 03e6 1999     		ldr	r1, [sp, #100]
 2975 03e8 FFF7FEFF 		bl	_ZN3r2p10Bootloader12process_ihexERKNS_10IhexRecordERKNS_7BootMsg12LinkingSetupERKNS4_16Linking
 2976 03ec 0346     		mov	r3, r0
 2977 03ee 83F00103 		eor	r3, r3, #1
 2978 03f2 DBB2     		uxtb	r3, r3
 2979 03f4 002B     		cmp	r3, #0
 2980 03f6 05D0     		beq	.L211
 2981              		.loc 15 173 0
 2982 03f8 0398     		ldr	r0, [sp, #12]
 2983 03fa AD21     		movs	r1, #173
 2984 03fc 194A     		ldr	r2, .L221
 2985 03fe FFF7FEFF 		bl	_ZN3r2p10Bootloader16do_release_errorEmPKc
 2986              		.loc 15 174 0
 2987 0402 2CE0     		b	.L195
 2988              	.L211:
 2989              		.loc 15 176 0
 2990 0404 199B     		ldr	r3, [sp, #100]
 2991 0406 DB78     		ldrb	r3, [r3, #3]	@ zero_extendqisi2
 2992 0408 012B     		cmp	r3, #1
 2993 040a 16D1     		bne	.L212
 2994              		.loc 15 177 0
 2995 040c 00BF     		nop
 2996              	.LBE32:
 2997              	.LBE31:
 2998              		.loc 15 182 0
 2999 040e 0398     		ldr	r0, [sp, #12]
 3000 0410 FFF7FEFF 		bl	_ZN3r2p10Bootloader7releaseEv
 3001              		.loc 15 183 0
 3002 0414 0398     		ldr	r0, [sp, #12]
 3003 0416 FFF7FEFF 		bl	_ZN3r2p10Bootloader6do_ackEv
 3004              		.loc 15 188 0
 3005 041a 0C99     		ldr	r1, [sp, #48]
 3006 041c 12AA     		add	r2, sp, #72
 3007 041e 0CAC     		add	r4, sp, #48
 3008 0420 05AB     		add	r3, sp, #20
 3009 0422 0093     		str	r3, [sp]
 3010 0424 0398     		ldr	r0, [sp, #12]
 3011 0426 2346     		mov	r3, r4
 3012 0428 FFF7FEFF 		bl	_ZN3r2p10Bootloader13write_appinfoEPKNS0_12FlashAppInfoERKNS_7BootMsg12LinkingSetupERKNS4_16Lin
 3013 042c 0346     		mov	r3, r0
 3014              		.loc 15 186 0
 3015 042e 83F00103 		eor	r3, r3, #1
 3016 0432 DBB2     		uxtb	r3, r3
 3017 0434 002B     		cmp	r3, #0
 3018 0436 0ED0     		beq	.L215
ARM GAS  /tmp/cc5OZvFd.s 			page 54


 3019 0438 06E0     		b	.L219
 3020              	.L212:
 3021              	.LBB34:
 3022              	.LBB33:
 3023              		.loc 15 179 0
 3024 043a 0398     		ldr	r0, [sp, #12]
 3025 043c FFF7FEFF 		bl	_ZN3r2p10Bootloader7releaseEv
 3026              		.loc 15 180 0
 3027 0440 0398     		ldr	r0, [sp, #12]
 3028 0442 FFF7FEFF 		bl	_ZN3r2p10Bootloader6do_ackEv
 3029              	.LBE33:
 3030              		.loc 15 181 0
 3031 0446 B7E7     		b	.L214
 3032              	.L219:
 3033              	.LBE34:
 3034              		.loc 15 189 0
 3035 0448 0398     		ldr	r0, [sp, #12]
 3036 044a BD21     		movs	r1, #189
 3037 044c 054A     		ldr	r2, .L221
 3038 044e FFF7FEFF 		bl	_ZN3r2p10Bootloader8do_errorEmPKc
 3039              		.loc 15 190 0
 3040 0452 00BF     		nop
 3041 0454 03E0     		b	.L195
 3042              	.L215:
 3043              		.loc 15 193 0
 3044 0456 0398     		ldr	r0, [sp, #12]
 3045 0458 FFF7FEFF 		bl	_ZN3r2p10Bootloader6do_ackEv
 3046              	.L216:
 3047              	.LBE30:
 3048              		.loc 15 194 0 discriminator 1
 3049 045c EAE6     		b	.L218
 3050              	.L195:
 3051              	.LBE29:
 3052              	.LBE28:
 3053              		.loc 15 195 0
 3054 045e 1BB0     		add	sp, sp, #108
 3055              		.cfi_def_cfa_offset 12
 3056              		@ sp needed
 3057 0460 30BD     		pop	{r4, r5, pc}
 3058              	.L222:
 3059 0462 00BF     		.align	2
 3060              	.L221:
 3061 0464 14000000 		.word	.LC1
 3062              		.cfi_endproc
 3063              	.LFE413:
 3064              		.size	_ZN3r2p10Bootloader9do_loaderEv, .-_ZN3r2p10Bootloader9do_loaderEv
 3065              		.align	2
 3066              		.global	_ZN3r2p10Bootloader10do_appinfoEv
 3067              		.thumb
 3068              		.thumb_func
 3069              		.type	_ZN3r2p10Bootloader10do_appinfoEv, %function
 3070              	_ZN3r2p10Bootloader10do_appinfoEv:
 3071              	.LFB414:
 3072              		.loc 15 198 0
 3073              		.cfi_startproc
 3074              		@ args = 0, pretend = 0, frame = 32
 3075              		@ frame_needed = 0, uses_anonymous_args = 0
ARM GAS  /tmp/cc5OZvFd.s 			page 55


 3076 0468 10B5     		push	{r4, lr}
 3077              		.cfi_def_cfa_offset 8
 3078              		.cfi_offset 4, -8
 3079              		.cfi_offset 14, -4
 3080 046a 88B0     		sub	sp, sp, #32
 3081              		.cfi_def_cfa_offset 40
 3082 046c 0190     		str	r0, [sp, #4]
 3083              	.LBB35:
 3084              		.loc 15 200 0
 3085 046e 0198     		ldr	r0, [sp, #4]
 3086 0470 0C21     		movs	r1, #12
 3087 0472 FFF7FEFF 		bl	_ZN3r2p10Bootloader5allocENS_7BootMsg8TypeEnumE
 3088              	.LBB36:
 3089              		.loc 15 202 0
 3090 0476 019B     		ldr	r3, [sp, #4]
 3091 0478 DB69     		ldr	r3, [r3, #28]
 3092 047a 0233     		adds	r3, r3, #2
 3093 047c 0793     		str	r3, [sp, #28]
 3094              		.loc 15 203 0
 3095 047e FFF7FEFF 		bl	_ZN3r2p10Bootloader12get_num_appsEv
 3096 0482 0246     		mov	r2, r0
 3097 0484 079B     		ldr	r3, [sp, #28]
 3098 0486 1A60     		str	r2, [r3]	@ unaligned
 3099              		.loc 15 204 0
 3100 0488 FFF7FEFF 		bl	_ZN3r2p10Bootloader16get_free_addressEv
 3101 048c 0246     		mov	r2, r0
 3102 048e 079B     		ldr	r3, [sp, #28]
 3103 0490 5A60     		str	r2, [r3, #4]	@ unaligned
 3104              		.loc 15 205 0
 3105 0492 FFF7FEFF 		bl	_ZN3r2p7Flasher17get_program_startEv
 3106 0496 0246     		mov	r2, r0
 3107 0498 079B     		ldr	r3, [sp, #28]
 3108 049a 9A60     		str	r2, [r3, #8]	@ unaligned
 3109              		.loc 15 206 0
 3110 049c FFF7FEFF 		bl	_ZN3r2p7Flasher15get_program_endEv
 3111 04a0 0246     		mov	r2, r0
 3112 04a2 079B     		ldr	r3, [sp, #28]
 3113 04a4 DA60     		str	r2, [r3, #12]	@ unaligned
 3114              		.loc 15 207 0
 3115 04a6 FFF7FEFF 		bl	_ZN3r2p7Flasher13get_ram_startEv
 3116 04aa 0246     		mov	r2, r0
 3117 04ac 079B     		ldr	r3, [sp, #28]
 3118 04ae 1A61     		str	r2, [r3, #16]	@ unaligned
 3119              		.loc 15 208 0
 3120 04b0 FFF7FEFF 		bl	_ZN3r2p7Flasher11get_ram_endEv
 3121 04b4 0246     		mov	r2, r0
 3122 04b6 079B     		ldr	r3, [sp, #28]
 3123 04b8 5A61     		str	r2, [r3, #20]	@ unaligned
 3124              	.LBE36:
 3125              		.loc 15 210 0
 3126 04ba 0198     		ldr	r0, [sp, #4]
 3127 04bc FFF7FEFF 		bl	_ZN3r2p10Bootloader7publishEv
 3128              		.loc 15 212 0
 3129 04c0 0198     		ldr	r0, [sp, #4]
 3130 04c2 0121     		movs	r1, #1
 3131 04c4 FFF7FEFF 		bl	_ZN3r2p10Bootloader5fetchENS_7BootMsg8TypeEnumE
 3132 04c8 0346     		mov	r3, r0
ARM GAS  /tmp/cc5OZvFd.s 			page 56


 3133 04ca 83F00103 		eor	r3, r3, #1
 3134 04ce DBB2     		uxtb	r3, r3
 3135 04d0 002B     		cmp	r3, #0
 3136 04d2 05D0     		beq	.L224
 3137              		.loc 15 213 0
 3138 04d4 0198     		ldr	r0, [sp, #4]
 3139 04d6 D521     		movs	r1, #213
 3140 04d8 9B4A     		ldr	r2, .L235
 3141 04da FFF7FEFF 		bl	_ZN3r2p10Bootloader16do_release_errorEmPKc
 3142              		.loc 15 214 0
 3143 04de 31E1     		b	.L223
 3144              	.L224:
 3145              		.loc 15 216 0
 3146 04e0 0198     		ldr	r0, [sp, #4]
 3147 04e2 FFF7FEFF 		bl	_ZN3r2p10Bootloader7releaseEv
 3148              	.LBB37:
 3149              		.loc 15 218 0
 3150 04e6 02AB     		add	r3, sp, #8
 3151 04e8 1846     		mov	r0, r3
 3152 04ea FFF7FEFF 		bl	_ZN3r2p10Bootloader5beginEv
 3153 04ee FDE0     		b	.L226
 3154              	.L231:
 3155              	.LBB38:
 3156              		.loc 15 219 0
 3157 04f0 0198     		ldr	r0, [sp, #4]
 3158 04f2 0421     		movs	r1, #4
 3159 04f4 FFF7FEFF 		bl	_ZN3r2p10Bootloader5allocENS_7BootMsg8TypeEnumE
 3160              	.LBB39:
 3161              		.loc 15 221 0
 3162 04f8 019B     		ldr	r3, [sp, #4]
 3163 04fa DB69     		ldr	r3, [r3, #28]
 3164 04fc 0233     		adds	r3, r3, #2
 3165 04fe 0693     		str	r3, [sp, #24]
 3166              		.loc 15 222 0
 3167 0500 02AB     		add	r3, sp, #8
 3168 0502 1846     		mov	r0, r3
 3169 0504 FFF7FEFF 		bl	_ZNK3r2p10Bootloader8IteratorptEv
 3170 0508 0346     		mov	r3, r0
 3171 050a 5A68     		ldr	r2, [r3, #4]
 3172 050c 069B     		ldr	r3, [sp, #24]
 3173 050e 1A60     		str	r2, [r3]	@ unaligned
 3174              		.loc 15 223 0
 3175 0510 02AB     		add	r3, sp, #8
 3176 0512 1846     		mov	r0, r3
 3177 0514 FFF7FEFF 		bl	_ZNK3r2p10Bootloader8IteratorptEv
 3178 0518 0346     		mov	r3, r0
 3179 051a 9A68     		ldr	r2, [r3, #8]
 3180 051c 069B     		ldr	r3, [sp, #24]
 3181 051e 5A60     		str	r2, [r3, #4]	@ unaligned
 3182              		.loc 15 224 0
 3183 0520 02AB     		add	r3, sp, #8
 3184 0522 1846     		mov	r0, r3
 3185 0524 FFF7FEFF 		bl	_ZNK3r2p10Bootloader8IteratorptEv
 3186 0528 0346     		mov	r3, r0
 3187 052a DA68     		ldr	r2, [r3, #12]
 3188 052c 069B     		ldr	r3, [sp, #24]
 3189 052e 9A60     		str	r2, [r3, #8]	@ unaligned
ARM GAS  /tmp/cc5OZvFd.s 			page 57


 3190              		.loc 15 225 0
 3191 0530 02AB     		add	r3, sp, #8
 3192 0532 1846     		mov	r0, r3
 3193 0534 FFF7FEFF 		bl	_ZNK3r2p10Bootloader8IteratorptEv
 3194 0538 0346     		mov	r3, r0
 3195 053a 1A6A     		ldr	r2, [r3, #32]
 3196 053c 069B     		ldr	r3, [sp, #24]
 3197 053e DA60     		str	r2, [r3, #12]	@ unaligned
 3198              		.loc 15 226 0
 3199 0540 069B     		ldr	r3, [sp, #24]
 3200 0542 03F11004 		add	r4, r3, #16
 3201 0546 02AB     		add	r3, sp, #8
 3202 0548 1846     		mov	r0, r3
 3203 054a FFF7FEFF 		bl	_ZNK3r2p10Bootloader8IteratorptEv
 3204 054e 0346     		mov	r3, r0
 3205 0550 3833     		adds	r3, r3, #56
 3206 0552 2046     		mov	r0, r4
 3207 0554 1946     		mov	r1, r3
 3208 0556 0822     		movs	r2, #8
 3209 0558 FFF7FEFF 		bl	strncpy
 3210              	.LBE39:
 3211              		.loc 15 228 0
 3212 055c 0198     		ldr	r0, [sp, #4]
 3213 055e FFF7FEFF 		bl	_ZN3r2p10Bootloader7publishEv
 3214              		.loc 15 230 0
 3215 0562 0198     		ldr	r0, [sp, #4]
 3216 0564 0121     		movs	r1, #1
 3217 0566 FFF7FEFF 		bl	_ZN3r2p10Bootloader5fetchENS_7BootMsg8TypeEnumE
 3218 056a 0346     		mov	r3, r0
 3219 056c 83F00103 		eor	r3, r3, #1
 3220 0570 DBB2     		uxtb	r3, r3
 3221 0572 002B     		cmp	r3, #0
 3222 0574 05D0     		beq	.L227
 3223              		.loc 15 231 0
 3224 0576 0198     		ldr	r0, [sp, #4]
 3225 0578 E721     		movs	r1, #231
 3226 057a 734A     		ldr	r2, .L235
 3227 057c FFF7FEFF 		bl	_ZN3r2p10Bootloader16do_release_errorEmPKc
 3228              		.loc 15 232 0
 3229 0580 E0E0     		b	.L223
 3230              	.L227:
 3231              		.loc 15 234 0
 3232 0582 0198     		ldr	r0, [sp, #4]
 3233 0584 FFF7FEFF 		bl	_ZN3r2p10Bootloader7releaseEv
 3234              		.loc 15 236 0
 3235 0588 0198     		ldr	r0, [sp, #4]
 3236 058a 0521     		movs	r1, #5
 3237 058c FFF7FEFF 		bl	_ZN3r2p10Bootloader5allocENS_7BootMsg8TypeEnumE
 3238              	.LBB40:
 3239              		.loc 15 238 0
 3240 0590 019B     		ldr	r3, [sp, #4]
 3241 0592 DB69     		ldr	r3, [r3, #28]
 3242 0594 0233     		adds	r3, r3, #2
 3243 0596 0593     		str	r3, [sp, #20]
 3244              		.loc 15 239 0
 3245 0598 02AB     		add	r3, sp, #8
 3246 059a 1846     		mov	r0, r3
ARM GAS  /tmp/cc5OZvFd.s 			page 58


 3247 059c FFF7FEFF 		bl	_ZNK3r2p10Bootloader8IteratordeEv
 3248 05a0 0246     		mov	r2, r0
 3249 05a2 059B     		ldr	r3, [sp, #20]
 3250 05a4 1A60     		str	r2, [r3]	@ unaligned
 3251              		.loc 15 240 0
 3252 05a6 02AB     		add	r3, sp, #8
 3253 05a8 1846     		mov	r0, r3
 3254 05aa FFF7FEFF 		bl	_ZNK3r2p10Bootloader8IteratorptEv
 3255 05ae 0346     		mov	r3, r0
 3256 05b0 1846     		mov	r0, r3
 3257 05b2 FFF7FEFF 		bl	_ZNK3r2p10Bootloader12FlashAppInfo11get_programEv
 3258 05b6 0246     		mov	r2, r0
 3259 05b8 059B     		ldr	r3, [sp, #20]
 3260 05ba 5A60     		str	r2, [r3, #4]	@ unaligned
 3261              		.loc 15 241 0
 3262 05bc 02AB     		add	r3, sp, #8
 3263 05be 1846     		mov	r0, r3
 3264 05c0 FFF7FEFF 		bl	_ZNK3r2p10Bootloader8IteratorptEv
 3265 05c4 0346     		mov	r3, r0
 3266 05c6 1A69     		ldr	r2, [r3, #16]
 3267 05c8 059B     		ldr	r3, [sp, #20]
 3268 05ca 9A60     		str	r2, [r3, #8]	@ unaligned
 3269              		.loc 15 242 0
 3270 05cc 02AB     		add	r3, sp, #8
 3271 05ce 1846     		mov	r0, r3
 3272 05d0 FFF7FEFF 		bl	_ZNK3r2p10Bootloader8IteratorptEv
 3273 05d4 0346     		mov	r3, r0
 3274 05d6 5A69     		ldr	r2, [r3, #20]
 3275 05d8 059B     		ldr	r3, [sp, #20]
 3276 05da DA60     		str	r2, [r3, #12]	@ unaligned
 3277              		.loc 15 243 0
 3278 05dc 02AB     		add	r3, sp, #8
 3279 05de 1846     		mov	r0, r3
 3280 05e0 FFF7FEFF 		bl	_ZNK3r2p10Bootloader8IteratorptEv
 3281 05e4 0346     		mov	r3, r0
 3282 05e6 1846     		mov	r0, r3
 3283 05e8 FFF7FEFF 		bl	_ZNK3r2p10Bootloader12FlashAppInfo16get_data_programEv
 3284 05ec 0246     		mov	r2, r0
 3285 05ee 059B     		ldr	r3, [sp, #20]
 3286 05f0 1A61     		str	r2, [r3, #16]	@ unaligned
 3287              		.loc 15 244 0
 3288 05f2 02AB     		add	r3, sp, #8
 3289 05f4 1846     		mov	r0, r3
 3290 05f6 FFF7FEFF 		bl	_ZNK3r2p10Bootloader8IteratorptEv
 3291 05fa 0346     		mov	r3, r0
 3292 05fc 1846     		mov	r0, r3
 3293 05fe FFF7FEFF 		bl	_ZNK3r2p10Bootloader12FlashAppInfo8get_nextEv
 3294 0602 0246     		mov	r2, r0
 3295 0604 059B     		ldr	r3, [sp, #20]
 3296 0606 5A61     		str	r2, [r3, #20]	@ unaligned
 3297              	.LBE40:
 3298              		.loc 15 246 0
 3299 0608 0198     		ldr	r0, [sp, #4]
 3300 060a FFF7FEFF 		bl	_ZN3r2p10Bootloader7publishEv
 3301              		.loc 15 248 0
 3302 060e 0198     		ldr	r0, [sp, #4]
 3303 0610 0121     		movs	r1, #1
ARM GAS  /tmp/cc5OZvFd.s 			page 59


 3304 0612 FFF7FEFF 		bl	_ZN3r2p10Bootloader5fetchENS_7BootMsg8TypeEnumE
 3305 0616 0346     		mov	r3, r0
 3306 0618 83F00103 		eor	r3, r3, #1
 3307 061c DBB2     		uxtb	r3, r3
 3308 061e 002B     		cmp	r3, #0
 3309 0620 05D0     		beq	.L229
 3310              		.loc 15 249 0
 3311 0622 0198     		ldr	r0, [sp, #4]
 3312 0624 F921     		movs	r1, #249
 3313 0626 484A     		ldr	r2, .L235
 3314 0628 FFF7FEFF 		bl	_ZN3r2p10Bootloader16do_release_errorEmPKc
 3315              		.loc 15 250 0
 3316 062c 8AE0     		b	.L223
 3317              	.L229:
 3318              		.loc 15 252 0
 3319 062e 0198     		ldr	r0, [sp, #4]
 3320 0630 FFF7FEFF 		bl	_ZN3r2p10Bootloader7releaseEv
 3321              		.loc 15 254 0
 3322 0634 0198     		ldr	r0, [sp, #4]
 3323 0636 0621     		movs	r1, #6
 3324 0638 FFF7FEFF 		bl	_ZN3r2p10Bootloader5allocENS_7BootMsg8TypeEnumE
 3325              	.LBB41:
 3326              		.loc 15 256 0
 3327 063c 019B     		ldr	r3, [sp, #4]
 3328 063e DB69     		ldr	r3, [r3, #28]
 3329 0640 0233     		adds	r3, r3, #2
 3330 0642 0493     		str	r3, [sp, #16]
 3331              		.loc 15 257 0
 3332 0644 02AB     		add	r3, sp, #8
 3333 0646 1846     		mov	r0, r3
 3334 0648 FFF7FEFF 		bl	_ZNK3r2p10Bootloader8IteratorptEv
 3335 064c 0346     		mov	r3, r0
 3336 064e 5A6A     		ldr	r2, [r3, #36]
 3337 0650 049B     		ldr	r3, [sp, #16]
 3338 0652 1A60     		str	r2, [r3]	@ unaligned
 3339              		.loc 15 258 0
 3340 0654 02AB     		add	r3, sp, #8
 3341 0656 1846     		mov	r0, r3
 3342 0658 FFF7FEFF 		bl	_ZNK3r2p10Bootloader8IteratorptEv
 3343 065c 0346     		mov	r3, r0
 3344 065e 9A69     		ldr	r2, [r3, #24]
 3345 0660 049B     		ldr	r3, [sp, #16]
 3346 0662 5A60     		str	r2, [r3, #4]	@ unaligned
 3347              		.loc 15 259 0
 3348 0664 02AB     		add	r3, sp, #8
 3349 0666 1846     		mov	r0, r3
 3350 0668 FFF7FEFF 		bl	_ZNK3r2p10Bootloader8IteratorptEv
 3351 066c 0346     		mov	r3, r0
 3352 066e DA69     		ldr	r2, [r3, #28]
 3353 0670 049B     		ldr	r3, [sp, #16]
 3354 0672 9A60     		str	r2, [r3, #8]	@ unaligned
 3355              		.loc 15 260 0
 3356 0674 02AB     		add	r3, sp, #8
 3357 0676 1846     		mov	r0, r3
 3358 0678 FFF7FEFF 		bl	_ZNK3r2p10Bootloader8IteratorptEv
 3359 067c 0346     		mov	r3, r0
 3360 067e 9A6A     		ldr	r2, [r3, #40]
ARM GAS  /tmp/cc5OZvFd.s 			page 60


 3361 0680 049B     		ldr	r3, [sp, #16]
 3362 0682 DA60     		str	r2, [r3, #12]	@ unaligned
 3363              		.loc 15 261 0
 3364 0684 02AB     		add	r3, sp, #8
 3365 0686 1846     		mov	r0, r3
 3366 0688 FFF7FEFF 		bl	_ZNK3r2p10Bootloader8IteratorptEv
 3367 068c 0346     		mov	r3, r0
 3368 068e DA6A     		ldr	r2, [r3, #44]
 3369 0690 049B     		ldr	r3, [sp, #16]
 3370 0692 1A61     		str	r2, [r3, #16]	@ unaligned
 3371              		.loc 15 262 0
 3372 0694 02AB     		add	r3, sp, #8
 3373 0696 1846     		mov	r0, r3
 3374 0698 FFF7FEFF 		bl	_ZNK3r2p10Bootloader8IteratorptEv
 3375 069c 0346     		mov	r3, r0
 3376 069e 1A6B     		ldr	r2, [r3, #48]
 3377 06a0 049B     		ldr	r3, [sp, #16]
 3378 06a2 5A61     		str	r2, [r3, #20]	@ unaligned
 3379              		.loc 15 263 0
 3380 06a4 02AB     		add	r3, sp, #8
 3381 06a6 1846     		mov	r0, r3
 3382 06a8 FFF7FEFF 		bl	_ZNK3r2p10Bootloader8IteratorptEv
 3383 06ac 0346     		mov	r3, r0
 3384 06ae 5A6B     		ldr	r2, [r3, #52]
 3385 06b0 049B     		ldr	r3, [sp, #16]
 3386 06b2 9A61     		str	r2, [r3, #24]	@ unaligned
 3387              	.LBE41:
 3388              		.loc 15 265 0
 3389 06b4 0198     		ldr	r0, [sp, #4]
 3390 06b6 FFF7FEFF 		bl	_ZN3r2p10Bootloader7publishEv
 3391              		.loc 15 267 0
 3392 06ba 0198     		ldr	r0, [sp, #4]
 3393 06bc 0121     		movs	r1, #1
 3394 06be FFF7FEFF 		bl	_ZN3r2p10Bootloader5fetchENS_7BootMsg8TypeEnumE
 3395 06c2 0346     		mov	r3, r0
 3396 06c4 83F00103 		eor	r3, r3, #1
 3397 06c8 DBB2     		uxtb	r3, r3
 3398 06ca 002B     		cmp	r3, #0
 3399 06cc 07D0     		beq	.L230
 3400              		.loc 15 268 0
 3401 06ce 0198     		ldr	r0, [sp, #4]
 3402 06d0 4FF48671 		mov	r1, #268
 3403 06d4 1C4A     		ldr	r2, .L235
 3404 06d6 FFF7FEFF 		bl	_ZN3r2p10Bootloader16do_release_errorEmPKc
 3405              		.loc 15 269 0
 3406 06da 00BF     		nop
 3407 06dc 32E0     		b	.L223
 3408              	.L230:
 3409              		.loc 15 271 0 discriminator 2
 3410 06de 0198     		ldr	r0, [sp, #4]
 3411 06e0 FFF7FEFF 		bl	_ZN3r2p10Bootloader7releaseEv
 3412              	.LBE38:
 3413              		.loc 15 218 0 discriminator 2
 3414 06e4 02AB     		add	r3, sp, #8
 3415 06e6 1846     		mov	r0, r3
 3416 06e8 FFF7FEFF 		bl	_ZN3r2p10Bootloader8IteratorppEv
 3417              	.L226:
ARM GAS  /tmp/cc5OZvFd.s 			page 61


 3418              		.loc 15 218 0 is_stmt 0 discriminator 1
 3419 06ec 03AB     		add	r3, sp, #12
 3420 06ee 1846     		mov	r0, r3
 3421 06f0 FFF7FEFF 		bl	_ZN3r2p10Bootloader3endEv
 3422 06f4 02AA     		add	r2, sp, #8
 3423 06f6 03AB     		add	r3, sp, #12
 3424 06f8 1046     		mov	r0, r2
 3425 06fa 1946     		mov	r1, r3
 3426 06fc FFF7FEFF 		bl	_ZNK3r2p10Bootloader8IteratorneERKS1_
 3427 0700 0346     		mov	r3, r0
 3428 0702 002B     		cmp	r3, #0
 3429 0704 7FF4F4AE 		bne	.L231
 3430              	.LBE37:
 3431              		.loc 15 274 0 is_stmt 1
 3432 0708 0198     		ldr	r0, [sp, #4]
 3433 070a 0B21     		movs	r1, #11
 3434 070c FFF7FEFF 		bl	_ZN3r2p10Bootloader5allocENS_7BootMsg8TypeEnumE
 3435              		.loc 15 275 0
 3436 0710 0198     		ldr	r0, [sp, #4]
 3437 0712 FFF7FEFF 		bl	_ZN3r2p10Bootloader7publishEv
 3438              		.loc 15 276 0
 3439 0716 0198     		ldr	r0, [sp, #4]
 3440 0718 0121     		movs	r1, #1
 3441 071a FFF7FEFF 		bl	_ZN3r2p10Bootloader5fetchENS_7BootMsg8TypeEnumE
 3442 071e 0346     		mov	r3, r0
 3443 0720 83F00103 		eor	r3, r3, #1
 3444 0724 DBB2     		uxtb	r3, r3
 3445 0726 002B     		cmp	r3, #0
 3446 0728 06D0     		beq	.L234
 3447              		.loc 15 277 0
 3448 072a 0198     		ldr	r0, [sp, #4]
 3449 072c 40F21511 		movw	r1, #277
 3450 0730 054A     		ldr	r2, .L235
 3451 0732 FFF7FEFF 		bl	_ZN3r2p10Bootloader16do_release_errorEmPKc
 3452              		.loc 15 278 0
 3453 0736 05E0     		b	.L223
 3454              	.L234:
 3455              		.loc 15 280 0
 3456 0738 0198     		ldr	r0, [sp, #4]
 3457 073a FFF7FEFF 		bl	_ZN3r2p10Bootloader7releaseEv
 3458              		.loc 15 281 0
 3459 073e 0198     		ldr	r0, [sp, #4]
 3460 0740 FFF7FEFF 		bl	_ZN3r2p10Bootloader6do_ackEv
 3461              	.L223:
 3462              	.LBE35:
 3463              		.loc 15 282 0
 3464 0744 08B0     		add	sp, sp, #32
 3465              		.cfi_def_cfa_offset 8
 3466              		@ sp needed
 3467 0746 10BD     		pop	{r4, pc}
 3468              	.L236:
 3469              		.align	2
 3470              	.L235:
 3471 0748 14000000 		.word	.LC1
 3472              		.cfi_endproc
 3473              	.LFE414:
 3474              		.size	_ZN3r2p10Bootloader10do_appinfoEv, .-_ZN3r2p10Bootloader10do_appinfoEv
ARM GAS  /tmp/cc5OZvFd.s 			page 62


 3475              		.align	2
 3476              		.global	_ZN3r2p10Bootloader11do_getparamEv
 3477              		.thumb
 3478              		.thumb_func
 3479              		.type	_ZN3r2p10Bootloader11do_getparamEv, %function
 3480              	_ZN3r2p10Bootloader11do_getparamEv:
 3481              	.LFB415:
 3482              		.loc 15 285 0
 3483              		.cfi_startproc
 3484              		@ args = 0, pretend = 0, frame = 32
 3485              		@ frame_needed = 0, uses_anonymous_args = 0
 3486 074c 00B5     		push	{lr}
 3487              		.cfi_def_cfa_offset 4
 3488              		.cfi_offset 14, -4
 3489 074e 89B0     		sub	sp, sp, #36
 3490              		.cfi_def_cfa_offset 40
 3491 0750 0190     		str	r0, [sp, #4]
 3492              	.LBB42:
 3493              		.loc 15 289 0
 3494 0752 0198     		ldr	r0, [sp, #4]
 3495 0754 FFF7FEFF 		bl	_ZN3r2p10Bootloader6do_ackEv
 3496              	.L255:
 3497              	.LBB43:
 3498              	.LBB44:
 3499              		.loc 15 293 0
 3500 0758 0198     		ldr	r0, [sp, #4]
 3501 075a FFF7FEFF 		bl	_ZN3r2p10Bootloader5fetchEv
 3502              		.loc 15 294 0
 3503 075e 019B     		ldr	r3, [sp, #4]
 3504 0760 9B69     		ldr	r3, [r3, #24]
 3505 0762 93F82030 		ldrb	r3, [r3, #32]	@ zero_extendqisi2
 3506 0766 102B     		cmp	r3, #16
 3507 0768 02D0     		beq	.L239
 3508 076a 112B     		cmp	r3, #17
 3509 076c 0ED0     		beq	.L257
 3510 076e 06E0     		b	.L256
 3511              	.L239:
 3512              		.loc 15 297 0
 3513 0770 0198     		ldr	r0, [sp, #4]
 3514 0772 FFF7FEFF 		bl	_ZN3r2p10Bootloader7releaseEv
 3515              		.loc 15 298 0
 3516 0776 0198     		ldr	r0, [sp, #4]
 3517 0778 FFF7FEFF 		bl	_ZN3r2p10Bootloader6do_ackEv
 3518              		.loc 15 299 0
 3519 077c A3E0     		b	.L237
 3520              	.L256:
 3521              		.loc 15 302 0
 3522 077e 0198     		ldr	r0, [sp, #4]
 3523 0780 4FF49771 		mov	r1, #302
 3524 0784 514A     		ldr	r2, .L258
 3525 0786 FFF7FEFF 		bl	_ZN3r2p10Bootloader16do_release_errorEmPKc
 3526              		.loc 15 303 0
 3527 078a 9CE0     		b	.L237
 3528              	.L257:
 3529              		.loc 15 295 0
 3530 078c 00BF     		nop
 3531              		.loc 15 308 0
ARM GAS  /tmp/cc5OZvFd.s 			page 63


 3532 078e 019B     		ldr	r3, [sp, #4]
 3533 0790 9B69     		ldr	r3, [r3, #24]
 3534 0792 0233     		adds	r3, r3, #2
 3535 0794 0593     		str	r3, [sp, #20]
 3536              		.loc 15 309 0
 3537 0796 059B     		ldr	r3, [sp, #20]
 3538 0798 1B7B     		ldrb	r3, [r3, #12]	@ zero_extendqisi2
 3539 079a 002B     		cmp	r3, #0
 3540 079c 06D1     		bne	.L243
 3541              		.loc 15 310 0
 3542 079e 0198     		ldr	r0, [sp, #4]
 3543 07a0 4FF49B71 		mov	r1, #310
 3544 07a4 494A     		ldr	r2, .L258
 3545 07a6 FFF7FEFF 		bl	_ZN3r2p10Bootloader16do_release_errorEmPKc
 3546              		.loc 15 311 0
 3547 07aa 8CE0     		b	.L237
 3548              	.L243:
 3549              		.loc 15 313 0
 3550 07ac 059B     		ldr	r3, [sp, #20]
 3551 07ae 0433     		adds	r3, r3, #4
 3552 07b0 1846     		mov	r0, r3
 3553 07b2 FFF7FEFF 		bl	_ZN3r2p10Bootloader7get_appEPKc
 3554 07b6 0490     		str	r0, [sp, #16]
 3555              		.loc 15 314 0
 3556 07b8 049B     		ldr	r3, [sp, #16]
 3557 07ba 002B     		cmp	r3, #0
 3558 07bc 06D1     		bne	.L244
 3559              		.loc 15 315 0
 3560 07be 0198     		ldr	r0, [sp, #4]
 3561 07c0 40F23B11 		movw	r1, #315
 3562 07c4 414A     		ldr	r2, .L258
 3563 07c6 FFF7FEFF 		bl	_ZN3r2p10Bootloader16do_release_errorEmPKc
 3564              		.loc 15 316 0
 3565 07ca 7CE0     		b	.L237
 3566              	.L244:
 3567              		.loc 15 318 0
 3568 07cc 059B     		ldr	r3, [sp, #20]
 3569 07ce 1B68     		ldr	r3, [r3]	@ unaligned
 3570              		.loc 15 320 0
 3571 07d0 B3F1FF3F 		cmp	r3, #-1
 3572 07d4 05D0     		beq	.L245
 3573              		.loc 15 319 0 discriminator 1
 3574 07d6 049B     		ldr	r3, [sp, #16]
 3575 07d8 9A69     		ldr	r2, [r3, #24]
 3576 07da 059B     		ldr	r3, [sp, #20]
 3577 07dc 1B68     		ldr	r3, [r3]	@ unaligned
 3578              		.loc 15 320 0 discriminator 1
 3579 07de 1344     		add	r3, r3, r2
 3580 07e0 01E0     		b	.L246
 3581              	.L245:
 3582              		.loc 15 320 0 is_stmt 0 discriminator 2
 3583 07e2 049B     		ldr	r3, [sp, #16]
 3584 07e4 4033     		adds	r3, r3, #64
 3585              	.L246:
 3586              		.loc 15 320 0 discriminator 4
 3587 07e6 0793     		str	r3, [sp, #28]
 3588              		.loc 15 321 0 is_stmt 1 discriminator 4
ARM GAS  /tmp/cc5OZvFd.s 			page 64


 3589 07e8 059B     		ldr	r3, [sp, #20]
 3590 07ea 1B7B     		ldrb	r3, [r3, #12]	@ zero_extendqisi2
 3591 07ec 1946     		mov	r1, r3
 3592 07ee 049B     		ldr	r3, [sp, #16]
 3593 07f0 9A69     		ldr	r2, [r3, #24]
 3594 07f2 049B     		ldr	r3, [sp, #16]
 3595 07f4 DB69     		ldr	r3, [r3, #28]
 3596 07f6 0798     		ldr	r0, [sp, #28]
 3597 07f8 FFF7FEFF 		bl	_ZN3r2p12check_boundsEPKvjS1_j
 3598 07fc 0346     		mov	r3, r0
 3599 07fe 83F00103 		eor	r3, r3, #1
 3600 0802 DBB2     		uxtb	r3, r3
 3601 0804 002B     		cmp	r3, #0
 3602 0806 12D0     		beq	.L247
 3603              		.loc 15 323 0 discriminator 1
 3604 0808 059B     		ldr	r3, [sp, #20]
 3605 080a 1B7B     		ldrb	r3, [r3, #12]	@ zero_extendqisi2
 3606 080c 1A46     		mov	r2, r3
 3607 080e 049B     		ldr	r3, [sp, #16]
 3608 0810 4033     		adds	r3, r3, #64
 3609 0812 0798     		ldr	r0, [sp, #28]
 3610 0814 1146     		mov	r1, r2
 3611 0816 1A46     		mov	r2, r3
 3612 0818 0423     		movs	r3, #4
 3613 081a FFF7FEFF 		bl	_ZN3r2p12check_boundsEPKvjS1_j
 3614 081e 0346     		mov	r3, r0
 3615 0820 83F00103 		eor	r3, r3, #1
 3616 0824 DBB2     		uxtb	r3, r3
 3617              		.loc 15 321 0 discriminator 1
 3618 0826 002B     		cmp	r3, #0
 3619 0828 01D0     		beq	.L247
 3620              		.loc 15 321 0 is_stmt 0 discriminator 3
 3621 082a 0123     		movs	r3, #1
 3622 082c 00E0     		b	.L248
 3623              	.L247:
 3624              		.loc 15 321 0 discriminator 4
 3625 082e 0023     		movs	r3, #0
 3626              	.L248:
 3627              		.loc 15 321 0 discriminator 6
 3628 0830 002B     		cmp	r3, #0
 3629 0832 06D0     		beq	.L249
 3630              		.loc 15 324 0 is_stmt 1
 3631 0834 0198     		ldr	r0, [sp, #4]
 3632 0836 4FF4A271 		mov	r1, #324
 3633 083a 244A     		ldr	r2, .L258
 3634 083c FFF7FEFF 		bl	_ZN3r2p10Bootloader16do_release_errorEmPKc
 3635              		.loc 15 325 0
 3636 0840 41E0     		b	.L237
 3637              	.L249:
 3638              		.loc 15 327 0
 3639 0842 059B     		ldr	r3, [sp, #20]
 3640 0844 1B7B     		ldrb	r3, [r3, #12]	@ zero_extendqisi2
 3641 0846 0693     		str	r3, [sp, #24]
 3642              		.loc 15 328 0
 3643 0848 0198     		ldr	r0, [sp, #4]
 3644 084a FFF7FEFF 		bl	_ZN3r2p10Bootloader7releaseEv
 3645              		.loc 15 331 0
ARM GAS  /tmp/cc5OZvFd.s 			page 65


 3646 084e 36E0     		b	.L250
 3647              	.L254:
 3648              	.LBB45:
 3649              		.loc 15 332 0
 3650 0850 0198     		ldr	r0, [sp, #4]
 3651 0852 1221     		movs	r1, #18
 3652 0854 FFF7FEFF 		bl	_ZN3r2p10Bootloader5allocENS_7BootMsg8TypeEnumE
 3653              		.loc 15 333 0
 3654 0858 019B     		ldr	r3, [sp, #4]
 3655 085a DB69     		ldr	r3, [r3, #28]
 3656 085c 0233     		adds	r3, r3, #2
 3657 085e 0393     		str	r3, [sp, #12]
 3658              		.loc 15 334 0
 3659 0860 069B     		ldr	r3, [sp, #24]
 3660 0862 0F2B     		cmp	r3, #15
 3661 0864 0CD9     		bls	.L251
 3662              		.loc 15 335 0
 3663 0866 039B     		ldr	r3, [sp, #12]
 3664 0868 1846     		mov	r0, r3
 3665 086a 0799     		ldr	r1, [sp, #28]
 3666 086c 1022     		movs	r2, #16
 3667 086e FFF7FEFF 		bl	memcpy
 3668              		.loc 15 336 0
 3669 0872 079B     		ldr	r3, [sp, #28]
 3670 0874 1033     		adds	r3, r3, #16
 3671 0876 0793     		str	r3, [sp, #28]
 3672              		.loc 15 337 0
 3673 0878 069B     		ldr	r3, [sp, #24]
 3674 087a 103B     		subs	r3, r3, #16
 3675 087c 0693     		str	r3, [sp, #24]
 3676 087e 07E0     		b	.L252
 3677              	.L251:
 3678              		.loc 15 339 0
 3679 0880 039B     		ldr	r3, [sp, #12]
 3680 0882 1846     		mov	r0, r3
 3681 0884 0799     		ldr	r1, [sp, #28]
 3682 0886 069A     		ldr	r2, [sp, #24]
 3683 0888 FFF7FEFF 		bl	memcpy
 3684              		.loc 15 340 0
 3685 088c 0023     		movs	r3, #0
 3686 088e 0693     		str	r3, [sp, #24]
 3687              	.L252:
 3688              		.loc 15 342 0
 3689 0890 0198     		ldr	r0, [sp, #4]
 3690 0892 FFF7FEFF 		bl	_ZN3r2p10Bootloader7publishEv
 3691              		.loc 15 343 0
 3692 0896 0198     		ldr	r0, [sp, #4]
 3693 0898 0121     		movs	r1, #1
 3694 089a FFF7FEFF 		bl	_ZN3r2p10Bootloader5fetchENS_7BootMsg8TypeEnumE
 3695 089e 0346     		mov	r3, r0
 3696 08a0 83F00103 		eor	r3, r3, #1
 3697 08a4 DBB2     		uxtb	r3, r3
 3698 08a6 002B     		cmp	r3, #0
 3699 08a8 06D0     		beq	.L253
 3700              		.loc 15 344 0
 3701 08aa 0198     		ldr	r0, [sp, #4]
 3702 08ac 4FF4AC71 		mov	r1, #344
ARM GAS  /tmp/cc5OZvFd.s 			page 66


 3703 08b0 064A     		ldr	r2, .L258
 3704 08b2 FFF7FEFF 		bl	_ZN3r2p10Bootloader16do_release_errorEmPKc
 3705              		.loc 15 345 0
 3706 08b6 06E0     		b	.L237
 3707              	.L253:
 3708              		.loc 15 347 0
 3709 08b8 0198     		ldr	r0, [sp, #4]
 3710 08ba FFF7FEFF 		bl	_ZN3r2p10Bootloader7releaseEv
 3711              	.L250:
 3712              	.LBE45:
 3713              		.loc 15 331 0
 3714 08be 069B     		ldr	r3, [sp, #24]
 3715 08c0 002B     		cmp	r3, #0
 3716 08c2 C5D1     		bne	.L254
 3717              	.LBE44:
 3718              		.loc 15 349 0
 3719 08c4 48E7     		b	.L255
 3720              	.L237:
 3721              	.LBE43:
 3722              	.LBE42:
 3723              		.loc 15 350 0
 3724 08c6 09B0     		add	sp, sp, #36
 3725              		.cfi_def_cfa_offset 4
 3726              		@ sp needed
 3727 08c8 5DF804FB 		ldr	pc, [sp], #4
 3728              	.L259:
 3729              		.align	2
 3730              	.L258:
 3731 08cc 14000000 		.word	.LC1
 3732              		.cfi_endproc
 3733              	.LFE415:
 3734              		.size	_ZN3r2p10Bootloader11do_getparamEv, .-_ZN3r2p10Bootloader11do_getparamEv
 3735              		.align	2
 3736              		.global	_ZN3r2p10Bootloader11do_setparamEv
 3737              		.thumb
 3738              		.thumb_func
 3739              		.type	_ZN3r2p10Bootloader11do_setparamEv, %function
 3740              	_ZN3r2p10Bootloader11do_setparamEv:
 3741              	.LFB416:
 3742              		.loc 15 353 0
 3743              		.cfi_startproc
 3744              		@ args = 0, pretend = 0, frame = 32
 3745              		@ frame_needed = 0, uses_anonymous_args = 0
 3746 08d0 00B5     		push	{lr}
 3747              		.cfi_def_cfa_offset 4
 3748              		.cfi_offset 14, -4
 3749 08d2 89B0     		sub	sp, sp, #36
 3750              		.cfi_def_cfa_offset 40
 3751 08d4 0190     		str	r0, [sp, #4]
 3752              	.LBB46:
 3753              		.loc 15 357 0
 3754 08d6 0198     		ldr	r0, [sp, #4]
 3755 08d8 FFF7FEFF 		bl	_ZN3r2p10Bootloader6do_ackEv
 3756              	.L280:
 3757              	.LBB47:
 3758              	.LBB48:
 3759              		.loc 15 361 0
ARM GAS  /tmp/cc5OZvFd.s 			page 67


 3760 08dc 0198     		ldr	r0, [sp, #4]
 3761 08de FFF7FEFF 		bl	_ZN3r2p10Bootloader5fetchEv
 3762              		.loc 15 362 0
 3763 08e2 019B     		ldr	r3, [sp, #4]
 3764 08e4 9B69     		ldr	r3, [r3, #24]
 3765 08e6 93F82030 		ldrb	r3, [r3, #32]	@ zero_extendqisi2
 3766 08ea 0E2B     		cmp	r3, #14
 3767 08ec 02D0     		beq	.L262
 3768 08ee 112B     		cmp	r3, #17
 3769 08f0 0ED0     		beq	.L282
 3770 08f2 06E0     		b	.L281
 3771              	.L262:
 3772              		.loc 15 365 0
 3773 08f4 0198     		ldr	r0, [sp, #4]
 3774 08f6 FFF7FEFF 		bl	_ZN3r2p10Bootloader7releaseEv
 3775              		.loc 15 366 0
 3776 08fa 0198     		ldr	r0, [sp, #4]
 3777 08fc FFF7FEFF 		bl	_ZN3r2p10Bootloader6do_ackEv
 3778              		.loc 15 367 0
 3779 0900 BEE0     		b	.L260
 3780              	.L281:
 3781              		.loc 15 370 0
 3782 0902 0198     		ldr	r0, [sp, #4]
 3783 0904 4FF4B971 		mov	r1, #370
 3784 0908 5F4A     		ldr	r2, .L283
 3785 090a FFF7FEFF 		bl	_ZN3r2p10Bootloader16do_release_errorEmPKc
 3786              		.loc 15 371 0
 3787 090e B7E0     		b	.L260
 3788              	.L282:
 3789              		.loc 15 363 0
 3790 0910 00BF     		nop
 3791              		.loc 15 376 0
 3792 0912 019B     		ldr	r3, [sp, #4]
 3793 0914 9B69     		ldr	r3, [r3, #24]
 3794 0916 0233     		adds	r3, r3, #2
 3795 0918 0593     		str	r3, [sp, #20]
 3796              		.loc 15 377 0
 3797 091a 059B     		ldr	r3, [sp, #20]
 3798 091c 1B7B     		ldrb	r3, [r3, #12]	@ zero_extendqisi2
 3799 091e 002B     		cmp	r3, #0
 3800 0920 06D1     		bne	.L266
 3801              		.loc 15 378 0
 3802 0922 0198     		ldr	r0, [sp, #4]
 3803 0924 4FF4BD71 		mov	r1, #378
 3804 0928 574A     		ldr	r2, .L283
 3805 092a FFF7FEFF 		bl	_ZN3r2p10Bootloader16do_release_errorEmPKc
 3806              		.loc 15 379 0
 3807 092e A7E0     		b	.L260
 3808              	.L266:
 3809              		.loc 15 381 0
 3810 0930 059B     		ldr	r3, [sp, #20]
 3811 0932 0433     		adds	r3, r3, #4
 3812 0934 1846     		mov	r0, r3
 3813 0936 FFF7FEFF 		bl	_ZN3r2p10Bootloader7get_appEPKc
 3814 093a 0490     		str	r0, [sp, #16]
 3815              		.loc 15 382 0
 3816 093c 049B     		ldr	r3, [sp, #16]
ARM GAS  /tmp/cc5OZvFd.s 			page 68


 3817 093e 002B     		cmp	r3, #0
 3818 0940 06D1     		bne	.L267
 3819              		.loc 15 383 0
 3820 0942 0198     		ldr	r0, [sp, #4]
 3821 0944 40F27F11 		movw	r1, #383
 3822 0948 4F4A     		ldr	r2, .L283
 3823 094a FFF7FEFF 		bl	_ZN3r2p10Bootloader16do_release_errorEmPKc
 3824              		.loc 15 384 0
 3825 094e 97E0     		b	.L260
 3826              	.L267:
 3827              		.loc 15 386 0
 3828 0950 059B     		ldr	r3, [sp, #20]
 3829 0952 1B68     		ldr	r3, [r3]	@ unaligned
 3830              		.loc 15 388 0
 3831 0954 B3F1FF3F 		cmp	r3, #-1
 3832 0958 05D0     		beq	.L268
 3833              		.loc 15 387 0 discriminator 1
 3834 095a 049B     		ldr	r3, [sp, #16]
 3835 095c 9A69     		ldr	r2, [r3, #24]
 3836 095e 059B     		ldr	r3, [sp, #20]
 3837 0960 1B68     		ldr	r3, [r3]	@ unaligned
 3838              		.loc 15 388 0 discriminator 1
 3839 0962 1344     		add	r3, r3, r2
 3840 0964 01E0     		b	.L269
 3841              	.L268:
 3842              		.loc 15 388 0 is_stmt 0 discriminator 2
 3843 0966 049B     		ldr	r3, [sp, #16]
 3844 0968 4033     		adds	r3, r3, #64
 3845              	.L269:
 3846              		.loc 15 388 0 discriminator 4
 3847 096a 0793     		str	r3, [sp, #28]
 3848              		.loc 15 389 0 is_stmt 1 discriminator 4
 3849 096c 059B     		ldr	r3, [sp, #20]
 3850 096e 1B7B     		ldrb	r3, [r3, #12]	@ zero_extendqisi2
 3851 0970 1946     		mov	r1, r3
 3852 0972 049B     		ldr	r3, [sp, #16]
 3853 0974 9A69     		ldr	r2, [r3, #24]
 3854 0976 049B     		ldr	r3, [sp, #16]
 3855 0978 DB69     		ldr	r3, [r3, #28]
 3856 097a 0798     		ldr	r0, [sp, #28]
 3857 097c FFF7FEFF 		bl	_ZN3r2p12check_boundsEPKvjS1_j
 3858 0980 0346     		mov	r3, r0
 3859 0982 83F00103 		eor	r3, r3, #1
 3860 0986 DBB2     		uxtb	r3, r3
 3861 0988 002B     		cmp	r3, #0
 3862 098a 12D0     		beq	.L270
 3863              		.loc 15 391 0 discriminator 1
 3864 098c 059B     		ldr	r3, [sp, #20]
 3865 098e 1B7B     		ldrb	r3, [r3, #12]	@ zero_extendqisi2
 3866 0990 1A46     		mov	r2, r3
 3867 0992 049B     		ldr	r3, [sp, #16]
 3868 0994 4033     		adds	r3, r3, #64
 3869 0996 0798     		ldr	r0, [sp, #28]
 3870 0998 1146     		mov	r1, r2
 3871 099a 1A46     		mov	r2, r3
 3872 099c 0423     		movs	r3, #4
 3873 099e FFF7FEFF 		bl	_ZN3r2p12check_boundsEPKvjS1_j
ARM GAS  /tmp/cc5OZvFd.s 			page 69


 3874 09a2 0346     		mov	r3, r0
 3875 09a4 83F00103 		eor	r3, r3, #1
 3876 09a8 DBB2     		uxtb	r3, r3
 3877              		.loc 15 389 0 discriminator 1
 3878 09aa 002B     		cmp	r3, #0
 3879 09ac 01D0     		beq	.L270
 3880              		.loc 15 389 0 is_stmt 0 discriminator 3
 3881 09ae 0123     		movs	r3, #1
 3882 09b0 00E0     		b	.L271
 3883              	.L270:
 3884              		.loc 15 389 0 discriminator 4
 3885 09b2 0023     		movs	r3, #0
 3886              	.L271:
 3887              		.loc 15 389 0 discriminator 6
 3888 09b4 002B     		cmp	r3, #0
 3889 09b6 06D0     		beq	.L272
 3890              		.loc 15 392 0 is_stmt 1
 3891 09b8 0198     		ldr	r0, [sp, #4]
 3892 09ba 4FF4C471 		mov	r1, #392
 3893 09be 324A     		ldr	r2, .L283
 3894 09c0 FFF7FEFF 		bl	_ZN3r2p10Bootloader16do_release_errorEmPKc
 3895              		.loc 15 393 0
 3896 09c4 5CE0     		b	.L260
 3897              	.L272:
 3898              		.loc 15 395 0
 3899 09c6 059B     		ldr	r3, [sp, #20]
 3900 09c8 1B7B     		ldrb	r3, [r3, #12]	@ zero_extendqisi2
 3901 09ca 0693     		str	r3, [sp, #24]
 3902              		.loc 15 396 0
 3903 09cc 0198     		ldr	r0, [sp, #4]
 3904 09ce FFF7FEFF 		bl	_ZN3r2p10Bootloader7releaseEv
 3905              		.loc 15 397 0
 3906 09d2 0198     		ldr	r0, [sp, #4]
 3907 09d4 FFF7FEFF 		bl	_ZN3r2p10Bootloader6do_ackEv
 3908              		.loc 15 400 0
 3909 09d8 4EE0     		b	.L273
 3910              	.L279:
 3911              	.LBB49:
 3912              		.loc 15 401 0
 3913 09da 0198     		ldr	r0, [sp, #4]
 3914 09dc 1221     		movs	r1, #18
 3915 09de FFF7FEFF 		bl	_ZN3r2p10Bootloader5fetchENS_7BootMsg8TypeEnumE
 3916 09e2 0346     		mov	r3, r0
 3917 09e4 83F00103 		eor	r3, r3, #1
 3918 09e8 DBB2     		uxtb	r3, r3
 3919 09ea 002B     		cmp	r3, #0
 3920 09ec 06D0     		beq	.L274
 3921              		.loc 15 402 0
 3922 09ee 0198     		ldr	r0, [sp, #4]
 3923 09f0 4FF4C971 		mov	r1, #402
 3924 09f4 244A     		ldr	r2, .L283
 3925 09f6 FFF7FEFF 		bl	_ZN3r2p10Bootloader16do_release_errorEmPKc
 3926              		.loc 15 403 0
 3927 09fa 41E0     		b	.L260
 3928              	.L274:
 3929              		.loc 15 405 0
 3930 09fc 019B     		ldr	r3, [sp, #4]
ARM GAS  /tmp/cc5OZvFd.s 			page 70


 3931 09fe 9B69     		ldr	r3, [r3, #24]
 3932 0a00 0233     		adds	r3, r3, #2
 3933 0a02 0393     		str	r3, [sp, #12]
 3934              		.loc 15 406 0
 3935 0a04 069B     		ldr	r3, [sp, #24]
 3936 0a06 0F2B     		cmp	r3, #15
 3937 0a08 1AD9     		bls	.L275
 3938              		.loc 15 407 0
 3939 0a0a 039B     		ldr	r3, [sp, #12]
 3940 0a0c 0198     		ldr	r0, [sp, #4]
 3941 0a0e 0799     		ldr	r1, [sp, #28]
 3942 0a10 1A46     		mov	r2, r3
 3943 0a12 1023     		movs	r3, #16
 3944 0a14 FFF7FEFF 		bl	_ZN3r2p10Bootloader5writeEPKvS2_j
 3945 0a18 0346     		mov	r3, r0
 3946 0a1a 83F00103 		eor	r3, r3, #1
 3947 0a1e DBB2     		uxtb	r3, r3
 3948 0a20 002B     		cmp	r3, #0
 3949 0a22 06D0     		beq	.L276
 3950              		.loc 15 408 0
 3951 0a24 0198     		ldr	r0, [sp, #4]
 3952 0a26 4FF4CC71 		mov	r1, #408
 3953 0a2a 174A     		ldr	r2, .L283
 3954 0a2c FFF7FEFF 		bl	_ZN3r2p10Bootloader16do_release_errorEmPKc
 3955              		.loc 15 409 0
 3956 0a30 26E0     		b	.L260
 3957              	.L276:
 3958              		.loc 15 411 0
 3959 0a32 079B     		ldr	r3, [sp, #28]
 3960 0a34 1033     		adds	r3, r3, #16
 3961 0a36 0793     		str	r3, [sp, #28]
 3962              		.loc 15 412 0
 3963 0a38 069B     		ldr	r3, [sp, #24]
 3964 0a3a 103B     		subs	r3, r3, #16
 3965 0a3c 0693     		str	r3, [sp, #24]
 3966 0a3e 15E0     		b	.L277
 3967              	.L275:
 3968              		.loc 15 414 0
 3969 0a40 039B     		ldr	r3, [sp, #12]
 3970 0a42 0198     		ldr	r0, [sp, #4]
 3971 0a44 0799     		ldr	r1, [sp, #28]
 3972 0a46 1A46     		mov	r2, r3
 3973 0a48 069B     		ldr	r3, [sp, #24]
 3974 0a4a FFF7FEFF 		bl	_ZN3r2p10Bootloader5writeEPKvS2_j
 3975 0a4e 0346     		mov	r3, r0
 3976 0a50 83F00103 		eor	r3, r3, #1
 3977 0a54 DBB2     		uxtb	r3, r3
 3978 0a56 002B     		cmp	r3, #0
 3979 0a58 06D0     		beq	.L278
 3980              		.loc 15 415 0
 3981 0a5a 0198     		ldr	r0, [sp, #4]
 3982 0a5c 40F29F11 		movw	r1, #415
 3983 0a60 094A     		ldr	r2, .L283
 3984 0a62 FFF7FEFF 		bl	_ZN3r2p10Bootloader16do_release_errorEmPKc
 3985              		.loc 15 416 0
 3986 0a66 0BE0     		b	.L260
 3987              	.L278:
ARM GAS  /tmp/cc5OZvFd.s 			page 71


 3988              		.loc 15 418 0
 3989 0a68 0023     		movs	r3, #0
 3990 0a6a 0693     		str	r3, [sp, #24]
 3991              	.L277:
 3992              		.loc 15 420 0
 3993 0a6c 0198     		ldr	r0, [sp, #4]
 3994 0a6e FFF7FEFF 		bl	_ZN3r2p10Bootloader7releaseEv
 3995              		.loc 15 421 0
 3996 0a72 0198     		ldr	r0, [sp, #4]
 3997 0a74 FFF7FEFF 		bl	_ZN3r2p10Bootloader6do_ackEv
 3998              	.L273:
 3999              	.LBE49:
 4000              		.loc 15 400 0
 4001 0a78 069B     		ldr	r3, [sp, #24]
 4002 0a7a 002B     		cmp	r3, #0
 4003 0a7c ADD1     		bne	.L279
 4004              	.LBE48:
 4005              		.loc 15 423 0
 4006 0a7e 2DE7     		b	.L280
 4007              	.L260:
 4008              	.LBE47:
 4009              	.LBE46:
 4010              		.loc 15 424 0
 4011 0a80 09B0     		add	sp, sp, #36
 4012              		.cfi_def_cfa_offset 4
 4013              		@ sp needed
 4014 0a82 5DF804FB 		ldr	pc, [sp], #4
 4015              	.L284:
 4016 0a86 00BF     		.align	2
 4017              	.L283:
 4018 0a88 14000000 		.word	.LC1
 4019              		.cfi_endproc
 4020              	.LFE416:
 4021              		.size	_ZN3r2p10Bootloader11do_setparamEv, .-_ZN3r2p10Bootloader11do_setparamEv
 4022              		.align	2
 4023              		.global	_ZN3r2p10Bootloader6do_ackEv
 4024              		.thumb
 4025              		.thumb_func
 4026              		.type	_ZN3r2p10Bootloader6do_ackEv, %function
 4027              	_ZN3r2p10Bootloader6do_ackEv:
 4028              	.LFB417:
 4029              		.loc 15 427 0
 4030              		.cfi_startproc
 4031              		@ args = 0, pretend = 0, frame = 8
 4032              		@ frame_needed = 0, uses_anonymous_args = 0
 4033 0a8c 00B5     		push	{lr}
 4034              		.cfi_def_cfa_offset 4
 4035              		.cfi_offset 14, -4
 4036 0a8e 83B0     		sub	sp, sp, #12
 4037              		.cfi_def_cfa_offset 16
 4038 0a90 0190     		str	r0, [sp, #4]
 4039              		.loc 15 429 0
 4040 0a92 0198     		ldr	r0, [sp, #4]
 4041 0a94 0121     		movs	r1, #1
 4042 0a96 FFF7FEFF 		bl	_ZN3r2p10Bootloader5allocENS_7BootMsg8TypeEnumE
 4043              		.loc 15 430 0
 4044 0a9a 0198     		ldr	r0, [sp, #4]
ARM GAS  /tmp/cc5OZvFd.s 			page 72


 4045 0a9c FFF7FEFF 		bl	_ZN3r2p10Bootloader7publishEv
 4046              		.loc 15 431 0
 4047 0aa0 03B0     		add	sp, sp, #12
 4048              		.cfi_def_cfa_offset 4
 4049              		@ sp needed
 4050 0aa2 5DF804FB 		ldr	pc, [sp], #4
 4051              		.cfi_endproc
 4052              	.LFE417:
 4053              		.size	_ZN3r2p10Bootloader6do_ackEv, .-_ZN3r2p10Bootloader6do_ackEv
 4054 0aa6 00BF     		.align	2
 4055              		.global	_ZN3r2p10Bootloader8do_errorEmPKc
 4056              		.thumb
 4057              		.thumb_func
 4058              		.type	_ZN3r2p10Bootloader8do_errorEmPKc, %function
 4059              	_ZN3r2p10Bootloader8do_errorEmPKc:
 4060              	.LFB418:
 4061              		.loc 15 434 0
 4062              		.cfi_startproc
 4063              		@ args = 0, pretend = 0, frame = 16
 4064              		@ frame_needed = 0, uses_anonymous_args = 0
 4065 0aa8 00B5     		push	{lr}
 4066              		.cfi_def_cfa_offset 4
 4067              		.cfi_offset 14, -4
 4068 0aaa 85B0     		sub	sp, sp, #20
 4069              		.cfi_def_cfa_offset 24
 4070 0aac 0390     		str	r0, [sp, #12]
 4071 0aae 0291     		str	r1, [sp, #8]
 4072 0ab0 0192     		str	r2, [sp, #4]
 4073              		.loc 15 436 0
 4074 0ab2 0398     		ldr	r0, [sp, #12]
 4075 0ab4 0021     		movs	r1, #0
 4076 0ab6 FFF7FEFF 		bl	_ZN3r2p10Bootloader5allocENS_7BootMsg8TypeEnumE
 4077              		.loc 15 437 0
 4078 0aba 039B     		ldr	r3, [sp, #12]
 4079 0abc DB69     		ldr	r3, [r3, #28]
 4080 0abe 029A     		ldr	r2, [sp, #8]
 4081 0ac0 92B2     		uxth	r2, r2
 4082 0ac2 5A80     		strh	r2, [r3, #2]	@ unaligned
 4083              		.loc 15 439 0
 4084 0ac4 039B     		ldr	r3, [sp, #12]
 4085 0ac6 DB69     		ldr	r3, [r3, #28]
 4086 0ac8 0633     		adds	r3, r3, #6
 4087 0aca 1846     		mov	r0, r3
 4088 0acc 0199     		ldr	r1, [sp, #4]
 4089 0ace 1822     		movs	r2, #24
 4090 0ad0 FFF7FEFF 		bl	strncpy
 4091              		.loc 15 440 0
 4092 0ad4 0398     		ldr	r0, [sp, #12]
 4093 0ad6 FFF7FEFF 		bl	_ZN3r2p10Bootloader7publishEv
 4094              		.loc 15 441 0
 4095 0ada 05B0     		add	sp, sp, #20
 4096              		.cfi_def_cfa_offset 4
 4097              		@ sp needed
 4098 0adc 5DF804FB 		ldr	pc, [sp], #4
 4099              		.cfi_endproc
 4100              	.LFE418:
 4101              		.size	_ZN3r2p10Bootloader8do_errorEmPKc, .-_ZN3r2p10Bootloader8do_errorEmPKc
ARM GAS  /tmp/cc5OZvFd.s 			page 73


 4102              		.align	2
 4103              		.global	_ZN3r2p10Bootloader16do_release_errorEmPKc
 4104              		.thumb
 4105              		.thumb_func
 4106              		.type	_ZN3r2p10Bootloader16do_release_errorEmPKc, %function
 4107              	_ZN3r2p10Bootloader16do_release_errorEmPKc:
 4108              	.LFB419:
 4109              		.loc 15 444 0
 4110              		.cfi_startproc
 4111              		@ args = 0, pretend = 0, frame = 16
 4112              		@ frame_needed = 0, uses_anonymous_args = 0
 4113 0ae0 00B5     		push	{lr}
 4114              		.cfi_def_cfa_offset 4
 4115              		.cfi_offset 14, -4
 4116 0ae2 85B0     		sub	sp, sp, #20
 4117              		.cfi_def_cfa_offset 24
 4118 0ae4 0390     		str	r0, [sp, #12]
 4119 0ae6 0291     		str	r1, [sp, #8]
 4120 0ae8 0192     		str	r2, [sp, #4]
 4121              		.loc 15 446 0
 4122 0aea 0398     		ldr	r0, [sp, #12]
 4123 0aec FFF7FEFF 		bl	_ZN3r2p10Bootloader7releaseEv
 4124              		.loc 15 447 0
 4125 0af0 0398     		ldr	r0, [sp, #12]
 4126 0af2 0021     		movs	r1, #0
 4127 0af4 FFF7FEFF 		bl	_ZN3r2p10Bootloader5allocENS_7BootMsg8TypeEnumE
 4128              		.loc 15 448 0
 4129 0af8 039B     		ldr	r3, [sp, #12]
 4130 0afa DB69     		ldr	r3, [r3, #28]
 4131 0afc 029A     		ldr	r2, [sp, #8]
 4132 0afe 92B2     		uxth	r2, r2
 4133 0b00 5A80     		strh	r2, [r3, #2]	@ unaligned
 4134              		.loc 15 450 0
 4135 0b02 039B     		ldr	r3, [sp, #12]
 4136 0b04 DB69     		ldr	r3, [r3, #28]
 4137 0b06 0633     		adds	r3, r3, #6
 4138 0b08 1846     		mov	r0, r3
 4139 0b0a 0199     		ldr	r1, [sp, #4]
 4140 0b0c 1822     		movs	r2, #24
 4141 0b0e FFF7FEFF 		bl	strncpy
 4142              		.loc 15 451 0
 4143 0b12 0398     		ldr	r0, [sp, #12]
 4144 0b14 FFF7FEFF 		bl	_ZN3r2p10Bootloader7publishEv
 4145              		.loc 15 452 0
 4146 0b18 05B0     		add	sp, sp, #20
 4147              		.cfi_def_cfa_offset 4
 4148              		@ sp needed
 4149 0b1a 5DF804FB 		ldr	pc, [sp], #4
 4150              		.cfi_endproc
 4151              	.LFE419:
 4152              		.size	_ZN3r2p10Bootloader16do_release_errorEmPKc, .-_ZN3r2p10Bootloader16do_release_errorEmPKc
 4153 0b1e 00BF     		.align	2
 4154              		.global	_ZN3r2p10Bootloader13write_appinfoEPKNS0_12FlashAppInfoERKNS_7BootMsg12LinkingSetupERKNS4_
 4155              		.thumb
 4156              		.thumb_func
 4157              		.type	_ZN3r2p10Bootloader13write_appinfoEPKNS0_12FlashAppInfoERKNS_7BootMsg12LinkingSetupERKNS4_16
 4158              	_ZN3r2p10Bootloader13write_appinfoEPKNS0_12FlashAppInfoERKNS_7BootMsg12LinkingSetupERKNS4_16Linking
ARM GAS  /tmp/cc5OZvFd.s 			page 74


 4159              	.LFB420:
 4160              		.loc 15 458 0
 4161              		.cfi_startproc
 4162              		@ args = 4, pretend = 0, frame = 24
 4163              		@ frame_needed = 0, uses_anonymous_args = 0
 4164 0b20 00B5     		push	{lr}
 4165              		.cfi_def_cfa_offset 4
 4166              		.cfi_offset 14, -4
 4167 0b22 87B0     		sub	sp, sp, #28
 4168              		.cfi_def_cfa_offset 32
 4169 0b24 0390     		str	r0, [sp, #12]
 4170 0b26 0291     		str	r1, [sp, #8]
 4171 0b28 0192     		str	r2, [sp, #4]
 4172 0b2a 0093     		str	r3, [sp]
 4173              	.LBB50:
 4174              		.loc 15 465 0
 4175 0b2c 984B     		ldr	r3, .L307
 4176 0b2e 0593     		str	r3, [sp, #20]
 4177              		.loc 15 466 0
 4178 0b30 029A     		ldr	r2, [sp, #8]
 4179 0b32 05AB     		add	r3, sp, #20
 4180 0b34 0398     		ldr	r0, [sp, #12]
 4181 0b36 1146     		mov	r1, r2
 4182 0b38 1A46     		mov	r2, r3
 4183 0b3a 0423     		movs	r3, #4
 4184 0b3c FFF7FEFF 		bl	_ZN3r2p10Bootloader5writeEPKvS2_j
 4185 0b40 0346     		mov	r3, r0
 4186 0b42 83F00103 		eor	r3, r3, #1
 4187 0b46 DBB2     		uxtb	r3, r3
 4188 0b48 002B     		cmp	r3, #0
 4189 0b4a 01D0     		beq	.L289
 4190              		.loc 15 466 0 is_stmt 0 discriminator 1
 4191 0b4c 0023     		movs	r3, #0
 4192 0b4e 1AE1     		b	.L306
 4193              	.L289:
 4194              		.loc 15 467 0 is_stmt 1
 4195 0b50 029B     		ldr	r3, [sp, #8]
 4196 0b52 1A1D     		adds	r2, r3, #4
 4197 0b54 019B     		ldr	r3, [sp, #4]
 4198 0b56 0398     		ldr	r0, [sp, #12]
 4199 0b58 1146     		mov	r1, r2
 4200 0b5a 1A46     		mov	r2, r3
 4201 0b5c 0423     		movs	r3, #4
 4202 0b5e FFF7FEFF 		bl	_ZN3r2p10Bootloader5writeEPKvS2_j
 4203 0b62 0346     		mov	r3, r0
 4204 0b64 83F00103 		eor	r3, r3, #1
 4205 0b68 DBB2     		uxtb	r3, r3
 4206 0b6a 002B     		cmp	r3, #0
 4207 0b6c 01D0     		beq	.L291
 4208              		.loc 15 467 0 is_stmt 0 discriminator 1
 4209 0b6e 0023     		movs	r3, #0
 4210 0b70 09E1     		b	.L306
 4211              	.L291:
 4212              		.loc 15 468 0 is_stmt 1
 4213 0b72 029B     		ldr	r3, [sp, #8]
 4214 0b74 03F10802 		add	r2, r3, #8
 4215 0b78 019B     		ldr	r3, [sp, #4]
ARM GAS  /tmp/cc5OZvFd.s 			page 75


 4216 0b7a 0433     		adds	r3, r3, #4
 4217 0b7c 0398     		ldr	r0, [sp, #12]
 4218 0b7e 1146     		mov	r1, r2
 4219 0b80 1A46     		mov	r2, r3
 4220 0b82 0423     		movs	r3, #4
 4221 0b84 FFF7FEFF 		bl	_ZN3r2p10Bootloader5writeEPKvS2_j
 4222 0b88 0346     		mov	r3, r0
 4223 0b8a 83F00103 		eor	r3, r3, #1
 4224 0b8e DBB2     		uxtb	r3, r3
 4225 0b90 002B     		cmp	r3, #0
 4226 0b92 01D0     		beq	.L292
 4227              		.loc 15 468 0 is_stmt 0 discriminator 1
 4228 0b94 0023     		movs	r3, #0
 4229 0b96 F6E0     		b	.L306
 4230              	.L292:
 4231              		.loc 15 469 0 is_stmt 1
 4232 0b98 029B     		ldr	r3, [sp, #8]
 4233 0b9a 03F10C02 		add	r2, r3, #12
 4234 0b9e 019B     		ldr	r3, [sp, #4]
 4235 0ba0 0833     		adds	r3, r3, #8
 4236 0ba2 0398     		ldr	r0, [sp, #12]
 4237 0ba4 1146     		mov	r1, r2
 4238 0ba6 1A46     		mov	r2, r3
 4239 0ba8 0423     		movs	r3, #4
 4240 0baa FFF7FEFF 		bl	_ZN3r2p10Bootloader5writeEPKvS2_j
 4241 0bae 0346     		mov	r3, r0
 4242 0bb0 83F00103 		eor	r3, r3, #1
 4243 0bb4 DBB2     		uxtb	r3, r3
 4244 0bb6 002B     		cmp	r3, #0
 4245 0bb8 01D0     		beq	.L293
 4246              		.loc 15 469 0 is_stmt 0 discriminator 1
 4247 0bba 0023     		movs	r3, #0
 4248 0bbc E3E0     		b	.L306
 4249              	.L293:
 4250              		.loc 15 470 0 is_stmt 1
 4251 0bbe 029B     		ldr	r3, [sp, #8]
 4252 0bc0 03F11002 		add	r2, r3, #16
 4253 0bc4 009B     		ldr	r3, [sp]
 4254 0bc6 0833     		adds	r3, r3, #8
 4255 0bc8 0398     		ldr	r0, [sp, #12]
 4256 0bca 1146     		mov	r1, r2
 4257 0bcc 1A46     		mov	r2, r3
 4258 0bce 0423     		movs	r3, #4
 4259 0bd0 FFF7FEFF 		bl	_ZN3r2p10Bootloader5writeEPKvS2_j
 4260 0bd4 0346     		mov	r3, r0
 4261 0bd6 83F00103 		eor	r3, r3, #1
 4262 0bda DBB2     		uxtb	r3, r3
 4263 0bdc 002B     		cmp	r3, #0
 4264 0bde 01D0     		beq	.L294
 4265              		.loc 15 470 0 is_stmt 0 discriminator 1
 4266 0be0 0023     		movs	r3, #0
 4267 0be2 D0E0     		b	.L306
 4268              	.L294:
 4269              		.loc 15 471 0 is_stmt 1
 4270 0be4 029B     		ldr	r3, [sp, #8]
 4271 0be6 03F11402 		add	r2, r3, #20
 4272 0bea 009B     		ldr	r3, [sp]
ARM GAS  /tmp/cc5OZvFd.s 			page 76


 4273 0bec 0C33     		adds	r3, r3, #12
 4274 0bee 0398     		ldr	r0, [sp, #12]
 4275 0bf0 1146     		mov	r1, r2
 4276 0bf2 1A46     		mov	r2, r3
 4277 0bf4 0423     		movs	r3, #4
 4278 0bf6 FFF7FEFF 		bl	_ZN3r2p10Bootloader5writeEPKvS2_j
 4279 0bfa 0346     		mov	r3, r0
 4280 0bfc 83F00103 		eor	r3, r3, #1
 4281 0c00 DBB2     		uxtb	r3, r3
 4282 0c02 002B     		cmp	r3, #0
 4283 0c04 01D0     		beq	.L295
 4284              		.loc 15 471 0 is_stmt 0 discriminator 1
 4285 0c06 0023     		movs	r3, #0
 4286 0c08 BDE0     		b	.L306
 4287              	.L295:
 4288              		.loc 15 472 0 is_stmt 1
 4289 0c0a 029B     		ldr	r3, [sp, #8]
 4290 0c0c 03F11802 		add	r2, r3, #24
 4291 0c10 089B     		ldr	r3, [sp, #32]
 4292 0c12 0433     		adds	r3, r3, #4
 4293 0c14 0398     		ldr	r0, [sp, #12]
 4294 0c16 1146     		mov	r1, r2
 4295 0c18 1A46     		mov	r2, r3
 4296 0c1a 0423     		movs	r3, #4
 4297 0c1c FFF7FEFF 		bl	_ZN3r2p10Bootloader5writeEPKvS2_j
 4298 0c20 0346     		mov	r3, r0
 4299 0c22 83F00103 		eor	r3, r3, #1
 4300 0c26 DBB2     		uxtb	r3, r3
 4301 0c28 002B     		cmp	r3, #0
 4302 0c2a 01D0     		beq	.L296
 4303              		.loc 15 472 0 is_stmt 0 discriminator 1
 4304 0c2c 0023     		movs	r3, #0
 4305 0c2e AAE0     		b	.L306
 4306              	.L296:
 4307              		.loc 15 473 0 is_stmt 1
 4308 0c30 029B     		ldr	r3, [sp, #8]
 4309 0c32 03F11C02 		add	r2, r3, #28
 4310 0c36 089B     		ldr	r3, [sp, #32]
 4311 0c38 0833     		adds	r3, r3, #8
 4312 0c3a 0398     		ldr	r0, [sp, #12]
 4313 0c3c 1146     		mov	r1, r2
 4314 0c3e 1A46     		mov	r2, r3
 4315 0c40 0423     		movs	r3, #4
 4316 0c42 FFF7FEFF 		bl	_ZN3r2p10Bootloader5writeEPKvS2_j
 4317 0c46 0346     		mov	r3, r0
 4318 0c48 83F00103 		eor	r3, r3, #1
 4319 0c4c DBB2     		uxtb	r3, r3
 4320 0c4e 002B     		cmp	r3, #0
 4321 0c50 01D0     		beq	.L297
 4322              		.loc 15 473 0 is_stmt 0 discriminator 1
 4323 0c52 0023     		movs	r3, #0
 4324 0c54 97E0     		b	.L306
 4325              	.L297:
 4326              		.loc 15 474 0 is_stmt 1
 4327 0c56 029B     		ldr	r3, [sp, #8]
 4328 0c58 03F12002 		add	r2, r3, #32
 4329 0c5c 019B     		ldr	r3, [sp, #4]
ARM GAS  /tmp/cc5OZvFd.s 			page 77


 4330 0c5e 0C33     		adds	r3, r3, #12
 4331 0c60 0398     		ldr	r0, [sp, #12]
 4332 0c62 1146     		mov	r1, r2
 4333 0c64 1A46     		mov	r2, r3
 4334 0c66 0423     		movs	r3, #4
 4335 0c68 FFF7FEFF 		bl	_ZN3r2p10Bootloader5writeEPKvS2_j
 4336 0c6c 0346     		mov	r3, r0
 4337 0c6e 83F00103 		eor	r3, r3, #1
 4338 0c72 DBB2     		uxtb	r3, r3
 4339 0c74 002B     		cmp	r3, #0
 4340 0c76 01D0     		beq	.L298
 4341              		.loc 15 474 0 is_stmt 0 discriminator 1
 4342 0c78 0023     		movs	r3, #0
 4343 0c7a 84E0     		b	.L306
 4344              	.L298:
 4345              		.loc 15 475 0 is_stmt 1
 4346 0c7c 029B     		ldr	r3, [sp, #8]
 4347 0c7e 03F12402 		add	r2, r3, #36
 4348 0c82 089B     		ldr	r3, [sp, #32]
 4349 0c84 0398     		ldr	r0, [sp, #12]
 4350 0c86 1146     		mov	r1, r2
 4351 0c88 1A46     		mov	r2, r3
 4352 0c8a 0423     		movs	r3, #4
 4353 0c8c FFF7FEFF 		bl	_ZN3r2p10Bootloader5writeEPKvS2_j
 4354 0c90 0346     		mov	r3, r0
 4355 0c92 83F00103 		eor	r3, r3, #1
 4356 0c96 DBB2     		uxtb	r3, r3
 4357 0c98 002B     		cmp	r3, #0
 4358 0c9a 01D0     		beq	.L299
 4359              		.loc 15 475 0 is_stmt 0 discriminator 1
 4360 0c9c 0023     		movs	r3, #0
 4361 0c9e 72E0     		b	.L306
 4362              	.L299:
 4363              		.loc 15 476 0 is_stmt 1
 4364 0ca0 029B     		ldr	r3, [sp, #8]
 4365 0ca2 03F12802 		add	r2, r3, #40
 4366 0ca6 089B     		ldr	r3, [sp, #32]
 4367 0ca8 0C33     		adds	r3, r3, #12
 4368 0caa 0398     		ldr	r0, [sp, #12]
 4369 0cac 1146     		mov	r1, r2
 4370 0cae 1A46     		mov	r2, r3
 4371 0cb0 0423     		movs	r3, #4
 4372 0cb2 FFF7FEFF 		bl	_ZN3r2p10Bootloader5writeEPKvS2_j
 4373 0cb6 0346     		mov	r3, r0
 4374 0cb8 83F00103 		eor	r3, r3, #1
 4375 0cbc DBB2     		uxtb	r3, r3
 4376 0cbe 002B     		cmp	r3, #0
 4377 0cc0 01D0     		beq	.L300
 4378              		.loc 15 476 0 is_stmt 0 discriminator 1
 4379 0cc2 0023     		movs	r3, #0
 4380 0cc4 5FE0     		b	.L306
 4381              	.L300:
 4382              		.loc 15 477 0 is_stmt 1
 4383 0cc6 029B     		ldr	r3, [sp, #8]
 4384 0cc8 03F12C02 		add	r2, r3, #44
 4385 0ccc 089B     		ldr	r3, [sp, #32]
 4386 0cce 1033     		adds	r3, r3, #16
ARM GAS  /tmp/cc5OZvFd.s 			page 78


 4387 0cd0 0398     		ldr	r0, [sp, #12]
 4388 0cd2 1146     		mov	r1, r2
 4389 0cd4 1A46     		mov	r2, r3
 4390 0cd6 0423     		movs	r3, #4
 4391 0cd8 FFF7FEFF 		bl	_ZN3r2p10Bootloader5writeEPKvS2_j
 4392 0cdc 0346     		mov	r3, r0
 4393 0cde 83F00103 		eor	r3, r3, #1
 4394 0ce2 DBB2     		uxtb	r3, r3
 4395 0ce4 002B     		cmp	r3, #0
 4396 0ce6 01D0     		beq	.L301
 4397              		.loc 15 477 0 is_stmt 0 discriminator 1
 4398 0ce8 0023     		movs	r3, #0
 4399 0cea 4CE0     		b	.L306
 4400              	.L301:
 4401              		.loc 15 478 0 is_stmt 1
 4402 0cec 029B     		ldr	r3, [sp, #8]
 4403 0cee 03F13002 		add	r2, r3, #48
 4404 0cf2 089B     		ldr	r3, [sp, #32]
 4405 0cf4 1433     		adds	r3, r3, #20
 4406 0cf6 0398     		ldr	r0, [sp, #12]
 4407 0cf8 1146     		mov	r1, r2
 4408 0cfa 1A46     		mov	r2, r3
 4409 0cfc 0423     		movs	r3, #4
 4410 0cfe FFF7FEFF 		bl	_ZN3r2p10Bootloader5writeEPKvS2_j
 4411 0d02 0346     		mov	r3, r0
 4412 0d04 83F00103 		eor	r3, r3, #1
 4413 0d08 DBB2     		uxtb	r3, r3
 4414 0d0a 002B     		cmp	r3, #0
 4415 0d0c 01D0     		beq	.L302
 4416              		.loc 15 478 0 is_stmt 0 discriminator 1
 4417 0d0e 0023     		movs	r3, #0
 4418 0d10 39E0     		b	.L306
 4419              	.L302:
 4420              		.loc 15 479 0 is_stmt 1
 4421 0d12 029B     		ldr	r3, [sp, #8]
 4422 0d14 03F13402 		add	r2, r3, #52
 4423 0d18 089B     		ldr	r3, [sp, #32]
 4424 0d1a 1833     		adds	r3, r3, #24
 4425 0d1c 0398     		ldr	r0, [sp, #12]
 4426 0d1e 1146     		mov	r1, r2
 4427 0d20 1A46     		mov	r2, r3
 4428 0d22 0423     		movs	r3, #4
 4429 0d24 FFF7FEFF 		bl	_ZN3r2p10Bootloader5writeEPKvS2_j
 4430 0d28 0346     		mov	r3, r0
 4431 0d2a 83F00103 		eor	r3, r3, #1
 4432 0d2e DBB2     		uxtb	r3, r3
 4433 0d30 002B     		cmp	r3, #0
 4434 0d32 01D0     		beq	.L303
 4435              		.loc 15 479 0 is_stmt 0 discriminator 1
 4436 0d34 0023     		movs	r3, #0
 4437 0d36 26E0     		b	.L306
 4438              	.L303:
 4439              		.loc 15 480 0 is_stmt 1
 4440 0d38 029B     		ldr	r3, [sp, #8]
 4441 0d3a 03F13802 		add	r2, r3, #56
 4442 0d3e 019B     		ldr	r3, [sp, #4]
 4443 0d40 1033     		adds	r3, r3, #16
ARM GAS  /tmp/cc5OZvFd.s 			page 79


 4444 0d42 0398     		ldr	r0, [sp, #12]
 4445 0d44 1146     		mov	r1, r2
 4446 0d46 1A46     		mov	r2, r3
 4447 0d48 0823     		movs	r3, #8
 4448 0d4a FFF7FEFF 		bl	_ZN3r2p10Bootloader5writeEPKvS2_j
 4449 0d4e 0346     		mov	r3, r0
 4450 0d50 83F00103 		eor	r3, r3, #1
 4451 0d54 DBB2     		uxtb	r3, r3
 4452 0d56 002B     		cmp	r3, #0
 4453 0d58 01D0     		beq	.L304
 4454              		.loc 15 481 0
 4455 0d5a 0023     		movs	r3, #0
 4456 0d5c 13E0     		b	.L306
 4457              	.L304:
 4458              		.loc 15 483 0
 4459 0d5e 029B     		ldr	r3, [sp, #8]
 4460 0d60 03F14002 		add	r2, r3, #64
 4461 0d64 019B     		ldr	r3, [sp, #4]
 4462 0d66 1833     		adds	r3, r3, #24
 4463 0d68 0398     		ldr	r0, [sp, #12]
 4464 0d6a 1146     		mov	r1, r2
 4465 0d6c 1A46     		mov	r2, r3
 4466 0d6e 0223     		movs	r3, #2
 4467 0d70 FFF7FEFF 		bl	_ZN3r2p10Bootloader5writeEPKvS2_j
 4468 0d74 0346     		mov	r3, r0
 4469 0d76 83F00103 		eor	r3, r3, #1
 4470 0d7a DBB2     		uxtb	r3, r3
 4471 0d7c 002B     		cmp	r3, #0
 4472 0d7e 01D0     		beq	.L305
 4473              		.loc 15 483 0 is_stmt 0 discriminator 1
 4474 0d80 0023     		movs	r3, #0
 4475 0d82 00E0     		b	.L306
 4476              	.L305:
 4477              		.loc 15 484 0 is_stmt 1
 4478 0d84 0123     		movs	r3, #1
 4479              	.L306:
 4480              	.LBE50:
 4481              		.loc 15 487 0 discriminator 1
 4482 0d86 1846     		mov	r0, r3
 4483 0d88 07B0     		add	sp, sp, #28
 4484              		.cfi_def_cfa_offset 4
 4485              		@ sp needed
 4486 0d8a 5DF804FB 		ldr	pc, [sp], #4
 4487              	.L308:
 4488 0d8e 00BF     		.align	2
 4489              	.L307:
 4490 0d90 695A2C1D 		.word	489445993
 4491              		.cfi_endproc
 4492              	.LFE420:
 4493              		.size	_ZN3r2p10Bootloader13write_appinfoEPKNS0_12FlashAppInfoERKNS_7BootMsg12LinkingSetupERKNS4_16
 4494              		.align	2
 4495              		.global	_ZN3r2p10Bootloader12process_ihexERKNS_10IhexRecordERKNS_7BootMsg12LinkingSetupERKNS4_16Li
 4496              		.thumb
 4497              		.thumb_func
 4498              		.type	_ZN3r2p10Bootloader12process_ihexERKNS_10IhexRecordERKNS_7BootMsg12LinkingSetupERKNS4_16Link
 4499              	_ZN3r2p10Bootloader12process_ihexERKNS_10IhexRecordERKNS_7BootMsg12LinkingSetupERKNS4_16LinkingAddr
 4500              	.LFB421:
ARM GAS  /tmp/cc5OZvFd.s 			page 80


 4501              		.loc 15 492 0
 4502              		.cfi_startproc
 4503              		@ args = 0, pretend = 0, frame = 24
 4504              		@ frame_needed = 0, uses_anonymous_args = 0
 4505 0d94 10B5     		push	{r4, lr}
 4506              		.cfi_def_cfa_offset 8
 4507              		.cfi_offset 4, -8
 4508              		.cfi_offset 14, -4
 4509 0d96 86B0     		sub	sp, sp, #24
 4510              		.cfi_def_cfa_offset 32
 4511 0d98 0390     		str	r0, [sp, #12]
 4512 0d9a 0291     		str	r1, [sp, #8]
 4513 0d9c 0192     		str	r2, [sp, #4]
 4514 0d9e 0093     		str	r3, [sp]
 4515              	.LBB51:
 4516              		.loc 15 495 0
 4517 0da0 029B     		ldr	r3, [sp, #8]
 4518 0da2 1C7D     		ldrb	r4, [r3, #20]	@ zero_extendqisi2
 4519 0da4 0298     		ldr	r0, [sp, #8]
 4520 0da6 FFF7FEFF 		bl	_ZNK3r2p10IhexRecord16compute_checksumEv
 4521 0daa 0346     		mov	r3, r0
 4522 0dac 9C42     		cmp	r4, r3
 4523 0dae 14BF     		ite	ne
 4524 0db0 0123     		movne	r3, #1
 4525 0db2 0023     		moveq	r3, #0
 4526 0db4 DBB2     		uxtb	r3, r3
 4527 0db6 002B     		cmp	r3, #0
 4528 0db8 01D0     		beq	.L310
 4529              		.loc 15 495 0 is_stmt 0 discriminator 1
 4530 0dba 0023     		movs	r3, #0
 4531 0dbc CEE0     		b	.L311
 4532              	.L310:
 4533              	.LBB52:
 4534              		.loc 15 498 0 is_stmt 1
 4535 0dbe 029B     		ldr	r3, [sp, #8]
 4536 0dc0 DB78     		ldrb	r3, [r3, #3]	@ zero_extendqisi2
 4537 0dc2 052B     		cmp	r3, #5
 4538 0dc4 00F2C980 		bhi	.L312
 4539 0dc8 01A2     		adr	r2, .L314
 4540 0dca 52F823F0 		ldr	pc, [r2, r3, lsl #2]
 4541 0dce 00BF     		.p2align 2
 4542              	.L314:
 4543 0dd0 E90D0000 		.word	.L313+1
 4544 0dd4 930E0000 		.word	.L315+1
 4545 0dd8 B30E0000 		.word	.L316+1
 4546 0ddc E70E0000 		.word	.L317+1
 4547 0de0 070F0000 		.word	.L318+1
 4548 0de4 3B0F0000 		.word	.L319+1
 4549              		.p2align 1
 4550              	.L313:
 4551              	.LBB53:
 4552              	.LBB54:
 4553              		.loc 15 500 0
 4554 0de8 039B     		ldr	r3, [sp, #12]
 4555 0dea 1B68     		ldr	r3, [r3]
 4556 0dec 029A     		ldr	r2, [sp, #8]
 4557 0dee B2F80120 		ldrh	r2, [r2, #1]	@ unaligned
ARM GAS  /tmp/cc5OZvFd.s 			page 81


 4558 0df2 92B2     		uxth	r2, r2
 4559 0df4 1344     		add	r3, r3, r2
 4560 0df6 0593     		str	r3, [sp, #20]
 4561              		.loc 15 501 0
 4562 0df8 029B     		ldr	r3, [sp, #8]
 4563 0dfa 1B78     		ldrb	r3, [r3]	@ zero_extendqisi2
 4564 0dfc 1A46     		mov	r2, r3
 4565 0dfe 059B     		ldr	r3, [sp, #20]
 4566 0e00 1344     		add	r3, r3, r2
 4567 0e02 0493     		str	r3, [sp, #16]
 4568              		.loc 15 503 0
 4569 0e04 009B     		ldr	r3, [sp]
 4570 0e06 5A68     		ldr	r2, [r3, #4]	@ unaligned
 4571 0e08 019B     		ldr	r3, [sp, #4]
 4572 0e0a 1B68     		ldr	r3, [r3]	@ unaligned
 4573 0e0c 1A44     		add	r2, r2, r3
 4574 0e0e 049B     		ldr	r3, [sp, #16]
 4575 0e10 9A42     		cmp	r2, r3
 4576 0e12 14D3     		bcc	.L320
 4577              		.loc 15 504 0 discriminator 1
 4578 0e14 009B     		ldr	r3, [sp]
 4579 0e16 5A68     		ldr	r2, [r3, #4]	@ unaligned
 4580              		.loc 15 503 0 discriminator 1
 4581 0e18 059B     		ldr	r3, [sp, #20]
 4582 0e1a 9A42     		cmp	r2, r3
 4583 0e1c 0FD8     		bhi	.L320
 4584              		.loc 15 506 0
 4585 0e1e 039B     		ldr	r3, [sp, #12]
 4586 0e20 1B68     		ldr	r3, [r3]
 4587 0e22 029A     		ldr	r2, [sp, #8]
 4588 0e24 B2F80120 		ldrh	r2, [r2, #1]	@ unaligned
 4589 0e28 92B2     		uxth	r2, r2
 4590 0e2a 9918     		adds	r1, r3, r2
 4591 0e2c 029B     		ldr	r3, [sp, #8]
 4592 0e2e 1A1D     		adds	r2, r3, #4
 4593 0e30 029B     		ldr	r3, [sp, #8]
 4594 0e32 1B78     		ldrb	r3, [r3]	@ zero_extendqisi2
 4595 0e34 0398     		ldr	r0, [sp, #12]
 4596 0e36 FFF7FEFF 		bl	_ZN3r2p10Bootloader5writeEPKvS2_j
 4597 0e3a 0346     		mov	r3, r0
 4598 0e3c 8EE0     		b	.L311
 4599              	.L320:
 4600              		.loc 15 508 0
 4601 0e3e 009B     		ldr	r3, [sp]
 4602 0e40 1A69     		ldr	r2, [r3, #16]	@ unaligned
 4603 0e42 019B     		ldr	r3, [sp, #4]
 4604 0e44 9B68     		ldr	r3, [r3, #8]	@ unaligned
 4605 0e46 1A44     		add	r2, r2, r3
 4606 0e48 049B     		ldr	r3, [sp, #16]
 4607 0e4a 9A42     		cmp	r2, r3
 4608 0e4c 1FD3     		bcc	.L321
 4609              		.loc 15 509 0 discriminator 1
 4610 0e4e 009B     		ldr	r3, [sp]
 4611 0e50 1A69     		ldr	r2, [r3, #16]	@ unaligned
 4612              		.loc 15 508 0 discriminator 1
 4613 0e52 059B     		ldr	r3, [sp, #20]
 4614 0e54 9A42     		cmp	r2, r3
ARM GAS  /tmp/cc5OZvFd.s 			page 82


 4615 0e56 1AD8     		bhi	.L321
 4616              		.loc 15 509 0
 4617 0e58 019B     		ldr	r3, [sp, #4]
 4618 0e5a 9B68     		ldr	r3, [r3, #8]	@ unaligned
 4619 0e5c 002B     		cmp	r3, #0
 4620 0e5e 16D0     		beq	.L321
 4621              		.loc 15 511 0
 4622 0e60 009B     		ldr	r3, [sp]
 4623 0e62 1B69     		ldr	r3, [r3, #16]	@ unaligned
 4624 0e64 002B     		cmp	r3, #0
 4625 0e66 02D1     		bne	.L322
 4626              		.loc 15 511 0 is_stmt 0 discriminator 1
 4627 0e68 3E48     		ldr	r0, .L333
 4628 0e6a FFF7FEFF 		bl	chDbgPanic
 4629              	.L322:
 4630              		.loc 15 512 0 is_stmt 1
 4631 0e6e 039B     		ldr	r3, [sp, #12]
 4632 0e70 1B68     		ldr	r3, [r3]
 4633 0e72 029A     		ldr	r2, [sp, #8]
 4634 0e74 B2F80120 		ldrh	r2, [r2, #1]	@ unaligned
 4635 0e78 92B2     		uxth	r2, r2
 4636 0e7a 9918     		adds	r1, r3, r2
 4637 0e7c 029B     		ldr	r3, [sp, #8]
 4638 0e7e 1A1D     		adds	r2, r3, #4
 4639 0e80 029B     		ldr	r3, [sp, #8]
 4640 0e82 1B78     		ldrb	r3, [r3]	@ zero_extendqisi2
 4641 0e84 0398     		ldr	r0, [sp, #12]
 4642 0e86 FFF7FEFF 		bl	_ZN3r2p10Bootloader5writeEPKvS2_j
 4643 0e8a 0346     		mov	r3, r0
 4644 0e8c 66E0     		b	.L311
 4645              	.L321:
 4646              		.loc 15 514 0
 4647 0e8e 0023     		movs	r3, #0
 4648 0e90 64E0     		b	.L311
 4649              	.L315:
 4650              	.LBE54:
 4651              		.loc 15 517 0
 4652 0e92 029B     		ldr	r3, [sp, #8]
 4653 0e94 1B78     		ldrb	r3, [r3]	@ zero_extendqisi2
 4654 0e96 002B     		cmp	r3, #0
 4655 0e98 01D0     		beq	.L323
 4656              		.loc 15 517 0 is_stmt 0 discriminator 1
 4657 0e9a 0023     		movs	r3, #0
 4658 0e9c 5EE0     		b	.L311
 4659              	.L323:
 4660              		.loc 15 518 0 is_stmt 1
 4661 0e9e 029B     		ldr	r3, [sp, #8]
 4662 0ea0 B3F80130 		ldrh	r3, [r3, #1]	@ unaligned
 4663 0ea4 9BB2     		uxth	r3, r3
 4664 0ea6 002B     		cmp	r3, #0
 4665 0ea8 01D0     		beq	.L324
 4666              		.loc 15 518 0 is_stmt 0 discriminator 1
 4667 0eaa 0023     		movs	r3, #0
 4668 0eac 56E0     		b	.L311
 4669              	.L324:
 4670              		.loc 15 519 0 is_stmt 1
 4671 0eae 0123     		movs	r3, #1
ARM GAS  /tmp/cc5OZvFd.s 			page 83


 4672 0eb0 54E0     		b	.L311
 4673              	.L316:
 4674              		.loc 15 522 0
 4675 0eb2 029B     		ldr	r3, [sp, #8]
 4676 0eb4 1B78     		ldrb	r3, [r3]	@ zero_extendqisi2
 4677 0eb6 022B     		cmp	r3, #2
 4678 0eb8 01D0     		beq	.L325
 4679              		.loc 15 522 0 is_stmt 0 discriminator 1
 4680 0eba 0023     		movs	r3, #0
 4681 0ebc 4EE0     		b	.L311
 4682              	.L325:
 4683              		.loc 15 523 0 is_stmt 1
 4684 0ebe 029B     		ldr	r3, [sp, #8]
 4685 0ec0 B3F80130 		ldrh	r3, [r3, #1]	@ unaligned
 4686 0ec4 9BB2     		uxth	r3, r3
 4687 0ec6 002B     		cmp	r3, #0
 4688 0ec8 01D0     		beq	.L326
 4689              		.loc 15 523 0 is_stmt 0 discriminator 1
 4690 0eca 0023     		movs	r3, #0
 4691 0ecc 46E0     		b	.L311
 4692              	.L326:
 4693              		.loc 15 525 0 is_stmt 1
 4694 0ece 029B     		ldr	r3, [sp, #8]
 4695 0ed0 1B79     		ldrb	r3, [r3, #4]	@ zero_extendqisi2
 4696 0ed2 1A03     		lsls	r2, r3, #12
 4697              		.loc 15 526 0
 4698 0ed4 029B     		ldr	r3, [sp, #8]
 4699 0ed6 5B79     		ldrb	r3, [r3, #5]	@ zero_extendqisi2
 4700 0ed8 1B01     		lsls	r3, r3, #4
 4701              		.loc 15 525 0
 4702 0eda 1343     		orrs	r3, r3, r2
 4703              		.loc 15 527 0
 4704 0edc 1A46     		mov	r2, r3
 4705 0ede 039B     		ldr	r3, [sp, #12]
 4706 0ee0 1A60     		str	r2, [r3]
 4707              		.loc 15 528 0
 4708 0ee2 0123     		movs	r3, #1
 4709 0ee4 3AE0     		b	.L311
 4710              	.L317:
 4711              		.loc 15 531 0
 4712 0ee6 029B     		ldr	r3, [sp, #8]
 4713 0ee8 1B78     		ldrb	r3, [r3]	@ zero_extendqisi2
 4714 0eea 042B     		cmp	r3, #4
 4715 0eec 01D0     		beq	.L327
 4716              		.loc 15 531 0 is_stmt 0 discriminator 1
 4717 0eee 0023     		movs	r3, #0
 4718 0ef0 34E0     		b	.L311
 4719              	.L327:
 4720              		.loc 15 532 0 is_stmt 1
 4721 0ef2 029B     		ldr	r3, [sp, #8]
 4722 0ef4 B3F80130 		ldrh	r3, [r3, #1]	@ unaligned
 4723 0ef8 9BB2     		uxth	r3, r3
 4724 0efa 002B     		cmp	r3, #0
 4725 0efc 01D0     		beq	.L328
 4726              		.loc 15 532 0 is_stmt 0 discriminator 1
 4727 0efe 0023     		movs	r3, #0
 4728 0f00 2CE0     		b	.L311
ARM GAS  /tmp/cc5OZvFd.s 			page 84


 4729              	.L328:
 4730              		.loc 15 533 0 is_stmt 1
 4731 0f02 0123     		movs	r3, #1
 4732 0f04 2AE0     		b	.L311
 4733              	.L318:
 4734              		.loc 15 536 0
 4735 0f06 029B     		ldr	r3, [sp, #8]
 4736 0f08 1B78     		ldrb	r3, [r3]	@ zero_extendqisi2
 4737 0f0a 022B     		cmp	r3, #2
 4738 0f0c 01D0     		beq	.L329
 4739              		.loc 15 536 0 is_stmt 0 discriminator 1
 4740 0f0e 0023     		movs	r3, #0
 4741 0f10 24E0     		b	.L311
 4742              	.L329:
 4743              		.loc 15 537 0 is_stmt 1
 4744 0f12 029B     		ldr	r3, [sp, #8]
 4745 0f14 B3F80130 		ldrh	r3, [r3, #1]	@ unaligned
 4746 0f18 9BB2     		uxth	r3, r3
 4747 0f1a 002B     		cmp	r3, #0
 4748 0f1c 01D0     		beq	.L330
 4749              		.loc 15 537 0 is_stmt 0 discriminator 1
 4750 0f1e 0023     		movs	r3, #0
 4751 0f20 1CE0     		b	.L311
 4752              	.L330:
 4753              		.loc 15 539 0 is_stmt 1
 4754 0f22 029B     		ldr	r3, [sp, #8]
 4755 0f24 1B79     		ldrb	r3, [r3, #4]	@ zero_extendqisi2
 4756 0f26 1A06     		lsls	r2, r3, #24
 4757              		.loc 15 540 0
 4758 0f28 029B     		ldr	r3, [sp, #8]
 4759 0f2a 5B79     		ldrb	r3, [r3, #5]	@ zero_extendqisi2
 4760 0f2c 1B04     		lsls	r3, r3, #16
 4761              		.loc 15 539 0
 4762 0f2e 1343     		orrs	r3, r3, r2
 4763              		.loc 15 541 0
 4764 0f30 1A46     		mov	r2, r3
 4765 0f32 039B     		ldr	r3, [sp, #12]
 4766 0f34 1A60     		str	r2, [r3]
 4767              		.loc 15 542 0
 4768 0f36 0123     		movs	r3, #1
 4769 0f38 10E0     		b	.L311
 4770              	.L319:
 4771              		.loc 15 545 0
 4772 0f3a 029B     		ldr	r3, [sp, #8]
 4773 0f3c 1B78     		ldrb	r3, [r3]	@ zero_extendqisi2
 4774 0f3e 042B     		cmp	r3, #4
 4775 0f40 01D0     		beq	.L331
 4776              		.loc 15 545 0 is_stmt 0 discriminator 1
 4777 0f42 0023     		movs	r3, #0
 4778 0f44 0AE0     		b	.L311
 4779              	.L331:
 4780              		.loc 15 546 0 is_stmt 1
 4781 0f46 029B     		ldr	r3, [sp, #8]
 4782 0f48 B3F80130 		ldrh	r3, [r3, #1]	@ unaligned
 4783 0f4c 9BB2     		uxth	r3, r3
 4784 0f4e 002B     		cmp	r3, #0
 4785 0f50 01D0     		beq	.L332
ARM GAS  /tmp/cc5OZvFd.s 			page 85


 4786              		.loc 15 546 0 is_stmt 0 discriminator 1
 4787 0f52 0023     		movs	r3, #0
 4788 0f54 02E0     		b	.L311
 4789              	.L332:
 4790              		.loc 15 547 0 is_stmt 1
 4791 0f56 0123     		movs	r3, #1
 4792 0f58 00E0     		b	.L311
 4793              	.L312:
 4794              		.loc 15 549 0
 4795 0f5a 0023     		movs	r3, #0
 4796              	.L311:
 4797              	.LBE53:
 4798              	.LBE52:
 4799              	.LBE51:
 4800              		.loc 15 551 0
 4801 0f5c 1846     		mov	r0, r3
 4802 0f5e 06B0     		add	sp, sp, #24
 4803              		.cfi_def_cfa_offset 8
 4804              		@ sp needed
 4805 0f60 10BD     		pop	{r4, pc}
 4806              	.L334:
 4807 0f62 00BF     		.align	2
 4808              	.L333:
 4809 0f64 00000000 		.word	.LC0
 4810              		.cfi_endproc
 4811              	.LFE421:
 4812              		.size	_ZN3r2p10Bootloader12process_ihexERKNS_10IhexRecordERKNS_7BootMsg12LinkingSetupERKNS4_16Link
 4813              		.align	2
 4814              		.global	_ZN3r2p10Bootloader11remove_lastEv
 4815              		.thumb
 4816              		.thumb_func
 4817              		.type	_ZN3r2p10Bootloader11remove_lastEv, %function
 4818              	_ZN3r2p10Bootloader11remove_lastEv:
 4819              	.LFB422:
 4820              		.loc 15 554 0
 4821              		.cfi_startproc
 4822              		@ args = 0, pretend = 0, frame = 16
 4823              		@ frame_needed = 0, uses_anonymous_args = 0
 4824 0f68 00B5     		push	{lr}
 4825              		.cfi_def_cfa_offset 4
 4826              		.cfi_offset 14, -4
 4827 0f6a 85B0     		sub	sp, sp, #20
 4828              		.cfi_def_cfa_offset 24
 4829 0f6c 0190     		str	r0, [sp, #4]
 4830              	.LBB55:
 4831              		.loc 15 556 0
 4832 0f6e FFF7FEFF 		bl	_ZN3r2p10Bootloader12get_last_appEv
 4833 0f72 0390     		str	r0, [sp, #12]
 4834              		.loc 15 557 0
 4835 0f74 039B     		ldr	r3, [sp, #12]
 4836 0f76 002B     		cmp	r3, #0
 4837 0f78 01D1     		bne	.L336
 4838              		.loc 15 557 0 is_stmt 0 discriminator 1
 4839 0f7a 0023     		movs	r3, #0
 4840 0f7c 10E0     		b	.L337
 4841              	.L336:
 4842              		.loc 15 559 0 is_stmt 1
ARM GAS  /tmp/cc5OZvFd.s 			page 86


 4843 0f7e 039B     		ldr	r3, [sp, #12]
 4844 0f80 9B68     		ldr	r3, [r3, #8]
 4845 0f82 1846     		mov	r0, r3
 4846 0f84 FFF7FEFF 		bl	_ZN3r2p10Bootloader13unreserve_ramEj
 4847              		.loc 15 560 0
 4848 0f88 039B     		ldr	r3, [sp, #12]
 4849 0f8a DB68     		ldr	r3, [r3, #12]
 4850 0f8c 1846     		mov	r0, r3
 4851 0f8e FFF7FEFF 		bl	_ZN3r2p10Bootloader13unreserve_ramEj
 4852              		.loc 15 562 0
 4853 0f92 0198     		ldr	r0, [sp, #4]
 4854 0f94 0399     		ldr	r1, [sp, #12]
 4855 0f96 044A     		ldr	r2, .L338
 4856 0f98 0423     		movs	r3, #4
 4857 0f9a FFF7FEFF 		bl	_ZN3r2p10Bootloader5writeEPKvS2_j
 4858              		.loc 15 563 0
 4859 0f9e 0123     		movs	r3, #1
 4860              	.L337:
 4861              	.LBE55:
 4862              		.loc 15 564 0
 4863 0fa0 1846     		mov	r0, r3
 4864 0fa2 05B0     		add	sp, sp, #20
 4865              		.cfi_def_cfa_offset 4
 4866              		@ sp needed
 4867 0fa4 5DF804FB 		ldr	pc, [sp], #4
 4868              	.L339:
 4869              		.align	2
 4870              	.L338:
 4871 0fa8 00000000 		.word	_ZN3r2p10Bootloader20an_invalid_signatureE
 4872              		.cfi_endproc
 4873              	.LFE422:
 4874              		.size	_ZN3r2p10Bootloader11remove_lastEv, .-_ZN3r2p10Bootloader11remove_lastEv
 4875              		.align	2
 4876              		.global	_ZN3r2p10Bootloader10remove_allEv
 4877              		.thumb
 4878              		.thumb_func
 4879              		.type	_ZN3r2p10Bootloader10remove_allEv, %function
 4880              	_ZN3r2p10Bootloader10remove_allEv:
 4881              	.LFB423:
 4882              		.loc 15 567 0
 4883              		.cfi_startproc
 4884              		@ args = 0, pretend = 0, frame = 24
 4885              		@ frame_needed = 0, uses_anonymous_args = 0
 4886 0fac 30B5     		push	{r4, r5, lr}
 4887              		.cfi_def_cfa_offset 12
 4888              		.cfi_offset 4, -12
 4889              		.cfi_offset 5, -8
 4890              		.cfi_offset 14, -4
 4891 0fae 87B0     		sub	sp, sp, #28
 4892              		.cfi_def_cfa_offset 40
 4893 0fb0 0190     		str	r0, [sp, #4]
 4894              	.LBB56:
 4895              		.loc 15 569 0
 4896 0fb2 FFF7FEFF 		bl	_ZN3r2p10Bootloader12get_last_appEv
 4897 0fb6 0590     		str	r0, [sp, #20]
 4898              		.loc 15 570 0
 4899 0fb8 35E0     		b	.L341
ARM GAS  /tmp/cc5OZvFd.s 			page 87


 4900              	.L346:
 4901              	.LBB57:
 4902              		.loc 15 571 0
 4903 0fba 059B     		ldr	r3, [sp, #20]
 4904 0fbc 9B68     		ldr	r3, [r3, #8]
 4905 0fbe 1846     		mov	r0, r3
 4906 0fc0 FFF7FEFF 		bl	_ZN3r2p10Bootloader13unreserve_ramEj
 4907              		.loc 15 572 0
 4908 0fc4 059B     		ldr	r3, [sp, #20]
 4909 0fc6 DB68     		ldr	r3, [r3, #12]
 4910 0fc8 1846     		mov	r0, r3
 4911 0fca FFF7FEFF 		bl	_ZN3r2p10Bootloader13unreserve_ramEj
 4912              		.loc 15 574 0
 4913 0fce 03AB     		add	r3, sp, #12
 4914 0fd0 1846     		mov	r0, r3
 4915 0fd2 FFF7FEFF 		bl	_ZN3r2p10Bootloader5beginEv
 4916              		.loc 15 575 0
 4917 0fd6 03AB     		add	r3, sp, #12
 4918 0fd8 1846     		mov	r0, r3
 4919 0fda FFF7FEFF 		bl	_ZNK3r2p10Bootloader8IteratorcvPKNS0_12FlashAppInfoEEv
 4920 0fde 0246     		mov	r2, r0
 4921 0fe0 059B     		ldr	r3, [sp, #20]
 4922 0fe2 9A42     		cmp	r2, r3
 4923 0fe4 0CBF     		ite	eq
 4924 0fe6 0123     		moveq	r3, #1
 4925 0fe8 0023     		movne	r3, #0
 4926 0fea DBB2     		uxtb	r3, r3
 4927 0fec 002B     		cmp	r3, #0
 4928 0fee 1DD1     		bne	.L343
 4929              		.loc 15 576 0
 4930 0ff0 03E0     		b	.L344
 4931              	.L345:
 4932              		.loc 15 576 0 is_stmt 0 discriminator 2
 4933 0ff2 03AB     		add	r3, sp, #12
 4934 0ff4 1846     		mov	r0, r3
 4935 0ff6 FFF7FEFF 		bl	_ZN3r2p10Bootloader8IteratorppEv
 4936              	.L344:
 4937              		.loc 15 576 0 discriminator 1
 4938 0ffa 03AB     		add	r3, sp, #12
 4939 0ffc 1846     		mov	r0, r3
 4940 0ffe FFF7FEFF 		bl	_ZNK3r2p10Bootloader8IteratorptEv
 4941 1002 0346     		mov	r3, r0
 4942 1004 1846     		mov	r0, r3
 4943 1006 FFF7FEFF 		bl	_ZNK3r2p10Bootloader12FlashAppInfo8get_nextEv
 4944 100a 0246     		mov	r2, r0
 4945 100c 059B     		ldr	r3, [sp, #20]
 4946 100e 9A42     		cmp	r2, r3
 4947 1010 14BF     		ite	ne
 4948 1012 0123     		movne	r3, #1
 4949 1014 0023     		moveq	r3, #0
 4950 1016 DBB2     		uxtb	r3, r3
 4951 1018 002B     		cmp	r3, #0
 4952 101a EAD1     		bne	.L345
 4953              		.loc 15 577 0 is_stmt 1
 4954 101c 03AB     		add	r3, sp, #12
 4955 101e 1846     		mov	r0, r3
 4956 1020 FFF7FEFF 		bl	_ZNK3r2p10Bootloader8IteratorcvPKNS0_12FlashAppInfoEEv
ARM GAS  /tmp/cc5OZvFd.s 			page 88


 4957 1024 0590     		str	r0, [sp, #20]
 4958              	.L341:
 4959              	.LBE57:
 4960              		.loc 15 570 0
 4961 1026 059B     		ldr	r3, [sp, #20]
 4962 1028 002B     		cmp	r3, #0
 4963 102a C6D1     		bne	.L346
 4964              	.L343:
 4965              		.loc 15 581 0
 4966 102c FFF7FEFF 		bl	_ZN3r2p7Flasher17get_program_startEv
 4967 1030 0346     		mov	r3, r0
 4968 1032 1846     		mov	r0, r3
 4969 1034 FFF7FEFF 		bl	_ZN3r2p7Flasher10is_alignedEPKv
 4970 1038 0346     		mov	r3, r0
 4971 103a 83F00103 		eor	r3, r3, #1
 4972 103e DBB2     		uxtb	r3, r3
 4973 1040 002B     		cmp	r3, #0
 4974 1042 02D0     		beq	.L347
 4975              		.loc 15 581 0 is_stmt 0 discriminator 1
 4976 1044 1048     		ldr	r0, .L350
 4977 1046 FFF7FEFF 		bl	chDbgPanic
 4978              	.L347:
 4979              		.loc 15 583 0 is_stmt 1
 4980 104a 019B     		ldr	r3, [sp, #4]
 4981 104c 1C1D     		adds	r4, r3, #4
 4982 104e FFF7FEFF 		bl	_ZN3r2p7Flasher17get_program_startEv
 4983 1052 0546     		mov	r5, r0
 4984 1054 FFF7FEFF 		bl	_ZN3r2p7Flasher18get_program_lengthEv
 4985 1058 0346     		mov	r3, r0
 4986 105a 2046     		mov	r0, r4
 4987 105c 2946     		mov	r1, r5
 4988 105e 1A46     		mov	r2, r3
 4989 1060 FFF7FEFF 		bl	_ZN3r2p7Flasher5eraseEPKhj
 4990 1064 0346     		mov	r3, r0
 4991 1066 8DF81330 		strb	r3, [sp, #19]
 4992              		.loc 15 584 0
 4993 106a 9DF81330 		ldrb	r3, [sp, #19]
 4994 106e 83F00103 		eor	r3, r3, #1
 4995 1072 DBB2     		uxtb	r3, r3
 4996 1074 002B     		cmp	r3, #0
 4997 1076 02D0     		beq	.L348
 4998              		.loc 15 584 0 is_stmt 0 discriminator 1
 4999 1078 0348     		ldr	r0, .L350
 5000 107a FFF7FEFF 		bl	chDbgPanic
 5001              	.L348:
 5002              		.loc 15 585 0 is_stmt 1
 5003 107e 0123     		movs	r3, #1
 5004              	.LBE56:
 5005              		.loc 15 586 0
 5006 1080 1846     		mov	r0, r3
 5007 1082 07B0     		add	sp, sp, #28
 5008              		.cfi_def_cfa_offset 12
 5009              		@ sp needed
 5010 1084 30BD     		pop	{r4, r5, pc}
 5011              	.L351:
 5012 1086 00BF     		.align	2
 5013              	.L350:
ARM GAS  /tmp/cc5OZvFd.s 			page 89


 5014 1088 00000000 		.word	.LC0
 5015              		.cfi_endproc
 5016              	.LFE423:
 5017              		.size	_ZN3r2p10Bootloader10remove_allEv, .-_ZN3r2p10Bootloader10remove_allEv
 5018              		.align	2
 5019              		.global	_ZN3r2p10BootloaderC2EPtRNS_9PublisherINS_7BootMsgEEERNS_16SubscriberExtBufIS3_EE
 5020              		.thumb
 5021              		.thumb_func
 5022              		.type	_ZN3r2p10BootloaderC2EPtRNS_9PublisherINS_7BootMsgEEERNS_16SubscriberExtBufIS3_EE, %function
 5023              	_ZN3r2p10BootloaderC2EPtRNS_9PublisherINS_7BootMsgEEERNS_16SubscriberExtBufIS3_EE:
 5024              	.LFB428:
 5025              		.loc 15 589 0
 5026              		.cfi_startproc
 5027              		@ args = 0, pretend = 0, frame = 16
 5028              		@ frame_needed = 0, uses_anonymous_args = 0
 5029 108c 00B5     		push	{lr}
 5030              		.cfi_def_cfa_offset 4
 5031              		.cfi_offset 14, -4
 5032 108e 85B0     		sub	sp, sp, #20
 5033              		.cfi_def_cfa_offset 24
 5034 1090 0390     		str	r0, [sp, #12]
 5035 1092 0291     		str	r1, [sp, #8]
 5036 1094 0192     		str	r2, [sp, #4]
 5037 1096 0093     		str	r3, [sp]
 5038              	.LBB58:
 5039              		.loc 15 598 0
 5040 1098 0398     		ldr	r0, [sp, #12]
 5041 109a FFF7FEFF 		bl	_ZN3r2p10UncopyableC2Ev
 5042 109e 039B     		ldr	r3, [sp, #12]
 5043 10a0 0022     		movs	r2, #0
 5044 10a2 1A60     		str	r2, [r3]
 5045 10a4 039B     		ldr	r3, [sp, #12]
 5046 10a6 0433     		adds	r3, r3, #4
 5047 10a8 1846     		mov	r0, r3
 5048 10aa 0299     		ldr	r1, [sp, #8]
 5049 10ac FFF7FEFF 		bl	_ZN3r2p7FlasherC1EPt
 5050 10b0 039B     		ldr	r3, [sp, #12]
 5051 10b2 019A     		ldr	r2, [sp, #4]
 5052 10b4 1A61     		str	r2, [r3, #16]
 5053 10b6 039B     		ldr	r3, [sp, #12]
 5054 10b8 009A     		ldr	r2, [sp]
 5055 10ba 5A61     		str	r2, [r3, #20]
 5056 10bc 039B     		ldr	r3, [sp, #12]
 5057 10be 0022     		movs	r2, #0
 5058 10c0 9A61     		str	r2, [r3, #24]
 5059 10c2 039B     		ldr	r3, [sp, #12]
 5060 10c4 0022     		movs	r2, #0
 5061 10c6 DA61     		str	r2, [r3, #28]
 5062              		.loc 15 600 0
 5063 10c8 029B     		ldr	r3, [sp, #8]
 5064 10ca 002B     		cmp	r3, #0
 5065 10cc 02D1     		bne	.L353
 5066              		.loc 15 600 0 is_stmt 0 discriminator 1
 5067 10ce 0448     		ldr	r0, .L355
 5068 10d0 FFF7FEFF 		bl	chDbgPanic
 5069              	.L353:
 5070              	.LBE58:
ARM GAS  /tmp/cc5OZvFd.s 			page 90


 5071              		.loc 15 601 0 is_stmt 1
 5072 10d4 039B     		ldr	r3, [sp, #12]
 5073 10d6 1846     		mov	r0, r3
 5074 10d8 05B0     		add	sp, sp, #20
 5075              		.cfi_def_cfa_offset 4
 5076              		@ sp needed
 5077 10da 5DF804FB 		ldr	pc, [sp], #4
 5078              	.L356:
 5079 10de 00BF     		.align	2
 5080              	.L355:
 5081 10e0 00000000 		.word	.LC0
 5082              		.cfi_endproc
 5083              	.LFE428:
 5084              		.size	_ZN3r2p10BootloaderC2EPtRNS_9PublisherINS_7BootMsgEEERNS_16SubscriberExtBufIS3_EE, .-_ZN3r2p
 5085              		.global	_ZN3r2p10BootloaderC1EPtRNS_9PublisherINS_7BootMsgEEERNS_16SubscriberExtBufIS3_EE
 5086              		.thumb_set _ZN3r2p10BootloaderC1EPtRNS_9PublisherINS_7BootMsgEEERNS_16SubscriberExtBufIS3_EE,_ZN3r
 5087              		.align	2
 5088              		.global	_ZN3r2p10Bootloader12get_num_appsEv
 5089              		.thumb
 5090              		.thumb_func
 5091              		.type	_ZN3r2p10Bootloader12get_num_appsEv, %function
 5092              	_ZN3r2p10Bootloader12get_num_appsEv:
 5093              	.LFB430:
 5094              		.loc 15 604 0
 5095              		.cfi_startproc
 5096              		@ args = 0, pretend = 0, frame = 8
 5097              		@ frame_needed = 0, uses_anonymous_args = 0
 5098 10e4 00B5     		push	{lr}
 5099              		.cfi_def_cfa_offset 4
 5100              		.cfi_offset 14, -4
 5101 10e6 83B0     		sub	sp, sp, #12
 5102              		.cfi_def_cfa_offset 16
 5103              	.LBB59:
 5104              		.loc 15 606 0
 5105 10e8 0023     		movs	r3, #0
 5106 10ea 0193     		str	r3, [sp, #4]
 5107              	.LBB60:
 5108              		.loc 15 607 0
 5109 10ec 6B46     		mov	r3, sp
 5110 10ee 1846     		mov	r0, r3
 5111 10f0 FFF7FEFF 		bl	_ZN3r2p10Bootloader5beginEv
 5112 10f4 06E0     		b	.L358
 5113              	.L359:
 5114              		.loc 15 608 0 discriminator 3
 5115 10f6 019B     		ldr	r3, [sp, #4]
 5116 10f8 0133     		adds	r3, r3, #1
 5117 10fa 0193     		str	r3, [sp, #4]
 5118              		.loc 15 607 0 discriminator 3
 5119 10fc 6B46     		mov	r3, sp
 5120 10fe 1846     		mov	r0, r3
 5121 1100 FFF7FEFF 		bl	_ZN3r2p10Bootloader8IteratorppEv
 5122              	.L358:
 5123              		.loc 15 607 0 is_stmt 0 discriminator 1
 5124 1104 6B46     		mov	r3, sp
 5125 1106 1846     		mov	r0, r3
 5126 1108 FFF7FEFF 		bl	_ZNK3r2p10Bootloader8IteratorptEv
 5127 110c 0346     		mov	r3, r0
ARM GAS  /tmp/cc5OZvFd.s 			page 91


 5128 110e 1846     		mov	r0, r3
 5129 1110 FFF7FEFF 		bl	_ZNK3r2p10Bootloader12FlashAppInfo8is_validEv
 5130 1114 0346     		mov	r3, r0
 5131 1116 002B     		cmp	r3, #0
 5132 1118 EDD1     		bne	.L359
 5133              	.LBE60:
 5134              		.loc 15 610 0 is_stmt 1
 5135 111a 019B     		ldr	r3, [sp, #4]
 5136              	.LBE59:
 5137              		.loc 15 611 0
 5138 111c 1846     		mov	r0, r3
 5139 111e 03B0     		add	sp, sp, #12
 5140              		.cfi_def_cfa_offset 4
 5141              		@ sp needed
 5142 1120 5DF804FB 		ldr	pc, [sp], #4
 5143              		.cfi_endproc
 5144              	.LFE430:
 5145              		.size	_ZN3r2p10Bootloader12get_num_appsEv, .-_ZN3r2p10Bootloader12get_num_appsEv
 5146              		.align	2
 5147              		.global	_ZN3r2p10Bootloader12get_free_appEv
 5148              		.thumb
 5149              		.thumb_func
 5150              		.type	_ZN3r2p10Bootloader12get_free_appEv, %function
 5151              	_ZN3r2p10Bootloader12get_free_appEv:
 5152              	.LFB431:
 5153              		.loc 15 614 0
 5154              		.cfi_startproc
 5155              		@ args = 0, pretend = 0, frame = 16
 5156              		@ frame_needed = 0, uses_anonymous_args = 0
 5157 1124 00B5     		push	{lr}
 5158              		.cfi_def_cfa_offset 4
 5159              		.cfi_offset 14, -4
 5160 1126 85B0     		sub	sp, sp, #20
 5161              		.cfi_def_cfa_offset 24
 5162              	.LBB61:
 5163              		.loc 15 616 0
 5164 1128 01AB     		add	r3, sp, #4
 5165 112a 1846     		mov	r0, r3
 5166 112c FFF7FEFF 		bl	_ZN3r2p10Bootloader5beginEv
 5167              		.loc 15 617 0
 5168 1130 03E0     		b	.L362
 5169              	.L363:
 5170              		.loc 15 617 0 is_stmt 0 discriminator 2
 5171 1132 01AB     		add	r3, sp, #4
 5172 1134 1846     		mov	r0, r3
 5173 1136 FFF7FEFF 		bl	_ZN3r2p10Bootloader8IteratorppEv
 5174              	.L362:
 5175              		.loc 15 617 0 discriminator 1
 5176 113a 02AB     		add	r3, sp, #8
 5177 113c 1846     		mov	r0, r3
 5178 113e FFF7FEFF 		bl	_ZN3r2p10Bootloader3endEv
 5179 1142 01AA     		add	r2, sp, #4
 5180 1144 02AB     		add	r3, sp, #8
 5181 1146 1046     		mov	r0, r2
 5182 1148 1946     		mov	r1, r3
 5183 114a FFF7FEFF 		bl	_ZNK3r2p10Bootloader8IteratorneERKS1_
 5184 114e 0346     		mov	r3, r0
ARM GAS  /tmp/cc5OZvFd.s 			page 92


 5185 1150 002B     		cmp	r3, #0
 5186 1152 EED1     		bne	.L363
 5187              		.loc 15 618 0 is_stmt 1
 5188 1154 01AB     		add	r3, sp, #4
 5189 1156 1846     		mov	r0, r3
 5190 1158 FFF7FEFF 		bl	_ZNK3r2p10Bootloader8IteratordeEv
 5191 115c 0346     		mov	r3, r0
 5192 115e 1846     		mov	r0, r3
 5193 1160 FFF7FEFF 		bl	_ZN3r2p7Flasher16is_within_boundsEPKv
 5194 1164 0346     		mov	r3, r0
 5195 1166 002B     		cmp	r3, #0
 5196 1168 06D0     		beq	.L364
 5197              		.loc 15 618 0 is_stmt 0 discriminator 1
 5198 116a 03AA     		add	r2, sp, #12
 5199 116c 01AB     		add	r3, sp, #4
 5200 116e 1046     		mov	r0, r2
 5201 1170 1946     		mov	r1, r3
 5202 1172 FFF7FEFF 		bl	_ZN3r2p10Bootloader8IteratorC1ERKS1_
 5203 1176 04E0     		b	.L365
 5204              	.L364:
 5205              		.loc 15 618 0 discriminator 2
 5206 1178 03AB     		add	r3, sp, #12
 5207 117a 1846     		mov	r0, r3
 5208 117c 0021     		movs	r1, #0
 5209 117e FFF7FEFF 		bl	_ZN3r2p10Bootloader8IteratorC1EPKNS0_12FlashAppInfoE
 5210              	.L365:
 5211              		.loc 15 618 0 discriminator 4
 5212 1182 03AB     		add	r3, sp, #12
 5213 1184 1846     		mov	r0, r3
 5214 1186 FFF7FEFF 		bl	_ZNK3r2p10Bootloader8IteratorcvPKNS0_12FlashAppInfoEEv
 5215 118a 0346     		mov	r3, r0
 5216              	.LBE61:
 5217              		.loc 15 619 0 is_stmt 1 discriminator 4
 5218 118c 1846     		mov	r0, r3
 5219 118e 05B0     		add	sp, sp, #20
 5220              		.cfi_def_cfa_offset 4
 5221              		@ sp needed
 5222 1190 5DF804FB 		ldr	pc, [sp], #4
 5223              		.cfi_endproc
 5224              	.LFE431:
 5225              		.size	_ZN3r2p10Bootloader12get_free_appEv, .-_ZN3r2p10Bootloader12get_free_appEv
 5226              		.align	2
 5227              		.global	_ZN3r2p10Bootloader12get_last_appEv
 5228              		.thumb
 5229              		.thumb_func
 5230              		.type	_ZN3r2p10Bootloader12get_last_appEv, %function
 5231              	_ZN3r2p10Bootloader12get_last_appEv:
 5232              	.LFB432:
 5233              		.loc 15 622 0
 5234              		.cfi_startproc
 5235              		@ args = 0, pretend = 0, frame = 16
 5236              		@ frame_needed = 0, uses_anonymous_args = 0
 5237 1194 00B5     		push	{lr}
 5238              		.cfi_def_cfa_offset 4
 5239              		.cfi_offset 14, -4
 5240 1196 85B0     		sub	sp, sp, #20
 5241              		.cfi_def_cfa_offset 24
ARM GAS  /tmp/cc5OZvFd.s 			page 93


 5242              	.LBB62:
 5243              		.loc 15 624 0
 5244 1198 0023     		movs	r3, #0
 5245 119a 0393     		str	r3, [sp, #12]
 5246              	.LBB63:
 5247              		.loc 15 625 0
 5248 119c 01AB     		add	r3, sp, #4
 5249 119e 1846     		mov	r0, r3
 5250 11a0 FFF7FEFF 		bl	_ZN3r2p10Bootloader5beginEv
 5251 11a4 08E0     		b	.L368
 5252              	.L369:
 5253              		.loc 15 626 0 discriminator 3
 5254 11a6 01AB     		add	r3, sp, #4
 5255 11a8 1846     		mov	r0, r3
 5256 11aa FFF7FEFF 		bl	_ZNK3r2p10Bootloader8IteratorcvPKNS0_12FlashAppInfoEEv
 5257 11ae 0390     		str	r0, [sp, #12]
 5258              		.loc 15 625 0 discriminator 3
 5259 11b0 01AB     		add	r3, sp, #4
 5260 11b2 1846     		mov	r0, r3
 5261 11b4 FFF7FEFF 		bl	_ZN3r2p10Bootloader8IteratorppEv
 5262              	.L368:
 5263              		.loc 15 625 0 is_stmt 0 discriminator 1
 5264 11b8 02AB     		add	r3, sp, #8
 5265 11ba 1846     		mov	r0, r3
 5266 11bc FFF7FEFF 		bl	_ZN3r2p10Bootloader3endEv
 5267 11c0 01AA     		add	r2, sp, #4
 5268 11c2 02AB     		add	r3, sp, #8
 5269 11c4 1046     		mov	r0, r2
 5270 11c6 1946     		mov	r1, r3
 5271 11c8 FFF7FEFF 		bl	_ZNK3r2p10Bootloader8IteratorneERKS1_
 5272 11cc 0346     		mov	r3, r0
 5273 11ce 002B     		cmp	r3, #0
 5274 11d0 E9D1     		bne	.L369
 5275              	.LBE63:
 5276              		.loc 15 628 0 is_stmt 1
 5277 11d2 0398     		ldr	r0, [sp, #12]
 5278 11d4 FFF7FEFF 		bl	_ZN3r2p7Flasher16is_within_boundsEPKv
 5279 11d8 0346     		mov	r3, r0
 5280 11da 002B     		cmp	r3, #0
 5281 11dc 01D0     		beq	.L370
 5282              		.loc 15 628 0 is_stmt 0 discriminator 1
 5283 11de 039B     		ldr	r3, [sp, #12]
 5284 11e0 00E0     		b	.L371
 5285              	.L370:
 5286              		.loc 15 628 0 discriminator 2
 5287 11e2 0023     		movs	r3, #0
 5288              	.L371:
 5289              	.LBE62:
 5290              		.loc 15 629 0 is_stmt 1 discriminator 4
 5291 11e4 1846     		mov	r0, r3
 5292 11e6 05B0     		add	sp, sp, #20
 5293              		.cfi_def_cfa_offset 4
 5294              		@ sp needed
 5295 11e8 5DF804FB 		ldr	pc, [sp], #4
 5296              		.cfi_endproc
 5297              	.LFE432:
 5298              		.size	_ZN3r2p10Bootloader12get_last_appEv, .-_ZN3r2p10Bootloader12get_last_appEv
ARM GAS  /tmp/cc5OZvFd.s 			page 94


 5299              		.align	2
 5300              		.global	_ZN3r2p10Bootloader7get_appEPKc
 5301              		.thumb
 5302              		.thumb_func
 5303              		.type	_ZN3r2p10Bootloader7get_appEPKc, %function
 5304              	_ZN3r2p10Bootloader7get_appEPKc:
 5305              	.LFB433:
 5306              		.loc 15 632 0
 5307              		.cfi_startproc
 5308              		@ args = 0, pretend = 0, frame = 16
 5309              		@ frame_needed = 0, uses_anonymous_args = 0
 5310 11ec 00B5     		push	{lr}
 5311              		.cfi_def_cfa_offset 4
 5312              		.cfi_offset 14, -4
 5313 11ee 85B0     		sub	sp, sp, #20
 5314              		.cfi_def_cfa_offset 24
 5315 11f0 0190     		str	r0, [sp, #4]
 5316              	.LBB64:
 5317              	.LBB65:
 5318              		.loc 15 634 0
 5319 11f2 02AB     		add	r3, sp, #8
 5320 11f4 1846     		mov	r0, r3
 5321 11f6 FFF7FEFF 		bl	_ZN3r2p10Bootloader5beginEv
 5322 11fa 15E0     		b	.L374
 5323              	.L377:
 5324              		.loc 15 635 0
 5325 11fc 02AB     		add	r3, sp, #8
 5326 11fe 1846     		mov	r0, r3
 5327 1200 FFF7FEFF 		bl	_ZNK3r2p10Bootloader8IteratorptEv
 5328 1204 0346     		mov	r3, r0
 5329 1206 1846     		mov	r0, r3
 5330 1208 0199     		ldr	r1, [sp, #4]
 5331 120a FFF7FEFF 		bl	_ZNK3r2p10Bootloader12FlashAppInfo8has_nameEPKc
 5332 120e 0346     		mov	r3, r0
 5333 1210 002B     		cmp	r3, #0
 5334 1212 05D0     		beq	.L375
 5335              		.loc 15 636 0
 5336 1214 02AB     		add	r3, sp, #8
 5337 1216 1846     		mov	r0, r3
 5338 1218 FFF7FEFF 		bl	_ZNK3r2p10Bootloader8IteratorcvPKNS0_12FlashAppInfoEEv
 5339 121c 0346     		mov	r3, r0
 5340 121e 11E0     		b	.L376
 5341              	.L375:
 5342              		.loc 15 634 0 discriminator 2
 5343 1220 02AB     		add	r3, sp, #8
 5344 1222 1846     		mov	r0, r3
 5345 1224 FFF7FEFF 		bl	_ZN3r2p10Bootloader8IteratorppEv
 5346              	.L374:
 5347              		.loc 15 634 0 is_stmt 0 discriminator 1
 5348 1228 03AB     		add	r3, sp, #12
 5349 122a 1846     		mov	r0, r3
 5350 122c FFF7FEFF 		bl	_ZN3r2p10Bootloader3endEv
 5351 1230 02AA     		add	r2, sp, #8
 5352 1232 03AB     		add	r3, sp, #12
 5353 1234 1046     		mov	r0, r2
 5354 1236 1946     		mov	r1, r3
 5355 1238 FFF7FEFF 		bl	_ZNK3r2p10Bootloader8IteratorneERKS1_
ARM GAS  /tmp/cc5OZvFd.s 			page 95


 5356 123c 0346     		mov	r3, r0
 5357 123e 002B     		cmp	r3, #0
 5358 1240 DCD1     		bne	.L377
 5359              	.LBE65:
 5360              		.loc 15 639 0 is_stmt 1
 5361 1242 0023     		movs	r3, #0
 5362              	.L376:
 5363              	.LBE64:
 5364              		.loc 15 640 0
 5365 1244 1846     		mov	r0, r3
 5366 1246 05B0     		add	sp, sp, #20
 5367              		.cfi_def_cfa_offset 4
 5368              		@ sp needed
 5369 1248 5DF804FB 		ldr	pc, [sp], #4
 5370              		.cfi_endproc
 5371              	.LFE433:
 5372              		.size	_ZN3r2p10Bootloader7get_appEPKc, .-_ZN3r2p10Bootloader7get_appEPKc
 5373              		.align	2
 5374              		.global	_ZN3r2p10Bootloader17compute_addressesERKNS_7BootMsg12LinkingSetupERNS1_16LinkingAddresses
 5375              		.thumb
 5376              		.thumb_func
 5377              		.type	_ZN3r2p10Bootloader17compute_addressesERKNS_7BootMsg12LinkingSetupERNS1_16LinkingAddressesE,
 5378              	_ZN3r2p10Bootloader17compute_addressesERKNS_7BootMsg12LinkingSetupERNS1_16LinkingAddressesE:
 5379              	.LFB434:
 5380              		.loc 15 644 0
 5381              		.cfi_startproc
 5382              		@ args = 0, pretend = 0, frame = 24
 5383              		@ frame_needed = 0, uses_anonymous_args = 0
 5384 124c 10B5     		push	{r4, lr}
 5385              		.cfi_def_cfa_offset 8
 5386              		.cfi_offset 4, -8
 5387              		.cfi_offset 14, -4
 5388 124e 86B0     		sub	sp, sp, #24
 5389              		.cfi_def_cfa_offset 32
 5390 1250 0190     		str	r0, [sp, #4]
 5391 1252 0091     		str	r1, [sp]
 5392              	.LBB66:
 5393              		.loc 15 646 0
 5394 1254 0098     		ldr	r0, [sp]
 5395 1256 0021     		movs	r1, #0
 5396 1258 1822     		movs	r2, #24
 5397 125a FFF7FEFF 		bl	memset
 5398              		.loc 15 649 0
 5399 125e 019B     		ldr	r3, [sp, #4]
 5400 1260 DB68     		ldr	r3, [r3, #12]	@ unaligned
 5401 1262 002B     		cmp	r3, #0
 5402 1264 01D1     		bne	.L379
 5403              		.loc 15 649 0 is_stmt 0 discriminator 1
 5404 1266 0023     		movs	r3, #0
 5405 1268 7EE0     		b	.L380
 5406              	.L379:
 5407              		.loc 15 653 0 is_stmt 1
 5408 126a FFF7FEFF 		bl	_ZN3r2p10Bootloader12get_free_appEv
 5409 126e 0590     		str	r0, [sp, #20]
 5410              		.loc 15 654 0
 5411 1270 059B     		ldr	r3, [sp, #20]
 5412 1272 002B     		cmp	r3, #0
ARM GAS  /tmp/cc5OZvFd.s 			page 96


 5413 1274 01D1     		bne	.L381
 5414              		.loc 15 654 0 is_stmt 0 discriminator 1
 5415 1276 0023     		movs	r3, #0
 5416 1278 76E0     		b	.L380
 5417              	.L381:
 5418              		.loc 15 655 0 is_stmt 1
 5419 127a 009B     		ldr	r3, [sp]
 5420 127c 059A     		ldr	r2, [sp, #20]
 5421 127e 1A60     		str	r2, [r3]	@ unaligned
 5422              		.loc 15 656 0
 5423 1280 0598     		ldr	r0, [sp, #20]
 5424 1282 FFF7FEFF 		bl	_ZN3r2p10Bootloader12FlashAppInfo15compute_programEPKS1_
 5425 1286 0246     		mov	r2, r0
 5426 1288 009B     		ldr	r3, [sp]
 5427 128a 5A60     		str	r2, [r3, #4]	@ unaligned
 5428              		.loc 15 658 0
 5429 128c 019B     		ldr	r3, [sp, #4]
 5430 128e 1A68     		ldr	r2, [r3]	@ unaligned
 5431 1290 019B     		ldr	r3, [sp, #4]
 5432 1292 9B68     		ldr	r3, [r3, #8]	@ unaligned
 5433 1294 0598     		ldr	r0, [sp, #20]
 5434 1296 1146     		mov	r1, r2
 5435 1298 1A46     		mov	r2, r3
 5436 129a FFF7FEFF 		bl	_ZN3r2p10Bootloader12FlashAppInfo20compute_data_programEPKS1_jj
 5437 129e 0246     		mov	r2, r0
 5438 12a0 009B     		ldr	r3, [sp]
 5439 12a2 1A61     		str	r2, [r3, #16]	@ unaligned
 5440              		.loc 15 660 0
 5441 12a4 019B     		ldr	r3, [sp, #4]
 5442 12a6 1A68     		ldr	r2, [r3]	@ unaligned
 5443 12a8 019B     		ldr	r3, [sp, #4]
 5444 12aa 9B68     		ldr	r3, [r3, #8]	@ unaligned
 5445 12ac 0598     		ldr	r0, [sp, #20]
 5446 12ae 1146     		mov	r1, r2
 5447 12b0 1A46     		mov	r2, r3
 5448 12b2 FFF7FEFF 		bl	_ZN3r2p10Bootloader12FlashAppInfo12compute_nextEPKS1_jj
 5449 12b6 0246     		mov	r2, r0
 5450              		.loc 15 661 0
 5451 12b8 009B     		ldr	r3, [sp]
 5452 12ba 5A61     		str	r2, [r3, #20]	@ unaligned
 5453              		.loc 15 662 0
 5454 12bc 009B     		ldr	r3, [sp]
 5455 12be 1C68     		ldr	r4, [r3]	@ unaligned
 5456 12c0 FFF7FEFF 		bl	_ZN3r2p7Flasher15get_program_endEv
 5457 12c4 0346     		mov	r3, r0
 5458 12c6 9C42     		cmp	r4, r3
 5459 12c8 06D2     		bcs	.L382
 5460              		.loc 15 663 0 discriminator 2
 5461 12ca 009B     		ldr	r3, [sp]
 5462 12cc 5C69     		ldr	r4, [r3, #20]	@ unaligned
 5463 12ce FFF7FEFF 		bl	_ZN3r2p7Flasher15get_program_endEv
 5464 12d2 0346     		mov	r3, r0
 5465              		.loc 15 662 0 discriminator 2
 5466 12d4 9C42     		cmp	r4, r3
 5467 12d6 01D9     		bls	.L383
 5468              	.L382:
 5469              		.loc 15 662 0 is_stmt 0 discriminator 3
ARM GAS  /tmp/cc5OZvFd.s 			page 97


 5470 12d8 0123     		movs	r3, #1
 5471 12da 00E0     		b	.L384
 5472              	.L383:
 5473              		.loc 15 662 0 discriminator 4
 5474 12dc 0023     		movs	r3, #0
 5475              	.L384:
 5476              		.loc 15 662 0 discriminator 6
 5477 12de 002B     		cmp	r3, #0
 5478 12e0 01D0     		beq	.L385
 5479              		.loc 15 664 0 is_stmt 1
 5480 12e2 0023     		movs	r3, #0
 5481 12e4 40E0     		b	.L380
 5482              	.L385:
 5483              	.LBB67:
 5484              		.loc 15 668 0
 5485 12e6 019B     		ldr	r3, [sp, #4]
 5486 12e8 5B68     		ldr	r3, [r3, #4]	@ unaligned
 5487 12ea 002B     		cmp	r3, #0
 5488 12ec 14D0     		beq	.L386
 5489              	.LBB68:
 5490              		.loc 15 669 0
 5491 12ee 019B     		ldr	r3, [sp, #4]
 5492 12f0 5B68     		ldr	r3, [r3, #4]	@ unaligned
 5493 12f2 1846     		mov	r0, r3
 5494 12f4 FFF7FEFF 		bl	_ZN3r2p10Bootloader11reserve_ramEj
 5495 12f8 0490     		str	r0, [sp, #16]
 5496              		.loc 15 670 0
 5497 12fa 009B     		ldr	r3, [sp]
 5498 12fc 049A     		ldr	r2, [sp, #16]
 5499 12fe 9A60     		str	r2, [r3, #8]	@ unaligned
 5500              		.loc 15 671 0
 5501 1300 049B     		ldr	r3, [sp, #16]
 5502 1302 002B     		cmp	r3, #0
 5503 1304 01D1     		bne	.L387
 5504              		.loc 15 671 0 is_stmt 0 discriminator 1
 5505 1306 0023     		movs	r3, #0
 5506 1308 2EE0     		b	.L380
 5507              	.L387:
 5508              		.loc 15 672 0 is_stmt 1
 5509 130a 019B     		ldr	r3, [sp, #4]
 5510 130c 5B68     		ldr	r3, [r3, #4]	@ unaligned
 5511 130e 0498     		ldr	r0, [sp, #16]
 5512 1310 0021     		movs	r1, #0
 5513 1312 1A46     		mov	r2, r3
 5514 1314 FFF7FEFF 		bl	memset
 5515              	.L386:
 5516              	.LBE68:
 5517              	.LBE67:
 5518              	.LBB69:
 5519              		.loc 15 676 0
 5520 1318 019B     		ldr	r3, [sp, #4]
 5521 131a 9B68     		ldr	r3, [r3, #8]	@ unaligned
 5522 131c 002B     		cmp	r3, #0
 5523 131e 22D0     		beq	.L388
 5524              	.LBB70:
 5525              		.loc 15 677 0
 5526 1320 019B     		ldr	r3, [sp, #4]
ARM GAS  /tmp/cc5OZvFd.s 			page 98


 5527 1322 9B68     		ldr	r3, [r3, #8]	@ unaligned
 5528 1324 1846     		mov	r0, r3
 5529 1326 FFF7FEFF 		bl	_ZN3r2p10Bootloader11reserve_ramEj
 5530 132a 0390     		str	r0, [sp, #12]
 5531              		.loc 15 678 0
 5532 132c 009B     		ldr	r3, [sp]
 5533 132e 039A     		ldr	r2, [sp, #12]
 5534 1330 DA60     		str	r2, [r3, #12]	@ unaligned
 5535              		.loc 15 679 0
 5536 1332 039B     		ldr	r3, [sp, #12]
 5537 1334 002B     		cmp	r3, #0
 5538 1336 0FD1     		bne	.L389
 5539              		.loc 15 680 0
 5540 1338 019B     		ldr	r3, [sp, #4]
 5541 133a 5B68     		ldr	r3, [r3, #4]	@ unaligned
 5542 133c 1846     		mov	r0, r3
 5543 133e FFF7FEFF 		bl	_ZN3r2p10Bootloader13unreserve_ramEj
 5544              		.loc 15 681 0
 5545 1342 009B     		ldr	r3, [sp]
 5546 1344 0022     		movs	r2, #0
 5547 1346 1A72     		strb	r2, [r3, #8]
 5548 1348 0022     		movs	r2, #0
 5549 134a 5A72     		strb	r2, [r3, #9]
 5550 134c 0022     		movs	r2, #0
 5551 134e 9A72     		strb	r2, [r3, #10]
 5552 1350 0022     		movs	r2, #0
 5553 1352 DA72     		strb	r2, [r3, #11]
 5554              		.loc 15 682 0
 5555 1354 0023     		movs	r3, #0
 5556 1356 07E0     		b	.L380
 5557              	.L389:
 5558              		.loc 15 684 0
 5559 1358 019B     		ldr	r3, [sp, #4]
 5560 135a 9B68     		ldr	r3, [r3, #8]	@ unaligned
 5561 135c 0398     		ldr	r0, [sp, #12]
 5562 135e CC21     		movs	r1, #204
 5563 1360 1A46     		mov	r2, r3
 5564 1362 FFF7FEFF 		bl	memset
 5565              	.L388:
 5566              	.LBE70:
 5567              	.LBE69:
 5568              		.loc 15 686 0
 5569 1366 0123     		movs	r3, #1
 5570              	.L380:
 5571              	.LBE66:
 5572              		.loc 15 687 0
 5573 1368 1846     		mov	r0, r3
 5574 136a 06B0     		add	sp, sp, #24
 5575              		.cfi_def_cfa_offset 8
 5576              		@ sp needed
 5577 136c 10BD     		pop	{r4, pc}
 5578              		.cfi_endproc
 5579              	.LFE434:
 5580              		.size	_ZN3r2p10Bootloader17compute_addressesERKNS_7BootMsg12LinkingSetupERNS1_16LinkingAddressesE,
 5581 136e 00BF     		.align	2
 5582              		.global	_ZN3r2p10Bootloader6launchEPKc
 5583              		.thumb
ARM GAS  /tmp/cc5OZvFd.s 			page 99


 5584              		.thumb_func
 5585              		.type	_ZN3r2p10Bootloader6launchEPKc, %function
 5586              	_ZN3r2p10Bootloader6launchEPKc:
 5587              	.LFB435:
 5588              		.loc 15 690 0
 5589              		.cfi_startproc
 5590              		@ args = 0, pretend = 0, frame = 24
 5591              		@ frame_needed = 0, uses_anonymous_args = 0
 5592 1370 00B5     		push	{lr}
 5593              		.cfi_def_cfa_offset 4
 5594              		.cfi_offset 14, -4
 5595 1372 89B0     		sub	sp, sp, #36
 5596              		.cfi_def_cfa_offset 40
 5597 1374 0390     		str	r0, [sp, #12]
 5598              	.LBB71:
 5599              		.loc 15 692 0
 5600 1376 0398     		ldr	r0, [sp, #12]
 5601 1378 FFF7FEFF 		bl	_ZN3r2p10Bootloader7get_appEPKc
 5602 137c 0790     		str	r0, [sp, #28]
 5603              		.loc 15 693 0
 5604 137e 079B     		ldr	r3, [sp, #28]
 5605 1380 002B     		cmp	r3, #0
 5606 1382 01D1     		bne	.L391
 5607              		.loc 15 693 0 is_stmt 0 discriminator 1
 5608 1384 0023     		movs	r3, #0
 5609 1386 30E0     		b	.L392
 5610              	.L391:
 5611              		.loc 15 694 0 is_stmt 1
 5612 1388 079B     		ldr	r3, [sp, #28]
 5613 138a 93F84030 		ldrb	r3, [r3, #64]	@ zero_extendqisi2
 5614 138e 03F00103 		and	r3, r3, #1
 5615 1392 DBB2     		uxtb	r3, r3
 5616 1394 002B     		cmp	r3, #0
 5617 1396 01D1     		bne	.L393
 5618              		.loc 15 694 0 is_stmt 0 discriminator 1
 5619 1398 0123     		movs	r3, #1
 5620 139a 26E0     		b	.L392
 5621              	.L393:
 5622              		.loc 15 696 0 is_stmt 1
 5623 139c 0920     		movs	r0, #9
 5624 139e FFF7FEFF 		bl	_Znaj
 5625 13a2 0690     		str	r0, [sp, #24]
 5626              		.loc 15 697 0
 5627 13a4 069B     		ldr	r3, [sp, #24]
 5628 13a6 002B     		cmp	r3, #0
 5629 13a8 01D1     		bne	.L394
 5630              		.loc 15 697 0 is_stmt 0 discriminator 1
 5631 13aa 0023     		movs	r3, #0
 5632 13ac 1DE0     		b	.L392
 5633              	.L394:
 5634              		.loc 15 698 0 is_stmt 1
 5635 13ae 079B     		ldr	r3, [sp, #28]
 5636 13b0 3833     		adds	r3, r3, #56
 5637 13b2 0698     		ldr	r0, [sp, #24]
 5638 13b4 1946     		mov	r1, r3
 5639 13b6 0822     		movs	r2, #8
 5640 13b8 FFF7FEFF 		bl	strncpy
ARM GAS  /tmp/cc5OZvFd.s 			page 100


 5641              		.loc 15 699 0
 5642 13bc 069B     		ldr	r3, [sp, #24]
 5643 13be 0833     		adds	r3, r3, #8
 5644 13c0 0022     		movs	r2, #0
 5645 13c2 1A70     		strb	r2, [r3]
 5646              		.loc 15 704 0
 5647 13c4 079B     		ldr	r3, [sp, #28]
 5648 13c6 1A6A     		ldr	r2, [r3, #32]
 5649 13c8 079B     		ldr	r3, [sp, #28]
 5650 13ca 0093     		str	r3, [sp]
 5651 13cc 069B     		ldr	r3, [sp, #24]
 5652 13ce 0193     		str	r3, [sp, #4]
 5653 13d0 0020     		movs	r0, #0
 5654 13d2 1146     		mov	r1, r2
 5655 13d4 4022     		movs	r2, #64
 5656 13d6 074B     		ldr	r3, .L395
 5657 13d8 FFF7FEFF 		bl	_ZN3r2p6Thread11create_heapEPvjmPFlS1_ES1_PKc
 5658 13dc 0590     		str	r0, [sp, #20]
 5659              		.loc 15 705 0
 5660 13de 059B     		ldr	r3, [sp, #20]
 5661 13e0 002B     		cmp	r3, #0
 5662 13e2 14BF     		ite	ne
 5663 13e4 0123     		movne	r3, #1
 5664 13e6 0023     		moveq	r3, #0
 5665 13e8 DBB2     		uxtb	r3, r3
 5666              	.L392:
 5667              	.LBE71:
 5668              		.loc 15 706 0
 5669 13ea 1846     		mov	r0, r3
 5670 13ec 09B0     		add	sp, sp, #36
 5671              		.cfi_def_cfa_offset 4
 5672              		@ sp needed
 5673 13ee 5DF804FB 		ldr	pc, [sp], #4
 5674              	.L396:
 5675 13f2 00BF     		.align	2
 5676              	.L395:
 5677 13f4 00000000 		.word	_ZN3r2p10Bootloader19app_threadf_wrapperEPv
 5678              		.cfi_endproc
 5679              	.LFE435:
 5680              		.size	_ZN3r2p10Bootloader6launchEPKc, .-_ZN3r2p10Bootloader6launchEPKc
 5681              		.align	2
 5682              		.global	_ZN3r2p10Bootloader19app_threadf_wrapperEPv
 5683              		.thumb
 5684              		.thumb_func
 5685              		.type	_ZN3r2p10Bootloader19app_threadf_wrapperEPv, %function
 5686              	_ZN3r2p10Bootloader19app_threadf_wrapperEPv:
 5687              	.LFB436:
 5688              		.loc 15 709 0
 5689              		.cfi_startproc
 5690              		@ args = 0, pretend = 0, frame = 16
 5691              		@ frame_needed = 0, uses_anonymous_args = 0
 5692 13f8 30B5     		push	{r4, r5, lr}
 5693              		.cfi_def_cfa_offset 12
 5694              		.cfi_offset 4, -12
 5695              		.cfi_offset 5, -8
 5696              		.cfi_offset 14, -4
 5697 13fa 85B0     		sub	sp, sp, #20
ARM GAS  /tmp/cc5OZvFd.s 			page 101


 5698              		.cfi_def_cfa_offset 32
 5699 13fc 0190     		str	r0, [sp, #4]
 5700              	.LBB72:
 5701              		.loc 15 714 0
 5702 13fe 019C     		ldr	r4, [sp, #4]
 5703              		.loc 15 717 0
 5704 1400 2269     		ldr	r2, [r4, #16]
 5705 1402 A368     		ldr	r3, [r4, #8]
 5706 1404 1046     		mov	r0, r2
 5707 1406 0021     		movs	r1, #0
 5708 1408 1A46     		mov	r2, r3
 5709 140a FFF7FEFF 		bl	memset
 5710              		.loc 15 721 0
 5711 140e 6569     		ldr	r5, [r4, #20]
 5712              		.loc 15 720 0
 5713 1410 2046     		mov	r0, r4
 5714 1412 FFF7FEFF 		bl	_ZNK3r2p10Bootloader12FlashAppInfo16get_data_programEv
 5715 1416 0246     		mov	r2, r0
 5716              		.loc 15 721 0
 5717 1418 E368     		ldr	r3, [r4, #12]
 5718 141a 2846     		mov	r0, r5
 5719 141c 1146     		mov	r1, r2
 5720 141e 1A46     		mov	r2, r3
 5721 1420 FFF7FEFF 		bl	memcpy
 5722              	.LBB73:
 5723              		.loc 15 724 0
 5724 1424 0023     		movs	r3, #0
 5725 1426 0393     		str	r3, [sp, #12]
 5726 1428 08E0     		b	.L398
 5727              	.L399:
 5728              		.loc 15 725 0 discriminator 3
 5729 142a A26A     		ldr	r2, [r4, #40]
 5730 142c 039B     		ldr	r3, [sp, #12]
 5731 142e 9B00     		lsls	r3, r3, #2
 5732 1430 1344     		add	r3, r3, r2
 5733 1432 1B68     		ldr	r3, [r3]
 5734 1434 9847     		blx	r3
 5735              		.loc 15 724 0 discriminator 3
 5736 1436 039B     		ldr	r3, [sp, #12]
 5737 1438 0133     		adds	r3, r3, #1
 5738 143a 0393     		str	r3, [sp, #12]
 5739              	.L398:
 5740              		.loc 15 724 0 is_stmt 0 discriminator 1
 5741 143c E26A     		ldr	r2, [r4, #44]
 5742 143e 039B     		ldr	r3, [sp, #12]
 5743 1440 9A42     		cmp	r2, r3
 5744 1442 F2D8     		bhi	.L399
 5745              	.LBE73:
 5746              		.loc 15 729 0 is_stmt 1
 5747 1444 636A     		ldr	r3, [r4, #36]
 5748 1446 9847     		blx	r3
 5749              	.LBB74:
 5750              		.loc 15 732 0
 5751 1448 0023     		movs	r3, #0
 5752 144a 0293     		str	r3, [sp, #8]
 5753 144c 08E0     		b	.L400
 5754              	.L401:
ARM GAS  /tmp/cc5OZvFd.s 			page 102


 5755              		.loc 15 733 0 discriminator 3
 5756 144e 226B     		ldr	r2, [r4, #48]
 5757 1450 029B     		ldr	r3, [sp, #8]
 5758 1452 9B00     		lsls	r3, r3, #2
 5759 1454 1344     		add	r3, r3, r2
 5760 1456 1B68     		ldr	r3, [r3]
 5761 1458 9847     		blx	r3
 5762              		.loc 15 732 0 discriminator 3
 5763 145a 029B     		ldr	r3, [sp, #8]
 5764 145c 0133     		adds	r3, r3, #1
 5765 145e 0293     		str	r3, [sp, #8]
 5766              	.L400:
 5767              		.loc 15 732 0 is_stmt 0 discriminator 1
 5768 1460 626B     		ldr	r2, [r4, #52]
 5769 1462 029B     		ldr	r3, [sp, #8]
 5770 1464 9A42     		cmp	r2, r3
 5771 1466 F2D8     		bhi	.L401
 5772              	.LBE74:
 5773              		.loc 15 736 0 is_stmt 1
 5774 1468 0023     		movs	r3, #0
 5775              	.LBE72:
 5776              		.loc 15 737 0
 5777 146a 1846     		mov	r0, r3
 5778 146c 05B0     		add	sp, sp, #20
 5779              		.cfi_def_cfa_offset 12
 5780              		@ sp needed
 5781 146e 30BD     		pop	{r4, r5, pc}
 5782              		.cfi_endproc
 5783              	.LFE436:
 5784              		.size	_ZN3r2p10Bootloader19app_threadf_wrapperEPv, .-_ZN3r2p10Bootloader19app_threadf_wrapperEPv
 5785              		.align	2
 5786              		.global	_ZN3r2p10Bootloader10launch_allEv
 5787              		.thumb
 5788              		.thumb_func
 5789              		.type	_ZN3r2p10Bootloader10launch_allEv, %function
 5790              	_ZN3r2p10Bootloader10launch_allEv:
 5791              	.LFB437:
 5792              		.loc 15 740 0
 5793              		.cfi_startproc
 5794              		@ args = 0, pretend = 0, frame = 16
 5795              		@ frame_needed = 0, uses_anonymous_args = 0
 5796 1470 00B5     		push	{lr}
 5797              		.cfi_def_cfa_offset 4
 5798              		.cfi_offset 14, -4
 5799 1472 85B0     		sub	sp, sp, #20
 5800              		.cfi_def_cfa_offset 24
 5801              	.LBB75:
 5802              		.loc 15 742 0
 5803 1474 0123     		movs	r3, #1
 5804 1476 8DF80F30 		strb	r3, [sp, #15]
 5805              	.LBB76:
 5806              		.loc 15 743 0
 5807 147a 01AB     		add	r3, sp, #4
 5808 147c 1846     		mov	r0, r3
 5809 147e FFF7FEFF 		bl	_ZN3r2p10Bootloader5beginEv
 5810 1482 15E0     		b	.L404
 5811              	.L406:
ARM GAS  /tmp/cc5OZvFd.s 			page 103


 5812              		.loc 15 744 0
 5813 1484 01AB     		add	r3, sp, #4
 5814 1486 1846     		mov	r0, r3
 5815 1488 FFF7FEFF 		bl	_ZNK3r2p10Bootloader8IteratorptEv
 5816 148c 0346     		mov	r3, r0
 5817 148e 3833     		adds	r3, r3, #56
 5818 1490 1846     		mov	r0, r3
 5819 1492 FFF7FEFF 		bl	_ZN3r2p10Bootloader6launchEPKc
 5820 1496 0346     		mov	r3, r0
 5821 1498 83F00103 		eor	r3, r3, #1
 5822 149c DBB2     		uxtb	r3, r3
 5823 149e 002B     		cmp	r3, #0
 5824 14a0 02D0     		beq	.L405
 5825              		.loc 15 745 0
 5826 14a2 0023     		movs	r3, #0
 5827 14a4 8DF80F30 		strb	r3, [sp, #15]
 5828              	.L405:
 5829              		.loc 15 743 0 discriminator 2
 5830 14a8 01AB     		add	r3, sp, #4
 5831 14aa 1846     		mov	r0, r3
 5832 14ac FFF7FEFF 		bl	_ZN3r2p10Bootloader8IteratorppEv
 5833              	.L404:
 5834              		.loc 15 743 0 is_stmt 0 discriminator 1
 5835 14b0 02AB     		add	r3, sp, #8
 5836 14b2 1846     		mov	r0, r3
 5837 14b4 FFF7FEFF 		bl	_ZN3r2p10Bootloader3endEv
 5838 14b8 01AA     		add	r2, sp, #4
 5839 14ba 02AB     		add	r3, sp, #8
 5840 14bc 1046     		mov	r0, r2
 5841 14be 1946     		mov	r1, r3
 5842 14c0 FFF7FEFF 		bl	_ZNK3r2p10Bootloader8IteratorneERKS1_
 5843 14c4 0346     		mov	r3, r0
 5844 14c6 002B     		cmp	r3, #0
 5845 14c8 DCD1     		bne	.L406
 5846              	.LBE76:
 5847              		.loc 15 748 0 is_stmt 1
 5848 14ca 9DF80F30 		ldrb	r3, [sp, #15]	@ zero_extendqisi2
 5849              	.LBE75:
 5850              		.loc 15 749 0
 5851 14ce 1846     		mov	r0, r3
 5852 14d0 05B0     		add	sp, sp, #20
 5853              		.cfi_def_cfa_offset 4
 5854              		@ sp needed
 5855 14d2 5DF804FB 		ldr	pc, [sp], #4
 5856              		.cfi_endproc
 5857              	.LFE437:
 5858              		.size	_ZN3r2p10Bootloader10launch_allEv, .-_ZN3r2p10Bootloader10launch_allEv
 5859              		.section	.text._ZN3r2p18compute_chunk_sizeIhEEjPKT_S3_,"axG",%progbits,_ZN3r2p18compute_chunk_size
 5860              		.align	2
 5861              		.weak	_ZN3r2p18compute_chunk_sizeIhEEjPKT_S3_
 5862              		.thumb
 5863              		.thumb_func
 5864              		.type	_ZN3r2p18compute_chunk_sizeIhEEjPKT_S3_, %function
 5865              	_ZN3r2p18compute_chunk_sizeIhEEjPKT_S3_:
 5866              	.LFB438:
 5867              		.loc 4 62 0
 5868              		.cfi_startproc
ARM GAS  /tmp/cc5OZvFd.s 			page 104


 5869              		@ args = 0, pretend = 0, frame = 8
 5870              		@ frame_needed = 0, uses_anonymous_args = 0
 5871              		@ link register save eliminated.
 5872 0000 82B0     		sub	sp, sp, #8
 5873              		.cfi_def_cfa_offset 8
 5874 0002 0190     		str	r0, [sp, #4]
 5875 0004 0091     		str	r1, [sp]
 5876              		.loc 4 66 0
 5877 0006 009A     		ldr	r2, [sp]
 5878 0008 019B     		ldr	r3, [sp, #4]
 5879 000a D31A     		subs	r3, r2, r3
 5880              		.loc 4 67 0
 5881 000c 1846     		mov	r0, r3
 5882 000e 02B0     		add	sp, sp, #8
 5883              		.cfi_def_cfa_offset 0
 5884              		@ sp needed
 5885 0010 7047     		bx	lr
 5886              		.cfi_endproc
 5887              	.LFE438:
 5888              		.size	_ZN3r2p18compute_chunk_sizeIhEEjPKT_S3_, .-_ZN3r2p18compute_chunk_sizeIhEEjPKT_S3_
 5889 0012 00BF     		.section	.text._ZN3r2p4TimeC2IlEET_,"axG",%progbits,_ZN3r2p4TimeC5IlEET_,comdat
 5890              		.align	2
 5891              		.weak	_ZN3r2p4TimeC2IlEET_
 5892              		.thumb
 5893              		.thumb_func
 5894              		.type	_ZN3r2p4TimeC2IlEET_, %function
 5895              	_ZN3r2p4TimeC2IlEET_:
 5896              	.LFB440:
 5897              		.loc 9 159 0
 5898              		.cfi_startproc
 5899              		@ args = 0, pretend = 0, frame = 8
 5900              		@ frame_needed = 0, uses_anonymous_args = 0
 5901              		@ link register save eliminated.
 5902 0000 82B0     		sub	sp, sp, #8
 5903              		.cfi_def_cfa_offset 8
 5904 0002 0190     		str	r0, [sp, #4]
 5905 0004 0091     		str	r1, [sp]
 5906              	.LBB77:
 5907              		.loc 9 161 0
 5908 0006 019B     		ldr	r3, [sp, #4]
 5909 0008 009A     		ldr	r2, [sp]
 5910 000a 1A60     		str	r2, [r3]
 5911              	.LBE77:
 5912              		.loc 9 162 0
 5913 000c 019B     		ldr	r3, [sp, #4]
 5914 000e 1846     		mov	r0, r3
 5915 0010 02B0     		add	sp, sp, #8
 5916              		.cfi_def_cfa_offset 0
 5917              		@ sp needed
 5918 0012 7047     		bx	lr
 5919              		.cfi_endproc
 5920              	.LFE440:
 5921              		.size	_ZN3r2p4TimeC2IlEET_, .-_ZN3r2p4TimeC2IlEET_
 5922              		.weak	_ZN3r2p4TimeC1IlEET_
 5923              		.thumb_set _ZN3r2p4TimeC1IlEET_,_ZN3r2p4TimeC2IlEET_
 5924              		.section	.text._ZN3r2p9PublisherINS_7BootMsgEE5allocERPS1_,"axG",%progbits,_ZN3r2p9PublisherINS_7B
 5925              		.align	2
ARM GAS  /tmp/cc5OZvFd.s 			page 105


 5926              		.weak	_ZN3r2p9PublisherINS_7BootMsgEE5allocERPS1_
 5927              		.thumb
 5928              		.thumb_func
 5929              		.type	_ZN3r2p9PublisherINS_7BootMsgEE5allocERPS1_, %function
 5930              	_ZN3r2p9PublisherINS_7BootMsgEE5allocERPS1_:
 5931              	.LFB453:
 5932              		.file 16 "/opt/R2P/core/Middleware/include/r2p/Publisher.hpp"
 5933              		.loc 16 25 0
 5934              		.cfi_startproc
 5935              		@ args = 0, pretend = 0, frame = 8
 5936              		@ frame_needed = 0, uses_anonymous_args = 0
 5937 0000 00B5     		push	{lr}
 5938              		.cfi_def_cfa_offset 4
 5939              		.cfi_offset 14, -4
 5940 0002 83B0     		sub	sp, sp, #12
 5941              		.cfi_def_cfa_offset 16
 5942 0004 0190     		str	r0, [sp, #4]
 5943 0006 0091     		str	r1, [sp]
 5944              		.loc 16 28 0
 5945 0008 019B     		ldr	r3, [sp, #4]
 5946 000a 1846     		mov	r0, r3
 5947 000c 0099     		ldr	r1, [sp]
 5948 000e FFF7FEFF 		bl	_ZN3r2p13BasePublisher5allocERPNS_7MessageE
 5949 0012 0346     		mov	r3, r0
 5950              		.loc 16 29 0
 5951 0014 1846     		mov	r0, r3
 5952 0016 03B0     		add	sp, sp, #12
 5953              		.cfi_def_cfa_offset 4
 5954              		@ sp needed
 5955 0018 5DF804FB 		ldr	pc, [sp], #4
 5956              		.cfi_endproc
 5957              	.LFE453:
 5958              		.size	_ZN3r2p9PublisherINS_7BootMsgEE5allocERPS1_, .-_ZN3r2p9PublisherINS_7BootMsgEE5allocERPS1_
 5959              		.section	.text._ZN3r2p7Message13reset_payloadINS_7BootMsgEEEvRT_,"axG",%progbits,_ZN3r2p7Message13
 5960              		.align	2
 5961              		.weak	_ZN3r2p7Message13reset_payloadINS_7BootMsgEEEvRT_
 5962              		.thumb
 5963              		.thumb_func
 5964              		.type	_ZN3r2p7Message13reset_payloadINS_7BootMsgEEEvRT_, %function
 5965              	_ZN3r2p7Message13reset_payloadINS_7BootMsgEEEvRT_:
 5966              	.LFB454:
 5967              		.loc 7 180 0
 5968              		.cfi_startproc
 5969              		@ args = 0, pretend = 0, frame = 8
 5970              		@ frame_needed = 0, uses_anonymous_args = 0
 5971 0000 10B5     		push	{r4, lr}
 5972              		.cfi_def_cfa_offset 8
 5973              		.cfi_offset 4, -8
 5974              		.cfi_offset 14, -4
 5975 0002 82B0     		sub	sp, sp, #8
 5976              		.cfi_def_cfa_offset 16
 5977 0004 0190     		str	r0, [sp, #4]
 5978              		.loc 7 183 0
 5979 0006 019B     		ldr	r3, [sp, #4]
 5980 0008 9C1C     		adds	r4, r3, #2
 5981 000a FFF7FEFF 		bl	_ZN3r2p7Message16get_payload_sizeINS_7BootMsgEEEjv
 5982 000e 0346     		mov	r3, r0
ARM GAS  /tmp/cc5OZvFd.s 			page 106


 5983 0010 2046     		mov	r0, r4
 5984 0012 0021     		movs	r1, #0
 5985 0014 1A46     		mov	r2, r3
 5986 0016 FFF7FEFF 		bl	memset
 5987              		.loc 7 184 0
 5988 001a 02B0     		add	sp, sp, #8
 5989              		.cfi_def_cfa_offset 8
 5990              		@ sp needed
 5991 001c 10BD     		pop	{r4, pc}
 5992              		.cfi_endproc
 5993              	.LFE454:
 5994              		.size	_ZN3r2p7Message13reset_payloadINS_7BootMsgEEEvRT_, .-_ZN3r2p7Message13reset_payloadINS_7Boot
 5995 001e 00BF     		.section	.text._ZN3r2p16SubscriberExtBufINS_7BootMsgEE5fetchERPS1_,"axG",%progbits,_ZN3r2p16Subscr
 5996              		.align	2
 5997              		.weak	_ZN3r2p16SubscriberExtBufINS_7BootMsgEE5fetchERPS1_
 5998              		.thumb
 5999              		.thumb_func
 6000              		.type	_ZN3r2p16SubscriberExtBufINS_7BootMsgEE5fetchERPS1_, %function
 6001              	_ZN3r2p16SubscriberExtBufINS_7BootMsgEE5fetchERPS1_:
 6002              	.LFB455:
 6003              		.file 17 "/opt/R2P/core/Middleware/include/r2p/SubscriberExtBuf.hpp"
 6004              		.loc 17 31 0
 6005              		.cfi_startproc
 6006              		@ args = 0, pretend = 0, frame = 8
 6007              		@ frame_needed = 0, uses_anonymous_args = 0
 6008 0000 00B5     		push	{lr}
 6009              		.cfi_def_cfa_offset 4
 6010              		.cfi_offset 14, -4
 6011 0002 83B0     		sub	sp, sp, #12
 6012              		.cfi_def_cfa_offset 16
 6013 0004 0190     		str	r0, [sp, #4]
 6014 0006 0091     		str	r1, [sp]
 6015              		.loc 17 34 0
 6016 0008 019B     		ldr	r3, [sp, #4]
 6017 000a 1846     		mov	r0, r3
 6018 000c 0099     		ldr	r1, [sp]
 6019 000e FFF7FEFF 		bl	_ZN3r2p15LocalSubscriber5fetchERPNS_7MessageE
 6020 0012 0346     		mov	r3, r0
 6021              		.loc 17 35 0
 6022 0014 1846     		mov	r0, r3
 6023 0016 03B0     		add	sp, sp, #12
 6024              		.cfi_def_cfa_offset 4
 6025              		@ sp needed
 6026 0018 5DF804FB 		ldr	pc, [sp], #4
 6027              		.cfi_endproc
 6028              	.LFE455:
 6029              		.size	_ZN3r2p16SubscriberExtBufINS_7BootMsgEE5fetchERPS1_, .-_ZN3r2p16SubscriberExtBufINS_7BootMsg
 6030              		.section	.text._ZN3r2p16SubscriberExtBufINS_7BootMsgEE7releaseERS1_,"axG",%progbits,_ZN3r2p16Subsc
 6031              		.align	2
 6032              		.weak	_ZN3r2p16SubscriberExtBufINS_7BootMsgEE7releaseERS1_
 6033              		.thumb
 6034              		.thumb_func
 6035              		.type	_ZN3r2p16SubscriberExtBufINS_7BootMsgEE7releaseERS1_, %function
 6036              	_ZN3r2p16SubscriberExtBufINS_7BootMsgEE7releaseERS1_:
 6037              	.LFB456:
 6038              		.loc 17 57 0
 6039              		.cfi_startproc
ARM GAS  /tmp/cc5OZvFd.s 			page 107


 6040              		@ args = 0, pretend = 0, frame = 8
 6041              		@ frame_needed = 0, uses_anonymous_args = 0
 6042 0000 00B5     		push	{lr}
 6043              		.cfi_def_cfa_offset 4
 6044              		.cfi_offset 14, -4
 6045 0002 83B0     		sub	sp, sp, #12
 6046              		.cfi_def_cfa_offset 16
 6047 0004 0190     		str	r0, [sp, #4]
 6048 0006 0091     		str	r1, [sp]
 6049              		.loc 17 60 0
 6050 0008 019A     		ldr	r2, [sp, #4]
 6051 000a 009B     		ldr	r3, [sp]
 6052 000c 1046     		mov	r0, r2
 6053 000e 1946     		mov	r1, r3
 6054 0010 FFF7FEFF 		bl	_ZN3r2p14BaseSubscriber7releaseERNS_7MessageE
 6055 0014 0346     		mov	r3, r0
 6056              		.loc 17 61 0
 6057 0016 1846     		mov	r0, r3
 6058 0018 03B0     		add	sp, sp, #12
 6059              		.cfi_def_cfa_offset 4
 6060              		@ sp needed
 6061 001a 5DF804FB 		ldr	pc, [sp], #4
 6062              		.cfi_endproc
 6063              	.LFE456:
 6064              		.size	_ZN3r2p16SubscriberExtBufINS_7BootMsgEE7releaseERS1_, .-_ZN3r2p16SubscriberExtBufINS_7BootMs
 6065 001e 00BF     		.section	.text._ZN3r2p7Message16get_payload_sizeINS_7BootMsgEEEjv,"axG",%progbits,_ZN3r2p7Message1
 6066              		.align	2
 6067              		.weak	_ZN3r2p7Message16get_payload_sizeINS_7BootMsgEEEjv
 6068              		.thumb
 6069              		.thumb_func
 6070              		.type	_ZN3r2p7Message16get_payload_sizeINS_7BootMsgEEEjv, %function
 6071              	_ZN3r2p7Message16get_payload_sizeINS_7BootMsgEEEjv:
 6072              	.LFB458:
 6073              		.loc 7 172 0
 6074              		.cfi_startproc
 6075              		@ args = 0, pretend = 0, frame = 0
 6076              		@ frame_needed = 0, uses_anonymous_args = 0
 6077 0000 08B5     		push	{r3, lr}
 6078              		.cfi_def_cfa_offset 8
 6079              		.cfi_offset 3, -8
 6080              		.cfi_offset 14, -4
 6081              		.loc 7 175 0
 6082 0002 2120     		movs	r0, #33
 6083 0004 FFF7FEFF 		bl	_ZN3r2p7Message16get_payload_sizeEj
 6084 0008 0346     		mov	r3, r0
 6085              		.loc 7 176 0
 6086 000a 1846     		mov	r0, r3
 6087 000c 08BD     		pop	{r3, pc}
 6088              		.cfi_endproc
 6089              	.LFE458:
 6090              		.size	_ZN3r2p7Message16get_payload_sizeINS_7BootMsgEEEjv, .-_ZN3r2p7Message16get_payload_sizeINS_7
 6091 000e 00BF     		.text
 6092              	.Letext0:
 6093              		.file 18 "/opt/R2P/tools/gcc-arm-none-eabi-4_9-2014q4/lib/gcc/arm-none-eabi/4.9.3/include/stddef.h
 6094              		.file 19 "/opt/R2P/tools/gcc-arm-none-eabi-4_9-2014q4/arm-none-eabi/include/machine/_default_types
 6095              		.file 20 "/opt/R2P/tools/gcc-arm-none-eabi-4_9-2014q4/arm-none-eabi/include/c++/4.9.3/cstring"
 6096              		.file 21 "/opt/R2P/tools/gcc-arm-none-eabi-4_9-2014q4/arm-none-eabi/include/string.h"
ARM GAS  /tmp/cc5OZvFd.s 			page 108


 6097              		.file 22 "<built-in>"
 6098              		.file 23 "/opt/R2P/core/Middleware/include/r2p/NamingTraits.hpp"
 6099              		.file 24 "/opt/R2P/core/Middleware/include/r2p/BootMsg.hpp"
 6100              		.file 25 "/opt/R2P/core/Middleware/include/r2p/StaticList.hpp"
 6101              		.file 26 "/opt/R2P/core/Middleware/include/r2p/MgmtMsg.hpp"
 6102              		.file 27 "/opt/R2P/tools/gcc-arm-none-eabi-4_9-2014q4/arm-none-eabi/include/stdint.h"
 6103              		.file 28 "/opt/R2P/core/ChibiOS_2.6.5/os/ports/GCC/ARMCMx/chtypes.h"
 6104              		.file 29 "/opt/R2P/core/ChibiOS_2.6.5/os/kernel/include/chlists.h"
 6105              		.file 30 "/opt/R2P/core/ChibiOS_2.6.5/os/kernel/include/chthreads.h"
 6106              		.file 31 "/opt/R2P/core/ChibiOS_2.6.5/os/ports/GCC/ARMCMx/chcore_v7m.h"
 6107              		.file 32 "/opt/R2P/core/ChibiOS_2.6.5/os/kernel/include/chschd.h"
 6108              		.file 33 "/opt/R2P/core/ChibiOS_2.6.5/os/kernel/include/chmtx.h"
 6109              		.file 34 "/opt/R2P/core/ChibiOS_2.6.5/os/kernel/include/chmemcore.h"
 6110              		.file 35 "/opt/R2P/core/ChibiOS_2.6.5/os/kernel/include/chheap.h"
 6111              		.file 36 "/opt/R2P/core/ChibiOS_2.6.5/os/kernel/include/chmempools.h"
 6112 14d6 00BF     		.section	.debug_info,"",%progbits
 6113              	.Ldebug_info0:
 6114 0000 E1540000 		.4byte	0x54e1
 6115 0004 0400     		.2byte	0x4
 6116 0006 00000000 		.4byte	.Ldebug_abbrev0
 6117 000a 04       		.byte	0x4
 6118 000b 01       		.uleb128 0x1
 6119 000c 710E0000 		.4byte	.LASF827
 6120 0010 04       		.byte	0x4
 6121 0011 B5350000 		.4byte	.LASF828
 6122 0015 4E1D0000 		.4byte	.LASF829
 6123 0019 18000000 		.4byte	.Ldebug_ranges0+0x18
 6124 001d 00000000 		.4byte	0
 6125 0021 00000000 		.4byte	.Ldebug_line0
 6126 0025 02       		.uleb128 0x2
 6127 0026 77190000 		.4byte	.LASF0
 6128 002a 12       		.byte	0x12
 6129 002b 93       		.byte	0x93
 6130 002c 30000000 		.4byte	0x30
 6131 0030 03       		.uleb128 0x3
 6132 0031 04       		.byte	0x4
 6133 0032 05       		.byte	0x5
 6134 0033 696E7400 		.ascii	"int\000"
 6135 0037 02       		.uleb128 0x2
 6136 0038 D0000000 		.4byte	.LASF1
 6137 003c 12       		.byte	0x12
 6138 003d D4       		.byte	0xd4
 6139 003e 42000000 		.4byte	0x42
 6140 0042 04       		.uleb128 0x4
 6141 0043 04       		.byte	0x4
 6142 0044 07       		.byte	0x7
 6143 0045 3E2A0000 		.4byte	.LASF2
 6144 0049 04       		.uleb128 0x4
 6145 004a 01       		.byte	0x1
 6146 004b 06       		.byte	0x6
 6147 004c 1D110000 		.4byte	.LASF3
 6148 0050 02       		.uleb128 0x2
 6149 0051 F5090000 		.4byte	.LASF4
 6150 0055 13       		.byte	0x13
 6151 0056 1D       		.byte	0x1d
 6152 0057 5B000000 		.4byte	0x5b
 6153 005b 04       		.uleb128 0x4
ARM GAS  /tmp/cc5OZvFd.s 			page 109


 6154 005c 01       		.byte	0x1
 6155 005d 08       		.byte	0x8
 6156 005e C5120000 		.4byte	.LASF5
 6157 0062 04       		.uleb128 0x4
 6158 0063 02       		.byte	0x2
 6159 0064 05       		.byte	0x5
 6160 0065 5A3D0000 		.4byte	.LASF6
 6161 0069 02       		.uleb128 0x2
 6162 006a B2170000 		.4byte	.LASF7
 6163 006e 13       		.byte	0x13
 6164 006f 2B       		.byte	0x2b
 6165 0070 74000000 		.4byte	0x74
 6166 0074 04       		.uleb128 0x4
 6167 0075 02       		.byte	0x2
 6168 0076 07       		.byte	0x7
 6169 0077 91470000 		.4byte	.LASF8
 6170 007b 02       		.uleb128 0x2
 6171 007c 3C490000 		.4byte	.LASF9
 6172 0080 13       		.byte	0x13
 6173 0081 3F       		.byte	0x3f
 6174 0082 86000000 		.4byte	0x86
 6175 0086 04       		.uleb128 0x4
 6176 0087 04       		.byte	0x4
 6177 0088 05       		.byte	0x5
 6178 0089 E10B0000 		.4byte	.LASF10
 6179 008d 02       		.uleb128 0x2
 6180 008e 4F250000 		.4byte	.LASF11
 6181 0092 13       		.byte	0x13
 6182 0093 41       		.byte	0x41
 6183 0094 98000000 		.4byte	0x98
 6184 0098 04       		.uleb128 0x4
 6185 0099 04       		.byte	0x4
 6186 009a 07       		.byte	0x7
 6187 009b BB200000 		.4byte	.LASF12
 6188 009f 04       		.uleb128 0x4
 6189 00a0 08       		.byte	0x8
 6190 00a1 05       		.byte	0x5
 6191 00a2 69250000 		.4byte	.LASF13
 6192 00a6 02       		.uleb128 0x2
 6193 00a7 9C200000 		.4byte	.LASF14
 6194 00ab 13       		.byte	0x13
 6195 00ac 5B       		.byte	0x5b
 6196 00ad B1000000 		.4byte	0xb1
 6197 00b1 04       		.uleb128 0x4
 6198 00b2 08       		.byte	0x8
 6199 00b3 07       		.byte	0x7
 6200 00b4 C9340000 		.4byte	.LASF15
 6201 00b8 02       		.uleb128 0x2
 6202 00b9 C13A0000 		.4byte	.LASF16
 6203 00bd 13       		.byte	0x13
 6204 00be CA       		.byte	0xca
 6205 00bf 42000000 		.4byte	0x42
 6206 00c3 04       		.uleb128 0x4
 6207 00c4 04       		.byte	0x4
 6208 00c5 07       		.byte	0x7
 6209 00c6 EA000000 		.4byte	.LASF17
 6210 00ca 05       		.uleb128 0x5
ARM GAS  /tmp/cc5OZvFd.s 			page 110


 6211 00cb 04       		.byte	0x4
 6212 00cc 06       		.uleb128 0x6
 6213 00cd 04       		.byte	0x4
 6214 00ce D2000000 		.4byte	0xd2
 6215 00d2 07       		.uleb128 0x7
 6216 00d3 06       		.uleb128 0x6
 6217 00d4 04       		.byte	0x4
 6218 00d5 D9000000 		.4byte	0xd9
 6219 00d9 04       		.uleb128 0x4
 6220 00da 01       		.byte	0x1
 6221 00db 08       		.byte	0x8
 6222 00dc 7F150000 		.4byte	.LASF18
 6223 00e0 06       		.uleb128 0x6
 6224 00e1 04       		.byte	0x4
 6225 00e2 E6000000 		.4byte	0xe6
 6226 00e6 08       		.uleb128 0x8
 6227 00e7 D9000000 		.4byte	0xd9
 6228 00eb 09       		.uleb128 0x9
 6229 00ec D9000000 		.4byte	0xd9
 6230 00f0 FB000000 		.4byte	0xfb
 6231 00f4 0A       		.uleb128 0xa
 6232 00f5 C3000000 		.4byte	0xc3
 6233 00f9 07       		.byte	0x7
 6234 00fa 00       		.byte	0
 6235 00fb 09       		.uleb128 0x9
 6236 00fc D9000000 		.4byte	0xd9
 6237 0100 0B010000 		.4byte	0x10b
 6238 0104 0A       		.uleb128 0xa
 6239 0105 C3000000 		.4byte	0xc3
 6240 0109 17       		.byte	0x17
 6241 010a 00       		.byte	0
 6242 010b 0B       		.uleb128 0xb
 6243 010c 73746400 		.ascii	"std\000"
 6244 0110 16       		.byte	0x16
 6245 0111 00       		.byte	0
 6246 0112 33010000 		.4byte	0x133
 6247 0116 0C       		.uleb128 0xc
 6248 0117 14       		.byte	0x14
 6249 0118 52       		.byte	0x52
 6250 0119 33010000 		.4byte	0x133
 6251 011d 0C       		.uleb128 0xc
 6252 011e 14       		.byte	0x14
 6253 011f 55       		.byte	0x55
 6254 0120 4D010000 		.4byte	0x14d
 6255 0124 0C       		.uleb128 0xc
 6256 0125 14       		.byte	0x14
 6257 0126 5B       		.byte	0x5b
 6258 0127 62010000 		.4byte	0x162
 6259 012b 0C       		.uleb128 0xc
 6260 012c 14       		.byte	0x14
 6261 012d 5C       		.byte	0x5c
 6262 012e 7C010000 		.4byte	0x17c
 6263 0132 00       		.byte	0
 6264 0133 0D       		.uleb128 0xd
 6265 0134 37240000 		.4byte	.LASF19
 6266 0138 15       		.byte	0x15
 6267 0139 1D       		.byte	0x1d
ARM GAS  /tmp/cc5OZvFd.s 			page 111


 6268 013a 30000000 		.4byte	0x30
 6269 013e 4D010000 		.4byte	0x14d
 6270 0142 0E       		.uleb128 0xe
 6271 0143 E0000000 		.4byte	0xe0
 6272 0147 0E       		.uleb128 0xe
 6273 0148 E0000000 		.4byte	0xe0
 6274 014c 00       		.byte	0
 6275 014d 0D       		.uleb128 0xd
 6276 014e 77280000 		.4byte	.LASF20
 6277 0152 15       		.byte	0x15
 6278 0153 20       		.byte	0x20
 6279 0154 D3000000 		.4byte	0xd3
 6280 0158 62010000 		.4byte	0x162
 6281 015c 0E       		.uleb128 0xe
 6282 015d 30000000 		.4byte	0x30
 6283 0161 00       		.byte	0
 6284 0162 0D       		.uleb128 0xd
 6285 0163 353D0000 		.4byte	.LASF21
 6286 0167 15       		.byte	0x15
 6287 0168 2A       		.byte	0x2a
 6288 0169 D3000000 		.4byte	0xd3
 6289 016d 7C010000 		.4byte	0x17c
 6290 0171 0E       		.uleb128 0xe
 6291 0172 D3000000 		.4byte	0xd3
 6292 0176 0E       		.uleb128 0xe
 6293 0177 E0000000 		.4byte	0xe0
 6294 017b 00       		.byte	0
 6295 017c 0D       		.uleb128 0xd
 6296 017d E3230000 		.4byte	.LASF22
 6297 0181 15       		.byte	0x15
 6298 0182 2C       		.byte	0x2c
 6299 0183 37000000 		.4byte	0x37
 6300 0187 9B010000 		.4byte	0x19b
 6301 018b 0E       		.uleb128 0xe
 6302 018c D3000000 		.4byte	0xd3
 6303 0190 0E       		.uleb128 0xe
 6304 0191 E0000000 		.4byte	0xe0
 6305 0195 0E       		.uleb128 0xe
 6306 0196 37000000 		.4byte	0x37
 6307 019a 00       		.byte	0
 6308 019b 0B       		.uleb128 0xb
 6309 019c 72327000 		.ascii	"r2p\000"
 6310 01a0 01       		.byte	0x1
 6311 01a1 03       		.byte	0x3
 6312 01a2 83360000 		.4byte	0x3683
 6313 01a6 0F       		.uleb128 0xf
 6314 01a7 CF130000 		.4byte	.LASF23
 6315 01ab 01       		.byte	0x1
 6316 01ac 01       		.byte	0x1
 6317 01ad 06       		.byte	0x6
 6318 01ae 06020000 		.4byte	0x206
 6319 01b2 10       		.uleb128 0x10
 6320 01b3 CF130000 		.4byte	.LASF23
 6321 01b7 01       		.byte	0x1
 6322 01b8 09       		.byte	0x9
 6323 01b9 83360000 		.4byte	0x3683
 6324 01bd C5010000 		.4byte	0x1c5
ARM GAS  /tmp/cc5OZvFd.s 			page 112


 6325 01c1 D0010000 		.4byte	0x1d0
 6326 01c5 11       		.uleb128 0x11
 6327 01c6 83360000 		.4byte	0x3683
 6328 01ca 0E       		.uleb128 0xe
 6329 01cb 89360000 		.4byte	0x3689
 6330 01cf 00       		.byte	0
 6331 01d0 12       		.uleb128 0x12
 6332 01d1 CF130000 		.4byte	.LASF23
 6333 01d5 01       		.byte	0x1
 6334 01d6 14       		.byte	0x14
 6335 01d7 83360000 		.4byte	0x3683
 6336 01db 02       		.byte	0x2
 6337 01dc E4010000 		.4byte	0x1e4
 6338 01e0 EA010000 		.4byte	0x1ea
 6339 01e4 11       		.uleb128 0x11
 6340 01e5 83360000 		.4byte	0x3683
 6341 01e9 00       		.byte	0
 6342 01ea 13       		.uleb128 0x13
 6343 01eb 58160000 		.4byte	.LASF24
 6344 01ef 01       		.byte	0x1
 6345 01f0 15       		.byte	0x15
 6346 01f1 CA000000 		.4byte	0xca
 6347 01f5 02       		.byte	0x2
 6348 01f6 FA010000 		.4byte	0x1fa
 6349 01fa 11       		.uleb128 0x11
 6350 01fb 83360000 		.4byte	0x3683
 6351 01ff 11       		.uleb128 0x11
 6352 0200 30000000 		.4byte	0x30
 6353 0204 00       		.byte	0
 6354 0205 00       		.byte	0
 6355 0206 08       		.uleb128 0x8
 6356 0207 A6010000 		.4byte	0x1a6
 6357 020b 0F       		.uleb128 0xf
 6358 020c 84150000 		.4byte	.LASF25
 6359 0210 01       		.byte	0x1
 6360 0211 02       		.byte	0x2
 6361 0212 09       		.byte	0x9
 6362 0213 4F020000 		.4byte	0x24f
 6363 0217 14       		.uleb128 0x14
 6364 0218 A6010000 		.4byte	0x1a6
 6365 021c 00       		.byte	0
 6366 021d 10       		.uleb128 0x10
 6367 021e 84150000 		.4byte	.LASF25
 6368 0222 02       		.byte	0x2
 6369 0223 0B       		.byte	0xb
 6370 0224 913B0000 		.4byte	0x3b91
 6371 0228 30020000 		.4byte	0x230
 6372 022c 36020000 		.4byte	0x236
 6373 0230 11       		.uleb128 0x11
 6374 0231 913B0000 		.4byte	0x3b91
 6375 0235 00       		.byte	0
 6376 0236 15       		.uleb128 0x15
 6377 0237 93060000 		.4byte	.LASF26
 6378 023b 02       		.byte	0x2
 6379 023c 0E       		.byte	0xe
 6380 023d 522E0000 		.4byte	.LASF28
 6381 0241 01       		.byte	0x1
ARM GAS  /tmp/cc5OZvFd.s 			page 113


 6382 0242 15       		.uleb128 0x15
 6383 0243 BD450000 		.4byte	.LASF27
 6384 0247 02       		.byte	0x2
 6385 0248 0F       		.byte	0xf
 6386 0249 16320000 		.4byte	.LASF29
 6387 024d 01       		.byte	0x1
 6388 024e 00       		.byte	0
 6389 024f 0F       		.uleb128 0xf
 6390 0250 E82A0000 		.4byte	.LASF30
 6391 0254 01       		.byte	0x1
 6392 0255 03       		.byte	0x3
 6393 0256 09       		.byte	0x9
 6394 0257 93020000 		.4byte	0x293
 6395 025b 14       		.uleb128 0x14
 6396 025c A6010000 		.4byte	0x1a6
 6397 0260 00       		.byte	0
 6398 0261 10       		.uleb128 0x10
 6399 0262 E82A0000 		.4byte	.LASF30
 6400 0266 03       		.byte	0x3
 6401 0267 12       		.byte	0x12
 6402 0268 973B0000 		.4byte	0x3b97
 6403 026c 74020000 		.4byte	0x274
 6404 0270 7A020000 		.4byte	0x27a
 6405 0274 11       		.uleb128 0x11
 6406 0275 973B0000 		.4byte	0x3b97
 6407 0279 00       		.byte	0
 6408 027a 15       		.uleb128 0x15
 6409 027b 93060000 		.4byte	.LASF26
 6410 027f 03       		.byte	0x3
 6411 0280 15       		.byte	0x15
 6412 0281 A0160000 		.4byte	.LASF31
 6413 0285 01       		.byte	0x1
 6414 0286 15       		.uleb128 0x15
 6415 0287 BD450000 		.4byte	.LASF27
 6416 028b 03       		.byte	0x3
 6417 028c 16       		.byte	0x16
 6418 028d 821A0000 		.4byte	.LASF32
 6419 0291 01       		.byte	0x1
 6420 0292 00       		.byte	0
 6421 0293 0F       		.uleb128 0xf
 6422 0294 60380000 		.4byte	.LASF33
 6423 0298 08       		.byte	0x8
 6424 0299 05       		.byte	0x5
 6425 029a 21       		.byte	0x21
 6426 029b 13060000 		.4byte	0x613
 6427 029f 16       		.uleb128 0x16
 6428 02a0 02       		.byte	0x2
 6429 02a1 05       		.byte	0x5
 6430 02a2 28       		.byte	0x28
 6431 02a3 01       		.byte	0x1
 6432 02a4 B0020000 		.4byte	0x2b0
 6433 02a8 17       		.uleb128 0x17
 6434 02a9 141A0000 		.4byte	.LASF34
 6435 02ad 8008     		.sleb128 1024
 6436 02af 00       		.byte	0
 6437 02b0 16       		.uleb128 0x16
 6438 02b1 01       		.byte	0x1
ARM GAS  /tmp/cc5OZvFd.s 			page 114


 6439 02b2 05       		.byte	0x5
 6440 02b3 29       		.byte	0x29
 6441 02b4 01       		.byte	0x1
 6442 02b5 C0020000 		.4byte	0x2c0
 6443 02b9 17       		.uleb128 0x17
 6444 02ba CB290000 		.4byte	.LASF35
 6445 02be 10       		.sleb128 16
 6446 02bf 00       		.byte	0
 6447 02c0 16       		.uleb128 0x16
 6448 02c1 01       		.byte	0x1
 6449 02c2 05       		.byte	0x5
 6450 02c3 2A       		.byte	0x2a
 6451 02c4 01       		.byte	0x1
 6452 02c5 D0020000 		.4byte	0x2d0
 6453 02c9 17       		.uleb128 0x17
 6454 02ca 8A330000 		.4byte	.LASF36
 6455 02ce 02       		.sleb128 2
 6456 02cf 00       		.byte	0
 6457 02d0 14       		.uleb128 0x14
 6458 02d1 A6010000 		.4byte	0x1a6
 6459 02d5 00       		.byte	0
 6460 02d6 18       		.uleb128 0x18
 6461 02d7 553D0000 		.4byte	.LASF39
 6462 02db 05       		.byte	0x5
 6463 02dc 23       		.byte	0x23
 6464 02dd 9A360000 		.4byte	0x369a
 6465 02e1 01       		.byte	0x1
 6466 02e2 19       		.uleb128 0x19
 6467 02e3 27080000 		.4byte	.LASF37
 6468 02e7 05       		.byte	0x5
 6469 02e8 30       		.byte	0x30
 6470 02e9 9D3B0000 		.4byte	0x3b9d
 6471 02ed 00       		.byte	0
 6472 02ee 19       		.uleb128 0x19
 6473 02ef 9F3B0000 		.4byte	.LASF38
 6474 02f3 05       		.byte	0x5
 6475 02f4 31       		.byte	0x31
 6476 02f5 E7360000 		.4byte	0x36e7
 6477 02f9 04       		.byte	0x4
 6478 02fa 18       		.uleb128 0x18
 6479 02fb 7A3C0000 		.4byte	.LASF40
 6480 02ff 05       		.byte	0x5
 6481 0300 24       		.byte	0x24
 6482 0301 9A360000 		.4byte	0x369a
 6483 0305 01       		.byte	0x1
 6484 0306 19       		.uleb128 0x19
 6485 0307 552F0000 		.4byte	.LASF41
 6486 030b 05       		.byte	0x5
 6487 030c 32       		.byte	0x32
 6488 030d FA020000 		.4byte	0x2fa
 6489 0311 06       		.byte	0x6
 6490 0312 1A       		.uleb128 0x1a
 6491 0313 54380000 		.4byte	.LASF300
 6492 0317 05       		.byte	0x5
 6493 0318 5A       		.byte	0x5a
 6494 0319 1E030000 		.4byte	0x31e
 6495 031d 01       		.byte	0x1
ARM GAS  /tmp/cc5OZvFd.s 			page 115


 6496 031e 08       		.uleb128 0x8
 6497 031f D6020000 		.4byte	0x2d6
 6498 0323 18       		.uleb128 0x18
 6499 0324 273A0000 		.4byte	.LASF42
 6500 0328 05       		.byte	0x5
 6501 0329 25       		.byte	0x25
 6502 032a 37000000 		.4byte	0x37
 6503 032e 01       		.byte	0x1
 6504 032f 1B       		.uleb128 0x1b
 6505 0330 6D040000 		.4byte	.LASF43
 6506 0334 05       		.byte	0x5
 6507 0335 35       		.byte	0x35
 6508 0336 3E230000 		.4byte	.LASF45
 6509 033a 01       		.byte	0x1
 6510 033b 43030000 		.4byte	0x343
 6511 033f 4E030000 		.4byte	0x34e
 6512 0343 11       		.uleb128 0x11
 6513 0344 A33B0000 		.4byte	0x3ba3
 6514 0348 0E       		.uleb128 0xe
 6515 0349 9D3B0000 		.4byte	0x3b9d
 6516 034d 00       		.byte	0
 6517 034e 1B       		.uleb128 0x1b
 6518 034f 93320000 		.4byte	.LASF44
 6519 0353 05       		.byte	0x5
 6520 0354 37       		.byte	0x37
 6521 0355 3C3D0000 		.4byte	.LASF46
 6522 0359 01       		.byte	0x1
 6523 035a 62030000 		.4byte	0x362
 6524 035e 68030000 		.4byte	0x368
 6525 0362 11       		.uleb128 0x11
 6526 0363 A33B0000 		.4byte	0x3ba3
 6527 0367 00       		.byte	0
 6528 0368 1C       		.uleb128 0x1c
 6529 0369 656E6400 		.ascii	"end\000"
 6530 036d 05       		.byte	0x5
 6531 036e 38       		.byte	0x38
 6532 036f BC1E0000 		.4byte	.LASF95
 6533 0373 E7360000 		.4byte	0x36e7
 6534 0377 01       		.byte	0x1
 6535 0378 80030000 		.4byte	0x380
 6536 037c 86030000 		.4byte	0x386
 6537 0380 11       		.uleb128 0x11
 6538 0381 A33B0000 		.4byte	0x3ba3
 6539 0385 00       		.byte	0
 6540 0386 1D       		.uleb128 0x1d
 6541 0387 16420000 		.4byte	.LASF47
 6542 038b 05       		.byte	0x5
 6543 038c 39       		.byte	0x39
 6544 038d 39430000 		.4byte	.LASF49
 6545 0391 E7360000 		.4byte	0x36e7
 6546 0395 01       		.byte	0x1
 6547 0396 9E030000 		.4byte	0x39e
 6548 039a B3030000 		.4byte	0x3b3
 6549 039e 11       		.uleb128 0x11
 6550 039f A33B0000 		.4byte	0x3ba3
 6551 03a3 0E       		.uleb128 0xe
 6552 03a4 A93B0000 		.4byte	0x3ba9
ARM GAS  /tmp/cc5OZvFd.s 			page 116


 6553 03a8 0E       		.uleb128 0xe
 6554 03a9 A93B0000 		.4byte	0x3ba9
 6555 03ad 0E       		.uleb128 0xe
 6556 03ae 37000000 		.4byte	0x37
 6557 03b2 00       		.byte	0
 6558 03b3 1D       		.uleb128 0x1d
 6559 03b4 F61C0000 		.4byte	.LASF48
 6560 03b8 05       		.byte	0x5
 6561 03b9 3A       		.byte	0x3a
 6562 03ba 39310000 		.4byte	.LASF50
 6563 03be E7360000 		.4byte	0x36e7
 6564 03c2 01       		.byte	0x1
 6565 03c3 CB030000 		.4byte	0x3cb
 6566 03c7 DB030000 		.4byte	0x3db
 6567 03cb 11       		.uleb128 0x11
 6568 03cc A33B0000 		.4byte	0x3ba3
 6569 03d0 0E       		.uleb128 0xe
 6570 03d1 A93B0000 		.4byte	0x3ba9
 6571 03d5 0E       		.uleb128 0xe
 6572 03d6 37000000 		.4byte	0x37
 6573 03da 00       		.byte	0
 6574 03db 1D       		.uleb128 0x1d
 6575 03dc 11350000 		.4byte	.LASF51
 6576 03e0 05       		.byte	0x5
 6577 03e1 3B       		.byte	0x3b
 6578 03e2 0C340000 		.4byte	.LASF52
 6579 03e6 E7360000 		.4byte	0x36e7
 6580 03ea 01       		.byte	0x1
 6581 03eb F3030000 		.4byte	0x3f3
 6582 03ef 08040000 		.4byte	0x408
 6583 03f3 11       		.uleb128 0x11
 6584 03f4 A33B0000 		.4byte	0x3ba3
 6585 03f8 0E       		.uleb128 0xe
 6586 03f9 863B0000 		.4byte	0x3b86
 6587 03fd 0E       		.uleb128 0xe
 6588 03fe 863B0000 		.4byte	0x3b86
 6589 0402 0E       		.uleb128 0xe
 6590 0403 37000000 		.4byte	0x37
 6591 0407 00       		.byte	0
 6592 0408 1D       		.uleb128 0x1d
 6593 0409 0D430000 		.4byte	.LASF53
 6594 040d 05       		.byte	0x5
 6595 040e 3C       		.byte	0x3c
 6596 040f 29110000 		.4byte	.LASF54
 6597 0413 E7360000 		.4byte	0x36e7
 6598 0417 01       		.byte	0x1
 6599 0418 20040000 		.4byte	0x420
 6600 041c 30040000 		.4byte	0x430
 6601 0420 11       		.uleb128 0x11
 6602 0421 A33B0000 		.4byte	0x3ba3
 6603 0425 0E       		.uleb128 0xe
 6604 0426 863B0000 		.4byte	0x3b86
 6605 042a 0E       		.uleb128 0xe
 6606 042b 37000000 		.4byte	0x37
 6607 042f 00       		.byte	0
 6608 0430 12       		.uleb128 0x12
 6609 0431 60380000 		.4byte	.LASF33
ARM GAS  /tmp/cc5OZvFd.s 			page 117


 6610 0435 05       		.byte	0x5
 6611 0436 3F       		.byte	0x3f
 6612 0437 A33B0000 		.4byte	0x3ba3
 6613 043b 01       		.byte	0x1
 6614 043c 44040000 		.4byte	0x444
 6615 0440 4F040000 		.4byte	0x44f
 6616 0444 11       		.uleb128 0x11
 6617 0445 A33B0000 		.4byte	0x3ba3
 6618 0449 0E       		.uleb128 0xe
 6619 044a 9D3B0000 		.4byte	0x3b9d
 6620 044e 00       		.byte	0
 6621 044f 1E       		.uleb128 0x1e
 6622 0450 EA090000 		.4byte	.LASF55
 6623 0454 05       		.byte	0x5
 6624 0455 42       		.byte	0x42
 6625 0456 4F4B0000 		.4byte	.LASF56
 6626 045a E7360000 		.4byte	0x36e7
 6627 045e 01       		.byte	0x1
 6628 045f 69040000 		.4byte	0x469
 6629 0463 0E       		.uleb128 0xe
 6630 0464 AF3B0000 		.4byte	0x3baf
 6631 0468 00       		.byte	0
 6632 0469 1E       		.uleb128 0x1e
 6633 046a 86110000 		.4byte	.LASF57
 6634 046e 05       		.byte	0x5
 6635 046f 43       		.byte	0x43
 6636 0470 D3120000 		.4byte	.LASF58
 6637 0474 E7360000 		.4byte	0x36e7
 6638 0478 01       		.byte	0x1
 6639 0479 83040000 		.4byte	0x483
 6640 047d 0E       		.uleb128 0xe
 6641 047e AF3B0000 		.4byte	0x3baf
 6642 0482 00       		.byte	0
 6643 0483 1E       		.uleb128 0x1e
 6644 0484 F61B0000 		.4byte	.LASF59
 6645 0488 05       		.byte	0x5
 6646 0489 44       		.byte	0x44
 6647 048a 7A3A0000 		.4byte	.LASF60
 6648 048e E7360000 		.4byte	0x36e7
 6649 0492 01       		.byte	0x1
 6650 0493 9D040000 		.4byte	0x49d
 6651 0497 0E       		.uleb128 0xe
 6652 0498 FA020000 		.4byte	0x2fa
 6653 049c 00       		.byte	0
 6654 049d 1E       		.uleb128 0x1e
 6655 049e 0D430000 		.4byte	.LASF53
 6656 04a2 05       		.byte	0x5
 6657 04a3 45       		.byte	0x45
 6658 04a4 F6380000 		.4byte	.LASF61
 6659 04a8 E7360000 		.4byte	0x36e7
 6660 04ac 01       		.byte	0x1
 6661 04ad B7040000 		.4byte	0x4b7
 6662 04b1 0E       		.uleb128 0xe
 6663 04b2 FA020000 		.4byte	0x2fa
 6664 04b6 00       		.byte	0
 6665 04b7 1E       		.uleb128 0x1e
 6666 04b8 D01A0000 		.4byte	.LASF62
ARM GAS  /tmp/cc5OZvFd.s 			page 118


 6667 04bc 05       		.byte	0x5
 6668 04bd 46       		.byte	0x46
 6669 04be 8D410000 		.4byte	.LASF63
 6670 04c2 30000000 		.4byte	0x30
 6671 04c6 01       		.byte	0x1
 6672 04c7 D6040000 		.4byte	0x4d6
 6673 04cb 0E       		.uleb128 0xe
 6674 04cc FA020000 		.4byte	0x2fa
 6675 04d0 0E       		.uleb128 0xe
 6676 04d1 B63B0000 		.4byte	0x3bb6
 6677 04d5 00       		.byte	0
 6678 04d6 1F       		.uleb128 0x1f
 6679 04d7 1E030000 		.4byte	0x31e
 6680 04db 1E       		.uleb128 0x1e
 6681 04dc DD290000 		.4byte	.LASF64
 6682 04e0 05       		.byte	0x5
 6683 04e1 47       		.byte	0x47
 6684 04e2 A3000000 		.4byte	.LASF65
 6685 04e6 E7360000 		.4byte	0x36e7
 6686 04ea 01       		.byte	0x1
 6687 04eb FA040000 		.4byte	0x4fa
 6688 04ef 0E       		.uleb128 0xe
 6689 04f0 FA020000 		.4byte	0x2fa
 6690 04f4 0E       		.uleb128 0xe
 6691 04f5 9D3B0000 		.4byte	0x3b9d
 6692 04f9 00       		.byte	0
 6693 04fa 1E       		.uleb128 0x1e
 6694 04fb B5040000 		.4byte	.LASF66
 6695 04ff 05       		.byte	0x5
 6696 0500 48       		.byte	0x48
 6697 0501 543A0000 		.4byte	.LASF67
 6698 0505 E7360000 		.4byte	0x36e7
 6699 0509 01       		.byte	0x1
 6700 050a 19050000 		.4byte	0x519
 6701 050e 0E       		.uleb128 0xe
 6702 050f FA020000 		.4byte	0x2fa
 6703 0513 0E       		.uleb128 0xe
 6704 0514 B63B0000 		.4byte	0x3bb6
 6705 0518 00       		.byte	0
 6706 0519 1E       		.uleb128 0x1e
 6707 051a 481B0000 		.4byte	.LASF68
 6708 051e 05       		.byte	0x5
 6709 051f 49       		.byte	0x49
 6710 0520 16480000 		.4byte	.LASF69
 6711 0524 E7360000 		.4byte	0x36e7
 6712 0528 01       		.byte	0x1
 6713 0529 38050000 		.4byte	0x538
 6714 052d 0E       		.uleb128 0xe
 6715 052e FA020000 		.4byte	0x2fa
 6716 0532 0E       		.uleb128 0xe
 6717 0533 B63B0000 		.4byte	0x3bb6
 6718 0537 00       		.byte	0
 6719 0538 1E       		.uleb128 0x1e
 6720 0539 42080000 		.4byte	.LASF70
 6721 053d 05       		.byte	0x5
 6722 053e 4B       		.byte	0x4b
 6723 053f 2A1A0000 		.4byte	.LASF71
ARM GAS  /tmp/cc5OZvFd.s 			page 119


 6724 0543 863B0000 		.4byte	0x3b86
 6725 0547 01       		.byte	0x1
 6726 0548 52050000 		.4byte	0x552
 6727 054c 0E       		.uleb128 0xe
 6728 054d FA020000 		.4byte	0x2fa
 6729 0551 00       		.byte	0
 6730 0552 1E       		.uleb128 0x1e
 6731 0553 A8480000 		.4byte	.LASF72
 6732 0557 05       		.byte	0x5
 6733 0558 4C       		.byte	0x4c
 6734 0559 1E380000 		.4byte	.LASF73
 6735 055d FA020000 		.4byte	0x2fa
 6736 0561 01       		.byte	0x1
 6737 0562 6C050000 		.4byte	0x56c
 6738 0566 0E       		.uleb128 0xe
 6739 0567 863B0000 		.4byte	0x3b86
 6740 056b 00       		.byte	0
 6741 056c 1E       		.uleb128 0x1e
 6742 056d 303C0000 		.4byte	.LASF74
 6743 0571 05       		.byte	0x5
 6744 0572 4D       		.byte	0x4d
 6745 0573 AF300000 		.4byte	.LASF75
 6746 0577 863B0000 		.4byte	0x3b86
 6747 057b 01       		.byte	0x1
 6748 057c 86050000 		.4byte	0x586
 6749 0580 0E       		.uleb128 0xe
 6750 0581 863B0000 		.4byte	0x3b86
 6751 0585 00       		.byte	0
 6752 0586 1E       		.uleb128 0x1e
 6753 0587 AD3B0000 		.4byte	.LASF76
 6754 058b 05       		.byte	0x5
 6755 058c 4E       		.byte	0x4e
 6756 058d A61A0000 		.4byte	.LASF77
 6757 0591 863B0000 		.4byte	0x3b86
 6758 0595 01       		.byte	0x1
 6759 0596 A0050000 		.4byte	0x5a0
 6760 059a 0E       		.uleb128 0xe
 6761 059b 863B0000 		.4byte	0x3b86
 6762 059f 00       		.byte	0
 6763 05a0 20       		.uleb128 0x20
 6764 05a1 DC3B0000 		.4byte	.LASF78
 6765 05a5 05       		.byte	0x5
 6766 05a6 50       		.byte	0x50
 6767 05a7 29190000 		.4byte	.LASF80
 6768 05ab 863B0000 		.4byte	0x3b86
 6769 05af 01       		.byte	0x1
 6770 05b0 20       		.uleb128 0x20
 6771 05b1 1A150000 		.4byte	.LASF79
 6772 05b5 05       		.byte	0x5
 6773 05b6 51       		.byte	0x51
 6774 05b7 410F0000 		.4byte	.LASF81
 6775 05bb 863B0000 		.4byte	0x3b86
 6776 05bf 01       		.byte	0x1
 6777 05c0 20       		.uleb128 0x20
 6778 05c1 711B0000 		.4byte	.LASF82
 6779 05c5 05       		.byte	0x5
 6780 05c6 52       		.byte	0x52
ARM GAS  /tmp/cc5OZvFd.s 			page 120


 6781 05c7 03310000 		.4byte	.LASF83
 6782 05cb 37000000 		.4byte	0x37
 6783 05cf 01       		.byte	0x1
 6784 05d0 20       		.uleb128 0x20
 6785 05d1 BA110000 		.4byte	.LASF84
 6786 05d5 05       		.byte	0x5
 6787 05d6 53       		.byte	0x53
 6788 05d7 2B130000 		.4byte	.LASF85
 6789 05db 863B0000 		.4byte	0x3b86
 6790 05df 01       		.byte	0x1
 6791 05e0 20       		.uleb128 0x20
 6792 05e1 49290000 		.4byte	.LASF86
 6793 05e5 05       		.byte	0x5
 6794 05e6 54       		.byte	0x54
 6795 05e7 D9390000 		.4byte	.LASF87
 6796 05eb 863B0000 		.4byte	0x3b86
 6797 05ef 01       		.byte	0x1
 6798 05f0 20       		.uleb128 0x20
 6799 05f1 B6120000 		.4byte	.LASF88
 6800 05f5 05       		.byte	0x5
 6801 05f6 55       		.byte	0x55
 6802 05f7 68350000 		.4byte	.LASF89
 6803 05fb 37000000 		.4byte	0x37
 6804 05ff 01       		.byte	0x1
 6805 0600 21       		.uleb128 0x21
 6806 0601 8E3C0000 		.4byte	.LASF90
 6807 0605 05       		.byte	0x5
 6808 0606 57       		.byte	0x57
 6809 0607 F1130000 		.4byte	.LASF125
 6810 060b 01       		.byte	0x1
 6811 060c 0E       		.uleb128 0xe
 6812 060d 863B0000 		.4byte	0x3b86
 6813 0611 00       		.byte	0
 6814 0612 00       		.byte	0
 6815 0613 0F       		.uleb128 0xf
 6816 0614 44220000 		.4byte	.LASF91
 6817 0618 0C       		.byte	0xc
 6818 0619 06       		.byte	0x6
 6819 061a 0D       		.byte	0xd
 6820 061b A1090000 		.4byte	0x9a1
 6821 061f 14       		.uleb128 0x14
 6822 0620 A6010000 		.4byte	0x1a6
 6823 0624 00       		.byte	0
 6824 0625 19       		.uleb128 0x19
 6825 0626 813C0000 		.4byte	.LASF92
 6826 062a 06       		.byte	0x6
 6827 062b 19       		.byte	0x19
 6828 062c 93020000 		.4byte	0x293
 6829 0630 04       		.byte	0x4
 6830 0631 18       		.uleb128 0x18
 6831 0632 553D0000 		.4byte	.LASF39
 6832 0636 06       		.byte	0x6
 6833 0637 0F       		.byte	0xf
 6834 0638 D6020000 		.4byte	0x2d6
 6835 063c 01       		.byte	0x1
 6836 063d 18       		.uleb128 0x18
 6837 063e 7A3C0000 		.4byte	.LASF40
ARM GAS  /tmp/cc5OZvFd.s 			page 121


 6838 0642 06       		.byte	0x6
 6839 0643 10       		.byte	0x10
 6840 0644 FA020000 		.4byte	0x2fa
 6841 0648 01       		.byte	0x1
 6842 0649 18       		.uleb128 0x18
 6843 064a 273A0000 		.4byte	.LASF42
 6844 064e 06       		.byte	0x6
 6845 064f 11       		.byte	0x11
 6846 0650 23030000 		.4byte	0x323
 6847 0654 01       		.byte	0x1
 6848 0655 1B       		.uleb128 0x1b
 6849 0656 6D040000 		.4byte	.LASF43
 6850 065a 06       		.byte	0x6
 6851 065b 1C       		.byte	0x1c
 6852 065c 51070000 		.4byte	.LASF93
 6853 0660 01       		.byte	0x1
 6854 0661 69060000 		.4byte	0x669
 6855 0665 74060000 		.4byte	0x674
 6856 0669 11       		.uleb128 0x11
 6857 066a BC3B0000 		.4byte	0x3bbc
 6858 066e 0E       		.uleb128 0xe
 6859 066f C23B0000 		.4byte	0x3bc2
 6860 0673 00       		.byte	0
 6861 0674 1B       		.uleb128 0x1b
 6862 0675 93320000 		.4byte	.LASF44
 6863 0679 06       		.byte	0x6
 6864 067a 1E       		.byte	0x1e
 6865 067b A2110000 		.4byte	.LASF94
 6866 067f 01       		.byte	0x1
 6867 0680 88060000 		.4byte	0x688
 6868 0684 8E060000 		.4byte	0x68e
 6869 0688 11       		.uleb128 0x11
 6870 0689 BC3B0000 		.4byte	0x3bbc
 6871 068d 00       		.byte	0
 6872 068e 1C       		.uleb128 0x1c
 6873 068f 656E6400 		.ascii	"end\000"
 6874 0693 06       		.byte	0x6
 6875 0694 1F       		.byte	0x1f
 6876 0695 22090000 		.4byte	.LASF96
 6877 0699 E7360000 		.4byte	0x36e7
 6878 069d 01       		.byte	0x1
 6879 069e A6060000 		.4byte	0x6a6
 6880 06a2 AC060000 		.4byte	0x6ac
 6881 06a6 11       		.uleb128 0x11
 6882 06a7 BC3B0000 		.4byte	0x3bbc
 6883 06ab 00       		.byte	0
 6884 06ac 1D       		.uleb128 0x1d
 6885 06ad 16420000 		.4byte	.LASF47
 6886 06b1 06       		.byte	0x6
 6887 06b2 20       		.byte	0x20
 6888 06b3 E8190000 		.4byte	.LASF97
 6889 06b7 E7360000 		.4byte	0x36e7
 6890 06bb 01       		.byte	0x1
 6891 06bc C4060000 		.4byte	0x6c4
 6892 06c0 D9060000 		.4byte	0x6d9
 6893 06c4 11       		.uleb128 0x11
 6894 06c5 BC3B0000 		.4byte	0x3bbc
ARM GAS  /tmp/cc5OZvFd.s 			page 122


 6895 06c9 0E       		.uleb128 0xe
 6896 06ca C83B0000 		.4byte	0x3bc8
 6897 06ce 0E       		.uleb128 0xe
 6898 06cf C83B0000 		.4byte	0x3bc8
 6899 06d3 0E       		.uleb128 0xe
 6900 06d4 37000000 		.4byte	0x37
 6901 06d8 00       		.byte	0
 6902 06d9 08       		.uleb128 0x8
 6903 06da 31060000 		.4byte	0x631
 6904 06de 1D       		.uleb128 0x1d
 6905 06df F61C0000 		.4byte	.LASF48
 6906 06e3 06       		.byte	0x6
 6907 06e4 21       		.byte	0x21
 6908 06e5 2E2E0000 		.4byte	.LASF98
 6909 06e9 E7360000 		.4byte	0x36e7
 6910 06ed 01       		.byte	0x1
 6911 06ee F6060000 		.4byte	0x6f6
 6912 06f2 06070000 		.4byte	0x706
 6913 06f6 11       		.uleb128 0x11
 6914 06f7 BC3B0000 		.4byte	0x3bbc
 6915 06fb 0E       		.uleb128 0xe
 6916 06fc C83B0000 		.4byte	0x3bc8
 6917 0700 0E       		.uleb128 0xe
 6918 0701 37000000 		.4byte	0x37
 6919 0705 00       		.byte	0
 6920 0706 1D       		.uleb128 0x1d
 6921 0707 11350000 		.4byte	.LASF51
 6922 070b 06       		.byte	0x6
 6923 070c 22       		.byte	0x22
 6924 070d 87140000 		.4byte	.LASF99
 6925 0711 E7360000 		.4byte	0x36e7
 6926 0715 01       		.byte	0x1
 6927 0716 1E070000 		.4byte	0x71e
 6928 071a 33070000 		.4byte	0x733
 6929 071e 11       		.uleb128 0x11
 6930 071f BC3B0000 		.4byte	0x3bbc
 6931 0723 0E       		.uleb128 0xe
 6932 0724 863B0000 		.4byte	0x3b86
 6933 0728 0E       		.uleb128 0xe
 6934 0729 863B0000 		.4byte	0x3b86
 6935 072d 0E       		.uleb128 0xe
 6936 072e 37000000 		.4byte	0x37
 6937 0732 00       		.byte	0
 6938 0733 1D       		.uleb128 0x1d
 6939 0734 0D430000 		.4byte	.LASF53
 6940 0738 06       		.byte	0x6
 6941 0739 23       		.byte	0x23
 6942 073a 63060000 		.4byte	.LASF100
 6943 073e E7360000 		.4byte	0x36e7
 6944 0742 01       		.byte	0x1
 6945 0743 4B070000 		.4byte	0x74b
 6946 0747 5B070000 		.4byte	0x75b
 6947 074b 11       		.uleb128 0x11
 6948 074c BC3B0000 		.4byte	0x3bbc
 6949 0750 0E       		.uleb128 0xe
 6950 0751 863B0000 		.4byte	0x3b86
 6951 0755 0E       		.uleb128 0xe
ARM GAS  /tmp/cc5OZvFd.s 			page 123


 6952 0756 37000000 		.4byte	0x37
 6953 075a 00       		.byte	0
 6954 075b 12       		.uleb128 0x12
 6955 075c 44220000 		.4byte	.LASF91
 6956 0760 06       		.byte	0x6
 6957 0761 26       		.byte	0x26
 6958 0762 BC3B0000 		.4byte	0x3bbc
 6959 0766 01       		.byte	0x1
 6960 0767 6F070000 		.4byte	0x76f
 6961 076b 7A070000 		.4byte	0x77a
 6962 076f 11       		.uleb128 0x11
 6963 0770 BC3B0000 		.4byte	0x3bbc
 6964 0774 0E       		.uleb128 0xe
 6965 0775 C23B0000 		.4byte	0x3bc2
 6966 0779 00       		.byte	0
 6967 077a 1E       		.uleb128 0x1e
 6968 077b EA090000 		.4byte	.LASF55
 6969 077f 06       		.byte	0x6
 6970 0780 29       		.byte	0x29
 6971 0781 FF090000 		.4byte	.LASF101
 6972 0785 E7360000 		.4byte	0x36e7
 6973 0789 01       		.byte	0x1
 6974 078a 94070000 		.4byte	0x794
 6975 078e 0E       		.uleb128 0xe
 6976 078f AF3B0000 		.4byte	0x3baf
 6977 0793 00       		.byte	0
 6978 0794 1E       		.uleb128 0x1e
 6979 0795 86110000 		.4byte	.LASF57
 6980 0799 06       		.byte	0x6
 6981 079a 2A       		.byte	0x2a
 6982 079b DF020000 		.4byte	.LASF102
 6983 079f E7360000 		.4byte	0x36e7
 6984 07a3 01       		.byte	0x1
 6985 07a4 AE070000 		.4byte	0x7ae
 6986 07a8 0E       		.uleb128 0xe
 6987 07a9 AF3B0000 		.4byte	0x3baf
 6988 07ad 00       		.byte	0
 6989 07ae 1E       		.uleb128 0x1e
 6990 07af F61B0000 		.4byte	.LASF59
 6991 07b3 06       		.byte	0x6
 6992 07b4 2B       		.byte	0x2b
 6993 07b5 FE060000 		.4byte	.LASF103
 6994 07b9 E7360000 		.4byte	0x36e7
 6995 07bd 01       		.byte	0x1
 6996 07be C8070000 		.4byte	0x7c8
 6997 07c2 0E       		.uleb128 0xe
 6998 07c3 3D060000 		.4byte	0x63d
 6999 07c7 00       		.byte	0
 7000 07c8 1E       		.uleb128 0x1e
 7001 07c9 0D430000 		.4byte	.LASF53
 7002 07cd 06       		.byte	0x6
 7003 07ce 2C       		.byte	0x2c
 7004 07cf B73E0000 		.4byte	.LASF104
 7005 07d3 E7360000 		.4byte	0x36e7
 7006 07d7 01       		.byte	0x1
 7007 07d8 E2070000 		.4byte	0x7e2
 7008 07dc 0E       		.uleb128 0xe
ARM GAS  /tmp/cc5OZvFd.s 			page 124


 7009 07dd 3D060000 		.4byte	0x63d
 7010 07e1 00       		.byte	0
 7011 07e2 1E       		.uleb128 0x1e
 7012 07e3 D01A0000 		.4byte	.LASF62
 7013 07e7 06       		.byte	0x6
 7014 07e8 2D       		.byte	0x2d
 7015 07e9 AF010000 		.4byte	.LASF105
 7016 07ed 30000000 		.4byte	0x30
 7017 07f1 01       		.byte	0x1
 7018 07f2 01080000 		.4byte	0x801
 7019 07f6 0E       		.uleb128 0xe
 7020 07f7 3D060000 		.4byte	0x63d
 7021 07fb 0E       		.uleb128 0xe
 7022 07fc C83B0000 		.4byte	0x3bc8
 7023 0800 00       		.byte	0
 7024 0801 1E       		.uleb128 0x1e
 7025 0802 DD290000 		.4byte	.LASF64
 7026 0806 06       		.byte	0x6
 7027 0807 2E       		.byte	0x2e
 7028 0808 7B300000 		.4byte	.LASF106
 7029 080c E7360000 		.4byte	0x36e7
 7030 0810 01       		.byte	0x1
 7031 0811 20080000 		.4byte	0x820
 7032 0815 0E       		.uleb128 0xe
 7033 0816 3D060000 		.4byte	0x63d
 7034 081a 0E       		.uleb128 0xe
 7035 081b C23B0000 		.4byte	0x3bc2
 7036 081f 00       		.byte	0
 7037 0820 1E       		.uleb128 0x1e
 7038 0821 B5040000 		.4byte	.LASF66
 7039 0825 06       		.byte	0x6
 7040 0826 2F       		.byte	0x2f
 7041 0827 93430000 		.4byte	.LASF107
 7042 082b E7360000 		.4byte	0x36e7
 7043 082f 01       		.byte	0x1
 7044 0830 3F080000 		.4byte	0x83f
 7045 0834 0E       		.uleb128 0xe
 7046 0835 3D060000 		.4byte	0x63d
 7047 0839 0E       		.uleb128 0xe
 7048 083a C83B0000 		.4byte	0x3bc8
 7049 083e 00       		.byte	0
 7050 083f 1E       		.uleb128 0x1e
 7051 0840 481B0000 		.4byte	.LASF68
 7052 0844 06       		.byte	0x6
 7053 0845 30       		.byte	0x30
 7054 0846 6F090000 		.4byte	.LASF108
 7055 084a E7360000 		.4byte	0x36e7
 7056 084e 01       		.byte	0x1
 7057 084f 5E080000 		.4byte	0x85e
 7058 0853 0E       		.uleb128 0xe
 7059 0854 3D060000 		.4byte	0x63d
 7060 0858 0E       		.uleb128 0xe
 7061 0859 C83B0000 		.4byte	0x3bc8
 7062 085d 00       		.byte	0
 7063 085e 1E       		.uleb128 0x1e
 7064 085f 42080000 		.4byte	.LASF70
 7065 0863 06       		.byte	0x6
ARM GAS  /tmp/cc5OZvFd.s 			page 125


 7066 0864 32       		.byte	0x32
 7067 0865 03450000 		.4byte	.LASF109
 7068 0869 863B0000 		.4byte	0x3b86
 7069 086d 01       		.byte	0x1
 7070 086e 78080000 		.4byte	0x878
 7071 0872 0E       		.uleb128 0xe
 7072 0873 3D060000 		.4byte	0x63d
 7073 0877 00       		.byte	0
 7074 0878 1E       		.uleb128 0x1e
 7075 0879 A8480000 		.4byte	.LASF72
 7076 087d 06       		.byte	0x6
 7077 087e 33       		.byte	0x33
 7078 087f 13040000 		.4byte	.LASF110
 7079 0883 3D060000 		.4byte	0x63d
 7080 0887 01       		.byte	0x1
 7081 0888 92080000 		.4byte	0x892
 7082 088c 0E       		.uleb128 0xe
 7083 088d 863B0000 		.4byte	0x3b86
 7084 0891 00       		.byte	0
 7085 0892 1E       		.uleb128 0x1e
 7086 0893 303C0000 		.4byte	.LASF74
 7087 0897 06       		.byte	0x6
 7088 0898 34       		.byte	0x34
 7089 0899 743B0000 		.4byte	.LASF111
 7090 089d 863B0000 		.4byte	0x3b86
 7091 08a1 01       		.byte	0x1
 7092 08a2 AC080000 		.4byte	0x8ac
 7093 08a6 0E       		.uleb128 0xe
 7094 08a7 863B0000 		.4byte	0x3b86
 7095 08ab 00       		.byte	0
 7096 08ac 1E       		.uleb128 0x1e
 7097 08ad AD3B0000 		.4byte	.LASF76
 7098 08b1 06       		.byte	0x6
 7099 08b2 35       		.byte	0x35
 7100 08b3 81240000 		.4byte	.LASF112
 7101 08b7 863B0000 		.4byte	0x3b86
 7102 08bb 01       		.byte	0x1
 7103 08bc C6080000 		.4byte	0x8c6
 7104 08c0 0E       		.uleb128 0xe
 7105 08c1 863B0000 		.4byte	0x3b86
 7106 08c5 00       		.byte	0
 7107 08c6 1E       		.uleb128 0x1e
 7108 08c7 303C0000 		.4byte	.LASF74
 7109 08cb 06       		.byte	0x6
 7110 08cc 36       		.byte	0x36
 7111 08cd 3D3F0000 		.4byte	.LASF113
 7112 08d1 49060000 		.4byte	0x649
 7113 08d5 01       		.byte	0x1
 7114 08d6 E0080000 		.4byte	0x8e0
 7115 08da 0E       		.uleb128 0xe
 7116 08db 49060000 		.4byte	0x649
 7117 08df 00       		.byte	0
 7118 08e0 1E       		.uleb128 0x1e
 7119 08e1 AD3B0000 		.4byte	.LASF76
 7120 08e5 06       		.byte	0x6
 7121 08e6 37       		.byte	0x37
 7122 08e7 00250000 		.4byte	.LASF114
ARM GAS  /tmp/cc5OZvFd.s 			page 126


 7123 08eb 49060000 		.4byte	0x649
 7124 08ef 01       		.byte	0x1
 7125 08f0 FA080000 		.4byte	0x8fa
 7126 08f4 0E       		.uleb128 0xe
 7127 08f5 49060000 		.4byte	0x649
 7128 08f9 00       		.byte	0
 7129 08fa 20       		.uleb128 0x20
 7130 08fb DC3B0000 		.4byte	.LASF78
 7131 08ff 06       		.byte	0x6
 7132 0900 39       		.byte	0x39
 7133 0901 82420000 		.4byte	.LASF115
 7134 0905 863B0000 		.4byte	0x3b86
 7135 0909 01       		.byte	0x1
 7136 090a 20       		.uleb128 0x20
 7137 090b 1A150000 		.4byte	.LASF79
 7138 090f 06       		.byte	0x6
 7139 0910 3A       		.byte	0x3a
 7140 0911 E2290000 		.4byte	.LASF116
 7141 0915 863B0000 		.4byte	0x3b86
 7142 0919 01       		.byte	0x1
 7143 091a 20       		.uleb128 0x20
 7144 091b BA110000 		.4byte	.LASF84
 7145 091f 06       		.byte	0x6
 7146 0920 3B       		.byte	0x3b
 7147 0921 D81A0000 		.4byte	.LASF117
 7148 0925 863B0000 		.4byte	0x3b86
 7149 0929 01       		.byte	0x1
 7150 092a 20       		.uleb128 0x20
 7151 092b 49290000 		.4byte	.LASF86
 7152 092f 06       		.byte	0x6
 7153 0930 3C       		.byte	0x3c
 7154 0931 853F0000 		.4byte	.LASF118
 7155 0935 863B0000 		.4byte	0x3b86
 7156 0939 01       		.byte	0x1
 7157 093a 20       		.uleb128 0x20
 7158 093b 711B0000 		.4byte	.LASF82
 7159 093f 06       		.byte	0x6
 7160 0940 3D       		.byte	0x3d
 7161 0941 53220000 		.4byte	.LASF119
 7162 0945 37000000 		.4byte	0x37
 7163 0949 01       		.byte	0x1
 7164 094a 20       		.uleb128 0x20
 7165 094b B6120000 		.4byte	.LASF88
 7166 094f 06       		.byte	0x6
 7167 0950 3E       		.byte	0x3e
 7168 0951 55190000 		.4byte	.LASF120
 7169 0955 37000000 		.4byte	0x37
 7170 0959 01       		.byte	0x1
 7171 095a 1E       		.uleb128 0x1e
 7172 095b 72170000 		.4byte	.LASF121
 7173 095f 06       		.byte	0x6
 7174 0960 3F       		.byte	0x3f
 7175 0961 B11C0000 		.4byte	.LASF122
 7176 0965 E7360000 		.4byte	0x36e7
 7177 0969 01       		.byte	0x1
 7178 096a 74090000 		.4byte	0x974
 7179 096e 0E       		.uleb128 0xe
ARM GAS  /tmp/cc5OZvFd.s 			page 127


 7180 096f 863B0000 		.4byte	0x3b86
 7181 0973 00       		.byte	0
 7182 0974 1E       		.uleb128 0x1e
 7183 0975 C9000000 		.4byte	.LASF123
 7184 0979 06       		.byte	0x6
 7185 097a 40       		.byte	0x40
 7186 097b F0200000 		.4byte	.LASF124
 7187 097f E7360000 		.4byte	0x36e7
 7188 0983 01       		.byte	0x1
 7189 0984 8E090000 		.4byte	0x98e
 7190 0988 0E       		.uleb128 0xe
 7191 0989 863B0000 		.4byte	0x3b86
 7192 098d 00       		.byte	0
 7193 098e 21       		.uleb128 0x21
 7194 098f 8E3C0000 		.4byte	.LASF90
 7195 0993 06       		.byte	0x6
 7196 0994 42       		.byte	0x42
 7197 0995 81190000 		.4byte	.LASF126
 7198 0999 01       		.byte	0x1
 7199 099a 0E       		.uleb128 0xe
 7200 099b 863B0000 		.4byte	0x3b86
 7201 099f 00       		.byte	0
 7202 09a0 00       		.byte	0
 7203 09a1 0F       		.uleb128 0xf
 7204 09a2 46010000 		.4byte	.LASF127
 7205 09a6 02       		.byte	0x2
 7206 09a7 07       		.byte	0x7
 7207 09a8 14       		.byte	0x14
 7208 09a9 490B0000 		.4byte	0xb49
 7209 09ad 18       		.uleb128 0x18
 7210 09ae D2460000 		.4byte	.LASF128
 7211 09b2 07       		.byte	0x7
 7212 09b3 16       		.byte	0x16
 7213 09b4 9A360000 		.4byte	0x369a
 7214 09b8 01       		.byte	0x1
 7215 09b9 19       		.uleb128 0x19
 7216 09ba 8A260000 		.4byte	.LASF129
 7217 09be 07       		.byte	0x7
 7218 09bf 1D       		.byte	0x1d
 7219 09c0 AD090000 		.4byte	0x9ad
 7220 09c4 00       		.byte	0
 7221 09c5 1D       		.uleb128 0x1d
 7222 09c6 A8350000 		.4byte	.LASF130
 7223 09ca 07       		.byte	0x7
 7224 09cb 20       		.byte	0x20
 7225 09cc CF1B0000 		.4byte	.LASF131
 7226 09d0 863B0000 		.4byte	0x3b86
 7227 09d4 01       		.byte	0x1
 7228 09d5 DD090000 		.4byte	0x9dd
 7229 09d9 E3090000 		.4byte	0x9e3
 7230 09dd 11       		.uleb128 0x11
 7231 09de CE3B0000 		.4byte	0x3bce
 7232 09e2 00       		.byte	0
 7233 09e3 1B       		.uleb128 0x1b
 7234 09e4 5A290000 		.4byte	.LASF132
 7235 09e8 07       		.byte	0x7
 7236 09e9 26       		.byte	0x26
ARM GAS  /tmp/cc5OZvFd.s 			page 128


 7237 09ea AE100000 		.4byte	.LASF133
 7238 09ee 01       		.byte	0x1
 7239 09ef F7090000 		.4byte	0x9f7
 7240 09f3 FD090000 		.4byte	0x9fd
 7241 09f7 11       		.uleb128 0x11
 7242 09f8 D43B0000 		.4byte	0x3bd4
 7243 09fc 00       		.byte	0
 7244 09fd 1D       		.uleb128 0x1d
 7245 09fe AD1E0000 		.4byte	.LASF134
 7246 0a02 07       		.byte	0x7
 7247 0a03 27       		.byte	0x27
 7248 0a04 AE320000 		.4byte	.LASF135
 7249 0a08 E7360000 		.4byte	0x36e7
 7250 0a0c 01       		.byte	0x1
 7251 0a0d 150A0000 		.4byte	0xa15
 7252 0a11 1B0A0000 		.4byte	0xa1b
 7253 0a15 11       		.uleb128 0x11
 7254 0a16 D43B0000 		.4byte	0x3bd4
 7255 0a1a 00       		.byte	0
 7256 0a1b 1B       		.uleb128 0x1b
 7257 0a1c 3B380000 		.4byte	.LASF136
 7258 0a20 07       		.byte	0x7
 7259 0a21 28       		.byte	0x28
 7260 0a22 630D0000 		.4byte	.LASF137
 7261 0a26 01       		.byte	0x1
 7262 0a27 2F0A0000 		.4byte	0xa2f
 7263 0a2b 350A0000 		.4byte	0xa35
 7264 0a2f 11       		.uleb128 0x11
 7265 0a30 D43B0000 		.4byte	0x3bd4
 7266 0a34 00       		.byte	0
 7267 0a35 1B       		.uleb128 0x1b
 7268 0a36 93060000 		.4byte	.LASF26
 7269 0a3a 07       		.byte	0x7
 7270 0a3b 2A       		.byte	0x2a
 7271 0a3c 784C0000 		.4byte	.LASF138
 7272 0a40 01       		.byte	0x1
 7273 0a41 490A0000 		.4byte	0xa49
 7274 0a45 4F0A0000 		.4byte	0xa4f
 7275 0a49 11       		.uleb128 0x11
 7276 0a4a D43B0000 		.4byte	0x3bd4
 7277 0a4e 00       		.byte	0
 7278 0a4f 1D       		.uleb128 0x1d
 7279 0a50 BD450000 		.4byte	.LASF27
 7280 0a54 07       		.byte	0x7
 7281 0a55 2B       		.byte	0x2b
 7282 0a56 F2410000 		.4byte	.LASF139
 7283 0a5a E7360000 		.4byte	0x36e7
 7284 0a5e 01       		.byte	0x1
 7285 0a5f 670A0000 		.4byte	0xa67
 7286 0a63 6D0A0000 		.4byte	0xa6d
 7287 0a67 11       		.uleb128 0x11
 7288 0a68 D43B0000 		.4byte	0x3bd4
 7289 0a6c 00       		.byte	0
 7290 0a6d 1B       		.uleb128 0x1b
 7291 0a6e 523C0000 		.4byte	.LASF140
 7292 0a72 07       		.byte	0x7
 7293 0a73 2C       		.byte	0x2c
ARM GAS  /tmp/cc5OZvFd.s 			page 129


 7294 0a74 28470000 		.4byte	.LASF141
 7295 0a78 01       		.byte	0x1
 7296 0a79 810A0000 		.4byte	0xa81
 7297 0a7d 870A0000 		.4byte	0xa87
 7298 0a81 11       		.uleb128 0x11
 7299 0a82 D43B0000 		.4byte	0x3bd4
 7300 0a86 00       		.byte	0
 7301 0a87 12       		.uleb128 0x12
 7302 0a88 46010000 		.4byte	.LASF127
 7303 0a8c 07       		.byte	0x7
 7304 0a8d 2F       		.byte	0x2f
 7305 0a8e D43B0000 		.4byte	0x3bd4
 7306 0a92 02       		.byte	0x2
 7307 0a93 9B0A0000 		.4byte	0xa9b
 7308 0a97 A10A0000 		.4byte	0xaa1
 7309 0a9b 11       		.uleb128 0x11
 7310 0a9c D43B0000 		.4byte	0x3bd4
 7311 0aa0 00       		.byte	0
 7312 0aa1 22       		.uleb128 0x22
 7313 0aa2 650F0000 		.4byte	.LASF142
 7314 0aa6 07       		.byte	0x7
 7315 0aa7 32       		.byte	0x32
 7316 0aa8 AD050000 		.4byte	.LASF150
 7317 0aac 01       		.byte	0x1
 7318 0aad C10A0000 		.4byte	0xac1
 7319 0ab1 0E       		.uleb128 0xe
 7320 0ab2 DA3B0000 		.4byte	0x3bda
 7321 0ab6 0E       		.uleb128 0xe
 7322 0ab7 E03B0000 		.4byte	0x3be0
 7323 0abb 0E       		.uleb128 0xe
 7324 0abc 37000000 		.4byte	0x37
 7325 0ac0 00       		.byte	0
 7326 0ac1 1E       		.uleb128 0x1e
 7327 0ac2 A0120000 		.4byte	.LASF143
 7328 0ac6 07       		.byte	0x7
 7329 0ac7 33       		.byte	0x33
 7330 0ac8 77250000 		.4byte	.LASF144
 7331 0acc E03B0000 		.4byte	0x3be0
 7332 0ad0 01       		.byte	0x1
 7333 0ad1 DB0A0000 		.4byte	0xadb
 7334 0ad5 0E       		.uleb128 0xe
 7335 0ad6 863B0000 		.4byte	0x3b86
 7336 0ada 00       		.byte	0
 7337 0adb 1E       		.uleb128 0x1e
 7338 0adc 924C0000 		.4byte	.LASF145
 7339 0ae0 07       		.byte	0x7
 7340 0ae1 34       		.byte	0x34
 7341 0ae2 AA4B0000 		.4byte	.LASF146
 7342 0ae6 37000000 		.4byte	0x37
 7343 0aea 01       		.byte	0x1
 7344 0aeb F50A0000 		.4byte	0xaf5
 7345 0aef 0E       		.uleb128 0xe
 7346 0af0 37000000 		.4byte	0x37
 7347 0af4 00       		.byte	0
 7348 0af5 1E       		.uleb128 0x1e
 7349 0af6 814A0000 		.4byte	.LASF147
 7350 0afa 07       		.byte	0x7
ARM GAS  /tmp/cc5OZvFd.s 			page 130


 7351 0afb 35       		.byte	0x35
 7352 0afc E11F0000 		.4byte	.LASF148
 7353 0b00 37000000 		.4byte	0x37
 7354 0b04 01       		.byte	0x1
 7355 0b05 0F0B0000 		.4byte	0xb0f
 7356 0b09 0E       		.uleb128 0xe
 7357 0b0a 37000000 		.4byte	0x37
 7358 0b0e 00       		.byte	0
 7359 0b0f 22       		.uleb128 0x22
 7360 0b10 861E0000 		.4byte	.LASF149
 7361 0b14 07       		.byte	0x7
 7362 0b15 B4       		.byte	0xb4
 7363 0b16 A0400000 		.4byte	.LASF151
 7364 0b1a 01       		.byte	0x1
 7365 0b1b 2E0B0000 		.4byte	0xb2e
 7366 0b1f 23       		.uleb128 0x23
 7367 0b20 062D0000 		.4byte	.LASF154
 7368 0b24 2E0C0000 		.4byte	0xc2e
 7369 0b28 0E       		.uleb128 0xe
 7370 0b29 C4530000 		.4byte	0x53c4
 7371 0b2d 00       		.byte	0
 7372 0b2e 24       		.uleb128 0x24
 7373 0b2f 0B210000 		.4byte	.LASF152
 7374 0b33 07       		.byte	0x7
 7375 0b34 AC       		.byte	0xac
 7376 0b35 DE430000 		.4byte	.LASF153
 7377 0b39 37000000 		.4byte	0x37
 7378 0b3d 01       		.byte	0x1
 7379 0b3e 23       		.uleb128 0x23
 7380 0b3f 062D0000 		.4byte	.LASF154
 7381 0b43 2E0C0000 		.4byte	0xc2e
 7382 0b47 00       		.byte	0
 7383 0b48 00       		.byte	0
 7384 0b49 08       		.uleb128 0x8
 7385 0b4a A1090000 		.4byte	0x9a1
 7386 0b4e 25       		.uleb128 0x25
 7387 0b4f D6320000 		.4byte	.LASF156
 7388 0b53 01       		.byte	0x1
 7389 0b54 17       		.byte	0x17
 7390 0b55 12       		.byte	0x12
 7391 0b56 660B0000 		.4byte	0xb66
 7392 0b5a 26       		.uleb128 0x26
 7393 0b5b 01       		.byte	0x1
 7394 0b5c 17       		.byte	0x17
 7395 0b5d 13       		.byte	0x13
 7396 0b5e 17       		.uleb128 0x17
 7397 0b5f 943B0000 		.4byte	.LASF155
 7398 0b63 07       		.sleb128 7
 7399 0b64 00       		.byte	0
 7400 0b65 00       		.byte	0
 7401 0b66 25       		.uleb128 0x25
 7402 0b67 4B0D0000 		.4byte	.LASF157
 7403 0b6b 01       		.byte	0x1
 7404 0b6c 17       		.byte	0x17
 7405 0b6d 18       		.byte	0x18
 7406 0b6e 7E0B0000 		.4byte	0xb7e
 7407 0b72 26       		.uleb128 0x26
ARM GAS  /tmp/cc5OZvFd.s 			page 131


 7408 0b73 01       		.byte	0x1
 7409 0b74 17       		.byte	0x17
 7410 0b75 19       		.byte	0x19
 7411 0b76 17       		.uleb128 0x17
 7412 0b77 943B0000 		.4byte	.LASF155
 7413 0b7b 08       		.sleb128 8
 7414 0b7c 00       		.byte	0
 7415 0b7d 00       		.byte	0
 7416 0b7e 25       		.uleb128 0x25
 7417 0b7f 75130000 		.4byte	.LASF158
 7418 0b83 01       		.byte	0x1
 7419 0b84 17       		.byte	0x17
 7420 0b85 1E       		.byte	0x1e
 7421 0b86 960B0000 		.4byte	0xb96
 7422 0b8a 26       		.uleb128 0x26
 7423 0b8b 01       		.byte	0x1
 7424 0b8c 17       		.byte	0x17
 7425 0b8d 1F       		.byte	0x1f
 7426 0b8e 17       		.uleb128 0x17
 7427 0b8f 943B0000 		.4byte	.LASF155
 7428 0b93 10       		.sleb128 16
 7429 0b94 00       		.byte	0
 7430 0b95 00       		.byte	0
 7431 0b96 25       		.uleb128 0x25
 7432 0b97 5E330000 		.4byte	.LASF159
 7433 0b9b 15       		.byte	0x15
 7434 0b9c 18       		.byte	0x18
 7435 0b9d 0A       		.byte	0xa
 7436 0b9e 290C0000 		.4byte	0xc29
 7437 0ba2 27       		.uleb128 0x27
 7438 0ba3 57100000 		.4byte	.LASF245
 7439 0ba7 01       		.byte	0x1
 7440 0ba8 18       		.byte	0x18
 7441 0ba9 0D       		.byte	0xd
 7442 0baa D30B0000 		.4byte	0xbd3
 7443 0bae 17       		.uleb128 0x17
 7444 0baf 91180000 		.4byte	.LASF160
 7445 0bb3 00       		.sleb128 0
 7446 0bb4 17       		.uleb128 0x17
 7447 0bb5 D7000000 		.4byte	.LASF161
 7448 0bb9 01       		.sleb128 1
 7449 0bba 17       		.uleb128 0x17
 7450 0bbb 92380000 		.4byte	.LASF162
 7451 0bbf 02       		.sleb128 2
 7452 0bc0 17       		.uleb128 0x17
 7453 0bc1 81310000 		.4byte	.LASF163
 7454 0bc5 03       		.sleb128 3
 7455 0bc6 17       		.uleb128 0x17
 7456 0bc7 604C0000 		.4byte	.LASF164
 7457 0bcb 04       		.sleb128 4
 7458 0bcc 17       		.uleb128 0x17
 7459 0bcd C4390000 		.4byte	.LASF165
 7460 0bd1 05       		.sleb128 5
 7461 0bd2 00       		.byte	0
 7462 0bd3 19       		.uleb128 0x19
 7463 0bd4 73290000 		.4byte	.LASF166
 7464 0bd8 18       		.byte	0x18
ARM GAS  /tmp/cc5OZvFd.s 			page 132


 7465 0bd9 16       		.byte	0x16
 7466 0bda 8F360000 		.4byte	0x368f
 7467 0bde 00       		.byte	0
 7468 0bdf 19       		.uleb128 0x19
 7469 0be0 F82E0000 		.4byte	.LASF167
 7470 0be4 18       		.byte	0x18
 7471 0be5 17       		.byte	0x17
 7472 0be6 9A360000 		.4byte	0x369a
 7473 0bea 01       		.byte	0x1
 7474 0beb 19       		.uleb128 0x19
 7475 0bec 94300000 		.4byte	.LASF168
 7476 0bf0 18       		.byte	0x18
 7477 0bf1 18       		.byte	0x18
 7478 0bf2 8F360000 		.4byte	0x368f
 7479 0bf6 03       		.byte	0x3
 7480 0bf7 19       		.uleb128 0x19
 7481 0bf8 0A100000 		.4byte	.LASF169
 7482 0bfc 18       		.byte	0x18
 7483 0bfd 19       		.byte	0x19
 7484 0bfe E63B0000 		.4byte	0x3be6
 7485 0c02 04       		.byte	0x4
 7486 0c03 19       		.uleb128 0x19
 7487 0c04 99320000 		.4byte	.LASF170
 7488 0c08 18       		.byte	0x18
 7489 0c09 1A       		.byte	0x1a
 7490 0c0a 8F360000 		.4byte	0x368f
 7491 0c0e 14       		.byte	0x14
 7492 0c0f 28       		.uleb128 0x28
 7493 0c10 31080000 		.4byte	.LASF171
 7494 0c14 18       		.byte	0x18
 7495 0c15 1C       		.byte	0x1c
 7496 0c16 6D2E0000 		.4byte	.LASF172
 7497 0c1a 8F360000 		.4byte	0x368f
 7498 0c1e 220C0000 		.4byte	0xc22
 7499 0c22 11       		.uleb128 0x11
 7500 0c23 F63B0000 		.4byte	0x3bf6
 7501 0c27 00       		.byte	0
 7502 0c28 00       		.byte	0
 7503 0c29 08       		.uleb128 0x8
 7504 0c2a 960B0000 		.4byte	0xb96
 7505 0c2e 0F       		.uleb128 0xf
 7506 0c2f 2E3A0000 		.4byte	.LASF173
 7507 0c33 21       		.byte	0x21
 7508 0c34 18       		.byte	0x18
 7509 0c35 20       		.byte	0x20
 7510 0c36 DC0F0000 		.4byte	0xfdc
 7511 0c3a 29       		.uleb128 0x29
 7512 0c3b 57100000 		.4byte	.LASF245
 7513 0c3f 01       		.byte	0x1
 7514 0c40 18       		.byte	0x18
 7515 0c41 22       		.byte	0x22
 7516 0c42 01       		.byte	0x1
 7517 0c43 BA0C0000 		.4byte	0xcba
 7518 0c47 17       		.uleb128 0x17
 7519 0c48 4D3C0000 		.4byte	.LASF174
 7520 0c4c 00       		.sleb128 0
 7521 0c4d 2A       		.uleb128 0x2a
ARM GAS  /tmp/cc5OZvFd.s 			page 133


 7522 0c4e 41434B00 		.ascii	"ACK\000"
 7523 0c52 01       		.sleb128 1
 7524 0c53 17       		.uleb128 0x17
 7525 0c54 FF010000 		.4byte	.LASF175
 7526 0c58 02       		.sleb128 2
 7527 0c59 17       		.uleb128 0x17
 7528 0c5a 70260000 		.4byte	.LASF176
 7529 0c5e 03       		.sleb128 3
 7530 0c5f 17       		.uleb128 0x17
 7531 0c60 43390000 		.4byte	.LASF177
 7532 0c64 04       		.sleb128 4
 7533 0c65 17       		.uleb128 0x17
 7534 0c66 9C4A0000 		.4byte	.LASF178
 7535 0c6a 05       		.sleb128 5
 7536 0c6b 17       		.uleb128 0x17
 7537 0c6c 761E0000 		.4byte	.LASF179
 7538 0c70 06       		.sleb128 6
 7539 0c71 17       		.uleb128 0x17
 7540 0c72 5D3E0000 		.4byte	.LASF180
 7541 0c76 07       		.sleb128 7
 7542 0c77 17       		.uleb128 0x17
 7543 0c78 21280000 		.4byte	.LASF181
 7544 0c7c 08       		.sleb128 8
 7545 0c7d 17       		.uleb128 0x17
 7546 0c7e 6A130000 		.4byte	.LASF182
 7547 0c82 09       		.sleb128 9
 7548 0c83 17       		.uleb128 0x17
 7549 0c84 E3130000 		.4byte	.LASF183
 7550 0c88 0A       		.sleb128 10
 7551 0c89 17       		.uleb128 0x17
 7552 0c8a 093B0000 		.4byte	.LASF184
 7553 0c8e 0B       		.sleb128 11
 7554 0c8f 17       		.uleb128 0x17
 7555 0c90 123F0000 		.4byte	.LASF185
 7556 0c94 0C       		.sleb128 12
 7557 0c95 17       		.uleb128 0x17
 7558 0c96 453A0000 		.4byte	.LASF186
 7559 0c9a 0D       		.sleb128 13
 7560 0c9b 17       		.uleb128 0x17
 7561 0c9c 0F100000 		.4byte	.LASF187
 7562 0ca0 0E       		.sleb128 14
 7563 0ca1 17       		.uleb128 0x17
 7564 0ca2 CC3C0000 		.4byte	.LASF188
 7565 0ca6 0F       		.sleb128 15
 7566 0ca7 17       		.uleb128 0x17
 7567 0ca8 72450000 		.4byte	.LASF189
 7568 0cac 10       		.sleb128 16
 7569 0cad 17       		.uleb128 0x17
 7570 0cae 18130000 		.4byte	.LASF190
 7571 0cb2 11       		.sleb128 17
 7572 0cb3 17       		.uleb128 0x17
 7573 0cb4 BD0F0000 		.4byte	.LASF191
 7574 0cb8 12       		.sleb128 18
 7575 0cb9 00       		.byte	0
 7576 0cba 2B       		.uleb128 0x2b
 7577 0cbb 7E060000 		.4byte	.LASF202
 7578 0cbf 1C       		.byte	0x1c
ARM GAS  /tmp/cc5OZvFd.s 			page 134


 7579 0cc0 18       		.byte	0x18
 7580 0cc1 40       		.byte	0x40
 7581 0cc2 01       		.byte	0x1
 7582 0cc3 6D0D0000 		.4byte	0xd6d
 7583 0cc7 2C       		.uleb128 0x2c
 7584 0cc8 01       		.byte	0x1
 7585 0cc9 18       		.byte	0x18
 7586 0cca 50       		.byte	0x50
 7587 0ccb D60C0000 		.4byte	0xcd6
 7588 0ccf 17       		.uleb128 0x17
 7589 0cd0 12090000 		.4byte	.LASF192
 7590 0cd4 18       		.sleb128 24
 7591 0cd5 00       		.byte	0
 7592 0cd6 2D       		.uleb128 0x2d
 7593 0cd7 18       		.byte	0x18
 7594 0cd8 18       		.byte	0x18
 7595 0cd9 55       		.byte	0x55
 7596 0cda 420D0000 		.4byte	0xd42
 7597 0cde 2E       		.uleb128 0x2e
 7598 0cdf 08       		.byte	0x8
 7599 0ce0 18       		.byte	0x18
 7600 0ce1 5B       		.byte	0x5b
 7601 0ce2 FF0C0000 		.4byte	0xcff
 7602 0ce6 19       		.uleb128 0x19
 7603 0ce7 D2210000 		.4byte	.LASF193
 7604 0ceb 18       		.byte	0x18
 7605 0cec 5C       		.byte	0x5c
 7606 0ced 6D0D0000 		.4byte	0xd6d
 7607 0cf1 00       		.byte	0
 7608 0cf2 19       		.uleb128 0x19
 7609 0cf3 8B350000 		.4byte	.LASF194
 7610 0cf7 18       		.byte	0x18
 7611 0cf8 5D       		.byte	0x5d
 7612 0cf9 790D0000 		.4byte	0xd79
 7613 0cfd 04       		.byte	0x4
 7614 0cfe 00       		.byte	0
 7615 0cff 2F       		.uleb128 0x2f
 7616 0d00 491A0000 		.4byte	.LASF195
 7617 0d04 18       		.byte	0x18
 7618 0d05 56       		.byte	0x56
 7619 0d06 FB000000 		.4byte	0xfb
 7620 0d0a 2F       		.uleb128 0x2f
 7621 0d0b 713A0000 		.4byte	.LASF196
 7622 0d0f 18       		.byte	0x18
 7623 0d10 57       		.byte	0x57
 7624 0d11 C6360000 		.4byte	0x36c6
 7625 0d15 2F       		.uleb128 0x2f
 7626 0d16 C0310000 		.4byte	.LASF197
 7627 0d1a 18       		.byte	0x18
 7628 0d1b 58       		.byte	0x58
 7629 0d1c D1360000 		.4byte	0x36d1
 7630 0d20 2F       		.uleb128 0x2f
 7631 0d21 D2210000 		.4byte	.LASF193
 7632 0d25 18       		.byte	0x18
 7633 0d26 59       		.byte	0x59
 7634 0d27 6D0D0000 		.4byte	0xd6d
 7635 0d2b 2F       		.uleb128 0x2f
ARM GAS  /tmp/cc5OZvFd.s 			page 135


 7636 0d2c 8B350000 		.4byte	.LASF194
 7637 0d30 18       		.byte	0x18
 7638 0d31 5A       		.byte	0x5a
 7639 0d32 790D0000 		.4byte	0xd79
 7640 0d36 2F       		.uleb128 0x2f
 7641 0d37 6C000000 		.4byte	.LASF198
 7642 0d3b 18       		.byte	0x18
 7643 0d3c 5E       		.byte	0x5e
 7644 0d3d DE0C0000 		.4byte	0xcde
 7645 0d41 00       		.byte	0
 7646 0d42 19       		.uleb128 0x19
 7647 0d43 13220000 		.4byte	.LASF199
 7648 0d47 18       		.byte	0x18
 7649 0d48 52       		.byte	0x52
 7650 0d49 9A360000 		.4byte	0x369a
 7651 0d4d 00       		.byte	0
 7652 0d4e 19       		.uleb128 0x19
 7653 0d4f 76380000 		.4byte	.LASF200
 7654 0d53 18       		.byte	0x18
 7655 0d54 53       		.byte	0x53
 7656 0d55 8F360000 		.4byte	0x368f
 7657 0d59 02       		.byte	0x2
 7658 0d5a 19       		.uleb128 0x19
 7659 0d5b 94300000 		.4byte	.LASF168
 7660 0d5f 18       		.byte	0x18
 7661 0d60 54       		.byte	0x54
 7662 0d61 8F360000 		.4byte	0x368f
 7663 0d65 03       		.byte	0x3
 7664 0d66 30       		.uleb128 0x30
 7665 0d67 D60C0000 		.4byte	0xcd6
 7666 0d6b 04       		.byte	0x4
 7667 0d6c 00       		.byte	0
 7668 0d6d 18       		.uleb128 0x18
 7669 0d6e 02100000 		.4byte	.LASF201
 7670 0d72 18       		.byte	0x18
 7671 0d73 3D       		.byte	0x3d
 7672 0d74 863B0000 		.4byte	0x3b86
 7673 0d78 01       		.byte	0x1
 7674 0d79 18       		.uleb128 0x18
 7675 0d7a 273A0000 		.4byte	.LASF42
 7676 0d7e 18       		.byte	0x18
 7677 0d7f 3E       		.byte	0x3e
 7678 0d80 37000000 		.4byte	0x37
 7679 0d84 01       		.byte	0x1
 7680 0d85 2B       		.uleb128 0x2b
 7681 0d86 BA190000 		.4byte	.LASF203
 7682 0d8a 1A       		.byte	0x1a
 7683 0d8b 18       		.byte	0x18
 7684 0d8c 62       		.byte	0x62
 7685 0d8d 01       		.byte	0x1
 7686 0d8e DB0D0000 		.4byte	0xddb
 7687 0d92 19       		.uleb128 0x19
 7688 0d93 21100000 		.4byte	.LASF204
 7689 0d97 18       		.byte	0x18
 7690 0d98 63       		.byte	0x63
 7691 0d99 790D0000 		.4byte	0xd79
 7692 0d9d 00       		.byte	0
ARM GAS  /tmp/cc5OZvFd.s 			page 136


 7693 0d9e 19       		.uleb128 0x19
 7694 0d9f 4C220000 		.4byte	.LASF205
 7695 0da3 18       		.byte	0x18
 7696 0da4 64       		.byte	0x64
 7697 0da5 790D0000 		.4byte	0xd79
 7698 0da9 04       		.byte	0x4
 7699 0daa 19       		.uleb128 0x19
 7700 0dab FF2E0000 		.4byte	.LASF206
 7701 0daf 18       		.byte	0x18
 7702 0db0 65       		.byte	0x65
 7703 0db1 790D0000 		.4byte	0xd79
 7704 0db5 08       		.byte	0x8
 7705 0db6 19       		.uleb128 0x19
 7706 0db7 BA340000 		.4byte	.LASF207
 7707 0dbb 18       		.byte	0x18
 7708 0dbc 66       		.byte	0x66
 7709 0dbd 790D0000 		.4byte	0xd79
 7710 0dc1 0C       		.byte	0xc
 7711 0dc2 19       		.uleb128 0x19
 7712 0dc3 963C0000 		.4byte	.LASF208
 7713 0dc7 18       		.byte	0x18
 7714 0dc8 67       		.byte	0x67
 7715 0dc9 EB000000 		.4byte	0xeb
 7716 0dcd 10       		.byte	0x10
 7717 0dce 19       		.uleb128 0x19
 7718 0dcf 11190000 		.4byte	.LASF209
 7719 0dd3 18       		.byte	0x18
 7720 0dd4 68       		.byte	0x68
 7721 0dd5 9A360000 		.4byte	0x369a
 7722 0dd9 18       		.byte	0x18
 7723 0dda 00       		.byte	0
 7724 0ddb 2B       		.uleb128 0x2b
 7725 0ddc 234C0000 		.4byte	.LASF210
 7726 0de0 18       		.byte	0x18
 7727 0de1 18       		.byte	0x18
 7728 0de2 6B       		.byte	0x6b
 7729 0de3 01       		.byte	0x1
 7730 0de4 310E0000 		.4byte	0xe31
 7731 0de8 19       		.uleb128 0x19
 7732 0de9 070C0000 		.4byte	.LASF211
 7733 0ded 18       		.byte	0x18
 7734 0dee 6C       		.byte	0x6c
 7735 0def 6D0D0000 		.4byte	0xd6d
 7736 0df3 00       		.byte	0
 7737 0df4 19       		.uleb128 0x19
 7738 0df5 07480000 		.4byte	.LASF212
 7739 0df9 18       		.byte	0x18
 7740 0dfa 6D       		.byte	0x6d
 7741 0dfb 6D0D0000 		.4byte	0xd6d
 7742 0dff 04       		.byte	0x4
 7743 0e00 19       		.uleb128 0x19
 7744 0e01 50100000 		.4byte	.LASF213
 7745 0e05 18       		.byte	0x18
 7746 0e06 6E       		.byte	0x6e
 7747 0e07 6D0D0000 		.4byte	0xd6d
 7748 0e0b 08       		.byte	0x8
 7749 0e0c 19       		.uleb128 0x19
ARM GAS  /tmp/cc5OZvFd.s 			page 137


 7750 0e0d C71B0000 		.4byte	.LASF214
 7751 0e11 18       		.byte	0x18
 7752 0e12 6F       		.byte	0x6f
 7753 0e13 6D0D0000 		.4byte	0xd6d
 7754 0e17 0C       		.byte	0xc
 7755 0e18 19       		.uleb128 0x19
 7756 0e19 950F0000 		.4byte	.LASF215
 7757 0e1d 18       		.byte	0x18
 7758 0e1e 70       		.byte	0x70
 7759 0e1f 6D0D0000 		.4byte	0xd6d
 7760 0e23 10       		.byte	0x10
 7761 0e24 19       		.uleb128 0x19
 7762 0e25 5A480000 		.4byte	.LASF216
 7763 0e29 18       		.byte	0x18
 7764 0e2a 71       		.byte	0x71
 7765 0e2b 6D0D0000 		.4byte	0xd6d
 7766 0e2f 14       		.byte	0x14
 7767 0e30 00       		.byte	0
 7768 0e31 2B       		.uleb128 0x2b
 7769 0e32 69330000 		.4byte	.LASF217
 7770 0e36 1C       		.byte	0x1c
 7771 0e37 18       		.byte	0x18
 7772 0e38 74       		.byte	0x74
 7773 0e39 01       		.byte	0x1
 7774 0e3a 930E0000 		.4byte	0xe93
 7775 0e3e 19       		.uleb128 0x19
 7776 0e3f CB060000 		.4byte	.LASF218
 7777 0e43 18       		.byte	0x18
 7778 0e44 75       		.byte	0x75
 7779 0e45 6D0D0000 		.4byte	0xd6d
 7780 0e49 00       		.byte	0
 7781 0e4a 19       		.uleb128 0x19
 7782 0e4b 3E3A0000 		.4byte	.LASF219
 7783 0e4f 18       		.byte	0x18
 7784 0e50 76       		.byte	0x76
 7785 0e51 6D0D0000 		.4byte	0xd6d
 7786 0e55 04       		.byte	0x4
 7787 0e56 19       		.uleb128 0x19
 7788 0e57 D93F0000 		.4byte	.LASF220
 7789 0e5b 18       		.byte	0x18
 7790 0e5c 77       		.byte	0x77
 7791 0e5d 790D0000 		.4byte	0xd79
 7792 0e61 08       		.byte	0x8
 7793 0e62 19       		.uleb128 0x19
 7794 0e63 C6130000 		.4byte	.LASF221
 7795 0e67 18       		.byte	0x18
 7796 0e68 78       		.byte	0x78
 7797 0e69 6D0D0000 		.4byte	0xd6d
 7798 0e6d 0C       		.byte	0xc
 7799 0e6e 19       		.uleb128 0x19
 7800 0e6f 60250000 		.4byte	.LASF222
 7801 0e73 18       		.byte	0x18
 7802 0e74 79       		.byte	0x79
 7803 0e75 790D0000 		.4byte	0xd79
 7804 0e79 10       		.byte	0x10
 7805 0e7a 19       		.uleb128 0x19
 7806 0e7b 14110000 		.4byte	.LASF223
ARM GAS  /tmp/cc5OZvFd.s 			page 138


 7807 0e7f 18       		.byte	0x18
 7808 0e80 7A       		.byte	0x7a
 7809 0e81 6D0D0000 		.4byte	0xd6d
 7810 0e85 14       		.byte	0x14
 7811 0e86 19       		.uleb128 0x19
 7812 0e87 BD220000 		.4byte	.LASF224
 7813 0e8b 18       		.byte	0x18
 7814 0e8c 7B       		.byte	0x7b
 7815 0e8d 790D0000 		.4byte	0xd79
 7816 0e91 18       		.byte	0x18
 7817 0e92 00       		.byte	0
 7818 0e93 2B       		.uleb128 0x2b
 7819 0e94 DA3E0000 		.4byte	.LASF225
 7820 0e98 18       		.byte	0x18
 7821 0e99 18       		.byte	0x18
 7822 0e9a 7E       		.byte	0x7e
 7823 0e9b 01       		.byte	0x1
 7824 0e9c E90E0000 		.4byte	0xee9
 7825 0ea0 19       		.uleb128 0x19
 7826 0ea1 0E480000 		.4byte	.LASF226
 7827 0ea5 18       		.byte	0x18
 7828 0ea6 7F       		.byte	0x7f
 7829 0ea7 790D0000 		.4byte	0xd79
 7830 0eab 00       		.byte	0
 7831 0eac 19       		.uleb128 0x19
 7832 0ead C9430000 		.4byte	.LASF227
 7833 0eb1 18       		.byte	0x18
 7834 0eb2 80       		.byte	0x80
 7835 0eb3 6D0D0000 		.4byte	0xd6d
 7836 0eb7 04       		.byte	0x4
 7837 0eb8 19       		.uleb128 0x19
 7838 0eb9 D62E0000 		.4byte	.LASF228
 7839 0ebd 18       		.byte	0x18
 7840 0ebe 81       		.byte	0x81
 7841 0ebf 6D0D0000 		.4byte	0xd6d
 7842 0ec3 08       		.byte	0x8
 7843 0ec4 19       		.uleb128 0x19
 7844 0ec5 D00A0000 		.4byte	.LASF229
 7845 0ec9 18       		.byte	0x18
 7846 0eca 82       		.byte	0x82
 7847 0ecb 6D0D0000 		.4byte	0xd6d
 7848 0ecf 0C       		.byte	0xc
 7849 0ed0 19       		.uleb128 0x19
 7850 0ed1 BD170000 		.4byte	.LASF230
 7851 0ed5 18       		.byte	0x18
 7852 0ed6 83       		.byte	0x83
 7853 0ed7 6D0D0000 		.4byte	0xd6d
 7854 0edb 10       		.byte	0x10
 7855 0edc 19       		.uleb128 0x19
 7856 0edd FF390000 		.4byte	.LASF231
 7857 0ee1 18       		.byte	0x18
 7858 0ee2 84       		.byte	0x84
 7859 0ee3 6D0D0000 		.4byte	0xd6d
 7860 0ee7 14       		.byte	0x14
 7861 0ee8 00       		.byte	0
 7862 0ee9 2B       		.uleb128 0x2b
 7863 0eea 63460000 		.4byte	.LASF232
ARM GAS  /tmp/cc5OZvFd.s 			page 139


 7864 0eee 0D       		.byte	0xd
 7865 0eef 18       		.byte	0x18
 7866 0ef0 87       		.byte	0x87
 7867 0ef1 01       		.byte	0x1
 7868 0ef2 1B0F0000 		.4byte	0xf1b
 7869 0ef6 19       		.uleb128 0x19
 7870 0ef7 F82E0000 		.4byte	.LASF167
 7871 0efb 18       		.byte	0x18
 7872 0efc 88       		.byte	0x88
 7873 0efd 790D0000 		.4byte	0xd79
 7874 0f01 00       		.byte	0
 7875 0f02 19       		.uleb128 0x19
 7876 0f03 18120000 		.4byte	.LASF233
 7877 0f07 18       		.byte	0x18
 7878 0f08 89       		.byte	0x89
 7879 0f09 EB000000 		.4byte	0xeb
 7880 0f0d 04       		.byte	0x4
 7881 0f0e 19       		.uleb128 0x19
 7882 0f0f 8B350000 		.4byte	.LASF194
 7883 0f13 18       		.byte	0x18
 7884 0f14 8A       		.byte	0x8a
 7885 0f15 8F360000 		.4byte	0x368f
 7886 0f19 0C       		.byte	0xc
 7887 0f1a 00       		.byte	0
 7888 0f1b 2B       		.uleb128 0x2b
 7889 0f1c 88060000 		.4byte	.LASF234
 7890 0f20 10       		.byte	0x10
 7891 0f21 18       		.byte	0x18
 7892 0f22 8D       		.byte	0x8d
 7893 0f23 01       		.byte	0x1
 7894 0f24 440F0000 		.4byte	0xf44
 7895 0f28 2C       		.uleb128 0x2c
 7896 0f29 01       		.byte	0x1
 7897 0f2a 18       		.byte	0x18
 7898 0f2b 8E       		.byte	0x8e
 7899 0f2c 370F0000 		.4byte	0xf37
 7900 0f30 17       		.uleb128 0x17
 7901 0f31 1F460000 		.4byte	.LASF235
 7902 0f35 10       		.sleb128 16
 7903 0f36 00       		.byte	0
 7904 0f37 19       		.uleb128 0x19
 7905 0f38 0A100000 		.4byte	.LASF169
 7906 0f3c 18       		.byte	0x18
 7907 0f3d 90       		.byte	0x90
 7908 0f3e E63B0000 		.4byte	0x3be6
 7909 0f42 00       		.byte	0
 7910 0f43 00       		.byte	0
 7911 0f44 31       		.uleb128 0x31
 7912 0f45 1E       		.byte	0x1e
 7913 0f46 18       		.byte	0x18
 7914 0f47 94       		.byte	0x94
 7915 0f48 01       		.byte	0x1
 7916 0f49 B10F0000 		.4byte	0xfb1
 7917 0f4d 32       		.uleb128 0x32
 7918 0f4e 72617700 		.ascii	"raw\000"
 7919 0f52 18       		.byte	0x18
 7920 0f53 95       		.byte	0x95
ARM GAS  /tmp/cc5OZvFd.s 			page 140


 7921 0f54 FC3B0000 		.4byte	0x3bfc
 7922 0f58 2F       		.uleb128 0x2f
 7923 0f59 97310000 		.4byte	.LASF236
 7924 0f5d 18       		.byte	0x18
 7925 0f5e 96       		.byte	0x96
 7926 0f5f BA0C0000 		.4byte	0xcba
 7927 0f63 2F       		.uleb128 0x2f
 7928 0f64 57060000 		.4byte	.LASF237
 7929 0f68 18       		.byte	0x18
 7930 0f69 97       		.byte	0x97
 7931 0f6a 960B0000 		.4byte	0xb96
 7932 0f6e 2F       		.uleb128 0x2f
 7933 0f6f 44090000 		.4byte	.LASF238
 7934 0f73 18       		.byte	0x18
 7935 0f74 98       		.byte	0x98
 7936 0f75 850D0000 		.4byte	0xd85
 7937 0f79 2F       		.uleb128 0x2f
 7938 0f7a 2A150000 		.4byte	.LASF239
 7939 0f7e 18       		.byte	0x18
 7940 0f7f 99       		.byte	0x99
 7941 0f80 DB0D0000 		.4byte	0xddb
 7942 0f84 2F       		.uleb128 0x2f
 7943 0f85 07000000 		.4byte	.LASF240
 7944 0f89 18       		.byte	0x18
 7945 0f8a 9A       		.byte	0x9a
 7946 0f8b 310E0000 		.4byte	0xe31
 7947 0f8f 2F       		.uleb128 0x2f
 7948 0f90 D7250000 		.4byte	.LASF241
 7949 0f94 18       		.byte	0x18
 7950 0f95 9B       		.byte	0x9b
 7951 0f96 930E0000 		.4byte	0xe93
 7952 0f9a 2F       		.uleb128 0x2f
 7953 0f9b 13430000 		.4byte	.LASF242
 7954 0f9f 18       		.byte	0x18
 7955 0fa0 9C       		.byte	0x9c
 7956 0fa1 E90E0000 		.4byte	0xee9
 7957 0fa5 2F       		.uleb128 0x2f
 7958 0fa6 48380000 		.4byte	.LASF243
 7959 0faa 18       		.byte	0x18
 7960 0fab 9D       		.byte	0x9d
 7961 0fac 1B0F0000 		.4byte	0xf1b
 7962 0fb0 00       		.byte	0
 7963 0fb1 33       		.uleb128 0x33
 7964 0fb2 A1090000 		.4byte	0x9a1
 7965 0fb6 00       		.byte	0
 7966 0fb7 01       		.byte	0x1
 7967 0fb8 34       		.uleb128 0x34
 7968 0fb9 440F0000 		.4byte	0xf44
 7969 0fbd 02       		.byte	0x2
 7970 0fbe 01       		.byte	0x1
 7971 0fbf 35       		.uleb128 0x35
 7972 0fc0 94300000 		.4byte	.LASF168
 7973 0fc4 18       		.byte	0x18
 7974 0fc5 9F       		.byte	0x9f
 7975 0fc6 8F360000 		.4byte	0x368f
 7976 0fca 20       		.byte	0x20
 7977 0fcb 01       		.byte	0x1
ARM GAS  /tmp/cc5OZvFd.s 			page 141


 7978 0fcc 08       		.uleb128 0x8
 7979 0fcd 850D0000 		.4byte	0xd85
 7980 0fd1 08       		.uleb128 0x8
 7981 0fd2 DB0D0000 		.4byte	0xddb
 7982 0fd6 08       		.uleb128 0x8
 7983 0fd7 310E0000 		.4byte	0xe31
 7984 0fdb 00       		.byte	0
 7985 0fdc 0F       		.uleb128 0xf
 7986 0fdd 82260000 		.4byte	.LASF244
 7987 0fe1 4C       		.byte	0x4c
 7988 0fe2 0A       		.byte	0xa
 7989 0fe3 0C       		.byte	0xc
 7990 0fe4 DA110000 		.4byte	0x11da
 7991 0fe8 29       		.uleb128 0x29
 7992 0fe9 EC220000 		.4byte	.LASF246
 7993 0fed 01       		.byte	0x1
 7994 0fee 0A       		.byte	0xa
 7995 0fef 11       		.byte	0x11
 7996 0ff0 01       		.byte	0x1
 7997 0ff1 1D100000 		.4byte	0x101d
 7998 0ff5 17       		.uleb128 0x17
 7999 0ff6 1A070000 		.4byte	.LASF247
 8000 0ffa 00       		.sleb128 0
 8001 0ffb 17       		.uleb128 0x17
 8002 0ffc A90D0000 		.4byte	.LASF248
 8003 1000 01       		.sleb128 1
 8004 1001 17       		.uleb128 0x17
 8005 1002 63310000 		.4byte	.LASF249
 8006 1006 02       		.sleb128 2
 8007 1007 17       		.uleb128 0x17
 8008 1008 1E1A0000 		.4byte	.LASF250
 8009 100c C000     		.sleb128 64
 8010 100e 17       		.uleb128 0x17
 8011 100f 9B060000 		.4byte	.LASF251
 8012 1013 FE00     		.sleb128 126
 8013 1015 17       		.uleb128 0x17
 8014 1016 49160000 		.4byte	.LASF252
 8015 101a FF00     		.sleb128 127
 8016 101c 00       		.byte	0
 8017 101d 16       		.uleb128 0x16
 8018 101e 01       		.byte	0x1
 8019 101f 0A       		.byte	0xa
 8020 1020 1A       		.byte	0x1a
 8021 1021 01       		.byte	0x1
 8022 1022 2C100000 		.4byte	0x102c
 8023 1026 2A       		.uleb128 0x2a
 8024 1027 4F4B00   		.ascii	"OK\000"
 8025 102a 00       		.sleb128 0
 8026 102b 00       		.byte	0
 8027 102c 19       		.uleb128 0x19
 8028 102d 813C0000 		.4byte	.LASF92
 8029 1031 0A       		.byte	0xa
 8030 1032 0E       		.byte	0xe
 8031 1033 3B370000 		.4byte	0x373b
 8032 1037 00       		.byte	0
 8033 1038 18       		.uleb128 0x18
 8034 1039 F90D0000 		.4byte	.LASF253
ARM GAS  /tmp/cc5OZvFd.s 			page 142


 8035 103d 0A       		.byte	0xa
 8036 103e 1C       		.byte	0x1c
 8037 103f 0F370000 		.4byte	0x370f
 8038 1043 01       		.byte	0x1
 8039 1044 18       		.uleb128 0x18
 8040 1045 B7490000 		.4byte	.LASF254
 8041 1049 0A       		.byte	0xa
 8042 104a 1D       		.byte	0x1d
 8043 104b 603B0000 		.4byte	0x3b60
 8044 104f 01       		.byte	0x1
 8045 1050 18       		.uleb128 0x18
 8046 1051 C2430000 		.4byte	.LASF255
 8047 1055 0A       		.byte	0xa
 8048 1056 1E       		.byte	0x1e
 8049 1057 1A370000 		.4byte	0x371a
 8050 105b 01       		.byte	0x1
 8051 105c 18       		.uleb128 0x18
 8052 105d 2E170000 		.4byte	.LASF256
 8053 1061 0A       		.byte	0xa
 8054 1062 1F       		.byte	0x1f
 8055 1063 CA000000 		.4byte	0xca
 8056 1067 01       		.byte	0x1
 8057 1068 1D       		.uleb128 0x1d
 8058 1069 620C0000 		.4byte	.LASF257
 8059 106d 0A       		.byte	0xa
 8060 106e 22       		.byte	0x22
 8061 106f 793E0000 		.4byte	.LASF258
 8062 1073 E0000000 		.4byte	0xe0
 8063 1077 01       		.byte	0x1
 8064 1078 80100000 		.4byte	0x1080
 8065 107c 86100000 		.4byte	0x1086
 8066 1080 11       		.uleb128 0x11
 8067 1081 0C3C0000 		.4byte	0x3c0c
 8068 1085 00       		.byte	0
 8069 1086 1D       		.uleb128 0x1d
 8070 1087 D80B0000 		.4byte	.LASF259
 8071 108b 0A       		.byte	0xa
 8072 108c 24       		.byte	0x24
 8073 108d 153C0000 		.4byte	.LASF260
 8074 1091 123C0000 		.4byte	0x3c12
 8075 1095 01       		.byte	0x1
 8076 1096 9E100000 		.4byte	0x109e
 8077 109a A4100000 		.4byte	0x10a4
 8078 109e 11       		.uleb128 0x11
 8079 109f 183C0000 		.4byte	0x3c18
 8080 10a3 00       		.byte	0
 8081 10a4 10       		.uleb128 0x10
 8082 10a5 82260000 		.4byte	.LASF244
 8083 10a9 0A       		.byte	0xa
 8084 10aa 27       		.byte	0x27
 8085 10ab 183C0000 		.4byte	0x3c18
 8086 10af B7100000 		.4byte	0x10b7
 8087 10b3 BD100000 		.4byte	0x10bd
 8088 10b7 11       		.uleb128 0x11
 8089 10b8 183C0000 		.4byte	0x3c18
 8090 10bc 00       		.byte	0
 8091 10bd 1E       		.uleb128 0x1e
ARM GAS  /tmp/cc5OZvFd.s 			page 143


 8092 10be 96180000 		.4byte	.LASF261
 8093 10c2 0A       		.byte	0xa
 8094 10c3 2A       		.byte	0x2a
 8095 10c4 830D0000 		.4byte	.LASF262
 8096 10c8 37000000 		.4byte	0x37
 8097 10cc 01       		.byte	0x1
 8098 10cd D7100000 		.4byte	0x10d7
 8099 10d1 0E       		.uleb128 0xe
 8100 10d2 37000000 		.4byte	0x37
 8101 10d6 00       		.byte	0
 8102 10d7 1E       		.uleb128 0x1e
 8103 10d8 06300000 		.4byte	.LASF263
 8104 10dc 0A       		.byte	0xa
 8105 10dd 2B       		.byte	0x2b
 8106 10de 8E130000 		.4byte	.LASF264
 8107 10e2 183C0000 		.4byte	0x3c18
 8108 10e6 01       		.byte	0x1
 8109 10e7 0A110000 		.4byte	0x110a
 8110 10eb 0E       		.uleb128 0xe
 8111 10ec CA000000 		.4byte	0xca
 8112 10f0 0E       		.uleb128 0xe
 8113 10f1 37000000 		.4byte	0x37
 8114 10f5 0E       		.uleb128 0xe
 8115 10f6 38100000 		.4byte	0x1038
 8116 10fa 0E       		.uleb128 0xe
 8117 10fb 44100000 		.4byte	0x1044
 8118 10ff 0E       		.uleb128 0xe
 8119 1100 CA000000 		.4byte	0xca
 8120 1104 0E       		.uleb128 0xe
 8121 1105 E0000000 		.4byte	0xe0
 8122 1109 00       		.byte	0
 8123 110a 1E       		.uleb128 0x1e
 8124 110b 45070000 		.4byte	.LASF265
 8125 110f 0A       		.byte	0xa
 8126 1110 2F       		.byte	0x2f
 8127 1111 A0090000 		.4byte	.LASF266
 8128 1115 183C0000 		.4byte	0x3c18
 8129 1119 01       		.byte	0x1
 8130 111a 3D110000 		.4byte	0x113d
 8131 111e 0E       		.uleb128 0xe
 8132 111f CA000000 		.4byte	0xca
 8133 1123 0E       		.uleb128 0xe
 8134 1124 37000000 		.4byte	0x37
 8135 1128 0E       		.uleb128 0xe
 8136 1129 38100000 		.4byte	0x1038
 8137 112d 0E       		.uleb128 0xe
 8138 112e 44100000 		.4byte	0x1044
 8139 1132 0E       		.uleb128 0xe
 8140 1133 CA000000 		.4byte	0xca
 8141 1137 0E       		.uleb128 0xe
 8142 1138 E0000000 		.4byte	0xe0
 8143 113c 00       		.byte	0
 8144 113d 1E       		.uleb128 0x1e
 8145 113e 252C0000 		.4byte	.LASF267
 8146 1142 0A       		.byte	0xa
 8147 1143 32       		.byte	0x32
 8148 1144 741C0000 		.4byte	.LASF268
ARM GAS  /tmp/cc5OZvFd.s 			page 144


 8149 1148 183C0000 		.4byte	0x3c18
 8150 114c 01       		.byte	0x1
 8151 114d 6B110000 		.4byte	0x116b
 8152 1151 0E       		.uleb128 0xe
 8153 1152 1E3C0000 		.4byte	0x3c1e
 8154 1156 0E       		.uleb128 0xe
 8155 1157 38100000 		.4byte	0x1038
 8156 115b 0E       		.uleb128 0xe
 8157 115c 44100000 		.4byte	0x1044
 8158 1160 0E       		.uleb128 0xe
 8159 1161 CA000000 		.4byte	0xca
 8160 1165 0E       		.uleb128 0xe
 8161 1166 E0000000 		.4byte	0xe0
 8162 116a 00       		.byte	0
 8163 116b 20       		.uleb128 0x20
 8164 116c 63210000 		.4byte	.LASF269
 8165 1170 0A       		.byte	0xa
 8166 1171 35       		.byte	0x35
 8167 1172 79290000 		.4byte	.LASF270
 8168 1176 243C0000 		.4byte	0x3c24
 8169 117a 01       		.byte	0x1
 8170 117b 20       		.uleb128 0x20
 8171 117c 712B0000 		.4byte	.LASF271
 8172 1180 0A       		.byte	0xa
 8173 1181 36       		.byte	0x36
 8174 1182 BF020000 		.4byte	.LASF272
 8175 1186 38100000 		.4byte	0x1038
 8176 118a 01       		.byte	0x1
 8177 118b 22       		.uleb128 0x22
 8178 118c 62090000 		.4byte	.LASF273
 8179 1190 0A       		.byte	0xa
 8180 1191 37       		.byte	0x37
 8181 1192 C11F0000 		.4byte	.LASF274
 8182 1196 01       		.byte	0x1
 8183 1197 A1110000 		.4byte	0x11a1
 8184 119b 0E       		.uleb128 0xe
 8185 119c 38100000 		.4byte	0x1038
 8186 11a0 00       		.byte	0
 8187 11a1 15       		.uleb128 0x15
 8188 11a2 700A0000 		.4byte	.LASF275
 8189 11a6 0A       		.byte	0xa
 8190 11a7 38       		.byte	0x38
 8191 11a8 31000000 		.4byte	.LASF276
 8192 11ac 01       		.byte	0x1
 8193 11ad 22       		.uleb128 0x22
 8194 11ae 841B0000 		.4byte	.LASF277
 8195 11b2 0A       		.byte	0xa
 8196 11b3 39       		.byte	0x39
 8197 11b4 F0150000 		.4byte	.LASF278
 8198 11b8 01       		.byte	0x1
 8199 11b9 C3110000 		.4byte	0x11c3
 8200 11bd 0E       		.uleb128 0xe
 8201 11be 2A3C0000 		.4byte	0x3c2a
 8202 11c2 00       		.byte	0
 8203 11c3 24       		.uleb128 0x24
 8204 11c4 3F240000 		.4byte	.LASF279
 8205 11c8 0A       		.byte	0xa
ARM GAS  /tmp/cc5OZvFd.s 			page 145


 8206 11c9 3A       		.byte	0x3a
 8207 11ca 0D080000 		.4byte	.LASF280
 8208 11ce E7360000 		.4byte	0x36e7
 8209 11d2 01       		.byte	0x1
 8210 11d3 0E       		.uleb128 0xe
 8211 11d4 243C0000 		.4byte	0x3c24
 8212 11d8 00       		.byte	0
 8213 11d9 00       		.byte	0
 8214 11da 08       		.uleb128 0x8
 8215 11db DC0F0000 		.4byte	0xfdc
 8216 11df 0F       		.uleb128 0xf
 8217 11e0 FE310000 		.4byte	.LASF281
 8218 11e4 0C       		.byte	0xc
 8219 11e5 08       		.byte	0x8
 8220 11e6 09       		.byte	0x9
 8221 11e7 98130000 		.4byte	0x1398
 8222 11eb 14       		.uleb128 0x14
 8223 11ec A6010000 		.4byte	0x1a6
 8224 11f0 00       		.byte	0
 8225 11f1 19       		.uleb128 0x19
 8226 11f2 813C0000 		.4byte	.LASF92
 8227 11f6 08       		.byte	0x8
 8228 11f7 0E       		.byte	0xe
 8229 11f8 433B0000 		.4byte	0x3b43
 8230 11fc 00       		.byte	0
 8231 11fd 18       		.uleb128 0x18
 8232 11fe E8350000 		.4byte	.LASF282
 8233 1202 08       		.byte	0x8
 8234 1203 0B       		.byte	0xb
 8235 1204 2C3A0000 		.4byte	0x3a2c
 8236 1208 01       		.byte	0x1
 8237 1209 1D       		.uleb128 0x1d
 8238 120a 50040000 		.4byte	.LASF283
 8239 120e 08       		.byte	0x8
 8240 120f 11       		.byte	0x11
 8241 1210 49420000 		.4byte	.LASF284
 8242 1214 37000000 		.4byte	0x37
 8243 1218 01       		.byte	0x1
 8244 1219 21120000 		.4byte	0x1221
 8245 121d 27120000 		.4byte	0x1227
 8246 1221 11       		.uleb128 0x11
 8247 1222 303C0000 		.4byte	0x3c30
 8248 1226 00       		.byte	0
 8249 1227 1D       		.uleb128 0x1d
 8250 1228 BF460000 		.4byte	.LASF285
 8251 122c 08       		.byte	0x8
 8252 122d 12       		.byte	0x12
 8253 122e B0250000 		.4byte	.LASF286
 8254 1232 FD110000 		.4byte	0x11fd
 8255 1236 01       		.byte	0x1
 8256 1237 3F120000 		.4byte	0x123f
 8257 123b 45120000 		.4byte	0x1245
 8258 123f 11       		.uleb128 0x11
 8259 1240 303C0000 		.4byte	0x3c30
 8260 1244 00       		.byte	0
 8261 1245 1D       		.uleb128 0x1d
 8262 1246 35100000 		.4byte	.LASF287
ARM GAS  /tmp/cc5OZvFd.s 			page 146


 8263 124a 08       		.byte	0x8
 8264 124b 14       		.byte	0x14
 8265 124c 8D170000 		.4byte	.LASF288
 8266 1250 CA000000 		.4byte	0xca
 8267 1254 01       		.byte	0x1
 8268 1255 5D120000 		.4byte	0x125d
 8269 1259 63120000 		.4byte	0x1263
 8270 125d 11       		.uleb128 0x11
 8271 125e 363C0000 		.4byte	0x3c36
 8272 1262 00       		.byte	0
 8273 1263 1B       		.uleb128 0x1b
 8274 1264 792C0000 		.4byte	.LASF289
 8275 1268 08       		.byte	0x8
 8276 1269 15       		.byte	0x15
 8277 126a BE4A0000 		.4byte	.LASF290
 8278 126e 01       		.byte	0x1
 8279 126f 77120000 		.4byte	0x1277
 8280 1273 82120000 		.4byte	0x1282
 8281 1277 11       		.uleb128 0x11
 8282 1278 363C0000 		.4byte	0x3c36
 8283 127c 0E       		.uleb128 0xe
 8284 127d CA000000 		.4byte	0xca
 8285 1281 00       		.byte	0
 8286 1282 1D       		.uleb128 0x1d
 8287 1283 96290000 		.4byte	.LASF291
 8288 1287 08       		.byte	0x8
 8289 1288 17       		.byte	0x17
 8290 1289 702D0000 		.4byte	.LASF292
 8291 128d CA000000 		.4byte	0xca
 8292 1291 01       		.byte	0x1
 8293 1292 9A120000 		.4byte	0x129a
 8294 1296 A0120000 		.4byte	0x12a0
 8295 129a 11       		.uleb128 0x11
 8296 129b 363C0000 		.4byte	0x3c36
 8297 129f 00       		.byte	0
 8298 12a0 1B       		.uleb128 0x1b
 8299 12a1 CD460000 		.4byte	.LASF293
 8300 12a5 08       		.byte	0x8
 8301 12a6 18       		.byte	0x18
 8302 12a7 19440000 		.4byte	.LASF294
 8303 12ab 01       		.byte	0x1
 8304 12ac B4120000 		.4byte	0x12b4
 8305 12b0 BF120000 		.4byte	0x12bf
 8306 12b4 11       		.uleb128 0x11
 8307 12b5 363C0000 		.4byte	0x3c36
 8308 12b9 0E       		.uleb128 0xe
 8309 12ba CA000000 		.4byte	0xca
 8310 12be 00       		.byte	0
 8311 12bf 1B       		.uleb128 0x1b
 8312 12c0 60120000 		.4byte	.LASF295
 8313 12c4 08       		.byte	0x8
 8314 12c5 19       		.byte	0x19
 8315 12c6 F4370000 		.4byte	.LASF296
 8316 12ca 01       		.byte	0x1
 8317 12cb D3120000 		.4byte	0x12d3
 8318 12cf E3120000 		.4byte	0x12e3
 8319 12d3 11       		.uleb128 0x11
ARM GAS  /tmp/cc5OZvFd.s 			page 147


 8320 12d4 363C0000 		.4byte	0x3c36
 8321 12d8 0E       		.uleb128 0xe
 8322 12d9 CA000000 		.4byte	0xca
 8323 12dd 0E       		.uleb128 0xe
 8324 12de 37000000 		.4byte	0x37
 8325 12e2 00       		.byte	0
 8326 12e3 1D       		.uleb128 0x1d
 8327 12e4 D80B0000 		.4byte	.LASF259
 8328 12e8 08       		.byte	0x8
 8329 12e9 1B       		.byte	0x1b
 8330 12ea 23270000 		.4byte	.LASF297
 8331 12ee 3C3C0000 		.4byte	0x3c3c
 8332 12f2 01       		.byte	0x1
 8333 12f3 FB120000 		.4byte	0x12fb
 8334 12f7 01130000 		.4byte	0x1301
 8335 12fb 11       		.uleb128 0x11
 8336 12fc 363C0000 		.4byte	0x3c36
 8337 1300 00       		.byte	0
 8338 1301 12       		.uleb128 0x12
 8339 1302 FE310000 		.4byte	.LASF281
 8340 1306 08       		.byte	0x8
 8341 1307 1E       		.byte	0x1e
 8342 1308 363C0000 		.4byte	0x3c36
 8343 130c 01       		.byte	0x1
 8344 130d 15130000 		.4byte	0x1315
 8345 1311 20130000 		.4byte	0x1320
 8346 1315 11       		.uleb128 0x11
 8347 1316 363C0000 		.4byte	0x3c36
 8348 131a 0E       		.uleb128 0xe
 8349 131b 37000000 		.4byte	0x37
 8350 131f 00       		.byte	0
 8351 1320 12       		.uleb128 0x12
 8352 1321 FE310000 		.4byte	.LASF281
 8353 1325 08       		.byte	0x8
 8354 1326 1F       		.byte	0x1f
 8355 1327 363C0000 		.4byte	0x3c36
 8356 132b 01       		.byte	0x1
 8357 132c 34130000 		.4byte	0x1334
 8358 1330 49130000 		.4byte	0x1349
 8359 1334 11       		.uleb128 0x11
 8360 1335 363C0000 		.4byte	0x3c36
 8361 1339 0E       		.uleb128 0xe
 8362 133a CA000000 		.4byte	0xca
 8363 133e 0E       		.uleb128 0xe
 8364 133f 37000000 		.4byte	0x37
 8365 1343 0E       		.uleb128 0xe
 8366 1344 37000000 		.4byte	0x37
 8367 1348 00       		.byte	0
 8368 1349 12       		.uleb128 0x12
 8369 134a FE310000 		.4byte	.LASF281
 8370 134e 08       		.byte	0x8
 8371 134f 20       		.byte	0x20
 8372 1350 363C0000 		.4byte	0x3c36
 8373 1354 01       		.byte	0x1
 8374 1355 5D130000 		.4byte	0x135d
 8375 1359 6D130000 		.4byte	0x136d
 8376 135d 11       		.uleb128 0x11
ARM GAS  /tmp/cc5OZvFd.s 			page 148


 8377 135e 363C0000 		.4byte	0x3c36
 8378 1362 0E       		.uleb128 0xe
 8379 1363 37000000 		.4byte	0x37
 8380 1367 0E       		.uleb128 0xe
 8381 1368 FD110000 		.4byte	0x11fd
 8382 136c 00       		.byte	0
 8383 136d 13       		.uleb128 0x13
 8384 136e FE310000 		.4byte	.LASF281
 8385 1372 08       		.byte	0x8
 8386 1373 21       		.byte	0x21
 8387 1374 363C0000 		.4byte	0x3c36
 8388 1378 01       		.byte	0x1
 8389 1379 7D130000 		.4byte	0x137d
 8390 137d 11       		.uleb128 0x11
 8391 137e 363C0000 		.4byte	0x3c36
 8392 1382 0E       		.uleb128 0xe
 8393 1383 CA000000 		.4byte	0xca
 8394 1387 0E       		.uleb128 0xe
 8395 1388 37000000 		.4byte	0x37
 8396 138c 0E       		.uleb128 0xe
 8397 138d 37000000 		.4byte	0x37
 8398 1391 0E       		.uleb128 0xe
 8399 1392 FD110000 		.4byte	0x11fd
 8400 1396 00       		.byte	0
 8401 1397 00       		.byte	0
 8402 1398 08       		.uleb128 0x8
 8403 1399 9D130000 		.4byte	0x139d
 8404 139d 0F       		.uleb128 0xf
 8405 139e 29170000 		.4byte	.LASF298
 8406 13a2 04       		.byte	0x4
 8407 13a3 09       		.byte	0x9
 8408 13a4 08       		.byte	0x8
 8409 13a5 4A160000 		.4byte	0x164a
 8410 13a9 18       		.uleb128 0x18
 8411 13aa E22E0000 		.4byte	.LASF299
 8412 13ae 09       		.byte	0x9
 8413 13af 0A       		.byte	0xa
 8414 13b0 A5360000 		.4byte	0x36a5
 8415 13b4 01       		.byte	0x1
 8416 13b5 36       		.uleb128 0x36
 8417 13b6 72617700 		.ascii	"raw\000"
 8418 13ba 09       		.byte	0x9
 8419 13bb 1B       		.byte	0x1b
 8420 13bc A9130000 		.4byte	0x13a9
 8421 13c0 00       		.byte	0
 8422 13c1 01       		.byte	0x1
 8423 13c2 1A       		.uleb128 0x1a
 8424 13c3 30340000 		.4byte	.LASF301
 8425 13c7 09       		.byte	0x9
 8426 13c8 3B       		.byte	0x3b
 8427 13c9 98130000 		.4byte	0x1398
 8428 13cd 01       		.byte	0x1
 8429 13ce 1A       		.uleb128 0x1a
 8430 13cf DA440000 		.4byte	.LASF302
 8431 13d3 09       		.byte	0x9
 8432 13d4 3C       		.byte	0x3c
 8433 13d5 98130000 		.4byte	0x1398
ARM GAS  /tmp/cc5OZvFd.s 			page 149


 8434 13d9 01       		.byte	0x1
 8435 13da 1A       		.uleb128 0x1a
 8436 13db 69290000 		.4byte	.LASF303
 8437 13df 09       		.byte	0x9
 8438 13e0 3D       		.byte	0x3d
 8439 13e1 98130000 		.4byte	0x1398
 8440 13e5 01       		.byte	0x1
 8441 13e6 1D       		.uleb128 0x1d
 8442 13e7 A2450000 		.4byte	.LASF304
 8443 13eb 09       		.byte	0x9
 8444 13ec 1E       		.byte	0x1e
 8445 13ed 17000000 		.4byte	.LASF305
 8446 13f1 A9130000 		.4byte	0x13a9
 8447 13f5 01       		.byte	0x1
 8448 13f6 FE130000 		.4byte	0x13fe
 8449 13fa 04140000 		.4byte	0x1404
 8450 13fe 11       		.uleb128 0x11
 8451 13ff 423C0000 		.4byte	0x3c42
 8452 1403 00       		.byte	0
 8453 1404 1D       		.uleb128 0x1d
 8454 1405 9C1A0000 		.4byte	.LASF306
 8455 1409 09       		.byte	0x9
 8456 140a 1F       		.byte	0x1f
 8457 140b 502D0000 		.4byte	.LASF307
 8458 140f A9130000 		.4byte	0x13a9
 8459 1413 01       		.byte	0x1
 8460 1414 1C140000 		.4byte	0x141c
 8461 1418 22140000 		.4byte	0x1422
 8462 141c 11       		.uleb128 0x11
 8463 141d 423C0000 		.4byte	0x3c42
 8464 1421 00       		.byte	0
 8465 1422 1D       		.uleb128 0x1d
 8466 1423 A4050000 		.4byte	.LASF308
 8467 1427 09       		.byte	0x9
 8468 1428 20       		.byte	0x20
 8469 1429 581B0000 		.4byte	.LASF309
 8470 142d A9130000 		.4byte	0x13a9
 8471 1431 01       		.byte	0x1
 8472 1432 3A140000 		.4byte	0x143a
 8473 1436 40140000 		.4byte	0x1440
 8474 143a 11       		.uleb128 0x11
 8475 143b 423C0000 		.4byte	0x3c42
 8476 143f 00       		.byte	0
 8477 1440 1D       		.uleb128 0x1d
 8478 1441 99300000 		.4byte	.LASF310
 8479 1445 09       		.byte	0x9
 8480 1446 21       		.byte	0x21
 8481 1447 37040000 		.4byte	.LASF311
 8482 144b A9130000 		.4byte	0x13a9
 8483 144f 01       		.byte	0x1
 8484 1450 58140000 		.4byte	0x1458
 8485 1454 5E140000 		.4byte	0x145e
 8486 1458 11       		.uleb128 0x11
 8487 1459 423C0000 		.4byte	0x3c42
 8488 145d 00       		.byte	0
 8489 145e 1D       		.uleb128 0x1d
 8490 145f 623F0000 		.4byte	.LASF312
ARM GAS  /tmp/cc5OZvFd.s 			page 150


 8491 1463 09       		.byte	0x9
 8492 1464 23       		.byte	0x23
 8493 1465 CD2F0000 		.4byte	.LASF313
 8494 1469 483C0000 		.4byte	0x3c48
 8495 146d 01       		.byte	0x1
 8496 146e 76140000 		.4byte	0x1476
 8497 1472 7C140000 		.4byte	0x147c
 8498 1476 11       		.uleb128 0x11
 8499 1477 423C0000 		.4byte	0x3c42
 8500 147b 00       		.byte	0
 8501 147c 1D       		.uleb128 0x1d
 8502 147d 4F190000 		.4byte	.LASF314
 8503 1481 09       		.byte	0x9
 8504 1482 24       		.byte	0x24
 8505 1483 A22B0000 		.4byte	.LASF315
 8506 1487 483C0000 		.4byte	0x3c48
 8507 148b 01       		.byte	0x1
 8508 148c 94140000 		.4byte	0x1494
 8509 1490 9A140000 		.4byte	0x149a
 8510 1494 11       		.uleb128 0x11
 8511 1495 423C0000 		.4byte	0x3c42
 8512 1499 00       		.byte	0
 8513 149a 1D       		.uleb128 0x1d
 8514 149b CD260000 		.4byte	.LASF316
 8515 149f 09       		.byte	0x9
 8516 14a0 25       		.byte	0x25
 8517 14a1 760A0000 		.4byte	.LASF317
 8518 14a5 483C0000 		.4byte	0x3c48
 8519 14a9 01       		.byte	0x1
 8520 14aa B2140000 		.4byte	0x14b2
 8521 14ae B8140000 		.4byte	0x14b8
 8522 14b2 11       		.uleb128 0x11
 8523 14b3 423C0000 		.4byte	0x3c42
 8524 14b7 00       		.byte	0
 8525 14b8 1D       		.uleb128 0x1d
 8526 14b9 C8260000 		.4byte	.LASF318
 8527 14bd 09       		.byte	0x9
 8528 14be 26       		.byte	0x26
 8529 14bf 70460000 		.4byte	.LASF319
 8530 14c3 483C0000 		.4byte	0x3c48
 8531 14c7 01       		.byte	0x1
 8532 14c8 D0140000 		.4byte	0x14d0
 8533 14cc D6140000 		.4byte	0x14d6
 8534 14d0 11       		.uleb128 0x11
 8535 14d1 423C0000 		.4byte	0x3c42
 8536 14d5 00       		.byte	0
 8537 14d6 1D       		.uleb128 0x1d
 8538 14d7 D0110000 		.4byte	.LASF320
 8539 14db 09       		.byte	0x9
 8540 14dc 28       		.byte	0x28
 8541 14dd 9C080000 		.4byte	.LASF321
 8542 14e1 4F3C0000 		.4byte	0x3c4f
 8543 14e5 01       		.byte	0x1
 8544 14e6 EE140000 		.4byte	0x14ee
 8545 14ea F9140000 		.4byte	0x14f9
 8546 14ee 11       		.uleb128 0x11
 8547 14ef 553C0000 		.4byte	0x3c55
ARM GAS  /tmp/cc5OZvFd.s 			page 151


 8548 14f3 0E       		.uleb128 0xe
 8549 14f4 2A3C0000 		.4byte	0x3c2a
 8550 14f8 00       		.byte	0
 8551 14f9 1D       		.uleb128 0x1d
 8552 14fa B9380000 		.4byte	.LASF322
 8553 14fe 09       		.byte	0x9
 8554 14ff 29       		.byte	0x29
 8555 1500 29300000 		.4byte	.LASF323
 8556 1504 4F3C0000 		.4byte	0x3c4f
 8557 1508 01       		.byte	0x1
 8558 1509 11150000 		.4byte	0x1511
 8559 150d 1C150000 		.4byte	0x151c
 8560 1511 11       		.uleb128 0x11
 8561 1512 553C0000 		.4byte	0x3c55
 8562 1516 0E       		.uleb128 0xe
 8563 1517 2A3C0000 		.4byte	0x3c2a
 8564 151b 00       		.byte	0
 8565 151c 1D       		.uleb128 0x1d
 8566 151d 67450000 		.4byte	.LASF324
 8567 1521 09       		.byte	0x9
 8568 1522 2A       		.byte	0x2a
 8569 1523 0F2B0000 		.4byte	.LASF325
 8570 1527 4F3C0000 		.4byte	0x3c4f
 8571 152b 01       		.byte	0x1
 8572 152c 34150000 		.4byte	0x1534
 8573 1530 3F150000 		.4byte	0x153f
 8574 1534 11       		.uleb128 0x11
 8575 1535 553C0000 		.4byte	0x3c55
 8576 1539 0E       		.uleb128 0xe
 8577 153a 2A3C0000 		.4byte	0x3c2a
 8578 153e 00       		.byte	0
 8579 153f 12       		.uleb128 0x12
 8580 1540 29170000 		.4byte	.LASF298
 8581 1544 09       		.byte	0x9
 8582 1545 2D       		.byte	0x2d
 8583 1546 553C0000 		.4byte	0x3c55
 8584 154a 01       		.byte	0x1
 8585 154b 53150000 		.4byte	0x1553
 8586 154f 59150000 		.4byte	0x1559
 8587 1553 11       		.uleb128 0x11
 8588 1554 553C0000 		.4byte	0x3c55
 8589 1558 00       		.byte	0
 8590 1559 37       		.uleb128 0x37
 8591 155a 29170000 		.4byte	.LASF298
 8592 155e 09       		.byte	0x9
 8593 155f 2F       		.byte	0x2f
 8594 1560 553C0000 		.4byte	0x3c55
 8595 1564 01       		.byte	0x1
 8596 1565 6D150000 		.4byte	0x156d
 8597 1569 78150000 		.4byte	0x1578
 8598 156d 11       		.uleb128 0x11
 8599 156e 553C0000 		.4byte	0x3c55
 8600 1572 0E       		.uleb128 0xe
 8601 1573 483C0000 		.4byte	0x3c48
 8602 1577 00       		.byte	0
 8603 1578 12       		.uleb128 0x12
 8604 1579 29170000 		.4byte	.LASF298
ARM GAS  /tmp/cc5OZvFd.s 			page 152


 8605 157d 09       		.byte	0x9
 8606 157e 30       		.byte	0x30
 8607 157f 553C0000 		.4byte	0x3c55
 8608 1583 01       		.byte	0x1
 8609 1584 8C150000 		.4byte	0x158c
 8610 1588 97150000 		.4byte	0x1597
 8611 158c 11       		.uleb128 0x11
 8612 158d 553C0000 		.4byte	0x3c55
 8613 1591 0E       		.uleb128 0xe
 8614 1592 2A3C0000 		.4byte	0x3c2a
 8615 1596 00       		.byte	0
 8616 1597 38       		.uleb128 0x38
 8617 1598 757300   		.ascii	"us\000"
 8618 159b 09       		.byte	0x9
 8619 159c 33       		.byte	0x33
 8620 159d 223F0000 		.4byte	.LASF326
 8621 15a1 9D130000 		.4byte	0x139d
 8622 15a5 01       		.byte	0x1
 8623 15a6 B0150000 		.4byte	0x15b0
 8624 15aa 0E       		.uleb128 0xe
 8625 15ab A9130000 		.4byte	0x13a9
 8626 15af 00       		.byte	0
 8627 15b0 38       		.uleb128 0x38
 8628 15b1 6D7300   		.ascii	"ms\000"
 8629 15b4 09       		.byte	0x9
 8630 15b5 34       		.byte	0x34
 8631 15b6 3B3C0000 		.4byte	.LASF327
 8632 15ba 9D130000 		.4byte	0x139d
 8633 15be 01       		.byte	0x1
 8634 15bf C9150000 		.4byte	0x15c9
 8635 15c3 0E       		.uleb128 0xe
 8636 15c4 A9130000 		.4byte	0x13a9
 8637 15c8 00       		.byte	0
 8638 15c9 38       		.uleb128 0x38
 8639 15ca 7300     		.ascii	"s\000"
 8640 15cc 09       		.byte	0x9
 8641 15cd 35       		.byte	0x35
 8642 15ce 40470000 		.4byte	.LASF328
 8643 15d2 9D130000 		.4byte	0x139d
 8644 15d6 01       		.byte	0x1
 8645 15d7 E1150000 		.4byte	0x15e1
 8646 15db 0E       		.uleb128 0xe
 8647 15dc A9130000 		.4byte	0x13a9
 8648 15e0 00       		.byte	0
 8649 15e1 38       		.uleb128 0x38
 8650 15e2 6D00     		.ascii	"m\000"
 8651 15e4 09       		.byte	0x9
 8652 15e5 36       		.byte	0x36
 8653 15e6 2A210000 		.4byte	.LASF329
 8654 15ea 9D130000 		.4byte	0x139d
 8655 15ee 01       		.byte	0x1
 8656 15ef F9150000 		.4byte	0x15f9
 8657 15f3 0E       		.uleb128 0xe
 8658 15f4 A9130000 		.4byte	0x13a9
 8659 15f8 00       		.byte	0
 8660 15f9 38       		.uleb128 0x38
 8661 15fa 687A00   		.ascii	"hz\000"
ARM GAS  /tmp/cc5OZvFd.s 			page 153


 8662 15fd 09       		.byte	0x9
 8663 15fe 37       		.byte	0x37
 8664 15ff 78330000 		.4byte	.LASF330
 8665 1603 9D130000 		.4byte	0x139d
 8666 1607 01       		.byte	0x1
 8667 1608 12160000 		.4byte	0x1612
 8668 160c 0E       		.uleb128 0xe
 8669 160d 483C0000 		.4byte	0x3c48
 8670 1611 00       		.byte	0
 8671 1612 39       		.uleb128 0x39
 8672 1613 6E6F7700 		.ascii	"now\000"
 8673 1617 09       		.byte	0x9
 8674 1618 38       		.byte	0x38
 8675 1619 80320000 		.4byte	.LASF830
 8676 161d 9D130000 		.4byte	0x139d
 8677 1621 01       		.byte	0x1
 8678 1622 08       		.uleb128 0x8
 8679 1623 A9130000 		.4byte	0x13a9
 8680 1627 13       		.uleb128 0x13
 8681 1628 2A310000 		.4byte	.LASF331
 8682 162c 09       		.byte	0x9
 8683 162d 9F       		.byte	0x9f
 8684 162e 553C0000 		.4byte	0x3c55
 8685 1632 01       		.byte	0x1
 8686 1633 3E160000 		.4byte	0x163e
 8687 1637 3A       		.uleb128 0x3a
 8688 1638 5400     		.ascii	"T\000"
 8689 163a 86000000 		.4byte	0x86
 8690 163e 11       		.uleb128 0x11
 8691 163f 553C0000 		.4byte	0x3c55
 8692 1643 0E       		.uleb128 0xe
 8693 1644 86000000 		.4byte	0x86
 8694 1648 00       		.byte	0
 8695 1649 00       		.byte	0
 8696 164a 08       		.uleb128 0x8
 8697 164b DF110000 		.4byte	0x11df
 8698 164f 0F       		.uleb128 0xf
 8699 1650 DF410000 		.4byte	.LASF332
 8700 1654 4C       		.byte	0x4c
 8701 1655 0B       		.byte	0xb
 8702 1656 0C       		.byte	0xc
 8703 1657 07180000 		.4byte	0x1807
 8704 165b 29       		.uleb128 0x29
 8705 165c EC220000 		.4byte	.LASF246
 8706 1660 01       		.byte	0x1
 8707 1661 0B       		.byte	0xb
 8708 1662 0E       		.byte	0xe
 8709 1663 01       		.byte	0x1
 8710 1664 90160000 		.4byte	0x1690
 8711 1668 17       		.uleb128 0x17
 8712 1669 1A070000 		.4byte	.LASF247
 8713 166d 00       		.sleb128 0
 8714 166e 17       		.uleb128 0x17
 8715 166f A90D0000 		.4byte	.LASF248
 8716 1673 01       		.sleb128 1
 8717 1674 17       		.uleb128 0x17
 8718 1675 63310000 		.4byte	.LASF249
ARM GAS  /tmp/cc5OZvFd.s 			page 154


 8719 1679 02       		.sleb128 2
 8720 167a 17       		.uleb128 0x17
 8721 167b 1E1A0000 		.4byte	.LASF250
 8722 167f C000     		.sleb128 64
 8723 1681 17       		.uleb128 0x17
 8724 1682 9B060000 		.4byte	.LASF251
 8725 1686 FE00     		.sleb128 126
 8726 1688 17       		.uleb128 0x17
 8727 1689 49160000 		.4byte	.LASF252
 8728 168d FF00     		.sleb128 127
 8729 168f 00       		.byte	0
 8730 1690 16       		.uleb128 0x16
 8731 1691 01       		.byte	0x1
 8732 1692 0B       		.byte	0xb
 8733 1693 17       		.byte	0x17
 8734 1694 01       		.byte	0x1
 8735 1695 9F160000 		.4byte	0x169f
 8736 1699 2A       		.uleb128 0x2a
 8737 169a 4F4B00   		.ascii	"OK\000"
 8738 169d 00       		.sleb128 0
 8739 169e 00       		.byte	0
 8740 169f 14       		.uleb128 0x14
 8741 16a0 A6010000 		.4byte	0x1a6
 8742 16a4 00       		.byte	0
 8743 16a5 19       		.uleb128 0x19
 8744 16a6 813C0000 		.4byte	.LASF92
 8745 16aa 0B       		.byte	0xb
 8746 16ab 1F       		.byte	0x1f
 8747 16ac DC0F0000 		.4byte	0xfdc
 8748 16b0 00       		.byte	0
 8749 16b1 18       		.uleb128 0x18
 8750 16b2 F90D0000 		.4byte	.LASF253
 8751 16b6 0B       		.byte	0xb
 8752 16b7 19       		.byte	0x19
 8753 16b8 38100000 		.4byte	0x1038
 8754 16bc 01       		.byte	0x1
 8755 16bd 18       		.uleb128 0x18
 8756 16be B7490000 		.4byte	.LASF254
 8757 16c2 0B       		.byte	0xb
 8758 16c3 1A       		.byte	0x1a
 8759 16c4 44100000 		.4byte	0x1044
 8760 16c8 01       		.byte	0x1
 8761 16c9 18       		.uleb128 0x18
 8762 16ca C2430000 		.4byte	.LASF255
 8763 16ce 0B       		.byte	0xb
 8764 16cf 1B       		.byte	0x1b
 8765 16d0 50100000 		.4byte	0x1050
 8766 16d4 01       		.byte	0x1
 8767 16d5 18       		.uleb128 0x18
 8768 16d6 2E170000 		.4byte	.LASF256
 8769 16da 0B       		.byte	0xb
 8770 16db 1C       		.byte	0x1c
 8771 16dc 5C100000 		.4byte	0x105c
 8772 16e0 01       		.byte	0x1
 8773 16e1 1D       		.uleb128 0x1d
 8774 16e2 620C0000 		.4byte	.LASF257
 8775 16e6 0B       		.byte	0xb
ARM GAS  /tmp/cc5OZvFd.s 			page 155


 8776 16e7 23       		.byte	0x23
 8777 16e8 2A070000 		.4byte	.LASF333
 8778 16ec E0000000 		.4byte	0xe0
 8779 16f0 01       		.byte	0x1
 8780 16f1 F9160000 		.4byte	0x16f9
 8781 16f5 FF160000 		.4byte	0x16ff
 8782 16f9 11       		.uleb128 0x11
 8783 16fa 5B3C0000 		.4byte	0x3c5b
 8784 16fe 00       		.byte	0
 8785 16ff 10       		.uleb128 0x10
 8786 1700 DF410000 		.4byte	.LASF332
 8787 1704 0B       		.byte	0xb
 8788 1705 26       		.byte	0x26
 8789 1706 613C0000 		.4byte	0x3c61
 8790 170a 12170000 		.4byte	0x1712
 8791 170e 18170000 		.4byte	0x1718
 8792 1712 11       		.uleb128 0x11
 8793 1713 613C0000 		.4byte	0x3c61
 8794 1717 00       		.byte	0
 8795 1718 1E       		.uleb128 0x1e
 8796 1719 96180000 		.4byte	.LASF261
 8797 171d 0B       		.byte	0xb
 8798 171e 29       		.byte	0x29
 8799 171f D11C0000 		.4byte	.LASF334
 8800 1723 37000000 		.4byte	0x37
 8801 1727 01       		.byte	0x1
 8802 1728 32170000 		.4byte	0x1732
 8803 172c 0E       		.uleb128 0xe
 8804 172d 37000000 		.4byte	0x37
 8805 1731 00       		.byte	0
 8806 1732 1E       		.uleb128 0x1e
 8807 1733 06300000 		.4byte	.LASF263
 8808 1737 0B       		.byte	0xb
 8809 1738 2A       		.byte	0x2a
 8810 1739 71230000 		.4byte	.LASF335
 8811 173d 613C0000 		.4byte	0x3c61
 8812 1741 01       		.byte	0x1
 8813 1742 65170000 		.4byte	0x1765
 8814 1746 0E       		.uleb128 0xe
 8815 1747 CA000000 		.4byte	0xca
 8816 174b 0E       		.uleb128 0xe
 8817 174c 37000000 		.4byte	0x37
 8818 1750 0E       		.uleb128 0xe
 8819 1751 B1160000 		.4byte	0x16b1
 8820 1755 0E       		.uleb128 0xe
 8821 1756 BD160000 		.4byte	0x16bd
 8822 175a 0E       		.uleb128 0xe
 8823 175b CA000000 		.4byte	0xca
 8824 175f 0E       		.uleb128 0xe
 8825 1760 E0000000 		.4byte	0xe0
 8826 1764 00       		.byte	0
 8827 1765 1E       		.uleb128 0x1e
 8828 1766 45070000 		.4byte	.LASF265
 8829 176a 0B       		.byte	0xb
 8830 176b 2D       		.byte	0x2d
 8831 176c 7E220000 		.4byte	.LASF336
 8832 1770 613C0000 		.4byte	0x3c61
ARM GAS  /tmp/cc5OZvFd.s 			page 156


 8833 1774 01       		.byte	0x1
 8834 1775 98170000 		.4byte	0x1798
 8835 1779 0E       		.uleb128 0xe
 8836 177a CA000000 		.4byte	0xca
 8837 177e 0E       		.uleb128 0xe
 8838 177f 37000000 		.4byte	0x37
 8839 1783 0E       		.uleb128 0xe
 8840 1784 B1160000 		.4byte	0x16b1
 8841 1788 0E       		.uleb128 0xe
 8842 1789 BD160000 		.4byte	0x16bd
 8843 178d 0E       		.uleb128 0xe
 8844 178e CA000000 		.4byte	0xca
 8845 1792 0E       		.uleb128 0xe
 8846 1793 E0000000 		.4byte	0xe0
 8847 1797 00       		.byte	0
 8848 1798 20       		.uleb128 0x20
 8849 1799 63210000 		.4byte	.LASF269
 8850 179d 0B       		.byte	0xb
 8851 179e 36       		.byte	0x36
 8852 179f 12470000 		.4byte	.LASF337
 8853 17a3 673C0000 		.4byte	0x3c67
 8854 17a7 01       		.byte	0x1
 8855 17a8 20       		.uleb128 0x20
 8856 17a9 712B0000 		.4byte	.LASF271
 8857 17ad 0B       		.byte	0xb
 8858 17ae 37       		.byte	0x37
 8859 17af 9C290000 		.4byte	.LASF338
 8860 17b3 B1160000 		.4byte	0x16b1
 8861 17b7 01       		.byte	0x1
 8862 17b8 22       		.uleb128 0x22
 8863 17b9 62090000 		.4byte	.LASF273
 8864 17bd 0B       		.byte	0xb
 8865 17be 38       		.byte	0x38
 8866 17bf F02A0000 		.4byte	.LASF339
 8867 17c3 01       		.byte	0x1
 8868 17c4 CE170000 		.4byte	0x17ce
 8869 17c8 0E       		.uleb128 0xe
 8870 17c9 B1160000 		.4byte	0x16b1
 8871 17cd 00       		.byte	0
 8872 17ce 15       		.uleb128 0x15
 8873 17cf 700A0000 		.4byte	.LASF275
 8874 17d3 0B       		.byte	0xb
 8875 17d4 39       		.byte	0x39
 8876 17d5 20120000 		.4byte	.LASF340
 8877 17d9 01       		.byte	0x1
 8878 17da 22       		.uleb128 0x22
 8879 17db 841B0000 		.4byte	.LASF277
 8880 17df 0B       		.byte	0xb
 8881 17e0 3A       		.byte	0x3a
 8882 17e1 EA170000 		.4byte	.LASF341
 8883 17e5 01       		.byte	0x1
 8884 17e6 F0170000 		.4byte	0x17f0
 8885 17ea 0E       		.uleb128 0xe
 8886 17eb 2A3C0000 		.4byte	0x3c2a
 8887 17ef 00       		.byte	0
 8888 17f0 24       		.uleb128 0x24
 8889 17f1 3F240000 		.4byte	.LASF279
ARM GAS  /tmp/cc5OZvFd.s 			page 157


 8890 17f5 0B       		.byte	0xb
 8891 17f6 3B       		.byte	0x3b
 8892 17f7 CB070000 		.4byte	.LASF342
 8893 17fb E7360000 		.4byte	0x36e7
 8894 17ff 01       		.byte	0x1
 8895 1800 0E       		.uleb128 0xe
 8896 1801 673C0000 		.4byte	0x3c67
 8897 1805 00       		.byte	0
 8898 1806 00       		.byte	0
 8899 1807 08       		.uleb128 0x8
 8900 1808 4F160000 		.4byte	0x164f
 8901 180c 0F       		.uleb128 0xf
 8902 180d E0340000 		.4byte	.LASF343
 8903 1811 20       		.byte	0x20
 8904 1812 0C       		.byte	0xc
 8905 1813 16       		.byte	0x16
 8906 1814 A61F0000 		.4byte	0x1fa6
 8907 1818 2C       		.uleb128 0x2c
 8908 1819 04       		.byte	0x4
 8909 181a 0C       		.byte	0xc
 8910 181b 18       		.byte	0x18
 8911 181c 2B180000 		.4byte	0x182b
 8912 1820 17       		.uleb128 0x17
 8913 1821 96120000 		.4byte	.LASF344
 8914 1825 E9B4B1E9 		.sleb128 489445993
 8914      01
 8915 182a 00       		.byte	0
 8916 182b 2B       		.uleb128 0x2b
 8917 182c A2300000 		.4byte	.LASF345
 8918 1830 44       		.byte	0x44
 8919 1831 0C       		.byte	0xc
 8920 1832 1E       		.byte	0x1e
 8921 1833 01       		.byte	0x1
 8922 1834 2A1A0000 		.4byte	0x1a2a
 8923 1838 3B       		.uleb128 0x3b
 8924 1839 99330000 		.4byte	.LASF758
 8925 183d 04       		.byte	0x4
 8926 183e 0C       		.byte	0xc
 8927 183f 1F       		.byte	0x1f
 8928 1840 6D180000 		.4byte	0x186d
 8929 1844 2E       		.uleb128 0x2e
 8930 1845 04       		.byte	0x4
 8931 1846 0C       		.byte	0xc
 8932 1847 21       		.byte	0x21
 8933 1848 5C180000 		.4byte	0x185c
 8934 184c 3C       		.uleb128 0x3c
 8935 184d 8D1F0000 		.4byte	.LASF674
 8936 1851 0C       		.byte	0xc
 8937 1852 22       		.byte	0x22
 8938 1853 42000000 		.4byte	0x42
 8939 1857 04       		.byte	0x4
 8940 1858 01       		.byte	0x1
 8941 1859 1F       		.byte	0x1f
 8942 185a 00       		.byte	0
 8943 185b 00       		.byte	0
 8944 185c 32       		.uleb128 0x32
 8945 185d 72617700 		.ascii	"raw\000"
ARM GAS  /tmp/cc5OZvFd.s 			page 158


 8946 1861 0C       		.byte	0xc
 8947 1862 20       		.byte	0x20
 8948 1863 9A360000 		.4byte	0x369a
 8949 1867 3D       		.uleb128 0x3d
 8950 1868 44180000 		.4byte	0x1844
 8951 186c 00       		.byte	0
 8952 186d 19       		.uleb128 0x19
 8953 186e 24420000 		.4byte	.LASF346
 8954 1872 0C       		.byte	0xc
 8955 1873 28       		.byte	0x28
 8956 1874 B0360000 		.4byte	0x36b0
 8957 1878 00       		.byte	0
 8958 1879 19       		.uleb128 0x19
 8959 187a 21100000 		.4byte	.LASF204
 8960 187e 0C       		.byte	0xc
 8961 187f 29       		.byte	0x29
 8962 1880 37000000 		.4byte	0x37
 8963 1884 04       		.byte	0x4
 8964 1885 19       		.uleb128 0x19
 8965 1886 4C220000 		.4byte	.LASF205
 8966 188a 0C       		.byte	0xc
 8967 188b 2A       		.byte	0x2a
 8968 188c 37000000 		.4byte	0x37
 8969 1890 08       		.byte	0x8
 8970 1891 19       		.uleb128 0x19
 8971 1892 FF2E0000 		.4byte	.LASF206
 8972 1896 0C       		.byte	0xc
 8973 1897 2B       		.byte	0x2b
 8974 1898 37000000 		.4byte	0x37
 8975 189c 0C       		.byte	0xc
 8976 189d 19       		.uleb128 0x19
 8977 189e 2C2B0000 		.4byte	.LASF347
 8978 18a2 0C       		.byte	0xc
 8979 18a3 2C       		.byte	0x2c
 8980 18a4 863B0000 		.4byte	0x3b86
 8981 18a8 10       		.byte	0x10
 8982 18a9 19       		.uleb128 0x19
 8983 18aa C3340000 		.4byte	.LASF348
 8984 18ae 0C       		.byte	0xc
 8985 18af 2D       		.byte	0x2d
 8986 18b0 863B0000 		.4byte	0x3b86
 8987 18b4 14       		.byte	0x14
 8988 18b5 19       		.uleb128 0x19
 8989 18b6 9F050000 		.4byte	.LASF349
 8990 18ba 0C       		.byte	0xc
 8991 18bb 2E       		.byte	0x2e
 8992 18bc 863B0000 		.4byte	0x3b86
 8993 18c0 18       		.byte	0x18
 8994 18c1 19       		.uleb128 0x19
 8995 18c2 D93F0000 		.4byte	.LASF220
 8996 18c6 0C       		.byte	0xc
 8997 18c7 2F       		.byte	0x2f
 8998 18c8 37000000 		.4byte	0x37
 8999 18cc 1C       		.byte	0x1c
 9000 18cd 19       		.uleb128 0x19
 9001 18ce BA340000 		.4byte	.LASF207
 9002 18d2 0C       		.byte	0xc
ARM GAS  /tmp/cc5OZvFd.s 			page 159


 9003 18d3 30       		.byte	0x30
 9004 18d4 37000000 		.4byte	0x37
 9005 18d8 20       		.byte	0x20
 9006 18d9 02       		.uleb128 0x2
 9007 18da 590B0000 		.4byte	.LASF350
 9008 18de 0C       		.byte	0xc
 9009 18df 26       		.byte	0x26
 9010 18e0 CC000000 		.4byte	0xcc
 9011 18e4 19       		.uleb128 0x19
 9012 18e5 A2250000 		.4byte	.LASF351
 9013 18e9 0C       		.byte	0xc
 9014 18ea 31       		.byte	0x31
 9015 18eb D9180000 		.4byte	0x18d9
 9016 18ef 24       		.byte	0x24
 9017 18f0 19       		.uleb128 0x19
 9018 18f1 53480000 		.4byte	.LASF352
 9019 18f5 0C       		.byte	0xc
 9020 18f6 32       		.byte	0x32
 9021 18f7 863B0000 		.4byte	0x3b86
 9022 18fb 28       		.byte	0x28
 9023 18fc 19       		.uleb128 0x19
 9024 18fd 60250000 		.4byte	.LASF222
 9025 1901 0C       		.byte	0xc
 9026 1902 33       		.byte	0x33
 9027 1903 37000000 		.4byte	0x37
 9028 1907 2C       		.byte	0x2c
 9029 1908 19       		.uleb128 0x19
 9030 1909 3A0F0000 		.4byte	.LASF353
 9031 190d 0C       		.byte	0xc
 9032 190e 34       		.byte	0x34
 9033 190f 863B0000 		.4byte	0x3b86
 9034 1913 30       		.byte	0x30
 9035 1914 19       		.uleb128 0x19
 9036 1915 BD220000 		.4byte	.LASF224
 9037 1919 0C       		.byte	0xc
 9038 191a 35       		.byte	0x35
 9039 191b 37000000 		.4byte	0x37
 9040 191f 34       		.byte	0x34
 9041 1920 19       		.uleb128 0x19
 9042 1921 963C0000 		.4byte	.LASF208
 9043 1925 0C       		.byte	0xc
 9044 1926 37       		.byte	0x37
 9045 1927 6D3C0000 		.4byte	0x3c6d
 9046 192b 38       		.byte	0x38
 9047 192c 19       		.uleb128 0x19
 9048 192d 11190000 		.4byte	.LASF209
 9049 1931 0C       		.byte	0xc
 9050 1932 38       		.byte	0x38
 9051 1933 38180000 		.4byte	0x1838
 9052 1937 40       		.byte	0x40
 9053 1938 3E       		.uleb128 0x3e
 9054 1939 21430000 		.4byte	.LASF354
 9055 193d 0C       		.byte	0xc
 9056 193e 3B       		.byte	0x3b
 9057 193f 75100000 		.4byte	.LASF355
 9058 1943 863B0000 		.4byte	0x3b86
 9059 1947 51190000 		.4byte	0x1951
ARM GAS  /tmp/cc5OZvFd.s 			page 160


 9060 194b 0E       		.uleb128 0xe
 9061 194c 723C0000 		.4byte	0x3c72
 9062 1950 00       		.byte	0
 9063 1951 3E       		.uleb128 0x3e
 9064 1952 C23D0000 		.4byte	.LASF356
 9065 1956 0C       		.byte	0xc
 9066 1957 40       		.byte	0x40
 9067 1958 FC480000 		.4byte	.LASF357
 9068 195c 863B0000 		.4byte	0x3b86
 9069 1960 74190000 		.4byte	0x1974
 9070 1964 0E       		.uleb128 0xe
 9071 1965 723C0000 		.4byte	0x3c72
 9072 1969 0E       		.uleb128 0xe
 9073 196a 37000000 		.4byte	0x37
 9074 196e 0E       		.uleb128 0xe
 9075 196f 37000000 		.4byte	0x37
 9076 1973 00       		.byte	0
 9077 1974 3E       		.uleb128 0x3e
 9078 1975 7D2A0000 		.4byte	.LASF358
 9079 1979 0C       		.byte	0xc
 9080 197a 4B       		.byte	0x4b
 9081 197b 8C390000 		.4byte	.LASF359
 9082 197f 723C0000 		.4byte	0x3c72
 9083 1983 97190000 		.4byte	0x1997
 9084 1987 0E       		.uleb128 0xe
 9085 1988 723C0000 		.4byte	0x3c72
 9086 198c 0E       		.uleb128 0xe
 9087 198d 37000000 		.4byte	0x37
 9088 1991 0E       		.uleb128 0xe
 9089 1992 37000000 		.4byte	0x37
 9090 1996 00       		.byte	0
 9091 1997 3F       		.uleb128 0x3f
 9092 1998 7B140000 		.4byte	.LASF360
 9093 199c 0C       		.byte	0xc
 9094 199d 55       		.byte	0x55
 9095 199e 51470000 		.4byte	.LASF361
 9096 19a2 863B0000 		.4byte	0x3b86
 9097 19a6 AE190000 		.4byte	0x19ae
 9098 19aa B4190000 		.4byte	0x19b4
 9099 19ae 11       		.uleb128 0x11
 9100 19af 723C0000 		.4byte	0x3c72
 9101 19b3 00       		.byte	0
 9102 19b4 3F       		.uleb128 0x3f
 9103 19b5 DE0F0000 		.4byte	.LASF362
 9104 19b9 0C       		.byte	0xc
 9105 19ba 59       		.byte	0x59
 9106 19bb D1420000 		.4byte	.LASF363
 9107 19bf 863B0000 		.4byte	0x3b86
 9108 19c3 CB190000 		.4byte	0x19cb
 9109 19c7 D1190000 		.4byte	0x19d1
 9110 19cb 11       		.uleb128 0x11
 9111 19cc 723C0000 		.4byte	0x3c72
 9112 19d0 00       		.byte	0
 9113 19d1 3F       		.uleb128 0x3f
 9114 19d2 4D130000 		.4byte	.LASF364
 9115 19d6 0C       		.byte	0xc
 9116 19d7 5D       		.byte	0x5d
ARM GAS  /tmp/cc5OZvFd.s 			page 161


 9117 19d8 D2400000 		.4byte	.LASF365
 9118 19dc 723C0000 		.4byte	0x3c72
 9119 19e0 E8190000 		.4byte	0x19e8
 9120 19e4 EE190000 		.4byte	0x19ee
 9121 19e8 11       		.uleb128 0x11
 9122 19e9 723C0000 		.4byte	0x3c72
 9123 19ed 00       		.byte	0
 9124 19ee 3F       		.uleb128 0x3f
 9125 19ef 1A270000 		.4byte	.LASF366
 9126 19f3 0C       		.byte	0xc
 9127 19f4 61       		.byte	0x61
 9128 19f5 E4080000 		.4byte	.LASF367
 9129 19f9 E7360000 		.4byte	0x36e7
 9130 19fd 051A0000 		.4byte	0x1a05
 9131 1a01 0B1A0000 		.4byte	0x1a0b
 9132 1a05 11       		.uleb128 0x11
 9133 1a06 723C0000 		.4byte	0x3c72
 9134 1a0a 00       		.byte	0
 9135 1a0b 28       		.uleb128 0x28
 9136 1a0c AE4A0000 		.4byte	.LASF368
 9137 1a10 0C       		.byte	0xc
 9138 1a11 66       		.byte	0x66
 9139 1a12 CB030000 		.4byte	.LASF369
 9140 1a16 E7360000 		.4byte	0x36e7
 9141 1a1a 1E1A0000 		.4byte	0x1a1e
 9142 1a1e 11       		.uleb128 0x11
 9143 1a1f 723C0000 		.4byte	0x3c72
 9144 1a23 0E       		.uleb128 0xe
 9145 1a24 E0000000 		.4byte	0xe0
 9146 1a28 00       		.byte	0
 9147 1a29 00       		.byte	0
 9148 1a2a 08       		.uleb128 0x8
 9149 1a2b 2B180000 		.4byte	0x182b
 9150 1a2f 40       		.uleb128 0x40
 9151 1a30 C0490000 		.4byte	.LASF371
 9152 1a34 04       		.byte	0x4
 9153 1a35 0C       		.byte	0xc
 9154 1a36 B0       		.byte	0xb0
 9155 1a37 01       		.byte	0x1
 9156 1a38 A31B0000 		.4byte	0x1ba3
 9157 1a3c 19       		.uleb128 0x19
 9158 1a3d 79220000 		.4byte	.LASF370
 9159 1a41 0C       		.byte	0xc
 9160 1a42 B4       		.byte	0xb4
 9161 1a43 723C0000 		.4byte	0x3c72
 9162 1a47 00       		.byte	0
 9163 1a48 12       		.uleb128 0x12
 9164 1a49 C0490000 		.4byte	.LASF371
 9165 1a4d 0C       		.byte	0xc
 9166 1a4e B7       		.byte	0xb7
 9167 1a4f 783C0000 		.4byte	0x3c78
 9168 1a53 01       		.byte	0x1
 9169 1a54 5C1A0000 		.4byte	0x1a5c
 9170 1a58 671A0000 		.4byte	0x1a67
 9171 1a5c 11       		.uleb128 0x11
 9172 1a5d 783C0000 		.4byte	0x3c78
 9173 1a61 0E       		.uleb128 0xe
ARM GAS  /tmp/cc5OZvFd.s 			page 162


 9174 1a62 7E3C0000 		.4byte	0x3c7e
 9175 1a66 00       		.byte	0
 9176 1a67 10       		.uleb128 0x10
 9177 1a68 C0490000 		.4byte	.LASF371
 9178 1a6c 0C       		.byte	0xc
 9179 1a6d BA       		.byte	0xba
 9180 1a6e 783C0000 		.4byte	0x3c78
 9181 1a72 7A1A0000 		.4byte	0x1a7a
 9182 1a76 851A0000 		.4byte	0x1a85
 9183 1a7a 11       		.uleb128 0x11
 9184 1a7b 783C0000 		.4byte	0x3c78
 9185 1a7f 0E       		.uleb128 0xe
 9186 1a80 723C0000 		.4byte	0x3c72
 9187 1a84 00       		.byte	0
 9188 1a85 3F       		.uleb128 0x3f
 9189 1a86 D0110000 		.4byte	.LASF320
 9190 1a8a 0C       		.byte	0xc
 9191 1a8b BD       		.byte	0xbd
 9192 1a8c D3060000 		.4byte	.LASF372
 9193 1a90 843C0000 		.4byte	0x3c84
 9194 1a94 9C1A0000 		.4byte	0x1a9c
 9195 1a98 A71A0000 		.4byte	0x1aa7
 9196 1a9c 11       		.uleb128 0x11
 9197 1a9d 783C0000 		.4byte	0x3c78
 9198 1aa1 0E       		.uleb128 0xe
 9199 1aa2 7E3C0000 		.4byte	0x3c7e
 9200 1aa6 00       		.byte	0
 9201 1aa7 1D       		.uleb128 0x1d
 9202 1aa8 C6420000 		.4byte	.LASF373
 9203 1aac 0C       		.byte	0xc
 9204 1aad C3       		.byte	0xc3
 9205 1aae E4070000 		.4byte	.LASF374
 9206 1ab2 723C0000 		.4byte	0x3c72
 9207 1ab6 01       		.byte	0x1
 9208 1ab7 BF1A0000 		.4byte	0x1abf
 9209 1abb C51A0000 		.4byte	0x1ac5
 9210 1abf 11       		.uleb128 0x11
 9211 1ac0 8A3C0000 		.4byte	0x3c8a
 9212 1ac4 00       		.byte	0
 9213 1ac5 1D       		.uleb128 0x1d
 9214 1ac6 6C110000 		.4byte	.LASF375
 9215 1aca 0C       		.byte	0xc
 9216 1acb C7       		.byte	0xc7
 9217 1acc 24010000 		.4byte	.LASF376
 9218 1ad0 903C0000 		.4byte	0x3c90
 9219 1ad4 01       		.byte	0x1
 9220 1ad5 DD1A0000 		.4byte	0x1add
 9221 1ad9 E31A0000 		.4byte	0x1ae3
 9222 1add 11       		.uleb128 0x11
 9223 1ade 8A3C0000 		.4byte	0x3c8a
 9224 1ae2 00       		.byte	0
 9225 1ae3 1D       		.uleb128 0x1d
 9226 1ae4 87020000 		.4byte	.LASF377
 9227 1ae8 0C       		.byte	0xc
 9228 1ae9 CB       		.byte	0xcb
 9229 1aea 12160000 		.4byte	.LASF378
 9230 1aee 723C0000 		.4byte	0x3c72
ARM GAS  /tmp/cc5OZvFd.s 			page 163


 9231 1af2 01       		.byte	0x1
 9232 1af3 FB1A0000 		.4byte	0x1afb
 9233 1af7 011B0000 		.4byte	0x1b01
 9234 1afb 11       		.uleb128 0x11
 9235 1afc 8A3C0000 		.4byte	0x3c8a
 9236 1b00 00       		.byte	0
 9237 1b01 1D       		.uleb128 0x1d
 9238 1b02 53020000 		.4byte	.LASF379
 9239 1b06 0C       		.byte	0xc
 9240 1b07 CF       		.byte	0xcf
 9241 1b08 CD3A0000 		.4byte	.LASF380
 9242 1b0c 903C0000 		.4byte	0x3c90
 9243 1b10 01       		.byte	0x1
 9244 1b11 191B0000 		.4byte	0x1b19
 9245 1b15 1F1B0000 		.4byte	0x1b1f
 9246 1b19 11       		.uleb128 0x11
 9247 1b1a 8A3C0000 		.4byte	0x3c8a
 9248 1b1e 00       		.byte	0
 9249 1b1f 1D       		.uleb128 0x1d
 9250 1b20 CF3E0000 		.4byte	.LASF381
 9251 1b24 0C       		.byte	0xc
 9252 1b25 D3       		.byte	0xd3
 9253 1b26 4B2A0000 		.4byte	.LASF382
 9254 1b2a 843C0000 		.4byte	0x3c84
 9255 1b2e 01       		.byte	0x1
 9256 1b2f 371B0000 		.4byte	0x1b37
 9257 1b33 3D1B0000 		.4byte	0x1b3d
 9258 1b37 11       		.uleb128 0x11
 9259 1b38 783C0000 		.4byte	0x3c78
 9260 1b3c 00       		.byte	0
 9261 1b3d 1D       		.uleb128 0x1d
 9262 1b3e CF3E0000 		.4byte	.LASF381
 9263 1b42 0C       		.byte	0xc
 9264 1b43 D8       		.byte	0xd8
 9265 1b44 66390000 		.4byte	.LASF383
 9266 1b48 A31B0000 		.4byte	0x1ba3
 9267 1b4c 01       		.byte	0x1
 9268 1b4d 551B0000 		.4byte	0x1b55
 9269 1b51 601B0000 		.4byte	0x1b60
 9270 1b55 11       		.uleb128 0x11
 9271 1b56 783C0000 		.4byte	0x3c78
 9272 1b5a 0E       		.uleb128 0xe
 9273 1b5b 30000000 		.4byte	0x30
 9274 1b5f 00       		.byte	0
 9275 1b60 1D       		.uleb128 0x1d
 9276 1b61 DA210000 		.4byte	.LASF384
 9277 1b65 0C       		.byte	0xc
 9278 1b66 DE       		.byte	0xde
 9279 1b67 21450000 		.4byte	.LASF385
 9280 1b6b E7360000 		.4byte	0x36e7
 9281 1b6f 01       		.byte	0x1
 9282 1b70 781B0000 		.4byte	0x1b78
 9283 1b74 831B0000 		.4byte	0x1b83
 9284 1b78 11       		.uleb128 0x11
 9285 1b79 8A3C0000 		.4byte	0x3c8a
 9286 1b7d 0E       		.uleb128 0xe
 9287 1b7e 7E3C0000 		.4byte	0x3c7e
ARM GAS  /tmp/cc5OZvFd.s 			page 164


 9288 1b82 00       		.byte	0
 9289 1b83 41       		.uleb128 0x41
 9290 1b84 49260000 		.4byte	.LASF386
 9291 1b88 0C       		.byte	0xc
 9292 1b89 E2       		.byte	0xe2
 9293 1b8a 9B1B0000 		.4byte	.LASF387
 9294 1b8e E7360000 		.4byte	0x36e7
 9295 1b92 01       		.byte	0x1
 9296 1b93 971B0000 		.4byte	0x1b97
 9297 1b97 11       		.uleb128 0x11
 9298 1b98 8A3C0000 		.4byte	0x3c8a
 9299 1b9c 0E       		.uleb128 0xe
 9300 1b9d 7E3C0000 		.4byte	0x3c7e
 9301 1ba1 00       		.byte	0
 9302 1ba2 00       		.byte	0
 9303 1ba3 08       		.uleb128 0x8
 9304 1ba4 2F1A0000 		.4byte	0x1a2f
 9305 1ba8 14       		.uleb128 0x14
 9306 1ba9 A6010000 		.4byte	0x1a6
 9307 1bad 00       		.byte	0
 9308 1bae 19       		.uleb128 0x19
 9309 1baf 8B470000 		.4byte	.LASF388
 9310 1bb3 0C       		.byte	0xc
 9311 1bb4 6C       		.byte	0x6c
 9312 1bb5 863B0000 		.4byte	0x3b86
 9313 1bb9 00       		.byte	0
 9314 1bba 19       		.uleb128 0x19
 9315 1bbb 79340000 		.4byte	.LASF389
 9316 1bbf 0C       		.byte	0xc
 9317 1bc0 6D       		.byte	0x6d
 9318 1bc1 13060000 		.4byte	0x613
 9319 1bc5 04       		.byte	0x4
 9320 1bc6 19       		.uleb128 0x19
 9321 1bc7 CD240000 		.4byte	.LASF390
 9322 1bcb 0C       		.byte	0xc
 9323 1bcc 6F       		.byte	0x6f
 9324 1bcd 963C0000 		.4byte	0x3c96
 9325 1bd1 10       		.byte	0x10
 9326 1bd2 19       		.uleb128 0x19
 9327 1bd3 0F1A0000 		.4byte	.LASF391
 9328 1bd7 0C       		.byte	0xc
 9329 1bd8 70       		.byte	0x70
 9330 1bd9 9C3C0000 		.4byte	0x3c9c
 9331 1bdd 14       		.byte	0x14
 9332 1bde 19       		.uleb128 0x19
 9333 1bdf AC410000 		.4byte	.LASF392
 9334 1be3 0C       		.byte	0xc
 9335 1be4 71       		.byte	0x71
 9336 1be5 A23C0000 		.4byte	0x3ca2
 9337 1be9 18       		.byte	0x18
 9338 1bea 19       		.uleb128 0x19
 9339 1beb 95090000 		.4byte	.LASF393
 9340 1bef 0C       		.byte	0xc
 9341 1bf0 72       		.byte	0x72
 9342 1bf1 A23C0000 		.4byte	0x3ca2
 9343 1bf5 1C       		.byte	0x1c
 9344 1bf6 42       		.uleb128 0x42
ARM GAS  /tmp/cc5OZvFd.s 			page 165


 9345 1bf7 C90F0000 		.4byte	.LASF394
 9346 1bfb 0C       		.byte	0xc
 9347 1bfc 75       		.byte	0x75
 9348 1bfd A83C0000 		.4byte	0x3ca8
 9349 1c01 1B       		.uleb128 0x1b
 9350 1c02 68360000 		.4byte	.LASF395
 9351 1c06 0C       		.byte	0xc
 9352 1c07 79       		.byte	0x79
 9353 1c08 EB340000 		.4byte	.LASF396
 9354 1c0c 01       		.byte	0x1
 9355 1c0d 151C0000 		.4byte	0x1c15
 9356 1c11 1B1C0000 		.4byte	0x1c1b
 9357 1c15 11       		.uleb128 0x11
 9358 1c16 AD3C0000 		.4byte	0x3cad
 9359 1c1a 00       		.byte	0
 9360 1c1b 43       		.uleb128 0x43
 9361 1c1c 96290000 		.4byte	.LASF291
 9362 1c20 0C       		.byte	0xc
 9363 1c21 7C       		.byte	0x7c
 9364 1c22 B40A0000 		.4byte	.LASF397
 9365 1c26 2E1C0000 		.4byte	0x1c2e
 9366 1c2a 341C0000 		.4byte	0x1c34
 9367 1c2e 11       		.uleb128 0x11
 9368 1c2f AD3C0000 		.4byte	0x3cad
 9369 1c33 00       		.byte	0
 9370 1c34 43       		.uleb128 0x43
 9371 1c35 96290000 		.4byte	.LASF291
 9372 1c39 0C       		.byte	0xc
 9373 1c3a 7D       		.byte	0x7d
 9374 1c3b FB3D0000 		.4byte	.LASF398
 9375 1c3f 471C0000 		.4byte	0x1c47
 9376 1c43 521C0000 		.4byte	0x1c52
 9377 1c47 11       		.uleb128 0x11
 9378 1c48 AD3C0000 		.4byte	0x3cad
 9379 1c4c 0E       		.uleb128 0xe
 9380 1c4d 3A0C0000 		.4byte	0xc3a
 9381 1c51 00       		.byte	0
 9382 1c52 43       		.uleb128 0x43
 9383 1c53 344C0000 		.4byte	.LASF399
 9384 1c57 0C       		.byte	0xc
 9385 1c58 7E       		.byte	0x7e
 9386 1c59 A2310000 		.4byte	.LASF400
 9387 1c5d 651C0000 		.4byte	0x1c65
 9388 1c61 6B1C0000 		.4byte	0x1c6b
 9389 1c65 11       		.uleb128 0x11
 9390 1c66 AD3C0000 		.4byte	0x3cad
 9391 1c6a 00       		.byte	0
 9392 1c6b 43       		.uleb128 0x43
 9393 1c6c D1230000 		.4byte	.LASF401
 9394 1c70 0C       		.byte	0xc
 9395 1c71 7F       		.byte	0x7f
 9396 1c72 980A0000 		.4byte	.LASF402
 9397 1c76 7E1C0000 		.4byte	0x1c7e
 9398 1c7a 841C0000 		.4byte	0x1c84
 9399 1c7e 11       		.uleb128 0x11
 9400 1c7f AD3C0000 		.4byte	0x3cad
 9401 1c83 00       		.byte	0
ARM GAS  /tmp/cc5OZvFd.s 			page 166


 9402 1c84 3F       		.uleb128 0x3f
 9403 1c85 D1230000 		.4byte	.LASF401
 9404 1c89 0C       		.byte	0xc
 9405 1c8a 80       		.byte	0x80
 9406 1c8b 811D0000 		.4byte	.LASF403
 9407 1c8f E7360000 		.4byte	0x36e7
 9408 1c93 9B1C0000 		.4byte	0x1c9b
 9409 1c97 A61C0000 		.4byte	0x1ca6
 9410 1c9b 11       		.uleb128 0x11
 9411 1c9c AD3C0000 		.4byte	0x3cad
 9412 1ca0 0E       		.uleb128 0xe
 9413 1ca1 3A0C0000 		.4byte	0xc3a
 9414 1ca5 00       		.byte	0
 9415 1ca6 43       		.uleb128 0x43
 9416 1ca7 BD450000 		.4byte	.LASF27
 9417 1cab 0C       		.byte	0xc
 9418 1cac 81       		.byte	0x81
 9419 1cad 093A0000 		.4byte	.LASF404
 9420 1cb1 B91C0000 		.4byte	0x1cb9
 9421 1cb5 BF1C0000 		.4byte	0x1cbf
 9422 1cb9 11       		.uleb128 0x11
 9423 1cba AD3C0000 		.4byte	0x3cad
 9424 1cbe 00       		.byte	0
 9425 1cbf 43       		.uleb128 0x43
 9426 1cc0 CF090000 		.4byte	.LASF405
 9427 1cc4 0C       		.byte	0xc
 9428 1cc5 83       		.byte	0x83
 9429 1cc6 E7250000 		.4byte	.LASF406
 9430 1cca D21C0000 		.4byte	0x1cd2
 9431 1cce D81C0000 		.4byte	0x1cd8
 9432 1cd2 11       		.uleb128 0x11
 9433 1cd3 AD3C0000 		.4byte	0x3cad
 9434 1cd7 00       		.byte	0
 9435 1cd8 43       		.uleb128 0x43
 9436 1cd9 97110000 		.4byte	.LASF407
 9437 1cdd 0C       		.byte	0xc
 9438 1cde 84       		.byte	0x84
 9439 1cdf 583C0000 		.4byte	.LASF408
 9440 1ce3 EB1C0000 		.4byte	0x1ceb
 9441 1ce7 F11C0000 		.4byte	0x1cf1
 9442 1ceb 11       		.uleb128 0x11
 9443 1cec AD3C0000 		.4byte	0x3cad
 9444 1cf0 00       		.byte	0
 9445 1cf1 43       		.uleb128 0x43
 9446 1cf2 31320000 		.4byte	.LASF409
 9447 1cf6 0C       		.byte	0xc
 9448 1cf7 85       		.byte	0x85
 9449 1cf8 14060000 		.4byte	.LASF410
 9450 1cfc 041D0000 		.4byte	0x1d04
 9451 1d00 0A1D0000 		.4byte	0x1d0a
 9452 1d04 11       		.uleb128 0x11
 9453 1d05 AD3C0000 		.4byte	0x3cad
 9454 1d09 00       		.byte	0
 9455 1d0a 43       		.uleb128 0x43
 9456 1d0b 832F0000 		.4byte	.LASF411
 9457 1d0f 0C       		.byte	0xc
 9458 1d10 86       		.byte	0x86
ARM GAS  /tmp/cc5OZvFd.s 			page 167


 9459 1d11 9E1F0000 		.4byte	.LASF412
 9460 1d15 1D1D0000 		.4byte	0x1d1d
 9461 1d19 231D0000 		.4byte	0x1d23
 9462 1d1d 11       		.uleb128 0x11
 9463 1d1e AD3C0000 		.4byte	0x3cad
 9464 1d22 00       		.byte	0
 9465 1d23 43       		.uleb128 0x43
 9466 1d24 8E450000 		.4byte	.LASF413
 9467 1d28 0C       		.byte	0xc
 9468 1d29 87       		.byte	0x87
 9469 1d2a 9D190000 		.4byte	.LASF414
 9470 1d2e 361D0000 		.4byte	0x1d36
 9471 1d32 3C1D0000 		.4byte	0x1d3c
 9472 1d36 11       		.uleb128 0x11
 9473 1d37 AD3C0000 		.4byte	0x3cad
 9474 1d3b 00       		.byte	0
 9475 1d3c 43       		.uleb128 0x43
 9476 1d3d D9260000 		.4byte	.LASF415
 9477 1d41 0C       		.byte	0xc
 9478 1d42 88       		.byte	0x88
 9479 1d43 020E0000 		.4byte	.LASF416
 9480 1d47 4F1D0000 		.4byte	0x1d4f
 9481 1d4b 5F1D0000 		.4byte	0x1d5f
 9482 1d4f 11       		.uleb128 0x11
 9483 1d50 AD3C0000 		.4byte	0x3cad
 9484 1d54 0E       		.uleb128 0xe
 9485 1d55 B0360000 		.4byte	0x36b0
 9486 1d59 0E       		.uleb128 0xe
 9487 1d5a E0000000 		.4byte	0xe0
 9488 1d5e 00       		.byte	0
 9489 1d5f 43       		.uleb128 0x43
 9490 1d60 7C360000 		.4byte	.LASF417
 9491 1d64 0C       		.byte	0xc
 9492 1d65 89       		.byte	0x89
 9493 1d66 F0230000 		.4byte	.LASF418
 9494 1d6a 721D0000 		.4byte	0x1d72
 9495 1d6e 821D0000 		.4byte	0x1d82
 9496 1d72 11       		.uleb128 0x11
 9497 1d73 AD3C0000 		.4byte	0x3cad
 9498 1d77 0E       		.uleb128 0xe
 9499 1d78 B0360000 		.4byte	0x36b0
 9500 1d7c 0E       		.uleb128 0xe
 9501 1d7d E0000000 		.4byte	0xe0
 9502 1d81 00       		.byte	0
 9503 1d82 43       		.uleb128 0x43
 9504 1d83 9B3C0000 		.4byte	.LASF419
 9505 1d87 0C       		.byte	0xc
 9506 1d88 8B       		.byte	0x8b
 9507 1d89 B8180000 		.4byte	.LASF420
 9508 1d8d 951D0000 		.4byte	0x1d95
 9509 1d91 9B1D0000 		.4byte	0x1d9b
 9510 1d95 11       		.uleb128 0x11
 9511 1d96 AD3C0000 		.4byte	0x3cad
 9512 1d9a 00       		.byte	0
 9513 1d9b 43       		.uleb128 0x43
 9514 1d9c 0C420000 		.4byte	.LASF421
 9515 1da0 0C       		.byte	0xc
ARM GAS  /tmp/cc5OZvFd.s 			page 168


 9516 1da1 8C       		.byte	0x8c
 9517 1da2 2A400000 		.4byte	.LASF422
 9518 1da6 AE1D0000 		.4byte	0x1dae
 9519 1daa B41D0000 		.4byte	0x1db4
 9520 1dae 11       		.uleb128 0x11
 9521 1daf AD3C0000 		.4byte	0x3cad
 9522 1db3 00       		.byte	0
 9523 1db4 3F       		.uleb128 0x3f
 9524 1db5 B5040000 		.4byte	.LASF66
 9525 1db9 0C       		.byte	0xc
 9526 1dba 8D       		.byte	0x8d
 9527 1dbb 22220000 		.4byte	.LASF423
 9528 1dbf E7360000 		.4byte	0x36e7
 9529 1dc3 CB1D0000 		.4byte	0x1dcb
 9530 1dc7 E01D0000 		.4byte	0x1de0
 9531 1dcb 11       		.uleb128 0x11
 9532 1dcc AD3C0000 		.4byte	0x3cad
 9533 1dd0 0E       		.uleb128 0xe
 9534 1dd1 AF3B0000 		.4byte	0x3baf
 9535 1dd5 0E       		.uleb128 0xe
 9536 1dd6 AF3B0000 		.4byte	0x3baf
 9537 1dda 0E       		.uleb128 0xe
 9538 1ddb 37000000 		.4byte	0x37
 9539 1ddf 00       		.byte	0
 9540 1de0 3F       		.uleb128 0x3f
 9541 1de1 312B0000 		.4byte	.LASF424
 9542 1de5 0C       		.byte	0xc
 9543 1de6 8E       		.byte	0x8e
 9544 1de7 BB040000 		.4byte	.LASF425
 9545 1deb E7360000 		.4byte	0x36e7
 9546 1def F71D0000 		.4byte	0x1df7
 9547 1df3 111E0000 		.4byte	0x1e11
 9548 1df7 11       		.uleb128 0x11
 9549 1df8 AD3C0000 		.4byte	0x3cad
 9550 1dfc 0E       		.uleb128 0xe
 9551 1dfd 723C0000 		.4byte	0x3c72
 9552 1e01 0E       		.uleb128 0xe
 9553 1e02 B33C0000 		.4byte	0x3cb3
 9554 1e06 0E       		.uleb128 0xe
 9555 1e07 B93C0000 		.4byte	0x3cb9
 9556 1e0b 0E       		.uleb128 0xe
 9557 1e0c BF3C0000 		.4byte	0x3cbf
 9558 1e10 00       		.byte	0
 9559 1e11 3F       		.uleb128 0x3f
 9560 1e12 69380000 		.4byte	.LASF426
 9561 1e16 0C       		.byte	0xc
 9562 1e17 92       		.byte	0x92
 9563 1e18 F4320000 		.4byte	.LASF427
 9564 1e1c E7360000 		.4byte	0x36e7
 9565 1e20 281E0000 		.4byte	0x1e28
 9566 1e24 3D1E0000 		.4byte	0x1e3d
 9567 1e28 11       		.uleb128 0x11
 9568 1e29 AD3C0000 		.4byte	0x3cad
 9569 1e2d 0E       		.uleb128 0xe
 9570 1e2e C53C0000 		.4byte	0x3cc5
 9571 1e32 0E       		.uleb128 0xe
 9572 1e33 B33C0000 		.4byte	0x3cb3
ARM GAS  /tmp/cc5OZvFd.s 			page 169


 9573 1e37 0E       		.uleb128 0xe
 9574 1e38 B93C0000 		.4byte	0x3cb9
 9575 1e3c 00       		.byte	0
 9576 1e3d 3F       		.uleb128 0x3f
 9577 1e3e EF4B0000 		.4byte	.LASF428
 9578 1e42 0C       		.byte	0xc
 9579 1e43 95       		.byte	0x95
 9580 1e44 CC270000 		.4byte	.LASF429
 9581 1e48 E7360000 		.4byte	0x36e7
 9582 1e4c 541E0000 		.4byte	0x1e54
 9583 1e50 5A1E0000 		.4byte	0x1e5a
 9584 1e54 11       		.uleb128 0x11
 9585 1e55 AD3C0000 		.4byte	0x3cad
 9586 1e59 00       		.byte	0
 9587 1e5a 3F       		.uleb128 0x3f
 9588 1e5b 3B4B0000 		.4byte	.LASF430
 9589 1e5f 0C       		.byte	0xc
 9590 1e60 96       		.byte	0x96
 9591 1e61 5A2F0000 		.4byte	.LASF431
 9592 1e65 E7360000 		.4byte	0x36e7
 9593 1e69 711E0000 		.4byte	0x1e71
 9594 1e6d 771E0000 		.4byte	0x1e77
 9595 1e71 11       		.uleb128 0x11
 9596 1e72 AD3C0000 		.4byte	0x3cad
 9597 1e76 00       		.byte	0
 9598 1e77 12       		.uleb128 0x12
 9599 1e78 E0340000 		.4byte	.LASF343
 9600 1e7c 0C       		.byte	0xc
 9601 1e7d 99       		.byte	0x99
 9602 1e7e AD3C0000 		.4byte	0x3cad
 9603 1e82 01       		.byte	0x1
 9604 1e83 8B1E0000 		.4byte	0x1e8b
 9605 1e87 A01E0000 		.4byte	0x1ea0
 9606 1e8b 11       		.uleb128 0x11
 9607 1e8c AD3C0000 		.4byte	0x3cad
 9608 1e90 0E       		.uleb128 0xe
 9609 1e91 C23B0000 		.4byte	0x3bc2
 9610 1e95 0E       		.uleb128 0xe
 9611 1e96 CB3C0000 		.4byte	0x3ccb
 9612 1e9a 0E       		.uleb128 0xe
 9613 1e9b D13C0000 		.4byte	0x3cd1
 9614 1e9f 00       		.byte	0
 9615 1ea0 44       		.uleb128 0x44
 9616 1ea1 93320000 		.4byte	.LASF44
 9617 1ea5 0C       		.byte	0xc
 9618 1ea6 9D       		.byte	0x9d
 9619 1ea7 D0220000 		.4byte	.LASF432
 9620 1eab A31B0000 		.4byte	0x1ba3
 9621 1eaf 45       		.uleb128 0x45
 9622 1eb0 656E6400 		.ascii	"end\000"
 9623 1eb4 0C       		.byte	0xc
 9624 1eb5 9E       		.byte	0x9e
 9625 1eb6 57490000 		.4byte	.LASF831
 9626 1eba A31B0000 		.4byte	0x1ba3
 9627 1ebe 44       		.uleb128 0x44
 9628 1ebf A7200000 		.4byte	.LASF433
 9629 1ec3 0C       		.byte	0xc
ARM GAS  /tmp/cc5OZvFd.s 			page 170


 9630 1ec4 9F       		.byte	0x9f
 9631 1ec5 B83B0000 		.4byte	.LASF434
 9632 1ec9 37000000 		.4byte	0x37
 9633 1ecd 44       		.uleb128 0x44
 9634 1ece EF0C0000 		.4byte	.LASF435
 9635 1ed2 0C       		.byte	0xc
 9636 1ed3 A0       		.byte	0xa0
 9637 1ed4 FB4B0000 		.4byte	.LASF436
 9638 1ed8 863B0000 		.4byte	0x3b86
 9639 1edc 44       		.uleb128 0x44
 9640 1edd 3C4C0000 		.4byte	.LASF437
 9641 1ee1 0C       		.byte	0xc
 9642 1ee2 A1       		.byte	0xa1
 9643 1ee3 A4470000 		.4byte	.LASF438
 9644 1ee7 723C0000 		.4byte	0x3c72
 9645 1eeb 44       		.uleb128 0x44
 9646 1eec 2E420000 		.4byte	.LASF439
 9647 1ef0 0C       		.byte	0xc
 9648 1ef1 A2       		.byte	0xa2
 9649 1ef2 0F1F0000 		.4byte	.LASF440
 9650 1ef6 723C0000 		.4byte	0x3c72
 9651 1efa 3E       		.uleb128 0x3e
 9652 1efb 04340000 		.4byte	.LASF441
 9653 1eff 0C       		.byte	0xc
 9654 1f00 A3       		.byte	0xa3
 9655 1f01 E3440000 		.4byte	.LASF442
 9656 1f05 723C0000 		.4byte	0x3c72
 9657 1f09 131F0000 		.4byte	0x1f13
 9658 1f0d 0E       		.uleb128 0xe
 9659 1f0e E0000000 		.4byte	0xe0
 9660 1f12 00       		.byte	0
 9661 1f13 3E       		.uleb128 0x3e
 9662 1f14 E93D0000 		.4byte	.LASF443
 9663 1f18 0C       		.byte	0xc
 9664 1f19 A4       		.byte	0xa4
 9665 1f1a 0C360000 		.4byte	.LASF444
 9666 1f1e E7360000 		.4byte	0x36e7
 9667 1f22 311F0000 		.4byte	0x1f31
 9668 1f26 0E       		.uleb128 0xe
 9669 1f27 B33C0000 		.4byte	0x3cb3
 9670 1f2b 0E       		.uleb128 0xe
 9671 1f2c D73C0000 		.4byte	0x3cd7
 9672 1f30 00       		.byte	0
 9673 1f31 3E       		.uleb128 0x3e
 9674 1f32 1E400000 		.4byte	.LASF445
 9675 1f36 0C       		.byte	0xc
 9676 1f37 A6       		.byte	0xa6
 9677 1f38 E32F0000 		.4byte	.LASF446
 9678 1f3c 803B0000 		.4byte	0x3b80
 9679 1f40 4A1F0000 		.4byte	0x1f4a
 9680 1f44 0E       		.uleb128 0xe
 9681 1f45 37000000 		.4byte	0x37
 9682 1f49 00       		.byte	0
 9683 1f4a 3E       		.uleb128 0x3e
 9684 1f4b 3B420000 		.4byte	.LASF447
 9685 1f4f 0C       		.byte	0xc
 9686 1f50 A7       		.byte	0xa7
ARM GAS  /tmp/cc5OZvFd.s 			page 171


 9687 1f51 A73C0000 		.4byte	.LASF448
 9688 1f55 803B0000 		.4byte	0x3b80
 9689 1f59 631F0000 		.4byte	0x1f63
 9690 1f5d 0E       		.uleb128 0xe
 9691 1f5e 37000000 		.4byte	0x37
 9692 1f62 00       		.byte	0
 9693 1f63 3E       		.uleb128 0x3e
 9694 1f64 B4200000 		.4byte	.LASF449
 9695 1f68 0C       		.byte	0xc
 9696 1f69 A8       		.byte	0xa8
 9697 1f6a 00460000 		.4byte	.LASF450
 9698 1f6e E7360000 		.4byte	0x36e7
 9699 1f72 7C1F0000 		.4byte	0x1f7c
 9700 1f76 0E       		.uleb128 0xe
 9701 1f77 E0000000 		.4byte	0xe0
 9702 1f7b 00       		.byte	0
 9703 1f7c 3E       		.uleb128 0x3e
 9704 1f7d AE430000 		.4byte	.LASF451
 9705 1f81 0C       		.byte	0xc
 9706 1f82 A9       		.byte	0xa9
 9707 1f83 81340000 		.4byte	.LASF452
 9708 1f87 C9160000 		.4byte	0x16c9
 9709 1f8b 951F0000 		.4byte	0x1f95
 9710 1f8f 0E       		.uleb128 0xe
 9711 1f90 D5160000 		.4byte	0x16d5
 9712 1f94 00       		.byte	0
 9713 1f95 20       		.uleb128 0x20
 9714 1f96 76240000 		.4byte	.LASF453
 9715 1f9a 0C       		.byte	0xc
 9716 1f9b AC       		.byte	0xac
 9717 1f9c 4D270000 		.4byte	.LASF454
 9718 1fa0 E7360000 		.4byte	0x36e7
 9719 1fa4 01       		.byte	0x1
 9720 1fa5 00       		.byte	0
 9721 1fa6 46       		.uleb128 0x46
 9722 1fa7 361D0000 		.4byte	.LASF456
 9723 1fab DC1F0000 		.4byte	0x1fdc
 9724 1faf 1D       		.uleb128 0x1d
 9725 1fb0 96290000 		.4byte	.LASF291
 9726 1fb4 10       		.byte	0x10
 9727 1fb5 19       		.byte	0x19
 9728 1fb6 292F0000 		.4byte	.LASF455
 9729 1fba E7360000 		.4byte	0x36e7
 9730 1fbe 01       		.byte	0x1
 9731 1fbf C71F0000 		.4byte	0x1fc7
 9732 1fc3 D21F0000 		.4byte	0x1fd2
 9733 1fc7 11       		.uleb128 0x11
 9734 1fc8 963C0000 		.4byte	0x3c96
 9735 1fcc 0E       		.uleb128 0xe
 9736 1fcd 82530000 		.4byte	0x5382
 9737 1fd1 00       		.byte	0
 9738 1fd2 23       		.uleb128 0x23
 9739 1fd3 062D0000 		.4byte	.LASF154
 9740 1fd7 2E0C0000 		.4byte	0xc2e
 9741 1fdb 00       		.byte	0
 9742 1fdc 46       		.uleb128 0x46
 9743 1fdd 74430000 		.4byte	.LASF457
ARM GAS  /tmp/cc5OZvFd.s 			page 172


 9744 1fe1 35200000 		.4byte	0x2035
 9745 1fe5 1D       		.uleb128 0x1d
 9746 1fe6 D1230000 		.4byte	.LASF401
 9747 1fea 11       		.byte	0x11
 9748 1feb 1F       		.byte	0x1f
 9749 1fec 0F260000 		.4byte	.LASF458
 9750 1ff0 E7360000 		.4byte	0x36e7
 9751 1ff4 01       		.byte	0x1
 9752 1ff5 FD1F0000 		.4byte	0x1ffd
 9753 1ff9 08200000 		.4byte	0x2008
 9754 1ffd 11       		.uleb128 0x11
 9755 1ffe 9C3C0000 		.4byte	0x3c9c
 9756 2002 0E       		.uleb128 0xe
 9757 2003 82530000 		.4byte	0x5382
 9758 2007 00       		.byte	0
 9759 2008 1D       		.uleb128 0x1d
 9760 2009 BD450000 		.4byte	.LASF27
 9761 200d 11       		.byte	0x11
 9762 200e 39       		.byte	0x39
 9763 200f 06410000 		.4byte	.LASF459
 9764 2013 E7360000 		.4byte	0x36e7
 9765 2017 01       		.byte	0x1
 9766 2018 20200000 		.4byte	0x2020
 9767 201c 2B200000 		.4byte	0x202b
 9768 2020 11       		.uleb128 0x11
 9769 2021 9C3C0000 		.4byte	0x3c9c
 9770 2025 0E       		.uleb128 0xe
 9771 2026 C4530000 		.4byte	0x53c4
 9772 202a 00       		.byte	0
 9773 202b 23       		.uleb128 0x23
 9774 202c 062D0000 		.4byte	.LASF154
 9775 2030 2E0C0000 		.4byte	0xc2e
 9776 2034 00       		.byte	0
 9777 2035 0F       		.uleb128 0xf
 9778 2036 F3000000 		.4byte	.LASF460
 9779 203a 04       		.byte	0x4
 9780 203b 19       		.byte	0x19
 9781 203c 0F       		.byte	0xf
 9782 203d 02250000 		.4byte	0x2502
 9783 2041 14       		.uleb128 0x14
 9784 2042 A6010000 		.4byte	0x1a6
 9785 2046 00       		.byte	0
 9786 2047 2B       		.uleb128 0x2b
 9787 2048 53160000 		.4byte	.LASF461
 9788 204c 08       		.byte	0x8
 9789 204d 19       		.byte	0x19
 9790 204e 11       		.byte	0x11
 9791 204f 01       		.byte	0x1
 9792 2050 87200000 		.4byte	0x2087
 9793 2054 19       		.uleb128 0x19
 9794 2055 6A2D0000 		.4byte	.LASF462
 9795 2059 19       		.byte	0x19
 9796 205a 12       		.byte	0x12
 9797 205b DD3C0000 		.4byte	0x3cdd
 9798 205f 00       		.byte	0
 9799 2060 19       		.uleb128 0x19
 9800 2061 1F350000 		.4byte	.LASF463
ARM GAS  /tmp/cc5OZvFd.s 			page 173


 9801 2065 19       		.byte	0x19
 9802 2066 13       		.byte	0x13
 9803 2067 6A3E0000 		.4byte	0x3e6a
 9804 206b 04       		.byte	0x4
 9805 206c 47       		.uleb128 0x47
 9806 206d 53160000 		.4byte	.LASF461
 9807 2071 19       		.byte	0x19
 9808 2072 15       		.byte	0x15
 9809 2073 DD3C0000 		.4byte	0x3cdd
 9810 2077 7B200000 		.4byte	0x207b
 9811 207b 11       		.uleb128 0x11
 9812 207c DD3C0000 		.4byte	0x3cdd
 9813 2080 0E       		.uleb128 0xe
 9814 2081 523E0000 		.4byte	0x3e52
 9815 2085 00       		.byte	0
 9816 2086 00       		.byte	0
 9817 2087 48       		.uleb128 0x48
 9818 2088 C11B0000 		.4byte	.LASF464
 9819 208c 19       		.byte	0x19
 9820 208d 8A01     		.2byte	0x18a
 9821 208f DD3C0000 		.4byte	0x3cdd
 9822 2093 00       		.byte	0
 9823 2094 49       		.uleb128 0x49
 9824 2095 04220000 		.4byte	.LASF465
 9825 2099 49       		.uleb128 0x49
 9826 209a 68210000 		.4byte	.LASF466
 9827 209e 49       		.uleb128 0x49
 9828 209f C0490000 		.4byte	.LASF371
 9829 20a3 49       		.uleb128 0x49
 9830 20a4 29240000 		.4byte	.LASF467
 9831 20a8 4A       		.uleb128 0x4a
 9832 20a9 580C0000 		.4byte	.LASF468
 9833 20ad 19       		.byte	0x19
 9834 20ae 8601     		.2byte	0x186
 9835 20b0 E33C0000 		.4byte	0x3ce3
 9836 20b4 4A       		.uleb128 0x4a
 9837 20b5 9F010000 		.4byte	.LASF469
 9838 20b9 19       		.byte	0x19
 9839 20ba 8701     		.2byte	0x187
 9840 20bc FE3C0000 		.4byte	0x3cfe
 9841 20c0 4B       		.uleb128 0x4b
 9842 20c1 DF4B0000 		.4byte	.LASF470
 9843 20c5 19       		.byte	0x19
 9844 20c6 8D01     		.2byte	0x18d
 9845 20c8 A5140000 		.4byte	.LASF472
 9846 20cc 183D0000 		.4byte	0x3d18
 9847 20d0 01       		.byte	0x1
 9848 20d1 D9200000 		.4byte	0x20d9
 9849 20d5 DF200000 		.4byte	0x20df
 9850 20d9 11       		.uleb128 0x11
 9851 20da 1E3D0000 		.4byte	0x3d1e
 9852 20de 00       		.byte	0
 9853 20df 08       		.uleb128 0x8
 9854 20e0 47200000 		.4byte	0x2047
 9855 20e4 4B       		.uleb128 0x4b
 9856 20e5 60100000 		.4byte	.LASF471
 9857 20e9 19       		.byte	0x19
ARM GAS  /tmp/cc5OZvFd.s 			page 174


 9858 20ea 9101     		.2byte	0x191
 9859 20ec 3A340000 		.4byte	.LASF473
 9860 20f0 E7360000 		.4byte	0x36e7
 9861 20f4 01       		.byte	0x1
 9862 20f5 FD200000 		.4byte	0x20fd
 9863 20f9 03210000 		.4byte	0x2103
 9864 20fd 11       		.uleb128 0x11
 9865 20fe 1E3D0000 		.4byte	0x3d1e
 9866 2102 00       		.byte	0
 9867 2103 4B       		.uleb128 0x4b
 9868 2104 1C2F0000 		.4byte	.LASF474
 9869 2108 19       		.byte	0x19
 9870 2109 0302     		.2byte	0x203
 9871 210b A5150000 		.4byte	.LASF475
 9872 210f 37000000 		.4byte	0x37
 9873 2113 01       		.byte	0x1
 9874 2114 1C210000 		.4byte	0x211c
 9875 2118 22210000 		.4byte	0x2122
 9876 211c 11       		.uleb128 0x11
 9877 211d 1E3D0000 		.4byte	0x3d1e
 9878 2121 00       		.byte	0
 9879 2122 4C       		.uleb128 0x4c
 9880 2123 E62D0000 		.4byte	.LASF476
 9881 2127 19       		.byte	0x19
 9882 2128 9701     		.2byte	0x197
 9883 212a 5B050000 		.4byte	.LASF478
 9884 212e 01       		.byte	0x1
 9885 212f 37210000 		.4byte	0x2137
 9886 2133 42210000 		.4byte	0x2142
 9887 2137 11       		.uleb128 0x11
 9888 2138 243D0000 		.4byte	0x3d24
 9889 213c 0E       		.uleb128 0xe
 9890 213d 2A3D0000 		.4byte	0x3d2a
 9891 2141 00       		.byte	0
 9892 2142 4C       		.uleb128 0x4c
 9893 2143 AC220000 		.4byte	.LASF477
 9894 2147 19       		.byte	0x19
 9895 2148 9F01     		.2byte	0x19f
 9896 214a 0F0C0000 		.4byte	.LASF479
 9897 214e 01       		.byte	0x1
 9898 214f 57210000 		.4byte	0x2157
 9899 2153 62210000 		.4byte	0x2162
 9900 2157 11       		.uleb128 0x11
 9901 2158 243D0000 		.4byte	0x3d24
 9902 215c 0E       		.uleb128 0xe
 9903 215d 2A3D0000 		.4byte	0x3d2a
 9904 2161 00       		.byte	0
 9905 2162 4B       		.uleb128 0x4b
 9906 2163 AF0F0000 		.4byte	.LASF480
 9907 2167 19       		.byte	0x19
 9908 2168 0E02     		.2byte	0x20e
 9909 216a 4B180000 		.4byte	.LASF481
 9910 216e E7360000 		.4byte	0x36e7
 9911 2172 01       		.byte	0x1
 9912 2173 7B210000 		.4byte	0x217b
 9913 2177 86210000 		.4byte	0x2186
 9914 217b 11       		.uleb128 0x11
ARM GAS  /tmp/cc5OZvFd.s 			page 175


 9915 217c 243D0000 		.4byte	0x3d24
 9916 2180 0E       		.uleb128 0xe
 9917 2181 2A3D0000 		.4byte	0x3d2a
 9918 2185 00       		.byte	0
 9919 2186 4B       		.uleb128 0x4b
 9920 2187 693E0000 		.4byte	.LASF482
 9921 218b 19       		.byte	0x19
 9922 218c 1F02     		.2byte	0x21f
 9923 218e 25350000 		.4byte	.LASF483
 9924 2192 30000000 		.4byte	0x30
 9925 2196 01       		.byte	0x1
 9926 2197 9F210000 		.4byte	0x219f
 9927 219b AA210000 		.4byte	0x21aa
 9928 219f 11       		.uleb128 0x11
 9929 21a0 1E3D0000 		.4byte	0x3d1e
 9930 21a4 0E       		.uleb128 0xe
 9931 21a5 F83C0000 		.4byte	0x3cf8
 9932 21a9 00       		.byte	0
 9933 21aa 4B       		.uleb128 0x4b
 9934 21ab 52090000 		.4byte	.LASF484
 9935 21af 19       		.byte	0x19
 9936 21b0 2C02     		.2byte	0x22c
 9937 21b2 36440000 		.4byte	.LASF485
 9938 21b6 E7360000 		.4byte	0x36e7
 9939 21ba 01       		.byte	0x1
 9940 21bb C3210000 		.4byte	0x21c3
 9941 21bf CE210000 		.4byte	0x21ce
 9942 21c3 11       		.uleb128 0x11
 9943 21c4 1E3D0000 		.4byte	0x3d1e
 9944 21c8 0E       		.uleb128 0xe
 9945 21c9 F83C0000 		.4byte	0x3cf8
 9946 21cd 00       		.byte	0
 9947 21ce 4B       		.uleb128 0x4b
 9948 21cf 033C0000 		.4byte	.LASF486
 9949 21d3 19       		.byte	0x19
 9950 21d4 3802     		.2byte	0x238
 9951 21d6 C9490000 		.4byte	.LASF487
 9952 21da 303D0000 		.4byte	0x3d30
 9953 21de 01       		.byte	0x1
 9954 21df E7210000 		.4byte	0x21e7
 9955 21e3 F2210000 		.4byte	0x21f2
 9956 21e7 11       		.uleb128 0x11
 9957 21e8 1E3D0000 		.4byte	0x3d1e
 9958 21ec 0E       		.uleb128 0xe
 9959 21ed A8200000 		.4byte	0x20a8
 9960 21f1 00       		.byte	0
 9961 21f2 4B       		.uleb128 0x4b
 9962 21f3 033C0000 		.4byte	.LASF486
 9963 21f7 19       		.byte	0x19
 9964 21f8 4402     		.2byte	0x244
 9965 21fa 4D080000 		.4byte	.LASF488
 9966 21fe 303D0000 		.4byte	0x3d30
 9967 2202 01       		.byte	0x1
 9968 2203 0B220000 		.4byte	0x220b
 9969 2207 1B220000 		.4byte	0x221b
 9970 220b 11       		.uleb128 0x11
 9971 220c 1E3D0000 		.4byte	0x3d1e
ARM GAS  /tmp/cc5OZvFd.s 			page 176


 9972 2210 0E       		.uleb128 0xe
 9973 2211 B4200000 		.4byte	0x20b4
 9974 2215 0E       		.uleb128 0xe
 9975 2216 AF3B0000 		.4byte	0x3baf
 9976 221a 00       		.byte	0
 9977 221b 4B       		.uleb128 0x4b
 9978 221c 06040000 		.4byte	.LASF489
 9979 2220 19       		.byte	0x19
 9980 2221 B301     		.2byte	0x1b3
 9981 2223 C5450000 		.4byte	.LASF490
 9982 2227 3A220000 		.4byte	0x223a
 9983 222b 01       		.byte	0x1
 9984 222c 34220000 		.4byte	0x2234
 9985 2230 3A220000 		.4byte	0x223a
 9986 2234 11       		.uleb128 0x11
 9987 2235 243D0000 		.4byte	0x3d24
 9988 2239 00       		.byte	0
 9989 223a 08       		.uleb128 0x8
 9990 223b 94200000 		.4byte	0x2094
 9991 223f 4B       		.uleb128 0x4b
 9992 2240 901B0000 		.4byte	.LASF491
 9993 2244 19       		.byte	0x19
 9994 2245 B701     		.2byte	0x1b7
 9995 2247 75030000 		.4byte	.LASF492
 9996 224b 3A220000 		.4byte	0x223a
 9997 224f 01       		.byte	0x1
 9998 2250 58220000 		.4byte	0x2258
 9999 2254 5E220000 		.4byte	0x225e
 10000 2258 11       		.uleb128 0x11
 10001 2259 243D0000 		.4byte	0x3d24
 10002 225d 00       		.byte	0
 10003 225e 4C       		.uleb128 0x4c
 10004 225f 5E040000 		.4byte	.LASF493
 10005 2263 19       		.byte	0x19
 10006 2264 BB01     		.2byte	0x1bb
 10007 2266 B8280000 		.4byte	.LASF494
 10008 226a 01       		.byte	0x1
 10009 226b 73220000 		.4byte	0x2273
 10010 226f 7E220000 		.4byte	0x227e
 10011 2273 11       		.uleb128 0x11
 10012 2274 243D0000 		.4byte	0x3d24
 10013 2278 0E       		.uleb128 0xe
 10014 2279 363D0000 		.4byte	0x3d36
 10015 227d 00       		.byte	0
 10016 227e 4B       		.uleb128 0x4b
 10017 227f 06040000 		.4byte	.LASF489
 10018 2283 19       		.byte	0x19
 10019 2284 BF01     		.2byte	0x1bf
 10020 2286 D31E0000 		.4byte	.LASF495
 10021 228a 9D220000 		.4byte	0x229d
 10022 228e 01       		.byte	0x1
 10023 228f 97220000 		.4byte	0x2297
 10024 2293 9D220000 		.4byte	0x229d
 10025 2297 11       		.uleb128 0x11
 10026 2298 1E3D0000 		.4byte	0x3d1e
 10027 229c 00       		.byte	0
 10028 229d 08       		.uleb128 0x8
ARM GAS  /tmp/cc5OZvFd.s 			page 177


 10029 229e 99200000 		.4byte	0x2099
 10030 22a2 4B       		.uleb128 0x4b
 10031 22a3 901B0000 		.4byte	.LASF491
 10032 22a7 19       		.byte	0x19
 10033 22a8 C301     		.2byte	0x1c3
 10034 22aa 3A1C0000 		.4byte	.LASF496
 10035 22ae 9D220000 		.4byte	0x229d
 10036 22b2 01       		.byte	0x1
 10037 22b3 BB220000 		.4byte	0x22bb
 10038 22b7 C1220000 		.4byte	0x22c1
 10039 22bb 11       		.uleb128 0x11
 10040 22bc 1E3D0000 		.4byte	0x3d1e
 10041 22c0 00       		.byte	0
 10042 22c1 4C       		.uleb128 0x4c
 10043 22c2 5E040000 		.4byte	.LASF493
 10044 22c6 19       		.byte	0x19
 10045 22c7 C701     		.2byte	0x1c7
 10046 22c9 E34A0000 		.4byte	.LASF497
 10047 22cd 01       		.byte	0x1
 10048 22ce D6220000 		.4byte	0x22d6
 10049 22d2 E1220000 		.4byte	0x22e1
 10050 22d6 11       		.uleb128 0x11
 10051 22d7 1E3D0000 		.4byte	0x3d1e
 10052 22db 0E       		.uleb128 0xe
 10053 22dc 3C3D0000 		.4byte	0x3d3c
 10054 22e0 00       		.byte	0
 10055 22e1 4B       		.uleb128 0x4b
 10056 22e2 E03D0000 		.4byte	.LASF498
 10057 22e6 19       		.byte	0x19
 10058 22e7 5302     		.2byte	0x253
 10059 22e9 CB360000 		.4byte	.LASF499
 10060 22ed 183D0000 		.4byte	0x3d18
 10061 22f1 01       		.byte	0x1
 10062 22f2 FA220000 		.4byte	0x22fa
 10063 22f6 00230000 		.4byte	0x2300
 10064 22fa 11       		.uleb128 0x11
 10065 22fb 1E3D0000 		.4byte	0x3d1e
 10066 22ff 00       		.byte	0
 10067 2300 4B       		.uleb128 0x4b
 10068 2301 951F0000 		.4byte	.LASF500
 10069 2305 19       		.byte	0x19
 10070 2306 5D02     		.2byte	0x25d
 10071 2308 48150000 		.4byte	.LASF501
 10072 230c E7360000 		.4byte	0x36e7
 10073 2310 01       		.byte	0x1
 10074 2311 19230000 		.4byte	0x2319
 10075 2315 1F230000 		.4byte	0x231f
 10076 2319 11       		.uleb128 0x11
 10077 231a 1E3D0000 		.4byte	0x3d1e
 10078 231e 00       		.byte	0
 10079 231f 4B       		.uleb128 0x4b
 10080 2320 73290000 		.4byte	.LASF166
 10081 2324 19       		.byte	0x19
 10082 2325 6702     		.2byte	0x267
 10083 2327 2F460000 		.4byte	.LASF502
 10084 232b 37000000 		.4byte	0x37
 10085 232f 01       		.byte	0x1
ARM GAS  /tmp/cc5OZvFd.s 			page 178


 10086 2330 38230000 		.4byte	0x2338
 10087 2334 3E230000 		.4byte	0x233e
 10088 2338 11       		.uleb128 0x11
 10089 2339 1E3D0000 		.4byte	0x3d1e
 10090 233d 00       		.byte	0
 10091 233e 4C       		.uleb128 0x4c
 10092 233f 18220000 		.4byte	.LASF503
 10093 2343 19       		.byte	0x19
 10094 2344 7602     		.2byte	0x276
 10095 2346 0C020000 		.4byte	.LASF504
 10096 234a 01       		.byte	0x1
 10097 234b 53230000 		.4byte	0x2353
 10098 234f 5E230000 		.4byte	0x235e
 10099 2353 11       		.uleb128 0x11
 10100 2354 243D0000 		.4byte	0x3d24
 10101 2358 0E       		.uleb128 0xe
 10102 2359 2A3D0000 		.4byte	0x3d2a
 10103 235d 00       		.byte	0
 10104 235e 4B       		.uleb128 0x4b
 10105 235f E3000000 		.4byte	.LASF505
 10106 2363 19       		.byte	0x19
 10107 2364 8002     		.2byte	0x280
 10108 2366 F9220000 		.4byte	.LASF506
 10109 236a E7360000 		.4byte	0x36e7
 10110 236e 01       		.byte	0x1
 10111 236f 77230000 		.4byte	0x2377
 10112 2373 82230000 		.4byte	0x2382
 10113 2377 11       		.uleb128 0x11
 10114 2378 243D0000 		.4byte	0x3d24
 10115 237c 0E       		.uleb128 0xe
 10116 237d 2A3D0000 		.4byte	0x3d2a
 10117 2381 00       		.byte	0
 10118 2382 4B       		.uleb128 0x4b
 10119 2383 67260000 		.4byte	.LASF507
 10120 2387 19       		.byte	0x19
 10121 2388 8A02     		.2byte	0x28a
 10122 238a 62480000 		.4byte	.LASF508
 10123 238e 30000000 		.4byte	0x30
 10124 2392 01       		.byte	0x1
 10125 2393 9B230000 		.4byte	0x239b
 10126 2397 A6230000 		.4byte	0x23a6
 10127 239b 11       		.uleb128 0x11
 10128 239c 1E3D0000 		.4byte	0x3d1e
 10129 23a0 0E       		.uleb128 0xe
 10130 23a1 F83C0000 		.4byte	0x3cf8
 10131 23a5 00       		.byte	0
 10132 23a6 4B       		.uleb128 0x4b
 10133 23a7 3E370000 		.4byte	.LASF509
 10134 23ab 19       		.byte	0x19
 10135 23ac 9B02     		.2byte	0x29b
 10136 23ae F71D0000 		.4byte	.LASF510
 10137 23b2 E7360000 		.4byte	0x36e7
 10138 23b6 01       		.byte	0x1
 10139 23b7 BF230000 		.4byte	0x23bf
 10140 23bb CA230000 		.4byte	0x23ca
 10141 23bf 11       		.uleb128 0x11
 10142 23c0 1E3D0000 		.4byte	0x3d1e
ARM GAS  /tmp/cc5OZvFd.s 			page 179


 10143 23c4 0E       		.uleb128 0xe
 10144 23c5 F83C0000 		.4byte	0x3cf8
 10145 23c9 00       		.byte	0
 10146 23ca 4B       		.uleb128 0x4b
 10147 23cb DD2A0000 		.4byte	.LASF511
 10148 23cf 19       		.byte	0x19
 10149 23d0 AC02     		.2byte	0x2ac
 10150 23d2 AE0D0000 		.4byte	.LASF512
 10151 23d6 303D0000 		.4byte	0x3d30
 10152 23da 01       		.byte	0x1
 10153 23db E3230000 		.4byte	0x23e3
 10154 23df EE230000 		.4byte	0x23ee
 10155 23e3 11       		.uleb128 0x11
 10156 23e4 1E3D0000 		.4byte	0x3d1e
 10157 23e8 0E       		.uleb128 0xe
 10158 23e9 A8200000 		.4byte	0x20a8
 10159 23ed 00       		.byte	0
 10160 23ee 4B       		.uleb128 0x4b
 10161 23ef DD2A0000 		.4byte	.LASF511
 10162 23f3 19       		.byte	0x19
 10163 23f4 BC02     		.2byte	0x2bc
 10164 23f6 312C0000 		.4byte	.LASF513
 10165 23fa 303D0000 		.4byte	0x3d30
 10166 23fe 01       		.byte	0x1
 10167 23ff 07240000 		.4byte	0x2407
 10168 2403 17240000 		.4byte	0x2417
 10169 2407 11       		.uleb128 0x11
 10170 2408 1E3D0000 		.4byte	0x3d1e
 10171 240c 0E       		.uleb128 0xe
 10172 240d B4200000 		.4byte	0x20b4
 10173 2411 0E       		.uleb128 0xe
 10174 2412 AF3B0000 		.4byte	0x3baf
 10175 2416 00       		.byte	0
 10176 2417 4B       		.uleb128 0x4b
 10177 2418 93320000 		.4byte	.LASF44
 10178 241c 19       		.byte	0x19
 10179 241d E001     		.2byte	0x1e0
 10180 241f DF460000 		.4byte	.LASF514
 10181 2423 36240000 		.4byte	0x2436
 10182 2427 01       		.byte	0x1
 10183 2428 30240000 		.4byte	0x2430
 10184 242c 36240000 		.4byte	0x2436
 10185 2430 11       		.uleb128 0x11
 10186 2431 243D0000 		.4byte	0x3d24
 10187 2435 00       		.byte	0
 10188 2436 08       		.uleb128 0x8
 10189 2437 9E200000 		.4byte	0x209e
 10190 243b 4D       		.uleb128 0x4d
 10191 243c 656E6400 		.ascii	"end\000"
 10192 2440 19       		.byte	0x19
 10193 2441 E401     		.2byte	0x1e4
 10194 2443 B52D0000 		.4byte	.LASF518
 10195 2447 36240000 		.4byte	0x2436
 10196 244b 01       		.byte	0x1
 10197 244c 54240000 		.4byte	0x2454
 10198 2450 5A240000 		.4byte	0x245a
 10199 2454 11       		.uleb128 0x11
ARM GAS  /tmp/cc5OZvFd.s 			page 180


 10200 2455 243D0000 		.4byte	0x3d24
 10201 2459 00       		.byte	0
 10202 245a 4C       		.uleb128 0x4c
 10203 245b EF1D0000 		.4byte	.LASF515
 10204 245f 19       		.byte	0x19
 10205 2460 E801     		.2byte	0x1e8
 10206 2462 3D320000 		.4byte	.LASF516
 10207 2466 01       		.byte	0x1
 10208 2467 6F240000 		.4byte	0x246f
 10209 246b 7A240000 		.4byte	0x247a
 10210 246f 11       		.uleb128 0x11
 10211 2470 243D0000 		.4byte	0x3d24
 10212 2474 0E       		.uleb128 0xe
 10213 2475 423D0000 		.4byte	0x3d42
 10214 2479 00       		.byte	0
 10215 247a 4B       		.uleb128 0x4b
 10216 247b 93320000 		.4byte	.LASF44
 10217 247f 19       		.byte	0x19
 10218 2480 EC01     		.2byte	0x1ec
 10219 2482 80440000 		.4byte	.LASF517
 10220 2486 99240000 		.4byte	0x2499
 10221 248a 01       		.byte	0x1
 10222 248b 93240000 		.4byte	0x2493
 10223 248f 99240000 		.4byte	0x2499
 10224 2493 11       		.uleb128 0x11
 10225 2494 1E3D0000 		.4byte	0x3d1e
 10226 2498 00       		.byte	0
 10227 2499 08       		.uleb128 0x8
 10228 249a A3200000 		.4byte	0x20a3
 10229 249e 4D       		.uleb128 0x4d
 10230 249f 656E6400 		.ascii	"end\000"
 10231 24a3 19       		.byte	0x19
 10232 24a4 F201     		.2byte	0x1f2
 10233 24a6 041D0000 		.4byte	.LASF519
 10234 24aa 99240000 		.4byte	0x2499
 10235 24ae 01       		.byte	0x1
 10236 24af B7240000 		.4byte	0x24b7
 10237 24b3 BD240000 		.4byte	0x24bd
 10238 24b7 11       		.uleb128 0x11
 10239 24b8 1E3D0000 		.4byte	0x3d1e
 10240 24bc 00       		.byte	0
 10241 24bd 4C       		.uleb128 0x4c
 10242 24be EF1D0000 		.4byte	.LASF515
 10243 24c2 19       		.byte	0x19
 10244 24c3 F601     		.2byte	0x1f6
 10245 24c5 364D0000 		.4byte	.LASF520
 10246 24c9 01       		.byte	0x1
 10247 24ca D2240000 		.4byte	0x24d2
 10248 24ce DD240000 		.4byte	0x24dd
 10249 24d2 11       		.uleb128 0x11
 10250 24d3 1E3D0000 		.4byte	0x3d1e
 10251 24d7 0E       		.uleb128 0xe
 10252 24d8 483D0000 		.4byte	0x3d48
 10253 24dc 00       		.byte	0
 10254 24dd 4E       		.uleb128 0x4e
 10255 24de 6A3D0000 		.4byte	.LASF521
 10256 24e2 19       		.byte	0x19
ARM GAS  /tmp/cc5OZvFd.s 			page 181


 10257 24e3 FA01     		.2byte	0x1fa
 10258 24e5 243D0000 		.4byte	0x3d24
 10259 24e9 01       		.byte	0x1
 10260 24ea F2240000 		.4byte	0x24f2
 10261 24ee F8240000 		.4byte	0x24f8
 10262 24f2 11       		.uleb128 0x11
 10263 24f3 243D0000 		.4byte	0x3d24
 10264 24f7 00       		.byte	0
 10265 24f8 23       		.uleb128 0x23
 10266 24f9 2B340000 		.4byte	.LASF522
 10267 24fd 07250000 		.4byte	0x2507
 10268 2501 00       		.byte	0
 10269 2502 08       		.uleb128 0x8
 10270 2503 07250000 		.4byte	0x2507
 10271 2507 49       		.uleb128 0x49
 10272 2508 7D170000 		.4byte	.LASF523
 10273 250c 08       		.uleb128 0x8
 10274 250d 35200000 		.4byte	0x2035
 10275 2511 0F       		.uleb128 0xf
 10276 2512 730F0000 		.4byte	.LASF524
 10277 2516 04       		.byte	0x4
 10278 2517 19       		.byte	0x19
 10279 2518 0F       		.byte	0xf
 10280 2519 DE290000 		.4byte	0x29de
 10281 251d 14       		.uleb128 0x14
 10282 251e A6010000 		.4byte	0x1a6
 10283 2522 00       		.byte	0
 10284 2523 2B       		.uleb128 0x2b
 10285 2524 53160000 		.4byte	.LASF461
 10286 2528 08       		.byte	0x8
 10287 2529 19       		.byte	0x19
 10288 252a 11       		.byte	0x11
 10289 252b 01       		.byte	0x1
 10290 252c 63250000 		.4byte	0x2563
 10291 2530 19       		.uleb128 0x19
 10292 2531 6A2D0000 		.4byte	.LASF462
 10293 2535 19       		.byte	0x19
 10294 2536 12       		.byte	0x12
 10295 2537 4E3D0000 		.4byte	0x3d4e
 10296 253b 00       		.byte	0
 10297 253c 19       		.uleb128 0x19
 10298 253d 1F350000 		.4byte	.LASF463
 10299 2541 19       		.byte	0x19
 10300 2542 13       		.byte	0x13
 10301 2543 AF3E0000 		.4byte	0x3eaf
 10302 2547 04       		.byte	0x4
 10303 2548 47       		.uleb128 0x47
 10304 2549 53160000 		.4byte	.LASF461
 10305 254d 19       		.byte	0x19
 10306 254e 15       		.byte	0x15
 10307 254f 4E3D0000 		.4byte	0x3d4e
 10308 2553 57250000 		.4byte	0x2557
 10309 2557 11       		.uleb128 0x11
 10310 2558 4E3D0000 		.4byte	0x3d4e
 10311 255c 0E       		.uleb128 0xe
 10312 255d 583E0000 		.4byte	0x3e58
 10313 2561 00       		.byte	0
ARM GAS  /tmp/cc5OZvFd.s 			page 182


 10314 2562 00       		.byte	0
 10315 2563 48       		.uleb128 0x48
 10316 2564 C11B0000 		.4byte	.LASF464
 10317 2568 19       		.byte	0x19
 10318 2569 8A01     		.2byte	0x18a
 10319 256b 4E3D0000 		.4byte	0x3d4e
 10320 256f 00       		.byte	0
 10321 2570 49       		.uleb128 0x49
 10322 2571 04220000 		.4byte	.LASF465
 10323 2575 49       		.uleb128 0x49
 10324 2576 68210000 		.4byte	.LASF466
 10325 257a 49       		.uleb128 0x49
 10326 257b C0490000 		.4byte	.LASF371
 10327 257f 49       		.uleb128 0x49
 10328 2580 29240000 		.4byte	.LASF467
 10329 2584 4A       		.uleb128 0x4a
 10330 2585 580C0000 		.4byte	.LASF468
 10331 2589 19       		.byte	0x19
 10332 258a 8601     		.2byte	0x186
 10333 258c 543D0000 		.4byte	0x3d54
 10334 2590 4A       		.uleb128 0x4a
 10335 2591 9F010000 		.4byte	.LASF469
 10336 2595 19       		.byte	0x19
 10337 2596 8701     		.2byte	0x187
 10338 2598 6F3D0000 		.4byte	0x3d6f
 10339 259c 4B       		.uleb128 0x4b
 10340 259d DF4B0000 		.4byte	.LASF470
 10341 25a1 19       		.byte	0x19
 10342 25a2 8D01     		.2byte	0x18d
 10343 25a4 0B180000 		.4byte	.LASF525
 10344 25a8 893D0000 		.4byte	0x3d89
 10345 25ac 01       		.byte	0x1
 10346 25ad B5250000 		.4byte	0x25b5
 10347 25b1 BB250000 		.4byte	0x25bb
 10348 25b5 11       		.uleb128 0x11
 10349 25b6 8F3D0000 		.4byte	0x3d8f
 10350 25ba 00       		.byte	0
 10351 25bb 08       		.uleb128 0x8
 10352 25bc 23250000 		.4byte	0x2523
 10353 25c0 4B       		.uleb128 0x4b
 10354 25c1 60100000 		.4byte	.LASF471
 10355 25c5 19       		.byte	0x19
 10356 25c6 9101     		.2byte	0x191
 10357 25c8 962E0000 		.4byte	.LASF526
 10358 25cc E7360000 		.4byte	0x36e7
 10359 25d0 01       		.byte	0x1
 10360 25d1 D9250000 		.4byte	0x25d9
 10361 25d5 DF250000 		.4byte	0x25df
 10362 25d9 11       		.uleb128 0x11
 10363 25da 8F3D0000 		.4byte	0x3d8f
 10364 25de 00       		.byte	0
 10365 25df 4B       		.uleb128 0x4b
 10366 25e0 1C2F0000 		.4byte	.LASF474
 10367 25e4 19       		.byte	0x19
 10368 25e5 0302     		.2byte	0x203
 10369 25e7 9B0B0000 		.4byte	.LASF527
 10370 25eb 37000000 		.4byte	0x37
ARM GAS  /tmp/cc5OZvFd.s 			page 183


 10371 25ef 01       		.byte	0x1
 10372 25f0 F8250000 		.4byte	0x25f8
 10373 25f4 FE250000 		.4byte	0x25fe
 10374 25f8 11       		.uleb128 0x11
 10375 25f9 8F3D0000 		.4byte	0x3d8f
 10376 25fd 00       		.byte	0
 10377 25fe 4C       		.uleb128 0x4c
 10378 25ff E62D0000 		.4byte	.LASF476
 10379 2603 19       		.byte	0x19
 10380 2604 9701     		.2byte	0x197
 10381 2606 27200000 		.4byte	.LASF528
 10382 260a 01       		.byte	0x1
 10383 260b 13260000 		.4byte	0x2613
 10384 260f 1E260000 		.4byte	0x261e
 10385 2613 11       		.uleb128 0x11
 10386 2614 953D0000 		.4byte	0x3d95
 10387 2618 0E       		.uleb128 0xe
 10388 2619 9B3D0000 		.4byte	0x3d9b
 10389 261d 00       		.byte	0
 10390 261e 4C       		.uleb128 0x4c
 10391 261f AC220000 		.4byte	.LASF477
 10392 2623 19       		.byte	0x19
 10393 2624 9F01     		.2byte	0x19f
 10394 2626 2D280000 		.4byte	.LASF529
 10395 262a 01       		.byte	0x1
 10396 262b 33260000 		.4byte	0x2633
 10397 262f 3E260000 		.4byte	0x263e
 10398 2633 11       		.uleb128 0x11
 10399 2634 953D0000 		.4byte	0x3d95
 10400 2638 0E       		.uleb128 0xe
 10401 2639 9B3D0000 		.4byte	0x3d9b
 10402 263d 00       		.byte	0
 10403 263e 4B       		.uleb128 0x4b
 10404 263f AF0F0000 		.4byte	.LASF480
 10405 2643 19       		.byte	0x19
 10406 2644 0E02     		.2byte	0x20e
 10407 2646 120B0000 		.4byte	.LASF530
 10408 264a E7360000 		.4byte	0x36e7
 10409 264e 01       		.byte	0x1
 10410 264f 57260000 		.4byte	0x2657
 10411 2653 62260000 		.4byte	0x2662
 10412 2657 11       		.uleb128 0x11
 10413 2658 953D0000 		.4byte	0x3d95
 10414 265c 0E       		.uleb128 0xe
 10415 265d 9B3D0000 		.4byte	0x3d9b
 10416 2661 00       		.byte	0
 10417 2662 4B       		.uleb128 0x4b
 10418 2663 693E0000 		.4byte	.LASF482
 10419 2667 19       		.byte	0x19
 10420 2668 1F02     		.2byte	0x21f
 10421 266a D0100000 		.4byte	.LASF531
 10422 266e 30000000 		.4byte	0x30
 10423 2672 01       		.byte	0x1
 10424 2673 7B260000 		.4byte	0x267b
 10425 2677 86260000 		.4byte	0x2686
 10426 267b 11       		.uleb128 0x11
 10427 267c 8F3D0000 		.4byte	0x3d8f
ARM GAS  /tmp/cc5OZvFd.s 			page 184


 10428 2680 0E       		.uleb128 0xe
 10429 2681 693D0000 		.4byte	0x3d69
 10430 2685 00       		.byte	0
 10431 2686 4B       		.uleb128 0x4b
 10432 2687 52090000 		.4byte	.LASF484
 10433 268b 19       		.byte	0x19
 10434 268c 2C02     		.2byte	0x22c
 10435 268e 491F0000 		.4byte	.LASF532
 10436 2692 E7360000 		.4byte	0x36e7
 10437 2696 01       		.byte	0x1
 10438 2697 9F260000 		.4byte	0x269f
 10439 269b AA260000 		.4byte	0x26aa
 10440 269f 11       		.uleb128 0x11
 10441 26a0 8F3D0000 		.4byte	0x3d8f
 10442 26a4 0E       		.uleb128 0xe
 10443 26a5 693D0000 		.4byte	0x3d69
 10444 26a9 00       		.byte	0
 10445 26aa 4B       		.uleb128 0x4b
 10446 26ab 033C0000 		.4byte	.LASF486
 10447 26af 19       		.byte	0x19
 10448 26b0 3802     		.2byte	0x238
 10449 26b2 BA330000 		.4byte	.LASF533
 10450 26b6 A13D0000 		.4byte	0x3da1
 10451 26ba 01       		.byte	0x1
 10452 26bb C3260000 		.4byte	0x26c3
 10453 26bf CE260000 		.4byte	0x26ce
 10454 26c3 11       		.uleb128 0x11
 10455 26c4 8F3D0000 		.4byte	0x3d8f
 10456 26c8 0E       		.uleb128 0xe
 10457 26c9 84250000 		.4byte	0x2584
 10458 26cd 00       		.byte	0
 10459 26ce 4B       		.uleb128 0x4b
 10460 26cf 033C0000 		.4byte	.LASF486
 10461 26d3 19       		.byte	0x19
 10462 26d4 4402     		.2byte	0x244
 10463 26d6 852C0000 		.4byte	.LASF534
 10464 26da A13D0000 		.4byte	0x3da1
 10465 26de 01       		.byte	0x1
 10466 26df E7260000 		.4byte	0x26e7
 10467 26e3 F7260000 		.4byte	0x26f7
 10468 26e7 11       		.uleb128 0x11
 10469 26e8 8F3D0000 		.4byte	0x3d8f
 10470 26ec 0E       		.uleb128 0xe
 10471 26ed 90250000 		.4byte	0x2590
 10472 26f1 0E       		.uleb128 0xe
 10473 26f2 AF3B0000 		.4byte	0x3baf
 10474 26f6 00       		.byte	0
 10475 26f7 4B       		.uleb128 0x4b
 10476 26f8 06040000 		.4byte	.LASF489
 10477 26fc 19       		.byte	0x19
 10478 26fd B301     		.2byte	0x1b3
 10479 26ff 96210000 		.4byte	.LASF535
 10480 2703 16270000 		.4byte	0x2716
 10481 2707 01       		.byte	0x1
 10482 2708 10270000 		.4byte	0x2710
 10483 270c 16270000 		.4byte	0x2716
 10484 2710 11       		.uleb128 0x11
ARM GAS  /tmp/cc5OZvFd.s 			page 185


 10485 2711 953D0000 		.4byte	0x3d95
 10486 2715 00       		.byte	0
 10487 2716 08       		.uleb128 0x8
 10488 2717 70250000 		.4byte	0x2570
 10489 271b 4B       		.uleb128 0x4b
 10490 271c 901B0000 		.4byte	.LASF491
 10491 2720 19       		.byte	0x19
 10492 2721 B701     		.2byte	0x1b7
 10493 2723 704B0000 		.4byte	.LASF536
 10494 2727 16270000 		.4byte	0x2716
 10495 272b 01       		.byte	0x1
 10496 272c 34270000 		.4byte	0x2734
 10497 2730 3A270000 		.4byte	0x273a
 10498 2734 11       		.uleb128 0x11
 10499 2735 953D0000 		.4byte	0x3d95
 10500 2739 00       		.byte	0
 10501 273a 4C       		.uleb128 0x4c
 10502 273b 5E040000 		.4byte	.LASF493
 10503 273f 19       		.byte	0x19
 10504 2740 BB01     		.2byte	0x1bb
 10505 2742 8A2A0000 		.4byte	.LASF537
 10506 2746 01       		.byte	0x1
 10507 2747 4F270000 		.4byte	0x274f
 10508 274b 5A270000 		.4byte	0x275a
 10509 274f 11       		.uleb128 0x11
 10510 2750 953D0000 		.4byte	0x3d95
 10511 2754 0E       		.uleb128 0xe
 10512 2755 A73D0000 		.4byte	0x3da7
 10513 2759 00       		.byte	0
 10514 275a 4B       		.uleb128 0x4b
 10515 275b 06040000 		.4byte	.LASF489
 10516 275f 19       		.byte	0x19
 10517 2760 BF01     		.2byte	0x1bf
 10518 2762 1F0A0000 		.4byte	.LASF538
 10519 2766 79270000 		.4byte	0x2779
 10520 276a 01       		.byte	0x1
 10521 276b 73270000 		.4byte	0x2773
 10522 276f 79270000 		.4byte	0x2779
 10523 2773 11       		.uleb128 0x11
 10524 2774 8F3D0000 		.4byte	0x3d8f
 10525 2778 00       		.byte	0
 10526 2779 08       		.uleb128 0x8
 10527 277a 75250000 		.4byte	0x2575
 10528 277e 4B       		.uleb128 0x4b
 10529 277f 901B0000 		.4byte	.LASF491
 10530 2783 19       		.byte	0x19
 10531 2784 C301     		.2byte	0x1c3
 10532 2786 37170000 		.4byte	.LASF539
 10533 278a 79270000 		.4byte	0x2779
 10534 278e 01       		.byte	0x1
 10535 278f 97270000 		.4byte	0x2797
 10536 2793 9D270000 		.4byte	0x279d
 10537 2797 11       		.uleb128 0x11
 10538 2798 8F3D0000 		.4byte	0x3d8f
 10539 279c 00       		.byte	0
 10540 279d 4C       		.uleb128 0x4c
 10541 279e 5E040000 		.4byte	.LASF493
ARM GAS  /tmp/cc5OZvFd.s 			page 186


 10542 27a2 19       		.byte	0x19
 10543 27a3 C701     		.2byte	0x1c7
 10544 27a5 1B3B0000 		.4byte	.LASF540
 10545 27a9 01       		.byte	0x1
 10546 27aa B2270000 		.4byte	0x27b2
 10547 27ae BD270000 		.4byte	0x27bd
 10548 27b2 11       		.uleb128 0x11
 10549 27b3 8F3D0000 		.4byte	0x3d8f
 10550 27b7 0E       		.uleb128 0xe
 10551 27b8 AD3D0000 		.4byte	0x3dad
 10552 27bc 00       		.byte	0
 10553 27bd 4B       		.uleb128 0x4b
 10554 27be E03D0000 		.4byte	.LASF498
 10555 27c2 19       		.byte	0x19
 10556 27c3 5302     		.2byte	0x253
 10557 27c5 ED2B0000 		.4byte	.LASF541
 10558 27c9 893D0000 		.4byte	0x3d89
 10559 27cd 01       		.byte	0x1
 10560 27ce D6270000 		.4byte	0x27d6
 10561 27d2 DC270000 		.4byte	0x27dc
 10562 27d6 11       		.uleb128 0x11
 10563 27d7 8F3D0000 		.4byte	0x3d8f
 10564 27db 00       		.byte	0
 10565 27dc 4B       		.uleb128 0x4b
 10566 27dd 951F0000 		.4byte	.LASF500
 10567 27e1 19       		.byte	0x19
 10568 27e2 5D02     		.2byte	0x25d
 10569 27e4 DA0A0000 		.4byte	.LASF542
 10570 27e8 E7360000 		.4byte	0x36e7
 10571 27ec 01       		.byte	0x1
 10572 27ed F5270000 		.4byte	0x27f5
 10573 27f1 FB270000 		.4byte	0x27fb
 10574 27f5 11       		.uleb128 0x11
 10575 27f6 8F3D0000 		.4byte	0x3d8f
 10576 27fa 00       		.byte	0
 10577 27fb 4B       		.uleb128 0x4b
 10578 27fc 73290000 		.4byte	.LASF166
 10579 2800 19       		.byte	0x19
 10580 2801 6702     		.2byte	0x267
 10581 2803 46300000 		.4byte	.LASF543
 10582 2807 37000000 		.4byte	0x37
 10583 280b 01       		.byte	0x1
 10584 280c 14280000 		.4byte	0x2814
 10585 2810 1A280000 		.4byte	0x281a
 10586 2814 11       		.uleb128 0x11
 10587 2815 8F3D0000 		.4byte	0x3d8f
 10588 2819 00       		.byte	0
 10589 281a 4C       		.uleb128 0x4c
 10590 281b 18220000 		.4byte	.LASF503
 10591 281f 19       		.byte	0x19
 10592 2820 7602     		.2byte	0x276
 10593 2822 05030000 		.4byte	.LASF544
 10594 2826 01       		.byte	0x1
 10595 2827 2F280000 		.4byte	0x282f
 10596 282b 3A280000 		.4byte	0x283a
 10597 282f 11       		.uleb128 0x11
 10598 2830 953D0000 		.4byte	0x3d95
ARM GAS  /tmp/cc5OZvFd.s 			page 187


 10599 2834 0E       		.uleb128 0xe
 10600 2835 9B3D0000 		.4byte	0x3d9b
 10601 2839 00       		.byte	0
 10602 283a 4B       		.uleb128 0x4b
 10603 283b E3000000 		.4byte	.LASF505
 10604 283f 19       		.byte	0x19
 10605 2840 8002     		.2byte	0x280
 10606 2842 C8470000 		.4byte	.LASF545
 10607 2846 E7360000 		.4byte	0x36e7
 10608 284a 01       		.byte	0x1
 10609 284b 53280000 		.4byte	0x2853
 10610 284f 5E280000 		.4byte	0x285e
 10611 2853 11       		.uleb128 0x11
 10612 2854 953D0000 		.4byte	0x3d95
 10613 2858 0E       		.uleb128 0xe
 10614 2859 9B3D0000 		.4byte	0x3d9b
 10615 285d 00       		.byte	0
 10616 285e 4B       		.uleb128 0x4b
 10617 285f 67260000 		.4byte	.LASF507
 10618 2863 19       		.byte	0x19
 10619 2864 8A02     		.2byte	0x28a
 10620 2866 64160000 		.4byte	.LASF546
 10621 286a 30000000 		.4byte	0x30
 10622 286e 01       		.byte	0x1
 10623 286f 77280000 		.4byte	0x2877
 10624 2873 82280000 		.4byte	0x2882
 10625 2877 11       		.uleb128 0x11
 10626 2878 8F3D0000 		.4byte	0x3d8f
 10627 287c 0E       		.uleb128 0xe
 10628 287d 693D0000 		.4byte	0x3d69
 10629 2881 00       		.byte	0
 10630 2882 4B       		.uleb128 0x4b
 10631 2883 3E370000 		.4byte	.LASF509
 10632 2887 19       		.byte	0x19
 10633 2888 9B02     		.2byte	0x29b
 10634 288a 02370000 		.4byte	.LASF547
 10635 288e E7360000 		.4byte	0x36e7
 10636 2892 01       		.byte	0x1
 10637 2893 9B280000 		.4byte	0x289b
 10638 2897 A6280000 		.4byte	0x28a6
 10639 289b 11       		.uleb128 0x11
 10640 289c 8F3D0000 		.4byte	0x3d8f
 10641 28a0 0E       		.uleb128 0xe
 10642 28a1 693D0000 		.4byte	0x3d69
 10643 28a5 00       		.byte	0
 10644 28a6 4B       		.uleb128 0x4b
 10645 28a7 DD2A0000 		.4byte	.LASF511
 10646 28ab 19       		.byte	0x19
 10647 28ac AC02     		.2byte	0x2ac
 10648 28ae EB4C0000 		.4byte	.LASF548
 10649 28b2 A13D0000 		.4byte	0x3da1
 10650 28b6 01       		.byte	0x1
 10651 28b7 BF280000 		.4byte	0x28bf
 10652 28bb CA280000 		.4byte	0x28ca
 10653 28bf 11       		.uleb128 0x11
 10654 28c0 8F3D0000 		.4byte	0x3d8f
 10655 28c4 0E       		.uleb128 0xe
ARM GAS  /tmp/cc5OZvFd.s 			page 188


 10656 28c5 84250000 		.4byte	0x2584
 10657 28c9 00       		.byte	0
 10658 28ca 4B       		.uleb128 0x4b
 10659 28cb DD2A0000 		.4byte	.LASF511
 10660 28cf 19       		.byte	0x19
 10661 28d0 BC02     		.2byte	0x2bc
 10662 28d2 82070000 		.4byte	.LASF549
 10663 28d6 A13D0000 		.4byte	0x3da1
 10664 28da 01       		.byte	0x1
 10665 28db E3280000 		.4byte	0x28e3
 10666 28df F3280000 		.4byte	0x28f3
 10667 28e3 11       		.uleb128 0x11
 10668 28e4 8F3D0000 		.4byte	0x3d8f
 10669 28e8 0E       		.uleb128 0xe
 10670 28e9 90250000 		.4byte	0x2590
 10671 28ed 0E       		.uleb128 0xe
 10672 28ee AF3B0000 		.4byte	0x3baf
 10673 28f2 00       		.byte	0
 10674 28f3 4B       		.uleb128 0x4b
 10675 28f4 93320000 		.4byte	.LASF44
 10676 28f8 19       		.byte	0x19
 10677 28f9 E001     		.2byte	0x1e0
 10678 28fb CA310000 		.4byte	.LASF550
 10679 28ff 12290000 		.4byte	0x2912
 10680 2903 01       		.byte	0x1
 10681 2904 0C290000 		.4byte	0x290c
 10682 2908 12290000 		.4byte	0x2912
 10683 290c 11       		.uleb128 0x11
 10684 290d 953D0000 		.4byte	0x3d95
 10685 2911 00       		.byte	0
 10686 2912 08       		.uleb128 0x8
 10687 2913 7A250000 		.4byte	0x257a
 10688 2917 4D       		.uleb128 0x4d
 10689 2918 656E6400 		.ascii	"end\000"
 10690 291c 19       		.byte	0x19
 10691 291d E401     		.2byte	0x1e4
 10692 291f 2B3E0000 		.4byte	.LASF551
 10693 2923 12290000 		.4byte	0x2912
 10694 2927 01       		.byte	0x1
 10695 2928 30290000 		.4byte	0x2930
 10696 292c 36290000 		.4byte	0x2936
 10697 2930 11       		.uleb128 0x11
 10698 2931 953D0000 		.4byte	0x3d95
 10699 2935 00       		.byte	0
 10700 2936 4C       		.uleb128 0x4c
 10701 2937 EF1D0000 		.4byte	.LASF515
 10702 293b 19       		.byte	0x19
 10703 293c E801     		.2byte	0x1e8
 10704 293e 47370000 		.4byte	.LASF552
 10705 2942 01       		.byte	0x1
 10706 2943 4B290000 		.4byte	0x294b
 10707 2947 56290000 		.4byte	0x2956
 10708 294b 11       		.uleb128 0x11
 10709 294c 953D0000 		.4byte	0x3d95
 10710 2950 0E       		.uleb128 0xe
 10711 2951 B33D0000 		.4byte	0x3db3
 10712 2955 00       		.byte	0
ARM GAS  /tmp/cc5OZvFd.s 			page 189


 10713 2956 4B       		.uleb128 0x4b
 10714 2957 93320000 		.4byte	.LASF44
 10715 295b 19       		.byte	0x19
 10716 295c EC01     		.2byte	0x1ec
 10717 295e 93260000 		.4byte	.LASF553
 10718 2962 75290000 		.4byte	0x2975
 10719 2966 01       		.byte	0x1
 10720 2967 6F290000 		.4byte	0x296f
 10721 296b 75290000 		.4byte	0x2975
 10722 296f 11       		.uleb128 0x11
 10723 2970 8F3D0000 		.4byte	0x3d8f
 10724 2974 00       		.byte	0
 10725 2975 08       		.uleb128 0x8
 10726 2976 7F250000 		.4byte	0x257f
 10727 297a 4D       		.uleb128 0x4d
 10728 297b 656E6400 		.ascii	"end\000"
 10729 297f 19       		.byte	0x19
 10730 2980 F201     		.2byte	0x1f2
 10731 2982 6C010000 		.4byte	.LASF554
 10732 2986 75290000 		.4byte	0x2975
 10733 298a 01       		.byte	0x1
 10734 298b 93290000 		.4byte	0x2993
 10735 298f 99290000 		.4byte	0x2999
 10736 2993 11       		.uleb128 0x11
 10737 2994 8F3D0000 		.4byte	0x3d8f
 10738 2998 00       		.byte	0
 10739 2999 4C       		.uleb128 0x4c
 10740 299a EF1D0000 		.4byte	.LASF515
 10741 299e 19       		.byte	0x19
 10742 299f F601     		.2byte	0x1f6
 10743 29a1 000D0000 		.4byte	.LASF555
 10744 29a5 01       		.byte	0x1
 10745 29a6 AE290000 		.4byte	0x29ae
 10746 29aa B9290000 		.4byte	0x29b9
 10747 29ae 11       		.uleb128 0x11
 10748 29af 8F3D0000 		.4byte	0x3d8f
 10749 29b3 0E       		.uleb128 0xe
 10750 29b4 B93D0000 		.4byte	0x3db9
 10751 29b8 00       		.byte	0
 10752 29b9 4E       		.uleb128 0x4e
 10753 29ba 6A3D0000 		.4byte	.LASF521
 10754 29be 19       		.byte	0x19
 10755 29bf FA01     		.2byte	0x1fa
 10756 29c1 953D0000 		.4byte	0x3d95
 10757 29c5 01       		.byte	0x1
 10758 29c6 CE290000 		.4byte	0x29ce
 10759 29ca D4290000 		.4byte	0x29d4
 10760 29ce 11       		.uleb128 0x11
 10761 29cf 953D0000 		.4byte	0x3d95
 10762 29d3 00       		.byte	0
 10763 29d4 23       		.uleb128 0x23
 10764 29d5 2B340000 		.4byte	.LASF522
 10765 29d9 E3290000 		.4byte	0x29e3
 10766 29dd 00       		.byte	0
 10767 29de 08       		.uleb128 0x8
 10768 29df E3290000 		.4byte	0x29e3
 10769 29e3 49       		.uleb128 0x49
ARM GAS  /tmp/cc5OZvFd.s 			page 190


 10770 29e4 46490000 		.4byte	.LASF556
 10771 29e8 08       		.uleb128 0x8
 10772 29e9 11250000 		.4byte	0x2511
 10773 29ed 0F       		.uleb128 0xf
 10774 29ee B0480000 		.4byte	.LASF557
 10775 29f2 04       		.byte	0x4
 10776 29f3 19       		.byte	0x19
 10777 29f4 0F       		.byte	0xf
 10778 29f5 BA2E0000 		.4byte	0x2eba
 10779 29f9 14       		.uleb128 0x14
 10780 29fa A6010000 		.4byte	0x1a6
 10781 29fe 00       		.byte	0
 10782 29ff 2B       		.uleb128 0x2b
 10783 2a00 53160000 		.4byte	.LASF461
 10784 2a04 08       		.byte	0x8
 10785 2a05 19       		.byte	0x19
 10786 2a06 11       		.byte	0x11
 10787 2a07 01       		.byte	0x1
 10788 2a08 3F2A0000 		.4byte	0x2a3f
 10789 2a0c 19       		.uleb128 0x19
 10790 2a0d 6A2D0000 		.4byte	.LASF462
 10791 2a11 19       		.byte	0x19
 10792 2a12 12       		.byte	0x12
 10793 2a13 BF3D0000 		.4byte	0x3dbf
 10794 2a17 00       		.byte	0
 10795 2a18 19       		.uleb128 0x19
 10796 2a19 1F350000 		.4byte	.LASF463
 10797 2a1d 19       		.byte	0x19
 10798 2a1e 13       		.byte	0x13
 10799 2a1f 303E0000 		.4byte	0x3e30
 10800 2a23 04       		.byte	0x4
 10801 2a24 47       		.uleb128 0x47
 10802 2a25 53160000 		.4byte	.LASF461
 10803 2a29 19       		.byte	0x19
 10804 2a2a 15       		.byte	0x15
 10805 2a2b BF3D0000 		.4byte	0x3dbf
 10806 2a2f 332A0000 		.4byte	0x2a33
 10807 2a33 11       		.uleb128 0x11
 10808 2a34 BF3D0000 		.4byte	0x3dbf
 10809 2a38 0E       		.uleb128 0xe
 10810 2a39 353E0000 		.4byte	0x3e35
 10811 2a3d 00       		.byte	0
 10812 2a3e 00       		.byte	0
 10813 2a3f 48       		.uleb128 0x48
 10814 2a40 C11B0000 		.4byte	.LASF464
 10815 2a44 19       		.byte	0x19
 10816 2a45 8A01     		.2byte	0x18a
 10817 2a47 BF3D0000 		.4byte	0x3dbf
 10818 2a4b 00       		.byte	0
 10819 2a4c 49       		.uleb128 0x49
 10820 2a4d 04220000 		.4byte	.LASF465
 10821 2a51 49       		.uleb128 0x49
 10822 2a52 68210000 		.4byte	.LASF466
 10823 2a56 49       		.uleb128 0x49
 10824 2a57 C0490000 		.4byte	.LASF371
 10825 2a5b 49       		.uleb128 0x49
 10826 2a5c 29240000 		.4byte	.LASF467
ARM GAS  /tmp/cc5OZvFd.s 			page 191


 10827 2a60 4A       		.uleb128 0x4a
 10828 2a61 580C0000 		.4byte	.LASF468
 10829 2a65 19       		.byte	0x19
 10830 2a66 8601     		.2byte	0x186
 10831 2a68 C53D0000 		.4byte	0x3dc5
 10832 2a6c 4A       		.uleb128 0x4a
 10833 2a6d 9F010000 		.4byte	.LASF469
 10834 2a71 19       		.byte	0x19
 10835 2a72 8701     		.2byte	0x187
 10836 2a74 E03D0000 		.4byte	0x3de0
 10837 2a78 4B       		.uleb128 0x4b
 10838 2a79 DF4B0000 		.4byte	.LASF470
 10839 2a7d 19       		.byte	0x19
 10840 2a7e 8D01     		.2byte	0x18d
 10841 2a80 4E1A0000 		.4byte	.LASF558
 10842 2a84 FA3D0000 		.4byte	0x3dfa
 10843 2a88 01       		.byte	0x1
 10844 2a89 912A0000 		.4byte	0x2a91
 10845 2a8d 972A0000 		.4byte	0x2a97
 10846 2a91 11       		.uleb128 0x11
 10847 2a92 003E0000 		.4byte	0x3e00
 10848 2a96 00       		.byte	0
 10849 2a97 08       		.uleb128 0x8
 10850 2a98 FF290000 		.4byte	0x29ff
 10851 2a9c 4B       		.uleb128 0x4b
 10852 2a9d 60100000 		.4byte	.LASF471
 10853 2aa1 19       		.byte	0x19
 10854 2aa2 9101     		.2byte	0x191
 10855 2aa4 013D0000 		.4byte	.LASF559
 10856 2aa8 E7360000 		.4byte	0x36e7
 10857 2aac 01       		.byte	0x1
 10858 2aad B52A0000 		.4byte	0x2ab5
 10859 2ab1 BB2A0000 		.4byte	0x2abb
 10860 2ab5 11       		.uleb128 0x11
 10861 2ab6 003E0000 		.4byte	0x3e00
 10862 2aba 00       		.byte	0
 10863 2abb 4B       		.uleb128 0x4b
 10864 2abc 1C2F0000 		.4byte	.LASF474
 10865 2ac0 19       		.byte	0x19
 10866 2ac1 0302     		.2byte	0x203
 10867 2ac3 72000000 		.4byte	.LASF560
 10868 2ac7 37000000 		.4byte	0x37
 10869 2acb 01       		.byte	0x1
 10870 2acc D42A0000 		.4byte	0x2ad4
 10871 2ad0 DA2A0000 		.4byte	0x2ada
 10872 2ad4 11       		.uleb128 0x11
 10873 2ad5 003E0000 		.4byte	0x3e00
 10874 2ad9 00       		.byte	0
 10875 2ada 4C       		.uleb128 0x4c
 10876 2adb E62D0000 		.4byte	.LASF476
 10877 2adf 19       		.byte	0x19
 10878 2ae0 9701     		.2byte	0x197
 10879 2ae2 052A0000 		.4byte	.LASF561
 10880 2ae6 01       		.byte	0x1
 10881 2ae7 EF2A0000 		.4byte	0x2aef
 10882 2aeb FA2A0000 		.4byte	0x2afa
 10883 2aef 11       		.uleb128 0x11
ARM GAS  /tmp/cc5OZvFd.s 			page 192


 10884 2af0 063E0000 		.4byte	0x3e06
 10885 2af4 0E       		.uleb128 0xe
 10886 2af5 0C3E0000 		.4byte	0x3e0c
 10887 2af9 00       		.byte	0
 10888 2afa 4C       		.uleb128 0x4c
 10889 2afb AC220000 		.4byte	.LASF477
 10890 2aff 19       		.byte	0x19
 10891 2b00 9F01     		.2byte	0x19f
 10892 2b02 8D360000 		.4byte	.LASF562
 10893 2b06 01       		.byte	0x1
 10894 2b07 0F2B0000 		.4byte	0x2b0f
 10895 2b0b 1A2B0000 		.4byte	0x2b1a
 10896 2b0f 11       		.uleb128 0x11
 10897 2b10 063E0000 		.4byte	0x3e06
 10898 2b14 0E       		.uleb128 0xe
 10899 2b15 0C3E0000 		.4byte	0x3e0c
 10900 2b19 00       		.byte	0
 10901 2b1a 4B       		.uleb128 0x4b
 10902 2b1b AF0F0000 		.4byte	.LASF480
 10903 2b1f 19       		.byte	0x19
 10904 2b20 0E02     		.2byte	0x20e
 10905 2b22 B9370000 		.4byte	.LASF563
 10906 2b26 E7360000 		.4byte	0x36e7
 10907 2b2a 01       		.byte	0x1
 10908 2b2b 332B0000 		.4byte	0x2b33
 10909 2b2f 3E2B0000 		.4byte	0x2b3e
 10910 2b33 11       		.uleb128 0x11
 10911 2b34 063E0000 		.4byte	0x3e06
 10912 2b38 0E       		.uleb128 0xe
 10913 2b39 0C3E0000 		.4byte	0x3e0c
 10914 2b3d 00       		.byte	0
 10915 2b3e 4B       		.uleb128 0x4b
 10916 2b3f 693E0000 		.4byte	.LASF482
 10917 2b43 19       		.byte	0x19
 10918 2b44 1F02     		.2byte	0x21f
 10919 2b46 7D040000 		.4byte	.LASF564
 10920 2b4a 30000000 		.4byte	0x30
 10921 2b4e 01       		.byte	0x1
 10922 2b4f 572B0000 		.4byte	0x2b57
 10923 2b53 622B0000 		.4byte	0x2b62
 10924 2b57 11       		.uleb128 0x11
 10925 2b58 003E0000 		.4byte	0x3e00
 10926 2b5c 0E       		.uleb128 0xe
 10927 2b5d DA3D0000 		.4byte	0x3dda
 10928 2b61 00       		.byte	0
 10929 2b62 4B       		.uleb128 0x4b
 10930 2b63 52090000 		.4byte	.LASF484
 10931 2b67 19       		.byte	0x19
 10932 2b68 2C02     		.2byte	0x22c
 10933 2b6a 43140000 		.4byte	.LASF565
 10934 2b6e E7360000 		.4byte	0x36e7
 10935 2b72 01       		.byte	0x1
 10936 2b73 7B2B0000 		.4byte	0x2b7b
 10937 2b77 862B0000 		.4byte	0x2b86
 10938 2b7b 11       		.uleb128 0x11
 10939 2b7c 003E0000 		.4byte	0x3e00
 10940 2b80 0E       		.uleb128 0xe
ARM GAS  /tmp/cc5OZvFd.s 			page 193


 10941 2b81 DA3D0000 		.4byte	0x3dda
 10942 2b85 00       		.byte	0
 10943 2b86 4B       		.uleb128 0x4b
 10944 2b87 033C0000 		.4byte	.LASF486
 10945 2b8b 19       		.byte	0x19
 10946 2b8c 3802     		.2byte	0x238
 10947 2b8e E03F0000 		.4byte	.LASF566
 10948 2b92 123E0000 		.4byte	0x3e12
 10949 2b96 01       		.byte	0x1
 10950 2b97 9F2B0000 		.4byte	0x2b9f
 10951 2b9b AA2B0000 		.4byte	0x2baa
 10952 2b9f 11       		.uleb128 0x11
 10953 2ba0 003E0000 		.4byte	0x3e00
 10954 2ba4 0E       		.uleb128 0xe
 10955 2ba5 602A0000 		.4byte	0x2a60
 10956 2ba9 00       		.byte	0
 10957 2baa 4B       		.uleb128 0x4b
 10958 2bab 033C0000 		.4byte	.LASF486
 10959 2baf 19       		.byte	0x19
 10960 2bb0 4402     		.2byte	0x244
 10961 2bb2 321E0000 		.4byte	.LASF567
 10962 2bb6 123E0000 		.4byte	0x3e12
 10963 2bba 01       		.byte	0x1
 10964 2bbb C32B0000 		.4byte	0x2bc3
 10965 2bbf D32B0000 		.4byte	0x2bd3
 10966 2bc3 11       		.uleb128 0x11
 10967 2bc4 003E0000 		.4byte	0x3e00
 10968 2bc8 0E       		.uleb128 0xe
 10969 2bc9 6C2A0000 		.4byte	0x2a6c
 10970 2bcd 0E       		.uleb128 0xe
 10971 2bce AF3B0000 		.4byte	0x3baf
 10972 2bd2 00       		.byte	0
 10973 2bd3 4B       		.uleb128 0x4b
 10974 2bd4 06040000 		.4byte	.LASF489
 10975 2bd8 19       		.byte	0x19
 10976 2bd9 B301     		.2byte	0x1b3
 10977 2bdb F9160000 		.4byte	.LASF568
 10978 2bdf F22B0000 		.4byte	0x2bf2
 10979 2be3 01       		.byte	0x1
 10980 2be4 EC2B0000 		.4byte	0x2bec
 10981 2be8 F22B0000 		.4byte	0x2bf2
 10982 2bec 11       		.uleb128 0x11
 10983 2bed 063E0000 		.4byte	0x3e06
 10984 2bf1 00       		.byte	0
 10985 2bf2 08       		.uleb128 0x8
 10986 2bf3 4C2A0000 		.4byte	0x2a4c
 10987 2bf7 4B       		.uleb128 0x4b
 10988 2bf8 901B0000 		.4byte	.LASF491
 10989 2bfc 19       		.byte	0x19
 10990 2bfd B701     		.2byte	0x1b7
 10991 2bff 8B370000 		.4byte	.LASF569
 10992 2c03 F22B0000 		.4byte	0x2bf2
 10993 2c07 01       		.byte	0x1
 10994 2c08 102C0000 		.4byte	0x2c10
 10995 2c0c 162C0000 		.4byte	0x2c16
 10996 2c10 11       		.uleb128 0x11
 10997 2c11 063E0000 		.4byte	0x3e06
ARM GAS  /tmp/cc5OZvFd.s 			page 194


 10998 2c15 00       		.byte	0
 10999 2c16 4C       		.uleb128 0x4c
 11000 2c17 5E040000 		.4byte	.LASF493
 11001 2c1b 19       		.byte	0x19
 11002 2c1c BB01     		.2byte	0x1bb
 11003 2c1e 59400000 		.4byte	.LASF570
 11004 2c22 01       		.byte	0x1
 11005 2c23 2B2C0000 		.4byte	0x2c2b
 11006 2c27 362C0000 		.4byte	0x2c36
 11007 2c2b 11       		.uleb128 0x11
 11008 2c2c 063E0000 		.4byte	0x3e06
 11009 2c30 0E       		.uleb128 0xe
 11010 2c31 183E0000 		.4byte	0x3e18
 11011 2c35 00       		.byte	0
 11012 2c36 4B       		.uleb128 0x4b
 11013 2c37 06040000 		.4byte	.LASF489
 11014 2c3b 19       		.byte	0x19
 11015 2c3c BF01     		.2byte	0x1bf
 11016 2c3e 18290000 		.4byte	.LASF571
 11017 2c42 552C0000 		.4byte	0x2c55
 11018 2c46 01       		.byte	0x1
 11019 2c47 4F2C0000 		.4byte	0x2c4f
 11020 2c4b 552C0000 		.4byte	0x2c55
 11021 2c4f 11       		.uleb128 0x11
 11022 2c50 003E0000 		.4byte	0x3e00
 11023 2c54 00       		.byte	0
 11024 2c55 08       		.uleb128 0x8
 11025 2c56 512A0000 		.4byte	0x2a51
 11026 2c5a 4B       		.uleb128 0x4b
 11027 2c5b 901B0000 		.4byte	.LASF491
 11028 2c5f 19       		.byte	0x19
 11029 2c60 C301     		.2byte	0x1c3
 11030 2c62 67120000 		.4byte	.LASF572
 11031 2c66 552C0000 		.4byte	0x2c55
 11032 2c6a 01       		.byte	0x1
 11033 2c6b 732C0000 		.4byte	0x2c73
 11034 2c6f 792C0000 		.4byte	0x2c79
 11035 2c73 11       		.uleb128 0x11
 11036 2c74 003E0000 		.4byte	0x3e00
 11037 2c78 00       		.byte	0
 11038 2c79 4C       		.uleb128 0x4c
 11039 2c7a 5E040000 		.4byte	.LASF493
 11040 2c7e 19       		.byte	0x19
 11041 2c7f C701     		.2byte	0x1c7
 11042 2c81 240E0000 		.4byte	.LASF573
 11043 2c85 01       		.byte	0x1
 11044 2c86 8E2C0000 		.4byte	0x2c8e
 11045 2c8a 992C0000 		.4byte	0x2c99
 11046 2c8e 11       		.uleb128 0x11
 11047 2c8f 003E0000 		.4byte	0x3e00
 11048 2c93 0E       		.uleb128 0xe
 11049 2c94 1E3E0000 		.4byte	0x3e1e
 11050 2c98 00       		.byte	0
 11051 2c99 4B       		.uleb128 0x4b
 11052 2c9a E03D0000 		.4byte	.LASF498
 11053 2c9e 19       		.byte	0x19
 11054 2c9f 5302     		.2byte	0x253
ARM GAS  /tmp/cc5OZvFd.s 			page 195


 11055 2ca1 A1240000 		.4byte	.LASF574
 11056 2ca5 FA3D0000 		.4byte	0x3dfa
 11057 2ca9 01       		.byte	0x1
 11058 2caa B22C0000 		.4byte	0x2cb2
 11059 2cae B82C0000 		.4byte	0x2cb8
 11060 2cb2 11       		.uleb128 0x11
 11061 2cb3 003E0000 		.4byte	0x3e00
 11062 2cb7 00       		.byte	0
 11063 2cb8 4B       		.uleb128 0x4b
 11064 2cb9 951F0000 		.4byte	.LASF500
 11065 2cbd 19       		.byte	0x19
 11066 2cbe 5D02     		.2byte	0x25d
 11067 2cc0 17140000 		.4byte	.LASF575
 11068 2cc4 E7360000 		.4byte	0x36e7
 11069 2cc8 01       		.byte	0x1
 11070 2cc9 D12C0000 		.4byte	0x2cd1
 11071 2ccd D72C0000 		.4byte	0x2cd7
 11072 2cd1 11       		.uleb128 0x11
 11073 2cd2 003E0000 		.4byte	0x3e00
 11074 2cd6 00       		.byte	0
 11075 2cd7 4B       		.uleb128 0x4b
 11076 2cd8 73290000 		.4byte	.LASF166
 11077 2cdc 19       		.byte	0x19
 11078 2cdd 6702     		.2byte	0x267
 11079 2cdf 482B0000 		.4byte	.LASF576
 11080 2ce3 37000000 		.4byte	0x37
 11081 2ce7 01       		.byte	0x1
 11082 2ce8 F02C0000 		.4byte	0x2cf0
 11083 2cec F62C0000 		.4byte	0x2cf6
 11084 2cf0 11       		.uleb128 0x11
 11085 2cf1 003E0000 		.4byte	0x3e00
 11086 2cf5 00       		.byte	0
 11087 2cf6 4C       		.uleb128 0x4c
 11088 2cf7 18220000 		.4byte	.LASF503
 11089 2cfb 19       		.byte	0x19
 11090 2cfc 7602     		.2byte	0x276
 11091 2cfe 1E250000 		.4byte	.LASF577
 11092 2d02 01       		.byte	0x1
 11093 2d03 0B2D0000 		.4byte	0x2d0b
 11094 2d07 162D0000 		.4byte	0x2d16
 11095 2d0b 11       		.uleb128 0x11
 11096 2d0c 063E0000 		.4byte	0x3e06
 11097 2d10 0E       		.uleb128 0xe
 11098 2d11 0C3E0000 		.4byte	0x3e0c
 11099 2d15 00       		.byte	0
 11100 2d16 4B       		.uleb128 0x4b
 11101 2d17 E3000000 		.4byte	.LASF505
 11102 2d1b 19       		.byte	0x19
 11103 2d1c 8002     		.2byte	0x280
 11104 2d1e B1080000 		.4byte	.LASF578
 11105 2d22 E7360000 		.4byte	0x36e7
 11106 2d26 01       		.byte	0x1
 11107 2d27 2F2D0000 		.4byte	0x2d2f
 11108 2d2b 3A2D0000 		.4byte	0x2d3a
 11109 2d2f 11       		.uleb128 0x11
 11110 2d30 063E0000 		.4byte	0x3e06
 11111 2d34 0E       		.uleb128 0xe
ARM GAS  /tmp/cc5OZvFd.s 			page 196


 11112 2d35 0C3E0000 		.4byte	0x3e0c
 11113 2d39 00       		.byte	0
 11114 2d3a 4B       		.uleb128 0x4b
 11115 2d3b 67260000 		.4byte	.LASF507
 11116 2d3f 19       		.byte	0x19
 11117 2d40 8A02     		.2byte	0x28a
 11118 2d42 A1230000 		.4byte	.LASF579
 11119 2d46 30000000 		.4byte	0x30
 11120 2d4a 01       		.byte	0x1
 11121 2d4b 532D0000 		.4byte	0x2d53
 11122 2d4f 5E2D0000 		.4byte	0x2d5e
 11123 2d53 11       		.uleb128 0x11
 11124 2d54 003E0000 		.4byte	0x3e00
 11125 2d58 0E       		.uleb128 0xe
 11126 2d59 DA3D0000 		.4byte	0x3dda
 11127 2d5d 00       		.byte	0
 11128 2d5e 4B       		.uleb128 0x4b
 11129 2d5f 3E370000 		.4byte	.LASF509
 11130 2d63 19       		.byte	0x19
 11131 2d64 9B02     		.2byte	0x29b
 11132 2d66 6C200000 		.4byte	.LASF580
 11133 2d6a E7360000 		.4byte	0x36e7
 11134 2d6e 01       		.byte	0x1
 11135 2d6f 772D0000 		.4byte	0x2d77
 11136 2d73 822D0000 		.4byte	0x2d82
 11137 2d77 11       		.uleb128 0x11
 11138 2d78 003E0000 		.4byte	0x3e00
 11139 2d7c 0E       		.uleb128 0xe
 11140 2d7d DA3D0000 		.4byte	0x3dda
 11141 2d81 00       		.byte	0
 11142 2d82 4B       		.uleb128 0x4b
 11143 2d83 DD2A0000 		.4byte	.LASF511
 11144 2d87 19       		.byte	0x19
 11145 2d88 AC02     		.2byte	0x2ac
 11146 2d8a 6B0C0000 		.4byte	.LASF581
 11147 2d8e 123E0000 		.4byte	0x3e12
 11148 2d92 01       		.byte	0x1
 11149 2d93 9B2D0000 		.4byte	0x2d9b
 11150 2d97 A62D0000 		.4byte	0x2da6
 11151 2d9b 11       		.uleb128 0x11
 11152 2d9c 003E0000 		.4byte	0x3e00
 11153 2da0 0E       		.uleb128 0xe
 11154 2da1 602A0000 		.4byte	0x2a60
 11155 2da5 00       		.byte	0
 11156 2da6 4B       		.uleb128 0x4b
 11157 2da7 DD2A0000 		.4byte	.LASF511
 11158 2dab 19       		.byte	0x19
 11159 2dac BC02     		.2byte	0x2bc
 11160 2dae 324A0000 		.4byte	.LASF582
 11161 2db2 123E0000 		.4byte	0x3e12
 11162 2db6 01       		.byte	0x1
 11163 2db7 BF2D0000 		.4byte	0x2dbf
 11164 2dbb CF2D0000 		.4byte	0x2dcf
 11165 2dbf 11       		.uleb128 0x11
 11166 2dc0 003E0000 		.4byte	0x3e00
 11167 2dc4 0E       		.uleb128 0xe
 11168 2dc5 6C2A0000 		.4byte	0x2a6c
ARM GAS  /tmp/cc5OZvFd.s 			page 197


 11169 2dc9 0E       		.uleb128 0xe
 11170 2dca AF3B0000 		.4byte	0x3baf
 11171 2dce 00       		.byte	0
 11172 2dcf 4B       		.uleb128 0x4b
 11173 2dd0 93320000 		.4byte	.LASF44
 11174 2dd4 19       		.byte	0x19
 11175 2dd5 E001     		.2byte	0x1e0
 11176 2dd7 3B210000 		.4byte	.LASF583
 11177 2ddb EE2D0000 		.4byte	0x2dee
 11178 2ddf 01       		.byte	0x1
 11179 2de0 E82D0000 		.4byte	0x2de8
 11180 2de4 EE2D0000 		.4byte	0x2dee
 11181 2de8 11       		.uleb128 0x11
 11182 2de9 063E0000 		.4byte	0x3e06
 11183 2ded 00       		.byte	0
 11184 2dee 08       		.uleb128 0x8
 11185 2def 562A0000 		.4byte	0x2a56
 11186 2df3 4D       		.uleb128 0x4d
 11187 2df4 656E6400 		.ascii	"end\000"
 11188 2df8 19       		.byte	0x19
 11189 2df9 E401     		.2byte	0x1e4
 11190 2dfb DB3C0000 		.4byte	.LASF584
 11191 2dff EE2D0000 		.4byte	0x2dee
 11192 2e03 01       		.byte	0x1
 11193 2e04 0C2E0000 		.4byte	0x2e0c
 11194 2e08 122E0000 		.4byte	0x2e12
 11195 2e0c 11       		.uleb128 0x11
 11196 2e0d 063E0000 		.4byte	0x3e06
 11197 2e11 00       		.byte	0
 11198 2e12 4C       		.uleb128 0x4c
 11199 2e13 EF1D0000 		.4byte	.LASF515
 11200 2e17 19       		.byte	0x19
 11201 2e18 E801     		.2byte	0x1e8
 11202 2e1a 80280000 		.4byte	.LASF585
 11203 2e1e 01       		.byte	0x1
 11204 2e1f 272E0000 		.4byte	0x2e27
 11205 2e23 322E0000 		.4byte	0x2e32
 11206 2e27 11       		.uleb128 0x11
 11207 2e28 063E0000 		.4byte	0x3e06
 11208 2e2c 0E       		.uleb128 0xe
 11209 2e2d 243E0000 		.4byte	0x3e24
 11210 2e31 00       		.byte	0
 11211 2e32 4B       		.uleb128 0x4b
 11212 2e33 93320000 		.4byte	.LASF44
 11213 2e37 19       		.byte	0x19
 11214 2e38 EC01     		.2byte	0x1ec
 11215 2e3a E93E0000 		.4byte	.LASF586
 11216 2e3e 512E0000 		.4byte	0x2e51
 11217 2e42 01       		.byte	0x1
 11218 2e43 4B2E0000 		.4byte	0x2e4b
 11219 2e47 512E0000 		.4byte	0x2e51
 11220 2e4b 11       		.uleb128 0x11
 11221 2e4c 003E0000 		.4byte	0x3e00
 11222 2e50 00       		.byte	0
 11223 2e51 08       		.uleb128 0x8
 11224 2e52 5B2A0000 		.4byte	0x2a5b
 11225 2e56 4D       		.uleb128 0x4d
ARM GAS  /tmp/cc5OZvFd.s 			page 198


 11226 2e57 656E6400 		.ascii	"end\000"
 11227 2e5b 19       		.byte	0x19
 11228 2e5c F201     		.2byte	0x1f2
 11229 2e5e 6F270000 		.4byte	.LASF587
 11230 2e62 512E0000 		.4byte	0x2e51
 11231 2e66 01       		.byte	0x1
 11232 2e67 6F2E0000 		.4byte	0x2e6f
 11233 2e6b 752E0000 		.4byte	0x2e75
 11234 2e6f 11       		.uleb128 0x11
 11235 2e70 003E0000 		.4byte	0x3e00
 11236 2e74 00       		.byte	0
 11237 2e75 4C       		.uleb128 0x4c
 11238 2e76 EF1D0000 		.4byte	.LASF515
 11239 2e7a 19       		.byte	0x19
 11240 2e7b F601     		.2byte	0x1f6
 11241 2e7d BA160000 		.4byte	.LASF588
 11242 2e81 01       		.byte	0x1
 11243 2e82 8A2E0000 		.4byte	0x2e8a
 11244 2e86 952E0000 		.4byte	0x2e95
 11245 2e8a 11       		.uleb128 0x11
 11246 2e8b 003E0000 		.4byte	0x3e00
 11247 2e8f 0E       		.uleb128 0xe
 11248 2e90 2A3E0000 		.4byte	0x3e2a
 11249 2e94 00       		.byte	0
 11250 2e95 4E       		.uleb128 0x4e
 11251 2e96 6A3D0000 		.4byte	.LASF521
 11252 2e9a 19       		.byte	0x19
 11253 2e9b FA01     		.2byte	0x1fa
 11254 2e9d 063E0000 		.4byte	0x3e06
 11255 2ea1 01       		.byte	0x1
 11256 2ea2 AA2E0000 		.4byte	0x2eaa
 11257 2ea6 B02E0000 		.4byte	0x2eb0
 11258 2eaa 11       		.uleb128 0x11
 11259 2eab 063E0000 		.4byte	0x3e06
 11260 2eaf 00       		.byte	0
 11261 2eb0 23       		.uleb128 0x23
 11262 2eb1 2B340000 		.4byte	.LASF522
 11263 2eb5 BF2E0000 		.4byte	0x2ebf
 11264 2eb9 00       		.byte	0
 11265 2eba 08       		.uleb128 0x8
 11266 2ebb BF2E0000 		.4byte	0x2ebf
 11267 2ebf 0F       		.uleb128 0xf
 11268 2ec0 0B350000 		.4byte	.LASF589
 11269 2ec4 30       		.byte	0x30
 11270 2ec5 0D       		.byte	0xd
 11271 2ec6 17       		.byte	0x17
 11272 2ec7 2F340000 		.4byte	0x342f
 11273 2ecb 14       		.uleb128 0x14
 11274 2ecc A6010000 		.4byte	0x1a6
 11275 2ed0 00       		.byte	0
 11276 2ed1 19       		.uleb128 0x19
 11277 2ed2 EC410000 		.4byte	.LASF590
 11278 2ed6 0D       		.byte	0xd
 11279 2ed7 1B       		.byte	0x1b
 11280 2ed8 3B3E0000 		.4byte	0x3e3b
 11281 2edc 00       		.byte	0
 11282 2edd 19       		.uleb128 0x19
ARM GAS  /tmp/cc5OZvFd.s 			page 199


 11283 2ede A7490000 		.4byte	.LASF591
 11284 2ee2 0D       		.byte	0xd
 11285 2ee3 1C       		.byte	0x1c
 11286 2ee4 9D130000 		.4byte	0x139d
 11287 2ee8 04       		.byte	0x4
 11288 2ee9 19       		.uleb128 0x19
 11289 2eea DA130000 		.4byte	.LASF592
 11290 2eee 0D       		.byte	0xd
 11291 2eef 1D       		.byte	0x1d
 11292 2ef0 DF110000 		.4byte	0x11df
 11293 2ef4 08       		.byte	0x8
 11294 2ef5 19       		.uleb128 0x19
 11295 2ef6 51390000 		.4byte	.LASF593
 11296 2efa 0D       		.byte	0xd
 11297 2efb 1E       		.byte	0x1e
 11298 2efc 37000000 		.4byte	0x37
 11299 2f00 14       		.byte	0x14
 11300 2f01 19       		.uleb128 0x19
 11301 2f02 331F0000 		.4byte	.LASF594
 11302 2f06 0D       		.byte	0xd
 11303 2f07 1F       		.byte	0x1f
 11304 2f08 37000000 		.4byte	0x37
 11305 2f0c 18       		.byte	0x18
 11306 2f0d 19       		.uleb128 0x19
 11307 2f0e EC140000 		.4byte	.LASF595
 11308 2f12 0D       		.byte	0xd
 11309 2f13 20       		.byte	0x20
 11310 2f14 35200000 		.4byte	0x2035
 11311 2f18 1C       		.byte	0x1c
 11312 2f19 19       		.uleb128 0x19
 11313 2f1a EF0F0000 		.4byte	.LASF596
 11314 2f1e 0D       		.byte	0xd
 11315 2f1f 21       		.byte	0x21
 11316 2f20 11250000 		.4byte	0x2511
 11317 2f24 20       		.byte	0x20
 11318 2f25 19       		.uleb128 0x19
 11319 2f26 CE4B0000 		.4byte	.LASF597
 11320 2f2a 0D       		.byte	0xd
 11321 2f2b 22       		.byte	0x22
 11322 2f2c 37000000 		.4byte	0x37
 11323 2f30 24       		.byte	0x24
 11324 2f31 19       		.uleb128 0x19
 11325 2f32 494C0000 		.4byte	.LASF598
 11326 2f36 0D       		.byte	0xd
 11327 2f37 27       		.byte	0x27
 11328 2f38 FF290000 		.4byte	0x29ff
 11329 2f3c 28       		.byte	0x28
 11330 2f3d 1D       		.uleb128 0x1d
 11331 2f3e 620C0000 		.4byte	.LASF257
 11332 2f42 0D       		.byte	0xd
 11333 2f43 2A       		.byte	0x2a
 11334 2f44 7C210000 		.4byte	.LASF599
 11335 2f48 E0000000 		.4byte	0xe0
 11336 2f4c 01       		.byte	0x1
 11337 2f4d 552F0000 		.4byte	0x2f55
 11338 2f51 5B2F0000 		.4byte	0x2f5b
 11339 2f55 11       		.uleb128 0x11
ARM GAS  /tmp/cc5OZvFd.s 			page 200


 11340 2f56 403E0000 		.4byte	0x3e40
 11341 2f5a 00       		.byte	0
 11342 2f5b 1D       		.uleb128 0x1d
 11343 2f5c F2350000 		.4byte	.LASF600
 11344 2f60 0D       		.byte	0xd
 11345 2f61 2B       		.byte	0x2b
 11346 2f62 B4440000 		.4byte	.LASF601
 11347 2f66 2A3C0000 		.4byte	0x3c2a
 11348 2f6a 01       		.byte	0x1
 11349 2f6b 732F0000 		.4byte	0x2f73
 11350 2f6f 792F0000 		.4byte	0x2f79
 11351 2f73 11       		.uleb128 0x11
 11352 2f74 403E0000 		.4byte	0x3e40
 11353 2f78 00       		.byte	0
 11354 2f79 1D       		.uleb128 0x1d
 11355 2f7a 814A0000 		.4byte	.LASF147
 11356 2f7e 0D       		.byte	0xd
 11357 2f7f 2C       		.byte	0x2c
 11358 2f80 47450000 		.4byte	.LASF602
 11359 2f84 37000000 		.4byte	0x37
 11360 2f88 01       		.byte	0x1
 11361 2f89 912F0000 		.4byte	0x2f91
 11362 2f8d 972F0000 		.4byte	0x2f97
 11363 2f91 11       		.uleb128 0x11
 11364 2f92 403E0000 		.4byte	0x3e40
 11365 2f96 00       		.byte	0
 11366 2f97 1D       		.uleb128 0x1d
 11367 2f98 924C0000 		.4byte	.LASF145
 11368 2f9c 0D       		.byte	0xd
 11369 2f9d 2D       		.byte	0x2d
 11370 2f9e CD200000 		.4byte	.LASF603
 11371 2fa2 37000000 		.4byte	0x37
 11372 2fa6 01       		.byte	0x1
 11373 2fa7 AF2F0000 		.4byte	0x2faf
 11374 2fab B52F0000 		.4byte	0x2fb5
 11375 2faf 11       		.uleb128 0x11
 11376 2fb0 403E0000 		.4byte	0x3e40
 11377 2fb4 00       		.byte	0
 11378 2fb5 1D       		.uleb128 0x1d
 11379 2fb6 D82B0000 		.4byte	.LASF604
 11380 2fba 0D       		.byte	0xd
 11381 2fbb 2E       		.byte	0x2e
 11382 2fbc 45110000 		.4byte	.LASF605
 11383 2fc0 37000000 		.4byte	0x37
 11384 2fc4 01       		.byte	0x1
 11385 2fc5 CD2F0000 		.4byte	0x2fcd
 11386 2fc9 D32F0000 		.4byte	0x2fd3
 11387 2fcd 11       		.uleb128 0x11
 11388 2fce 403E0000 		.4byte	0x3e40
 11389 2fd2 00       		.byte	0
 11390 2fd3 1D       		.uleb128 0x1d
 11391 2fd4 194A0000 		.4byte	.LASF606
 11392 2fd8 0D       		.byte	0xd
 11393 2fd9 2F       		.byte	0x2f
 11394 2fda B82B0000 		.4byte	.LASF607
 11395 2fde E7360000 		.4byte	0x36e7
 11396 2fe2 01       		.byte	0x1
ARM GAS  /tmp/cc5OZvFd.s 			page 201


 11397 2fe3 EB2F0000 		.4byte	0x2feb
 11398 2fe7 F12F0000 		.4byte	0x2ff1
 11399 2feb 11       		.uleb128 0x11
 11400 2fec 403E0000 		.4byte	0x3e40
 11401 2ff0 00       		.byte	0
 11402 2ff1 1D       		.uleb128 0x1d
 11403 2ff2 3E480000 		.4byte	.LASF608
 11404 2ff6 0D       		.byte	0xd
 11405 2ff7 31       		.byte	0x31
 11406 2ff8 B8410000 		.4byte	.LASF609
 11407 2ffc E7360000 		.4byte	0x36e7
 11408 3000 01       		.byte	0x1
 11409 3001 09300000 		.4byte	0x3009
 11410 3005 0F300000 		.4byte	0x300f
 11411 3009 11       		.uleb128 0x11
 11412 300a 403E0000 		.4byte	0x3e40
 11413 300e 00       		.byte	0
 11414 300f 1D       		.uleb128 0x1d
 11415 3010 A20C0000 		.4byte	.LASF610
 11416 3014 0D       		.byte	0xd
 11417 3015 32       		.byte	0x32
 11418 3016 8D2D0000 		.4byte	.LASF611
 11419 301a E7360000 		.4byte	0x36e7
 11420 301e 01       		.byte	0x1
 11421 301f 27300000 		.4byte	0x3027
 11422 3023 2D300000 		.4byte	0x302d
 11423 3027 11       		.uleb128 0x11
 11424 3028 403E0000 		.4byte	0x3e40
 11425 302c 00       		.byte	0
 11426 302d 1D       		.uleb128 0x1d
 11427 302e 4A400000 		.4byte	.LASF612
 11428 3032 0D       		.byte	0xd
 11429 3033 33       		.byte	0x33
 11430 3034 C7190000 		.4byte	.LASF613
 11431 3038 E7360000 		.4byte	0x36e7
 11432 303c 01       		.byte	0x1
 11433 303d 45300000 		.4byte	0x3045
 11434 3041 4B300000 		.4byte	0x304b
 11435 3045 11       		.uleb128 0x11
 11436 3046 403E0000 		.4byte	0x3e40
 11437 304a 00       		.byte	0
 11438 304b 1D       		.uleb128 0x1d
 11439 304c 59240000 		.4byte	.LASF614
 11440 3050 0D       		.byte	0xd
 11441 3051 34       		.byte	0x34
 11442 3052 C4380000 		.4byte	.LASF615
 11443 3056 E7360000 		.4byte	0x36e7
 11444 305a 01       		.byte	0x1
 11445 305b 63300000 		.4byte	0x3063
 11446 305f 69300000 		.4byte	0x3069
 11447 3063 11       		.uleb128 0x11
 11448 3064 403E0000 		.4byte	0x3e40
 11449 3068 00       		.byte	0
 11450 3069 1D       		.uleb128 0x1d
 11451 306a 6A310000 		.4byte	.LASF616
 11452 306e 0D       		.byte	0xd
 11453 306f 35       		.byte	0x35
ARM GAS  /tmp/cc5OZvFd.s 			page 202


 11454 3070 DB180000 		.4byte	.LASF617
 11455 3074 E7360000 		.4byte	0x36e7
 11456 3078 01       		.byte	0x1
 11457 3079 81300000 		.4byte	0x3081
 11458 307d 87300000 		.4byte	0x3087
 11459 3081 11       		.uleb128 0x11
 11460 3082 403E0000 		.4byte	0x3e40
 11461 3086 00       		.byte	0
 11462 3087 1D       		.uleb128 0x1d
 11463 3088 001C0000 		.4byte	.LASF618
 11464 308c 0D       		.byte	0xd
 11465 308d 36       		.byte	0x36
 11466 308e 953E0000 		.4byte	.LASF619
 11467 3092 E7360000 		.4byte	0x36e7
 11468 3096 01       		.byte	0x1
 11469 3097 9F300000 		.4byte	0x309f
 11470 309b A5300000 		.4byte	0x30a5
 11471 309f 11       		.uleb128 0x11
 11472 30a0 403E0000 		.4byte	0x3e40
 11473 30a4 00       		.byte	0
 11474 30a5 1D       		.uleb128 0x1d
 11475 30a6 40050000 		.4byte	.LASF620
 11476 30aa 0D       		.byte	0xd
 11477 30ab 37       		.byte	0x37
 11478 30ac CF480000 		.4byte	.LASF621
 11479 30b0 E7360000 		.4byte	0x36e7
 11480 30b4 01       		.byte	0x1
 11481 30b5 BD300000 		.4byte	0x30bd
 11482 30b9 C3300000 		.4byte	0x30c3
 11483 30bd 11       		.uleb128 0x11
 11484 30be 403E0000 		.4byte	0x3e40
 11485 30c2 00       		.byte	0
 11486 30c3 1D       		.uleb128 0x1d
 11487 30c4 F22D0000 		.4byte	.LASF622
 11488 30c8 0D       		.byte	0xd
 11489 30c9 38       		.byte	0x38
 11490 30ca E2260000 		.4byte	.LASF623
 11491 30ce E7360000 		.4byte	0x36e7
 11492 30d2 01       		.byte	0x1
 11493 30d3 DB300000 		.4byte	0x30db
 11494 30d7 E1300000 		.4byte	0x30e1
 11495 30db 11       		.uleb128 0x11
 11496 30dc 403E0000 		.4byte	0x3e40
 11497 30e0 00       		.byte	0
 11498 30e1 1D       		.uleb128 0x1d
 11499 30e2 F91A0000 		.4byte	.LASF624
 11500 30e6 0D       		.byte	0xd
 11501 30e7 3A       		.byte	0x3a
 11502 30e8 753D0000 		.4byte	.LASF625
 11503 30ec 98130000 		.4byte	0x1398
 11504 30f0 01       		.byte	0x1
 11505 30f1 F9300000 		.4byte	0x30f9
 11506 30f5 04310000 		.4byte	0x3104
 11507 30f9 11       		.uleb128 0x11
 11508 30fa 403E0000 		.4byte	0x3e40
 11509 30fe 0E       		.uleb128 0xe
 11510 30ff 2A3C0000 		.4byte	0x3c2a
ARM GAS  /tmp/cc5OZvFd.s 			page 203


 11511 3103 00       		.byte	0
 11512 3104 1D       		.uleb128 0x1d
 11513 3105 F91A0000 		.4byte	.LASF624
 11514 3109 0D       		.byte	0xd
 11515 310a 3B       		.byte	0x3b
 11516 310b 973A0000 		.4byte	.LASF626
 11517 310f 98130000 		.4byte	0x1398
 11518 3113 01       		.byte	0x1
 11519 3114 1C310000 		.4byte	0x311c
 11520 3118 22310000 		.4byte	0x3122
 11521 311c 11       		.uleb128 0x11
 11522 311d 403E0000 		.4byte	0x3e40
 11523 3121 00       		.byte	0
 11524 3122 1D       		.uleb128 0x1d
 11525 3123 35100000 		.4byte	.LASF287
 11526 3127 0D       		.byte	0xd
 11527 3128 3C       		.byte	0x3c
 11528 3129 FA120000 		.4byte	.LASF627
 11529 312d D43B0000 		.4byte	0x3bd4
 11530 3131 01       		.byte	0x1
 11531 3132 3A310000 		.4byte	0x313a
 11532 3136 40310000 		.4byte	0x3140
 11533 313a 11       		.uleb128 0x11
 11534 313b 123E0000 		.4byte	0x3e12
 11535 313f 00       		.byte	0
 11536 3140 1D       		.uleb128 0x1d
 11537 3141 AD1E0000 		.4byte	.LASF134
 11538 3145 0D       		.byte	0xd
 11539 3146 3E       		.byte	0x3e
 11540 3147 CC010000 		.4byte	.LASF628
 11541 314b E7360000 		.4byte	0x36e7
 11542 314f 01       		.byte	0x1
 11543 3150 58310000 		.4byte	0x3158
 11544 3154 63310000 		.4byte	0x3163
 11545 3158 11       		.uleb128 0x11
 11546 3159 123E0000 		.4byte	0x3e12
 11547 315d 0E       		.uleb128 0xe
 11548 315e DA3B0000 		.4byte	0x3bda
 11549 3162 00       		.byte	0
 11550 3163 1B       		.uleb128 0x1b
 11551 3164 792C0000 		.4byte	.LASF289
 11552 3168 0D       		.byte	0xd
 11553 3169 3F       		.byte	0x3f
 11554 316a 37120000 		.4byte	.LASF629
 11555 316e 01       		.byte	0x1
 11556 316f 77310000 		.4byte	0x3177
 11557 3173 82310000 		.4byte	0x3182
 11558 3177 11       		.uleb128 0x11
 11559 3178 123E0000 		.4byte	0x3e12
 11560 317c 0E       		.uleb128 0xe
 11561 317d DA3B0000 		.4byte	0x3bda
 11562 3181 00       		.byte	0
 11563 3182 1D       		.uleb128 0x1d
 11564 3183 EE3B0000 		.4byte	.LASF630
 11565 3187 0D       		.byte	0xd
 11566 3188 40       		.byte	0x40
 11567 3189 5E0B0000 		.4byte	.LASF631
ARM GAS  /tmp/cc5OZvFd.s 			page 204


 11568 318d E7360000 		.4byte	0x36e7
 11569 3191 01       		.byte	0x1
 11570 3192 9A310000 		.4byte	0x319a
 11571 3196 AA310000 		.4byte	0x31aa
 11572 319a 11       		.uleb128 0x11
 11573 319b 123E0000 		.4byte	0x3e12
 11574 319f 0E       		.uleb128 0xe
 11575 31a0 DA3B0000 		.4byte	0x3bda
 11576 31a4 0E       		.uleb128 0xe
 11577 31a5 2A3C0000 		.4byte	0x3c2a
 11578 31a9 00       		.byte	0
 11579 31aa 1D       		.uleb128 0x1d
 11580 31ab 191C0000 		.4byte	.LASF632
 11581 31af 0D       		.byte	0xd
 11582 31b0 41       		.byte	0x41
 11583 31b1 8F2F0000 		.4byte	.LASF633
 11584 31b5 E7360000 		.4byte	0x36e7
 11585 31b9 01       		.byte	0x1
 11586 31ba C2310000 		.4byte	0x31c2
 11587 31be D2310000 		.4byte	0x31d2
 11588 31c2 11       		.uleb128 0x11
 11589 31c3 123E0000 		.4byte	0x3e12
 11590 31c7 0E       		.uleb128 0xe
 11591 31c8 DA3B0000 		.4byte	0x3bda
 11592 31cc 0E       		.uleb128 0xe
 11593 31cd 2A3C0000 		.4byte	0x3c2a
 11594 31d1 00       		.byte	0
 11595 31d2 1D       		.uleb128 0x1d
 11596 31d3 58010000 		.4byte	.LASF634
 11597 31d7 0D       		.byte	0xd
 11598 31d8 42       		.byte	0x42
 11599 31d9 AE4C0000 		.4byte	.LASF635
 11600 31dd E7360000 		.4byte	0x36e7
 11601 31e1 01       		.byte	0x1
 11602 31e2 EA310000 		.4byte	0x31ea
 11603 31e6 FA310000 		.4byte	0x31fa
 11604 31ea 11       		.uleb128 0x11
 11605 31eb 123E0000 		.4byte	0x3e12
 11606 31ef 0E       		.uleb128 0xe
 11607 31f0 E03B0000 		.4byte	0x3be0
 11608 31f4 0E       		.uleb128 0xe
 11609 31f5 2A3C0000 		.4byte	0x3c2a
 11610 31f9 00       		.byte	0
 11611 31fa 1D       		.uleb128 0x1d
 11612 31fb BA030000 		.4byte	.LASF636
 11613 31ff 0D       		.byte	0xd
 11614 3200 45       		.byte	0x45
 11615 3201 C21D0000 		.4byte	.LASF637
 11616 3205 98130000 		.4byte	0x1398
 11617 3209 01       		.byte	0x1
 11618 320a 12320000 		.4byte	0x3212
 11619 320e 1D320000 		.4byte	0x321d
 11620 3212 11       		.uleb128 0x11
 11621 3213 403E0000 		.4byte	0x3e40
 11622 3217 0E       		.uleb128 0xe
 11623 3218 2A3C0000 		.4byte	0x3c2a
 11624 321c 00       		.byte	0
ARM GAS  /tmp/cc5OZvFd.s 			page 205


 11625 321d 1D       		.uleb128 0x1d
 11626 321e BA030000 		.4byte	.LASF636
 11627 3222 0D       		.byte	0xd
 11628 3223 46       		.byte	0x46
 11629 3224 49000000 		.4byte	.LASF638
 11630 3228 98130000 		.4byte	0x1398
 11631 322c 01       		.byte	0x1
 11632 322d 35320000 		.4byte	0x3235
 11633 3231 3B320000 		.4byte	0x323b
 11634 3235 11       		.uleb128 0x11
 11635 3236 403E0000 		.4byte	0x3e40
 11636 323a 00       		.byte	0
 11637 323b 1D       		.uleb128 0x1d
 11638 323c 96290000 		.4byte	.LASF291
 11639 3240 0D       		.byte	0xd
 11640 3241 47       		.byte	0x47
 11641 3242 F10B0000 		.4byte	.LASF639
 11642 3246 D43B0000 		.4byte	0x3bd4
 11643 324a 01       		.byte	0x1
 11644 324b 53320000 		.4byte	0x3253
 11645 324f 59320000 		.4byte	0x3259
 11646 3253 11       		.uleb128 0x11
 11647 3254 123E0000 		.4byte	0x3e12
 11648 3258 00       		.byte	0
 11649 3259 1D       		.uleb128 0x1d
 11650 325a BD450000 		.4byte	.LASF27
 11651 325e 0D       		.byte	0xd
 11652 325f 49       		.byte	0x49
 11653 3260 7E2B0000 		.4byte	.LASF640
 11654 3264 E7360000 		.4byte	0x36e7
 11655 3268 01       		.byte	0x1
 11656 3269 71320000 		.4byte	0x3271
 11657 326d 7C320000 		.4byte	0x327c
 11658 3271 11       		.uleb128 0x11
 11659 3272 123E0000 		.4byte	0x3e12
 11660 3276 0E       		.uleb128 0xe
 11661 3277 DA3B0000 		.4byte	0x3bda
 11662 327b 00       		.byte	0
 11663 327c 1B       		.uleb128 0x1b
 11664 327d CD460000 		.4byte	.LASF293
 11665 3281 0D       		.byte	0xd
 11666 3282 4A       		.byte	0x4a
 11667 3283 C9170000 		.4byte	.LASF641
 11668 3287 01       		.byte	0x1
 11669 3288 90320000 		.4byte	0x3290
 11670 328c 9B320000 		.4byte	0x329b
 11671 3290 11       		.uleb128 0x11
 11672 3291 123E0000 		.4byte	0x3e12
 11673 3295 0E       		.uleb128 0xe
 11674 3296 DA3B0000 		.4byte	0x3bda
 11675 329a 00       		.byte	0
 11676 329b 1D       		.uleb128 0x1d
 11677 329c 1B240000 		.4byte	.LASF642
 11678 32a0 0D       		.byte	0xd
 11679 32a1 4B       		.byte	0x4b
 11680 32a2 DA110000 		.4byte	.LASF643
 11681 32a6 E7360000 		.4byte	0x36e7
ARM GAS  /tmp/cc5OZvFd.s 			page 206


 11682 32aa 01       		.byte	0x1
 11683 32ab B3320000 		.4byte	0x32b3
 11684 32af C3320000 		.4byte	0x32c3
 11685 32b3 11       		.uleb128 0x11
 11686 32b4 123E0000 		.4byte	0x3e12
 11687 32b8 0E       		.uleb128 0xe
 11688 32b9 DA3B0000 		.4byte	0x3bda
 11689 32bd 0E       		.uleb128 0xe
 11690 32be 2A3C0000 		.4byte	0x3c2a
 11691 32c2 00       		.byte	0
 11692 32c3 1D       		.uleb128 0x1d
 11693 32c4 A00F0000 		.4byte	.LASF644
 11694 32c8 0D       		.byte	0xd
 11695 32c9 4C       		.byte	0x4c
 11696 32ca 111B0000 		.4byte	.LASF645
 11697 32ce E7360000 		.4byte	0x36e7
 11698 32d2 01       		.byte	0x1
 11699 32d3 DB320000 		.4byte	0x32db
 11700 32d7 EB320000 		.4byte	0x32eb
 11701 32db 11       		.uleb128 0x11
 11702 32dc 123E0000 		.4byte	0x3e12
 11703 32e0 0E       		.uleb128 0xe
 11704 32e1 DA3B0000 		.4byte	0x3bda
 11705 32e5 0E       		.uleb128 0xe
 11706 32e6 2A3C0000 		.4byte	0x3c2a
 11707 32ea 00       		.byte	0
 11708 32eb 1D       		.uleb128 0x1d
 11709 32ec 8F4A0000 		.4byte	.LASF646
 11710 32f0 0D       		.byte	0xd
 11711 32f1 4D       		.byte	0x4d
 11712 32f2 71490000 		.4byte	.LASF647
 11713 32f6 E7360000 		.4byte	0x36e7
 11714 32fa 01       		.byte	0x1
 11715 32fb 03330000 		.4byte	0x3303
 11716 32ff 13330000 		.4byte	0x3313
 11717 3303 11       		.uleb128 0x11
 11718 3304 123E0000 		.4byte	0x3e12
 11719 3308 0E       		.uleb128 0xe
 11720 3309 E03B0000 		.4byte	0x3be0
 11721 330d 0E       		.uleb128 0xe
 11722 330e 2A3C0000 		.4byte	0x3c2a
 11723 3312 00       		.byte	0
 11724 3313 1B       		.uleb128 0x1b
 11725 3314 38090000 		.4byte	.LASF648
 11726 3318 0D       		.byte	0xd
 11727 3319 4E       		.byte	0x4e
 11728 331a EF270000 		.4byte	.LASF649
 11729 331e 01       		.byte	0x1
 11730 331f 27330000 		.4byte	0x3327
 11731 3323 37330000 		.4byte	0x3337
 11732 3327 11       		.uleb128 0x11
 11733 3328 123E0000 		.4byte	0x3e12
 11734 332c 0E       		.uleb128 0xe
 11735 332d D43B0000 		.4byte	0x3bd4
 11736 3331 0E       		.uleb128 0xe
 11737 3332 37000000 		.4byte	0x37
 11738 3336 00       		.byte	0
ARM GAS  /tmp/cc5OZvFd.s 			page 207


 11739 3337 1B       		.uleb128 0x1b
 11740 3338 60130000 		.4byte	.LASF650
 11741 333c 0D       		.byte	0xd
 11742 333d 50       		.byte	0x50
 11743 333e CD050000 		.4byte	.LASF651
 11744 3342 01       		.byte	0x1
 11745 3343 4B330000 		.4byte	0x334b
 11746 3347 5B330000 		.4byte	0x335b
 11747 334b 11       		.uleb128 0x11
 11748 334c 123E0000 		.4byte	0x3e12
 11749 3350 0E       		.uleb128 0xe
 11750 3351 463E0000 		.4byte	0x3e46
 11751 3355 0E       		.uleb128 0xe
 11752 3356 2A3C0000 		.4byte	0x3c2a
 11753 335a 00       		.byte	0
 11754 335b 1B       		.uleb128 0x1b
 11755 335c 60130000 		.4byte	.LASF650
 11756 3360 0D       		.byte	0xd
 11757 3361 51       		.byte	0x51
 11758 3362 85460000 		.4byte	.LASF652
 11759 3366 01       		.byte	0x1
 11760 3367 6F330000 		.4byte	0x336f
 11761 336b 7F330000 		.4byte	0x337f
 11762 336f 11       		.uleb128 0x11
 11763 3370 123E0000 		.4byte	0x3e12
 11764 3374 0E       		.uleb128 0xe
 11765 3375 4C3E0000 		.4byte	0x3e4c
 11766 3379 0E       		.uleb128 0xe
 11767 337a 2A3C0000 		.4byte	0x3c2a
 11768 337e 00       		.byte	0
 11769 337f 1B       		.uleb128 0x1b
 11770 3380 B5020000 		.4byte	.LASF653
 11771 3384 0D       		.byte	0xd
 11772 3385 52       		.byte	0x52
 11773 3386 96270000 		.4byte	.LASF654
 11774 338a 01       		.byte	0x1
 11775 338b 93330000 		.4byte	0x3393
 11776 338f A3330000 		.4byte	0x33a3
 11777 3393 11       		.uleb128 0x11
 11778 3394 123E0000 		.4byte	0x3e12
 11779 3398 0E       		.uleb128 0xe
 11780 3399 523E0000 		.4byte	0x3e52
 11781 339d 0E       		.uleb128 0xe
 11782 339e 37000000 		.4byte	0x37
 11783 33a2 00       		.byte	0
 11784 33a3 1B       		.uleb128 0x1b
 11785 33a4 B5020000 		.4byte	.LASF653
 11786 33a8 0D       		.byte	0xd
 11787 33a9 53       		.byte	0x53
 11788 33aa D52C0000 		.4byte	.LASF655
 11789 33ae 01       		.byte	0x1
 11790 33af B7330000 		.4byte	0x33b7
 11791 33b3 C7330000 		.4byte	0x33c7
 11792 33b7 11       		.uleb128 0x11
 11793 33b8 123E0000 		.4byte	0x3e12
 11794 33bc 0E       		.uleb128 0xe
 11795 33bd 583E0000 		.4byte	0x3e58
ARM GAS  /tmp/cc5OZvFd.s 			page 208


 11796 33c1 0E       		.uleb128 0xe
 11797 33c2 37000000 		.4byte	0x37
 11798 33c6 00       		.byte	0
 11799 33c7 43       		.uleb128 0x43
 11800 33c8 6C2A0000 		.4byte	.LASF656
 11801 33cc 0D       		.byte	0xd
 11802 33cd 56       		.byte	0x56
 11803 33ce 122D0000 		.4byte	.LASF657
 11804 33d2 DA330000 		.4byte	0x33da
 11805 33d6 EA330000 		.4byte	0x33ea
 11806 33da 11       		.uleb128 0x11
 11807 33db 403E0000 		.4byte	0x3e40
 11808 33df 0E       		.uleb128 0xe
 11809 33e0 DA3B0000 		.4byte	0x3bda
 11810 33e4 0E       		.uleb128 0xe
 11811 33e5 5E3E0000 		.4byte	0x3e5e
 11812 33e9 00       		.byte	0
 11813 33ea 12       		.uleb128 0x12
 11814 33eb 0B350000 		.4byte	.LASF589
 11815 33ef 0D       		.byte	0xd
 11816 33f0 59       		.byte	0x59
 11817 33f1 123E0000 		.4byte	0x3e12
 11818 33f5 01       		.byte	0x1
 11819 33f6 FE330000 		.4byte	0x33fe
 11820 33fa 13340000 		.4byte	0x3413
 11821 33fe 11       		.uleb128 0x11
 11822 33ff 123E0000 		.4byte	0x3e12
 11823 3403 0E       		.uleb128 0xe
 11824 3404 E0000000 		.4byte	0xe0
 11825 3408 0E       		.uleb128 0xe
 11826 3409 37000000 		.4byte	0x37
 11827 340d 0E       		.uleb128 0xe
 11828 340e E7360000 		.4byte	0x36e7
 11829 3412 00       		.byte	0
 11830 3413 24       		.uleb128 0x24
 11831 3414 AE4A0000 		.4byte	.LASF368
 11832 3418 0D       		.byte	0xd
 11833 3419 5D       		.byte	0x5d
 11834 341a 37060000 		.4byte	.LASF658
 11835 341e E7360000 		.4byte	0x36e7
 11836 3422 01       		.byte	0x1
 11837 3423 0E       		.uleb128 0xe
 11838 3424 DA3D0000 		.4byte	0x3dda
 11839 3428 0E       		.uleb128 0xe
 11840 3429 E0000000 		.4byte	0xe0
 11841 342d 00       		.byte	0
 11842 342e 00       		.byte	0
 11843 342f 08       		.uleb128 0x8
 11844 3430 ED290000 		.4byte	0x29ed
 11845 3434 49       		.uleb128 0x49
 11846 3435 B7420000 		.4byte	.LASF659
 11847 3439 49       		.uleb128 0x49
 11848 343a 14010000 		.4byte	.LASF660
 11849 343e 49       		.uleb128 0x49
 11850 343f EC380000 		.4byte	.LASF661
 11851 3443 0F       		.uleb128 0xf
 11852 3444 2F040000 		.4byte	.LASF662
ARM GAS  /tmp/cc5OZvFd.s 			page 209


 11853 3448 22       		.byte	0x22
 11854 3449 1A       		.byte	0x1a
 11855 344a 0C       		.byte	0xc
 11856 344b A7350000 		.4byte	0x35a7
 11857 344f 16       		.uleb128 0x16
 11858 3450 01       		.byte	0x1
 11859 3451 1A       		.byte	0x1a
 11860 3452 20       		.byte	0x20
 11861 3453 01       		.byte	0x1
 11862 3454 5F340000 		.4byte	0x345f
 11863 3458 17       		.uleb128 0x17
 11864 3459 54260000 		.4byte	.LASF663
 11865 345d 1F       		.sleb128 31
 11866 345e 00       		.byte	0
 11867 345f 2B       		.uleb128 0x2b
 11868 3460 08430000 		.4byte	.LASF664
 11869 3464 1F       		.byte	0x1f
 11870 3465 1A       		.byte	0x1a
 11871 3466 22       		.byte	0x22
 11872 3467 01       		.byte	0x1
 11873 3468 91340000 		.4byte	0x3491
 11874 346c 19       		.uleb128 0x19
 11875 346d E1150000 		.4byte	.LASF665
 11876 3471 1A       		.byte	0x1a
 11877 3472 23       		.byte	0x23
 11878 3473 6F3E0000 		.4byte	0x3e6f
 11879 3477 00       		.byte	0
 11880 3478 19       		.uleb128 0x19
 11881 3479 251A0000 		.4byte	.LASF666
 11882 347d 1A       		.byte	0x1a
 11883 347e 24       		.byte	0x24
 11884 347f EB000000 		.4byte	0xeb
 11885 3483 07       		.byte	0x7
 11886 3484 19       		.uleb128 0x19
 11887 3485 D0320000 		.4byte	.LASF667
 11888 3489 1A       		.byte	0x1a
 11889 348a 25       		.byte	0x25
 11890 348b 7F3E0000 		.4byte	0x3e7f
 11891 348f 0F       		.byte	0xf
 11892 3490 00       		.byte	0
 11893 3491 2B       		.uleb128 0x2b
 11894 3492 00000000 		.4byte	.LASF668
 11895 3496 1E       		.byte	0x1e
 11896 3497 1A       		.byte	0x1a
 11897 3498 28       		.byte	0x28
 11898 3499 01       		.byte	0x1
 11899 349a DE340000 		.4byte	0x34de
 11900 349e 2C       		.uleb128 0x2c
 11901 349f 01       		.byte	0x1
 11902 34a0 1A       		.byte	0x1a
 11903 34a1 29       		.byte	0x29
 11904 34a2 AD340000 		.4byte	0x34ad
 11905 34a6 17       		.uleb128 0x17
 11906 34a7 92350000 		.4byte	.LASF669
 11907 34ab 0A       		.sleb128 10
 11908 34ac 00       		.byte	0
 11909 34ad 19       		.uleb128 0x19
ARM GAS  /tmp/cc5OZvFd.s 			page 210


 11910 34ae D0320000 		.4byte	.LASF667
 11911 34b2 1A       		.byte	0x1a
 11912 34b3 2B       		.byte	0x2b
 11913 34b4 7F3E0000 		.4byte	0x3e7f
 11914 34b8 00       		.byte	0
 11915 34b9 19       		.uleb128 0x19
 11916 34ba 28100000 		.4byte	.LASF670
 11917 34be 1A       		.byte	0x1a
 11918 34bf 2C       		.byte	0x2c
 11919 34c0 9A360000 		.4byte	0x369a
 11920 34c4 10       		.byte	0x10
 11921 34c5 19       		.uleb128 0x19
 11922 34c6 8B0A0000 		.4byte	.LASF671
 11923 34ca 1A       		.byte	0x1a
 11924 34cb 2D       		.byte	0x2d
 11925 34cc 9A360000 		.4byte	0x369a
 11926 34d0 12       		.byte	0x12
 11927 34d1 19       		.uleb128 0x19
 11928 34d2 274A0000 		.4byte	.LASF672
 11929 34d6 1A       		.byte	0x1a
 11930 34d7 2E       		.byte	0x2e
 11931 34d8 8F3E0000 		.4byte	0x3e8f
 11932 34dc 14       		.byte	0x14
 11933 34dd 00       		.byte	0
 11934 34de 2B       		.uleb128 0x2b
 11935 34df 06080000 		.4byte	.LASF673
 11936 34e3 09       		.byte	0x9
 11937 34e4 1A       		.byte	0x1a
 11938 34e5 31       		.byte	0x31
 11939 34e6 01       		.byte	0x1
 11940 34e7 55350000 		.4byte	0x3555
 11941 34eb 2E       		.uleb128 0x2e
 11942 34ec 01       		.byte	0x1
 11943 34ed 1A       		.byte	0x1a
 11944 34ee 34       		.byte	0x34
 11945 34ef 30350000 		.4byte	0x3530
 11946 34f3 3C       		.uleb128 0x3c
 11947 34f4 83470000 		.4byte	.LASF675
 11948 34f8 1A       		.byte	0x1a
 11949 34f9 35       		.byte	0x35
 11950 34fa 42000000 		.4byte	0x42
 11951 34fe 04       		.byte	0x4
 11952 34ff 01       		.byte	0x1
 11953 3500 1F       		.byte	0x1f
 11954 3501 00       		.byte	0
 11955 3502 3C       		.uleb128 0x3c
 11956 3503 101C0000 		.4byte	.LASF676
 11957 3507 1A       		.byte	0x1a
 11958 3508 36       		.byte	0x36
 11959 3509 42000000 		.4byte	0x42
 11960 350d 04       		.byte	0x4
 11961 350e 01       		.byte	0x1
 11962 350f 1E       		.byte	0x1e
 11963 3510 00       		.byte	0
 11964 3511 3C       		.uleb128 0x3c
 11965 3512 20070000 		.4byte	.LASF677
 11966 3516 1A       		.byte	0x1a
ARM GAS  /tmp/cc5OZvFd.s 			page 211


 11967 3517 37       		.byte	0x37
 11968 3518 42000000 		.4byte	0x42
 11969 351c 04       		.byte	0x4
 11970 351d 01       		.byte	0x1
 11971 351e 1D       		.byte	0x1d
 11972 351f 00       		.byte	0
 11973 3520 3C       		.uleb128 0x3c
 11974 3521 AD420000 		.4byte	.LASF678
 11975 3525 1A       		.byte	0x1a
 11976 3526 38       		.byte	0x38
 11977 3527 42000000 		.4byte	0x42
 11978 352b 04       		.byte	0x4
 11979 352c 05       		.byte	0x5
 11980 352d 18       		.byte	0x18
 11981 352e 00       		.byte	0
 11982 352f 00       		.byte	0
 11983 3530 19       		.uleb128 0x19
 11984 3531 963C0000 		.4byte	.LASF208
 11985 3535 1A       		.byte	0x1a
 11986 3536 32       		.byte	0x32
 11987 3537 6F3E0000 		.4byte	0x3e6f
 11988 353b 00       		.byte	0
 11989 353c 19       		.uleb128 0x19
 11990 353d AD420000 		.4byte	.LASF678
 11991 3541 1A       		.byte	0x1a
 11992 3542 33       		.byte	0x33
 11993 3543 8F360000 		.4byte	0x368f
 11994 3547 07       		.byte	0x7
 11995 3548 19       		.uleb128 0x19
 11996 3549 11190000 		.4byte	.LASF209
 11997 354d 1A       		.byte	0x1a
 11998 354e 39       		.byte	0x39
 11999 354f EB340000 		.4byte	0x34eb
 12000 3553 08       		.byte	0x8
 12001 3554 00       		.byte	0
 12002 3555 31       		.uleb128 0x31
 12003 3556 1F       		.byte	0x1f
 12004 3557 1A       		.byte	0x1a
 12005 3558 3D       		.byte	0x3d
 12006 3559 01       		.byte	0x1
 12007 355a 8B350000 		.4byte	0x358b
 12008 355e 2F       		.uleb128 0x2f
 12009 355f 69230000 		.4byte	.LASF679
 12010 3563 1A       		.byte	0x1a
 12011 3564 3E       		.byte	0x3e
 12012 3565 9F3E0000 		.4byte	0x3e9f
 12013 3569 2F       		.uleb128 0x2f
 12014 356a B5030000 		.4byte	.LASF680
 12015 356e 1A       		.byte	0x1a
 12016 356f 3F       		.byte	0x3f
 12017 3570 5F340000 		.4byte	0x345f
 12018 3574 2F       		.uleb128 0x2f
 12019 3575 37230000 		.4byte	.LASF681
 12020 3579 1A       		.byte	0x1a
 12021 357a 40       		.byte	0x40
 12022 357b 91340000 		.4byte	0x3491
 12023 357f 2F       		.uleb128 0x2f
ARM GAS  /tmp/cc5OZvFd.s 			page 212


 12024 3580 E1150000 		.4byte	.LASF665
 12025 3584 1A       		.byte	0x1a
 12026 3585 41       		.byte	0x41
 12027 3586 DE340000 		.4byte	0x34de
 12028 358a 00       		.byte	0
 12029 358b 33       		.uleb128 0x33
 12030 358c A1090000 		.4byte	0x9a1
 12031 3590 00       		.byte	0
 12032 3591 01       		.byte	0x1
 12033 3592 34       		.uleb128 0x34
 12034 3593 55350000 		.4byte	0x3555
 12035 3597 02       		.byte	0x2
 12036 3598 01       		.byte	0x1
 12037 3599 35       		.uleb128 0x35
 12038 359a 94300000 		.4byte	.LASF168
 12039 359e 1A       		.byte	0x1a
 12040 359f 43       		.byte	0x43
 12041 35a0 8F360000 		.4byte	0x368f
 12042 35a4 21       		.byte	0x21
 12043 35a5 01       		.byte	0x1
 12044 35a6 00       		.byte	0
 12045 35a7 4F       		.uleb128 0x4f
 12046 35a8 D2240000 		.4byte	.LASF832
 12047 35ac 04       		.byte	0x4
 12048 35ad 1F       		.byte	0x1f
 12049 35ae C5350000 		.4byte	0x35c5
 12050 35b2 23       		.uleb128 0x23
 12051 35b3 AA330000 		.4byte	.LASF682
 12052 35b7 2E0C0000 		.4byte	0xc2e
 12053 35bb 23       		.uleb128 0x23
 12054 35bc 043B0000 		.4byte	.LASF683
 12055 35c0 A1090000 		.4byte	0x9a1
 12056 35c4 00       		.byte	0
 12057 35c5 08       		.uleb128 0x8
 12058 35c6 2E0C0000 		.4byte	0xc2e
 12059 35ca 3E       		.uleb128 0x3e
 12060 35cb 072F0000 		.4byte	.LASF684
 12061 35cf 04       		.byte	0x4
 12062 35d0 47       		.byte	0x47
 12063 35d1 E5210000 		.4byte	.LASF685
 12064 35d5 E7360000 		.4byte	0x36e7
 12065 35d9 F2350000 		.4byte	0x35f2
 12066 35dd 0E       		.uleb128 0xe
 12067 35de AF3B0000 		.4byte	0x3baf
 12068 35e2 0E       		.uleb128 0xe
 12069 35e3 37000000 		.4byte	0x37
 12070 35e7 0E       		.uleb128 0xe
 12071 35e8 AF3B0000 		.4byte	0x3baf
 12072 35ec 0E       		.uleb128 0xe
 12073 35ed 37000000 		.4byte	0x37
 12074 35f1 00       		.byte	0
 12075 35f2 46       		.uleb128 0x46
 12076 35f3 0A290000 		.4byte	.LASF686
 12077 35f7 61360000 		.4byte	0x3661
 12078 35fb 1D       		.uleb128 0x1d
 12079 35fc 35100000 		.4byte	.LASF287
 12080 3600 0E       		.byte	0xe
ARM GAS  /tmp/cc5OZvFd.s 			page 213


 12081 3601 40       		.byte	0x40
 12082 3602 0F390000 		.4byte	.LASF687
 12083 3606 E7360000 		.4byte	0x36e7
 12084 360a 01       		.byte	0x1
 12085 360b 13360000 		.4byte	0x3613
 12086 360f 1E360000 		.4byte	0x361e
 12087 3613 11       		.uleb128 0x11
 12088 3614 40490000 		.4byte	0x4940
 12089 3618 0E       		.uleb128 0xe
 12090 3619 643E0000 		.4byte	0x3e64
 12091 361d 00       		.byte	0
 12092 361e 1D       		.uleb128 0x1d
 12093 361f 96290000 		.4byte	.LASF291
 12094 3623 0E       		.byte	0xe
 12095 3624 4A       		.byte	0x4a
 12096 3625 42030000 		.4byte	.LASF688
 12097 3629 E7360000 		.4byte	0x36e7
 12098 362d 01       		.byte	0x1
 12099 362e 36360000 		.4byte	0x3636
 12100 3632 41360000 		.4byte	0x3641
 12101 3636 11       		.uleb128 0x11
 12102 3637 40490000 		.4byte	0x4940
 12103 363b 0E       		.uleb128 0xe
 12104 363c 643E0000 		.4byte	0x3e64
 12105 3640 00       		.byte	0
 12106 3641 41       		.uleb128 0x41
 12107 3642 E72E0000 		.4byte	.LASF689
 12108 3646 0E       		.byte	0xe
 12109 3647 5D       		.byte	0x5d
 12110 3648 B80C0000 		.4byte	.LASF690
 12111 364c E7360000 		.4byte	0x36e7
 12112 3650 01       		.byte	0x1
 12113 3651 55360000 		.4byte	0x3655
 12114 3655 11       		.uleb128 0x11
 12115 3656 40490000 		.4byte	0x4940
 12116 365a 0E       		.uleb128 0xe
 12117 365b DA3B0000 		.4byte	0x3bda
 12118 365f 00       		.byte	0
 12119 3660 00       		.byte	0
 12120 3661 50       		.uleb128 0x50
 12121 3662 0C2E0000 		.4byte	.LASF691
 12122 3666 04       		.byte	0x4
 12123 3667 3E       		.byte	0x3e
 12124 3668 A3060000 		.4byte	.LASF692
 12125 366c 37000000 		.4byte	0x37
 12126 3670 3A       		.uleb128 0x3a
 12127 3671 5400     		.ascii	"T\000"
 12128 3673 5B000000 		.4byte	0x5b
 12129 3677 0E       		.uleb128 0xe
 12130 3678 DE520000 		.4byte	0x52de
 12131 367c 0E       		.uleb128 0xe
 12132 367d DE520000 		.4byte	0x52de
 12133 3681 00       		.byte	0
 12134 3682 00       		.byte	0
 12135 3683 06       		.uleb128 0x6
 12136 3684 04       		.byte	0x4
 12137 3685 A6010000 		.4byte	0x1a6
ARM GAS  /tmp/cc5OZvFd.s 			page 214


 12138 3689 51       		.uleb128 0x51
 12139 368a 04       		.byte	0x4
 12140 368b 06020000 		.4byte	0x206
 12141 368f 02       		.uleb128 0x2
 12142 3690 17350000 		.4byte	.LASF693
 12143 3694 1B       		.byte	0x1b
 12144 3695 15       		.byte	0x15
 12145 3696 50000000 		.4byte	0x50
 12146 369a 02       		.uleb128 0x2
 12147 369b 0E140000 		.4byte	.LASF694
 12148 369f 1B       		.byte	0x1b
 12149 36a0 21       		.byte	0x21
 12150 36a1 69000000 		.4byte	0x69
 12151 36a5 02       		.uleb128 0x2
 12152 36a6 8A380000 		.4byte	.LASF695
 12153 36aa 1B       		.byte	0x1b
 12154 36ab 2C       		.byte	0x2c
 12155 36ac 7B000000 		.4byte	0x7b
 12156 36b0 02       		.uleb128 0x2
 12157 36b1 464B0000 		.4byte	.LASF696
 12158 36b5 1B       		.byte	0x1b
 12159 36b6 2D       		.byte	0x2d
 12160 36b7 8D000000 		.4byte	0x8d
 12161 36bb 02       		.uleb128 0x2
 12162 36bc AF3D0000 		.4byte	.LASF697
 12163 36c0 1B       		.byte	0x1b
 12164 36c1 39       		.byte	0x39
 12165 36c2 A6000000 		.4byte	0xa6
 12166 36c6 02       		.uleb128 0x2
 12167 36c7 574C0000 		.4byte	.LASF698
 12168 36cb 1B       		.byte	0x1b
 12169 36cc 99       		.byte	0x99
 12170 36cd 9F000000 		.4byte	0x9f
 12171 36d1 02       		.uleb128 0x2
 12172 36d2 43270000 		.4byte	.LASF699
 12173 36d6 1B       		.byte	0x1b
 12174 36d7 A2       		.byte	0xa2
 12175 36d8 B1000000 		.4byte	0xb1
 12176 36dc 02       		.uleb128 0x2
 12177 36dd C6220000 		.4byte	.LASF700
 12178 36e1 1B       		.byte	0x1b
 12179 36e2 AA       		.byte	0xaa
 12180 36e3 B8000000 		.4byte	0xb8
 12181 36e7 04       		.uleb128 0x4
 12182 36e8 01       		.byte	0x1
 12183 36e9 02       		.byte	0x2
 12184 36ea 26130000 		.4byte	.LASF701
 12185 36ee 02       		.uleb128 0x2
 12186 36ef 07260000 		.4byte	.LASF702
 12187 36f3 1C       		.byte	0x1c
 12188 36f4 2C       		.byte	0x2c
 12189 36f5 8F360000 		.4byte	0x368f
 12190 36f9 02       		.uleb128 0x2
 12191 36fa F00D0000 		.4byte	.LASF703
 12192 36fe 1C       		.byte	0x1c
 12193 36ff 2D       		.byte	0x2d
 12194 3700 8F360000 		.4byte	0x368f
ARM GAS  /tmp/cc5OZvFd.s 			page 215


 12195 3704 02       		.uleb128 0x2
 12196 3705 31430000 		.4byte	.LASF704
 12197 3709 1C       		.byte	0x1c
 12198 370a 2E       		.byte	0x2e
 12199 370b 8F360000 		.4byte	0x368f
 12200 370f 02       		.uleb128 0x2
 12201 3710 A7010000 		.4byte	.LASF705
 12202 3714 1C       		.byte	0x1c
 12203 3715 30       		.byte	0x30
 12204 3716 B0360000 		.4byte	0x36b0
 12205 371a 02       		.uleb128 0x2
 12206 371b 06360000 		.4byte	.LASF706
 12207 371f 1C       		.byte	0x1c
 12208 3720 31       		.byte	0x31
 12209 3721 A5360000 		.4byte	0x36a5
 12210 3725 02       		.uleb128 0x2
 12211 3726 A2320000 		.4byte	.LASF707
 12212 372a 1C       		.byte	0x1c
 12213 372b 33       		.byte	0x33
 12214 372c B0360000 		.4byte	0x36b0
 12215 3730 02       		.uleb128 0x2
 12216 3731 4E010000 		.4byte	.LASF708
 12217 3735 1C       		.byte	0x1c
 12218 3736 35       		.byte	0x35
 12219 3737 B0360000 		.4byte	0x36b0
 12220 373b 02       		.uleb128 0x2
 12221 373c DF410000 		.4byte	.LASF332
 12222 3740 1D       		.byte	0x1d
 12223 3741 2A       		.byte	0x2a
 12224 3742 46370000 		.4byte	0x3746
 12225 3746 25       		.uleb128 0x25
 12226 3747 DF410000 		.4byte	.LASF332
 12227 374b 4C       		.byte	0x4c
 12228 374c 1E       		.byte	0x1e
 12229 374d 5E       		.byte	0x5e
 12230 374e 78380000 		.4byte	0x3878
 12231 3752 2D       		.uleb128 0x2d
 12232 3753 04       		.byte	0x4
 12233 3754 1E       		.byte	0x1e
 12234 3755 96       		.byte	0x96
 12235 3756 87370000 		.4byte	0x3787
 12236 375a 2F       		.uleb128 0x2f
 12237 375b AE030000 		.4byte	.LASF709
 12238 375f 1E       		.byte	0x1e
 12239 3760 9D       		.byte	0x9d
 12240 3761 1A370000 		.4byte	0x371a
 12241 3765 2F       		.uleb128 0x2f
 12242 3766 E1090000 		.4byte	.LASF710
 12243 376a 1E       		.byte	0x1e
 12244 376b A4       		.byte	0xa4
 12245 376c 1A370000 		.4byte	0x371a
 12246 3770 2F       		.uleb128 0x2f
 12247 3771 04190000 		.4byte	.LASF711
 12248 3775 1E       		.byte	0x1e
 12249 3776 AB       		.byte	0xab
 12250 3777 CA000000 		.4byte	0xca
 12251 377b 2F       		.uleb128 0x2f
ARM GAS  /tmp/cc5OZvFd.s 			page 216


 12252 377c 5C0A0000 		.4byte	.LASF712
 12253 3780 1E       		.byte	0x1e
 12254 3781 B2       		.byte	0xb2
 12255 3782 25370000 		.4byte	0x3725
 12256 3786 00       		.byte	0
 12257 3787 19       		.uleb128 0x19
 12258 3788 EA0B0000 		.4byte	.LASF713
 12259 378c 1E       		.byte	0x1e
 12260 378d 5F       		.byte	0x5f
 12261 378e 4E3B0000 		.4byte	0x3b4e
 12262 3792 00       		.byte	0
 12263 3793 19       		.uleb128 0x19
 12264 3794 AC450000 		.4byte	.LASF714
 12265 3798 1E       		.byte	0x1e
 12266 3799 61       		.byte	0x61
 12267 379a 4E3B0000 		.4byte	0x3b4e
 12268 379e 04       		.byte	0x4
 12269 379f 19       		.uleb128 0x19
 12270 37a0 A9180000 		.4byte	.LASF715
 12271 37a4 1E       		.byte	0x1e
 12272 37a5 63       		.byte	0x63
 12273 37a6 0F370000 		.4byte	0x370f
 12274 37aa 08       		.byte	0x8
 12275 37ab 19       		.uleb128 0x19
 12276 37ac 00410000 		.4byte	.LASF716
 12277 37b0 1E       		.byte	0x1e
 12278 37b1 64       		.byte	0x64
 12279 37b2 64390000 		.4byte	0x3964
 12280 37b6 0C       		.byte	0xc
 12281 37b7 19       		.uleb128 0x19
 12282 37b8 6F4A0000 		.4byte	.LASF717
 12283 37bc 1E       		.byte	0x1e
 12284 37bd 66       		.byte	0x66
 12285 37be 4E3B0000 		.4byte	0x3b4e
 12286 37c2 10       		.byte	0x10
 12287 37c3 19       		.uleb128 0x19
 12288 37c4 7D3F0000 		.4byte	.LASF718
 12289 37c8 1E       		.byte	0x1e
 12290 37c9 67       		.byte	0x67
 12291 37ca 4E3B0000 		.4byte	0x3b4e
 12292 37ce 14       		.byte	0x14
 12293 37cf 19       		.uleb128 0x19
 12294 37d0 B74A0000 		.4byte	.LASF719
 12295 37d4 1E       		.byte	0x1e
 12296 37d5 6E       		.byte	0x6e
 12297 37d6 E0000000 		.4byte	0xe0
 12298 37da 18       		.byte	0x18
 12299 37db 19       		.uleb128 0x19
 12300 37dc 9D480000 		.4byte	.LASF720
 12301 37e0 1E       		.byte	0x1e
 12302 37e1 74       		.byte	0x74
 12303 37e2 543B0000 		.4byte	0x3b54
 12304 37e6 1C       		.byte	0x1c
 12305 37e7 19       		.uleb128 0x19
 12306 37e8 2E4D0000 		.4byte	.LASF721
 12307 37ec 1E       		.byte	0x1e
 12308 37ed 79       		.byte	0x79
ARM GAS  /tmp/cc5OZvFd.s 			page 217


 12309 37ee F9360000 		.4byte	0x36f9
 12310 37f2 20       		.byte	0x20
 12311 37f3 19       		.uleb128 0x19
 12312 37f4 D9090000 		.4byte	.LASF722
 12313 37f8 1E       		.byte	0x1e
 12314 37f9 7D       		.byte	0x7d
 12315 37fa EE360000 		.4byte	0x36ee
 12316 37fe 21       		.byte	0x21
 12317 37ff 19       		.uleb128 0x19
 12318 3800 E1350000 		.4byte	.LASF723
 12319 3804 1E       		.byte	0x1e
 12320 3805 82       		.byte	0x82
 12321 3806 04370000 		.4byte	0x3704
 12322 380a 22       		.byte	0x22
 12323 380b 19       		.uleb128 0x19
 12324 380c 7C2F0000 		.4byte	.LASF724
 12325 3810 1E       		.byte	0x1e
 12326 3811 8F       		.byte	0x8f
 12327 3812 85390000 		.4byte	0x3985
 12328 3816 24       		.byte	0x24
 12329 3817 52       		.uleb128 0x52
 12330 3818 705F7500 		.ascii	"p_u\000"
 12331 381c 1E       		.byte	0x1e
 12332 381d B4       		.byte	0xb4
 12333 381e 52370000 		.4byte	0x3752
 12334 3822 28       		.byte	0x28
 12335 3823 19       		.uleb128 0x19
 12336 3824 56130000 		.4byte	.LASF725
 12337 3828 1E       		.byte	0x1e
 12338 3829 B9       		.byte	0xb9
 12339 382a C7380000 		.4byte	0x38c7
 12340 382e 2C       		.byte	0x2c
 12341 382f 19       		.uleb128 0x19
 12342 3830 48020000 		.4byte	.LASF726
 12343 3834 1E       		.byte	0x1e
 12344 3835 BF       		.byte	0xbf
 12345 3836 A3380000 		.4byte	0x38a3
 12346 383a 30       		.byte	0x30
 12347 383b 19       		.uleb128 0x19
 12348 383c A93D0000 		.4byte	.LASF727
 12349 3840 1E       		.byte	0x1e
 12350 3841 C3       		.byte	0xc3
 12351 3842 1A370000 		.4byte	0x371a
 12352 3846 38       		.byte	0x38
 12353 3847 19       		.uleb128 0x19
 12354 3848 2F1C0000 		.4byte	.LASF728
 12355 384c 1E       		.byte	0x1e
 12356 384d C9       		.byte	0xc9
 12357 384e 25370000 		.4byte	0x3725
 12358 3852 3C       		.byte	0x3c
 12359 3853 19       		.uleb128 0x19
 12360 3854 B3450000 		.4byte	.LASF729
 12361 3858 1E       		.byte	0x1e
 12362 3859 D0       		.byte	0xd0
 12363 385a 5A3B0000 		.4byte	0x3b5a
 12364 385e 40       		.byte	0x40
 12365 385f 19       		.uleb128 0x19
ARM GAS  /tmp/cc5OZvFd.s 			page 218


 12366 3860 A21E0000 		.4byte	.LASF730
 12367 3864 1E       		.byte	0x1e
 12368 3865 D4       		.byte	0xd4
 12369 3866 0F370000 		.4byte	0x370f
 12370 386a 44       		.byte	0x44
 12371 386b 19       		.uleb128 0x19
 12372 386c 242B0000 		.4byte	.LASF731
 12373 3870 1E       		.byte	0x1e
 12374 3871 DA       		.byte	0xda
 12375 3872 CA000000 		.4byte	0xca
 12376 3876 48       		.byte	0x48
 12377 3877 00       		.byte	0
 12378 3878 53       		.uleb128 0x53
 12379 3879 08       		.byte	0x8
 12380 387a 1D       		.byte	0x1d
 12381 387b 61       		.byte	0x61
 12382 387c FE140000 		.4byte	.LASF733
 12383 3880 9D380000 		.4byte	0x389d
 12384 3884 19       		.uleb128 0x19
 12385 3885 EA0B0000 		.4byte	.LASF713
 12386 3889 1D       		.byte	0x1d
 12387 388a 62       		.byte	0x62
 12388 388b 9D380000 		.4byte	0x389d
 12389 388f 00       		.byte	0
 12390 3890 19       		.uleb128 0x19
 12391 3891 AC450000 		.4byte	.LASF714
 12392 3895 1D       		.byte	0x1d
 12393 3896 64       		.byte	0x64
 12394 3897 9D380000 		.4byte	0x389d
 12395 389b 04       		.byte	0x4
 12396 389c 00       		.byte	0
 12397 389d 06       		.uleb128 0x6
 12398 389e 04       		.byte	0x4
 12399 389f 3B370000 		.4byte	0x373b
 12400 38a3 02       		.uleb128 0x2
 12401 38a4 95450000 		.4byte	.LASF732
 12402 38a8 1D       		.byte	0x1d
 12403 38a9 66       		.byte	0x66
 12404 38aa 78380000 		.4byte	0x3878
 12405 38ae 53       		.uleb128 0x53
 12406 38af 04       		.byte	0x4
 12407 38b0 1D       		.byte	0x1d
 12408 38b1 6B       		.byte	0x6b
 12409 38b2 06060000 		.4byte	.LASF734
 12410 38b6 C7380000 		.4byte	0x38c7
 12411 38ba 19       		.uleb128 0x19
 12412 38bb EA0B0000 		.4byte	.LASF713
 12413 38bf 1D       		.byte	0x1d
 12414 38c0 6D       		.byte	0x6d
 12415 38c1 9D380000 		.4byte	0x389d
 12416 38c5 00       		.byte	0
 12417 38c6 00       		.byte	0
 12418 38c7 02       		.uleb128 0x2
 12419 38c8 3C150000 		.4byte	.LASF735
 12420 38cc 1D       		.byte	0x1d
 12421 38cd 70       		.byte	0x70
 12422 38ce AE380000 		.4byte	0x38ae
ARM GAS  /tmp/cc5OZvFd.s 			page 219


 12423 38d2 02       		.uleb128 0x2
 12424 38d3 6A0F0000 		.4byte	.LASF736
 12425 38d7 1F       		.byte	0x1f
 12426 38d8 E5       		.byte	0xe5
 12427 38d9 CA000000 		.4byte	0xca
 12428 38dd 02       		.uleb128 0x2
 12429 38de 1E190000 		.4byte	.LASF737
 12430 38e2 1F       		.byte	0x1f
 12431 38e3 EB       		.byte	0xeb
 12432 38e4 BB360000 		.4byte	0x36bb
 12433 38e8 54       		.uleb128 0x54
 12434 38e9 6F240000 		.4byte	.LASF738
 12435 38ed 24       		.byte	0x24
 12436 38ee 1F       		.byte	0x1f
 12437 38ef 0C01     		.2byte	0x10c
 12438 38f1 64390000 		.4byte	0x3964
 12439 38f5 55       		.uleb128 0x55
 12440 38f6 723400   		.ascii	"r4\000"
 12441 38f9 1F       		.byte	0x1f
 12442 38fa 1F01     		.2byte	0x11f
 12443 38fc D2380000 		.4byte	0x38d2
 12444 3900 00       		.byte	0
 12445 3901 55       		.uleb128 0x55
 12446 3902 723500   		.ascii	"r5\000"
 12447 3905 1F       		.byte	0x1f
 12448 3906 2001     		.2byte	0x120
 12449 3908 D2380000 		.4byte	0x38d2
 12450 390c 04       		.byte	0x4
 12451 390d 55       		.uleb128 0x55
 12452 390e 723600   		.ascii	"r6\000"
 12453 3911 1F       		.byte	0x1f
 12454 3912 2101     		.2byte	0x121
 12455 3914 D2380000 		.4byte	0x38d2
 12456 3918 08       		.byte	0x8
 12457 3919 55       		.uleb128 0x55
 12458 391a 723700   		.ascii	"r7\000"
 12459 391d 1F       		.byte	0x1f
 12460 391e 2201     		.2byte	0x122
 12461 3920 D2380000 		.4byte	0x38d2
 12462 3924 0C       		.byte	0xc
 12463 3925 55       		.uleb128 0x55
 12464 3926 723800   		.ascii	"r8\000"
 12465 3929 1F       		.byte	0x1f
 12466 392a 2301     		.2byte	0x123
 12467 392c D2380000 		.4byte	0x38d2
 12468 3930 10       		.byte	0x10
 12469 3931 55       		.uleb128 0x55
 12470 3932 723900   		.ascii	"r9\000"
 12471 3935 1F       		.byte	0x1f
 12472 3936 2401     		.2byte	0x124
 12473 3938 D2380000 		.4byte	0x38d2
 12474 393c 14       		.byte	0x14
 12475 393d 55       		.uleb128 0x55
 12476 393e 72313000 		.ascii	"r10\000"
 12477 3942 1F       		.byte	0x1f
 12478 3943 2501     		.2byte	0x125
 12479 3945 D2380000 		.4byte	0x38d2
ARM GAS  /tmp/cc5OZvFd.s 			page 220


 12480 3949 18       		.byte	0x18
 12481 394a 55       		.uleb128 0x55
 12482 394b 72313100 		.ascii	"r11\000"
 12483 394f 1F       		.byte	0x1f
 12484 3950 2601     		.2byte	0x126
 12485 3952 D2380000 		.4byte	0x38d2
 12486 3956 1C       		.byte	0x1c
 12487 3957 55       		.uleb128 0x55
 12488 3958 6C7200   		.ascii	"lr\000"
 12489 395b 1F       		.byte	0x1f
 12490 395c 2701     		.2byte	0x127
 12491 395e D2380000 		.4byte	0x38d2
 12492 3962 20       		.byte	0x20
 12493 3963 00       		.byte	0
 12494 3964 54       		.uleb128 0x54
 12495 3965 10120000 		.4byte	.LASF739
 12496 3969 04       		.byte	0x4
 12497 396a 1F       		.byte	0x1f
 12498 396b 3101     		.2byte	0x131
 12499 396d 7F390000 		.4byte	0x397f
 12500 3971 55       		.uleb128 0x55
 12501 3972 72313300 		.ascii	"r13\000"
 12502 3976 1F       		.byte	0x1f
 12503 3977 3201     		.2byte	0x132
 12504 3979 7F390000 		.4byte	0x397f
 12505 397d 00       		.byte	0
 12506 397e 00       		.byte	0
 12507 397f 06       		.uleb128 0x6
 12508 3980 04       		.byte	0x4
 12509 3981 E8380000 		.4byte	0x38e8
 12510 3985 1F       		.uleb128 0x1f
 12511 3986 30370000 		.4byte	0x3730
 12512 398a 53       		.uleb128 0x53
 12513 398b 1C       		.byte	0x1c
 12514 398c 20       		.byte	0x20
 12515 398d 5E       		.byte	0x5e
 12516 398e AF330000 		.4byte	.LASF740
 12517 3992 DF390000 		.4byte	0x39df
 12518 3996 19       		.uleb128 0x19
 12519 3997 61430000 		.4byte	.LASF741
 12520 399b 20       		.byte	0x20
 12521 399c 5F       		.byte	0x5f
 12522 399d A3380000 		.4byte	0x38a3
 12523 39a1 00       		.byte	0
 12524 39a2 19       		.uleb128 0x19
 12525 39a3 5B3F0000 		.4byte	.LASF742
 12526 39a7 20       		.byte	0x20
 12527 39a8 60       		.byte	0x60
 12528 39a9 0F370000 		.4byte	0x370f
 12529 39ad 08       		.byte	0x8
 12530 39ae 19       		.uleb128 0x19
 12531 39af 81020000 		.4byte	.LASF743
 12532 39b3 20       		.byte	0x20
 12533 39b4 62       		.byte	0x62
 12534 39b5 64390000 		.4byte	0x3964
 12535 39b9 0C       		.byte	0xc
 12536 39ba 19       		.uleb128 0x19
ARM GAS  /tmp/cc5OZvFd.s 			page 221


 12537 39bb 44240000 		.4byte	.LASF744
 12538 39bf 20       		.byte	0x20
 12539 39c0 65       		.byte	0x65
 12540 39c1 9D380000 		.4byte	0x389d
 12541 39c5 10       		.byte	0x10
 12542 39c6 19       		.uleb128 0x19
 12543 39c7 E4140000 		.4byte	.LASF745
 12544 39cb 20       		.byte	0x20
 12545 39cc 66       		.byte	0x66
 12546 39cd 9D380000 		.4byte	0x389d
 12547 39d1 14       		.byte	0x14
 12548 39d2 19       		.uleb128 0x19
 12549 39d3 14380000 		.4byte	.LASF746
 12550 39d7 20       		.byte	0x20
 12551 39d8 69       		.byte	0x69
 12552 39d9 9D380000 		.4byte	0x389d
 12553 39dd 18       		.byte	0x18
 12554 39de 00       		.byte	0
 12555 39df 02       		.uleb128 0x2
 12556 39e0 774A0000 		.4byte	.LASF747
 12557 39e4 20       		.byte	0x20
 12558 39e5 6B       		.byte	0x6b
 12559 39e6 8A390000 		.4byte	0x398a
 12560 39ea 25       		.uleb128 0x25
 12561 39eb 5A250000 		.4byte	.LASF748
 12562 39ef 10       		.byte	0x10
 12563 39f0 21       		.byte	0x21
 12564 39f1 2C       		.byte	0x2c
 12565 39f2 1B3A0000 		.4byte	0x3a1b
 12566 39f6 19       		.uleb128 0x19
 12567 39f7 A8250000 		.4byte	.LASF749
 12568 39fb 21       		.byte	0x21
 12569 39fc 2D       		.byte	0x2d
 12570 39fd A3380000 		.4byte	0x38a3
 12571 3a01 00       		.byte	0
 12572 3a02 19       		.uleb128 0x19
 12573 3a03 82380000 		.4byte	.LASF750
 12574 3a07 21       		.byte	0x21
 12575 3a08 2F       		.byte	0x2f
 12576 3a09 9D380000 		.4byte	0x389d
 12577 3a0d 08       		.byte	0x8
 12578 3a0e 19       		.uleb128 0x19
 12579 3a0f 124A0000 		.4byte	.LASF751
 12580 3a13 21       		.byte	0x21
 12581 3a14 31       		.byte	0x31
 12582 3a15 1B3A0000 		.4byte	0x3a1b
 12583 3a19 0C       		.byte	0xc
 12584 3a1a 00       		.byte	0
 12585 3a1b 06       		.uleb128 0x6
 12586 3a1c 04       		.byte	0x4
 12587 3a1d EA390000 		.4byte	0x39ea
 12588 3a21 02       		.uleb128 0x2
 12589 3a22 5A250000 		.4byte	.LASF748
 12590 3a26 21       		.byte	0x21
 12591 3a27 33       		.byte	0x33
 12592 3a28 EA390000 		.4byte	0x39ea
 12593 3a2c 02       		.uleb128 0x2
ARM GAS  /tmp/cc5OZvFd.s 			page 222


 12594 3a2d 630A0000 		.4byte	.LASF752
 12595 3a31 22       		.byte	0x22
 12596 3a32 2C       		.byte	0x2c
 12597 3a33 373A0000 		.4byte	0x3a37
 12598 3a37 06       		.uleb128 0x6
 12599 3a38 04       		.byte	0x4
 12600 3a39 3D3A0000 		.4byte	0x3a3d
 12601 3a3d 56       		.uleb128 0x56
 12602 3a3e CA000000 		.4byte	0xca
 12603 3a42 4C3A0000 		.4byte	0x3a4c
 12604 3a46 0E       		.uleb128 0xe
 12605 3a47 37000000 		.4byte	0x37
 12606 3a4b 00       		.byte	0
 12607 3a4c 02       		.uleb128 0x2
 12608 3a4d 9F330000 		.4byte	.LASF753
 12609 3a51 23       		.byte	0x23
 12610 3a52 34       		.byte	0x34
 12611 3a53 573A0000 		.4byte	0x3a57
 12612 3a57 25       		.uleb128 0x25
 12613 3a58 BD000000 		.4byte	.LASF754
 12614 3a5c 20       		.byte	0x20
 12615 3a5d 23       		.byte	0x23
 12616 3a5e 47       		.byte	0x47
 12617 3a5f 883A0000 		.4byte	0x3a88
 12618 3a63 19       		.uleb128 0x19
 12619 3a64 A34C0000 		.4byte	.LASF755
 12620 3a68 23       		.byte	0x23
 12621 3a69 48       		.byte	0x48
 12622 3a6a 2C3A0000 		.4byte	0x3a2c
 12623 3a6e 00       		.byte	0
 12624 3a6f 19       		.uleb128 0x19
 12625 3a70 D2260000 		.4byte	.LASF756
 12626 3a74 23       		.byte	0x23
 12627 3a75 4A       		.byte	0x4a
 12628 3a76 883A0000 		.4byte	0x3a88
 12629 3a7a 08       		.byte	0x8
 12630 3a7b 19       		.uleb128 0x19
 12631 3a7c F9390000 		.4byte	.LASF757
 12632 3a80 23       		.byte	0x23
 12633 3a81 4C       		.byte	0x4c
 12634 3a82 213A0000 		.4byte	0x3a21
 12635 3a86 10       		.byte	0x10
 12636 3a87 00       		.byte	0
 12637 3a88 3B       		.uleb128 0x3b
 12638 3a89 B11D0000 		.4byte	.LASF759
 12639 3a8d 08       		.byte	0x8
 12640 3a8e 23       		.byte	0x23
 12641 3a8f 39       		.byte	0x39
 12642 3a90 E73A0000 		.4byte	0x3ae7
 12643 3a94 2E       		.uleb128 0x2e
 12644 3a95 08       		.byte	0x8
 12645 3a96 23       		.byte	0x23
 12646 3a97 3B       		.byte	0x3b
 12647 3a98 D23A0000 		.4byte	0x3ad2
 12648 3a9c 2D       		.uleb128 0x2d
 12649 3a9d 04       		.byte	0x4
 12650 3a9e 23       		.byte	0x23
ARM GAS  /tmp/cc5OZvFd.s 			page 223


 12651 3a9f 3C       		.byte	0x3c
 12652 3aa0 BB3A0000 		.4byte	0x3abb
 12653 3aa4 2F       		.uleb128 0x2f
 12654 3aa5 5E310000 		.4byte	.LASF760
 12655 3aa9 23       		.byte	0x23
 12656 3aaa 3D       		.byte	0x3d
 12657 3aab E73A0000 		.4byte	0x3ae7
 12658 3aaf 2F       		.uleb128 0x2f
 12659 3ab0 1C100000 		.4byte	.LASF761
 12660 3ab4 23       		.byte	0x23
 12661 3ab5 3E       		.byte	0x3e
 12662 3ab6 ED3A0000 		.4byte	0x3aed
 12663 3aba 00       		.byte	0
 12664 3abb 52       		.uleb128 0x52
 12665 3abc 7500     		.ascii	"u\000"
 12666 3abe 23       		.byte	0x23
 12667 3abf 3F       		.byte	0x3f
 12668 3ac0 9C3A0000 		.4byte	0x3a9c
 12669 3ac4 00       		.byte	0
 12670 3ac5 19       		.uleb128 0x19
 12671 3ac6 AD340000 		.4byte	.LASF762
 12672 3aca 23       		.byte	0x23
 12673 3acb 40       		.byte	0x40
 12674 3acc 37000000 		.4byte	0x37
 12675 3ad0 04       		.byte	0x4
 12676 3ad1 00       		.byte	0
 12677 3ad2 2F       		.uleb128 0x2f
 12678 3ad3 C6270000 		.4byte	.LASF763
 12679 3ad7 23       		.byte	0x23
 12680 3ad8 3A       		.byte	0x3a
 12681 3ad9 DD380000 		.4byte	0x38dd
 12682 3add 32       		.uleb128 0x32
 12683 3ade 6800     		.ascii	"h\000"
 12684 3ae0 23       		.byte	0x23
 12685 3ae1 41       		.byte	0x41
 12686 3ae2 943A0000 		.4byte	0x3a94
 12687 3ae6 00       		.byte	0
 12688 3ae7 06       		.uleb128 0x6
 12689 3ae8 04       		.byte	0x4
 12690 3ae9 883A0000 		.4byte	0x3a88
 12691 3aed 06       		.uleb128 0x6
 12692 3aee 04       		.byte	0x4
 12693 3aef 4C3A0000 		.4byte	0x3a4c
 12694 3af3 25       		.uleb128 0x25
 12695 3af4 D7230000 		.4byte	.LASF764
 12696 3af8 04       		.byte	0x4
 12697 3af9 24       		.byte	0x24
 12698 3afa 2C       		.byte	0x2c
 12699 3afb 0C3B0000 		.4byte	0x3b0c
 12700 3aff 19       		.uleb128 0x19
 12701 3b00 B2340000 		.4byte	.LASF765
 12702 3b04 24       		.byte	0x24
 12703 3b05 2D       		.byte	0x2d
 12704 3b06 0C3B0000 		.4byte	0x3b0c
 12705 3b0a 00       		.byte	0
 12706 3b0b 00       		.byte	0
 12707 3b0c 06       		.uleb128 0x6
ARM GAS  /tmp/cc5OZvFd.s 			page 224


 12708 3b0d 04       		.byte	0x4
 12709 3b0e F33A0000 		.4byte	0x3af3
 12710 3b12 53       		.uleb128 0x53
 12711 3b13 0C       		.byte	0xc
 12712 3b14 24       		.byte	0x24
 12713 3b15 34       		.byte	0x34
 12714 3b16 4C240000 		.4byte	.LASF766
 12715 3b1a 433B0000 		.4byte	0x3b43
 12716 3b1e 19       		.uleb128 0x19
 12717 3b1f C7480000 		.4byte	.LASF767
 12718 3b23 24       		.byte	0x24
 12719 3b24 35       		.byte	0x35
 12720 3b25 0C3B0000 		.4byte	0x3b0c
 12721 3b29 00       		.byte	0
 12722 3b2a 19       		.uleb128 0x19
 12723 3b2b 7F450000 		.4byte	.LASF768
 12724 3b2f 24       		.byte	0x24
 12725 3b30 36       		.byte	0x36
 12726 3b31 37000000 		.4byte	0x37
 12727 3b35 04       		.byte	0x4
 12728 3b36 19       		.uleb128 0x19
 12729 3b37 0A320000 		.4byte	.LASF769
 12730 3b3b 24       		.byte	0x24
 12731 3b3c 38       		.byte	0x38
 12732 3b3d 2C3A0000 		.4byte	0x3a2c
 12733 3b41 08       		.byte	0x8
 12734 3b42 00       		.byte	0
 12735 3b43 02       		.uleb128 0x2
 12736 3b44 69430000 		.4byte	.LASF770
 12737 3b48 24       		.byte	0x24
 12738 3b49 3A       		.byte	0x3a
 12739 3b4a 123B0000 		.4byte	0x3b12
 12740 3b4e 06       		.uleb128 0x6
 12741 3b4f 04       		.byte	0x4
 12742 3b50 46370000 		.4byte	0x3746
 12743 3b54 06       		.uleb128 0x6
 12744 3b55 04       		.byte	0x4
 12745 3b56 DD380000 		.4byte	0x38dd
 12746 3b5a 06       		.uleb128 0x6
 12747 3b5b 04       		.byte	0x4
 12748 3b5c 213A0000 		.4byte	0x3a21
 12749 3b60 02       		.uleb128 0x2
 12750 3b61 19280000 		.4byte	.LASF771
 12751 3b65 1E       		.byte	0x1e
 12752 3b66 E5       		.byte	0xe5
 12753 3b67 6B3B0000 		.4byte	0x3b6b
 12754 3b6b 06       		.uleb128 0x6
 12755 3b6c 04       		.byte	0x4
 12756 3b6d 713B0000 		.4byte	0x3b71
 12757 3b71 56       		.uleb128 0x56
 12758 3b72 1A370000 		.4byte	0x371a
 12759 3b76 803B0000 		.4byte	0x3b80
 12760 3b7a 0E       		.uleb128 0xe
 12761 3b7b CA000000 		.4byte	0xca
 12762 3b7f 00       		.byte	0
 12763 3b80 06       		.uleb128 0x6
 12764 3b81 04       		.byte	0x4
ARM GAS  /tmp/cc5OZvFd.s 			page 225


 12765 3b82 8F360000 		.4byte	0x368f
 12766 3b86 06       		.uleb128 0x6
 12767 3b87 04       		.byte	0x4
 12768 3b88 8C3B0000 		.4byte	0x3b8c
 12769 3b8c 08       		.uleb128 0x8
 12770 3b8d 8F360000 		.4byte	0x368f
 12771 3b91 06       		.uleb128 0x6
 12772 3b92 04       		.byte	0x4
 12773 3b93 0B020000 		.4byte	0x20b
 12774 3b97 06       		.uleb128 0x6
 12775 3b98 04       		.byte	0x4
 12776 3b99 4F020000 		.4byte	0x24f
 12777 3b9d 06       		.uleb128 0x6
 12778 3b9e 04       		.byte	0x4
 12779 3b9f D6020000 		.4byte	0x2d6
 12780 3ba3 06       		.uleb128 0x6
 12781 3ba4 04       		.byte	0x4
 12782 3ba5 93020000 		.4byte	0x293
 12783 3ba9 06       		.uleb128 0x6
 12784 3baa 04       		.byte	0x4
 12785 3bab 1E030000 		.4byte	0x31e
 12786 3baf 06       		.uleb128 0x6
 12787 3bb0 04       		.byte	0x4
 12788 3bb1 B53B0000 		.4byte	0x3bb5
 12789 3bb5 57       		.uleb128 0x57
 12790 3bb6 06       		.uleb128 0x6
 12791 3bb7 04       		.byte	0x4
 12792 3bb8 D6040000 		.4byte	0x4d6
 12793 3bbc 06       		.uleb128 0x6
 12794 3bbd 04       		.byte	0x4
 12795 3bbe 13060000 		.4byte	0x613
 12796 3bc2 06       		.uleb128 0x6
 12797 3bc3 04       		.byte	0x4
 12798 3bc4 31060000 		.4byte	0x631
 12799 3bc8 06       		.uleb128 0x6
 12800 3bc9 04       		.byte	0x4
 12801 3bca D9060000 		.4byte	0x6d9
 12802 3bce 06       		.uleb128 0x6
 12803 3bcf 04       		.byte	0x4
 12804 3bd0 490B0000 		.4byte	0xb49
 12805 3bd4 06       		.uleb128 0x6
 12806 3bd5 04       		.byte	0x4
 12807 3bd6 A1090000 		.4byte	0x9a1
 12808 3bda 51       		.uleb128 0x51
 12809 3bdb 04       		.byte	0x4
 12810 3bdc A1090000 		.4byte	0x9a1
 12811 3be0 51       		.uleb128 0x51
 12812 3be1 04       		.byte	0x4
 12813 3be2 490B0000 		.4byte	0xb49
 12814 3be6 09       		.uleb128 0x9
 12815 3be7 5B000000 		.4byte	0x5b
 12816 3beb F63B0000 		.4byte	0x3bf6
 12817 3bef 0A       		.uleb128 0xa
 12818 3bf0 C3000000 		.4byte	0xc3
 12819 3bf4 0F       		.byte	0xf
 12820 3bf5 00       		.byte	0
 12821 3bf6 06       		.uleb128 0x6
ARM GAS  /tmp/cc5OZvFd.s 			page 226


 12822 3bf7 04       		.byte	0x4
 12823 3bf8 290C0000 		.4byte	0xc29
 12824 3bfc 09       		.uleb128 0x9
 12825 3bfd 5B000000 		.4byte	0x5b
 12826 3c01 0C3C0000 		.4byte	0x3c0c
 12827 3c05 0A       		.uleb128 0xa
 12828 3c06 C3000000 		.4byte	0xc3
 12829 3c0a 1D       		.byte	0x1d
 12830 3c0b 00       		.byte	0
 12831 3c0c 06       		.uleb128 0x6
 12832 3c0d 04       		.byte	0x4
 12833 3c0e DA110000 		.4byte	0x11da
 12834 3c12 51       		.uleb128 0x51
 12835 3c13 04       		.byte	0x4
 12836 3c14 3B370000 		.4byte	0x373b
 12837 3c18 06       		.uleb128 0x6
 12838 3c19 04       		.byte	0x4
 12839 3c1a DC0F0000 		.4byte	0xfdc
 12840 3c1e 51       		.uleb128 0x51
 12841 3c1f 04       		.byte	0x4
 12842 3c20 DF110000 		.4byte	0x11df
 12843 3c24 51       		.uleb128 0x51
 12844 3c25 04       		.byte	0x4
 12845 3c26 DC0F0000 		.4byte	0xfdc
 12846 3c2a 51       		.uleb128 0x51
 12847 3c2b 04       		.byte	0x4
 12848 3c2c 98130000 		.4byte	0x1398
 12849 3c30 06       		.uleb128 0x6
 12850 3c31 04       		.byte	0x4
 12851 3c32 4A160000 		.4byte	0x164a
 12852 3c36 06       		.uleb128 0x6
 12853 3c37 04       		.byte	0x4
 12854 3c38 DF110000 		.4byte	0x11df
 12855 3c3c 51       		.uleb128 0x51
 12856 3c3d 04       		.byte	0x4
 12857 3c3e 433B0000 		.4byte	0x3b43
 12858 3c42 06       		.uleb128 0x6
 12859 3c43 04       		.byte	0x4
 12860 3c44 98130000 		.4byte	0x1398
 12861 3c48 04       		.uleb128 0x4
 12862 3c49 08       		.byte	0x8
 12863 3c4a 04       		.byte	0x4
 12864 3c4b 7B260000 		.4byte	.LASF772
 12865 3c4f 51       		.uleb128 0x51
 12866 3c50 04       		.byte	0x4
 12867 3c51 9D130000 		.4byte	0x139d
 12868 3c55 06       		.uleb128 0x6
 12869 3c56 04       		.byte	0x4
 12870 3c57 9D130000 		.4byte	0x139d
 12871 3c5b 06       		.uleb128 0x6
 12872 3c5c 04       		.byte	0x4
 12873 3c5d 07180000 		.4byte	0x1807
 12874 3c61 06       		.uleb128 0x6
 12875 3c62 04       		.byte	0x4
 12876 3c63 4F160000 		.4byte	0x164f
 12877 3c67 51       		.uleb128 0x51
 12878 3c68 04       		.byte	0x4
ARM GAS  /tmp/cc5OZvFd.s 			page 227


 12879 3c69 4F160000 		.4byte	0x164f
 12880 3c6d 08       		.uleb128 0x8
 12881 3c6e EB000000 		.4byte	0xeb
 12882 3c72 06       		.uleb128 0x6
 12883 3c73 04       		.byte	0x4
 12884 3c74 2A1A0000 		.4byte	0x1a2a
 12885 3c78 06       		.uleb128 0x6
 12886 3c79 04       		.byte	0x4
 12887 3c7a 2F1A0000 		.4byte	0x1a2f
 12888 3c7e 51       		.uleb128 0x51
 12889 3c7f 04       		.byte	0x4
 12890 3c80 A31B0000 		.4byte	0x1ba3
 12891 3c84 51       		.uleb128 0x51
 12892 3c85 04       		.byte	0x4
 12893 3c86 2F1A0000 		.4byte	0x1a2f
 12894 3c8a 06       		.uleb128 0x6
 12895 3c8b 04       		.byte	0x4
 12896 3c8c A31B0000 		.4byte	0x1ba3
 12897 3c90 51       		.uleb128 0x51
 12898 3c91 04       		.byte	0x4
 12899 3c92 2A1A0000 		.4byte	0x1a2a
 12900 3c96 06       		.uleb128 0x6
 12901 3c97 04       		.byte	0x4
 12902 3c98 A61F0000 		.4byte	0x1fa6
 12903 3c9c 06       		.uleb128 0x6
 12904 3c9d 04       		.byte	0x4
 12905 3c9e DC1F0000 		.4byte	0x1fdc
 12906 3ca2 06       		.uleb128 0x6
 12907 3ca3 04       		.byte	0x4
 12908 3ca4 2E0C0000 		.4byte	0xc2e
 12909 3ca8 08       		.uleb128 0x8
 12910 3ca9 B0360000 		.4byte	0x36b0
 12911 3cad 06       		.uleb128 0x6
 12912 3cae 04       		.byte	0x4
 12913 3caf 0C180000 		.4byte	0x180c
 12914 3cb3 51       		.uleb128 0x51
 12915 3cb4 04       		.byte	0x4
 12916 3cb5 CC0F0000 		.4byte	0xfcc
 12917 3cb9 51       		.uleb128 0x51
 12918 3cba 04       		.byte	0x4
 12919 3cbb D10F0000 		.4byte	0xfd1
 12920 3cbf 51       		.uleb128 0x51
 12921 3cc0 04       		.byte	0x4
 12922 3cc1 D60F0000 		.4byte	0xfd6
 12923 3cc5 51       		.uleb128 0x51
 12924 3cc6 04       		.byte	0x4
 12925 3cc7 290C0000 		.4byte	0xc29
 12926 3ccb 51       		.uleb128 0x51
 12927 3ccc 04       		.byte	0x4
 12928 3ccd A61F0000 		.4byte	0x1fa6
 12929 3cd1 51       		.uleb128 0x51
 12930 3cd2 04       		.byte	0x4
 12931 3cd3 DC1F0000 		.4byte	0x1fdc
 12932 3cd7 51       		.uleb128 0x51
 12933 3cd8 04       		.byte	0x4
 12934 3cd9 DB0D0000 		.4byte	0xddb
 12935 3cdd 06       		.uleb128 0x6
ARM GAS  /tmp/cc5OZvFd.s 			page 228


 12936 3cde 04       		.byte	0x4
 12937 3cdf 47200000 		.4byte	0x2047
 12938 3ce3 06       		.uleb128 0x6
 12939 3ce4 04       		.byte	0x4
 12940 3ce5 E93C0000 		.4byte	0x3ce9
 12941 3ce9 56       		.uleb128 0x56
 12942 3cea E7360000 		.4byte	0x36e7
 12943 3cee F83C0000 		.4byte	0x3cf8
 12944 3cf2 0E       		.uleb128 0xe
 12945 3cf3 F83C0000 		.4byte	0x3cf8
 12946 3cf7 00       		.byte	0
 12947 3cf8 51       		.uleb128 0x51
 12948 3cf9 04       		.byte	0x4
 12949 3cfa 02250000 		.4byte	0x2502
 12950 3cfe 06       		.uleb128 0x6
 12951 3cff 04       		.byte	0x4
 12952 3d00 043D0000 		.4byte	0x3d04
 12953 3d04 56       		.uleb128 0x56
 12954 3d05 E7360000 		.4byte	0x36e7
 12955 3d09 183D0000 		.4byte	0x3d18
 12956 3d0d 0E       		.uleb128 0xe
 12957 3d0e F83C0000 		.4byte	0x3cf8
 12958 3d12 0E       		.uleb128 0xe
 12959 3d13 AF3B0000 		.4byte	0x3baf
 12960 3d17 00       		.byte	0
 12961 3d18 06       		.uleb128 0x6
 12962 3d19 04       		.byte	0x4
 12963 3d1a DF200000 		.4byte	0x20df
 12964 3d1e 06       		.uleb128 0x6
 12965 3d1f 04       		.byte	0x4
 12966 3d20 0C250000 		.4byte	0x250c
 12967 3d24 06       		.uleb128 0x6
 12968 3d25 04       		.byte	0x4
 12969 3d26 35200000 		.4byte	0x2035
 12970 3d2a 51       		.uleb128 0x51
 12971 3d2b 04       		.byte	0x4
 12972 3d2c 47200000 		.4byte	0x2047
 12973 3d30 06       		.uleb128 0x6
 12974 3d31 04       		.byte	0x4
 12975 3d32 07250000 		.4byte	0x2507
 12976 3d36 51       		.uleb128 0x51
 12977 3d37 04       		.byte	0x4
 12978 3d38 94200000 		.4byte	0x2094
 12979 3d3c 51       		.uleb128 0x51
 12980 3d3d 04       		.byte	0x4
 12981 3d3e 99200000 		.4byte	0x2099
 12982 3d42 51       		.uleb128 0x51
 12983 3d43 04       		.byte	0x4
 12984 3d44 9E200000 		.4byte	0x209e
 12985 3d48 51       		.uleb128 0x51
 12986 3d49 04       		.byte	0x4
 12987 3d4a A3200000 		.4byte	0x20a3
 12988 3d4e 06       		.uleb128 0x6
 12989 3d4f 04       		.byte	0x4
 12990 3d50 23250000 		.4byte	0x2523
 12991 3d54 06       		.uleb128 0x6
 12992 3d55 04       		.byte	0x4
ARM GAS  /tmp/cc5OZvFd.s 			page 229


 12993 3d56 5A3D0000 		.4byte	0x3d5a
 12994 3d5a 56       		.uleb128 0x56
 12995 3d5b E7360000 		.4byte	0x36e7
 12996 3d5f 693D0000 		.4byte	0x3d69
 12997 3d63 0E       		.uleb128 0xe
 12998 3d64 693D0000 		.4byte	0x3d69
 12999 3d68 00       		.byte	0
 13000 3d69 51       		.uleb128 0x51
 13001 3d6a 04       		.byte	0x4
 13002 3d6b DE290000 		.4byte	0x29de
 13003 3d6f 06       		.uleb128 0x6
 13004 3d70 04       		.byte	0x4
 13005 3d71 753D0000 		.4byte	0x3d75
 13006 3d75 56       		.uleb128 0x56
 13007 3d76 E7360000 		.4byte	0x36e7
 13008 3d7a 893D0000 		.4byte	0x3d89
 13009 3d7e 0E       		.uleb128 0xe
 13010 3d7f 693D0000 		.4byte	0x3d69
 13011 3d83 0E       		.uleb128 0xe
 13012 3d84 AF3B0000 		.4byte	0x3baf
 13013 3d88 00       		.byte	0
 13014 3d89 06       		.uleb128 0x6
 13015 3d8a 04       		.byte	0x4
 13016 3d8b BB250000 		.4byte	0x25bb
 13017 3d8f 06       		.uleb128 0x6
 13018 3d90 04       		.byte	0x4
 13019 3d91 E8290000 		.4byte	0x29e8
 13020 3d95 06       		.uleb128 0x6
 13021 3d96 04       		.byte	0x4
 13022 3d97 11250000 		.4byte	0x2511
 13023 3d9b 51       		.uleb128 0x51
 13024 3d9c 04       		.byte	0x4
 13025 3d9d 23250000 		.4byte	0x2523
 13026 3da1 06       		.uleb128 0x6
 13027 3da2 04       		.byte	0x4
 13028 3da3 E3290000 		.4byte	0x29e3
 13029 3da7 51       		.uleb128 0x51
 13030 3da8 04       		.byte	0x4
 13031 3da9 70250000 		.4byte	0x2570
 13032 3dad 51       		.uleb128 0x51
 13033 3dae 04       		.byte	0x4
 13034 3daf 75250000 		.4byte	0x2575
 13035 3db3 51       		.uleb128 0x51
 13036 3db4 04       		.byte	0x4
 13037 3db5 7A250000 		.4byte	0x257a
 13038 3db9 51       		.uleb128 0x51
 13039 3dba 04       		.byte	0x4
 13040 3dbb 7F250000 		.4byte	0x257f
 13041 3dbf 06       		.uleb128 0x6
 13042 3dc0 04       		.byte	0x4
 13043 3dc1 FF290000 		.4byte	0x29ff
 13044 3dc5 06       		.uleb128 0x6
 13045 3dc6 04       		.byte	0x4
 13046 3dc7 CB3D0000 		.4byte	0x3dcb
 13047 3dcb 56       		.uleb128 0x56
 13048 3dcc E7360000 		.4byte	0x36e7
 13049 3dd0 DA3D0000 		.4byte	0x3dda
ARM GAS  /tmp/cc5OZvFd.s 			page 230


 13050 3dd4 0E       		.uleb128 0xe
 13051 3dd5 DA3D0000 		.4byte	0x3dda
 13052 3dd9 00       		.byte	0
 13053 3dda 51       		.uleb128 0x51
 13054 3ddb 04       		.byte	0x4
 13055 3ddc BA2E0000 		.4byte	0x2eba
 13056 3de0 06       		.uleb128 0x6
 13057 3de1 04       		.byte	0x4
 13058 3de2 E63D0000 		.4byte	0x3de6
 13059 3de6 56       		.uleb128 0x56
 13060 3de7 E7360000 		.4byte	0x36e7
 13061 3deb FA3D0000 		.4byte	0x3dfa
 13062 3def 0E       		.uleb128 0xe
 13063 3df0 DA3D0000 		.4byte	0x3dda
 13064 3df4 0E       		.uleb128 0xe
 13065 3df5 AF3B0000 		.4byte	0x3baf
 13066 3df9 00       		.byte	0
 13067 3dfa 06       		.uleb128 0x6
 13068 3dfb 04       		.byte	0x4
 13069 3dfc 972A0000 		.4byte	0x2a97
 13070 3e00 06       		.uleb128 0x6
 13071 3e01 04       		.byte	0x4
 13072 3e02 2F340000 		.4byte	0x342f
 13073 3e06 06       		.uleb128 0x6
 13074 3e07 04       		.byte	0x4
 13075 3e08 ED290000 		.4byte	0x29ed
 13076 3e0c 51       		.uleb128 0x51
 13077 3e0d 04       		.byte	0x4
 13078 3e0e FF290000 		.4byte	0x29ff
 13079 3e12 06       		.uleb128 0x6
 13080 3e13 04       		.byte	0x4
 13081 3e14 BF2E0000 		.4byte	0x2ebf
 13082 3e18 51       		.uleb128 0x51
 13083 3e19 04       		.byte	0x4
 13084 3e1a 4C2A0000 		.4byte	0x2a4c
 13085 3e1e 51       		.uleb128 0x51
 13086 3e1f 04       		.byte	0x4
 13087 3e20 512A0000 		.4byte	0x2a51
 13088 3e24 51       		.uleb128 0x51
 13089 3e25 04       		.byte	0x4
 13090 3e26 562A0000 		.4byte	0x2a56
 13091 3e2a 51       		.uleb128 0x51
 13092 3e2b 04       		.byte	0x4
 13093 3e2c 5B2A0000 		.4byte	0x2a5b
 13094 3e30 08       		.uleb128 0x8
 13095 3e31 123E0000 		.4byte	0x3e12
 13096 3e35 51       		.uleb128 0x51
 13097 3e36 04       		.byte	0x4
 13098 3e37 BF2E0000 		.4byte	0x2ebf
 13099 3e3b 08       		.uleb128 0x8
 13100 3e3c E0000000 		.4byte	0xe0
 13101 3e40 06       		.uleb128 0x6
 13102 3e41 04       		.byte	0x4
 13103 3e42 BA2E0000 		.4byte	0x2eba
 13104 3e46 51       		.uleb128 0x51
 13105 3e47 04       		.byte	0x4
 13106 3e48 34340000 		.4byte	0x3434
ARM GAS  /tmp/cc5OZvFd.s 			page 231


 13107 3e4c 51       		.uleb128 0x51
 13108 3e4d 04       		.byte	0x4
 13109 3e4e 39340000 		.4byte	0x3439
 13110 3e52 51       		.uleb128 0x51
 13111 3e53 04       		.byte	0x4
 13112 3e54 07250000 		.4byte	0x2507
 13113 3e58 51       		.uleb128 0x51
 13114 3e59 04       		.byte	0x4
 13115 3e5a E3290000 		.4byte	0x29e3
 13116 3e5e 51       		.uleb128 0x51
 13117 3e5f 04       		.byte	0x4
 13118 3e60 3E340000 		.4byte	0x343e
 13119 3e64 51       		.uleb128 0x51
 13120 3e65 04       		.byte	0x4
 13121 3e66 D43B0000 		.4byte	0x3bd4
 13122 3e6a 08       		.uleb128 0x8
 13123 3e6b 303D0000 		.4byte	0x3d30
 13124 3e6f 09       		.uleb128 0x9
 13125 3e70 D9000000 		.4byte	0xd9
 13126 3e74 7F3E0000 		.4byte	0x3e7f
 13127 3e78 0A       		.uleb128 0xa
 13128 3e79 C3000000 		.4byte	0xc3
 13129 3e7d 06       		.byte	0x6
 13130 3e7e 00       		.byte	0
 13131 3e7f 09       		.uleb128 0x9
 13132 3e80 D9000000 		.4byte	0xd9
 13133 3e84 8F3E0000 		.4byte	0x3e8f
 13134 3e88 0A       		.uleb128 0xa
 13135 3e89 C3000000 		.4byte	0xc3
 13136 3e8d 0F       		.byte	0xf
 13137 3e8e 00       		.byte	0
 13138 3e8f 09       		.uleb128 0x9
 13139 3e90 5B000000 		.4byte	0x5b
 13140 3e94 9F3E0000 		.4byte	0x3e9f
 13141 3e98 0A       		.uleb128 0xa
 13142 3e99 C3000000 		.4byte	0xc3
 13143 3e9d 09       		.byte	0x9
 13144 3e9e 00       		.byte	0
 13145 3e9f 09       		.uleb128 0x9
 13146 3ea0 5B000000 		.4byte	0x5b
 13147 3ea4 AF3E0000 		.4byte	0x3eaf
 13148 3ea8 0A       		.uleb128 0xa
 13149 3ea9 C3000000 		.4byte	0xc3
 13150 3ead 1E       		.byte	0x1e
 13151 3eae 00       		.byte	0
 13152 3eaf 08       		.uleb128 0x8
 13153 3eb0 A13D0000 		.4byte	0x3da1
 13154 3eb4 58       		.uleb128 0x58
 13155 3eb5 A7350000 		.4byte	0x35a7
 13156 3eb9 03       		.byte	0x3
 13157 3eba E73E0000 		.4byte	0x3ee7
 13158 3ebe 23       		.uleb128 0x23
 13159 3ebf AA330000 		.4byte	.LASF682
 13160 3ec3 2E0C0000 		.4byte	0xc2e
 13161 3ec7 23       		.uleb128 0x23
 13162 3ec8 043B0000 		.4byte	.LASF683
 13163 3ecc A1090000 		.4byte	0x9a1
ARM GAS  /tmp/cc5OZvFd.s 			page 232


 13164 3ed0 59       		.uleb128 0x59
 13165 3ed1 5A       		.uleb128 0x5a
 13166 3ed2 706400   		.ascii	"pd\000"
 13167 3ed5 04       		.byte	0x4
 13168 3ed6 21       		.byte	0x21
 13169 3ed7 E73E0000 		.4byte	0x3ee7
 13170 3edb 5A       		.uleb128 0x5a
 13171 3edc 706200   		.ascii	"pb\000"
 13172 3edf 04       		.byte	0x4
 13173 3ee0 22       		.byte	0x22
 13174 3ee1 F23E0000 		.4byte	0x3ef2
 13175 3ee5 00       		.byte	0
 13176 3ee6 00       		.byte	0
 13177 3ee7 08       		.uleb128 0x8
 13178 3ee8 EC3E0000 		.4byte	0x3eec
 13179 3eec 06       		.uleb128 0x6
 13180 3eed 04       		.byte	0x4
 13181 3eee C5350000 		.4byte	0x35c5
 13182 3ef2 08       		.uleb128 0x8
 13183 3ef3 CE3B0000 		.4byte	0x3bce
 13184 3ef7 5B       		.uleb128 0x5b
 13185 3ef8 D0010000 		.4byte	0x1d0
 13186 3efc 02       		.byte	0x2
 13187 3efd 053F0000 		.4byte	0x3f05
 13188 3f01 0F3F0000 		.4byte	0x3f0f
 13189 3f05 5C       		.uleb128 0x5c
 13190 3f06 1D220000 		.4byte	.LASF777
 13191 3f0a 0F3F0000 		.4byte	0x3f0f
 13192 3f0e 00       		.byte	0
 13193 3f0f 08       		.uleb128 0x8
 13194 3f10 83360000 		.4byte	0x3683
 13195 3f14 5D       		.uleb128 0x5d
 13196 3f15 F73E0000 		.4byte	0x3ef7
 13197 3f19 8D150000 		.4byte	.LASF781
 13198 3f1d 00000000 		.4byte	.LFB6
 13199 3f21 0C000000 		.4byte	.LFE6-.LFB6
 13200 3f25 01       		.uleb128 0x1
 13201 3f26 9C       		.byte	0x9c
 13202 3f27 2F3F0000 		.4byte	0x3f2f
 13203 3f2b 383F0000 		.4byte	0x3f38
 13204 3f2f 5E       		.uleb128 0x5e
 13205 3f30 053F0000 		.4byte	0x3f05
 13206 3f34 02       		.uleb128 0x2
 13207 3f35 91       		.byte	0x91
 13208 3f36 7C       		.sleb128 -4
 13209 3f37 00       		.byte	0
 13210 3f38 5F       		.uleb128 0x5f
 13211 3f39 36020000 		.4byte	0x236
 13212 3f3d 14       		.byte	0x14
 13213 3f3e 00000000 		.4byte	.LFB18
 13214 3f42 0E000000 		.4byte	.LFE18-.LFB18
 13215 3f46 01       		.uleb128 0x1
 13216 3f47 9C       		.byte	0x9c
 13217 3f48 643F0000 		.4byte	0x3f64
 13218 3f4c 60       		.uleb128 0x60
 13219 3f4d 02000000 		.4byte	.LBB16
 13220 3f51 06000000 		.4byte	.LBE16-.LBB16
ARM GAS  /tmp/cc5OZvFd.s 			page 233


 13221 3f55 61       		.uleb128 0x61
 13222 3f56 746D7000 		.ascii	"tmp\000"
 13223 3f5a 02       		.byte	0x2
 13224 3f5b 16       		.byte	0x16
 13225 3f5c B0360000 		.4byte	0x36b0
 13226 3f60 01       		.uleb128 0x1
 13227 3f61 53       		.byte	0x53
 13228 3f62 00       		.byte	0
 13229 3f63 00       		.byte	0
 13230 3f64 5F       		.uleb128 0x5f
 13231 3f65 42020000 		.4byte	0x242
 13232 3f69 1B       		.byte	0x1b
 13233 3f6a 00000000 		.4byte	.LFB19
 13234 3f6e 0E000000 		.4byte	.LFE19-.LFB19
 13235 3f72 01       		.uleb128 0x1
 13236 3f73 9C       		.byte	0x9c
 13237 3f74 903F0000 		.4byte	0x3f90
 13238 3f78 60       		.uleb128 0x60
 13239 3f79 06000000 		.4byte	.LBB19
 13240 3f7d 06000000 		.4byte	.LBE19-.LBB19
 13241 3f81 61       		.uleb128 0x61
 13242 3f82 746D7000 		.ascii	"tmp\000"
 13243 3f86 02       		.byte	0x2
 13244 3f87 1D       		.byte	0x1d
 13245 3f88 B0360000 		.4byte	0x36b0
 13246 3f8c 01       		.uleb128 0x1
 13247 3f8d 53       		.byte	0x53
 13248 3f8e 00       		.byte	0
 13249 3f8f 00       		.byte	0
 13250 3f90 62       		.uleb128 0x62
 13251 3f91 7A020000 		.4byte	0x27a
 13252 3f95 1B       		.byte	0x1b
 13253 3f96 00000000 		.4byte	.LFB26
 13254 3f9a 08000000 		.4byte	.LFE26-.LFB26
 13255 3f9e 01       		.uleb128 0x1
 13256 3f9f 9C       		.byte	0x9c
 13257 3fa0 62       		.uleb128 0x62
 13258 3fa1 86020000 		.4byte	0x286
 13259 3fa5 22       		.byte	0x22
 13260 3fa6 00000000 		.4byte	.LFB27
 13261 3faa 08000000 		.4byte	.LFE27-.LFB27
 13262 3fae 01       		.uleb128 0x1
 13263 3faf 9C       		.byte	0x9c
 13264 3fb0 63       		.uleb128 0x63
 13265 3fb1 CA350000 		.4byte	0x35ca
 13266 3fb5 00000000 		.4byte	.LFB33
 13267 3fb9 2E000000 		.4byte	.LFE33-.LFB33
 13268 3fbd 01       		.uleb128 0x1
 13269 3fbe 9C       		.byte	0x9c
 13270 3fbf 1E400000 		.4byte	0x401e
 13271 3fc3 64       		.uleb128 0x64
 13272 3fc4 17190000 		.4byte	.LASF773
 13273 3fc8 04       		.byte	0x4
 13274 3fc9 47       		.byte	0x47
 13275 3fca AF3B0000 		.4byte	0x3baf
 13276 3fce 02       		.uleb128 0x2
 13277 3fcf 91       		.byte	0x91
ARM GAS  /tmp/cc5OZvFd.s 			page 234


 13278 3fd0 74       		.sleb128 -12
 13279 3fd1 64       		.uleb128 0x64
 13280 3fd2 3F2B0000 		.4byte	.LASF774
 13281 3fd6 04       		.byte	0x4
 13282 3fd7 47       		.byte	0x47
 13283 3fd8 37000000 		.4byte	0x37
 13284 3fdc 02       		.uleb128 0x2
 13285 3fdd 91       		.byte	0x91
 13286 3fde 70       		.sleb128 -16
 13287 3fdf 64       		.uleb128 0x64
 13288 3fe0 E6410000 		.4byte	.LASF775
 13289 3fe4 04       		.byte	0x4
 13290 3fe5 48       		.byte	0x48
 13291 3fe6 AF3B0000 		.4byte	0x3baf
 13292 3fea 02       		.uleb128 0x2
 13293 3feb 91       		.byte	0x91
 13294 3fec 6C       		.sleb128 -20
 13295 3fed 64       		.uleb128 0x64
 13296 3fee 863C0000 		.4byte	.LASF776
 13297 3ff2 04       		.byte	0x4
 13298 3ff3 48       		.byte	0x48
 13299 3ff4 37000000 		.4byte	0x37
 13300 3ff8 02       		.uleb128 0x2
 13301 3ff9 91       		.byte	0x91
 13302 3ffa 68       		.sleb128 -24
 13303 3ffb 60       		.uleb128 0x60
 13304 3ffc 0C000000 		.4byte	.LBB20
 13305 4000 1A000000 		.4byte	.LBE20-.LBB20
 13306 4004 61       		.uleb128 0x61
 13307 4005 767000   		.ascii	"vp\000"
 13308 4008 04       		.byte	0x4
 13309 4009 4A       		.byte	0x4a
 13310 400a 1E400000 		.4byte	0x401e
 13311 400e 01       		.uleb128 0x1
 13312 400f 55       		.byte	0x55
 13313 4010 61       		.uleb128 0x61
 13314 4011 737000   		.ascii	"sp\000"
 13315 4014 04       		.byte	0x4
 13316 4015 4B       		.byte	0x4b
 13317 4016 1E400000 		.4byte	0x401e
 13318 401a 01       		.uleb128 0x1
 13319 401b 54       		.byte	0x54
 13320 401c 00       		.byte	0
 13321 401d 00       		.byte	0
 13322 401e 08       		.uleb128 0x8
 13323 401f 863B0000 		.4byte	0x3b86
 13324 4023 65       		.uleb128 0x65
 13325 4024 4F040000 		.4byte	0x44f
 13326 4028 5F       		.byte	0x5f
 13327 4029 00000000 		.4byte	.LFB36
 13328 402d 1A000000 		.4byte	.LFE36-.LFB36
 13329 4031 01       		.uleb128 0x1
 13330 4032 9C       		.byte	0x9c
 13331 4033 46400000 		.4byte	0x4046
 13332 4037 66       		.uleb128 0x66
 13333 4038 70747200 		.ascii	"ptr\000"
 13334 403c 05       		.byte	0x5
ARM GAS  /tmp/cc5OZvFd.s 			page 235


 13335 403d 5F       		.byte	0x5f
 13336 403e AF3B0000 		.4byte	0x3baf
 13337 4042 02       		.uleb128 0x2
 13338 4043 91       		.byte	0x91
 13339 4044 7C       		.sleb128 -4
 13340 4045 00       		.byte	0
 13341 4046 5F       		.uleb128 0x5f
 13342 4047 69040000 		.4byte	0x469
 13343 404b 66       		.byte	0x66
 13344 404c 00000000 		.4byte	.LFB37
 13345 4050 2C000000 		.4byte	.LFE37-.LFB37
 13346 4054 01       		.uleb128 0x1
 13347 4055 9C       		.byte	0x9c
 13348 4056 69400000 		.4byte	0x4069
 13349 405a 66       		.uleb128 0x66
 13350 405b 70747200 		.ascii	"ptr\000"
 13351 405f 05       		.byte	0x5
 13352 4060 66       		.byte	0x66
 13353 4061 AF3B0000 		.4byte	0x3baf
 13354 4065 02       		.uleb128 0x2
 13355 4066 91       		.byte	0x91
 13356 4067 74       		.sleb128 -12
 13357 4068 00       		.byte	0
 13358 4069 65       		.uleb128 0x65
 13359 406a 6C050000 		.4byte	0x56c
 13360 406e 80       		.byte	0x80
 13361 406f 00000000 		.4byte	.LFB40
 13362 4073 10000000 		.4byte	.LFE40-.LFB40
 13363 4077 01       		.uleb128 0x1
 13364 4078 9C       		.byte	0x9c
 13365 4079 8C400000 		.4byte	0x408c
 13366 407d 64       		.uleb128 0x64
 13367 407e D2210000 		.4byte	.LASF193
 13368 4082 05       		.byte	0x5
 13369 4083 80       		.byte	0x80
 13370 4084 863B0000 		.4byte	0x3b86
 13371 4088 02       		.uleb128 0x2
 13372 4089 91       		.byte	0x91
 13373 408a 7C       		.sleb128 -4
 13374 408b 00       		.byte	0
 13375 408c 5F       		.uleb128 0x5f
 13376 408d 86050000 		.4byte	0x586
 13377 4091 89       		.byte	0x89
 13378 4092 00000000 		.4byte	.LFB41
 13379 4096 1A000000 		.4byte	.LFE41-.LFB41
 13380 409a 01       		.uleb128 0x1
 13381 409b 9C       		.byte	0x9c
 13382 409c AF400000 		.4byte	0x40af
 13383 40a0 64       		.uleb128 0x64
 13384 40a1 D2210000 		.4byte	.LASF193
 13385 40a5 05       		.byte	0x5
 13386 40a6 89       		.byte	0x89
 13387 40a7 863B0000 		.4byte	0x3b86
 13388 40ab 02       		.uleb128 0x2
 13389 40ac 91       		.byte	0x91
 13390 40ad 74       		.sleb128 -12
 13391 40ae 00       		.byte	0
ARM GAS  /tmp/cc5OZvFd.s 			page 236


 13392 40af 67       		.uleb128 0x67
 13393 40b0 A0050000 		.4byte	0x5a0
 13394 40b4 90       		.byte	0x90
 13395 40b5 00000000 		.4byte	.LFB42
 13396 40b9 18000000 		.4byte	.LFE42-.LFB42
 13397 40bd 01       		.uleb128 0x1
 13398 40be 9C       		.byte	0x9c
 13399 40bf 62       		.uleb128 0x62
 13400 40c0 B0050000 		.4byte	0x5b0
 13401 40c4 9A       		.byte	0x9a
 13402 40c5 00000000 		.4byte	.LFB43
 13403 40c9 14000000 		.4byte	.LFE43-.LFB43
 13404 40cd 01       		.uleb128 0x1
 13405 40ce 9C       		.byte	0x9c
 13406 40cf 67       		.uleb128 0x67
 13407 40d0 D0050000 		.4byte	0x5d0
 13408 40d4 A8       		.byte	0xa8
 13409 40d5 00000000 		.4byte	.LFB45
 13410 40d9 0C000000 		.4byte	.LFE45-.LFB45
 13411 40dd 01       		.uleb128 0x1
 13412 40de 9C       		.byte	0x9c
 13413 40df 67       		.uleb128 0x67
 13414 40e0 E0050000 		.4byte	0x5e0
 13415 40e4 AF       		.byte	0xaf
 13416 40e5 00000000 		.4byte	.LFB46
 13417 40e9 0C000000 		.4byte	.LFE46-.LFB46
 13418 40ed 01       		.uleb128 0x1
 13419 40ee 9C       		.byte	0x9c
 13420 40ef 5F       		.uleb128 0x5f
 13421 40f0 7A070000 		.4byte	0x77a
 13422 40f4 47       		.byte	0x47
 13423 40f5 00000000 		.4byte	.LFB48
 13424 40f9 16000000 		.4byte	.LFE48-.LFB48
 13425 40fd 01       		.uleb128 0x1
 13426 40fe 9C       		.byte	0x9c
 13427 40ff 12410000 		.4byte	0x4112
 13428 4103 66       		.uleb128 0x66
 13429 4104 70747200 		.ascii	"ptr\000"
 13430 4108 06       		.byte	0x6
 13431 4109 47       		.byte	0x47
 13432 410a AF3B0000 		.4byte	0x3baf
 13433 410e 02       		.uleb128 0x2
 13434 410f 91       		.byte	0x91
 13435 4110 74       		.sleb128 -12
 13436 4111 00       		.byte	0
 13437 4112 5F       		.uleb128 0x5f
 13438 4113 94070000 		.4byte	0x794
 13439 4117 4E       		.byte	0x4e
 13440 4118 00000000 		.4byte	.LFB49
 13441 411c 16000000 		.4byte	.LFE49-.LFB49
 13442 4120 01       		.uleb128 0x1
 13443 4121 9C       		.byte	0x9c
 13444 4122 35410000 		.4byte	0x4135
 13445 4126 66       		.uleb128 0x66
 13446 4127 70747200 		.ascii	"ptr\000"
 13447 412b 06       		.byte	0x6
 13448 412c 4E       		.byte	0x4e
ARM GAS  /tmp/cc5OZvFd.s 			page 237


 13449 412d AF3B0000 		.4byte	0x3baf
 13450 4131 02       		.uleb128 0x2
 13451 4132 91       		.byte	0x91
 13452 4133 74       		.sleb128 -12
 13453 4134 00       		.byte	0
 13454 4135 68       		.uleb128 0x68
 13455 4136 74060000 		.4byte	0x674
 13456 413a 5C       		.byte	0x5c
 13457 413b 00000000 		.4byte	.LFB51
 13458 413f 16000000 		.4byte	.LFE51-.LFB51
 13459 4143 01       		.uleb128 0x1
 13460 4144 9C       		.byte	0x9c
 13461 4145 4D410000 		.4byte	0x414d
 13462 4149 5A410000 		.4byte	0x415a
 13463 414d 69       		.uleb128 0x69
 13464 414e 1D220000 		.4byte	.LASF777
 13465 4152 5A410000 		.4byte	0x415a
 13466 4156 02       		.uleb128 0x2
 13467 4157 91       		.byte	0x91
 13468 4158 74       		.sleb128 -12
 13469 4159 00       		.byte	0
 13470 415a 08       		.uleb128 0x8
 13471 415b BC3B0000 		.4byte	0x3bbc
 13472 415f 68       		.uleb128 0x68
 13473 4160 8E060000 		.4byte	0x68e
 13474 4164 63       		.byte	0x63
 13475 4165 00000000 		.4byte	.LFB52
 13476 4169 1A000000 		.4byte	.LFE52-.LFB52
 13477 416d 01       		.uleb128 0x1
 13478 416e 9C       		.byte	0x9c
 13479 416f 77410000 		.4byte	0x4177
 13480 4173 84410000 		.4byte	0x4184
 13481 4177 69       		.uleb128 0x69
 13482 4178 1D220000 		.4byte	.LASF777
 13483 417c 5A410000 		.4byte	0x415a
 13484 4180 02       		.uleb128 0x2
 13485 4181 91       		.byte	0x91
 13486 4182 74       		.sleb128 -12
 13487 4183 00       		.byte	0
 13488 4184 68       		.uleb128 0x68
 13489 4185 06070000 		.4byte	0x706
 13490 4189 79       		.byte	0x79
 13491 418a 00000000 		.4byte	.LFB55
 13492 418e 26000000 		.4byte	.LFE55-.LFB55
 13493 4192 01       		.uleb128 0x1
 13494 4193 9C       		.byte	0x9c
 13495 4194 9C410000 		.4byte	0x419c
 13496 4198 D3410000 		.4byte	0x41d3
 13497 419c 69       		.uleb128 0x69
 13498 419d 1D220000 		.4byte	.LASF777
 13499 41a1 5A410000 		.4byte	0x415a
 13500 41a5 02       		.uleb128 0x2
 13501 41a6 91       		.byte	0x91
 13502 41a7 74       		.sleb128 -12
 13503 41a8 64       		.uleb128 0x64
 13504 41a9 D2210000 		.4byte	.LASF193
 13505 41ad 06       		.byte	0x6
ARM GAS  /tmp/cc5OZvFd.s 			page 238


 13506 41ae 79       		.byte	0x79
 13507 41af 863B0000 		.4byte	0x3b86
 13508 41b3 02       		.uleb128 0x2
 13509 41b4 91       		.byte	0x91
 13510 41b5 70       		.sleb128 -16
 13511 41b6 64       		.uleb128 0x64
 13512 41b7 55290000 		.4byte	.LASF778
 13513 41bb 06       		.byte	0x6
 13514 41bc 79       		.byte	0x79
 13515 41bd 863B0000 		.4byte	0x3b86
 13516 41c1 02       		.uleb128 0x2
 13517 41c2 91       		.byte	0x91
 13518 41c3 6C       		.sleb128 -20
 13519 41c4 64       		.uleb128 0x64
 13520 41c5 79440000 		.4byte	.LASF779
 13521 41c9 06       		.byte	0x6
 13522 41ca 7A       		.byte	0x7a
 13523 41cb 37000000 		.4byte	0x37
 13524 41cf 02       		.uleb128 0x2
 13525 41d0 91       		.byte	0x91
 13526 41d1 68       		.sleb128 -24
 13527 41d2 00       		.byte	0
 13528 41d3 68       		.uleb128 0x68
 13529 41d4 33070000 		.4byte	0x733
 13530 41d8 81       		.byte	0x81
 13531 41d9 00000000 		.4byte	.LFB56
 13532 41dd 22000000 		.4byte	.LFE56-.LFB56
 13533 41e1 01       		.uleb128 0x1
 13534 41e2 9C       		.byte	0x9c
 13535 41e3 EB410000 		.4byte	0x41eb
 13536 41e7 14420000 		.4byte	0x4214
 13537 41eb 69       		.uleb128 0x69
 13538 41ec 1D220000 		.4byte	.LASF777
 13539 41f0 5A410000 		.4byte	0x415a
 13540 41f4 02       		.uleb128 0x2
 13541 41f5 91       		.byte	0x91
 13542 41f6 74       		.sleb128 -12
 13543 41f7 64       		.uleb128 0x64
 13544 41f8 D2210000 		.4byte	.LASF193
 13545 41fc 06       		.byte	0x6
 13546 41fd 81       		.byte	0x81
 13547 41fe 863B0000 		.4byte	0x3b86
 13548 4202 02       		.uleb128 0x2
 13549 4203 91       		.byte	0x91
 13550 4204 70       		.sleb128 -16
 13551 4205 64       		.uleb128 0x64
 13552 4206 8B350000 		.4byte	.LASF194
 13553 420a 06       		.byte	0x6
 13554 420b 81       		.byte	0x81
 13555 420c 37000000 		.4byte	0x37
 13556 4210 02       		.uleb128 0x2
 13557 4211 91       		.byte	0x91
 13558 4212 6C       		.sleb128 -20
 13559 4213 00       		.byte	0
 13560 4214 6A       		.uleb128 0x6a
 13561 4215 5B070000 		.4byte	0x75b
 13562 4219 88       		.byte	0x88
ARM GAS  /tmp/cc5OZvFd.s 			page 239


 13563 421a 02       		.byte	0x2
 13564 421b 23420000 		.4byte	0x4223
 13565 421f 38420000 		.4byte	0x4238
 13566 4223 5C       		.uleb128 0x5c
 13567 4224 1D220000 		.4byte	.LASF777
 13568 4228 5A410000 		.4byte	0x415a
 13569 422c 6B       		.uleb128 0x6b
 13570 422d C71A0000 		.4byte	.LASF780
 13571 4231 06       		.byte	0x6
 13572 4232 88       		.byte	0x88
 13573 4233 C23B0000 		.4byte	0x3bc2
 13574 4237 00       		.byte	0
 13575 4238 6C       		.uleb128 0x6c
 13576 4239 14420000 		.4byte	0x4214
 13577 423d 14300000 		.4byte	.LASF782
 13578 4241 00000000 		.4byte	.LFB61
 13579 4245 24000000 		.4byte	.LFE61-.LFB61
 13580 4249 01       		.uleb128 0x1
 13581 424a 9C       		.byte	0x9c
 13582 424b 53420000 		.4byte	0x4253
 13583 424f 64420000 		.4byte	0x4264
 13584 4253 5E       		.uleb128 0x5e
 13585 4254 23420000 		.4byte	0x4223
 13586 4258 02       		.uleb128 0x2
 13587 4259 91       		.byte	0x91
 13588 425a 74       		.sleb128 -12
 13589 425b 5E       		.uleb128 0x5e
 13590 425c 2C420000 		.4byte	0x422c
 13591 4260 02       		.uleb128 0x2
 13592 4261 91       		.byte	0x91
 13593 4262 70       		.sleb128 -16
 13594 4263 00       		.byte	0
 13595 4264 5F       		.uleb128 0x5f
 13596 4265 E0080000 		.4byte	0x8e0
 13597 4269 DE       		.byte	0xde
 13598 426a 00000000 		.4byte	.LFB74
 13599 426e 18000000 		.4byte	.LFE74-.LFB74
 13600 4272 01       		.uleb128 0x1
 13601 4273 9C       		.byte	0x9c
 13602 4274 87420000 		.4byte	0x4287
 13603 4278 64       		.uleb128 0x64
 13604 4279 8B350000 		.4byte	.LASF194
 13605 427d 06       		.byte	0x6
 13606 427e DE       		.byte	0xde
 13607 427f 49060000 		.4byte	0x649
 13608 4283 02       		.uleb128 0x2
 13609 4284 91       		.byte	0x91
 13610 4285 74       		.sleb128 -12
 13611 4286 00       		.byte	0
 13612 4287 62       		.uleb128 0x62
 13613 4288 FA080000 		.4byte	0x8fa
 13614 428c E7       		.byte	0xe7
 13615 428d 00000000 		.4byte	.LFB75
 13616 4291 0C000000 		.4byte	.LFE75-.LFB75
 13617 4295 01       		.uleb128 0x1
 13618 4296 9C       		.byte	0x9c
 13619 4297 62       		.uleb128 0x62
ARM GAS  /tmp/cc5OZvFd.s 			page 240


 13620 4298 0A090000 		.4byte	0x90a
 13621 429c EE       		.byte	0xee
 13622 429d 00000000 		.4byte	.LFB76
 13623 42a1 0C000000 		.4byte	.LFE76-.LFB76
 13624 42a5 01       		.uleb128 0x1
 13625 42a6 9C       		.byte	0x9c
 13626 42a7 62       		.uleb128 0x62
 13627 42a8 1A090000 		.4byte	0x91a
 13628 42ac F5       		.byte	0xf5
 13629 42ad 00000000 		.4byte	.LFB77
 13630 42b1 0C000000 		.4byte	.LFE77-.LFB77
 13631 42b5 01       		.uleb128 0x1
 13632 42b6 9C       		.byte	0x9c
 13633 42b7 62       		.uleb128 0x62
 13634 42b8 2A090000 		.4byte	0x92a
 13635 42bc FC       		.byte	0xfc
 13636 42bd 00000000 		.4byte	.LFB78
 13637 42c1 0C000000 		.4byte	.LFE78-.LFB78
 13638 42c5 01       		.uleb128 0x1
 13639 42c6 9C       		.byte	0x9c
 13640 42c7 6D       		.uleb128 0x6d
 13641 42c8 3A090000 		.4byte	0x93a
 13642 42cc 0301     		.2byte	0x103
 13643 42ce 00000000 		.4byte	.LFB79
 13644 42d2 1C000000 		.4byte	.LFE79-.LFB79
 13645 42d6 01       		.uleb128 0x1
 13646 42d7 9C       		.byte	0x9c
 13647 42d8 6E       		.uleb128 0x6e
 13648 42d9 1B0A0000 		.4byte	0xa1b
 13649 42dd 7A       		.byte	0x7a
 13650 42de 00000000 		.4byte	.LFB88
 13651 42e2 12000000 		.4byte	.LFE88-.LFB88
 13652 42e6 01       		.uleb128 0x1
 13653 42e7 9C       		.byte	0x9c
 13654 42e8 F0420000 		.4byte	0x42f0
 13655 42ec FD420000 		.4byte	0x42fd
 13656 42f0 69       		.uleb128 0x69
 13657 42f1 1D220000 		.4byte	.LASF777
 13658 42f5 FD420000 		.4byte	0x42fd
 13659 42f9 02       		.uleb128 0x2
 13660 42fa 91       		.byte	0x91
 13661 42fb 7C       		.sleb128 -4
 13662 42fc 00       		.byte	0
 13663 42fd 08       		.uleb128 0x8
 13664 42fe D43B0000 		.4byte	0x3bd4
 13665 4302 65       		.uleb128 0x65
 13666 4303 DB0A0000 		.4byte	0xadb
 13667 4307 8E       		.byte	0x8e
 13668 4308 00000000 		.4byte	.LFB92
 13669 430c 0E000000 		.4byte	.LFE92-.LFB92
 13670 4310 01       		.uleb128 0x1
 13671 4311 9C       		.byte	0x9c
 13672 4312 25430000 		.4byte	0x4325
 13673 4316 64       		.uleb128 0x64
 13674 4317 B83D0000 		.4byte	.LASF783
 13675 431b 07       		.byte	0x7
 13676 431c 8E       		.byte	0x8e
ARM GAS  /tmp/cc5OZvFd.s 			page 241


 13677 431d 37000000 		.4byte	0x37
 13678 4321 02       		.uleb128 0x2
 13679 4322 91       		.byte	0x91
 13680 4323 7C       		.sleb128 -4
 13681 4324 00       		.byte	0
 13682 4325 68       		.uleb128 0x68
 13683 4326 45120000 		.4byte	0x1245
 13684 432a 35       		.byte	0x35
 13685 432b 00000000 		.4byte	.LFB99
 13686 432f 18000000 		.4byte	.LFE99-.LFB99
 13687 4333 01       		.uleb128 0x1
 13688 4334 9C       		.byte	0x9c
 13689 4335 3D430000 		.4byte	0x433d
 13690 4339 4A430000 		.4byte	0x434a
 13691 433d 69       		.uleb128 0x69
 13692 433e 1D220000 		.4byte	.LASF777
 13693 4342 4A430000 		.4byte	0x434a
 13694 4346 02       		.uleb128 0x2
 13695 4347 91       		.byte	0x91
 13696 4348 74       		.sleb128 -12
 13697 4349 00       		.byte	0
 13698 434a 08       		.uleb128 0x8
 13699 434b 363C0000 		.4byte	0x3c36
 13700 434f 6E       		.uleb128 0x6e
 13701 4350 22140000 		.4byte	0x1422
 13702 4354 59       		.byte	0x59
 13703 4355 00000000 		.4byte	.LFB119
 13704 4359 20000000 		.4byte	.LFE119-.LFB119
 13705 435d 01       		.uleb128 0x1
 13706 435e 9C       		.byte	0x9c
 13707 435f 67430000 		.4byte	0x4367
 13708 4363 74430000 		.4byte	0x4374
 13709 4367 69       		.uleb128 0x69
 13710 4368 1D220000 		.4byte	.LASF777
 13711 436c 74430000 		.4byte	0x4374
 13712 4370 02       		.uleb128 0x2
 13713 4371 91       		.byte	0x91
 13714 4372 7C       		.sleb128 -4
 13715 4373 00       		.byte	0
 13716 4374 08       		.uleb128 0x8
 13717 4375 423C0000 		.4byte	0x3c42
 13718 4379 5F       		.uleb128 0x5f
 13719 437a B0150000 		.4byte	0x15b0
 13720 437e B8       		.byte	0xb8
 13721 437f 00000000 		.4byte	.LFB139
 13722 4383 22000000 		.4byte	.LFE139-.LFB139
 13723 4387 01       		.uleb128 0x1
 13724 4388 9C       		.byte	0x9c
 13725 4389 9C430000 		.4byte	0x439c
 13726 438d 64       		.uleb128 0x64
 13727 438e D1430000 		.4byte	.LASF784
 13728 4392 09       		.byte	0x9
 13729 4393 B8       		.byte	0xb8
 13730 4394 22160000 		.4byte	0x1622
 13731 4398 02       		.uleb128 0x2
 13732 4399 91       		.byte	0x91
 13733 439a 70       		.sleb128 -16
ARM GAS  /tmp/cc5OZvFd.s 			page 242


 13734 439b 00       		.byte	0
 13735 439c 5F       		.uleb128 0x5f
 13736 439d 0A110000 		.4byte	0x110a
 13737 43a1 71       		.byte	0x71
 13738 43a2 00000000 		.4byte	.LFB155
 13739 43a6 34000000 		.4byte	.LFE155-.LFB155
 13740 43aa 01       		.uleb128 0x1
 13741 43ab 9C       		.byte	0x9c
 13742 43ac 1D440000 		.4byte	0x441d
 13743 43b0 64       		.uleb128 0x64
 13744 43b1 90290000 		.4byte	.LASF785
 13745 43b5 0A       		.byte	0xa
 13746 43b6 71       		.byte	0x71
 13747 43b7 CA000000 		.4byte	0xca
 13748 43bb 02       		.uleb128 0x2
 13749 43bc 91       		.byte	0x91
 13750 43bd 6C       		.sleb128 -20
 13751 43be 64       		.uleb128 0x64
 13752 43bf BA340000 		.4byte	.LASF207
 13753 43c3 0A       		.byte	0xa
 13754 43c4 71       		.byte	0x71
 13755 43c5 37000000 		.4byte	0x37
 13756 43c9 02       		.uleb128 0x2
 13757 43ca 91       		.byte	0x91
 13758 43cb 68       		.sleb128 -24
 13759 43cc 64       		.uleb128 0x64
 13760 43cd D73D0000 		.4byte	.LASF786
 13761 43d1 0A       		.byte	0xa
 13762 43d2 71       		.byte	0x71
 13763 43d3 38100000 		.4byte	0x1038
 13764 43d7 02       		.uleb128 0x2
 13765 43d8 91       		.byte	0x91
 13766 43d9 64       		.sleb128 -28
 13767 43da 64       		.uleb128 0x64
 13768 43db 363A0000 		.4byte	.LASF787
 13769 43df 0A       		.byte	0xa
 13770 43e0 72       		.byte	0x72
 13771 43e1 44100000 		.4byte	0x1044
 13772 43e5 02       		.uleb128 0x2
 13773 43e6 91       		.byte	0x91
 13774 43e7 60       		.sleb128 -32
 13775 43e8 64       		.uleb128 0x64
 13776 43e9 EB230000 		.4byte	.LASF788
 13777 43ed 0A       		.byte	0xa
 13778 43ee 72       		.byte	0x72
 13779 43ef CA000000 		.4byte	0xca
 13780 43f3 02       		.uleb128 0x2
 13781 43f4 91       		.byte	0x91
 13782 43f5 00       		.sleb128 0
 13783 43f6 64       		.uleb128 0x64
 13784 43f7 EC410000 		.4byte	.LASF590
 13785 43fb 0A       		.byte	0xa
 13786 43fc 73       		.byte	0x73
 13787 43fd E0000000 		.4byte	0xe0
 13788 4401 02       		.uleb128 0x2
 13789 4402 91       		.byte	0x91
 13790 4403 04       		.sleb128 4
ARM GAS  /tmp/cc5OZvFd.s 			page 243


 13791 4404 60       		.uleb128 0x60
 13792 4405 0C000000 		.4byte	.LBB22
 13793 4409 20000000 		.4byte	.LBE22-.LBB22
 13794 440d 6F       		.uleb128 0x6f
 13795 440e E8150000 		.4byte	.LASF789
 13796 4412 0A       		.byte	0xa
 13797 4413 75       		.byte	0x75
 13798 4414 183C0000 		.4byte	0x3c18
 13799 4418 02       		.uleb128 0x2
 13800 4419 91       		.byte	0x91
 13801 441a 74       		.sleb128 -12
 13802 441b 00       		.byte	0
 13803 441c 00       		.byte	0
 13804 441d 5F       		.uleb128 0x5f
 13805 441e AD110000 		.4byte	0x11ad
 13806 4422 B4       		.byte	0xb4
 13807 4423 00000000 		.4byte	.LFB161
 13808 4427 64000000 		.4byte	.LFE161-.LFB161
 13809 442b 01       		.uleb128 0x1
 13810 442c 9C       		.byte	0x9c
 13811 442d 40440000 		.4byte	0x4440
 13812 4431 64       		.uleb128 0x64
 13813 4432 643D0000 		.4byte	.LASF790
 13814 4436 0A       		.byte	0xa
 13815 4437 B4       		.byte	0xb4
 13816 4438 40440000 		.4byte	0x4440
 13817 443c 02       		.uleb128 0x2
 13818 443d 91       		.byte	0x91
 13819 443e 74       		.sleb128 -12
 13820 443f 00       		.byte	0
 13821 4440 08       		.uleb128 0x8
 13822 4441 2A3C0000 		.4byte	0x3c2a
 13823 4445 5F       		.uleb128 0x5f
 13824 4446 65170000 		.4byte	0x1765
 13825 444a 5A       		.byte	0x5a
 13826 444b 00000000 		.4byte	.LFB177
 13827 444f 2A000000 		.4byte	.LFE177-.LFB177
 13828 4453 01       		.uleb128 0x1
 13829 4454 9C       		.byte	0x9c
 13830 4455 AE440000 		.4byte	0x44ae
 13831 4459 64       		.uleb128 0x64
 13832 445a 90290000 		.4byte	.LASF785
 13833 445e 0B       		.byte	0xb
 13834 445f 5A       		.byte	0x5a
 13835 4460 CA000000 		.4byte	0xca
 13836 4464 02       		.uleb128 0x2
 13837 4465 91       		.byte	0x91
 13838 4466 74       		.sleb128 -12
 13839 4467 64       		.uleb128 0x64
 13840 4468 BA340000 		.4byte	.LASF207
 13841 446c 0B       		.byte	0xb
 13842 446d 5A       		.byte	0x5a
 13843 446e 37000000 		.4byte	0x37
 13844 4472 02       		.uleb128 0x2
 13845 4473 91       		.byte	0x91
 13846 4474 70       		.sleb128 -16
 13847 4475 64       		.uleb128 0x64
ARM GAS  /tmp/cc5OZvFd.s 			page 244


 13848 4476 D73D0000 		.4byte	.LASF786
 13849 447a 0B       		.byte	0xb
 13850 447b 5B       		.byte	0x5b
 13851 447c B1160000 		.4byte	0x16b1
 13852 4480 02       		.uleb128 0x2
 13853 4481 91       		.byte	0x91
 13854 4482 6C       		.sleb128 -20
 13855 4483 64       		.uleb128 0x64
 13856 4484 363A0000 		.4byte	.LASF787
 13857 4488 0B       		.byte	0xb
 13858 4489 5C       		.byte	0x5c
 13859 448a BD160000 		.4byte	0x16bd
 13860 448e 02       		.uleb128 0x2
 13861 448f 91       		.byte	0x91
 13862 4490 68       		.sleb128 -24
 13863 4491 64       		.uleb128 0x64
 13864 4492 EB230000 		.4byte	.LASF788
 13865 4496 0B       		.byte	0xb
 13866 4497 5C       		.byte	0x5c
 13867 4498 CA000000 		.4byte	0xca
 13868 449c 02       		.uleb128 0x2
 13869 449d 91       		.byte	0x91
 13870 449e 00       		.sleb128 0
 13871 449f 64       		.uleb128 0x64
 13872 44a0 EC410000 		.4byte	.LASF590
 13873 44a4 0B       		.byte	0xb
 13874 44a5 5C       		.byte	0x5c
 13875 44a6 E0000000 		.4byte	0xe0
 13876 44aa 02       		.uleb128 0x2
 13877 44ab 91       		.byte	0x91
 13878 44ac 04       		.sleb128 4
 13879 44ad 00       		.byte	0
 13880 44ae 5F       		.uleb128 0x5f
 13881 44af DA170000 		.4byte	0x17da
 13882 44b3 8C       		.byte	0x8c
 13883 44b4 00000000 		.4byte	.LFB183
 13884 44b8 12000000 		.4byte	.LFE183-.LFB183
 13885 44bc 01       		.uleb128 0x1
 13886 44bd 9C       		.byte	0x9c
 13887 44be D1440000 		.4byte	0x44d1
 13888 44c2 64       		.uleb128 0x64
 13889 44c3 643D0000 		.4byte	.LASF790
 13890 44c7 0B       		.byte	0xb
 13891 44c8 8C       		.byte	0x8c
 13892 44c9 D1440000 		.4byte	0x44d1
 13893 44cd 02       		.uleb128 0x2
 13894 44ce 91       		.byte	0x91
 13895 44cf 74       		.sleb128 -12
 13896 44d0 00       		.byte	0
 13897 44d1 08       		.uleb128 0x8
 13898 44d2 2A3C0000 		.4byte	0x3c2a
 13899 44d6 70       		.uleb128 0x70
 13900 44d7 38190000 		.4byte	0x1938
 13901 44db 00000000 		.4byte	.LFB185
 13902 44df 1A000000 		.4byte	.LFE185-.LFB185
 13903 44e3 01       		.uleb128 0x1
 13904 44e4 9C       		.byte	0x9c
ARM GAS  /tmp/cc5OZvFd.s 			page 245


 13905 44e5 F8440000 		.4byte	0x44f8
 13906 44e9 64       		.uleb128 0x64
 13907 44ea 0B190000 		.4byte	.LASF791
 13908 44ee 0C       		.byte	0xc
 13909 44ef 3B       		.byte	0x3b
 13910 44f0 723C0000 		.4byte	0x3c72
 13911 44f4 02       		.uleb128 0x2
 13912 44f5 91       		.byte	0x91
 13913 44f6 74       		.sleb128 -12
 13914 44f7 00       		.byte	0
 13915 44f8 70       		.uleb128 0x70
 13916 44f9 51190000 		.4byte	0x1951
 13917 44fd 00000000 		.4byte	.LFB186
 13918 4501 30000000 		.4byte	.LFE186-.LFB186
 13919 4505 01       		.uleb128 0x1
 13920 4506 9C       		.byte	0x9c
 13921 4507 36450000 		.4byte	0x4536
 13922 450b 64       		.uleb128 0x64
 13923 450c 0B190000 		.4byte	.LASF791
 13924 4510 0C       		.byte	0xc
 13925 4511 40       		.byte	0x40
 13926 4512 723C0000 		.4byte	0x3c72
 13927 4516 02       		.uleb128 0x2
 13928 4517 91       		.byte	0x91
 13929 4518 74       		.sleb128 -12
 13930 4519 64       		.uleb128 0x64
 13931 451a 21100000 		.4byte	.LASF204
 13932 451e 0C       		.byte	0xc
 13933 451f 41       		.byte	0x41
 13934 4520 37000000 		.4byte	0x37
 13935 4524 02       		.uleb128 0x2
 13936 4525 91       		.byte	0x91
 13937 4526 70       		.sleb128 -16
 13938 4527 64       		.uleb128 0x64
 13939 4528 FF2E0000 		.4byte	.LASF206
 13940 452c 0C       		.byte	0xc
 13941 452d 41       		.byte	0x41
 13942 452e 37000000 		.4byte	0x37
 13943 4532 02       		.uleb128 0x2
 13944 4533 91       		.byte	0x91
 13945 4534 6C       		.sleb128 -20
 13946 4535 00       		.byte	0
 13947 4536 70       		.uleb128 0x70
 13948 4537 74190000 		.4byte	0x1974
 13949 453b 00000000 		.4byte	.LFB187
 13950 453f 30000000 		.4byte	.LFE187-.LFB187
 13951 4543 01       		.uleb128 0x1
 13952 4544 9C       		.byte	0x9c
 13953 4545 74450000 		.4byte	0x4574
 13954 4549 64       		.uleb128 0x64
 13955 454a 0B190000 		.4byte	.LASF791
 13956 454e 0C       		.byte	0xc
 13957 454f 4B       		.byte	0x4b
 13958 4550 723C0000 		.4byte	0x3c72
 13959 4554 02       		.uleb128 0x2
 13960 4555 91       		.byte	0x91
 13961 4556 74       		.sleb128 -12
ARM GAS  /tmp/cc5OZvFd.s 			page 246


 13962 4557 64       		.uleb128 0x64
 13963 4558 21100000 		.4byte	.LASF204
 13964 455c 0C       		.byte	0xc
 13965 455d 4C       		.byte	0x4c
 13966 455e 37000000 		.4byte	0x37
 13967 4562 02       		.uleb128 0x2
 13968 4563 91       		.byte	0x91
 13969 4564 70       		.sleb128 -16
 13970 4565 64       		.uleb128 0x64
 13971 4566 FF2E0000 		.4byte	.LASF206
 13972 456a 0C       		.byte	0xc
 13973 456b 4C       		.byte	0x4c
 13974 456c 37000000 		.4byte	0x37
 13975 4570 02       		.uleb128 0x2
 13976 4571 91       		.byte	0x91
 13977 4572 6C       		.sleb128 -20
 13978 4573 00       		.byte	0
 13979 4574 71       		.uleb128 0x71
 13980 4575 97190000 		.4byte	0x1997
 13981 4579 00000000 		.4byte	.LFB188
 13982 457d 16000000 		.4byte	.LFE188-.LFB188
 13983 4581 01       		.uleb128 0x1
 13984 4582 9C       		.byte	0x9c
 13985 4583 8B450000 		.4byte	0x458b
 13986 4587 98450000 		.4byte	0x4598
 13987 458b 69       		.uleb128 0x69
 13988 458c 1D220000 		.4byte	.LASF777
 13989 4590 98450000 		.4byte	0x4598
 13990 4594 02       		.uleb128 0x2
 13991 4595 91       		.byte	0x91
 13992 4596 74       		.sleb128 -12
 13993 4597 00       		.byte	0
 13994 4598 08       		.uleb128 0x8
 13995 4599 723C0000 		.4byte	0x3c72
 13996 459d 71       		.uleb128 0x71
 13997 459e B4190000 		.4byte	0x19b4
 13998 45a2 00000000 		.4byte	.LFB189
 13999 45a6 22000000 		.4byte	.LFE189-.LFB189
 14000 45aa 01       		.uleb128 0x1
 14001 45ab 9C       		.byte	0x9c
 14002 45ac B4450000 		.4byte	0x45b4
 14003 45b0 C1450000 		.4byte	0x45c1
 14004 45b4 69       		.uleb128 0x69
 14005 45b5 1D220000 		.4byte	.LASF777
 14006 45b9 98450000 		.4byte	0x4598
 14007 45bd 02       		.uleb128 0x2
 14008 45be 91       		.byte	0x91
 14009 45bf 74       		.sleb128 -12
 14010 45c0 00       		.byte	0
 14011 45c1 71       		.uleb128 0x71
 14012 45c2 D1190000 		.4byte	0x19d1
 14013 45c6 00000000 		.4byte	.LFB190
 14014 45ca 22000000 		.4byte	.LFE190-.LFB190
 14015 45ce 01       		.uleb128 0x1
 14016 45cf 9C       		.byte	0x9c
 14017 45d0 D8450000 		.4byte	0x45d8
 14018 45d4 E5450000 		.4byte	0x45e5
ARM GAS  /tmp/cc5OZvFd.s 			page 247


 14019 45d8 69       		.uleb128 0x69
 14020 45d9 1D220000 		.4byte	.LASF777
 14021 45dd 98450000 		.4byte	0x4598
 14022 45e1 02       		.uleb128 0x2
 14023 45e2 91       		.byte	0x91
 14024 45e3 74       		.sleb128 -12
 14025 45e4 00       		.byte	0
 14026 45e5 71       		.uleb128 0x71
 14027 45e6 EE190000 		.4byte	0x19ee
 14028 45ea 00000000 		.4byte	.LFB191
 14029 45ee 30000000 		.4byte	.LFE191-.LFB191
 14030 45f2 01       		.uleb128 0x1
 14031 45f3 9C       		.byte	0x9c
 14032 45f4 FC450000 		.4byte	0x45fc
 14033 45f8 09460000 		.4byte	0x4609
 14034 45fc 69       		.uleb128 0x69
 14035 45fd 1D220000 		.4byte	.LASF777
 14036 4601 98450000 		.4byte	0x4598
 14037 4605 02       		.uleb128 0x2
 14038 4606 91       		.byte	0x91
 14039 4607 74       		.sleb128 -12
 14040 4608 00       		.byte	0
 14041 4609 71       		.uleb128 0x71
 14042 460a 0B1A0000 		.4byte	0x1a0b
 14043 460e 00000000 		.4byte	.LFB192
 14044 4612 2A000000 		.4byte	.LFE192-.LFB192
 14045 4616 01       		.uleb128 0x1
 14046 4617 9C       		.byte	0x9c
 14047 4618 20460000 		.4byte	0x4620
 14048 461c 3B460000 		.4byte	0x463b
 14049 4620 69       		.uleb128 0x69
 14050 4621 1D220000 		.4byte	.LASF777
 14051 4625 98450000 		.4byte	0x4598
 14052 4629 02       		.uleb128 0x2
 14053 462a 91       		.byte	0x91
 14054 462b 74       		.sleb128 -12
 14055 462c 64       		.uleb128 0x64
 14056 462d EC410000 		.4byte	.LASF590
 14057 4631 0C       		.byte	0xc
 14058 4632 66       		.byte	0x66
 14059 4633 E0000000 		.4byte	0xe0
 14060 4637 02       		.uleb128 0x2
 14061 4638 91       		.byte	0x91
 14062 4639 70       		.sleb128 -16
 14063 463a 00       		.byte	0
 14064 463b 5B       		.uleb128 0x5b
 14065 463c 481A0000 		.4byte	0x1a48
 14066 4640 02       		.byte	0x2
 14067 4641 49460000 		.4byte	0x4649
 14068 4645 5E460000 		.4byte	0x465e
 14069 4649 5C       		.uleb128 0x5c
 14070 464a 1D220000 		.4byte	.LASF777
 14071 464e 5E460000 		.4byte	0x465e
 14072 4652 72       		.uleb128 0x72
 14073 4653 72687300 		.ascii	"rhs\000"
 14074 4657 0C       		.byte	0xc
 14075 4658 B7       		.byte	0xb7
ARM GAS  /tmp/cc5OZvFd.s 			page 248


 14076 4659 63460000 		.4byte	0x4663
 14077 465d 00       		.byte	0
 14078 465e 08       		.uleb128 0x8
 14079 465f 783C0000 		.4byte	0x3c78
 14080 4663 08       		.uleb128 0x8
 14081 4664 7E3C0000 		.4byte	0x3c7e
 14082 4668 5D       		.uleb128 0x5d
 14083 4669 3B460000 		.4byte	0x463b
 14084 466d 02200000 		.4byte	.LASF792
 14085 4671 00000000 		.4byte	.LFB194
 14086 4675 16000000 		.4byte	.LFE194-.LFB194
 14087 4679 01       		.uleb128 0x1
 14088 467a 9C       		.byte	0x9c
 14089 467b 83460000 		.4byte	0x4683
 14090 467f 94460000 		.4byte	0x4694
 14091 4683 5E       		.uleb128 0x5e
 14092 4684 49460000 		.4byte	0x4649
 14093 4688 02       		.uleb128 0x2
 14094 4689 91       		.byte	0x91
 14095 468a 7C       		.sleb128 -4
 14096 468b 5E       		.uleb128 0x5e
 14097 468c 52460000 		.4byte	0x4652
 14098 4690 02       		.uleb128 0x2
 14099 4691 91       		.byte	0x91
 14100 4692 78       		.sleb128 -8
 14101 4693 00       		.byte	0
 14102 4694 5B       		.uleb128 0x5b
 14103 4695 671A0000 		.4byte	0x1a67
 14104 4699 02       		.byte	0x2
 14105 469a A2460000 		.4byte	0x46a2
 14106 469e B7460000 		.4byte	0x46b7
 14107 46a2 5C       		.uleb128 0x5c
 14108 46a3 1D220000 		.4byte	.LASF777
 14109 46a7 5E460000 		.4byte	0x465e
 14110 46ab 6B       		.uleb128 0x6b
 14111 46ac BF130000 		.4byte	.LASF793
 14112 46b0 0C       		.byte	0xc
 14113 46b1 BA       		.byte	0xba
 14114 46b2 723C0000 		.4byte	0x3c72
 14115 46b6 00       		.byte	0
 14116 46b7 5D       		.uleb128 0x5d
 14117 46b8 94460000 		.4byte	0x4694
 14118 46bc A43F0000 		.4byte	.LASF794
 14119 46c0 00000000 		.4byte	.LFB197
 14120 46c4 14000000 		.4byte	.LFE197-.LFB197
 14121 46c8 01       		.uleb128 0x1
 14122 46c9 9C       		.byte	0x9c
 14123 46ca D2460000 		.4byte	0x46d2
 14124 46ce E3460000 		.4byte	0x46e3
 14125 46d2 5E       		.uleb128 0x5e
 14126 46d3 A2460000 		.4byte	0x46a2
 14127 46d7 02       		.uleb128 0x2
 14128 46d8 91       		.byte	0x91
 14129 46d9 7C       		.sleb128 -4
 14130 46da 5E       		.uleb128 0x5e
 14131 46db AB460000 		.4byte	0x46ab
 14132 46df 02       		.uleb128 0x2
ARM GAS  /tmp/cc5OZvFd.s 			page 249


 14133 46e0 91       		.byte	0x91
 14134 46e1 78       		.sleb128 -8
 14135 46e2 00       		.byte	0
 14136 46e3 73       		.uleb128 0x73
 14137 46e4 A71A0000 		.4byte	0x1aa7
 14138 46e8 00000000 		.4byte	.LFB200
 14139 46ec 0E000000 		.4byte	.LFE200-.LFB200
 14140 46f0 01       		.uleb128 0x1
 14141 46f1 9C       		.byte	0x9c
 14142 46f2 FA460000 		.4byte	0x46fa
 14143 46f6 07470000 		.4byte	0x4707
 14144 46fa 69       		.uleb128 0x69
 14145 46fb 1D220000 		.4byte	.LASF777
 14146 46ff 07470000 		.4byte	0x4707
 14147 4703 02       		.uleb128 0x2
 14148 4704 91       		.byte	0x91
 14149 4705 7C       		.sleb128 -4
 14150 4706 00       		.byte	0
 14151 4707 08       		.uleb128 0x8
 14152 4708 8A3C0000 		.4byte	0x3c8a
 14153 470c 73       		.uleb128 0x73
 14154 470d C51A0000 		.4byte	0x1ac5
 14155 4711 00000000 		.4byte	.LFB201
 14156 4715 0E000000 		.4byte	.LFE201-.LFB201
 14157 4719 01       		.uleb128 0x1
 14158 471a 9C       		.byte	0x9c
 14159 471b 23470000 		.4byte	0x4723
 14160 471f 30470000 		.4byte	0x4730
 14161 4723 69       		.uleb128 0x69
 14162 4724 1D220000 		.4byte	.LASF777
 14163 4728 07470000 		.4byte	0x4707
 14164 472c 02       		.uleb128 0x2
 14165 472d 91       		.byte	0x91
 14166 472e 7C       		.sleb128 -4
 14167 472f 00       		.byte	0
 14168 4730 73       		.uleb128 0x73
 14169 4731 E31A0000 		.4byte	0x1ae3
 14170 4735 00000000 		.4byte	.LFB202
 14171 4739 0E000000 		.4byte	.LFE202-.LFB202
 14172 473d 01       		.uleb128 0x1
 14173 473e 9C       		.byte	0x9c
 14174 473f 47470000 		.4byte	0x4747
 14175 4743 54470000 		.4byte	0x4754
 14176 4747 69       		.uleb128 0x69
 14177 4748 1D220000 		.4byte	.LASF777
 14178 474c 07470000 		.4byte	0x4707
 14179 4750 02       		.uleb128 0x2
 14180 4751 91       		.byte	0x91
 14181 4752 7C       		.sleb128 -4
 14182 4753 00       		.byte	0
 14183 4754 71       		.uleb128 0x71
 14184 4755 1F1B0000 		.4byte	0x1b1f
 14185 4759 00000000 		.4byte	.LFB204
 14186 475d 20000000 		.4byte	.LFE204-.LFB204
 14187 4761 01       		.uleb128 0x1
 14188 4762 9C       		.byte	0x9c
 14189 4763 6B470000 		.4byte	0x476b
ARM GAS  /tmp/cc5OZvFd.s 			page 250


 14190 4767 78470000 		.4byte	0x4778
 14191 476b 69       		.uleb128 0x69
 14192 476c 1D220000 		.4byte	.LASF777
 14193 4770 5E460000 		.4byte	0x465e
 14194 4774 02       		.uleb128 0x2
 14195 4775 91       		.byte	0x91
 14196 4776 74       		.sleb128 -12
 14197 4777 00       		.byte	0
 14198 4778 71       		.uleb128 0x71
 14199 4779 831B0000 		.4byte	0x1b83
 14200 477d 00000000 		.4byte	.LFB207
 14201 4781 32000000 		.4byte	.LFE207-.LFB207
 14202 4785 01       		.uleb128 0x1
 14203 4786 9C       		.byte	0x9c
 14204 4787 8F470000 		.4byte	0x478f
 14205 478b AA470000 		.4byte	0x47aa
 14206 478f 69       		.uleb128 0x69
 14207 4790 1D220000 		.4byte	.LASF777
 14208 4794 07470000 		.4byte	0x4707
 14209 4798 02       		.uleb128 0x2
 14210 4799 91       		.byte	0x91
 14211 479a 74       		.sleb128 -12
 14212 479b 66       		.uleb128 0x66
 14213 479c 72687300 		.ascii	"rhs\000"
 14214 47a0 0C       		.byte	0xc
 14215 47a1 E2       		.byte	0xe2
 14216 47a2 AA470000 		.4byte	0x47aa
 14217 47a6 02       		.uleb128 0x2
 14218 47a7 91       		.byte	0x91
 14219 47a8 70       		.sleb128 -16
 14220 47a9 00       		.byte	0
 14221 47aa 08       		.uleb128 0x8
 14222 47ab 7E3C0000 		.4byte	0x3c7e
 14223 47af 68       		.uleb128 0x68
 14224 47b0 341C0000 		.4byte	0x1c34
 14225 47b4 EB       		.byte	0xeb
 14226 47b5 00000000 		.4byte	.LFB208
 14227 47b9 24000000 		.4byte	.LFE208-.LFB208
 14228 47bd 01       		.uleb128 0x1
 14229 47be 9C       		.byte	0x9c
 14230 47bf C7470000 		.4byte	0x47c7
 14231 47c3 E2470000 		.4byte	0x47e2
 14232 47c7 69       		.uleb128 0x69
 14233 47c8 1D220000 		.4byte	.LASF777
 14234 47cc E2470000 		.4byte	0x47e2
 14235 47d0 02       		.uleb128 0x2
 14236 47d1 91       		.byte	0x91
 14237 47d2 74       		.sleb128 -12
 14238 47d3 64       		.uleb128 0x64
 14239 47d4 94300000 		.4byte	.LASF168
 14240 47d8 0C       		.byte	0xc
 14241 47d9 EB       		.byte	0xeb
 14242 47da 3A0C0000 		.4byte	0xc3a
 14243 47de 02       		.uleb128 0x2
 14244 47df 91       		.byte	0x91
 14245 47e0 73       		.sleb128 -13
 14246 47e1 00       		.byte	0
ARM GAS  /tmp/cc5OZvFd.s 			page 251


 14247 47e2 08       		.uleb128 0x8
 14248 47e3 AD3C0000 		.4byte	0x3cad
 14249 47e7 68       		.uleb128 0x68
 14250 47e8 841C0000 		.4byte	0x1c84
 14251 47ec F3       		.byte	0xf3
 14252 47ed 00000000 		.4byte	.LFB209
 14253 47f1 30000000 		.4byte	.LFE209-.LFB209
 14254 47f5 01       		.uleb128 0x1
 14255 47f6 9C       		.byte	0x9c
 14256 47f7 FF470000 		.4byte	0x47ff
 14257 47fb 1A480000 		.4byte	0x481a
 14258 47ff 69       		.uleb128 0x69
 14259 4800 1D220000 		.4byte	.LASF777
 14260 4804 E2470000 		.4byte	0x47e2
 14261 4808 02       		.uleb128 0x2
 14262 4809 91       		.byte	0x91
 14263 480a 74       		.sleb128 -12
 14264 480b 64       		.uleb128 0x64
 14265 480c AB380000 		.4byte	.LASF795
 14266 4810 0C       		.byte	0xc
 14267 4811 F3       		.byte	0xf3
 14268 4812 3A0C0000 		.4byte	0xc3a
 14269 4816 02       		.uleb128 0x2
 14270 4817 91       		.byte	0x91
 14271 4818 73       		.sleb128 -13
 14272 4819 00       		.byte	0
 14273 481a 68       		.uleb128 0x68
 14274 481b 821D0000 		.4byte	0x1d82
 14275 481f FB       		.byte	0xfb
 14276 4820 00000000 		.4byte	.LFB210
 14277 4824 16000000 		.4byte	.LFE210-.LFB210
 14278 4828 01       		.uleb128 0x1
 14279 4829 9C       		.byte	0x9c
 14280 482a 32480000 		.4byte	0x4832
 14281 482e 3F480000 		.4byte	0x483f
 14282 4832 69       		.uleb128 0x69
 14283 4833 1D220000 		.4byte	.LASF777
 14284 4837 E2470000 		.4byte	0x47e2
 14285 483b 02       		.uleb128 0x2
 14286 483c 91       		.byte	0x91
 14287 483d 74       		.sleb128 -12
 14288 483e 00       		.byte	0
 14289 483f 74       		.uleb128 0x74
 14290 4840 9B1D0000 		.4byte	0x1d9b
 14291 4844 0201     		.2byte	0x102
 14292 4846 00000000 		.4byte	.LFB211
 14293 484a 34000000 		.4byte	.LFE211-.LFB211
 14294 484e 01       		.uleb128 0x1
 14295 484f 9C       		.byte	0x9c
 14296 4850 58480000 		.4byte	0x4858
 14297 4854 7E480000 		.4byte	0x487e
 14298 4858 69       		.uleb128 0x69
 14299 4859 1D220000 		.4byte	.LASF777
 14300 485d E2470000 		.4byte	0x47e2
 14301 4861 02       		.uleb128 0x2
 14302 4862 91       		.byte	0x91
 14303 4863 6C       		.sleb128 -20
ARM GAS  /tmp/cc5OZvFd.s 			page 252


 14304 4864 60       		.uleb128 0x60
 14305 4865 06000000 		.4byte	.LBB25
 14306 4869 24000000 		.4byte	.LBE25-.LBB25
 14307 486d 75       		.uleb128 0x75
 14308 486e D0300000 		.4byte	.LASF796
 14309 4872 0C       		.byte	0xc
 14310 4873 0401     		.2byte	0x104
 14311 4875 E7360000 		.4byte	0x36e7
 14312 4879 02       		.uleb128 0x2
 14313 487a 91       		.byte	0x91
 14314 487b 77       		.sleb128 -9
 14315 487c 00       		.byte	0
 14316 487d 00       		.byte	0
 14317 487e 74       		.uleb128 0x74
 14318 487f B41D0000 		.4byte	0x1db4
 14319 4883 0B01     		.2byte	0x10b
 14320 4885 00000000 		.4byte	.LFB212
 14321 4889 26000000 		.4byte	.LFE212-.LFB212
 14322 488d 01       		.uleb128 0x1
 14323 488e 9C       		.byte	0x9c
 14324 488f 97480000 		.4byte	0x4897
 14325 4893 D1480000 		.4byte	0x48d1
 14326 4897 69       		.uleb128 0x69
 14327 4898 1D220000 		.4byte	.LASF777
 14328 489c E2470000 		.4byte	0x47e2
 14329 48a0 02       		.uleb128 0x2
 14330 48a1 91       		.byte	0x91
 14331 48a2 74       		.sleb128 -12
 14332 48a3 76       		.uleb128 0x76
 14333 48a4 BD1D0000 		.4byte	.LASF797
 14334 48a8 0C       		.byte	0xc
 14335 48a9 0B01     		.2byte	0x10b
 14336 48ab AF3B0000 		.4byte	0x3baf
 14337 48af 02       		.uleb128 0x2
 14338 48b0 91       		.byte	0x91
 14339 48b1 70       		.sleb128 -16
 14340 48b2 76       		.uleb128 0x76
 14341 48b3 87390000 		.4byte	.LASF798
 14342 48b7 0C       		.byte	0xc
 14343 48b8 0B01     		.2byte	0x10b
 14344 48ba AF3B0000 		.4byte	0x3baf
 14345 48be 02       		.uleb128 0x2
 14346 48bf 91       		.byte	0x91
 14347 48c0 6C       		.sleb128 -20
 14348 48c1 76       		.uleb128 0x76
 14349 48c2 8B350000 		.4byte	.LASF194
 14350 48c6 0C       		.byte	0xc
 14351 48c7 0B01     		.2byte	0x10b
 14352 48c9 37000000 		.4byte	0x37
 14353 48cd 02       		.uleb128 0x2
 14354 48ce 91       		.byte	0x91
 14355 48cf 68       		.sleb128 -24
 14356 48d0 00       		.byte	0
 14357 48d1 6D       		.uleb128 0x6d
 14358 48d2 A01E0000 		.4byte	0x1ea0
 14359 48d6 1301     		.2byte	0x113
 14360 48d8 00000000 		.4byte	.LFB213
ARM GAS  /tmp/cc5OZvFd.s 			page 253


 14361 48dc 1C000000 		.4byte	.LFE213-.LFB213
 14362 48e0 01       		.uleb128 0x1
 14363 48e1 9C       		.byte	0x9c
 14364 48e2 6D       		.uleb128 0x6d
 14365 48e3 AF1E0000 		.4byte	0x1eaf
 14366 48e7 1C01     		.2byte	0x11c
 14367 48e9 00000000 		.4byte	.LFB214
 14368 48ed 1C000000 		.4byte	.LFE214-.LFB214
 14369 48f1 01       		.uleb128 0x1
 14370 48f2 9C       		.byte	0x9c
 14371 48f3 6D       		.uleb128 0x6d
 14372 48f4 CD1E0000 		.4byte	0x1ecd
 14373 48f8 2501     		.2byte	0x125
 14374 48fa 00000000 		.4byte	.LFB215
 14375 48fe 0C000000 		.4byte	.LFE215-.LFB215
 14376 4902 01       		.uleb128 0x1
 14377 4903 9C       		.byte	0x9c
 14378 4904 68       		.uleb128 0x68
 14379 4905 22310000 		.4byte	0x3122
 14380 4909 FA       		.byte	0xfa
 14381 490a 00000000 		.4byte	.LFB373
 14382 490e 28000000 		.4byte	.LFE373-.LFB373
 14383 4912 01       		.uleb128 0x1
 14384 4913 9C       		.byte	0x9c
 14385 4914 1C490000 		.4byte	0x491c
 14386 4918 40490000 		.4byte	0x4940
 14387 491c 69       		.uleb128 0x69
 14388 491d 1D220000 		.4byte	.LASF777
 14389 4921 303E0000 		.4byte	0x3e30
 14390 4925 02       		.uleb128 0x2
 14391 4926 91       		.byte	0x91
 14392 4927 74       		.sleb128 -12
 14393 4928 60       		.uleb128 0x60
 14394 4929 06000000 		.4byte	.LBB26
 14395 492d 1C000000 		.4byte	.LBE26-.LBB26
 14396 4931 6F       		.uleb128 0x6f
 14397 4932 7D380000 		.4byte	.LASF799
 14398 4936 0D       		.byte	0xd
 14399 4937 FC       		.byte	0xfc
 14400 4938 D43B0000 		.4byte	0x3bd4
 14401 493c 01       		.uleb128 0x1
 14402 493d 54       		.byte	0x54
 14403 493e 00       		.byte	0
 14404 493f 00       		.byte	0
 14405 4940 06       		.uleb128 0x6
 14406 4941 04       		.byte	0x4
 14407 4942 F2350000 		.4byte	0x35f2
 14408 4946 71       		.uleb128 0x71
 14409 4947 FB350000 		.4byte	0x35fb
 14410 494b 00000000 		.4byte	.LFB398
 14411 494f 40000000 		.4byte	.LFE398-.LFB398
 14412 4953 01       		.uleb128 0x1
 14413 4954 9C       		.byte	0x9c
 14414 4955 5D490000 		.4byte	0x495d
 14415 4959 78490000 		.4byte	0x4978
 14416 495d 69       		.uleb128 0x69
 14417 495e 1D220000 		.4byte	.LASF777
ARM GAS  /tmp/cc5OZvFd.s 			page 254


 14418 4962 78490000 		.4byte	0x4978
 14419 4966 02       		.uleb128 0x2
 14420 4967 91       		.byte	0x91
 14421 4968 74       		.sleb128 -12
 14422 4969 64       		.uleb128 0x64
 14423 496a 7D380000 		.4byte	.LASF799
 14424 496e 0E       		.byte	0xe
 14425 496f 40       		.byte	0x40
 14426 4970 7D490000 		.4byte	0x497d
 14427 4974 02       		.uleb128 0x2
 14428 4975 91       		.byte	0x91
 14429 4976 70       		.sleb128 -16
 14430 4977 00       		.byte	0
 14431 4978 08       		.uleb128 0x8
 14432 4979 40490000 		.4byte	0x4940
 14433 497d 08       		.uleb128 0x8
 14434 497e 643E0000 		.4byte	0x3e64
 14435 4982 71       		.uleb128 0x71
 14436 4983 1E360000 		.4byte	0x361e
 14437 4987 00000000 		.4byte	.LFB399
 14438 498b 2A000000 		.4byte	.LFE399-.LFB399
 14439 498f 01       		.uleb128 0x1
 14440 4990 9C       		.byte	0x9c
 14441 4991 99490000 		.4byte	0x4999
 14442 4995 CC490000 		.4byte	0x49cc
 14443 4999 69       		.uleb128 0x69
 14444 499a 1D220000 		.4byte	.LASF777
 14445 499e 78490000 		.4byte	0x4978
 14446 49a2 02       		.uleb128 0x2
 14447 49a3 91       		.byte	0x91
 14448 49a4 6C       		.sleb128 -20
 14449 49a5 64       		.uleb128 0x64
 14450 49a6 7D380000 		.4byte	.LASF799
 14451 49aa 0E       		.byte	0xe
 14452 49ab 4A       		.byte	0x4a
 14453 49ac CC490000 		.4byte	0x49cc
 14454 49b0 02       		.uleb128 0x2
 14455 49b1 91       		.byte	0x91
 14456 49b2 68       		.sleb128 -24
 14457 49b3 60       		.uleb128 0x60
 14458 49b4 08000000 		.4byte	.LBB27
 14459 49b8 1A000000 		.4byte	.LBE27-.LBB27
 14460 49bc 6F       		.uleb128 0x6f
 14461 49bd D0300000 		.4byte	.LASF796
 14462 49c1 0E       		.byte	0xe
 14463 49c2 4D       		.byte	0x4d
 14464 49c3 E7360000 		.4byte	0x36e7
 14465 49c7 02       		.uleb128 0x2
 14466 49c8 91       		.byte	0x91
 14467 49c9 77       		.sleb128 -9
 14468 49ca 00       		.byte	0
 14469 49cb 00       		.byte	0
 14470 49cc 08       		.uleb128 0x8
 14471 49cd 643E0000 		.4byte	0x3e64
 14472 49d1 71       		.uleb128 0x71
 14473 49d2 41360000 		.4byte	0x3641
 14474 49d6 00000000 		.4byte	.LFB401
ARM GAS  /tmp/cc5OZvFd.s 			page 255


 14475 49da 3C000000 		.4byte	.LFE401-.LFB401
 14476 49de 01       		.uleb128 0x1
 14477 49df 9C       		.byte	0x9c
 14478 49e0 E8490000 		.4byte	0x49e8
 14479 49e4 034A0000 		.4byte	0x4a03
 14480 49e8 69       		.uleb128 0x69
 14481 49e9 1D220000 		.4byte	.LASF777
 14482 49ed 78490000 		.4byte	0x4978
 14483 49f1 02       		.uleb128 0x2
 14484 49f2 91       		.byte	0x91
 14485 49f3 6C       		.sleb128 -20
 14486 49f4 66       		.uleb128 0x66
 14487 49f5 6D736700 		.ascii	"msg\000"
 14488 49f9 0E       		.byte	0xe
 14489 49fa 5D       		.byte	0x5d
 14490 49fb 034A0000 		.4byte	0x4a03
 14491 49ff 02       		.uleb128 0x2
 14492 4a00 91       		.byte	0x91
 14493 4a01 68       		.sleb128 -24
 14494 4a02 00       		.byte	0
 14495 4a03 08       		.uleb128 0x8
 14496 4a04 DA3B0000 		.4byte	0x3bda
 14497 4a08 77       		.uleb128 0x77
 14498 4a09 011C0000 		.4byte	0x1c01
 14499 4a0d 0F       		.byte	0xf
 14500 4a0e 0F       		.byte	0xf
 14501 4a0f 00000000 		.4byte	.LFB408
 14502 4a13 BC000000 		.4byte	.LFE408-.LFB408
 14503 4a17 01       		.uleb128 0x1
 14504 4a18 9C       		.byte	0x9c
 14505 4a19 214A0000 		.4byte	0x4a21
 14506 4a1d 2E4A0000 		.4byte	0x4a2e
 14507 4a21 69       		.uleb128 0x69
 14508 4a22 1D220000 		.4byte	.LASF777
 14509 4a26 E2470000 		.4byte	0x47e2
 14510 4a2a 02       		.uleb128 0x2
 14511 4a2b 91       		.byte	0x91
 14512 4a2c 74       		.sleb128 -12
 14513 4a2d 00       		.byte	0
 14514 4a2e 77       		.uleb128 0x77
 14515 4a2f 1B1C0000 		.4byte	0x1c1b
 14516 4a33 0F       		.byte	0xf
 14517 4a34 35       		.byte	0x35
 14518 4a35 BC000000 		.4byte	.LFB409
 14519 4a39 68000000 		.4byte	.LFE409-.LFB409
 14520 4a3d 01       		.uleb128 0x1
 14521 4a3e 9C       		.byte	0x9c
 14522 4a3f 474A0000 		.4byte	0x4a47
 14523 4a43 544A0000 		.4byte	0x4a54
 14524 4a47 69       		.uleb128 0x69
 14525 4a48 1D220000 		.4byte	.LASF777
 14526 4a4c E2470000 		.4byte	0x47e2
 14527 4a50 02       		.uleb128 0x2
 14528 4a51 91       		.byte	0x91
 14529 4a52 6C       		.sleb128 -20
 14530 4a53 00       		.byte	0
 14531 4a54 77       		.uleb128 0x77
ARM GAS  /tmp/cc5OZvFd.s 			page 256


 14532 4a55 521C0000 		.4byte	0x1c52
 14533 4a59 0F       		.byte	0xf
 14534 4a5a 41       		.byte	0x41
 14535 4a5b 24010000 		.4byte	.LFB410
 14536 4a5f 64000000 		.4byte	.LFE410-.LFB410
 14537 4a63 01       		.uleb128 0x1
 14538 4a64 9C       		.byte	0x9c
 14539 4a65 6D4A0000 		.4byte	0x4a6d
 14540 4a69 7A4A0000 		.4byte	0x4a7a
 14541 4a6d 69       		.uleb128 0x69
 14542 4a6e 1D220000 		.4byte	.LASF777
 14543 4a72 E2470000 		.4byte	0x47e2
 14544 4a76 02       		.uleb128 0x2
 14545 4a77 91       		.byte	0x91
 14546 4a78 6C       		.sleb128 -20
 14547 4a79 00       		.byte	0
 14548 4a7a 77       		.uleb128 0x77
 14549 4a7b 6B1C0000 		.4byte	0x1c6b
 14550 4a7f 0F       		.byte	0xf
 14551 4a80 4D       		.byte	0x4d
 14552 4a81 88010000 		.4byte	.LFB411
 14553 4a85 5C000000 		.4byte	.LFE411-.LFB411
 14554 4a89 01       		.uleb128 0x1
 14555 4a8a 9C       		.byte	0x9c
 14556 4a8b 934A0000 		.4byte	0x4a93
 14557 4a8f A04A0000 		.4byte	0x4aa0
 14558 4a93 69       		.uleb128 0x69
 14559 4a94 1D220000 		.4byte	.LASF777
 14560 4a98 E2470000 		.4byte	0x47e2
 14561 4a9c 02       		.uleb128 0x2
 14562 4a9d 91       		.byte	0x91
 14563 4a9e 6C       		.sleb128 -20
 14564 4a9f 00       		.byte	0
 14565 4aa0 77       		.uleb128 0x77
 14566 4aa1 A61C0000 		.4byte	0x1ca6
 14567 4aa5 0F       		.byte	0xf
 14568 4aa6 58       		.byte	0x58
 14569 4aa7 E4010000 		.4byte	.LFB412
 14570 4aab 44000000 		.4byte	.LFE412-.LFB412
 14571 4aaf 01       		.uleb128 0x1
 14572 4ab0 9C       		.byte	0x9c
 14573 4ab1 B94A0000 		.4byte	0x4ab9
 14574 4ab5 C64A0000 		.4byte	0x4ac6
 14575 4ab9 69       		.uleb128 0x69
 14576 4aba 1D220000 		.4byte	.LASF777
 14577 4abe E2470000 		.4byte	0x47e2
 14578 4ac2 02       		.uleb128 0x2
 14579 4ac3 91       		.byte	0x91
 14580 4ac4 74       		.sleb128 -12
 14581 4ac5 00       		.byte	0
 14582 4ac6 77       		.uleb128 0x77
 14583 4ac7 BF1C0000 		.4byte	0x1cbf
 14584 4acb 0F       		.byte	0xf
 14585 4acc 62       		.byte	0x62
 14586 4acd 28020000 		.4byte	.LFB413
 14587 4ad1 40020000 		.4byte	.LFE413-.LFB413
 14588 4ad5 01       		.uleb128 0x1
ARM GAS  /tmp/cc5OZvFd.s 			page 257


 14589 4ad6 9C       		.byte	0x9c
 14590 4ad7 DF4A0000 		.4byte	0x4adf
 14591 4adb 374B0000 		.4byte	0x4b37
 14592 4adf 69       		.uleb128 0x69
 14593 4ae0 1D220000 		.4byte	.LASF777
 14594 4ae4 E2470000 		.4byte	0x47e2
 14595 4ae8 03       		.uleb128 0x3
 14596 4ae9 91       		.byte	0x91
 14597 4aea 947F     		.sleb128 -108
 14598 4aec 60       		.uleb128 0x60
 14599 4aed 34020000 		.4byte	.LBB30
 14600 4af1 28020000 		.4byte	.LBE30-.LBB30
 14601 4af5 6F       		.uleb128 0x6f
 14602 4af6 F01B0000 		.4byte	.LASF800
 14603 4afa 0F       		.byte	0xf
 14604 4afb 89       		.byte	0x89
 14605 4afc 850D0000 		.4byte	0xd85
 14606 4b00 02       		.uleb128 0x2
 14607 4b01 91       		.byte	0x91
 14608 4b02 50       		.sleb128 -48
 14609 4b03 6F       		.uleb128 0x6f
 14610 4b04 72360000 		.4byte	.LASF801
 14611 4b08 0F       		.byte	0xf
 14612 4b09 93       		.byte	0x93
 14613 4b0a DB0D0000 		.4byte	0xddb
 14614 4b0e 03       		.uleb128 0x3
 14615 4b0f 91       		.byte	0x91
 14616 4b10 B87F     		.sleb128 -72
 14617 4b12 6F       		.uleb128 0x6f
 14618 4b13 142F0000 		.4byte	.LASF802
 14619 4b17 0F       		.byte	0xf
 14620 4b18 A1       		.byte	0xa1
 14621 4b19 310E0000 		.4byte	0xe31
 14622 4b1d 03       		.uleb128 0x3
 14623 4b1e 91       		.byte	0x91
 14624 4b1f 9C7F     		.sleb128 -100
 14625 4b21 78       		.uleb128 0x78
 14626 4b22 00000000 		.4byte	.Ldebug_ranges0+0
 14627 4b26 6F       		.uleb128 0x6f
 14628 4b27 F8010000 		.4byte	.LASF803
 14629 4b2b 0F       		.byte	0xf
 14630 4b2c AB       		.byte	0xab
 14631 4b2d 374B0000 		.4byte	0x4b37
 14632 4b31 02       		.uleb128 0x2
 14633 4b32 91       		.byte	0x91
 14634 4b33 6C       		.sleb128 -20
 14635 4b34 00       		.byte	0
 14636 4b35 00       		.byte	0
 14637 4b36 00       		.byte	0
 14638 4b37 08       		.uleb128 0x8
 14639 4b38 3C4B0000 		.4byte	0x4b3c
 14640 4b3c 51       		.uleb128 0x51
 14641 4b3d 04       		.byte	0x4
 14642 4b3e 960B0000 		.4byte	0xb96
 14643 4b42 77       		.uleb128 0x77
 14644 4b43 D81C0000 		.4byte	0x1cd8
 14645 4b47 0F       		.byte	0xf
ARM GAS  /tmp/cc5OZvFd.s 			page 258


 14646 4b48 C6       		.byte	0xc6
 14647 4b49 68040000 		.4byte	.LFB414
 14648 4b4d E4020000 		.4byte	.LFE414-.LFB414
 14649 4b51 01       		.uleb128 0x1
 14650 4b52 9C       		.byte	0x9c
 14651 4b53 5B4B0000 		.4byte	0x4b5b
 14652 4b57 EB4B0000 		.4byte	0x4beb
 14653 4b5b 69       		.uleb128 0x69
 14654 4b5c 1D220000 		.4byte	.LASF777
 14655 4b60 E2470000 		.4byte	0x47e2
 14656 4b64 02       		.uleb128 0x2
 14657 4b65 91       		.byte	0x91
 14658 4b66 5C       		.sleb128 -36
 14659 4b67 79       		.uleb128 0x79
 14660 4b68 76040000 		.4byte	.LBB36
 14661 4b6c 44000000 		.4byte	.LBE36-.LBB36
 14662 4b70 834B0000 		.4byte	0x4b83
 14663 4b74 6F       		.uleb128 0x6f
 14664 4b75 B0180000 		.4byte	.LASF804
 14665 4b79 0F       		.byte	0xf
 14666 4b7a CA       		.byte	0xca
 14667 4b7b EB4B0000 		.4byte	0x4beb
 14668 4b7f 02       		.uleb128 0x2
 14669 4b80 91       		.byte	0x91
 14670 4b81 74       		.sleb128 -12
 14671 4b82 00       		.byte	0
 14672 4b83 60       		.uleb128 0x60
 14673 4b84 E6040000 		.4byte	.LBB37
 14674 4b88 22020000 		.4byte	.LBE37-.LBB37
 14675 4b8c 61       		.uleb128 0x61
 14676 4b8d 6900     		.ascii	"i\000"
 14677 4b8f 0F       		.byte	0xf
 14678 4b90 DA       		.byte	0xda
 14679 4b91 2F1A0000 		.4byte	0x1a2f
 14680 4b95 02       		.uleb128 0x2
 14681 4b96 91       		.byte	0x91
 14682 4b97 60       		.sleb128 -32
 14683 4b98 79       		.uleb128 0x79
 14684 4b99 F8040000 		.4byte	.LBB39
 14685 4b9d 64000000 		.4byte	.LBE39-.LBB39
 14686 4ba1 B44B0000 		.4byte	0x4bb4
 14687 4ba5 6F       		.uleb128 0x6f
 14688 4ba6 F01B0000 		.4byte	.LASF800
 14689 4baa 0F       		.byte	0xf
 14690 4bab DD       		.byte	0xdd
 14691 4bac F64B0000 		.4byte	0x4bf6
 14692 4bb0 02       		.uleb128 0x2
 14693 4bb1 91       		.byte	0x91
 14694 4bb2 70       		.sleb128 -16
 14695 4bb3 00       		.byte	0
 14696 4bb4 79       		.uleb128 0x79
 14697 4bb5 90050000 		.4byte	.LBB40
 14698 4bb9 78000000 		.4byte	.LBE40-.LBB40
 14699 4bbd D04B0000 		.4byte	0x4bd0
 14700 4bc1 6F       		.uleb128 0x6f
 14701 4bc2 72360000 		.4byte	.LASF801
 14702 4bc6 0F       		.byte	0xf
ARM GAS  /tmp/cc5OZvFd.s 			page 259


 14703 4bc7 EE       		.byte	0xee
 14704 4bc8 014C0000 		.4byte	0x4c01
 14705 4bcc 02       		.uleb128 0x2
 14706 4bcd 91       		.byte	0x91
 14707 4bce 6C       		.sleb128 -20
 14708 4bcf 00       		.byte	0
 14709 4bd0 60       		.uleb128 0x60
 14710 4bd1 3C060000 		.4byte	.LBB41
 14711 4bd5 78000000 		.4byte	.LBE41-.LBB41
 14712 4bd9 75       		.uleb128 0x75
 14713 4bda 142F0000 		.4byte	.LASF802
 14714 4bde 0F       		.byte	0xf
 14715 4bdf 0001     		.2byte	0x100
 14716 4be1 064C0000 		.4byte	0x4c06
 14717 4be5 02       		.uleb128 0x2
 14718 4be6 91       		.byte	0x91
 14719 4be7 68       		.sleb128 -24
 14720 4be8 00       		.byte	0
 14721 4be9 00       		.byte	0
 14722 4bea 00       		.byte	0
 14723 4beb 08       		.uleb128 0x8
 14724 4bec F04B0000 		.4byte	0x4bf0
 14725 4bf0 51       		.uleb128 0x51
 14726 4bf1 04       		.byte	0x4
 14727 4bf2 930E0000 		.4byte	0xe93
 14728 4bf6 08       		.uleb128 0x8
 14729 4bf7 FB4B0000 		.4byte	0x4bfb
 14730 4bfb 51       		.uleb128 0x51
 14731 4bfc 04       		.byte	0x4
 14732 4bfd 850D0000 		.4byte	0xd85
 14733 4c01 08       		.uleb128 0x8
 14734 4c02 D73C0000 		.4byte	0x3cd7
 14735 4c06 08       		.uleb128 0x8
 14736 4c07 0B4C0000 		.4byte	0x4c0b
 14737 4c0b 51       		.uleb128 0x51
 14738 4c0c 04       		.byte	0x4
 14739 4c0d 310E0000 		.4byte	0xe31
 14740 4c11 7A       		.uleb128 0x7a
 14741 4c12 F11C0000 		.4byte	0x1cf1
 14742 4c16 0F       		.byte	0xf
 14743 4c17 1D01     		.2byte	0x11d
 14744 4c19 4C070000 		.4byte	.LFB415
 14745 4c1d 84010000 		.4byte	.LFE415-.LFB415
 14746 4c21 01       		.uleb128 0x1
 14747 4c22 9C       		.byte	0x9c
 14748 4c23 2B4C0000 		.4byte	0x4c2b
 14749 4c27 A14C0000 		.4byte	0x4ca1
 14750 4c2b 69       		.uleb128 0x69
 14751 4c2c 1D220000 		.4byte	.LASF777
 14752 4c30 E2470000 		.4byte	0x47e2
 14753 4c34 02       		.uleb128 0x2
 14754 4c35 91       		.byte	0x91
 14755 4c36 5C       		.sleb128 -36
 14756 4c37 60       		.uleb128 0x60
 14757 4c38 52070000 		.4byte	.LBB42
 14758 4c3c 74010000 		.4byte	.LBE42-.LBB42
 14759 4c40 60       		.uleb128 0x60
ARM GAS  /tmp/cc5OZvFd.s 			page 260


 14760 4c41 58070000 		.4byte	.LBB44
 14761 4c45 6C010000 		.4byte	.LBE44-.LBB44
 14762 4c49 75       		.uleb128 0x75
 14763 4c4a 11440000 		.4byte	.LASF805
 14764 4c4e 0F       		.byte	0xf
 14765 4c4f 3401     		.2byte	0x134
 14766 4c51 A14C0000 		.4byte	0x4ca1
 14767 4c55 02       		.uleb128 0x2
 14768 4c56 91       		.byte	0x91
 14769 4c57 6C       		.sleb128 -20
 14770 4c58 75       		.uleb128 0x75
 14771 4c59 0B190000 		.4byte	.LASF791
 14772 4c5d 0F       		.byte	0xf
 14773 4c5e 3901     		.2byte	0x139
 14774 4c60 723C0000 		.4byte	0x3c72
 14775 4c64 02       		.uleb128 0x2
 14776 4c65 91       		.byte	0x91
 14777 4c66 68       		.sleb128 -24
 14778 4c67 75       		.uleb128 0x75
 14779 4c68 C8110000 		.4byte	.LASF806
 14780 4c6c 0F       		.byte	0xf
 14781 4c6d 3E01     		.2byte	0x13e
 14782 4c6f 863B0000 		.4byte	0x3b86
 14783 4c73 02       		.uleb128 0x2
 14784 4c74 91       		.byte	0x91
 14785 4c75 74       		.sleb128 -12
 14786 4c76 75       		.uleb128 0x75
 14787 4c77 8B350000 		.4byte	.LASF194
 14788 4c7b 0F       		.byte	0xf
 14789 4c7c 4701     		.2byte	0x147
 14790 4c7e 37000000 		.4byte	0x37
 14791 4c82 02       		.uleb128 0x2
 14792 4c83 91       		.byte	0x91
 14793 4c84 70       		.sleb128 -16
 14794 4c85 60       		.uleb128 0x60
 14795 4c86 50080000 		.4byte	.LBB45
 14796 4c8a 6E000000 		.4byte	.LBE45-.LBB45
 14797 4c8e 75       		.uleb128 0x75
 14798 4c8f 6C000000 		.4byte	.LASF198
 14799 4c93 0F       		.byte	0xf
 14800 4c94 4D01     		.2byte	0x14d
 14801 4c96 AC4C0000 		.4byte	0x4cac
 14802 4c9a 02       		.uleb128 0x2
 14803 4c9b 91       		.byte	0x91
 14804 4c9c 64       		.sleb128 -28
 14805 4c9d 00       		.byte	0
 14806 4c9e 00       		.byte	0
 14807 4c9f 00       		.byte	0
 14808 4ca0 00       		.byte	0
 14809 4ca1 08       		.uleb128 0x8
 14810 4ca2 A64C0000 		.4byte	0x4ca6
 14811 4ca6 51       		.uleb128 0x51
 14812 4ca7 04       		.byte	0x4
 14813 4ca8 E90E0000 		.4byte	0xee9
 14814 4cac 08       		.uleb128 0x8
 14815 4cad B14C0000 		.4byte	0x4cb1
 14816 4cb1 51       		.uleb128 0x51
ARM GAS  /tmp/cc5OZvFd.s 			page 261


 14817 4cb2 04       		.byte	0x4
 14818 4cb3 1B0F0000 		.4byte	0xf1b
 14819 4cb7 7A       		.uleb128 0x7a
 14820 4cb8 0A1D0000 		.4byte	0x1d0a
 14821 4cbc 0F       		.byte	0xf
 14822 4cbd 6101     		.2byte	0x161
 14823 4cbf D0080000 		.4byte	.LFB416
 14824 4cc3 BC010000 		.4byte	.LFE416-.LFB416
 14825 4cc7 01       		.uleb128 0x1
 14826 4cc8 9C       		.byte	0x9c
 14827 4cc9 D14C0000 		.4byte	0x4cd1
 14828 4ccd 474D0000 		.4byte	0x4d47
 14829 4cd1 69       		.uleb128 0x69
 14830 4cd2 1D220000 		.4byte	.LASF777
 14831 4cd6 E2470000 		.4byte	0x47e2
 14832 4cda 02       		.uleb128 0x2
 14833 4cdb 91       		.byte	0x91
 14834 4cdc 5C       		.sleb128 -36
 14835 4cdd 60       		.uleb128 0x60
 14836 4cde D6080000 		.4byte	.LBB46
 14837 4ce2 AA010000 		.4byte	.LBE46-.LBB46
 14838 4ce6 60       		.uleb128 0x60
 14839 4ce7 DC080000 		.4byte	.LBB48
 14840 4ceb A2010000 		.4byte	.LBE48-.LBB48
 14841 4cef 75       		.uleb128 0x75
 14842 4cf0 11440000 		.4byte	.LASF805
 14843 4cf4 0F       		.byte	0xf
 14844 4cf5 7801     		.2byte	0x178
 14845 4cf7 474D0000 		.4byte	0x4d47
 14846 4cfb 02       		.uleb128 0x2
 14847 4cfc 91       		.byte	0x91
 14848 4cfd 6C       		.sleb128 -20
 14849 4cfe 75       		.uleb128 0x75
 14850 4cff 0B190000 		.4byte	.LASF791
 14851 4d03 0F       		.byte	0xf
 14852 4d04 7D01     		.2byte	0x17d
 14853 4d06 723C0000 		.4byte	0x3c72
 14854 4d0a 02       		.uleb128 0x2
 14855 4d0b 91       		.byte	0x91
 14856 4d0c 68       		.sleb128 -24
 14857 4d0d 75       		.uleb128 0x75
 14858 4d0e 3E300000 		.4byte	.LASF807
 14859 4d12 0F       		.byte	0xf
 14860 4d13 8201     		.2byte	0x182
 14861 4d15 863B0000 		.4byte	0x3b86
 14862 4d19 02       		.uleb128 0x2
 14863 4d1a 91       		.byte	0x91
 14864 4d1b 74       		.sleb128 -12
 14865 4d1c 75       		.uleb128 0x75
 14866 4d1d 8B350000 		.4byte	.LASF194
 14867 4d21 0F       		.byte	0xf
 14868 4d22 8B01     		.2byte	0x18b
 14869 4d24 37000000 		.4byte	0x37
 14870 4d28 02       		.uleb128 0x2
 14871 4d29 91       		.byte	0x91
 14872 4d2a 70       		.sleb128 -16
 14873 4d2b 60       		.uleb128 0x60
ARM GAS  /tmp/cc5OZvFd.s 			page 262


 14874 4d2c DA090000 		.4byte	.LBB49
 14875 4d30 9E000000 		.4byte	.LBE49-.LBB49
 14876 4d34 75       		.uleb128 0x75
 14877 4d35 6C000000 		.4byte	.LASF198
 14878 4d39 0F       		.byte	0xf
 14879 4d3a 9501     		.2byte	0x195
 14880 4d3c 4C4D0000 		.4byte	0x4d4c
 14881 4d40 02       		.uleb128 0x2
 14882 4d41 91       		.byte	0x91
 14883 4d42 64       		.sleb128 -28
 14884 4d43 00       		.byte	0
 14885 4d44 00       		.byte	0
 14886 4d45 00       		.byte	0
 14887 4d46 00       		.byte	0
 14888 4d47 08       		.uleb128 0x8
 14889 4d48 A64C0000 		.4byte	0x4ca6
 14890 4d4c 08       		.uleb128 0x8
 14891 4d4d B14C0000 		.4byte	0x4cb1
 14892 4d51 7A       		.uleb128 0x7a
 14893 4d52 231D0000 		.4byte	0x1d23
 14894 4d56 0F       		.byte	0xf
 14895 4d57 AB01     		.2byte	0x1ab
 14896 4d59 8C0A0000 		.4byte	.LFB417
 14897 4d5d 1A000000 		.4byte	.LFE417-.LFB417
 14898 4d61 01       		.uleb128 0x1
 14899 4d62 9C       		.byte	0x9c
 14900 4d63 6B4D0000 		.4byte	0x4d6b
 14901 4d67 784D0000 		.4byte	0x4d78
 14902 4d6b 69       		.uleb128 0x69
 14903 4d6c 1D220000 		.4byte	.LASF777
 14904 4d70 E2470000 		.4byte	0x47e2
 14905 4d74 02       		.uleb128 0x2
 14906 4d75 91       		.byte	0x91
 14907 4d76 74       		.sleb128 -12
 14908 4d77 00       		.byte	0
 14909 4d78 7A       		.uleb128 0x7a
 14910 4d79 3C1D0000 		.4byte	0x1d3c
 14911 4d7d 0F       		.byte	0xf
 14912 4d7e B201     		.2byte	0x1b2
 14913 4d80 A80A0000 		.4byte	.LFB418
 14914 4d84 38000000 		.4byte	.LFE418-.LFB418
 14915 4d88 01       		.uleb128 0x1
 14916 4d89 9C       		.byte	0x9c
 14917 4d8a 924D0000 		.4byte	0x4d92
 14918 4d8e BD4D0000 		.4byte	0x4dbd
 14919 4d92 69       		.uleb128 0x69
 14920 4d93 1D220000 		.4byte	.LASF777
 14921 4d97 E2470000 		.4byte	0x47e2
 14922 4d9b 02       		.uleb128 0x2
 14923 4d9c 91       		.byte	0x91
 14924 4d9d 74       		.sleb128 -12
 14925 4d9e 76       		.uleb128 0x76
 14926 4d9f 13220000 		.4byte	.LASF199
 14927 4da3 0F       		.byte	0xf
 14928 4da4 B201     		.2byte	0x1b2
 14929 4da6 B0360000 		.4byte	0x36b0
 14930 4daa 02       		.uleb128 0x2
ARM GAS  /tmp/cc5OZvFd.s 			page 263


 14931 4dab 91       		.byte	0x91
 14932 4dac 70       		.sleb128 -16
 14933 4dad 76       		.uleb128 0x76
 14934 4dae 8A1B0000 		.4byte	.LASF808
 14935 4db2 0F       		.byte	0xf
 14936 4db3 B201     		.2byte	0x1b2
 14937 4db5 E0000000 		.4byte	0xe0
 14938 4db9 02       		.uleb128 0x2
 14939 4dba 91       		.byte	0x91
 14940 4dbb 6C       		.sleb128 -20
 14941 4dbc 00       		.byte	0
 14942 4dbd 7A       		.uleb128 0x7a
 14943 4dbe 5F1D0000 		.4byte	0x1d5f
 14944 4dc2 0F       		.byte	0xf
 14945 4dc3 BC01     		.2byte	0x1bc
 14946 4dc5 E00A0000 		.4byte	.LFB419
 14947 4dc9 3E000000 		.4byte	.LFE419-.LFB419
 14948 4dcd 01       		.uleb128 0x1
 14949 4dce 9C       		.byte	0x9c
 14950 4dcf D74D0000 		.4byte	0x4dd7
 14951 4dd3 024E0000 		.4byte	0x4e02
 14952 4dd7 69       		.uleb128 0x69
 14953 4dd8 1D220000 		.4byte	.LASF777
 14954 4ddc E2470000 		.4byte	0x47e2
 14955 4de0 02       		.uleb128 0x2
 14956 4de1 91       		.byte	0x91
 14957 4de2 74       		.sleb128 -12
 14958 4de3 76       		.uleb128 0x76
 14959 4de4 13220000 		.4byte	.LASF199
 14960 4de8 0F       		.byte	0xf
 14961 4de9 BC01     		.2byte	0x1bc
 14962 4deb B0360000 		.4byte	0x36b0
 14963 4def 02       		.uleb128 0x2
 14964 4df0 91       		.byte	0x91
 14965 4df1 70       		.sleb128 -16
 14966 4df2 76       		.uleb128 0x76
 14967 4df3 8A1B0000 		.4byte	.LASF808
 14968 4df7 0F       		.byte	0xf
 14969 4df8 BC01     		.2byte	0x1bc
 14970 4dfa E0000000 		.4byte	0xe0
 14971 4dfe 02       		.uleb128 0x2
 14972 4dff 91       		.byte	0x91
 14973 4e00 6C       		.sleb128 -20
 14974 4e01 00       		.byte	0
 14975 4e02 7A       		.uleb128 0x7a
 14976 4e03 E01D0000 		.4byte	0x1de0
 14977 4e07 0F       		.byte	0xf
 14978 4e08 C701     		.2byte	0x1c7
 14979 4e0a 200B0000 		.4byte	.LFB420
 14980 4e0e 74020000 		.4byte	.LFE420-.LFB420
 14981 4e12 01       		.uleb128 0x1
 14982 4e13 9C       		.byte	0x9c
 14983 4e14 1C4E0000 		.4byte	0x4e1c
 14984 4e18 7E4E0000 		.4byte	0x4e7e
 14985 4e1c 69       		.uleb128 0x69
 14986 4e1d 1D220000 		.4byte	.LASF777
 14987 4e21 E2470000 		.4byte	0x47e2
ARM GAS  /tmp/cc5OZvFd.s 			page 264


 14988 4e25 02       		.uleb128 0x2
 14989 4e26 91       		.byte	0x91
 14990 4e27 6C       		.sleb128 -20
 14991 4e28 76       		.uleb128 0x76
 14992 4e29 FB030000 		.4byte	.LASF809
 14993 4e2d 0F       		.byte	0xf
 14994 4e2e C701     		.2byte	0x1c7
 14995 4e30 723C0000 		.4byte	0x3c72
 14996 4e34 02       		.uleb128 0x2
 14997 4e35 91       		.byte	0x91
 14998 4e36 68       		.sleb128 -24
 14999 4e37 76       		.uleb128 0x76
 15000 4e38 F01B0000 		.4byte	.LASF800
 15001 4e3c 0F       		.byte	0xf
 15002 4e3d C801     		.2byte	0x1c8
 15003 4e3f 7E4E0000 		.4byte	0x4e7e
 15004 4e43 02       		.uleb128 0x2
 15005 4e44 91       		.byte	0x91
 15006 4e45 64       		.sleb128 -28
 15007 4e46 76       		.uleb128 0x76
 15008 4e47 72360000 		.4byte	.LASF801
 15009 4e4b 0F       		.byte	0xf
 15010 4e4c C901     		.2byte	0x1c9
 15011 4e4e 834E0000 		.4byte	0x4e83
 15012 4e52 02       		.uleb128 0x2
 15013 4e53 91       		.byte	0x91
 15014 4e54 60       		.sleb128 -32
 15015 4e55 76       		.uleb128 0x76
 15016 4e56 142F0000 		.4byte	.LASF802
 15017 4e5a 0F       		.byte	0xf
 15018 4e5b CA01     		.2byte	0x1ca
 15019 4e5d 884E0000 		.4byte	0x4e88
 15020 4e61 02       		.uleb128 0x2
 15021 4e62 91       		.byte	0x91
 15022 4e63 00       		.sleb128 0
 15023 4e64 60       		.uleb128 0x60
 15024 4e65 2C0B0000 		.4byte	.LBB50
 15025 4e69 5A020000 		.4byte	.LBE50-.LBB50
 15026 4e6d 75       		.uleb128 0x75
 15027 4e6e 24420000 		.4byte	.LASF346
 15028 4e72 0F       		.byte	0xf
 15029 4e73 D101     		.2byte	0x1d1
 15030 4e75 B0360000 		.4byte	0x36b0
 15031 4e79 02       		.uleb128 0x2
 15032 4e7a 91       		.byte	0x91
 15033 4e7b 74       		.sleb128 -12
 15034 4e7c 00       		.byte	0
 15035 4e7d 00       		.byte	0
 15036 4e7e 08       		.uleb128 0x8
 15037 4e7f B33C0000 		.4byte	0x3cb3
 15038 4e83 08       		.uleb128 0x8
 15039 4e84 B93C0000 		.4byte	0x3cb9
 15040 4e88 08       		.uleb128 0x8
 15041 4e89 BF3C0000 		.4byte	0x3cbf
 15042 4e8d 7A       		.uleb128 0x7a
 15043 4e8e 111E0000 		.4byte	0x1e11
 15044 4e92 0F       		.byte	0xf
ARM GAS  /tmp/cc5OZvFd.s 			page 265


 15045 4e93 EA01     		.2byte	0x1ea
 15046 4e95 940D0000 		.4byte	.LFB421
 15047 4e99 D4010000 		.4byte	.LFE421-.LFB421
 15048 4e9d 01       		.uleb128 0x1
 15049 4e9e 9C       		.byte	0x9c
 15050 4e9f A74E0000 		.4byte	0x4ea7
 15051 4ea3 094F0000 		.4byte	0x4f09
 15052 4ea7 69       		.uleb128 0x69
 15053 4ea8 1D220000 		.4byte	.LASF777
 15054 4eac E2470000 		.4byte	0x47e2
 15055 4eb0 02       		.uleb128 0x2
 15056 4eb1 91       		.byte	0x91
 15057 4eb2 6C       		.sleb128 -20
 15058 4eb3 76       		.uleb128 0x76
 15059 4eb4 F8010000 		.4byte	.LASF803
 15060 4eb8 0F       		.byte	0xf
 15061 4eb9 EA01     		.2byte	0x1ea
 15062 4ebb 094F0000 		.4byte	0x4f09
 15063 4ebf 02       		.uleb128 0x2
 15064 4ec0 91       		.byte	0x91
 15065 4ec1 68       		.sleb128 -24
 15066 4ec2 76       		.uleb128 0x76
 15067 4ec3 F01B0000 		.4byte	.LASF800
 15068 4ec7 0F       		.byte	0xf
 15069 4ec8 EB01     		.2byte	0x1eb
 15070 4eca 0E4F0000 		.4byte	0x4f0e
 15071 4ece 02       		.uleb128 0x2
 15072 4ecf 91       		.byte	0x91
 15073 4ed0 64       		.sleb128 -28
 15074 4ed1 76       		.uleb128 0x76
 15075 4ed2 72360000 		.4byte	.LASF801
 15076 4ed6 0F       		.byte	0xf
 15077 4ed7 EC01     		.2byte	0x1ec
 15078 4ed9 134F0000 		.4byte	0x4f13
 15079 4edd 02       		.uleb128 0x2
 15080 4ede 91       		.byte	0x91
 15081 4edf 60       		.sleb128 -32
 15082 4ee0 60       		.uleb128 0x60
 15083 4ee1 E80D0000 		.4byte	.LBB54
 15084 4ee5 AA000000 		.4byte	.LBE54-.LBB54
 15085 4ee9 75       		.uleb128 0x75
 15086 4eea 6E030000 		.4byte	.LASF810
 15087 4eee 0F       		.byte	0xf
 15088 4eef F401     		.2byte	0x1f4
 15089 4ef1 863B0000 		.4byte	0x3b86
 15090 4ef5 02       		.uleb128 0x2
 15091 4ef6 91       		.byte	0x91
 15092 4ef7 74       		.sleb128 -12
 15093 4ef8 75       		.uleb128 0x75
 15094 4ef9 43260000 		.4byte	.LASF811
 15095 4efd 0F       		.byte	0xf
 15096 4efe F501     		.2byte	0x1f5
 15097 4f00 863B0000 		.4byte	0x3b86
 15098 4f04 02       		.uleb128 0x2
 15099 4f05 91       		.byte	0x91
 15100 4f06 70       		.sleb128 -16
 15101 4f07 00       		.byte	0
ARM GAS  /tmp/cc5OZvFd.s 			page 266


 15102 4f08 00       		.byte	0
 15103 4f09 08       		.uleb128 0x8
 15104 4f0a C53C0000 		.4byte	0x3cc5
 15105 4f0e 08       		.uleb128 0x8
 15106 4f0f B33C0000 		.4byte	0x3cb3
 15107 4f13 08       		.uleb128 0x8
 15108 4f14 B93C0000 		.4byte	0x3cb9
 15109 4f18 7A       		.uleb128 0x7a
 15110 4f19 3D1E0000 		.4byte	0x1e3d
 15111 4f1d 0F       		.byte	0xf
 15112 4f1e 2A02     		.2byte	0x22a
 15113 4f20 680F0000 		.4byte	.LFB422
 15114 4f24 44000000 		.4byte	.LFE422-.LFB422
 15115 4f28 01       		.uleb128 0x1
 15116 4f29 9C       		.byte	0x9c
 15117 4f2a 324F0000 		.4byte	0x4f32
 15118 4f2e 584F0000 		.4byte	0x4f58
 15119 4f32 69       		.uleb128 0x69
 15120 4f33 1D220000 		.4byte	.LASF777
 15121 4f37 E2470000 		.4byte	0x47e2
 15122 4f3b 02       		.uleb128 0x2
 15123 4f3c 91       		.byte	0x91
 15124 4f3d 6C       		.sleb128 -20
 15125 4f3e 60       		.uleb128 0x60
 15126 4f3f 6E0F0000 		.4byte	.LBB55
 15127 4f43 32000000 		.4byte	.LBE55-.LBB55
 15128 4f47 75       		.uleb128 0x75
 15129 4f48 A7420000 		.4byte	.LASF812
 15130 4f4c 0F       		.byte	0xf
 15131 4f4d 2C02     		.2byte	0x22c
 15132 4f4f 98450000 		.4byte	0x4598
 15133 4f53 02       		.uleb128 0x2
 15134 4f54 91       		.byte	0x91
 15135 4f55 74       		.sleb128 -12
 15136 4f56 00       		.byte	0
 15137 4f57 00       		.byte	0
 15138 4f58 7A       		.uleb128 0x7a
 15139 4f59 5A1E0000 		.4byte	0x1e5a
 15140 4f5d 0F       		.byte	0xf
 15141 4f5e 3702     		.2byte	0x237
 15142 4f60 AC0F0000 		.4byte	.LFB423
 15143 4f64 E0000000 		.4byte	.LFE423-.LFB423
 15144 4f68 01       		.uleb128 0x1
 15145 4f69 9C       		.byte	0x9c
 15146 4f6a 724F0000 		.4byte	0x4f72
 15147 4f6e BE4F0000 		.4byte	0x4fbe
 15148 4f72 69       		.uleb128 0x69
 15149 4f73 1D220000 		.4byte	.LASF777
 15150 4f77 E2470000 		.4byte	0x47e2
 15151 4f7b 02       		.uleb128 0x2
 15152 4f7c 91       		.byte	0x91
 15153 4f7d 5C       		.sleb128 -36
 15154 4f7e 60       		.uleb128 0x60
 15155 4f7f B20F0000 		.4byte	.LBB56
 15156 4f83 CE000000 		.4byte	.LBE56-.LBB56
 15157 4f87 75       		.uleb128 0x75
 15158 4f88 A7420000 		.4byte	.LASF812
ARM GAS  /tmp/cc5OZvFd.s 			page 267


 15159 4f8c 0F       		.byte	0xf
 15160 4f8d 3902     		.2byte	0x239
 15161 4f8f 723C0000 		.4byte	0x3c72
 15162 4f93 02       		.uleb128 0x2
 15163 4f94 91       		.byte	0x91
 15164 4f95 6C       		.sleb128 -20
 15165 4f96 75       		.uleb128 0x75
 15166 4f97 D0300000 		.4byte	.LASF796
 15167 4f9b 0F       		.byte	0xf
 15168 4f9c 4402     		.2byte	0x244
 15169 4f9e E7360000 		.4byte	0x36e7
 15170 4fa2 02       		.uleb128 0x2
 15171 4fa3 91       		.byte	0x91
 15172 4fa4 6B       		.sleb128 -21
 15173 4fa5 60       		.uleb128 0x60
 15174 4fa6 BA0F0000 		.4byte	.LBB57
 15175 4faa 6C000000 		.4byte	.LBE57-.LBB57
 15176 4fae 7B       		.uleb128 0x7b
 15177 4faf 6900     		.ascii	"i\000"
 15178 4fb1 0F       		.byte	0xf
 15179 4fb2 3E02     		.2byte	0x23e
 15180 4fb4 2F1A0000 		.4byte	0x1a2f
 15181 4fb8 02       		.uleb128 0x2
 15182 4fb9 91       		.byte	0x91
 15183 4fba 64       		.sleb128 -28
 15184 4fbb 00       		.byte	0
 15185 4fbc 00       		.byte	0
 15186 4fbd 00       		.byte	0
 15187 4fbe 7C       		.uleb128 0x7c
 15188 4fbf 771E0000 		.4byte	0x1e77
 15189 4fc3 0F       		.byte	0xf
 15190 4fc4 4D02     		.2byte	0x24d
 15191 4fc6 00       		.byte	0
 15192 4fc7 CF4F0000 		.4byte	0x4fcf
 15193 4fcb FD4F0000 		.4byte	0x4ffd
 15194 4fcf 5C       		.uleb128 0x5c
 15195 4fd0 1D220000 		.4byte	.LASF777
 15196 4fd4 E2470000 		.4byte	0x47e2
 15197 4fd8 7D       		.uleb128 0x7d
 15198 4fd9 76110000 		.4byte	.LASF813
 15199 4fdd 0F       		.byte	0xf
 15200 4fde 4D02     		.2byte	0x24d
 15201 4fe0 C23B0000 		.4byte	0x3bc2
 15202 4fe4 7E       		.uleb128 0x7e
 15203 4fe5 70756200 		.ascii	"pub\000"
 15204 4fe9 0F       		.byte	0xf
 15205 4fea 4E02     		.2byte	0x24e
 15206 4fec FD4F0000 		.4byte	0x4ffd
 15207 4ff0 7E       		.uleb128 0x7e
 15208 4ff1 73756200 		.ascii	"sub\000"
 15209 4ff5 0F       		.byte	0xf
 15210 4ff6 4F02     		.2byte	0x24f
 15211 4ff8 02500000 		.4byte	0x5002
 15212 4ffc 00       		.byte	0
 15213 4ffd 08       		.uleb128 0x8
 15214 4ffe CB3C0000 		.4byte	0x3ccb
 15215 5002 08       		.uleb128 0x8
ARM GAS  /tmp/cc5OZvFd.s 			page 268


 15216 5003 D13C0000 		.4byte	0x3cd1
 15217 5007 6C       		.uleb128 0x6c
 15218 5008 BE4F0000 		.4byte	0x4fbe
 15219 500c 3B410000 		.4byte	.LASF814
 15220 5010 8C100000 		.4byte	.LFB428
 15221 5014 58000000 		.4byte	.LFE428-.LFB428
 15222 5018 01       		.uleb128 0x1
 15223 5019 9C       		.byte	0x9c
 15224 501a 22500000 		.4byte	0x5022
 15225 501e 43500000 		.4byte	0x5043
 15226 5022 5E       		.uleb128 0x5e
 15227 5023 CF4F0000 		.4byte	0x4fcf
 15228 5027 02       		.uleb128 0x2
 15229 5028 91       		.byte	0x91
 15230 5029 74       		.sleb128 -12
 15231 502a 5E       		.uleb128 0x5e
 15232 502b D84F0000 		.4byte	0x4fd8
 15233 502f 02       		.uleb128 0x2
 15234 5030 91       		.byte	0x91
 15235 5031 70       		.sleb128 -16
 15236 5032 5E       		.uleb128 0x5e
 15237 5033 E44F0000 		.4byte	0x4fe4
 15238 5037 02       		.uleb128 0x2
 15239 5038 91       		.byte	0x91
 15240 5039 6C       		.sleb128 -20
 15241 503a 5E       		.uleb128 0x5e
 15242 503b F04F0000 		.4byte	0x4ff0
 15243 503f 02       		.uleb128 0x2
 15244 5040 91       		.byte	0x91
 15245 5041 68       		.sleb128 -24
 15246 5042 00       		.byte	0
 15247 5043 7F       		.uleb128 0x7f
 15248 5044 BE1E0000 		.4byte	0x1ebe
 15249 5048 0F       		.byte	0xf
 15250 5049 5C02     		.2byte	0x25c
 15251 504b E4100000 		.4byte	.LFB430
 15252 504f 40000000 		.4byte	.LFE430-.LFB430
 15253 5053 01       		.uleb128 0x1
 15254 5054 9C       		.byte	0x9c
 15255 5055 8A500000 		.4byte	0x508a
 15256 5059 60       		.uleb128 0x60
 15257 505a E8100000 		.4byte	.LBB59
 15258 505e 34000000 		.4byte	.LBE59-.LBB59
 15259 5062 75       		.uleb128 0x75
 15260 5063 63230000 		.4byte	.LASF815
 15261 5067 0F       		.byte	0xf
 15262 5068 5E02     		.2byte	0x25e
 15263 506a 37000000 		.4byte	0x37
 15264 506e 02       		.uleb128 0x2
 15265 506f 91       		.byte	0x91
 15266 5070 74       		.sleb128 -12
 15267 5071 60       		.uleb128 0x60
 15268 5072 EC100000 		.4byte	.LBB60
 15269 5076 2E000000 		.4byte	.LBE60-.LBB60
 15270 507a 7B       		.uleb128 0x7b
 15271 507b 6900     		.ascii	"i\000"
 15272 507d 0F       		.byte	0xf
ARM GAS  /tmp/cc5OZvFd.s 			page 269


 15273 507e 5F02     		.2byte	0x25f
 15274 5080 2F1A0000 		.4byte	0x1a2f
 15275 5084 02       		.uleb128 0x2
 15276 5085 91       		.byte	0x91
 15277 5086 70       		.sleb128 -16
 15278 5087 00       		.byte	0
 15279 5088 00       		.byte	0
 15280 5089 00       		.byte	0
 15281 508a 7F       		.uleb128 0x7f
 15282 508b DC1E0000 		.4byte	0x1edc
 15283 508f 0F       		.byte	0xf
 15284 5090 6602     		.2byte	0x266
 15285 5092 24110000 		.4byte	.LFB431
 15286 5096 70000000 		.4byte	.LFE431-.LFB431
 15287 509a 01       		.uleb128 0x1
 15288 509b 9C       		.byte	0x9c
 15289 509c B8500000 		.4byte	0x50b8
 15290 50a0 60       		.uleb128 0x60
 15291 50a1 28110000 		.4byte	.LBB61
 15292 50a5 64000000 		.4byte	.LBE61-.LBB61
 15293 50a9 7B       		.uleb128 0x7b
 15294 50aa 6900     		.ascii	"i\000"
 15295 50ac 0F       		.byte	0xf
 15296 50ad 6802     		.2byte	0x268
 15297 50af 2F1A0000 		.4byte	0x1a2f
 15298 50b3 02       		.uleb128 0x2
 15299 50b4 91       		.byte	0x91
 15300 50b5 6C       		.sleb128 -20
 15301 50b6 00       		.byte	0
 15302 50b7 00       		.byte	0
 15303 50b8 7F       		.uleb128 0x7f
 15304 50b9 EB1E0000 		.4byte	0x1eeb
 15305 50bd 0F       		.byte	0xf
 15306 50be 6E02     		.2byte	0x26e
 15307 50c0 94110000 		.4byte	.LFB432
 15308 50c4 58000000 		.4byte	.LFE432-.LFB432
 15309 50c8 01       		.uleb128 0x1
 15310 50c9 9C       		.byte	0x9c
 15311 50ca FF500000 		.4byte	0x50ff
 15312 50ce 60       		.uleb128 0x60
 15313 50cf 98110000 		.4byte	.LBB62
 15314 50d3 4C000000 		.4byte	.LBE62-.LBB62
 15315 50d7 75       		.uleb128 0x75
 15316 50d8 F8060000 		.4byte	.LASF816
 15317 50dc 0F       		.byte	0xf
 15318 50dd 7002     		.2byte	0x270
 15319 50df 723C0000 		.4byte	0x3c72
 15320 50e3 02       		.uleb128 0x2
 15321 50e4 91       		.byte	0x91
 15322 50e5 74       		.sleb128 -12
 15323 50e6 60       		.uleb128 0x60
 15324 50e7 9C110000 		.4byte	.LBB63
 15325 50eb 36000000 		.4byte	.LBE63-.LBB63
 15326 50ef 7B       		.uleb128 0x7b
 15327 50f0 6900     		.ascii	"i\000"
 15328 50f2 0F       		.byte	0xf
 15329 50f3 7102     		.2byte	0x271
ARM GAS  /tmp/cc5OZvFd.s 			page 270


 15330 50f5 2F1A0000 		.4byte	0x1a2f
 15331 50f9 02       		.uleb128 0x2
 15332 50fa 91       		.byte	0x91
 15333 50fb 6C       		.sleb128 -20
 15334 50fc 00       		.byte	0
 15335 50fd 00       		.byte	0
 15336 50fe 00       		.byte	0
 15337 50ff 7F       		.uleb128 0x7f
 15338 5100 FA1E0000 		.4byte	0x1efa
 15339 5104 0F       		.byte	0xf
 15340 5105 7802     		.2byte	0x278
 15341 5107 EC110000 		.4byte	.LFB433
 15342 510b 60000000 		.4byte	.LFE433-.LFB433
 15343 510f 01       		.uleb128 0x1
 15344 5110 9C       		.byte	0x9c
 15345 5111 3C510000 		.4byte	0x513c
 15346 5115 76       		.uleb128 0x76
 15347 5116 18120000 		.4byte	.LASF233
 15348 511a 0F       		.byte	0xf
 15349 511b 7802     		.2byte	0x278
 15350 511d E0000000 		.4byte	0xe0
 15351 5121 02       		.uleb128 0x2
 15352 5122 91       		.byte	0x91
 15353 5123 6C       		.sleb128 -20
 15354 5124 60       		.uleb128 0x60
 15355 5125 F2110000 		.4byte	.LBB65
 15356 5129 50000000 		.4byte	.LBE65-.LBB65
 15357 512d 7B       		.uleb128 0x7b
 15358 512e 6900     		.ascii	"i\000"
 15359 5130 0F       		.byte	0xf
 15360 5131 7A02     		.2byte	0x27a
 15361 5133 2F1A0000 		.4byte	0x1a2f
 15362 5137 02       		.uleb128 0x2
 15363 5138 91       		.byte	0x91
 15364 5139 70       		.sleb128 -16
 15365 513a 00       		.byte	0
 15366 513b 00       		.byte	0
 15367 513c 7F       		.uleb128 0x7f
 15368 513d 131F0000 		.4byte	0x1f13
 15369 5141 0F       		.byte	0xf
 15370 5142 8302     		.2byte	0x283
 15371 5144 4C120000 		.4byte	.LFB434
 15372 5148 22010000 		.4byte	.LFE434-.LFB434
 15373 514c 01       		.uleb128 0x1
 15374 514d 9C       		.byte	0x9c
 15375 514e C0510000 		.4byte	0x51c0
 15376 5152 76       		.uleb128 0x76
 15377 5153 F01B0000 		.4byte	.LASF800
 15378 5157 0F       		.byte	0xf
 15379 5158 8302     		.2byte	0x283
 15380 515a C0510000 		.4byte	0x51c0
 15381 515e 02       		.uleb128 0x2
 15382 515f 91       		.byte	0x91
 15383 5160 64       		.sleb128 -28
 15384 5161 76       		.uleb128 0x76
 15385 5162 72360000 		.4byte	.LASF801
 15386 5166 0F       		.byte	0xf
ARM GAS  /tmp/cc5OZvFd.s 			page 271


 15387 5167 8402     		.2byte	0x284
 15388 5169 C5510000 		.4byte	0x51c5
 15389 516d 02       		.uleb128 0x2
 15390 516e 91       		.byte	0x91
 15391 516f 60       		.sleb128 -32
 15392 5170 60       		.uleb128 0x60
 15393 5171 54120000 		.4byte	.LBB66
 15394 5175 14010000 		.4byte	.LBE66-.LBB66
 15395 5179 75       		.uleb128 0x75
 15396 517a 70100000 		.4byte	.LASF817
 15397 517e 0F       		.byte	0xf
 15398 517f 8D02     		.2byte	0x28d
 15399 5181 723C0000 		.4byte	0x3c72
 15400 5185 02       		.uleb128 0x2
 15401 5186 91       		.byte	0x91
 15402 5187 74       		.sleb128 -12
 15403 5188 79       		.uleb128 0x79
 15404 5189 EE120000 		.4byte	.LBB68
 15405 518d 2A000000 		.4byte	.LBE68-.LBB68
 15406 5191 A5510000 		.4byte	0x51a5
 15407 5195 75       		.uleb128 0x75
 15408 5196 2C2B0000 		.4byte	.LASF347
 15409 519a 0F       		.byte	0xf
 15410 519b 9D02     		.2byte	0x29d
 15411 519d 803B0000 		.4byte	0x3b80
 15412 51a1 02       		.uleb128 0x2
 15413 51a2 91       		.byte	0x91
 15414 51a3 70       		.sleb128 -16
 15415 51a4 00       		.byte	0
 15416 51a5 60       		.uleb128 0x60
 15417 51a6 20130000 		.4byte	.LBB70
 15418 51aa 46000000 		.4byte	.LBE70-.LBB70
 15419 51ae 75       		.uleb128 0x75
 15420 51af C3340000 		.4byte	.LASF348
 15421 51b3 0F       		.byte	0xf
 15422 51b4 A502     		.2byte	0x2a5
 15423 51b6 803B0000 		.4byte	0x3b80
 15424 51ba 02       		.uleb128 0x2
 15425 51bb 91       		.byte	0x91
 15426 51bc 6C       		.sleb128 -20
 15427 51bd 00       		.byte	0
 15428 51be 00       		.byte	0
 15429 51bf 00       		.byte	0
 15430 51c0 08       		.uleb128 0x8
 15431 51c1 B33C0000 		.4byte	0x3cb3
 15432 51c5 08       		.uleb128 0x8
 15433 51c6 D73C0000 		.4byte	0x3cd7
 15434 51ca 7F       		.uleb128 0x7f
 15435 51cb 631F0000 		.4byte	0x1f63
 15436 51cf 0F       		.byte	0xf
 15437 51d0 B202     		.2byte	0x2b2
 15438 51d2 70130000 		.4byte	.LFB435
 15439 51d6 88000000 		.4byte	.LFE435-.LFB435
 15440 51da 01       		.uleb128 0x1
 15441 51db 9C       		.byte	0x9c
 15442 51dc 27520000 		.4byte	0x5227
 15443 51e0 76       		.uleb128 0x76
ARM GAS  /tmp/cc5OZvFd.s 			page 272


 15444 51e1 18120000 		.4byte	.LASF233
 15445 51e5 0F       		.byte	0xf
 15446 51e6 B202     		.2byte	0x2b2
 15447 51e8 E0000000 		.4byte	0xe0
 15448 51ec 02       		.uleb128 0x2
 15449 51ed 91       		.byte	0x91
 15450 51ee 64       		.sleb128 -28
 15451 51ef 60       		.uleb128 0x60
 15452 51f0 76130000 		.4byte	.LBB71
 15453 51f4 74000000 		.4byte	.LBE71-.LBB71
 15454 51f8 75       		.uleb128 0x75
 15455 51f9 0B190000 		.4byte	.LASF791
 15456 51fd 0F       		.byte	0xf
 15457 51fe B402     		.2byte	0x2b4
 15458 5200 98450000 		.4byte	0x4598
 15459 5204 02       		.uleb128 0x2
 15460 5205 91       		.byte	0x91
 15461 5206 74       		.sleb128 -12
 15462 5207 75       		.uleb128 0x75
 15463 5208 EC410000 		.4byte	.LASF590
 15464 520c 0F       		.byte	0xf
 15465 520d B802     		.2byte	0x2b8
 15466 520f D3000000 		.4byte	0xd3
 15467 5213 02       		.uleb128 0x2
 15468 5214 91       		.byte	0x91
 15469 5215 70       		.sleb128 -16
 15470 5216 75       		.uleb128 0x75
 15471 5217 E8150000 		.4byte	.LASF789
 15472 521b 0F       		.byte	0xf
 15473 521c BD02     		.2byte	0x2bd
 15474 521e 613C0000 		.4byte	0x3c61
 15475 5222 02       		.uleb128 0x2
 15476 5223 91       		.byte	0x91
 15477 5224 6C       		.sleb128 -20
 15478 5225 00       		.byte	0
 15479 5226 00       		.byte	0
 15480 5227 7F       		.uleb128 0x7f
 15481 5228 7C1F0000 		.4byte	0x1f7c
 15482 522c 0F       		.byte	0xf
 15483 522d C502     		.2byte	0x2c5
 15484 522f F8130000 		.4byte	.LFB436
 15485 5233 78000000 		.4byte	.LFE436-.LFB436
 15486 5237 01       		.uleb128 0x1
 15487 5238 9C       		.byte	0x9c
 15488 5239 97520000 		.4byte	0x5297
 15489 523d 76       		.uleb128 0x76
 15490 523e 343F0000 		.4byte	.LASF818
 15491 5242 0F       		.byte	0xf
 15492 5243 C502     		.2byte	0x2c5
 15493 5245 D5160000 		.4byte	0x16d5
 15494 5249 02       		.uleb128 0x2
 15495 524a 91       		.byte	0x91
 15496 524b 64       		.sleb128 -28
 15497 524c 60       		.uleb128 0x60
 15498 524d FE130000 		.4byte	.LBB72
 15499 5251 6C000000 		.4byte	.LBE72-.LBB72
 15500 5255 75       		.uleb128 0x75
ARM GAS  /tmp/cc5OZvFd.s 			page 273


 15501 5256 0B190000 		.4byte	.LASF791
 15502 525a 0F       		.byte	0xf
 15503 525b C902     		.2byte	0x2c9
 15504 525d 723C0000 		.4byte	0x3c72
 15505 5261 01       		.uleb128 0x1
 15506 5262 54       		.byte	0x54
 15507 5263 79       		.uleb128 0x79
 15508 5264 24140000 		.4byte	.LBB73
 15509 5268 20000000 		.4byte	.LBE73-.LBB73
 15510 526c 7E520000 		.4byte	0x527e
 15511 5270 7B       		.uleb128 0x7b
 15512 5271 6900     		.ascii	"i\000"
 15513 5273 0F       		.byte	0xf
 15514 5274 D402     		.2byte	0x2d4
 15515 5276 37000000 		.4byte	0x37
 15516 527a 02       		.uleb128 0x2
 15517 527b 91       		.byte	0x91
 15518 527c 6C       		.sleb128 -20
 15519 527d 00       		.byte	0
 15520 527e 60       		.uleb128 0x60
 15521 527f 48140000 		.4byte	.LBB74
 15522 5283 20000000 		.4byte	.LBE74-.LBB74
 15523 5287 7B       		.uleb128 0x7b
 15524 5288 6900     		.ascii	"i\000"
 15525 528a 0F       		.byte	0xf
 15526 528b DC02     		.2byte	0x2dc
 15527 528d 37000000 		.4byte	0x37
 15528 5291 02       		.uleb128 0x2
 15529 5292 91       		.byte	0x91
 15530 5293 68       		.sleb128 -24
 15531 5294 00       		.byte	0
 15532 5295 00       		.byte	0
 15533 5296 00       		.byte	0
 15534 5297 7F       		.uleb128 0x7f
 15535 5298 951F0000 		.4byte	0x1f95
 15536 529c 0F       		.byte	0xf
 15537 529d E402     		.2byte	0x2e4
 15538 529f 70140000 		.4byte	.LFB437
 15539 52a3 66000000 		.4byte	.LFE437-.LFB437
 15540 52a7 01       		.uleb128 0x1
 15541 52a8 9C       		.byte	0x9c
 15542 52a9 DE520000 		.4byte	0x52de
 15543 52ad 60       		.uleb128 0x60
 15544 52ae 74140000 		.4byte	.LBB75
 15545 52b2 5A000000 		.4byte	.LBE75-.LBB75
 15546 52b6 75       		.uleb128 0x75
 15547 52b7 75070000 		.4byte	.LASF819
 15548 52bb 0F       		.byte	0xf
 15549 52bc E602     		.2byte	0x2e6
 15550 52be E7360000 		.4byte	0x36e7
 15551 52c2 02       		.uleb128 0x2
 15552 52c3 91       		.byte	0x91
 15553 52c4 77       		.sleb128 -9
 15554 52c5 60       		.uleb128 0x60
 15555 52c6 7A140000 		.4byte	.LBB76
 15556 52ca 50000000 		.4byte	.LBE76-.LBB76
 15557 52ce 7B       		.uleb128 0x7b
ARM GAS  /tmp/cc5OZvFd.s 			page 274


 15558 52cf 6900     		.ascii	"i\000"
 15559 52d1 0F       		.byte	0xf
 15560 52d2 E702     		.2byte	0x2e7
 15561 52d4 2F1A0000 		.4byte	0x1a2f
 15562 52d8 02       		.uleb128 0x2
 15563 52d9 91       		.byte	0x91
 15564 52da 6C       		.sleb128 -20
 15565 52db 00       		.byte	0
 15566 52dc 00       		.byte	0
 15567 52dd 00       		.byte	0
 15568 52de 06       		.uleb128 0x6
 15569 52df 04       		.byte	0x4
 15570 52e0 E4520000 		.4byte	0x52e4
 15571 52e4 08       		.uleb128 0x8
 15572 52e5 5B000000 		.4byte	0x5b
 15573 52e9 63       		.uleb128 0x63
 15574 52ea 61360000 		.4byte	0x3661
 15575 52ee 00000000 		.4byte	.LFB438
 15576 52f2 12000000 		.4byte	.LFE438-.LFB438
 15577 52f6 01       		.uleb128 0x1
 15578 52f7 9C       		.byte	0x9c
 15579 52f8 20530000 		.4byte	0x5320
 15580 52fc 3A       		.uleb128 0x3a
 15581 52fd 5400     		.ascii	"T\000"
 15582 52ff 5B000000 		.4byte	0x5b
 15583 5303 64       		.uleb128 0x64
 15584 5304 6E030000 		.4byte	.LASF810
 15585 5308 04       		.byte	0x4
 15586 5309 3E       		.byte	0x3e
 15587 530a DE520000 		.4byte	0x52de
 15588 530e 02       		.uleb128 0x2
 15589 530f 91       		.byte	0x91
 15590 5310 7C       		.sleb128 -4
 15591 5311 64       		.uleb128 0x64
 15592 5312 43260000 		.4byte	.LASF811
 15593 5316 04       		.byte	0x4
 15594 5317 3E       		.byte	0x3e
 15595 5318 DE520000 		.4byte	0x52de
 15596 531c 02       		.uleb128 0x2
 15597 531d 91       		.byte	0x91
 15598 531e 78       		.sleb128 -8
 15599 531f 00       		.byte	0
 15600 5320 5B       		.uleb128 0x5b
 15601 5321 27160000 		.4byte	0x1627
 15602 5325 02       		.byte	0x2
 15603 5326 35530000 		.4byte	0x5335
 15604 532a 4A530000 		.4byte	0x534a
 15605 532e 3A       		.uleb128 0x3a
 15606 532f 5400     		.ascii	"T\000"
 15607 5331 86000000 		.4byte	0x86
 15608 5335 5C       		.uleb128 0x5c
 15609 5336 1D220000 		.4byte	.LASF777
 15610 533a 4A530000 		.4byte	0x534a
 15611 533e 6B       		.uleb128 0x6b
 15612 533f 0D150000 		.4byte	.LASF820
 15613 5343 09       		.byte	0x9
 15614 5344 9F       		.byte	0x9f
ARM GAS  /tmp/cc5OZvFd.s 			page 275


 15615 5345 86000000 		.4byte	0x86
 15616 5349 00       		.byte	0
 15617 534a 08       		.uleb128 0x8
 15618 534b 553C0000 		.4byte	0x3c55
 15619 534f 5D       		.uleb128 0x5d
 15620 5350 20530000 		.4byte	0x5320
 15621 5354 683F0000 		.4byte	.LASF821
 15622 5358 00000000 		.4byte	.LFB440
 15623 535c 14000000 		.4byte	.LFE440-.LFB440
 15624 5360 01       		.uleb128 0x1
 15625 5361 9C       		.byte	0x9c
 15626 5362 71530000 		.4byte	0x5371
 15627 5366 82530000 		.4byte	0x5382
 15628 536a 3A       		.uleb128 0x3a
 15629 536b 5400     		.ascii	"T\000"
 15630 536d 86000000 		.4byte	0x86
 15631 5371 5E       		.uleb128 0x5e
 15632 5372 35530000 		.4byte	0x5335
 15633 5376 02       		.uleb128 0x2
 15634 5377 91       		.byte	0x91
 15635 5378 7C       		.sleb128 -4
 15636 5379 5E       		.uleb128 0x5e
 15637 537a 3E530000 		.4byte	0x533e
 15638 537e 02       		.uleb128 0x2
 15639 537f 91       		.byte	0x91
 15640 5380 78       		.sleb128 -8
 15641 5381 00       		.byte	0
 15642 5382 51       		.uleb128 0x51
 15643 5383 04       		.byte	0x4
 15644 5384 A23C0000 		.4byte	0x3ca2
 15645 5388 71       		.uleb128 0x71
 15646 5389 AF1F0000 		.4byte	0x1faf
 15647 538d 00000000 		.4byte	.LFB453
 15648 5391 1C000000 		.4byte	.LFE453-.LFB453
 15649 5395 01       		.uleb128 0x1
 15650 5396 9C       		.byte	0x9c
 15651 5397 9F530000 		.4byte	0x539f
 15652 539b BA530000 		.4byte	0x53ba
 15653 539f 69       		.uleb128 0x69
 15654 53a0 1D220000 		.4byte	.LASF777
 15655 53a4 BA530000 		.4byte	0x53ba
 15656 53a8 02       		.uleb128 0x2
 15657 53a9 91       		.byte	0x91
 15658 53aa 74       		.sleb128 -12
 15659 53ab 64       		.uleb128 0x64
 15660 53ac 7D380000 		.4byte	.LASF799
 15661 53b0 10       		.byte	0x10
 15662 53b1 19       		.byte	0x19
 15663 53b2 BF530000 		.4byte	0x53bf
 15664 53b6 02       		.uleb128 0x2
 15665 53b7 91       		.byte	0x91
 15666 53b8 70       		.sleb128 -16
 15667 53b9 00       		.byte	0
 15668 53ba 08       		.uleb128 0x8
 15669 53bb 963C0000 		.4byte	0x3c96
 15670 53bf 08       		.uleb128 0x8
 15671 53c0 82530000 		.4byte	0x5382
ARM GAS  /tmp/cc5OZvFd.s 			page 276


 15672 53c4 51       		.uleb128 0x51
 15673 53c5 04       		.byte	0x4
 15674 53c6 2E0C0000 		.4byte	0xc2e
 15675 53ca 70       		.uleb128 0x70
 15676 53cb 0F0B0000 		.4byte	0xb0f
 15677 53cf 00000000 		.4byte	.LFB454
 15678 53d3 1E000000 		.4byte	.LFE454-.LFB454
 15679 53d7 01       		.uleb128 0x1
 15680 53d8 9C       		.byte	0x9c
 15681 53d9 F5530000 		.4byte	0x53f5
 15682 53dd 23       		.uleb128 0x23
 15683 53de 062D0000 		.4byte	.LASF154
 15684 53e2 2E0C0000 		.4byte	0xc2e
 15685 53e6 66       		.uleb128 0x66
 15686 53e7 6D736700 		.ascii	"msg\000"
 15687 53eb 07       		.byte	0x7
 15688 53ec B4       		.byte	0xb4
 15689 53ed F5530000 		.4byte	0x53f5
 15690 53f1 02       		.uleb128 0x2
 15691 53f2 91       		.byte	0x91
 15692 53f3 74       		.sleb128 -12
 15693 53f4 00       		.byte	0
 15694 53f5 08       		.uleb128 0x8
 15695 53f6 C4530000 		.4byte	0x53c4
 15696 53fa 71       		.uleb128 0x71
 15697 53fb E51F0000 		.4byte	0x1fe5
 15698 53ff 00000000 		.4byte	.LFB455
 15699 5403 1C000000 		.4byte	.LFE455-.LFB455
 15700 5407 01       		.uleb128 0x1
 15701 5408 9C       		.byte	0x9c
 15702 5409 11540000 		.4byte	0x5411
 15703 540d 2C540000 		.4byte	0x542c
 15704 5411 69       		.uleb128 0x69
 15705 5412 1D220000 		.4byte	.LASF777
 15706 5416 2C540000 		.4byte	0x542c
 15707 541a 02       		.uleb128 0x2
 15708 541b 91       		.byte	0x91
 15709 541c 74       		.sleb128 -12
 15710 541d 64       		.uleb128 0x64
 15711 541e 7D380000 		.4byte	.LASF799
 15712 5422 11       		.byte	0x11
 15713 5423 1F       		.byte	0x1f
 15714 5424 31540000 		.4byte	0x5431
 15715 5428 02       		.uleb128 0x2
 15716 5429 91       		.byte	0x91
 15717 542a 70       		.sleb128 -16
 15718 542b 00       		.byte	0
 15719 542c 08       		.uleb128 0x8
 15720 542d 9C3C0000 		.4byte	0x3c9c
 15721 5431 08       		.uleb128 0x8
 15722 5432 82530000 		.4byte	0x5382
 15723 5436 71       		.uleb128 0x71
 15724 5437 08200000 		.4byte	0x2008
 15725 543b 00000000 		.4byte	.LFB456
 15726 543f 1E000000 		.4byte	.LFE456-.LFB456
 15727 5443 01       		.uleb128 0x1
 15728 5444 9C       		.byte	0x9c
ARM GAS  /tmp/cc5OZvFd.s 			page 277


 15729 5445 4D540000 		.4byte	0x544d
 15730 5449 68540000 		.4byte	0x5468
 15731 544d 69       		.uleb128 0x69
 15732 544e 1D220000 		.4byte	.LASF777
 15733 5452 2C540000 		.4byte	0x542c
 15734 5456 02       		.uleb128 0x2
 15735 5457 91       		.byte	0x91
 15736 5458 74       		.sleb128 -12
 15737 5459 66       		.uleb128 0x66
 15738 545a 6D736700 		.ascii	"msg\000"
 15739 545e 11       		.byte	0x11
 15740 545f 39       		.byte	0x39
 15741 5460 68540000 		.4byte	0x5468
 15742 5464 02       		.uleb128 0x2
 15743 5465 91       		.byte	0x91
 15744 5466 70       		.sleb128 -16
 15745 5467 00       		.byte	0
 15746 5468 08       		.uleb128 0x8
 15747 5469 C4530000 		.4byte	0x53c4
 15748 546d 70       		.uleb128 0x70
 15749 546e 2E0B0000 		.4byte	0xb2e
 15750 5472 00000000 		.4byte	.LFB458
 15751 5476 0E000000 		.4byte	.LFE458-.LFB458
 15752 547a 01       		.uleb128 0x1
 15753 547b 9C       		.byte	0x9c
 15754 547c 8A540000 		.4byte	0x548a
 15755 5480 23       		.uleb128 0x23
 15756 5481 062D0000 		.4byte	.LASF154
 15757 5485 2E0C0000 		.4byte	0xc2e
 15758 5489 00       		.byte	0
 15759 548a 8001     		.uleb128 0x80
 15760 548c 153B0000 		.4byte	.LASF822
 15761 5490 20       		.byte	0x20
 15762 5491 6F       		.byte	0x6f
 15763 5492 DF390000 		.4byte	0x39df
 15764 5496 09       		.uleb128 0x9
 15765 5497 5B000000 		.4byte	0x5b
 15766 549b A2540000 		.4byte	0x54a2
 15767 549f 8101     		.uleb128 0x81
 15768 54a1 00       		.byte	0
 15769 54a2 8001     		.uleb128 0x80
 15770 54a4 70420000 		.4byte	.LASF823
 15771 54a8 05       		.byte	0x5
 15772 54a9 0A       		.byte	0xa
 15773 54aa 96540000 		.4byte	0x5496
 15774 54ae 8001     		.uleb128 0x80
 15775 54b0 BB290000 		.4byte	.LASF824
 15776 54b4 05       		.byte	0x5
 15777 54b5 0B       		.byte	0xb
 15778 54b6 96540000 		.4byte	0x5496
 15779 54ba 8001     		.uleb128 0x80
 15780 54bc 42100000 		.4byte	.LASF825
 15781 54c0 05       		.byte	0x5
 15782 54c1 0D       		.byte	0xd
 15783 54c2 96540000 		.4byte	0x5496
 15784 54c6 8001     		.uleb128 0x80
 15785 54c8 0E270000 		.4byte	.LASF826
ARM GAS  /tmp/cc5OZvFd.s 			page 278


 15786 54cc 05       		.byte	0x5
 15787 54cd 0E       		.byte	0xe
 15788 54ce 96540000 		.4byte	0x5496
 15789 54d2 8201     		.uleb128 0x82
 15790 54d4 F61B0000 		.4byte	0x1bf6
 15791 54d8 0F       		.byte	0xf
 15792 54d9 0B       		.byte	0xb
 15793 54da D8300000 		.4byte	.LASF833
 15794 54de 05       		.uleb128 0x5
 15795 54df 03       		.byte	0x3
 15796 54e0 00000000 		.4byte	_ZN3r2p10Bootloader20an_invalid_signatureE
 15797 54e4 00       		.byte	0
 15798              		.section	.debug_abbrev,"",%progbits
 15799              	.Ldebug_abbrev0:
 15800 0000 01       		.uleb128 0x1
 15801 0001 11       		.uleb128 0x11
 15802 0002 01       		.byte	0x1
 15803 0003 25       		.uleb128 0x25
 15804 0004 0E       		.uleb128 0xe
 15805 0005 13       		.uleb128 0x13
 15806 0006 0B       		.uleb128 0xb
 15807 0007 03       		.uleb128 0x3
 15808 0008 0E       		.uleb128 0xe
 15809 0009 1B       		.uleb128 0x1b
 15810 000a 0E       		.uleb128 0xe
 15811 000b 55       		.uleb128 0x55
 15812 000c 17       		.uleb128 0x17
 15813 000d 11       		.uleb128 0x11
 15814 000e 01       		.uleb128 0x1
 15815 000f 10       		.uleb128 0x10
 15816 0010 17       		.uleb128 0x17
 15817 0011 00       		.byte	0
 15818 0012 00       		.byte	0
 15819 0013 02       		.uleb128 0x2
 15820 0014 16       		.uleb128 0x16
 15821 0015 00       		.byte	0
 15822 0016 03       		.uleb128 0x3
 15823 0017 0E       		.uleb128 0xe
 15824 0018 3A       		.uleb128 0x3a
 15825 0019 0B       		.uleb128 0xb
 15826 001a 3B       		.uleb128 0x3b
 15827 001b 0B       		.uleb128 0xb
 15828 001c 49       		.uleb128 0x49
 15829 001d 13       		.uleb128 0x13
 15830 001e 00       		.byte	0
 15831 001f 00       		.byte	0
 15832 0020 03       		.uleb128 0x3
 15833 0021 24       		.uleb128 0x24
 15834 0022 00       		.byte	0
 15835 0023 0B       		.uleb128 0xb
 15836 0024 0B       		.uleb128 0xb
 15837 0025 3E       		.uleb128 0x3e
 15838 0026 0B       		.uleb128 0xb
 15839 0027 03       		.uleb128 0x3
 15840 0028 08       		.uleb128 0x8
 15841 0029 00       		.byte	0
 15842 002a 00       		.byte	0
ARM GAS  /tmp/cc5OZvFd.s 			page 279


 15843 002b 04       		.uleb128 0x4
 15844 002c 24       		.uleb128 0x24
 15845 002d 00       		.byte	0
 15846 002e 0B       		.uleb128 0xb
 15847 002f 0B       		.uleb128 0xb
 15848 0030 3E       		.uleb128 0x3e
 15849 0031 0B       		.uleb128 0xb
 15850 0032 03       		.uleb128 0x3
 15851 0033 0E       		.uleb128 0xe
 15852 0034 00       		.byte	0
 15853 0035 00       		.byte	0
 15854 0036 05       		.uleb128 0x5
 15855 0037 0F       		.uleb128 0xf
 15856 0038 00       		.byte	0
 15857 0039 0B       		.uleb128 0xb
 15858 003a 0B       		.uleb128 0xb
 15859 003b 00       		.byte	0
 15860 003c 00       		.byte	0
 15861 003d 06       		.uleb128 0x6
 15862 003e 0F       		.uleb128 0xf
 15863 003f 00       		.byte	0
 15864 0040 0B       		.uleb128 0xb
 15865 0041 0B       		.uleb128 0xb
 15866 0042 49       		.uleb128 0x49
 15867 0043 13       		.uleb128 0x13
 15868 0044 00       		.byte	0
 15869 0045 00       		.byte	0
 15870 0046 07       		.uleb128 0x7
 15871 0047 15       		.uleb128 0x15
 15872 0048 00       		.byte	0
 15873 0049 00       		.byte	0
 15874 004a 00       		.byte	0
 15875 004b 08       		.uleb128 0x8
 15876 004c 26       		.uleb128 0x26
 15877 004d 00       		.byte	0
 15878 004e 49       		.uleb128 0x49
 15879 004f 13       		.uleb128 0x13
 15880 0050 00       		.byte	0
 15881 0051 00       		.byte	0
 15882 0052 09       		.uleb128 0x9
 15883 0053 01       		.uleb128 0x1
 15884 0054 01       		.byte	0x1
 15885 0055 49       		.uleb128 0x49
 15886 0056 13       		.uleb128 0x13
 15887 0057 01       		.uleb128 0x1
 15888 0058 13       		.uleb128 0x13
 15889 0059 00       		.byte	0
 15890 005a 00       		.byte	0
 15891 005b 0A       		.uleb128 0xa
 15892 005c 21       		.uleb128 0x21
 15893 005d 00       		.byte	0
 15894 005e 49       		.uleb128 0x49
 15895 005f 13       		.uleb128 0x13
 15896 0060 2F       		.uleb128 0x2f
 15897 0061 0B       		.uleb128 0xb
 15898 0062 00       		.byte	0
 15899 0063 00       		.byte	0
ARM GAS  /tmp/cc5OZvFd.s 			page 280


 15900 0064 0B       		.uleb128 0xb
 15901 0065 39       		.uleb128 0x39
 15902 0066 01       		.byte	0x1
 15903 0067 03       		.uleb128 0x3
 15904 0068 08       		.uleb128 0x8
 15905 0069 3A       		.uleb128 0x3a
 15906 006a 0B       		.uleb128 0xb
 15907 006b 3B       		.uleb128 0x3b
 15908 006c 0B       		.uleb128 0xb
 15909 006d 01       		.uleb128 0x1
 15910 006e 13       		.uleb128 0x13
 15911 006f 00       		.byte	0
 15912 0070 00       		.byte	0
 15913 0071 0C       		.uleb128 0xc
 15914 0072 08       		.uleb128 0x8
 15915 0073 00       		.byte	0
 15916 0074 3A       		.uleb128 0x3a
 15917 0075 0B       		.uleb128 0xb
 15918 0076 3B       		.uleb128 0x3b
 15919 0077 0B       		.uleb128 0xb
 15920 0078 18       		.uleb128 0x18
 15921 0079 13       		.uleb128 0x13
 15922 007a 00       		.byte	0
 15923 007b 00       		.byte	0
 15924 007c 0D       		.uleb128 0xd
 15925 007d 2E       		.uleb128 0x2e
 15926 007e 01       		.byte	0x1
 15927 007f 3F       		.uleb128 0x3f
 15928 0080 19       		.uleb128 0x19
 15929 0081 03       		.uleb128 0x3
 15930 0082 0E       		.uleb128 0xe
 15931 0083 3A       		.uleb128 0x3a
 15932 0084 0B       		.uleb128 0xb
 15933 0085 3B       		.uleb128 0x3b
 15934 0086 0B       		.uleb128 0xb
 15935 0087 49       		.uleb128 0x49
 15936 0088 13       		.uleb128 0x13
 15937 0089 3C       		.uleb128 0x3c
 15938 008a 19       		.uleb128 0x19
 15939 008b 01       		.uleb128 0x1
 15940 008c 13       		.uleb128 0x13
 15941 008d 00       		.byte	0
 15942 008e 00       		.byte	0
 15943 008f 0E       		.uleb128 0xe
 15944 0090 05       		.uleb128 0x5
 15945 0091 00       		.byte	0
 15946 0092 49       		.uleb128 0x49
 15947 0093 13       		.uleb128 0x13
 15948 0094 00       		.byte	0
 15949 0095 00       		.byte	0
 15950 0096 0F       		.uleb128 0xf
 15951 0097 02       		.uleb128 0x2
 15952 0098 01       		.byte	0x1
 15953 0099 03       		.uleb128 0x3
 15954 009a 0E       		.uleb128 0xe
 15955 009b 0B       		.uleb128 0xb
 15956 009c 0B       		.uleb128 0xb
ARM GAS  /tmp/cc5OZvFd.s 			page 281


 15957 009d 3A       		.uleb128 0x3a
 15958 009e 0B       		.uleb128 0xb
 15959 009f 3B       		.uleb128 0x3b
 15960 00a0 0B       		.uleb128 0xb
 15961 00a1 01       		.uleb128 0x1
 15962 00a2 13       		.uleb128 0x13
 15963 00a3 00       		.byte	0
 15964 00a4 00       		.byte	0
 15965 00a5 10       		.uleb128 0x10
 15966 00a6 2E       		.uleb128 0x2e
 15967 00a7 01       		.byte	0x1
 15968 00a8 3F       		.uleb128 0x3f
 15969 00a9 19       		.uleb128 0x19
 15970 00aa 03       		.uleb128 0x3
 15971 00ab 0E       		.uleb128 0xe
 15972 00ac 3A       		.uleb128 0x3a
 15973 00ad 0B       		.uleb128 0xb
 15974 00ae 3B       		.uleb128 0x3b
 15975 00af 0B       		.uleb128 0xb
 15976 00b0 49       		.uleb128 0x49
 15977 00b1 13       		.uleb128 0x13
 15978 00b2 3C       		.uleb128 0x3c
 15979 00b3 19       		.uleb128 0x19
 15980 00b4 64       		.uleb128 0x64
 15981 00b5 13       		.uleb128 0x13
 15982 00b6 01       		.uleb128 0x1
 15983 00b7 13       		.uleb128 0x13
 15984 00b8 00       		.byte	0
 15985 00b9 00       		.byte	0
 15986 00ba 11       		.uleb128 0x11
 15987 00bb 05       		.uleb128 0x5
 15988 00bc 00       		.byte	0
 15989 00bd 49       		.uleb128 0x49
 15990 00be 13       		.uleb128 0x13
 15991 00bf 34       		.uleb128 0x34
 15992 00c0 19       		.uleb128 0x19
 15993 00c1 00       		.byte	0
 15994 00c2 00       		.byte	0
 15995 00c3 12       		.uleb128 0x12
 15996 00c4 2E       		.uleb128 0x2e
 15997 00c5 01       		.byte	0x1
 15998 00c6 3F       		.uleb128 0x3f
 15999 00c7 19       		.uleb128 0x19
 16000 00c8 03       		.uleb128 0x3
 16001 00c9 0E       		.uleb128 0xe
 16002 00ca 3A       		.uleb128 0x3a
 16003 00cb 0B       		.uleb128 0xb
 16004 00cc 3B       		.uleb128 0x3b
 16005 00cd 0B       		.uleb128 0xb
 16006 00ce 49       		.uleb128 0x49
 16007 00cf 13       		.uleb128 0x13
 16008 00d0 32       		.uleb128 0x32
 16009 00d1 0B       		.uleb128 0xb
 16010 00d2 3C       		.uleb128 0x3c
 16011 00d3 19       		.uleb128 0x19
 16012 00d4 64       		.uleb128 0x64
 16013 00d5 13       		.uleb128 0x13
ARM GAS  /tmp/cc5OZvFd.s 			page 282


 16014 00d6 01       		.uleb128 0x1
 16015 00d7 13       		.uleb128 0x13
 16016 00d8 00       		.byte	0
 16017 00d9 00       		.byte	0
 16018 00da 13       		.uleb128 0x13
 16019 00db 2E       		.uleb128 0x2e
 16020 00dc 01       		.byte	0x1
 16021 00dd 3F       		.uleb128 0x3f
 16022 00de 19       		.uleb128 0x19
 16023 00df 03       		.uleb128 0x3
 16024 00e0 0E       		.uleb128 0xe
 16025 00e1 3A       		.uleb128 0x3a
 16026 00e2 0B       		.uleb128 0xb
 16027 00e3 3B       		.uleb128 0x3b
 16028 00e4 0B       		.uleb128 0xb
 16029 00e5 49       		.uleb128 0x49
 16030 00e6 13       		.uleb128 0x13
 16031 00e7 32       		.uleb128 0x32
 16032 00e8 0B       		.uleb128 0xb
 16033 00e9 3C       		.uleb128 0x3c
 16034 00ea 19       		.uleb128 0x19
 16035 00eb 64       		.uleb128 0x64
 16036 00ec 13       		.uleb128 0x13
 16037 00ed 00       		.byte	0
 16038 00ee 00       		.byte	0
 16039 00ef 14       		.uleb128 0x14
 16040 00f0 1C       		.uleb128 0x1c
 16041 00f1 00       		.byte	0
 16042 00f2 49       		.uleb128 0x49
 16043 00f3 13       		.uleb128 0x13
 16044 00f4 38       		.uleb128 0x38
 16045 00f5 0B       		.uleb128 0xb
 16046 00f6 00       		.byte	0
 16047 00f7 00       		.byte	0
 16048 00f8 15       		.uleb128 0x15
 16049 00f9 2E       		.uleb128 0x2e
 16050 00fa 00       		.byte	0
 16051 00fb 3F       		.uleb128 0x3f
 16052 00fc 19       		.uleb128 0x19
 16053 00fd 03       		.uleb128 0x3
 16054 00fe 0E       		.uleb128 0xe
 16055 00ff 3A       		.uleb128 0x3a
 16056 0100 0B       		.uleb128 0xb
 16057 0101 3B       		.uleb128 0x3b
 16058 0102 0B       		.uleb128 0xb
 16059 0103 6E       		.uleb128 0x6e
 16060 0104 0E       		.uleb128 0xe
 16061 0105 32       		.uleb128 0x32
 16062 0106 0B       		.uleb128 0xb
 16063 0107 3C       		.uleb128 0x3c
 16064 0108 19       		.uleb128 0x19
 16065 0109 00       		.byte	0
 16066 010a 00       		.byte	0
 16067 010b 16       		.uleb128 0x16
 16068 010c 04       		.uleb128 0x4
 16069 010d 01       		.byte	0x1
 16070 010e 0B       		.uleb128 0xb
ARM GAS  /tmp/cc5OZvFd.s 			page 283


 16071 010f 0B       		.uleb128 0xb
 16072 0110 3A       		.uleb128 0x3a
 16073 0111 0B       		.uleb128 0xb
 16074 0112 3B       		.uleb128 0x3b
 16075 0113 0B       		.uleb128 0xb
 16076 0114 32       		.uleb128 0x32
 16077 0115 0B       		.uleb128 0xb
 16078 0116 01       		.uleb128 0x1
 16079 0117 13       		.uleb128 0x13
 16080 0118 00       		.byte	0
 16081 0119 00       		.byte	0
 16082 011a 17       		.uleb128 0x17
 16083 011b 28       		.uleb128 0x28
 16084 011c 00       		.byte	0
 16085 011d 03       		.uleb128 0x3
 16086 011e 0E       		.uleb128 0xe
 16087 011f 1C       		.uleb128 0x1c
 16088 0120 0D       		.uleb128 0xd
 16089 0121 00       		.byte	0
 16090 0122 00       		.byte	0
 16091 0123 18       		.uleb128 0x18
 16092 0124 16       		.uleb128 0x16
 16093 0125 00       		.byte	0
 16094 0126 03       		.uleb128 0x3
 16095 0127 0E       		.uleb128 0xe
 16096 0128 3A       		.uleb128 0x3a
 16097 0129 0B       		.uleb128 0xb
 16098 012a 3B       		.uleb128 0x3b
 16099 012b 0B       		.uleb128 0xb
 16100 012c 49       		.uleb128 0x49
 16101 012d 13       		.uleb128 0x13
 16102 012e 32       		.uleb128 0x32
 16103 012f 0B       		.uleb128 0xb
 16104 0130 00       		.byte	0
 16105 0131 00       		.byte	0
 16106 0132 19       		.uleb128 0x19
 16107 0133 0D       		.uleb128 0xd
 16108 0134 00       		.byte	0
 16109 0135 03       		.uleb128 0x3
 16110 0136 0E       		.uleb128 0xe
 16111 0137 3A       		.uleb128 0x3a
 16112 0138 0B       		.uleb128 0xb
 16113 0139 3B       		.uleb128 0x3b
 16114 013a 0B       		.uleb128 0xb
 16115 013b 49       		.uleb128 0x49
 16116 013c 13       		.uleb128 0x13
 16117 013d 38       		.uleb128 0x38
 16118 013e 0B       		.uleb128 0xb
 16119 013f 00       		.byte	0
 16120 0140 00       		.byte	0
 16121 0141 1A       		.uleb128 0x1a
 16122 0142 0D       		.uleb128 0xd
 16123 0143 00       		.byte	0
 16124 0144 03       		.uleb128 0x3
 16125 0145 0E       		.uleb128 0xe
 16126 0146 3A       		.uleb128 0x3a
 16127 0147 0B       		.uleb128 0xb
ARM GAS  /tmp/cc5OZvFd.s 			page 284


 16128 0148 3B       		.uleb128 0x3b
 16129 0149 0B       		.uleb128 0xb
 16130 014a 49       		.uleb128 0x49
 16131 014b 13       		.uleb128 0x13
 16132 014c 3F       		.uleb128 0x3f
 16133 014d 19       		.uleb128 0x19
 16134 014e 32       		.uleb128 0x32
 16135 014f 0B       		.uleb128 0xb
 16136 0150 3C       		.uleb128 0x3c
 16137 0151 19       		.uleb128 0x19
 16138 0152 00       		.byte	0
 16139 0153 00       		.byte	0
 16140 0154 1B       		.uleb128 0x1b
 16141 0155 2E       		.uleb128 0x2e
 16142 0156 01       		.byte	0x1
 16143 0157 3F       		.uleb128 0x3f
 16144 0158 19       		.uleb128 0x19
 16145 0159 03       		.uleb128 0x3
 16146 015a 0E       		.uleb128 0xe
 16147 015b 3A       		.uleb128 0x3a
 16148 015c 0B       		.uleb128 0xb
 16149 015d 3B       		.uleb128 0x3b
 16150 015e 0B       		.uleb128 0xb
 16151 015f 6E       		.uleb128 0x6e
 16152 0160 0E       		.uleb128 0xe
 16153 0161 32       		.uleb128 0x32
 16154 0162 0B       		.uleb128 0xb
 16155 0163 3C       		.uleb128 0x3c
 16156 0164 19       		.uleb128 0x19
 16157 0165 64       		.uleb128 0x64
 16158 0166 13       		.uleb128 0x13
 16159 0167 01       		.uleb128 0x1
 16160 0168 13       		.uleb128 0x13
 16161 0169 00       		.byte	0
 16162 016a 00       		.byte	0
 16163 016b 1C       		.uleb128 0x1c
 16164 016c 2E       		.uleb128 0x2e
 16165 016d 01       		.byte	0x1
 16166 016e 3F       		.uleb128 0x3f
 16167 016f 19       		.uleb128 0x19
 16168 0170 03       		.uleb128 0x3
 16169 0171 08       		.uleb128 0x8
 16170 0172 3A       		.uleb128 0x3a
 16171 0173 0B       		.uleb128 0xb
 16172 0174 3B       		.uleb128 0x3b
 16173 0175 0B       		.uleb128 0xb
 16174 0176 6E       		.uleb128 0x6e
 16175 0177 0E       		.uleb128 0xe
 16176 0178 49       		.uleb128 0x49
 16177 0179 13       		.uleb128 0x13
 16178 017a 32       		.uleb128 0x32
 16179 017b 0B       		.uleb128 0xb
 16180 017c 3C       		.uleb128 0x3c
 16181 017d 19       		.uleb128 0x19
 16182 017e 64       		.uleb128 0x64
 16183 017f 13       		.uleb128 0x13
 16184 0180 01       		.uleb128 0x1
ARM GAS  /tmp/cc5OZvFd.s 			page 285


 16185 0181 13       		.uleb128 0x13
 16186 0182 00       		.byte	0
 16187 0183 00       		.byte	0
 16188 0184 1D       		.uleb128 0x1d
 16189 0185 2E       		.uleb128 0x2e
 16190 0186 01       		.byte	0x1
 16191 0187 3F       		.uleb128 0x3f
 16192 0188 19       		.uleb128 0x19
 16193 0189 03       		.uleb128 0x3
 16194 018a 0E       		.uleb128 0xe
 16195 018b 3A       		.uleb128 0x3a
 16196 018c 0B       		.uleb128 0xb
 16197 018d 3B       		.uleb128 0x3b
 16198 018e 0B       		.uleb128 0xb
 16199 018f 6E       		.uleb128 0x6e
 16200 0190 0E       		.uleb128 0xe
 16201 0191 49       		.uleb128 0x49
 16202 0192 13       		.uleb128 0x13
 16203 0193 32       		.uleb128 0x32
 16204 0194 0B       		.uleb128 0xb
 16205 0195 3C       		.uleb128 0x3c
 16206 0196 19       		.uleb128 0x19
 16207 0197 64       		.uleb128 0x64
 16208 0198 13       		.uleb128 0x13
 16209 0199 01       		.uleb128 0x1
 16210 019a 13       		.uleb128 0x13
 16211 019b 00       		.byte	0
 16212 019c 00       		.byte	0
 16213 019d 1E       		.uleb128 0x1e
 16214 019e 2E       		.uleb128 0x2e
 16215 019f 01       		.byte	0x1
 16216 01a0 3F       		.uleb128 0x3f
 16217 01a1 19       		.uleb128 0x19
 16218 01a2 03       		.uleb128 0x3
 16219 01a3 0E       		.uleb128 0xe
 16220 01a4 3A       		.uleb128 0x3a
 16221 01a5 0B       		.uleb128 0xb
 16222 01a6 3B       		.uleb128 0x3b
 16223 01a7 0B       		.uleb128 0xb
 16224 01a8 6E       		.uleb128 0x6e
 16225 01a9 0E       		.uleb128 0xe
 16226 01aa 49       		.uleb128 0x49
 16227 01ab 13       		.uleb128 0x13
 16228 01ac 32       		.uleb128 0x32
 16229 01ad 0B       		.uleb128 0xb
 16230 01ae 3C       		.uleb128 0x3c
 16231 01af 19       		.uleb128 0x19
 16232 01b0 01       		.uleb128 0x1
 16233 01b1 13       		.uleb128 0x13
 16234 01b2 00       		.byte	0
 16235 01b3 00       		.byte	0
 16236 01b4 1F       		.uleb128 0x1f
 16237 01b5 35       		.uleb128 0x35
 16238 01b6 00       		.byte	0
 16239 01b7 49       		.uleb128 0x49
 16240 01b8 13       		.uleb128 0x13
 16241 01b9 00       		.byte	0
ARM GAS  /tmp/cc5OZvFd.s 			page 286


 16242 01ba 00       		.byte	0
 16243 01bb 20       		.uleb128 0x20
 16244 01bc 2E       		.uleb128 0x2e
 16245 01bd 00       		.byte	0
 16246 01be 3F       		.uleb128 0x3f
 16247 01bf 19       		.uleb128 0x19
 16248 01c0 03       		.uleb128 0x3
 16249 01c1 0E       		.uleb128 0xe
 16250 01c2 3A       		.uleb128 0x3a
 16251 01c3 0B       		.uleb128 0xb
 16252 01c4 3B       		.uleb128 0x3b
 16253 01c5 0B       		.uleb128 0xb
 16254 01c6 6E       		.uleb128 0x6e
 16255 01c7 0E       		.uleb128 0xe
 16256 01c8 49       		.uleb128 0x49
 16257 01c9 13       		.uleb128 0x13
 16258 01ca 32       		.uleb128 0x32
 16259 01cb 0B       		.uleb128 0xb
 16260 01cc 3C       		.uleb128 0x3c
 16261 01cd 19       		.uleb128 0x19
 16262 01ce 00       		.byte	0
 16263 01cf 00       		.byte	0
 16264 01d0 21       		.uleb128 0x21
 16265 01d1 2E       		.uleb128 0x2e
 16266 01d2 01       		.byte	0x1
 16267 01d3 3F       		.uleb128 0x3f
 16268 01d4 19       		.uleb128 0x19
 16269 01d5 03       		.uleb128 0x3
 16270 01d6 0E       		.uleb128 0xe
 16271 01d7 3A       		.uleb128 0x3a
 16272 01d8 0B       		.uleb128 0xb
 16273 01d9 3B       		.uleb128 0x3b
 16274 01da 0B       		.uleb128 0xb
 16275 01db 6E       		.uleb128 0x6e
 16276 01dc 0E       		.uleb128 0xe
 16277 01dd 32       		.uleb128 0x32
 16278 01de 0B       		.uleb128 0xb
 16279 01df 3C       		.uleb128 0x3c
 16280 01e0 19       		.uleb128 0x19
 16281 01e1 00       		.byte	0
 16282 01e2 00       		.byte	0
 16283 01e3 22       		.uleb128 0x22
 16284 01e4 2E       		.uleb128 0x2e
 16285 01e5 01       		.byte	0x1
 16286 01e6 3F       		.uleb128 0x3f
 16287 01e7 19       		.uleb128 0x19
 16288 01e8 03       		.uleb128 0x3
 16289 01e9 0E       		.uleb128 0xe
 16290 01ea 3A       		.uleb128 0x3a
 16291 01eb 0B       		.uleb128 0xb
 16292 01ec 3B       		.uleb128 0x3b
 16293 01ed 0B       		.uleb128 0xb
 16294 01ee 6E       		.uleb128 0x6e
 16295 01ef 0E       		.uleb128 0xe
 16296 01f0 32       		.uleb128 0x32
 16297 01f1 0B       		.uleb128 0xb
 16298 01f2 3C       		.uleb128 0x3c
ARM GAS  /tmp/cc5OZvFd.s 			page 287


 16299 01f3 19       		.uleb128 0x19
 16300 01f4 01       		.uleb128 0x1
 16301 01f5 13       		.uleb128 0x13
 16302 01f6 00       		.byte	0
 16303 01f7 00       		.byte	0
 16304 01f8 23       		.uleb128 0x23
 16305 01f9 2F       		.uleb128 0x2f
 16306 01fa 00       		.byte	0
 16307 01fb 03       		.uleb128 0x3
 16308 01fc 0E       		.uleb128 0xe
 16309 01fd 49       		.uleb128 0x49
 16310 01fe 13       		.uleb128 0x13
 16311 01ff 00       		.byte	0
 16312 0200 00       		.byte	0
 16313 0201 24       		.uleb128 0x24
 16314 0202 2E       		.uleb128 0x2e
 16315 0203 01       		.byte	0x1
 16316 0204 3F       		.uleb128 0x3f
 16317 0205 19       		.uleb128 0x19
 16318 0206 03       		.uleb128 0x3
 16319 0207 0E       		.uleb128 0xe
 16320 0208 3A       		.uleb128 0x3a
 16321 0209 0B       		.uleb128 0xb
 16322 020a 3B       		.uleb128 0x3b
 16323 020b 0B       		.uleb128 0xb
 16324 020c 6E       		.uleb128 0x6e
 16325 020d 0E       		.uleb128 0xe
 16326 020e 49       		.uleb128 0x49
 16327 020f 13       		.uleb128 0x13
 16328 0210 32       		.uleb128 0x32
 16329 0211 0B       		.uleb128 0xb
 16330 0212 3C       		.uleb128 0x3c
 16331 0213 19       		.uleb128 0x19
 16332 0214 00       		.byte	0
 16333 0215 00       		.byte	0
 16334 0216 25       		.uleb128 0x25
 16335 0217 13       		.uleb128 0x13
 16336 0218 01       		.byte	0x1
 16337 0219 03       		.uleb128 0x3
 16338 021a 0E       		.uleb128 0xe
 16339 021b 0B       		.uleb128 0xb
 16340 021c 0B       		.uleb128 0xb
 16341 021d 3A       		.uleb128 0x3a
 16342 021e 0B       		.uleb128 0xb
 16343 021f 3B       		.uleb128 0x3b
 16344 0220 0B       		.uleb128 0xb
 16345 0221 01       		.uleb128 0x1
 16346 0222 13       		.uleb128 0x13
 16347 0223 00       		.byte	0
 16348 0224 00       		.byte	0
 16349 0225 26       		.uleb128 0x26
 16350 0226 04       		.uleb128 0x4
 16351 0227 01       		.byte	0x1
 16352 0228 0B       		.uleb128 0xb
 16353 0229 0B       		.uleb128 0xb
 16354 022a 3A       		.uleb128 0x3a
 16355 022b 0B       		.uleb128 0xb
ARM GAS  /tmp/cc5OZvFd.s 			page 288


 16356 022c 3B       		.uleb128 0x3b
 16357 022d 0B       		.uleb128 0xb
 16358 022e 00       		.byte	0
 16359 022f 00       		.byte	0
 16360 0230 27       		.uleb128 0x27
 16361 0231 04       		.uleb128 0x4
 16362 0232 01       		.byte	0x1
 16363 0233 03       		.uleb128 0x3
 16364 0234 0E       		.uleb128 0xe
 16365 0235 0B       		.uleb128 0xb
 16366 0236 0B       		.uleb128 0xb
 16367 0237 3A       		.uleb128 0x3a
 16368 0238 0B       		.uleb128 0xb
 16369 0239 3B       		.uleb128 0x3b
 16370 023a 0B       		.uleb128 0xb
 16371 023b 01       		.uleb128 0x1
 16372 023c 13       		.uleb128 0x13
 16373 023d 00       		.byte	0
 16374 023e 00       		.byte	0
 16375 023f 28       		.uleb128 0x28
 16376 0240 2E       		.uleb128 0x2e
 16377 0241 01       		.byte	0x1
 16378 0242 3F       		.uleb128 0x3f
 16379 0243 19       		.uleb128 0x19
 16380 0244 03       		.uleb128 0x3
 16381 0245 0E       		.uleb128 0xe
 16382 0246 3A       		.uleb128 0x3a
 16383 0247 0B       		.uleb128 0xb
 16384 0248 3B       		.uleb128 0x3b
 16385 0249 0B       		.uleb128 0xb
 16386 024a 6E       		.uleb128 0x6e
 16387 024b 0E       		.uleb128 0xe
 16388 024c 49       		.uleb128 0x49
 16389 024d 13       		.uleb128 0x13
 16390 024e 3C       		.uleb128 0x3c
 16391 024f 19       		.uleb128 0x19
 16392 0250 64       		.uleb128 0x64
 16393 0251 13       		.uleb128 0x13
 16394 0252 00       		.byte	0
 16395 0253 00       		.byte	0
 16396 0254 29       		.uleb128 0x29
 16397 0255 04       		.uleb128 0x4
 16398 0256 01       		.byte	0x1
 16399 0257 03       		.uleb128 0x3
 16400 0258 0E       		.uleb128 0xe
 16401 0259 0B       		.uleb128 0xb
 16402 025a 0B       		.uleb128 0xb
 16403 025b 3A       		.uleb128 0x3a
 16404 025c 0B       		.uleb128 0xb
 16405 025d 3B       		.uleb128 0x3b
 16406 025e 0B       		.uleb128 0xb
 16407 025f 32       		.uleb128 0x32
 16408 0260 0B       		.uleb128 0xb
 16409 0261 01       		.uleb128 0x1
 16410 0262 13       		.uleb128 0x13
 16411 0263 00       		.byte	0
 16412 0264 00       		.byte	0
ARM GAS  /tmp/cc5OZvFd.s 			page 289


 16413 0265 2A       		.uleb128 0x2a
 16414 0266 28       		.uleb128 0x28
 16415 0267 00       		.byte	0
 16416 0268 03       		.uleb128 0x3
 16417 0269 08       		.uleb128 0x8
 16418 026a 1C       		.uleb128 0x1c
 16419 026b 0D       		.uleb128 0xd
 16420 026c 00       		.byte	0
 16421 026d 00       		.byte	0
 16422 026e 2B       		.uleb128 0x2b
 16423 026f 13       		.uleb128 0x13
 16424 0270 01       		.byte	0x1
 16425 0271 03       		.uleb128 0x3
 16426 0272 0E       		.uleb128 0xe
 16427 0273 0B       		.uleb128 0xb
 16428 0274 0B       		.uleb128 0xb
 16429 0275 3A       		.uleb128 0x3a
 16430 0276 0B       		.uleb128 0xb
 16431 0277 3B       		.uleb128 0x3b
 16432 0278 0B       		.uleb128 0xb
 16433 0279 32       		.uleb128 0x32
 16434 027a 0B       		.uleb128 0xb
 16435 027b 01       		.uleb128 0x1
 16436 027c 13       		.uleb128 0x13
 16437 027d 00       		.byte	0
 16438 027e 00       		.byte	0
 16439 027f 2C       		.uleb128 0x2c
 16440 0280 04       		.uleb128 0x4
 16441 0281 01       		.byte	0x1
 16442 0282 0B       		.uleb128 0xb
 16443 0283 0B       		.uleb128 0xb
 16444 0284 3A       		.uleb128 0x3a
 16445 0285 0B       		.uleb128 0xb
 16446 0286 3B       		.uleb128 0x3b
 16447 0287 0B       		.uleb128 0xb
 16448 0288 01       		.uleb128 0x1
 16449 0289 13       		.uleb128 0x13
 16450 028a 00       		.byte	0
 16451 028b 00       		.byte	0
 16452 028c 2D       		.uleb128 0x2d
 16453 028d 17       		.uleb128 0x17
 16454 028e 01       		.byte	0x1
 16455 028f 0B       		.uleb128 0xb
 16456 0290 0B       		.uleb128 0xb
 16457 0291 3A       		.uleb128 0x3a
 16458 0292 0B       		.uleb128 0xb
 16459 0293 3B       		.uleb128 0x3b
 16460 0294 0B       		.uleb128 0xb
 16461 0295 01       		.uleb128 0x1
 16462 0296 13       		.uleb128 0x13
 16463 0297 00       		.byte	0
 16464 0298 00       		.byte	0
 16465 0299 2E       		.uleb128 0x2e
 16466 029a 13       		.uleb128 0x13
 16467 029b 01       		.byte	0x1
 16468 029c 0B       		.uleb128 0xb
 16469 029d 0B       		.uleb128 0xb
ARM GAS  /tmp/cc5OZvFd.s 			page 290


 16470 029e 3A       		.uleb128 0x3a
 16471 029f 0B       		.uleb128 0xb
 16472 02a0 3B       		.uleb128 0x3b
 16473 02a1 0B       		.uleb128 0xb
 16474 02a2 01       		.uleb128 0x1
 16475 02a3 13       		.uleb128 0x13
 16476 02a4 00       		.byte	0
 16477 02a5 00       		.byte	0
 16478 02a6 2F       		.uleb128 0x2f
 16479 02a7 0D       		.uleb128 0xd
 16480 02a8 00       		.byte	0
 16481 02a9 03       		.uleb128 0x3
 16482 02aa 0E       		.uleb128 0xe
 16483 02ab 3A       		.uleb128 0x3a
 16484 02ac 0B       		.uleb128 0xb
 16485 02ad 3B       		.uleb128 0x3b
 16486 02ae 0B       		.uleb128 0xb
 16487 02af 49       		.uleb128 0x49
 16488 02b0 13       		.uleb128 0x13
 16489 02b1 00       		.byte	0
 16490 02b2 00       		.byte	0
 16491 02b3 30       		.uleb128 0x30
 16492 02b4 0D       		.uleb128 0xd
 16493 02b5 00       		.byte	0
 16494 02b6 49       		.uleb128 0x49
 16495 02b7 13       		.uleb128 0x13
 16496 02b8 38       		.uleb128 0x38
 16497 02b9 0B       		.uleb128 0xb
 16498 02ba 00       		.byte	0
 16499 02bb 00       		.byte	0
 16500 02bc 31       		.uleb128 0x31
 16501 02bd 17       		.uleb128 0x17
 16502 02be 01       		.byte	0x1
 16503 02bf 0B       		.uleb128 0xb
 16504 02c0 0B       		.uleb128 0xb
 16505 02c1 3A       		.uleb128 0x3a
 16506 02c2 0B       		.uleb128 0xb
 16507 02c3 3B       		.uleb128 0x3b
 16508 02c4 0B       		.uleb128 0xb
 16509 02c5 32       		.uleb128 0x32
 16510 02c6 0B       		.uleb128 0xb
 16511 02c7 01       		.uleb128 0x1
 16512 02c8 13       		.uleb128 0x13
 16513 02c9 00       		.byte	0
 16514 02ca 00       		.byte	0
 16515 02cb 32       		.uleb128 0x32
 16516 02cc 0D       		.uleb128 0xd
 16517 02cd 00       		.byte	0
 16518 02ce 03       		.uleb128 0x3
 16519 02cf 08       		.uleb128 0x8
 16520 02d0 3A       		.uleb128 0x3a
 16521 02d1 0B       		.uleb128 0xb
 16522 02d2 3B       		.uleb128 0x3b
 16523 02d3 0B       		.uleb128 0xb
 16524 02d4 49       		.uleb128 0x49
 16525 02d5 13       		.uleb128 0x13
 16526 02d6 00       		.byte	0
ARM GAS  /tmp/cc5OZvFd.s 			page 291


 16527 02d7 00       		.byte	0
 16528 02d8 33       		.uleb128 0x33
 16529 02d9 1C       		.uleb128 0x1c
 16530 02da 00       		.byte	0
 16531 02db 49       		.uleb128 0x49
 16532 02dc 13       		.uleb128 0x13
 16533 02dd 38       		.uleb128 0x38
 16534 02de 0B       		.uleb128 0xb
 16535 02df 32       		.uleb128 0x32
 16536 02e0 0B       		.uleb128 0xb
 16537 02e1 00       		.byte	0
 16538 02e2 00       		.byte	0
 16539 02e3 34       		.uleb128 0x34
 16540 02e4 0D       		.uleb128 0xd
 16541 02e5 00       		.byte	0
 16542 02e6 49       		.uleb128 0x49
 16543 02e7 13       		.uleb128 0x13
 16544 02e8 38       		.uleb128 0x38
 16545 02e9 0B       		.uleb128 0xb
 16546 02ea 32       		.uleb128 0x32
 16547 02eb 0B       		.uleb128 0xb
 16548 02ec 00       		.byte	0
 16549 02ed 00       		.byte	0
 16550 02ee 35       		.uleb128 0x35
 16551 02ef 0D       		.uleb128 0xd
 16552 02f0 00       		.byte	0
 16553 02f1 03       		.uleb128 0x3
 16554 02f2 0E       		.uleb128 0xe
 16555 02f3 3A       		.uleb128 0x3a
 16556 02f4 0B       		.uleb128 0xb
 16557 02f5 3B       		.uleb128 0x3b
 16558 02f6 0B       		.uleb128 0xb
 16559 02f7 49       		.uleb128 0x49
 16560 02f8 13       		.uleb128 0x13
 16561 02f9 38       		.uleb128 0x38
 16562 02fa 0B       		.uleb128 0xb
 16563 02fb 32       		.uleb128 0x32
 16564 02fc 0B       		.uleb128 0xb
 16565 02fd 00       		.byte	0
 16566 02fe 00       		.byte	0
 16567 02ff 36       		.uleb128 0x36
 16568 0300 0D       		.uleb128 0xd
 16569 0301 00       		.byte	0
 16570 0302 03       		.uleb128 0x3
 16571 0303 08       		.uleb128 0x8
 16572 0304 3A       		.uleb128 0x3a
 16573 0305 0B       		.uleb128 0xb
 16574 0306 3B       		.uleb128 0x3b
 16575 0307 0B       		.uleb128 0xb
 16576 0308 49       		.uleb128 0x49
 16577 0309 13       		.uleb128 0x13
 16578 030a 38       		.uleb128 0x38
 16579 030b 0B       		.uleb128 0xb
 16580 030c 32       		.uleb128 0x32
 16581 030d 0B       		.uleb128 0xb
 16582 030e 00       		.byte	0
 16583 030f 00       		.byte	0
ARM GAS  /tmp/cc5OZvFd.s 			page 292


 16584 0310 37       		.uleb128 0x37
 16585 0311 2E       		.uleb128 0x2e
 16586 0312 01       		.byte	0x1
 16587 0313 3F       		.uleb128 0x3f
 16588 0314 19       		.uleb128 0x19
 16589 0315 03       		.uleb128 0x3
 16590 0316 0E       		.uleb128 0xe
 16591 0317 3A       		.uleb128 0x3a
 16592 0318 0B       		.uleb128 0xb
 16593 0319 3B       		.uleb128 0x3b
 16594 031a 0B       		.uleb128 0xb
 16595 031b 49       		.uleb128 0x49
 16596 031c 13       		.uleb128 0x13
 16597 031d 32       		.uleb128 0x32
 16598 031e 0B       		.uleb128 0xb
 16599 031f 3C       		.uleb128 0x3c
 16600 0320 19       		.uleb128 0x19
 16601 0321 63       		.uleb128 0x63
 16602 0322 19       		.uleb128 0x19
 16603 0323 64       		.uleb128 0x64
 16604 0324 13       		.uleb128 0x13
 16605 0325 01       		.uleb128 0x1
 16606 0326 13       		.uleb128 0x13
 16607 0327 00       		.byte	0
 16608 0328 00       		.byte	0
 16609 0329 38       		.uleb128 0x38
 16610 032a 2E       		.uleb128 0x2e
 16611 032b 01       		.byte	0x1
 16612 032c 3F       		.uleb128 0x3f
 16613 032d 19       		.uleb128 0x19
 16614 032e 03       		.uleb128 0x3
 16615 032f 08       		.uleb128 0x8
 16616 0330 3A       		.uleb128 0x3a
 16617 0331 0B       		.uleb128 0xb
 16618 0332 3B       		.uleb128 0x3b
 16619 0333 0B       		.uleb128 0xb
 16620 0334 6E       		.uleb128 0x6e
 16621 0335 0E       		.uleb128 0xe
 16622 0336 49       		.uleb128 0x49
 16623 0337 13       		.uleb128 0x13
 16624 0338 32       		.uleb128 0x32
 16625 0339 0B       		.uleb128 0xb
 16626 033a 3C       		.uleb128 0x3c
 16627 033b 19       		.uleb128 0x19
 16628 033c 01       		.uleb128 0x1
 16629 033d 13       		.uleb128 0x13
 16630 033e 00       		.byte	0
 16631 033f 00       		.byte	0
 16632 0340 39       		.uleb128 0x39
 16633 0341 2E       		.uleb128 0x2e
 16634 0342 00       		.byte	0
 16635 0343 3F       		.uleb128 0x3f
 16636 0344 19       		.uleb128 0x19
 16637 0345 03       		.uleb128 0x3
 16638 0346 08       		.uleb128 0x8
 16639 0347 3A       		.uleb128 0x3a
 16640 0348 0B       		.uleb128 0xb
ARM GAS  /tmp/cc5OZvFd.s 			page 293


 16641 0349 3B       		.uleb128 0x3b
 16642 034a 0B       		.uleb128 0xb
 16643 034b 6E       		.uleb128 0x6e
 16644 034c 0E       		.uleb128 0xe
 16645 034d 49       		.uleb128 0x49
 16646 034e 13       		.uleb128 0x13
 16647 034f 32       		.uleb128 0x32
 16648 0350 0B       		.uleb128 0xb
 16649 0351 3C       		.uleb128 0x3c
 16650 0352 19       		.uleb128 0x19
 16651 0353 00       		.byte	0
 16652 0354 00       		.byte	0
 16653 0355 3A       		.uleb128 0x3a
 16654 0356 2F       		.uleb128 0x2f
 16655 0357 00       		.byte	0
 16656 0358 03       		.uleb128 0x3
 16657 0359 08       		.uleb128 0x8
 16658 035a 49       		.uleb128 0x49
 16659 035b 13       		.uleb128 0x13
 16660 035c 00       		.byte	0
 16661 035d 00       		.byte	0
 16662 035e 3B       		.uleb128 0x3b
 16663 035f 17       		.uleb128 0x17
 16664 0360 01       		.byte	0x1
 16665 0361 03       		.uleb128 0x3
 16666 0362 0E       		.uleb128 0xe
 16667 0363 0B       		.uleb128 0xb
 16668 0364 0B       		.uleb128 0xb
 16669 0365 3A       		.uleb128 0x3a
 16670 0366 0B       		.uleb128 0xb
 16671 0367 3B       		.uleb128 0x3b
 16672 0368 0B       		.uleb128 0xb
 16673 0369 01       		.uleb128 0x1
 16674 036a 13       		.uleb128 0x13
 16675 036b 00       		.byte	0
 16676 036c 00       		.byte	0
 16677 036d 3C       		.uleb128 0x3c
 16678 036e 0D       		.uleb128 0xd
 16679 036f 00       		.byte	0
 16680 0370 03       		.uleb128 0x3
 16681 0371 0E       		.uleb128 0xe
 16682 0372 3A       		.uleb128 0x3a
 16683 0373 0B       		.uleb128 0xb
 16684 0374 3B       		.uleb128 0x3b
 16685 0375 0B       		.uleb128 0xb
 16686 0376 49       		.uleb128 0x49
 16687 0377 13       		.uleb128 0x13
 16688 0378 0B       		.uleb128 0xb
 16689 0379 0B       		.uleb128 0xb
 16690 037a 0D       		.uleb128 0xd
 16691 037b 0B       		.uleb128 0xb
 16692 037c 0C       		.uleb128 0xc
 16693 037d 0B       		.uleb128 0xb
 16694 037e 38       		.uleb128 0x38
 16695 037f 0B       		.uleb128 0xb
 16696 0380 00       		.byte	0
 16697 0381 00       		.byte	0
ARM GAS  /tmp/cc5OZvFd.s 			page 294


 16698 0382 3D       		.uleb128 0x3d
 16699 0383 0D       		.uleb128 0xd
 16700 0384 00       		.byte	0
 16701 0385 49       		.uleb128 0x49
 16702 0386 13       		.uleb128 0x13
 16703 0387 00       		.byte	0
 16704 0388 00       		.byte	0
 16705 0389 3E       		.uleb128 0x3e
 16706 038a 2E       		.uleb128 0x2e
 16707 038b 01       		.byte	0x1
 16708 038c 3F       		.uleb128 0x3f
 16709 038d 19       		.uleb128 0x19
 16710 038e 03       		.uleb128 0x3
 16711 038f 0E       		.uleb128 0xe
 16712 0390 3A       		.uleb128 0x3a
 16713 0391 0B       		.uleb128 0xb
 16714 0392 3B       		.uleb128 0x3b
 16715 0393 0B       		.uleb128 0xb
 16716 0394 6E       		.uleb128 0x6e
 16717 0395 0E       		.uleb128 0xe
 16718 0396 49       		.uleb128 0x49
 16719 0397 13       		.uleb128 0x13
 16720 0398 3C       		.uleb128 0x3c
 16721 0399 19       		.uleb128 0x19
 16722 039a 01       		.uleb128 0x1
 16723 039b 13       		.uleb128 0x13
 16724 039c 00       		.byte	0
 16725 039d 00       		.byte	0
 16726 039e 3F       		.uleb128 0x3f
 16727 039f 2E       		.uleb128 0x2e
 16728 03a0 01       		.byte	0x1
 16729 03a1 3F       		.uleb128 0x3f
 16730 03a2 19       		.uleb128 0x19
 16731 03a3 03       		.uleb128 0x3
 16732 03a4 0E       		.uleb128 0xe
 16733 03a5 3A       		.uleb128 0x3a
 16734 03a6 0B       		.uleb128 0xb
 16735 03a7 3B       		.uleb128 0x3b
 16736 03a8 0B       		.uleb128 0xb
 16737 03a9 6E       		.uleb128 0x6e
 16738 03aa 0E       		.uleb128 0xe
 16739 03ab 49       		.uleb128 0x49
 16740 03ac 13       		.uleb128 0x13
 16741 03ad 3C       		.uleb128 0x3c
 16742 03ae 19       		.uleb128 0x19
 16743 03af 64       		.uleb128 0x64
 16744 03b0 13       		.uleb128 0x13
 16745 03b1 01       		.uleb128 0x1
 16746 03b2 13       		.uleb128 0x13
 16747 03b3 00       		.byte	0
 16748 03b4 00       		.byte	0
 16749 03b5 40       		.uleb128 0x40
 16750 03b6 02       		.uleb128 0x2
 16751 03b7 01       		.byte	0x1
 16752 03b8 03       		.uleb128 0x3
 16753 03b9 0E       		.uleb128 0xe
 16754 03ba 0B       		.uleb128 0xb
ARM GAS  /tmp/cc5OZvFd.s 			page 295


 16755 03bb 0B       		.uleb128 0xb
 16756 03bc 3A       		.uleb128 0x3a
 16757 03bd 0B       		.uleb128 0xb
 16758 03be 3B       		.uleb128 0x3b
 16759 03bf 0B       		.uleb128 0xb
 16760 03c0 32       		.uleb128 0x32
 16761 03c1 0B       		.uleb128 0xb
 16762 03c2 01       		.uleb128 0x1
 16763 03c3 13       		.uleb128 0x13
 16764 03c4 00       		.byte	0
 16765 03c5 00       		.byte	0
 16766 03c6 41       		.uleb128 0x41
 16767 03c7 2E       		.uleb128 0x2e
 16768 03c8 01       		.byte	0x1
 16769 03c9 3F       		.uleb128 0x3f
 16770 03ca 19       		.uleb128 0x19
 16771 03cb 03       		.uleb128 0x3
 16772 03cc 0E       		.uleb128 0xe
 16773 03cd 3A       		.uleb128 0x3a
 16774 03ce 0B       		.uleb128 0xb
 16775 03cf 3B       		.uleb128 0x3b
 16776 03d0 0B       		.uleb128 0xb
 16777 03d1 6E       		.uleb128 0x6e
 16778 03d2 0E       		.uleb128 0xe
 16779 03d3 49       		.uleb128 0x49
 16780 03d4 13       		.uleb128 0x13
 16781 03d5 32       		.uleb128 0x32
 16782 03d6 0B       		.uleb128 0xb
 16783 03d7 3C       		.uleb128 0x3c
 16784 03d8 19       		.uleb128 0x19
 16785 03d9 64       		.uleb128 0x64
 16786 03da 13       		.uleb128 0x13
 16787 03db 00       		.byte	0
 16788 03dc 00       		.byte	0
 16789 03dd 42       		.uleb128 0x42
 16790 03de 0D       		.uleb128 0xd
 16791 03df 00       		.byte	0
 16792 03e0 03       		.uleb128 0x3
 16793 03e1 0E       		.uleb128 0xe
 16794 03e2 3A       		.uleb128 0x3a
 16795 03e3 0B       		.uleb128 0xb
 16796 03e4 3B       		.uleb128 0x3b
 16797 03e5 0B       		.uleb128 0xb
 16798 03e6 49       		.uleb128 0x49
 16799 03e7 13       		.uleb128 0x13
 16800 03e8 3F       		.uleb128 0x3f
 16801 03e9 19       		.uleb128 0x19
 16802 03ea 3C       		.uleb128 0x3c
 16803 03eb 19       		.uleb128 0x19
 16804 03ec 00       		.byte	0
 16805 03ed 00       		.byte	0
 16806 03ee 43       		.uleb128 0x43
 16807 03ef 2E       		.uleb128 0x2e
 16808 03f0 01       		.byte	0x1
 16809 03f1 3F       		.uleb128 0x3f
 16810 03f2 19       		.uleb128 0x19
 16811 03f3 03       		.uleb128 0x3
ARM GAS  /tmp/cc5OZvFd.s 			page 296


 16812 03f4 0E       		.uleb128 0xe
 16813 03f5 3A       		.uleb128 0x3a
 16814 03f6 0B       		.uleb128 0xb
 16815 03f7 3B       		.uleb128 0x3b
 16816 03f8 0B       		.uleb128 0xb
 16817 03f9 6E       		.uleb128 0x6e
 16818 03fa 0E       		.uleb128 0xe
 16819 03fb 3C       		.uleb128 0x3c
 16820 03fc 19       		.uleb128 0x19
 16821 03fd 64       		.uleb128 0x64
 16822 03fe 13       		.uleb128 0x13
 16823 03ff 01       		.uleb128 0x1
 16824 0400 13       		.uleb128 0x13
 16825 0401 00       		.byte	0
 16826 0402 00       		.byte	0
 16827 0403 44       		.uleb128 0x44
 16828 0404 2E       		.uleb128 0x2e
 16829 0405 00       		.byte	0
 16830 0406 3F       		.uleb128 0x3f
 16831 0407 19       		.uleb128 0x19
 16832 0408 03       		.uleb128 0x3
 16833 0409 0E       		.uleb128 0xe
 16834 040a 3A       		.uleb128 0x3a
 16835 040b 0B       		.uleb128 0xb
 16836 040c 3B       		.uleb128 0x3b
 16837 040d 0B       		.uleb128 0xb
 16838 040e 6E       		.uleb128 0x6e
 16839 040f 0E       		.uleb128 0xe
 16840 0410 49       		.uleb128 0x49
 16841 0411 13       		.uleb128 0x13
 16842 0412 3C       		.uleb128 0x3c
 16843 0413 19       		.uleb128 0x19
 16844 0414 00       		.byte	0
 16845 0415 00       		.byte	0
 16846 0416 45       		.uleb128 0x45
 16847 0417 2E       		.uleb128 0x2e
 16848 0418 00       		.byte	0
 16849 0419 3F       		.uleb128 0x3f
 16850 041a 19       		.uleb128 0x19
 16851 041b 03       		.uleb128 0x3
 16852 041c 08       		.uleb128 0x8
 16853 041d 3A       		.uleb128 0x3a
 16854 041e 0B       		.uleb128 0xb
 16855 041f 3B       		.uleb128 0x3b
 16856 0420 0B       		.uleb128 0xb
 16857 0421 6E       		.uleb128 0x6e
 16858 0422 0E       		.uleb128 0xe
 16859 0423 49       		.uleb128 0x49
 16860 0424 13       		.uleb128 0x13
 16861 0425 3C       		.uleb128 0x3c
 16862 0426 19       		.uleb128 0x19
 16863 0427 00       		.byte	0
 16864 0428 00       		.byte	0
 16865 0429 46       		.uleb128 0x46
 16866 042a 02       		.uleb128 0x2
 16867 042b 01       		.byte	0x1
 16868 042c 03       		.uleb128 0x3
ARM GAS  /tmp/cc5OZvFd.s 			page 297


 16869 042d 0E       		.uleb128 0xe
 16870 042e 3C       		.uleb128 0x3c
 16871 042f 19       		.uleb128 0x19
 16872 0430 01       		.uleb128 0x1
 16873 0431 13       		.uleb128 0x13
 16874 0432 00       		.byte	0
 16875 0433 00       		.byte	0
 16876 0434 47       		.uleb128 0x47
 16877 0435 2E       		.uleb128 0x2e
 16878 0436 01       		.byte	0x1
 16879 0437 3F       		.uleb128 0x3f
 16880 0438 19       		.uleb128 0x19
 16881 0439 03       		.uleb128 0x3
 16882 043a 0E       		.uleb128 0xe
 16883 043b 3A       		.uleb128 0x3a
 16884 043c 0B       		.uleb128 0xb
 16885 043d 3B       		.uleb128 0x3b
 16886 043e 0B       		.uleb128 0xb
 16887 043f 49       		.uleb128 0x49
 16888 0440 13       		.uleb128 0x13
 16889 0441 3C       		.uleb128 0x3c
 16890 0442 19       		.uleb128 0x19
 16891 0443 64       		.uleb128 0x64
 16892 0444 13       		.uleb128 0x13
 16893 0445 00       		.byte	0
 16894 0446 00       		.byte	0
 16895 0447 48       		.uleb128 0x48
 16896 0448 0D       		.uleb128 0xd
 16897 0449 00       		.byte	0
 16898 044a 03       		.uleb128 0x3
 16899 044b 0E       		.uleb128 0xe
 16900 044c 3A       		.uleb128 0x3a
 16901 044d 0B       		.uleb128 0xb
 16902 044e 3B       		.uleb128 0x3b
 16903 044f 05       		.uleb128 0x5
 16904 0450 49       		.uleb128 0x49
 16905 0451 13       		.uleb128 0x13
 16906 0452 38       		.uleb128 0x38
 16907 0453 0B       		.uleb128 0xb
 16908 0454 00       		.byte	0
 16909 0455 00       		.byte	0
 16910 0456 49       		.uleb128 0x49
 16911 0457 02       		.uleb128 0x2
 16912 0458 00       		.byte	0
 16913 0459 03       		.uleb128 0x3
 16914 045a 0E       		.uleb128 0xe
 16915 045b 3C       		.uleb128 0x3c
 16916 045c 19       		.uleb128 0x19
 16917 045d 00       		.byte	0
 16918 045e 00       		.byte	0
 16919 045f 4A       		.uleb128 0x4a
 16920 0460 16       		.uleb128 0x16
 16921 0461 00       		.byte	0
 16922 0462 03       		.uleb128 0x3
 16923 0463 0E       		.uleb128 0xe
 16924 0464 3A       		.uleb128 0x3a
 16925 0465 0B       		.uleb128 0xb
ARM GAS  /tmp/cc5OZvFd.s 			page 298


 16926 0466 3B       		.uleb128 0x3b
 16927 0467 05       		.uleb128 0x5
 16928 0468 49       		.uleb128 0x49
 16929 0469 13       		.uleb128 0x13
 16930 046a 00       		.byte	0
 16931 046b 00       		.byte	0
 16932 046c 4B       		.uleb128 0x4b
 16933 046d 2E       		.uleb128 0x2e
 16934 046e 01       		.byte	0x1
 16935 046f 3F       		.uleb128 0x3f
 16936 0470 19       		.uleb128 0x19
 16937 0471 03       		.uleb128 0x3
 16938 0472 0E       		.uleb128 0xe
 16939 0473 3A       		.uleb128 0x3a
 16940 0474 0B       		.uleb128 0xb
 16941 0475 3B       		.uleb128 0x3b
 16942 0476 05       		.uleb128 0x5
 16943 0477 6E       		.uleb128 0x6e
 16944 0478 0E       		.uleb128 0xe
 16945 0479 49       		.uleb128 0x49
 16946 047a 13       		.uleb128 0x13
 16947 047b 32       		.uleb128 0x32
 16948 047c 0B       		.uleb128 0xb
 16949 047d 3C       		.uleb128 0x3c
 16950 047e 19       		.uleb128 0x19
 16951 047f 64       		.uleb128 0x64
 16952 0480 13       		.uleb128 0x13
 16953 0481 01       		.uleb128 0x1
 16954 0482 13       		.uleb128 0x13
 16955 0483 00       		.byte	0
 16956 0484 00       		.byte	0
 16957 0485 4C       		.uleb128 0x4c
 16958 0486 2E       		.uleb128 0x2e
 16959 0487 01       		.byte	0x1
 16960 0488 3F       		.uleb128 0x3f
 16961 0489 19       		.uleb128 0x19
 16962 048a 03       		.uleb128 0x3
 16963 048b 0E       		.uleb128 0xe
 16964 048c 3A       		.uleb128 0x3a
 16965 048d 0B       		.uleb128 0xb
 16966 048e 3B       		.uleb128 0x3b
 16967 048f 05       		.uleb128 0x5
 16968 0490 6E       		.uleb128 0x6e
 16969 0491 0E       		.uleb128 0xe
 16970 0492 32       		.uleb128 0x32
 16971 0493 0B       		.uleb128 0xb
 16972 0494 3C       		.uleb128 0x3c
 16973 0495 19       		.uleb128 0x19
 16974 0496 64       		.uleb128 0x64
 16975 0497 13       		.uleb128 0x13
 16976 0498 01       		.uleb128 0x1
 16977 0499 13       		.uleb128 0x13
 16978 049a 00       		.byte	0
 16979 049b 00       		.byte	0
 16980 049c 4D       		.uleb128 0x4d
 16981 049d 2E       		.uleb128 0x2e
 16982 049e 01       		.byte	0x1
ARM GAS  /tmp/cc5OZvFd.s 			page 299


 16983 049f 3F       		.uleb128 0x3f
 16984 04a0 19       		.uleb128 0x19
 16985 04a1 03       		.uleb128 0x3
 16986 04a2 08       		.uleb128 0x8
 16987 04a3 3A       		.uleb128 0x3a
 16988 04a4 0B       		.uleb128 0xb
 16989 04a5 3B       		.uleb128 0x3b
 16990 04a6 05       		.uleb128 0x5
 16991 04a7 6E       		.uleb128 0x6e
 16992 04a8 0E       		.uleb128 0xe
 16993 04a9 49       		.uleb128 0x49
 16994 04aa 13       		.uleb128 0x13
 16995 04ab 32       		.uleb128 0x32
 16996 04ac 0B       		.uleb128 0xb
 16997 04ad 3C       		.uleb128 0x3c
 16998 04ae 19       		.uleb128 0x19
 16999 04af 64       		.uleb128 0x64
 17000 04b0 13       		.uleb128 0x13
 17001 04b1 01       		.uleb128 0x1
 17002 04b2 13       		.uleb128 0x13
 17003 04b3 00       		.byte	0
 17004 04b4 00       		.byte	0
 17005 04b5 4E       		.uleb128 0x4e
 17006 04b6 2E       		.uleb128 0x2e
 17007 04b7 01       		.byte	0x1
 17008 04b8 3F       		.uleb128 0x3f
 17009 04b9 19       		.uleb128 0x19
 17010 04ba 03       		.uleb128 0x3
 17011 04bb 0E       		.uleb128 0xe
 17012 04bc 3A       		.uleb128 0x3a
 17013 04bd 0B       		.uleb128 0xb
 17014 04be 3B       		.uleb128 0x3b
 17015 04bf 05       		.uleb128 0x5
 17016 04c0 49       		.uleb128 0x49
 17017 04c1 13       		.uleb128 0x13
 17018 04c2 32       		.uleb128 0x32
 17019 04c3 0B       		.uleb128 0xb
 17020 04c4 3C       		.uleb128 0x3c
 17021 04c5 19       		.uleb128 0x19
 17022 04c6 64       		.uleb128 0x64
 17023 04c7 13       		.uleb128 0x13
 17024 04c8 01       		.uleb128 0x1
 17025 04c9 13       		.uleb128 0x13
 17026 04ca 00       		.byte	0
 17027 04cb 00       		.byte	0
 17028 04cc 4F       		.uleb128 0x4f
 17029 04cd 2E       		.uleb128 0x2e
 17030 04ce 01       		.byte	0x1
 17031 04cf 3F       		.uleb128 0x3f
 17032 04d0 19       		.uleb128 0x19
 17033 04d1 03       		.uleb128 0x3
 17034 04d2 0E       		.uleb128 0xe
 17035 04d3 3A       		.uleb128 0x3a
 17036 04d4 0B       		.uleb128 0xb
 17037 04d5 3B       		.uleb128 0x3b
 17038 04d6 0B       		.uleb128 0xb
 17039 04d7 3C       		.uleb128 0x3c
ARM GAS  /tmp/cc5OZvFd.s 			page 300


 17040 04d8 19       		.uleb128 0x19
 17041 04d9 01       		.uleb128 0x1
 17042 04da 13       		.uleb128 0x13
 17043 04db 00       		.byte	0
 17044 04dc 00       		.byte	0
 17045 04dd 50       		.uleb128 0x50
 17046 04de 2E       		.uleb128 0x2e
 17047 04df 01       		.byte	0x1
 17048 04e0 3F       		.uleb128 0x3f
 17049 04e1 19       		.uleb128 0x19
 17050 04e2 03       		.uleb128 0x3
 17051 04e3 0E       		.uleb128 0xe
 17052 04e4 3A       		.uleb128 0x3a
 17053 04e5 0B       		.uleb128 0xb
 17054 04e6 3B       		.uleb128 0x3b
 17055 04e7 0B       		.uleb128 0xb
 17056 04e8 6E       		.uleb128 0x6e
 17057 04e9 0E       		.uleb128 0xe
 17058 04ea 49       		.uleb128 0x49
 17059 04eb 13       		.uleb128 0x13
 17060 04ec 3C       		.uleb128 0x3c
 17061 04ed 19       		.uleb128 0x19
 17062 04ee 00       		.byte	0
 17063 04ef 00       		.byte	0
 17064 04f0 51       		.uleb128 0x51
 17065 04f1 10       		.uleb128 0x10
 17066 04f2 00       		.byte	0
 17067 04f3 0B       		.uleb128 0xb
 17068 04f4 0B       		.uleb128 0xb
 17069 04f5 49       		.uleb128 0x49
 17070 04f6 13       		.uleb128 0x13
 17071 04f7 00       		.byte	0
 17072 04f8 00       		.byte	0
 17073 04f9 52       		.uleb128 0x52
 17074 04fa 0D       		.uleb128 0xd
 17075 04fb 00       		.byte	0
 17076 04fc 03       		.uleb128 0x3
 17077 04fd 08       		.uleb128 0x8
 17078 04fe 3A       		.uleb128 0x3a
 17079 04ff 0B       		.uleb128 0xb
 17080 0500 3B       		.uleb128 0x3b
 17081 0501 0B       		.uleb128 0xb
 17082 0502 49       		.uleb128 0x49
 17083 0503 13       		.uleb128 0x13
 17084 0504 38       		.uleb128 0x38
 17085 0505 0B       		.uleb128 0xb
 17086 0506 00       		.byte	0
 17087 0507 00       		.byte	0
 17088 0508 53       		.uleb128 0x53
 17089 0509 13       		.uleb128 0x13
 17090 050a 01       		.byte	0x1
 17091 050b 0B       		.uleb128 0xb
 17092 050c 0B       		.uleb128 0xb
 17093 050d 3A       		.uleb128 0x3a
 17094 050e 0B       		.uleb128 0xb
 17095 050f 3B       		.uleb128 0x3b
 17096 0510 0B       		.uleb128 0xb
ARM GAS  /tmp/cc5OZvFd.s 			page 301


 17097 0511 6E       		.uleb128 0x6e
 17098 0512 0E       		.uleb128 0xe
 17099 0513 01       		.uleb128 0x1
 17100 0514 13       		.uleb128 0x13
 17101 0515 00       		.byte	0
 17102 0516 00       		.byte	0
 17103 0517 54       		.uleb128 0x54
 17104 0518 13       		.uleb128 0x13
 17105 0519 01       		.byte	0x1
 17106 051a 03       		.uleb128 0x3
 17107 051b 0E       		.uleb128 0xe
 17108 051c 0B       		.uleb128 0xb
 17109 051d 0B       		.uleb128 0xb
 17110 051e 3A       		.uleb128 0x3a
 17111 051f 0B       		.uleb128 0xb
 17112 0520 3B       		.uleb128 0x3b
 17113 0521 05       		.uleb128 0x5
 17114 0522 01       		.uleb128 0x1
 17115 0523 13       		.uleb128 0x13
 17116 0524 00       		.byte	0
 17117 0525 00       		.byte	0
 17118 0526 55       		.uleb128 0x55
 17119 0527 0D       		.uleb128 0xd
 17120 0528 00       		.byte	0
 17121 0529 03       		.uleb128 0x3
 17122 052a 08       		.uleb128 0x8
 17123 052b 3A       		.uleb128 0x3a
 17124 052c 0B       		.uleb128 0xb
 17125 052d 3B       		.uleb128 0x3b
 17126 052e 05       		.uleb128 0x5
 17127 052f 49       		.uleb128 0x49
 17128 0530 13       		.uleb128 0x13
 17129 0531 38       		.uleb128 0x38
 17130 0532 0B       		.uleb128 0xb
 17131 0533 00       		.byte	0
 17132 0534 00       		.byte	0
 17133 0535 56       		.uleb128 0x56
 17134 0536 15       		.uleb128 0x15
 17135 0537 01       		.byte	0x1
 17136 0538 49       		.uleb128 0x49
 17137 0539 13       		.uleb128 0x13
 17138 053a 01       		.uleb128 0x1
 17139 053b 13       		.uleb128 0x13
 17140 053c 00       		.byte	0
 17141 053d 00       		.byte	0
 17142 053e 57       		.uleb128 0x57
 17143 053f 26       		.uleb128 0x26
 17144 0540 00       		.byte	0
 17145 0541 00       		.byte	0
 17146 0542 00       		.byte	0
 17147 0543 58       		.uleb128 0x58
 17148 0544 2E       		.uleb128 0x2e
 17149 0545 01       		.byte	0x1
 17150 0546 47       		.uleb128 0x47
 17151 0547 13       		.uleb128 0x13
 17152 0548 20       		.uleb128 0x20
 17153 0549 0B       		.uleb128 0xb
ARM GAS  /tmp/cc5OZvFd.s 			page 302


 17154 054a 01       		.uleb128 0x1
 17155 054b 13       		.uleb128 0x13
 17156 054c 00       		.byte	0
 17157 054d 00       		.byte	0
 17158 054e 59       		.uleb128 0x59
 17159 054f 0B       		.uleb128 0xb
 17160 0550 01       		.byte	0x1
 17161 0551 00       		.byte	0
 17162 0552 00       		.byte	0
 17163 0553 5A       		.uleb128 0x5a
 17164 0554 34       		.uleb128 0x34
 17165 0555 00       		.byte	0
 17166 0556 03       		.uleb128 0x3
 17167 0557 08       		.uleb128 0x8
 17168 0558 3A       		.uleb128 0x3a
 17169 0559 0B       		.uleb128 0xb
 17170 055a 3B       		.uleb128 0x3b
 17171 055b 0B       		.uleb128 0xb
 17172 055c 49       		.uleb128 0x49
 17173 055d 13       		.uleb128 0x13
 17174 055e 00       		.byte	0
 17175 055f 00       		.byte	0
 17176 0560 5B       		.uleb128 0x5b
 17177 0561 2E       		.uleb128 0x2e
 17178 0562 01       		.byte	0x1
 17179 0563 47       		.uleb128 0x47
 17180 0564 13       		.uleb128 0x13
 17181 0565 20       		.uleb128 0x20
 17182 0566 0B       		.uleb128 0xb
 17183 0567 64       		.uleb128 0x64
 17184 0568 13       		.uleb128 0x13
 17185 0569 01       		.uleb128 0x1
 17186 056a 13       		.uleb128 0x13
 17187 056b 00       		.byte	0
 17188 056c 00       		.byte	0
 17189 056d 5C       		.uleb128 0x5c
 17190 056e 05       		.uleb128 0x5
 17191 056f 00       		.byte	0
 17192 0570 03       		.uleb128 0x3
 17193 0571 0E       		.uleb128 0xe
 17194 0572 49       		.uleb128 0x49
 17195 0573 13       		.uleb128 0x13
 17196 0574 34       		.uleb128 0x34
 17197 0575 19       		.uleb128 0x19
 17198 0576 00       		.byte	0
 17199 0577 00       		.byte	0
 17200 0578 5D       		.uleb128 0x5d
 17201 0579 2E       		.uleb128 0x2e
 17202 057a 01       		.byte	0x1
 17203 057b 31       		.uleb128 0x31
 17204 057c 13       		.uleb128 0x13
 17205 057d 6E       		.uleb128 0x6e
 17206 057e 0E       		.uleb128 0xe
 17207 057f 11       		.uleb128 0x11
 17208 0580 01       		.uleb128 0x1
 17209 0581 12       		.uleb128 0x12
 17210 0582 06       		.uleb128 0x6
ARM GAS  /tmp/cc5OZvFd.s 			page 303


 17211 0583 40       		.uleb128 0x40
 17212 0584 18       		.uleb128 0x18
 17213 0585 64       		.uleb128 0x64
 17214 0586 13       		.uleb128 0x13
 17215 0587 9742     		.uleb128 0x2117
 17216 0589 19       		.uleb128 0x19
 17217 058a 01       		.uleb128 0x1
 17218 058b 13       		.uleb128 0x13
 17219 058c 00       		.byte	0
 17220 058d 00       		.byte	0
 17221 058e 5E       		.uleb128 0x5e
 17222 058f 05       		.uleb128 0x5
 17223 0590 00       		.byte	0
 17224 0591 31       		.uleb128 0x31
 17225 0592 13       		.uleb128 0x13
 17226 0593 02       		.uleb128 0x2
 17227 0594 18       		.uleb128 0x18
 17228 0595 00       		.byte	0
 17229 0596 00       		.byte	0
 17230 0597 5F       		.uleb128 0x5f
 17231 0598 2E       		.uleb128 0x2e
 17232 0599 01       		.byte	0x1
 17233 059a 47       		.uleb128 0x47
 17234 059b 13       		.uleb128 0x13
 17235 059c 3B       		.uleb128 0x3b
 17236 059d 0B       		.uleb128 0xb
 17237 059e 11       		.uleb128 0x11
 17238 059f 01       		.uleb128 0x1
 17239 05a0 12       		.uleb128 0x12
 17240 05a1 06       		.uleb128 0x6
 17241 05a2 40       		.uleb128 0x40
 17242 05a3 18       		.uleb128 0x18
 17243 05a4 9642     		.uleb128 0x2116
 17244 05a6 19       		.uleb128 0x19
 17245 05a7 01       		.uleb128 0x1
 17246 05a8 13       		.uleb128 0x13
 17247 05a9 00       		.byte	0
 17248 05aa 00       		.byte	0
 17249 05ab 60       		.uleb128 0x60
 17250 05ac 0B       		.uleb128 0xb
 17251 05ad 01       		.byte	0x1
 17252 05ae 11       		.uleb128 0x11
 17253 05af 01       		.uleb128 0x1
 17254 05b0 12       		.uleb128 0x12
 17255 05b1 06       		.uleb128 0x6
 17256 05b2 00       		.byte	0
 17257 05b3 00       		.byte	0
 17258 05b4 61       		.uleb128 0x61
 17259 05b5 34       		.uleb128 0x34
 17260 05b6 00       		.byte	0
 17261 05b7 03       		.uleb128 0x3
 17262 05b8 08       		.uleb128 0x8
 17263 05b9 3A       		.uleb128 0x3a
 17264 05ba 0B       		.uleb128 0xb
 17265 05bb 3B       		.uleb128 0x3b
 17266 05bc 0B       		.uleb128 0xb
 17267 05bd 49       		.uleb128 0x49
ARM GAS  /tmp/cc5OZvFd.s 			page 304


 17268 05be 13       		.uleb128 0x13
 17269 05bf 02       		.uleb128 0x2
 17270 05c0 18       		.uleb128 0x18
 17271 05c1 00       		.byte	0
 17272 05c2 00       		.byte	0
 17273 05c3 62       		.uleb128 0x62
 17274 05c4 2E       		.uleb128 0x2e
 17275 05c5 00       		.byte	0
 17276 05c6 47       		.uleb128 0x47
 17277 05c7 13       		.uleb128 0x13
 17278 05c8 3B       		.uleb128 0x3b
 17279 05c9 0B       		.uleb128 0xb
 17280 05ca 11       		.uleb128 0x11
 17281 05cb 01       		.uleb128 0x1
 17282 05cc 12       		.uleb128 0x12
 17283 05cd 06       		.uleb128 0x6
 17284 05ce 40       		.uleb128 0x40
 17285 05cf 18       		.uleb128 0x18
 17286 05d0 9642     		.uleb128 0x2116
 17287 05d2 19       		.uleb128 0x19
 17288 05d3 00       		.byte	0
 17289 05d4 00       		.byte	0
 17290 05d5 63       		.uleb128 0x63
 17291 05d6 2E       		.uleb128 0x2e
 17292 05d7 01       		.byte	0x1
 17293 05d8 47       		.uleb128 0x47
 17294 05d9 13       		.uleb128 0x13
 17295 05da 11       		.uleb128 0x11
 17296 05db 01       		.uleb128 0x1
 17297 05dc 12       		.uleb128 0x12
 17298 05dd 06       		.uleb128 0x6
 17299 05de 40       		.uleb128 0x40
 17300 05df 18       		.uleb128 0x18
 17301 05e0 9742     		.uleb128 0x2117
 17302 05e2 19       		.uleb128 0x19
 17303 05e3 01       		.uleb128 0x1
 17304 05e4 13       		.uleb128 0x13
 17305 05e5 00       		.byte	0
 17306 05e6 00       		.byte	0
 17307 05e7 64       		.uleb128 0x64
 17308 05e8 05       		.uleb128 0x5
 17309 05e9 00       		.byte	0
 17310 05ea 03       		.uleb128 0x3
 17311 05eb 0E       		.uleb128 0xe
 17312 05ec 3A       		.uleb128 0x3a
 17313 05ed 0B       		.uleb128 0xb
 17314 05ee 3B       		.uleb128 0x3b
 17315 05ef 0B       		.uleb128 0xb
 17316 05f0 49       		.uleb128 0x49
 17317 05f1 13       		.uleb128 0x13
 17318 05f2 02       		.uleb128 0x2
 17319 05f3 18       		.uleb128 0x18
 17320 05f4 00       		.byte	0
 17321 05f5 00       		.byte	0
 17322 05f6 65       		.uleb128 0x65
 17323 05f7 2E       		.uleb128 0x2e
 17324 05f8 01       		.byte	0x1
ARM GAS  /tmp/cc5OZvFd.s 			page 305


 17325 05f9 47       		.uleb128 0x47
 17326 05fa 13       		.uleb128 0x13
 17327 05fb 3B       		.uleb128 0x3b
 17328 05fc 0B       		.uleb128 0xb
 17329 05fd 11       		.uleb128 0x11
 17330 05fe 01       		.uleb128 0x1
 17331 05ff 12       		.uleb128 0x12
 17332 0600 06       		.uleb128 0x6
 17333 0601 40       		.uleb128 0x40
 17334 0602 18       		.uleb128 0x18
 17335 0603 9742     		.uleb128 0x2117
 17336 0605 19       		.uleb128 0x19
 17337 0606 01       		.uleb128 0x1
 17338 0607 13       		.uleb128 0x13
 17339 0608 00       		.byte	0
 17340 0609 00       		.byte	0
 17341 060a 66       		.uleb128 0x66
 17342 060b 05       		.uleb128 0x5
 17343 060c 00       		.byte	0
 17344 060d 03       		.uleb128 0x3
 17345 060e 08       		.uleb128 0x8
 17346 060f 3A       		.uleb128 0x3a
 17347 0610 0B       		.uleb128 0xb
 17348 0611 3B       		.uleb128 0x3b
 17349 0612 0B       		.uleb128 0xb
 17350 0613 49       		.uleb128 0x49
 17351 0614 13       		.uleb128 0x13
 17352 0615 02       		.uleb128 0x2
 17353 0616 18       		.uleb128 0x18
 17354 0617 00       		.byte	0
 17355 0618 00       		.byte	0
 17356 0619 67       		.uleb128 0x67
 17357 061a 2E       		.uleb128 0x2e
 17358 061b 00       		.byte	0
 17359 061c 47       		.uleb128 0x47
 17360 061d 13       		.uleb128 0x13
 17361 061e 3B       		.uleb128 0x3b
 17362 061f 0B       		.uleb128 0xb
 17363 0620 11       		.uleb128 0x11
 17364 0621 01       		.uleb128 0x1
 17365 0622 12       		.uleb128 0x12
 17366 0623 06       		.uleb128 0x6
 17367 0624 40       		.uleb128 0x40
 17368 0625 18       		.uleb128 0x18
 17369 0626 9742     		.uleb128 0x2117
 17370 0628 19       		.uleb128 0x19
 17371 0629 00       		.byte	0
 17372 062a 00       		.byte	0
 17373 062b 68       		.uleb128 0x68
 17374 062c 2E       		.uleb128 0x2e
 17375 062d 01       		.byte	0x1
 17376 062e 47       		.uleb128 0x47
 17377 062f 13       		.uleb128 0x13
 17378 0630 3B       		.uleb128 0x3b
 17379 0631 0B       		.uleb128 0xb
 17380 0632 11       		.uleb128 0x11
 17381 0633 01       		.uleb128 0x1
ARM GAS  /tmp/cc5OZvFd.s 			page 306


 17382 0634 12       		.uleb128 0x12
 17383 0635 06       		.uleb128 0x6
 17384 0636 40       		.uleb128 0x40
 17385 0637 18       		.uleb128 0x18
 17386 0638 64       		.uleb128 0x64
 17387 0639 13       		.uleb128 0x13
 17388 063a 9642     		.uleb128 0x2116
 17389 063c 19       		.uleb128 0x19
 17390 063d 01       		.uleb128 0x1
 17391 063e 13       		.uleb128 0x13
 17392 063f 00       		.byte	0
 17393 0640 00       		.byte	0
 17394 0641 69       		.uleb128 0x69
 17395 0642 05       		.uleb128 0x5
 17396 0643 00       		.byte	0
 17397 0644 03       		.uleb128 0x3
 17398 0645 0E       		.uleb128 0xe
 17399 0646 49       		.uleb128 0x49
 17400 0647 13       		.uleb128 0x13
 17401 0648 34       		.uleb128 0x34
 17402 0649 19       		.uleb128 0x19
 17403 064a 02       		.uleb128 0x2
 17404 064b 18       		.uleb128 0x18
 17405 064c 00       		.byte	0
 17406 064d 00       		.byte	0
 17407 064e 6A       		.uleb128 0x6a
 17408 064f 2E       		.uleb128 0x2e
 17409 0650 01       		.byte	0x1
 17410 0651 47       		.uleb128 0x47
 17411 0652 13       		.uleb128 0x13
 17412 0653 3B       		.uleb128 0x3b
 17413 0654 0B       		.uleb128 0xb
 17414 0655 20       		.uleb128 0x20
 17415 0656 0B       		.uleb128 0xb
 17416 0657 64       		.uleb128 0x64
 17417 0658 13       		.uleb128 0x13
 17418 0659 01       		.uleb128 0x1
 17419 065a 13       		.uleb128 0x13
 17420 065b 00       		.byte	0
 17421 065c 00       		.byte	0
 17422 065d 6B       		.uleb128 0x6b
 17423 065e 05       		.uleb128 0x5
 17424 065f 00       		.byte	0
 17425 0660 03       		.uleb128 0x3
 17426 0661 0E       		.uleb128 0xe
 17427 0662 3A       		.uleb128 0x3a
 17428 0663 0B       		.uleb128 0xb
 17429 0664 3B       		.uleb128 0x3b
 17430 0665 0B       		.uleb128 0xb
 17431 0666 49       		.uleb128 0x49
 17432 0667 13       		.uleb128 0x13
 17433 0668 00       		.byte	0
 17434 0669 00       		.byte	0
 17435 066a 6C       		.uleb128 0x6c
 17436 066b 2E       		.uleb128 0x2e
 17437 066c 01       		.byte	0x1
 17438 066d 31       		.uleb128 0x31
ARM GAS  /tmp/cc5OZvFd.s 			page 307


 17439 066e 13       		.uleb128 0x13
 17440 066f 6E       		.uleb128 0x6e
 17441 0670 0E       		.uleb128 0xe
 17442 0671 11       		.uleb128 0x11
 17443 0672 01       		.uleb128 0x1
 17444 0673 12       		.uleb128 0x12
 17445 0674 06       		.uleb128 0x6
 17446 0675 40       		.uleb128 0x40
 17447 0676 18       		.uleb128 0x18
 17448 0677 64       		.uleb128 0x64
 17449 0678 13       		.uleb128 0x13
 17450 0679 9642     		.uleb128 0x2116
 17451 067b 19       		.uleb128 0x19
 17452 067c 01       		.uleb128 0x1
 17453 067d 13       		.uleb128 0x13
 17454 067e 00       		.byte	0
 17455 067f 00       		.byte	0
 17456 0680 6D       		.uleb128 0x6d
 17457 0681 2E       		.uleb128 0x2e
 17458 0682 00       		.byte	0
 17459 0683 47       		.uleb128 0x47
 17460 0684 13       		.uleb128 0x13
 17461 0685 3B       		.uleb128 0x3b
 17462 0686 05       		.uleb128 0x5
 17463 0687 11       		.uleb128 0x11
 17464 0688 01       		.uleb128 0x1
 17465 0689 12       		.uleb128 0x12
 17466 068a 06       		.uleb128 0x6
 17467 068b 40       		.uleb128 0x40
 17468 068c 18       		.uleb128 0x18
 17469 068d 9642     		.uleb128 0x2116
 17470 068f 19       		.uleb128 0x19
 17471 0690 00       		.byte	0
 17472 0691 00       		.byte	0
 17473 0692 6E       		.uleb128 0x6e
 17474 0693 2E       		.uleb128 0x2e
 17475 0694 01       		.byte	0x1
 17476 0695 47       		.uleb128 0x47
 17477 0696 13       		.uleb128 0x13
 17478 0697 3B       		.uleb128 0x3b
 17479 0698 0B       		.uleb128 0xb
 17480 0699 11       		.uleb128 0x11
 17481 069a 01       		.uleb128 0x1
 17482 069b 12       		.uleb128 0x12
 17483 069c 06       		.uleb128 0x6
 17484 069d 40       		.uleb128 0x40
 17485 069e 18       		.uleb128 0x18
 17486 069f 64       		.uleb128 0x64
 17487 06a0 13       		.uleb128 0x13
 17488 06a1 9742     		.uleb128 0x2117
 17489 06a3 19       		.uleb128 0x19
 17490 06a4 01       		.uleb128 0x1
 17491 06a5 13       		.uleb128 0x13
 17492 06a6 00       		.byte	0
 17493 06a7 00       		.byte	0
 17494 06a8 6F       		.uleb128 0x6f
 17495 06a9 34       		.uleb128 0x34
ARM GAS  /tmp/cc5OZvFd.s 			page 308


 17496 06aa 00       		.byte	0
 17497 06ab 03       		.uleb128 0x3
 17498 06ac 0E       		.uleb128 0xe
 17499 06ad 3A       		.uleb128 0x3a
 17500 06ae 0B       		.uleb128 0xb
 17501 06af 3B       		.uleb128 0x3b
 17502 06b0 0B       		.uleb128 0xb
 17503 06b1 49       		.uleb128 0x49
 17504 06b2 13       		.uleb128 0x13
 17505 06b3 02       		.uleb128 0x2
 17506 06b4 18       		.uleb128 0x18
 17507 06b5 00       		.byte	0
 17508 06b6 00       		.byte	0
 17509 06b7 70       		.uleb128 0x70
 17510 06b8 2E       		.uleb128 0x2e
 17511 06b9 01       		.byte	0x1
 17512 06ba 47       		.uleb128 0x47
 17513 06bb 13       		.uleb128 0x13
 17514 06bc 11       		.uleb128 0x11
 17515 06bd 01       		.uleb128 0x1
 17516 06be 12       		.uleb128 0x12
 17517 06bf 06       		.uleb128 0x6
 17518 06c0 40       		.uleb128 0x40
 17519 06c1 18       		.uleb128 0x18
 17520 06c2 9642     		.uleb128 0x2116
 17521 06c4 19       		.uleb128 0x19
 17522 06c5 01       		.uleb128 0x1
 17523 06c6 13       		.uleb128 0x13
 17524 06c7 00       		.byte	0
 17525 06c8 00       		.byte	0
 17526 06c9 71       		.uleb128 0x71
 17527 06ca 2E       		.uleb128 0x2e
 17528 06cb 01       		.byte	0x1
 17529 06cc 47       		.uleb128 0x47
 17530 06cd 13       		.uleb128 0x13
 17531 06ce 11       		.uleb128 0x11
 17532 06cf 01       		.uleb128 0x1
 17533 06d0 12       		.uleb128 0x12
 17534 06d1 06       		.uleb128 0x6
 17535 06d2 40       		.uleb128 0x40
 17536 06d3 18       		.uleb128 0x18
 17537 06d4 64       		.uleb128 0x64
 17538 06d5 13       		.uleb128 0x13
 17539 06d6 9642     		.uleb128 0x2116
 17540 06d8 19       		.uleb128 0x19
 17541 06d9 01       		.uleb128 0x1
 17542 06da 13       		.uleb128 0x13
 17543 06db 00       		.byte	0
 17544 06dc 00       		.byte	0
 17545 06dd 72       		.uleb128 0x72
 17546 06de 05       		.uleb128 0x5
 17547 06df 00       		.byte	0
 17548 06e0 03       		.uleb128 0x3
 17549 06e1 08       		.uleb128 0x8
 17550 06e2 3A       		.uleb128 0x3a
 17551 06e3 0B       		.uleb128 0xb
 17552 06e4 3B       		.uleb128 0x3b
ARM GAS  /tmp/cc5OZvFd.s 			page 309


 17553 06e5 0B       		.uleb128 0xb
 17554 06e6 49       		.uleb128 0x49
 17555 06e7 13       		.uleb128 0x13
 17556 06e8 00       		.byte	0
 17557 06e9 00       		.byte	0
 17558 06ea 73       		.uleb128 0x73
 17559 06eb 2E       		.uleb128 0x2e
 17560 06ec 01       		.byte	0x1
 17561 06ed 47       		.uleb128 0x47
 17562 06ee 13       		.uleb128 0x13
 17563 06ef 11       		.uleb128 0x11
 17564 06f0 01       		.uleb128 0x1
 17565 06f1 12       		.uleb128 0x12
 17566 06f2 06       		.uleb128 0x6
 17567 06f3 40       		.uleb128 0x40
 17568 06f4 18       		.uleb128 0x18
 17569 06f5 64       		.uleb128 0x64
 17570 06f6 13       		.uleb128 0x13
 17571 06f7 9742     		.uleb128 0x2117
 17572 06f9 19       		.uleb128 0x19
 17573 06fa 01       		.uleb128 0x1
 17574 06fb 13       		.uleb128 0x13
 17575 06fc 00       		.byte	0
 17576 06fd 00       		.byte	0
 17577 06fe 74       		.uleb128 0x74
 17578 06ff 2E       		.uleb128 0x2e
 17579 0700 01       		.byte	0x1
 17580 0701 47       		.uleb128 0x47
 17581 0702 13       		.uleb128 0x13
 17582 0703 3B       		.uleb128 0x3b
 17583 0704 05       		.uleb128 0x5
 17584 0705 11       		.uleb128 0x11
 17585 0706 01       		.uleb128 0x1
 17586 0707 12       		.uleb128 0x12
 17587 0708 06       		.uleb128 0x6
 17588 0709 40       		.uleb128 0x40
 17589 070a 18       		.uleb128 0x18
 17590 070b 64       		.uleb128 0x64
 17591 070c 13       		.uleb128 0x13
 17592 070d 9642     		.uleb128 0x2116
 17593 070f 19       		.uleb128 0x19
 17594 0710 01       		.uleb128 0x1
 17595 0711 13       		.uleb128 0x13
 17596 0712 00       		.byte	0
 17597 0713 00       		.byte	0
 17598 0714 75       		.uleb128 0x75
 17599 0715 34       		.uleb128 0x34
 17600 0716 00       		.byte	0
 17601 0717 03       		.uleb128 0x3
 17602 0718 0E       		.uleb128 0xe
 17603 0719 3A       		.uleb128 0x3a
 17604 071a 0B       		.uleb128 0xb
 17605 071b 3B       		.uleb128 0x3b
 17606 071c 05       		.uleb128 0x5
 17607 071d 49       		.uleb128 0x49
 17608 071e 13       		.uleb128 0x13
 17609 071f 02       		.uleb128 0x2
ARM GAS  /tmp/cc5OZvFd.s 			page 310


 17610 0720 18       		.uleb128 0x18
 17611 0721 00       		.byte	0
 17612 0722 00       		.byte	0
 17613 0723 76       		.uleb128 0x76
 17614 0724 05       		.uleb128 0x5
 17615 0725 00       		.byte	0
 17616 0726 03       		.uleb128 0x3
 17617 0727 0E       		.uleb128 0xe
 17618 0728 3A       		.uleb128 0x3a
 17619 0729 0B       		.uleb128 0xb
 17620 072a 3B       		.uleb128 0x3b
 17621 072b 05       		.uleb128 0x5
 17622 072c 49       		.uleb128 0x49
 17623 072d 13       		.uleb128 0x13
 17624 072e 02       		.uleb128 0x2
 17625 072f 18       		.uleb128 0x18
 17626 0730 00       		.byte	0
 17627 0731 00       		.byte	0
 17628 0732 77       		.uleb128 0x77
 17629 0733 2E       		.uleb128 0x2e
 17630 0734 01       		.byte	0x1
 17631 0735 47       		.uleb128 0x47
 17632 0736 13       		.uleb128 0x13
 17633 0737 3A       		.uleb128 0x3a
 17634 0738 0B       		.uleb128 0xb
 17635 0739 3B       		.uleb128 0x3b
 17636 073a 0B       		.uleb128 0xb
 17637 073b 11       		.uleb128 0x11
 17638 073c 01       		.uleb128 0x1
 17639 073d 12       		.uleb128 0x12
 17640 073e 06       		.uleb128 0x6
 17641 073f 40       		.uleb128 0x40
 17642 0740 18       		.uleb128 0x18
 17643 0741 64       		.uleb128 0x64
 17644 0742 13       		.uleb128 0x13
 17645 0743 9642     		.uleb128 0x2116
 17646 0745 19       		.uleb128 0x19
 17647 0746 01       		.uleb128 0x1
 17648 0747 13       		.uleb128 0x13
 17649 0748 00       		.byte	0
 17650 0749 00       		.byte	0
 17651 074a 78       		.uleb128 0x78
 17652 074b 0B       		.uleb128 0xb
 17653 074c 01       		.byte	0x1
 17654 074d 55       		.uleb128 0x55
 17655 074e 17       		.uleb128 0x17
 17656 074f 00       		.byte	0
 17657 0750 00       		.byte	0
 17658 0751 79       		.uleb128 0x79
 17659 0752 0B       		.uleb128 0xb
 17660 0753 01       		.byte	0x1
 17661 0754 11       		.uleb128 0x11
 17662 0755 01       		.uleb128 0x1
 17663 0756 12       		.uleb128 0x12
 17664 0757 06       		.uleb128 0x6
 17665 0758 01       		.uleb128 0x1
 17666 0759 13       		.uleb128 0x13
ARM GAS  /tmp/cc5OZvFd.s 			page 311


 17667 075a 00       		.byte	0
 17668 075b 00       		.byte	0
 17669 075c 7A       		.uleb128 0x7a
 17670 075d 2E       		.uleb128 0x2e
 17671 075e 01       		.byte	0x1
 17672 075f 47       		.uleb128 0x47
 17673 0760 13       		.uleb128 0x13
 17674 0761 3A       		.uleb128 0x3a
 17675 0762 0B       		.uleb128 0xb
 17676 0763 3B       		.uleb128 0x3b
 17677 0764 05       		.uleb128 0x5
 17678 0765 11       		.uleb128 0x11
 17679 0766 01       		.uleb128 0x1
 17680 0767 12       		.uleb128 0x12
 17681 0768 06       		.uleb128 0x6
 17682 0769 40       		.uleb128 0x40
 17683 076a 18       		.uleb128 0x18
 17684 076b 64       		.uleb128 0x64
 17685 076c 13       		.uleb128 0x13
 17686 076d 9642     		.uleb128 0x2116
 17687 076f 19       		.uleb128 0x19
 17688 0770 01       		.uleb128 0x1
 17689 0771 13       		.uleb128 0x13
 17690 0772 00       		.byte	0
 17691 0773 00       		.byte	0
 17692 0774 7B       		.uleb128 0x7b
 17693 0775 34       		.uleb128 0x34
 17694 0776 00       		.byte	0
 17695 0777 03       		.uleb128 0x3
 17696 0778 08       		.uleb128 0x8
 17697 0779 3A       		.uleb128 0x3a
 17698 077a 0B       		.uleb128 0xb
 17699 077b 3B       		.uleb128 0x3b
 17700 077c 05       		.uleb128 0x5
 17701 077d 49       		.uleb128 0x49
 17702 077e 13       		.uleb128 0x13
 17703 077f 02       		.uleb128 0x2
 17704 0780 18       		.uleb128 0x18
 17705 0781 00       		.byte	0
 17706 0782 00       		.byte	0
 17707 0783 7C       		.uleb128 0x7c
 17708 0784 2E       		.uleb128 0x2e
 17709 0785 01       		.byte	0x1
 17710 0786 47       		.uleb128 0x47
 17711 0787 13       		.uleb128 0x13
 17712 0788 3A       		.uleb128 0x3a
 17713 0789 0B       		.uleb128 0xb
 17714 078a 3B       		.uleb128 0x3b
 17715 078b 05       		.uleb128 0x5
 17716 078c 20       		.uleb128 0x20
 17717 078d 0B       		.uleb128 0xb
 17718 078e 64       		.uleb128 0x64
 17719 078f 13       		.uleb128 0x13
 17720 0790 01       		.uleb128 0x1
 17721 0791 13       		.uleb128 0x13
 17722 0792 00       		.byte	0
 17723 0793 00       		.byte	0
ARM GAS  /tmp/cc5OZvFd.s 			page 312


 17724 0794 7D       		.uleb128 0x7d
 17725 0795 05       		.uleb128 0x5
 17726 0796 00       		.byte	0
 17727 0797 03       		.uleb128 0x3
 17728 0798 0E       		.uleb128 0xe
 17729 0799 3A       		.uleb128 0x3a
 17730 079a 0B       		.uleb128 0xb
 17731 079b 3B       		.uleb128 0x3b
 17732 079c 05       		.uleb128 0x5
 17733 079d 49       		.uleb128 0x49
 17734 079e 13       		.uleb128 0x13
 17735 079f 00       		.byte	0
 17736 07a0 00       		.byte	0
 17737 07a1 7E       		.uleb128 0x7e
 17738 07a2 05       		.uleb128 0x5
 17739 07a3 00       		.byte	0
 17740 07a4 03       		.uleb128 0x3
 17741 07a5 08       		.uleb128 0x8
 17742 07a6 3A       		.uleb128 0x3a
 17743 07a7 0B       		.uleb128 0xb
 17744 07a8 3B       		.uleb128 0x3b
 17745 07a9 05       		.uleb128 0x5
 17746 07aa 49       		.uleb128 0x49
 17747 07ab 13       		.uleb128 0x13
 17748 07ac 00       		.byte	0
 17749 07ad 00       		.byte	0
 17750 07ae 7F       		.uleb128 0x7f
 17751 07af 2E       		.uleb128 0x2e
 17752 07b0 01       		.byte	0x1
 17753 07b1 47       		.uleb128 0x47
 17754 07b2 13       		.uleb128 0x13
 17755 07b3 3A       		.uleb128 0x3a
 17756 07b4 0B       		.uleb128 0xb
 17757 07b5 3B       		.uleb128 0x3b
 17758 07b6 05       		.uleb128 0x5
 17759 07b7 11       		.uleb128 0x11
 17760 07b8 01       		.uleb128 0x1
 17761 07b9 12       		.uleb128 0x12
 17762 07ba 06       		.uleb128 0x6
 17763 07bb 40       		.uleb128 0x40
 17764 07bc 18       		.uleb128 0x18
 17765 07bd 9642     		.uleb128 0x2116
 17766 07bf 19       		.uleb128 0x19
 17767 07c0 01       		.uleb128 0x1
 17768 07c1 13       		.uleb128 0x13
 17769 07c2 00       		.byte	0
 17770 07c3 00       		.byte	0
 17771 07c4 8001     		.uleb128 0x80
 17772 07c6 34       		.uleb128 0x34
 17773 07c7 00       		.byte	0
 17774 07c8 03       		.uleb128 0x3
 17775 07c9 0E       		.uleb128 0xe
 17776 07ca 3A       		.uleb128 0x3a
 17777 07cb 0B       		.uleb128 0xb
 17778 07cc 3B       		.uleb128 0x3b
 17779 07cd 0B       		.uleb128 0xb
 17780 07ce 49       		.uleb128 0x49
ARM GAS  /tmp/cc5OZvFd.s 			page 313


 17781 07cf 13       		.uleb128 0x13
 17782 07d0 3F       		.uleb128 0x3f
 17783 07d1 19       		.uleb128 0x19
 17784 07d2 3C       		.uleb128 0x3c
 17785 07d3 19       		.uleb128 0x19
 17786 07d4 00       		.byte	0
 17787 07d5 00       		.byte	0
 17788 07d6 8101     		.uleb128 0x81
 17789 07d8 21       		.uleb128 0x21
 17790 07d9 00       		.byte	0
 17791 07da 00       		.byte	0
 17792 07db 00       		.byte	0
 17793 07dc 8201     		.uleb128 0x82
 17794 07de 34       		.uleb128 0x34
 17795 07df 00       		.byte	0
 17796 07e0 47       		.uleb128 0x47
 17797 07e1 13       		.uleb128 0x13
 17798 07e2 3A       		.uleb128 0x3a
 17799 07e3 0B       		.uleb128 0xb
 17800 07e4 3B       		.uleb128 0x3b
 17801 07e5 0B       		.uleb128 0xb
 17802 07e6 6E       		.uleb128 0x6e
 17803 07e7 0E       		.uleb128 0xe
 17804 07e8 02       		.uleb128 0x2
 17805 07e9 18       		.uleb128 0x18
 17806 07ea 00       		.byte	0
 17807 07eb 00       		.byte	0
 17808 07ec 00       		.byte	0
 17809              		.section	.debug_aranges,"",%progbits
 17810 0000 4C020000 		.4byte	0x24c
 17811 0004 0200     		.2byte	0x2
 17812 0006 00000000 		.4byte	.Ldebug_info0
 17813 000a 04       		.byte	0x4
 17814 000b 00       		.byte	0
 17815 000c 0000     		.2byte	0
 17816 000e 0000     		.2byte	0
 17817 0010 00000000 		.4byte	.Ltext0
 17818 0014 D6140000 		.4byte	.Letext0-.Ltext0
 17819 0018 00000000 		.4byte	.LFB6
 17820 001c 0C000000 		.4byte	.LFE6-.LFB6
 17821 0020 00000000 		.4byte	.LFB18
 17822 0024 0E000000 		.4byte	.LFE18-.LFB18
 17823 0028 00000000 		.4byte	.LFB19
 17824 002c 0E000000 		.4byte	.LFE19-.LFB19
 17825 0030 00000000 		.4byte	.LFB26
 17826 0034 08000000 		.4byte	.LFE26-.LFB26
 17827 0038 00000000 		.4byte	.LFB27
 17828 003c 08000000 		.4byte	.LFE27-.LFB27
 17829 0040 00000000 		.4byte	.LFB33
 17830 0044 2E000000 		.4byte	.LFE33-.LFB33
 17831 0048 00000000 		.4byte	.LFB36
 17832 004c 1A000000 		.4byte	.LFE36-.LFB36
 17833 0050 00000000 		.4byte	.LFB37
 17834 0054 2C000000 		.4byte	.LFE37-.LFB37
 17835 0058 00000000 		.4byte	.LFB40
 17836 005c 10000000 		.4byte	.LFE40-.LFB40
 17837 0060 00000000 		.4byte	.LFB41
ARM GAS  /tmp/cc5OZvFd.s 			page 314


 17838 0064 1A000000 		.4byte	.LFE41-.LFB41
 17839 0068 00000000 		.4byte	.LFB42
 17840 006c 18000000 		.4byte	.LFE42-.LFB42
 17841 0070 00000000 		.4byte	.LFB43
 17842 0074 14000000 		.4byte	.LFE43-.LFB43
 17843 0078 00000000 		.4byte	.LFB45
 17844 007c 0C000000 		.4byte	.LFE45-.LFB45
 17845 0080 00000000 		.4byte	.LFB46
 17846 0084 0C000000 		.4byte	.LFE46-.LFB46
 17847 0088 00000000 		.4byte	.LFB48
 17848 008c 16000000 		.4byte	.LFE48-.LFB48
 17849 0090 00000000 		.4byte	.LFB49
 17850 0094 16000000 		.4byte	.LFE49-.LFB49
 17851 0098 00000000 		.4byte	.LFB51
 17852 009c 16000000 		.4byte	.LFE51-.LFB51
 17853 00a0 00000000 		.4byte	.LFB52
 17854 00a4 1A000000 		.4byte	.LFE52-.LFB52
 17855 00a8 00000000 		.4byte	.LFB55
 17856 00ac 26000000 		.4byte	.LFE55-.LFB55
 17857 00b0 00000000 		.4byte	.LFB56
 17858 00b4 22000000 		.4byte	.LFE56-.LFB56
 17859 00b8 00000000 		.4byte	.LFB61
 17860 00bc 24000000 		.4byte	.LFE61-.LFB61
 17861 00c0 00000000 		.4byte	.LFB74
 17862 00c4 18000000 		.4byte	.LFE74-.LFB74
 17863 00c8 00000000 		.4byte	.LFB75
 17864 00cc 0C000000 		.4byte	.LFE75-.LFB75
 17865 00d0 00000000 		.4byte	.LFB76
 17866 00d4 0C000000 		.4byte	.LFE76-.LFB76
 17867 00d8 00000000 		.4byte	.LFB77
 17868 00dc 0C000000 		.4byte	.LFE77-.LFB77
 17869 00e0 00000000 		.4byte	.LFB78
 17870 00e4 0C000000 		.4byte	.LFE78-.LFB78
 17871 00e8 00000000 		.4byte	.LFB79
 17872 00ec 1C000000 		.4byte	.LFE79-.LFB79
 17873 00f0 00000000 		.4byte	.LFB88
 17874 00f4 12000000 		.4byte	.LFE88-.LFB88
 17875 00f8 00000000 		.4byte	.LFB92
 17876 00fc 0E000000 		.4byte	.LFE92-.LFB92
 17877 0100 00000000 		.4byte	.LFB99
 17878 0104 18000000 		.4byte	.LFE99-.LFB99
 17879 0108 00000000 		.4byte	.LFB119
 17880 010c 20000000 		.4byte	.LFE119-.LFB119
 17881 0110 00000000 		.4byte	.LFB139
 17882 0114 22000000 		.4byte	.LFE139-.LFB139
 17883 0118 00000000 		.4byte	.LFB155
 17884 011c 34000000 		.4byte	.LFE155-.LFB155
 17885 0120 00000000 		.4byte	.LFB161
 17886 0124 64000000 		.4byte	.LFE161-.LFB161
 17887 0128 00000000 		.4byte	.LFB177
 17888 012c 2A000000 		.4byte	.LFE177-.LFB177
 17889 0130 00000000 		.4byte	.LFB183
 17890 0134 12000000 		.4byte	.LFE183-.LFB183
 17891 0138 00000000 		.4byte	.LFB185
 17892 013c 1A000000 		.4byte	.LFE185-.LFB185
 17893 0140 00000000 		.4byte	.LFB186
 17894 0144 30000000 		.4byte	.LFE186-.LFB186
ARM GAS  /tmp/cc5OZvFd.s 			page 315


 17895 0148 00000000 		.4byte	.LFB187
 17896 014c 30000000 		.4byte	.LFE187-.LFB187
 17897 0150 00000000 		.4byte	.LFB188
 17898 0154 16000000 		.4byte	.LFE188-.LFB188
 17899 0158 00000000 		.4byte	.LFB189
 17900 015c 22000000 		.4byte	.LFE189-.LFB189
 17901 0160 00000000 		.4byte	.LFB190
 17902 0164 22000000 		.4byte	.LFE190-.LFB190
 17903 0168 00000000 		.4byte	.LFB191
 17904 016c 30000000 		.4byte	.LFE191-.LFB191
 17905 0170 00000000 		.4byte	.LFB192
 17906 0174 2A000000 		.4byte	.LFE192-.LFB192
 17907 0178 00000000 		.4byte	.LFB194
 17908 017c 16000000 		.4byte	.LFE194-.LFB194
 17909 0180 00000000 		.4byte	.LFB197
 17910 0184 14000000 		.4byte	.LFE197-.LFB197
 17911 0188 00000000 		.4byte	.LFB200
 17912 018c 0E000000 		.4byte	.LFE200-.LFB200
 17913 0190 00000000 		.4byte	.LFB201
 17914 0194 0E000000 		.4byte	.LFE201-.LFB201
 17915 0198 00000000 		.4byte	.LFB202
 17916 019c 0E000000 		.4byte	.LFE202-.LFB202
 17917 01a0 00000000 		.4byte	.LFB204
 17918 01a4 20000000 		.4byte	.LFE204-.LFB204
 17919 01a8 00000000 		.4byte	.LFB207
 17920 01ac 32000000 		.4byte	.LFE207-.LFB207
 17921 01b0 00000000 		.4byte	.LFB208
 17922 01b4 24000000 		.4byte	.LFE208-.LFB208
 17923 01b8 00000000 		.4byte	.LFB209
 17924 01bc 30000000 		.4byte	.LFE209-.LFB209
 17925 01c0 00000000 		.4byte	.LFB210
 17926 01c4 16000000 		.4byte	.LFE210-.LFB210
 17927 01c8 00000000 		.4byte	.LFB211
 17928 01cc 34000000 		.4byte	.LFE211-.LFB211
 17929 01d0 00000000 		.4byte	.LFB212
 17930 01d4 26000000 		.4byte	.LFE212-.LFB212
 17931 01d8 00000000 		.4byte	.LFB213
 17932 01dc 1C000000 		.4byte	.LFE213-.LFB213
 17933 01e0 00000000 		.4byte	.LFB214
 17934 01e4 1C000000 		.4byte	.LFE214-.LFB214
 17935 01e8 00000000 		.4byte	.LFB215
 17936 01ec 0C000000 		.4byte	.LFE215-.LFB215
 17937 01f0 00000000 		.4byte	.LFB373
 17938 01f4 28000000 		.4byte	.LFE373-.LFB373
 17939 01f8 00000000 		.4byte	.LFB398
 17940 01fc 40000000 		.4byte	.LFE398-.LFB398
 17941 0200 00000000 		.4byte	.LFB399
 17942 0204 2A000000 		.4byte	.LFE399-.LFB399
 17943 0208 00000000 		.4byte	.LFB401
 17944 020c 3C000000 		.4byte	.LFE401-.LFB401
 17945 0210 00000000 		.4byte	.LFB438
 17946 0214 12000000 		.4byte	.LFE438-.LFB438
 17947 0218 00000000 		.4byte	.LFB440
 17948 021c 14000000 		.4byte	.LFE440-.LFB440
 17949 0220 00000000 		.4byte	.LFB453
 17950 0224 1C000000 		.4byte	.LFE453-.LFB453
 17951 0228 00000000 		.4byte	.LFB454
ARM GAS  /tmp/cc5OZvFd.s 			page 316


 17952 022c 1E000000 		.4byte	.LFE454-.LFB454
 17953 0230 00000000 		.4byte	.LFB455
 17954 0234 1C000000 		.4byte	.LFE455-.LFB455
 17955 0238 00000000 		.4byte	.LFB456
 17956 023c 1E000000 		.4byte	.LFE456-.LFB456
 17957 0240 00000000 		.4byte	.LFB458
 17958 0244 0E000000 		.4byte	.LFE458-.LFB458
 17959 0248 00000000 		.4byte	0
 17960 024c 00000000 		.4byte	0
 17961              		.section	.debug_ranges,"",%progbits
 17962              	.Ldebug_ranges0:
 17963 0000 B8030000 		.4byte	.LBB32
 17964 0004 0E040000 		.4byte	.LBE32
 17965 0008 3A040000 		.4byte	.LBB33
 17966 000c 46040000 		.4byte	.LBE33
 17967 0010 00000000 		.4byte	0
 17968 0014 00000000 		.4byte	0
 17969 0018 00000000 		.4byte	.Ltext0
 17970 001c D6140000 		.4byte	.Letext0
 17971 0020 00000000 		.4byte	.LFB6
 17972 0024 0C000000 		.4byte	.LFE6
 17973 0028 00000000 		.4byte	.LFB18
 17974 002c 0E000000 		.4byte	.LFE18
 17975 0030 00000000 		.4byte	.LFB19
 17976 0034 0E000000 		.4byte	.LFE19
 17977 0038 00000000 		.4byte	.LFB26
 17978 003c 08000000 		.4byte	.LFE26
 17979 0040 00000000 		.4byte	.LFB27
 17980 0044 08000000 		.4byte	.LFE27
 17981 0048 00000000 		.4byte	.LFB33
 17982 004c 2E000000 		.4byte	.LFE33
 17983 0050 00000000 		.4byte	.LFB36
 17984 0054 1A000000 		.4byte	.LFE36
 17985 0058 00000000 		.4byte	.LFB37
 17986 005c 2C000000 		.4byte	.LFE37
 17987 0060 00000000 		.4byte	.LFB40
 17988 0064 10000000 		.4byte	.LFE40
 17989 0068 00000000 		.4byte	.LFB41
 17990 006c 1A000000 		.4byte	.LFE41
 17991 0070 00000000 		.4byte	.LFB42
 17992 0074 18000000 		.4byte	.LFE42
 17993 0078 00000000 		.4byte	.LFB43
 17994 007c 14000000 		.4byte	.LFE43
 17995 0080 00000000 		.4byte	.LFB45
 17996 0084 0C000000 		.4byte	.LFE45
 17997 0088 00000000 		.4byte	.LFB46
 17998 008c 0C000000 		.4byte	.LFE46
 17999 0090 00000000 		.4byte	.LFB48
 18000 0094 16000000 		.4byte	.LFE48
 18001 0098 00000000 		.4byte	.LFB49
 18002 009c 16000000 		.4byte	.LFE49
 18003 00a0 00000000 		.4byte	.LFB51
 18004 00a4 16000000 		.4byte	.LFE51
 18005 00a8 00000000 		.4byte	.LFB52
 18006 00ac 1A000000 		.4byte	.LFE52
 18007 00b0 00000000 		.4byte	.LFB55
 18008 00b4 26000000 		.4byte	.LFE55
ARM GAS  /tmp/cc5OZvFd.s 			page 317


 18009 00b8 00000000 		.4byte	.LFB56
 18010 00bc 22000000 		.4byte	.LFE56
 18011 00c0 00000000 		.4byte	.LFB61
 18012 00c4 24000000 		.4byte	.LFE61
 18013 00c8 00000000 		.4byte	.LFB74
 18014 00cc 18000000 		.4byte	.LFE74
 18015 00d0 00000000 		.4byte	.LFB75
 18016 00d4 0C000000 		.4byte	.LFE75
 18017 00d8 00000000 		.4byte	.LFB76
 18018 00dc 0C000000 		.4byte	.LFE76
 18019 00e0 00000000 		.4byte	.LFB77
 18020 00e4 0C000000 		.4byte	.LFE77
 18021 00e8 00000000 		.4byte	.LFB78
 18022 00ec 0C000000 		.4byte	.LFE78
 18023 00f0 00000000 		.4byte	.LFB79
 18024 00f4 1C000000 		.4byte	.LFE79
 18025 00f8 00000000 		.4byte	.LFB88
 18026 00fc 12000000 		.4byte	.LFE88
 18027 0100 00000000 		.4byte	.LFB92
 18028 0104 0E000000 		.4byte	.LFE92
 18029 0108 00000000 		.4byte	.LFB99
 18030 010c 18000000 		.4byte	.LFE99
 18031 0110 00000000 		.4byte	.LFB119
 18032 0114 20000000 		.4byte	.LFE119
 18033 0118 00000000 		.4byte	.LFB139
 18034 011c 22000000 		.4byte	.LFE139
 18035 0120 00000000 		.4byte	.LFB155
 18036 0124 34000000 		.4byte	.LFE155
 18037 0128 00000000 		.4byte	.LFB161
 18038 012c 64000000 		.4byte	.LFE161
 18039 0130 00000000 		.4byte	.LFB177
 18040 0134 2A000000 		.4byte	.LFE177
 18041 0138 00000000 		.4byte	.LFB183
 18042 013c 12000000 		.4byte	.LFE183
 18043 0140 00000000 		.4byte	.LFB185
 18044 0144 1A000000 		.4byte	.LFE185
 18045 0148 00000000 		.4byte	.LFB186
 18046 014c 30000000 		.4byte	.LFE186
 18047 0150 00000000 		.4byte	.LFB187
 18048 0154 30000000 		.4byte	.LFE187
 18049 0158 00000000 		.4byte	.LFB188
 18050 015c 16000000 		.4byte	.LFE188
 18051 0160 00000000 		.4byte	.LFB189
 18052 0164 22000000 		.4byte	.LFE189
 18053 0168 00000000 		.4byte	.LFB190
 18054 016c 22000000 		.4byte	.LFE190
 18055 0170 00000000 		.4byte	.LFB191
 18056 0174 30000000 		.4byte	.LFE191
 18057 0178 00000000 		.4byte	.LFB192
 18058 017c 2A000000 		.4byte	.LFE192
 18059 0180 00000000 		.4byte	.LFB194
 18060 0184 16000000 		.4byte	.LFE194
 18061 0188 00000000 		.4byte	.LFB197
 18062 018c 14000000 		.4byte	.LFE197
 18063 0190 00000000 		.4byte	.LFB200
 18064 0194 0E000000 		.4byte	.LFE200
 18065 0198 00000000 		.4byte	.LFB201
ARM GAS  /tmp/cc5OZvFd.s 			page 318


 18066 019c 0E000000 		.4byte	.LFE201
 18067 01a0 00000000 		.4byte	.LFB202
 18068 01a4 0E000000 		.4byte	.LFE202
 18069 01a8 00000000 		.4byte	.LFB204
 18070 01ac 20000000 		.4byte	.LFE204
 18071 01b0 00000000 		.4byte	.LFB207
 18072 01b4 32000000 		.4byte	.LFE207
 18073 01b8 00000000 		.4byte	.LFB208
 18074 01bc 24000000 		.4byte	.LFE208
 18075 01c0 00000000 		.4byte	.LFB209
 18076 01c4 30000000 		.4byte	.LFE209
 18077 01c8 00000000 		.4byte	.LFB210
 18078 01cc 16000000 		.4byte	.LFE210
 18079 01d0 00000000 		.4byte	.LFB211
 18080 01d4 34000000 		.4byte	.LFE211
 18081 01d8 00000000 		.4byte	.LFB212
 18082 01dc 26000000 		.4byte	.LFE212
 18083 01e0 00000000 		.4byte	.LFB213
 18084 01e4 1C000000 		.4byte	.LFE213
 18085 01e8 00000000 		.4byte	.LFB214
 18086 01ec 1C000000 		.4byte	.LFE214
 18087 01f0 00000000 		.4byte	.LFB215
 18088 01f4 0C000000 		.4byte	.LFE215
 18089 01f8 00000000 		.4byte	.LFB373
 18090 01fc 28000000 		.4byte	.LFE373
 18091 0200 00000000 		.4byte	.LFB398
 18092 0204 40000000 		.4byte	.LFE398
 18093 0208 00000000 		.4byte	.LFB399
 18094 020c 2A000000 		.4byte	.LFE399
 18095 0210 00000000 		.4byte	.LFB401
 18096 0214 3C000000 		.4byte	.LFE401
 18097 0218 00000000 		.4byte	.LFB438
 18098 021c 12000000 		.4byte	.LFE438
 18099 0220 00000000 		.4byte	.LFB440
 18100 0224 14000000 		.4byte	.LFE440
 18101 0228 00000000 		.4byte	.LFB453
 18102 022c 1C000000 		.4byte	.LFE453
 18103 0230 00000000 		.4byte	.LFB454
 18104 0234 1E000000 		.4byte	.LFE454
 18105 0238 00000000 		.4byte	.LFB455
 18106 023c 1C000000 		.4byte	.LFE455
 18107 0240 00000000 		.4byte	.LFB456
 18108 0244 1E000000 		.4byte	.LFE456
 18109 0248 00000000 		.4byte	.LFB458
 18110 024c 0E000000 		.4byte	.LFE458
 18111 0250 00000000 		.4byte	0
 18112 0254 00000000 		.4byte	0
 18113              		.section	.debug_line,"",%progbits
 18114              	.Ldebug_line0:
 18115 0000 A00E0000 		.section	.debug_str,"MS",%progbits,1
 18115      02003A04 
 18115      00000201 
 18115      FB0E0D00 
 18115      01010101 
 18116              	.LASF668:
 18117 0000 50756253 		.ascii	"PubSub\000"
 18117      756200
ARM GAS  /tmp/cc5OZvFd.s 			page 319


 18118              	.LASF240:
 18119 0007 6C696E6B 		.ascii	"linking_outcome\000"
 18119      696E675F 
 18119      6F757463 
 18119      6F6D6500 
 18120              	.LASF305:
 18121 0017 5F5A4E4B 		.ascii	"_ZNK3r2p4Time9to_us_rawEv\000"
 18121      33723270 
 18121      3454696D 
 18121      6539746F 
 18121      5F75735F 
 18122              	.LASF276:
 18123 0031 5F5A4E33 		.ascii	"_ZN3r2p7Thread_5yieldEv\000"
 18123      72327037 
 18123      54687265 
 18123      61645F35 
 18123      7969656C 
 18124              	.LASF638:
 18125 0049 5F5A4E4B 		.ascii	"_ZNK3r2p5Topic16compute_deadlineEv\000"
 18125      33723270 
 18125      35546F70 
 18125      69633136 
 18125      636F6D70 
 18126              	.LASF198:
 18127 006c 6368756E 		.ascii	"chunk\000"
 18127      6B00
 18128              	.LASF560:
 18129 0072 5F5A4E4B 		.ascii	"_ZNK3r2p10StaticListINS_5TopicEE12count_unsafeEv\000"
 18129      33723270 
 18129      31305374 
 18129      61746963 
 18129      4C697374 
 18130              	.LASF65:
 18131 00a3 5F5A4E33 		.ascii	"_ZN3r2p8Flasher_4readEtPt\000"
 18131      72327038 
 18131      466C6173 
 18131      6865725F 
 18131      34726561 
 18132              	.LASF754:
 18133 00bd 6D656D6F 		.ascii	"memory_heap\000"
 18133      72795F68 
 18133      65617000 
 18134              	.LASF123:
 18135 00c9 69735F72 		.ascii	"is_ram\000"
 18135      616D00
 18136              	.LASF1:
 18137 00d0 73697A65 		.ascii	"size_t\000"
 18137      5F7400
 18138              	.LASF161:
 18139 00d7 454E445F 		.ascii	"END_OF_FILE\000"
 18139      4F465F46 
 18139      494C4500 
 18140              	.LASF505:
 18141 00e3 756E6C69 		.ascii	"unlink\000"
 18141      6E6B00
 18142              	.LASF17:
 18143 00ea 73697A65 		.ascii	"sizetype\000"
ARM GAS  /tmp/cc5OZvFd.s 			page 320


 18143      74797065 
 18143      00
 18144              	.LASF460:
 18145 00f3 53746174 		.ascii	"StaticList<r2p::LocalSubscriber>\000"
 18145      69634C69 
 18145      73743C72 
 18145      32703A3A 
 18145      4C6F6361 
 18146              	.LASF660:
 18147 0114 52656D6F 		.ascii	"RemotePublisher\000"
 18147      74655075 
 18147      626C6973 
 18147      68657200 
 18148              	.LASF376:
 18149 0124 5F5A4E4B 		.ascii	"_ZNK3r2p10Bootloader8IteratordeEv\000"
 18149      33723270 
 18149      3130426F 
 18149      6F746C6F 
 18149      61646572 
 18150              	.LASF127:
 18151 0146 4D657373 		.ascii	"Message\000"
 18151      61676500 
 18152              	.LASF708:
 18153 014e 73797374 		.ascii	"systime_t\000"
 18153      696D655F 
 18153      7400
 18154              	.LASF634:
 18155 0158 666F7277 		.ascii	"forward_copy_unsafe\000"
 18155      6172645F 
 18155      636F7079 
 18155      5F756E73 
 18155      61666500 
 18156              	.LASF554:
 18157 016c 5F5A4E4B 		.ascii	"_ZNK3r2p10StaticListINS_16RemoteSubscriberEE3endEv\000"
 18157      33723270 
 18157      31305374 
 18157      61746963 
 18157      4C697374 
 18158              	.LASF469:
 18159 019f 4D617463 		.ascii	"Matches\000"
 18159      68657300 
 18160              	.LASF705:
 18161 01a7 74707269 		.ascii	"tprio_t\000"
 18161      6F5F7400 
 18162              	.LASF105:
 18163 01af 5F5A4E33 		.ascii	"_ZN3r2p7Flasher7compareEtPKt\000"
 18163      72327037 
 18163      466C6173 
 18163      68657237 
 18163      636F6D70 
 18164              	.LASF628:
 18165 01cc 5F5A4E33 		.ascii	"_ZN3r2p5Topic14release_unsafeERNS_7MessageE\000"
 18165      72327035 
 18165      546F7069 
 18165      63313472 
 18165      656C6561 
 18166              	.LASF803:
ARM GAS  /tmp/cc5OZvFd.s 			page 321


 18167 01f8 7265636F 		.ascii	"record\000"
 18167      726400
 18168              	.LASF175:
 18169 01ff 42454749 		.ascii	"BEGIN_LOADER\000"
 18169      4E5F4C4F 
 18169      41444552 
 18169      00
 18170              	.LASF504:
 18171 020c 5F5A4E33 		.ascii	"_ZN3r2p10StaticListINS_15LocalSubscriberEE4linkERNS"
 18171      72327031 
 18171      30537461 
 18171      7469634C 
 18171      69737449 
 18172 023f 325F344C 		.ascii	"2_4LinkE\000"
 18172      696E6B45 
 18172      00
 18173              	.LASF726:
 18174 0248 705F6D73 		.ascii	"p_msgqueue\000"
 18174      67717565 
 18174      756500
 18175              	.LASF379:
 18176 0253 6F706572 		.ascii	"operator const r2p::Bootloader::FlashAppInfo&\000"
 18176      61746F72 
 18176      20636F6E 
 18176      73742072 
 18176      32703A3A 
 18177              	.LASF743:
 18178 0281 725F6374 		.ascii	"r_ctx\000"
 18178      7800
 18179              	.LASF377:
 18180 0287 6F706572 		.ascii	"operator const r2p::Bootloader::FlashAppInfo*\000"
 18180      61746F72 
 18180      20636F6E 
 18180      73742072 
 18180      32703A3A 
 18181              	.LASF653:
 18182 02b5 73756273 		.ascii	"subscribe\000"
 18182      63726962 
 18182      6500
 18183              	.LASF272:
 18184 02bf 5F5A4E33 		.ascii	"_ZN3r2p7Thread_12get_priorityEv\000"
 18184      72327037 
 18184      54687265 
 18184      61645F31 
 18184      32676574 
 18185              	.LASF102:
 18186 02df 5F5A4E33 		.ascii	"_ZN3r2p7Flasher16is_within_boundsEPKv\000"
 18186      72327037 
 18186      466C6173 
 18186      68657231 
 18186      3669735F 
 18187              	.LASF544:
 18188 0305 5F5A4E33 		.ascii	"_ZN3r2p10StaticListINS_16RemoteSubscriberEE4linkERN"
 18188      72327031 
 18188      30537461 
 18188      7469634C 
 18188      69737449 
ARM GAS  /tmp/cc5OZvFd.s 			page 322


 18189 0338 53325F34 		.ascii	"S2_4LinkE\000"
 18189      4C696E6B 
 18189      4500
 18190              	.LASF688:
 18191 0342 5F5A4E33 		.ascii	"_ZN3r2p13BasePublisher5allocERPNS_7MessageE\000"
 18191      72327031 
 18191      33426173 
 18191      65507562 
 18191      6C697368 
 18192              	.LASF810:
 18193 036e 73746172 		.ascii	"startp\000"
 18193      747000
 18194              	.LASF492:
 18195 0375 5F5A4E33 		.ascii	"_ZN3r2p10StaticListINS_15LocalSubscriberEE10end_uns"
 18195      72327031 
 18195      30537461 
 18195      7469634C 
 18195      69737449 
 18196 03a8 61666545 		.ascii	"afeEv\000"
 18196      7600
 18197              	.LASF709:
 18198 03ae 7264796D 		.ascii	"rdymsg\000"
 18198      736700
 18199              	.LASF680:
 18200 03b5 70617468 		.ascii	"path\000"
 18200      00
 18201              	.LASF636:
 18202 03ba 636F6D70 		.ascii	"compute_deadline\000"
 18202      7574655F 
 18202      64656164 
 18202      6C696E65 
 18202      00
 18203              	.LASF369:
 18204 03cb 5F5A4E4B 		.ascii	"_ZNK3r2p10Bootloader12FlashAppInfo8has_nameEPKc\000"
 18204      33723270 
 18204      3130426F 
 18204      6F746C6F 
 18204      61646572 
 18205              	.LASF809:
 18206 03fb 666C6173 		.ascii	"flashinfop\000"
 18206      68696E66 
 18206      6F7000
 18207              	.LASF489:
 18208 0406 62656769 		.ascii	"begin_unsafe\000"
 18208      6E5F756E 
 18208      73616665 
 18208      00
 18209              	.LASF110:
 18210 0413 5F5A4E33 		.ascii	"_ZN3r2p7Flasher7page_ofEPKh\000"
 18210      72327037 
 18210      466C6173 
 18210      68657237 
 18210      70616765 
 18211              	.LASF662:
 18212 042f 4D676D74 		.ascii	"MgmtMsg\000"
 18212      4D736700 
 18213              	.LASF311:
ARM GAS  /tmp/cc5OZvFd.s 			page 323


 18214 0437 5F5A4E4B 		.ascii	"_ZNK3r2p4Time8to_m_rawEv\000"
 18214      33723270 
 18214      3454696D 
 18214      6538746F 
 18214      5F6D5F72 
 18215              	.LASF283:
 18216 0450 6765745F 		.ascii	"get_item_size\000"
 18216      6974656D 
 18216      5F73697A 
 18216      6500
 18217              	.LASF493:
 18218 045e 72657374 		.ascii	"restart_unsafe\000"
 18218      6172745F 
 18218      756E7361 
 18218      666500
 18219              	.LASF43:
 18220 046d 7365745F 		.ascii	"set_page_buffer\000"
 18220      70616765 
 18220      5F627566 
 18220      66657200 
 18221              	.LASF564:
 18222 047d 5F5A4E4B 		.ascii	"_ZNK3r2p10StaticListINS_5TopicEE15index_of_unsafeER"
 18222      33723270 
 18222      31305374 
 18222      61746963 
 18222      4C697374 
 18223 04b0 4B53315F 		.ascii	"KS1_\000"
 18223      00
 18224              	.LASF66:
 18225 04b5 77726974 		.ascii	"write\000"
 18225      6500
 18226              	.LASF425:
 18227 04bb 5F5A4E33 		.ascii	"_ZN3r2p10Bootloader13write_appinfoEPKNS0_12FlashApp"
 18227      72327031 
 18227      30426F6F 
 18227      746C6F61 
 18227      64657231 
 18228 04ee 496E666F 		.ascii	"InfoERKNS_7BootMsg12LinkingSetupERKNS4_16LinkingAdd"
 18228      45524B4E 
 18228      535F3742 
 18228      6F6F744D 
 18228      73673132 
 18229 0521 72657373 		.ascii	"ressesERKNS4_14LinkingOutcomeE\000"
 18229      65734552 
 18229      4B4E5334 
 18229      5F31344C 
 18229      696E6B69 
 18230              	.LASF620:
 18231 0540 69735F61 		.ascii	"is_awaiting_advertisements\000"
 18231      77616974 
 18231      696E675F 
 18231      61647665 
 18231      72746973 
 18232              	.LASF478:
 18233 055b 5F5A4E33 		.ascii	"_ZN3r2p10StaticListINS_15LocalSubscriberEE11link_un"
 18233      72327031 
 18233      30537461 
ARM GAS  /tmp/cc5OZvFd.s 			page 324


 18233      7469634C 
 18233      69737449 
 18234 058e 73616665 		.ascii	"safeERNS2_4LinkE\000"
 18234      45524E53 
 18234      325F344C 
 18234      696E6B45 
 18234      00
 18235              	.LASF349:
 18236 059f 63666770 		.ascii	"cfgp\000"
 18236      00
 18237              	.LASF308:
 18238 05a4 746F5F73 		.ascii	"to_s_raw\000"
 18238      5F726177 
 18238      00
 18239              	.LASF150:
 18240 05ad 5F5A4E33 		.ascii	"_ZN3r2p7Message4copyERS0_RKS0_j\000"
 18240      72327037 
 18240      4D657373 
 18240      61676534 
 18240      636F7079 
 18241              	.LASF651:
 18242 05cd 5F5A4E33 		.ascii	"_ZN3r2p5Topic9advertiseERNS_14LocalPublisherERKNS_4"
 18242      72327035 
 18242      546F7069 
 18242      63396164 
 18242      76657274 
 18243 0600 54696D65 		.ascii	"TimeE\000"
 18243      4500
 18244              	.LASF734:
 18245 0606 31315468 		.ascii	"11ThreadsList\000"
 18245      72656164 
 18245      734C6973 
 18245      7400
 18246              	.LASF410:
 18247 0614 5F5A4E33 		.ascii	"_ZN3r2p10Bootloader11do_getparamEv\000"
 18247      72327031 
 18247      30426F6F 
 18247      746C6F61 
 18247      64657231 
 18248              	.LASF658:
 18249 0637 5F5A4E33 		.ascii	"_ZN3r2p5Topic8has_nameERKS0_PKc\000"
 18249      72327035 
 18249      546F7069 
 18249      63386861 
 18249      735F6E61 
 18250              	.LASF237:
 18251 0657 69686578 		.ascii	"ihex_record\000"
 18251      5F726563 
 18251      6F726400 
 18252              	.LASF100:
 18253 0663 5F5A4E33 		.ascii	"_ZN3r2p7Flasher5eraseEPKhj\000"
 18253      72327037 
 18253      466C6173 
 18253      68657235 
 18253      65726173 
 18254              	.LASF202:
 18255 067e 4572726F 		.ascii	"ErrorInfo\000"
ARM GAS  /tmp/cc5OZvFd.s 			page 325


 18255      72496E66 
 18255      6F00
 18256              	.LASF234:
 18257 0688 50617261 		.ascii	"ParamChunk\000"
 18257      6D436875 
 18257      6E6B00
 18258              	.LASF26:
 18259 0693 61637175 		.ascii	"acquire\000"
 18259      69726500 
 18260              	.LASF251:
 18261 069b 48494748 		.ascii	"HIGHEST\000"
 18261      45535400 
 18262              	.LASF692:
 18263 06a3 5F5A4E33 		.ascii	"_ZN3r2p18compute_chunk_sizeIhEEjPKT_S3_\000"
 18263      72327031 
 18263      38636F6D 
 18263      70757465 
 18263      5F636875 
 18264              	.LASF218:
 18265 06cb 6D61696E 		.ascii	"mainadr\000"
 18265      61647200 
 18266              	.LASF372:
 18267 06d3 5F5A4E33 		.ascii	"_ZN3r2p10Bootloader8IteratoraSERKS1_\000"
 18267      72327031 
 18267      30426F6F 
 18267      746C6F61 
 18267      64657238 
 18268              	.LASF816:
 18269 06f8 70726576 		.ascii	"prevp\000"
 18269      7000
 18270              	.LASF103:
 18271 06fe 5F5A4E33 		.ascii	"_ZN3r2p7Flasher9is_erasedEt\000"
 18271      72327037 
 18271      466C6173 
 18271      68657239 
 18271      69735F65 
 18272              	.LASF247:
 18273 071a 52454144 		.ascii	"READY\000"
 18273      5900
 18274              	.LASF677:
 18275 0720 626F6F74 		.ascii	"boot_mode\000"
 18275      5F6D6F64 
 18275      6500
 18276              	.LASF333:
 18277 072a 5F5A4E4B 		.ascii	"_ZNK3r2p6Thread8get_nameEv\000"
 18277      33723270 
 18277      36546872 
 18277      65616438 
 18277      6765745F 
 18278              	.LASF265:
 18279 0745 63726561 		.ascii	"create_heap\000"
 18279      74655F68 
 18279      65617000 
 18280              	.LASF93:
 18281 0751 5F5A4E33 		.ascii	"_ZN3r2p7Flasher15set_page_bufferEPt\000"
 18281      72327037 
 18281      466C6173 
ARM GAS  /tmp/cc5OZvFd.s 			page 326


 18281      68657231 
 18281      35736574 
 18282              	.LASF819:
 18283 0775 616C6C5F 		.ascii	"all_launched\000"
 18283      6C61756E 
 18283      63686564 
 18283      00
 18284              	.LASF549:
 18285 0782 5F5A4E4B 		.ascii	"_ZNK3r2p10StaticListINS_16RemoteSubscriberEE10find_"
 18285      33723270 
 18285      31305374 
 18285      61746963 
 18285      4C697374 
 18286 07b5 66697273 		.ascii	"firstEPFbRKS1_PKvES6_\000"
 18286      74455046 
 18286      62524B53 
 18286      315F504B 
 18286      76455336 
 18287              	.LASF342:
 18288 07cb 5F5A4E33 		.ascii	"_ZN3r2p6Thread4joinERS0_\000"
 18288      72327036 
 18288      54687265 
 18288      6164346A 
 18288      6F696E45 
 18289              	.LASF374:
 18290 07e4 5F5A4E4B 		.ascii	"_ZNK3r2p10Bootloader8IteratorptEv\000"
 18290      33723270 
 18290      3130426F 
 18290      6F746C6F 
 18290      61646572 
 18291              	.LASF673:
 18292 0806 4D6F6475 		.ascii	"Module\000"
 18292      6C6500
 18293              	.LASF280:
 18294 080d 5F5A4E33 		.ascii	"_ZN3r2p7Thread_4joinERS0_\000"
 18294      72327037 
 18294      54687265 
 18294      61645F34 
 18294      6A6F696E 
 18295              	.LASF37:
 18296 0827 70616765 		.ascii	"page_bufp\000"
 18296      5F627566 
 18296      7000
 18297              	.LASF171:
 18298 0831 636F6D70 		.ascii	"compute_checksum\000"
 18298      7574655F 
 18298      63686563 
 18298      6B73756D 
 18298      00
 18299              	.LASF70:
 18300 0842 61646472 		.ascii	"address_of\000"
 18300      6573735F 
 18300      6F6600
 18301              	.LASF488:
 18302 084d 5F5A4E4B 		.ascii	"_ZNK3r2p10StaticListINS_15LocalSubscriberEE17find_f"
 18302      33723270 
 18302      31305374 
ARM GAS  /tmp/cc5OZvFd.s 			page 327


 18302      61746963 
 18302      4C697374 
 18303 0880 69727374 		.ascii	"irst_unsafeEPFbRKS1_PKvES6_\000"
 18303      5F756E73 
 18303      61666545 
 18303      50466252 
 18303      4B53315F 
 18304              	.LASF321:
 18305 089c 5F5A4E33 		.ascii	"_ZN3r2p4TimeaSERKS0_\000"
 18305      72327034 
 18305      54696D65 
 18305      61534552 
 18305      4B53305F 
 18306              	.LASF578:
 18307 08b1 5F5A4E33 		.ascii	"_ZN3r2p10StaticListINS_5TopicEE6unlinkERNS2_4LinkE\000"
 18307      72327031 
 18307      30537461 
 18307      7469634C 
 18307      69737449 
 18308              	.LASF367:
 18309 08e4 5F5A4E4B 		.ascii	"_ZNK3r2p10Bootloader12FlashAppInfo8is_validEv\000"
 18309      33723270 
 18309      3130426F 
 18309      6F746C6F 
 18309      61646572 
 18310              	.LASF192:
 18311 0912 4D41585F 		.ascii	"MAX_TEXT_LENGTH\000"
 18311      54455854 
 18311      5F4C454E 
 18311      47544800 
 18312              	.LASF96:
 18313 0922 5F5A4E33 		.ascii	"_ZN3r2p7Flasher3endEv\000"
 18313      72327037 
 18313      466C6173 
 18313      68657233 
 18313      656E6445 
 18314              	.LASF648:
 18315 0938 65787465 		.ascii	"extend_pool\000"
 18315      6E645F70 
 18315      6F6F6C00 
 18316              	.LASF238:
 18317 0944 6C696E6B 		.ascii	"linking_setup\000"
 18317      696E675F 
 18317      73657475 
 18317      7000
 18318              	.LASF484:
 18319 0952 636F6E74 		.ascii	"contains_unsafe\000"
 18319      61696E73 
 18319      5F756E73 
 18319      61666500 
 18320              	.LASF273:
 18321 0962 7365745F 		.ascii	"set_priority\000"
 18321      7072696F 
 18321      72697479 
 18321      00
 18322              	.LASF108:
 18323 096f 5F5A4E33 		.ascii	"_ZN3r2p7Flasher15write_if_neededEtPKt\000"
ARM GAS  /tmp/cc5OZvFd.s 			page 328


 18323      72327037 
 18323      466C6173 
 18323      68657231 
 18323      35777269 
 18324              	.LASF393:
 18325 0995 736C6176 		.ascii	"slave_msgp\000"
 18325      655F6D73 
 18325      677000
 18326              	.LASF266:
 18327 09a0 5F5A4E33 		.ascii	"_ZN3r2p7Thread_11create_heapEPvjmPFlS1_ES1_PKc\000"
 18327      72327037 
 18327      54687265 
 18327      61645F31 
 18327      31637265 
 18328              	.LASF405:
 18329 09cf 646F5F6C 		.ascii	"do_loader\000"
 18329      6F616465 
 18329      7200
 18330              	.LASF722:
 18331 09d9 705F666C 		.ascii	"p_flags\000"
 18331      61677300 
 18332              	.LASF710:
 18333 09e1 65786974 		.ascii	"exitcode\000"
 18333      636F6465 
 18333      00
 18334              	.LASF55:
 18335 09ea 69735F61 		.ascii	"is_aligned\000"
 18335      6C69676E 
 18335      656400
 18336              	.LASF4:
 18337 09f5 5F5F7569 		.ascii	"__uint8_t\000"
 18337      6E74385F 
 18337      7400
 18338              	.LASF101:
 18339 09ff 5F5A4E33 		.ascii	"_ZN3r2p7Flasher10is_alignedEPKv\000"
 18339      72327037 
 18339      466C6173 
 18339      68657231 
 18339      3069735F 
 18340              	.LASF538:
 18341 0a1f 5F5A4E4B 		.ascii	"_ZNK3r2p10StaticListINS_16RemoteSubscriberEE12begin"
 18341      33723270 
 18341      31305374 
 18341      61746963 
 18341      4C697374 
 18342 0a52 5F756E73 		.ascii	"_unsafeEv\000"
 18342      61666545 
 18342      7600
 18343              	.LASF712:
 18344 0a5c 65776D61 		.ascii	"ewmask\000"
 18344      736B00
 18345              	.LASF752:
 18346 0a63 6D656D67 		.ascii	"memgetfunc_t\000"
 18346      65746675 
 18346      6E635F74 
 18346      00
 18347              	.LASF275:
ARM GAS  /tmp/cc5OZvFd.s 			page 329


 18348 0a70 7969656C 		.ascii	"yield\000"
 18348      6400
 18349              	.LASF317:
 18350 0a76 5F5A4E4B 		.ascii	"_ZNK3r2p4Time4to_sEv\000"
 18350      33723270 
 18350      3454696D 
 18350      6534746F 
 18350      5F734576 
 18351              	.LASF671:
 18352 0a8b 71756575 		.ascii	"queue_length\000"
 18352      655F6C65 
 18352      6E677468 
 18352      00
 18353              	.LASF402:
 18354 0a98 5F5A4E33 		.ascii	"_ZN3r2p10Bootloader5fetchEv\000"
 18354      72327031 
 18354      30426F6F 
 18354      746C6F61 
 18354      64657235 
 18355              	.LASF397:
 18356 0ab4 5F5A4E33 		.ascii	"_ZN3r2p10Bootloader5allocEv\000"
 18356      72327031 
 18356      30426F6F 
 18356      746C6F61 
 18356      64657235 
 18357              	.LASF229:
 18358 0ad0 70676D65 		.ascii	"pgmendadr\000"
 18358      6E646164 
 18358      7200
 18359              	.LASF542:
 18360 0ada 5F5A4E4B 		.ascii	"_ZNK3r2p10StaticListINS_16RemoteSubscriberEE8is_emp"
 18360      33723270 
 18360      31305374 
 18360      61746963 
 18360      4C697374 
 18361 0b0d 74794576 		.ascii	"tyEv\000"
 18361      00
 18362              	.LASF530:
 18363 0b12 5F5A4E33 		.ascii	"_ZN3r2p10StaticListINS_16RemoteSubscriberEE13unlink"
 18363      72327031 
 18363      30537461 
 18363      7469634C 
 18363      69737449 
 18364 0b45 5F756E73 		.ascii	"_unsafeERNS2_4LinkE\000"
 18364      61666545 
 18364      524E5332 
 18364      5F344C69 
 18364      6E6B4500 
 18365              	.LASF350:
 18366 0b59 50726F63 		.ascii	"Proc\000"
 18366      00
 18367              	.LASF631:
 18368 0b5e 5F5A4E33 		.ascii	"_ZN3r2p5Topic20notify_locals_unsafeERNS_7MessageERK"
 18368      72327035 
 18368      546F7069 
 18368      6332306E 
 18368      6F746966 
ARM GAS  /tmp/cc5OZvFd.s 			page 330


 18369 0b91 4E535F34 		.ascii	"NS_4TimeE\000"
 18369      54696D65 
 18369      4500
 18370              	.LASF527:
 18371 0b9b 5F5A4E4B 		.ascii	"_ZNK3r2p10StaticListINS_16RemoteSubscriberEE12count"
 18371      33723270 
 18371      31305374 
 18371      61746963 
 18371      4C697374 
 18372 0bce 5F756E73 		.ascii	"_unsafeEv\000"
 18372      61666545 
 18372      7600
 18373              	.LASF259:
 18374 0bd8 6765745F 		.ascii	"get_impl\000"
 18374      696D706C 
 18374      00
 18375              	.LASF10:
 18376 0be1 6C6F6E67 		.ascii	"long int\000"
 18376      20696E74 
 18376      00
 18377              	.LASF713:
 18378 0bea 705F6E65 		.ascii	"p_next\000"
 18378      787400
 18379              	.LASF639:
 18380 0bf1 5F5A4E33 		.ascii	"_ZN3r2p5Topic5allocEv\000"
 18380      72327035 
 18380      546F7069 
 18380      6335616C 
 18380      6C6F6345 
 18381              	.LASF211:
 18382 0c07 696E666F 		.ascii	"infoadr\000"
 18382      61647200 
 18383              	.LASF479:
 18384 0c0f 5F5A4E33 		.ascii	"_ZN3r2p10StaticListINS_15LocalSubscriberEE16link_ta"
 18384      72327031 
 18384      30537461 
 18384      7469634C 
 18384      69737449 
 18385 0c42 696C5F75 		.ascii	"il_unsafeERNS2_4LinkE\000"
 18385      6E736166 
 18385      6545524E 
 18385      53325F34 
 18385      4C696E6B 
 18386              	.LASF468:
 18387 0c58 50726564 		.ascii	"Predicate\000"
 18387      69636174 
 18387      6500
 18388              	.LASF257:
 18389 0c62 6765745F 		.ascii	"get_name\000"
 18389      6E616D65 
 18389      00
 18390              	.LASF581:
 18391 0c6b 5F5A4E4B 		.ascii	"_ZNK3r2p10StaticListINS_5TopicEE10find_firstEPFbRKS"
 18391      33723270 
 18391      31305374 
 18391      61746963 
 18391      4C697374 
ARM GAS  /tmp/cc5OZvFd.s 			page 331


 18392 0c9e 315F4500 		.ascii	"1_E\000"
 18393              	.LASF610:
 18394 0ca2 6861735F 		.ascii	"has_remote_publishers\000"
 18394      72656D6F 
 18394      74655F70 
 18394      75626C69 
 18394      73686572 
 18395              	.LASF690:
 18396 0cb8 5F5A4E33 		.ascii	"_ZN3r2p13BasePublisher16publish_remotelyERNS_7Messa"
 18396      72327031 
 18396      33426173 
 18396      65507562 
 18396      6C697368 
 18397 0ceb 67654500 		.ascii	"geE\000"
 18398              	.LASF435:
 18399 0cef 6765745F 		.ascii	"get_free_address\000"
 18399      66726565 
 18399      5F616464 
 18399      72657373 
 18399      00
 18400              	.LASF555:
 18401 0d00 5F5A4E4B 		.ascii	"_ZNK3r2p10StaticListINS_16RemoteSubscriberEE7restar"
 18401      33723270 
 18401      31305374 
 18401      61746963 
 18401      4C697374 
 18402 0d33 7445524E 		.ascii	"tERNS2_13ConstIteratorE\000"
 18402      53325F31 
 18402      33436F6E 
 18402      73744974 
 18402      65726174 
 18403              	.LASF157:
 18404 0d4b 4E616D69 		.ascii	"NamingTraits<r2p::Node>\000"
 18404      6E675472 
 18404      61697473 
 18404      3C723270 
 18404      3A3A4E6F 
 18405              	.LASF137:
 18406 0d63 5F5A4E33 		.ascii	"_ZN3r2p7Message12reset_unsafeEv\000"
 18406      72327037 
 18406      4D657373 
 18406      61676531 
 18406      32726573 
 18407              	.LASF262:
 18408 0d83 5F5A4E33 		.ascii	"_ZN3r2p7Thread_18compute_stack_sizeEj\000"
 18408      72327037 
 18408      54687265 
 18408      61645F31 
 18408      38636F6D 
 18409              	.LASF248:
 18410 0da9 49444C45 		.ascii	"IDLE\000"
 18410      00
 18411              	.LASF512:
 18412 0dae 5F5A4E4B 		.ascii	"_ZNK3r2p10StaticListINS_15LocalSubscriberEE10find_f"
 18412      33723270 
 18412      31305374 
 18412      61746963 
ARM GAS  /tmp/cc5OZvFd.s 			page 332


 18412      4C697374 
 18413 0de1 69727374 		.ascii	"irstEPFbRKS1_E\000"
 18413      45504662 
 18413      524B5331 
 18413      5F4500
 18414              	.LASF703:
 18415 0df0 74737461 		.ascii	"tstate_t\000"
 18415      74655F74 
 18415      00
 18416              	.LASF253:
 18417 0df9 5072696F 		.ascii	"Priority\000"
 18417      72697479 
 18417      00
 18418              	.LASF416:
 18419 0e02 5F5A4E33 		.ascii	"_ZN3r2p10Bootloader8do_errorEmPKc\000"
 18419      72327031 
 18419      30426F6F 
 18419      746C6F61 
 18419      64657238 
 18420              	.LASF573:
 18421 0e24 5F5A4E4B 		.ascii	"_ZNK3r2p10StaticListINS_5TopicEE14restart_unsafeERN"
 18421      33723270 
 18421      31305374 
 18421      61746963 
 18421      4C697374 
 18422 0e57 53325F31 		.ascii	"S2_19ConstIteratorUnsafeE\000"
 18422      39436F6E 
 18422      73744974 
 18422      65726174 
 18422      6F72556E 
 18423              	.LASF827:
 18424 0e71 474E5520 		.ascii	"GNU C++ 4.9.3 20141119 (release) [ARM/embedded-4_9-"
 18424      432B2B20 
 18424      342E392E 
 18424      33203230 
 18424      31343131 
 18425 0ea4 6272616E 		.ascii	"branch revision 218278] -mcpu=cortex-m4 -mno-thumb-"
 18425      63682072 
 18425      65766973 
 18425      696F6E20 
 18425      32313832 
 18426 0ed7 696E7465 		.ascii	"interwork -mthumb -ggdb -O0 -fomit-frame-pointer -f"
 18426      72776F72 
 18426      6B202D6D 
 18426      7468756D 
 18426      62202D67 
 18427 0f0a 6E6F2D72 		.ascii	"no-rtti -fno-exceptions -fno-threadsafe-statics\000"
 18427      74746920 
 18427      2D666E6F 
 18427      2D657863 
 18427      65707469 
 18428              	.LASF353:
 18429 0f3a 64746F72 		.ascii	"dtorsp\000"
 18429      737000
 18430              	.LASF81:
 18431 0f41 5F5A4E33 		.ascii	"_ZN3r2p8Flasher_15get_program_endEv\000"
 18431      72327038 
ARM GAS  /tmp/cc5OZvFd.s 			page 333


 18431      466C6173 
 18431      6865725F 
 18431      31356765 
 18432              	.LASF142:
 18433 0f65 636F7079 		.ascii	"copy\000"
 18433      00
 18434              	.LASF736:
 18435 0f6a 72656761 		.ascii	"regarm_t\000"
 18435      726D5F74 
 18435      00
 18436              	.LASF524:
 18437 0f73 53746174 		.ascii	"StaticList<r2p::RemoteSubscriber>\000"
 18437      69634C69 
 18437      73743C72 
 18437      32703A3A 
 18437      52656D6F 
 18438              	.LASF215:
 18439 0f95 64617461 		.ascii	"datapgmadr\000"
 18439      70676D61 
 18439      647200
 18440              	.LASF644:
 18441 0fa0 6E6F7469 		.ascii	"notify_remotes\000"
 18441      66795F72 
 18441      656D6F74 
 18441      657300
 18442              	.LASF480:
 18443 0faf 756E6C69 		.ascii	"unlink_unsafe\000"
 18443      6E6B5F75 
 18443      6E736166 
 18443      6500
 18444              	.LASF191:
 18445 0fbd 50415241 		.ascii	"PARAM_CHUNK\000"
 18445      4D5F4348 
 18445      554E4B00 
 18446              	.LASF394:
 18447 0fc9 616E5F69 		.ascii	"an_invalid_signature\000"
 18447      6E76616C 
 18447      69645F73 
 18447      69676E61 
 18447      74757265 
 18448              	.LASF362:
 18449 0fde 6765745F 		.ascii	"get_data_program\000"
 18449      64617461 
 18449      5F70726F 
 18449      6772616D 
 18449      00
 18450              	.LASF596:
 18451 0fef 72656D6F 		.ascii	"remote_subscribers\000"
 18451      74655F73 
 18451      75627363 
 18451      72696265 
 18451      727300
 18452              	.LASF201:
 18453 1002 41646472 		.ascii	"Address\000"
 18453      65737300 
 18454              	.LASF169:
 18455 100a 64617461 		.ascii	"data\000"
ARM GAS  /tmp/cc5OZvFd.s 			page 334


 18455      00
 18456              	.LASF187:
 18457 100f 454E445F 		.ascii	"END_SETPARAM\000"
 18457      53455450 
 18457      4152414D 
 18457      00
 18458              	.LASF761:
 18459 101c 68656170 		.ascii	"heap\000"
 18459      00
 18460              	.LASF204:
 18461 1021 70676D6C 		.ascii	"pgmlen\000"
 18461      656E00
 18462              	.LASF670:
 18463 1028 7061796C 		.ascii	"payload_size\000"
 18463      6F61645F 
 18463      73697A65 
 18463      00
 18464              	.LASF287:
 18465 1035 616C6C6F 		.ascii	"alloc_unsafe\000"
 18465      635F756E 
 18465      73616665 
 18465      00
 18466              	.LASF825:
 18467 1042 5F5F7261 		.ascii	"__ram_start__\000"
 18467      6D5F7374 
 18467      6172745F 
 18467      5F00
 18468              	.LASF213:
 18469 1050 62737361 		.ascii	"bssadr\000"
 18469      647200
 18470              	.LASF245:
 18471 1057 54797065 		.ascii	"TypeEnum\000"
 18471      456E756D 
 18471      00
 18472              	.LASF471:
 18473 1060 69735F65 		.ascii	"is_empty_unsafe\000"
 18473      6D707479 
 18473      5F756E73 
 18473      61666500 
 18474              	.LASF817:
 18475 1070 6E657770 		.ascii	"newp\000"
 18475      00
 18476              	.LASF355:
 18477 1075 5F5A4E33 		.ascii	"_ZN3r2p10Bootloader12FlashAppInfo15compute_programE"
 18477      72327031 
 18477      30426F6F 
 18477      746C6F61 
 18477      64657231 
 18478 10a8 504B5331 		.ascii	"PKS1_\000"
 18478      5F00
 18479              	.LASF133:
 18480 10ae 5F5A4E33 		.ascii	"_ZN3r2p7Message14acquire_unsafeEv\000"
 18480      72327037 
 18480      4D657373 
 18480      61676531 
 18480      34616371 
 18481              	.LASF531:
ARM GAS  /tmp/cc5OZvFd.s 			page 335


 18482 10d0 5F5A4E4B 		.ascii	"_ZNK3r2p10StaticListINS_16RemoteSubscriberEE15index"
 18482      33723270 
 18482      31305374 
 18482      61746963 
 18482      4C697374 
 18483 1103 5F6F665F 		.ascii	"_of_unsafeERKS1_\000"
 18483      756E7361 
 18483      66654552 
 18483      4B53315F 
 18483      00
 18484              	.LASF223:
 18485 1114 64746F72 		.ascii	"dtorsadr\000"
 18485      73616472 
 18485      00
 18486              	.LASF3:
 18487 111d 7369676E 		.ascii	"signed char\000"
 18487      65642063 
 18487      68617200 
 18488              	.LASF54:
 18489 1129 5F5A4E33 		.ascii	"_ZN3r2p8Flasher_5eraseEPKhj\000"
 18489      72327038 
 18489      466C6173 
 18489      6865725F 
 18489      35657261 
 18490              	.LASF605:
 18491 1145 5F5A4E4B 		.ascii	"_ZNK3r2p5Topic20get_max_queue_lengthEv\000"
 18491      33723270 
 18491      35546F70 
 18491      69633230 
 18491      6765745F 
 18492              	.LASF375:
 18493 116c 6F706572 		.ascii	"operator*\000"
 18493      61746F72 
 18493      2A00
 18494              	.LASF813:
 18495 1176 666C6173 		.ascii	"flash_page_bufp\000"
 18495      685F7061 
 18495      67655F62 
 18495      75667000 
 18496              	.LASF57:
 18497 1186 69735F77 		.ascii	"is_within_bounds\000"
 18497      69746869 
 18497      6E5F626F 
 18497      756E6473 
 18497      00
 18498              	.LASF407:
 18499 1197 646F5F61 		.ascii	"do_appinfo\000"
 18499      7070696E 
 18499      666F00
 18500              	.LASF94:
 18501 11a2 5F5A4E33 		.ascii	"_ZN3r2p7Flasher5beginEv\000"
 18501      72327037 
 18501      466C6173 
 18501      68657235 
 18501      62656769 
 18502              	.LASF84:
 18503 11ba 6765745F 		.ascii	"get_ram_start\000"
ARM GAS  /tmp/cc5OZvFd.s 			page 336


 18503      72616D5F 
 18503      73746172 
 18503      7400
 18504              	.LASF806:
 18505 11c8 736F7572 		.ascii	"sourcep\000"
 18505      63657000 
 18506              	.LASF320:
 18507 11d0 6F706572 		.ascii	"operator=\000"
 18507      61746F72 
 18507      3D00
 18508              	.LASF643:
 18509 11da 5F5A4E33 		.ascii	"_ZN3r2p5Topic13notify_localsERNS_7MessageERKNS_4Tim"
 18509      72327035 
 18509      546F7069 
 18509      6331336E 
 18509      6F746966 
 18510 120d 654500   		.ascii	"eE\000"
 18511              	.LASF739:
 18512 1210 636F6E74 		.ascii	"context\000"
 18512      65787400 
 18513              	.LASF233:
 18514 1218 6170706E 		.ascii	"appname\000"
 18514      616D6500 
 18515              	.LASF340:
 18516 1220 5F5A4E33 		.ascii	"_ZN3r2p6Thread5yieldEv\000"
 18516      72327036 
 18516      54687265 
 18516      61643579 
 18516      69656C64 
 18517              	.LASF629:
 18518 1237 5F5A4E33 		.ascii	"_ZN3r2p5Topic11free_unsafeERNS_7MessageE\000"
 18518      72327035 
 18518      546F7069 
 18518      63313166 
 18518      7265655F 
 18519              	.LASF295:
 18520 1260 65787465 		.ascii	"extend\000"
 18520      6E6400
 18521              	.LASF572:
 18522 1267 5F5A4E4B 		.ascii	"_ZNK3r2p10StaticListINS_5TopicEE10end_unsafeEv\000"
 18522      33723270 
 18522      31305374 
 18522      61746963 
 18522      4C697374 
 18523              	.LASF344:
 18524 1296 5349474E 		.ascii	"SIGNATURE\000"
 18524      41545552 
 18524      4500
 18525              	.LASF143:
 18526 12a0 6765745F 		.ascii	"get_msg_from_raw_data\000"
 18526      6D73675F 
 18526      66726F6D 
 18526      5F726177 
 18526      5F646174 
 18527              	.LASF88:
 18528 12b6 6765745F 		.ascii	"get_ram_length\000"
 18528      72616D5F 
ARM GAS  /tmp/cc5OZvFd.s 			page 337


 18528      6C656E67 
 18528      746800
 18529              	.LASF5:
 18530 12c5 756E7369 		.ascii	"unsigned char\000"
 18530      676E6564 
 18530      20636861 
 18530      7200
 18531              	.LASF58:
 18532 12d3 5F5A4E33 		.ascii	"_ZN3r2p8Flasher_16is_within_boundsEPKv\000"
 18532      72327038 
 18532      466C6173 
 18532      6865725F 
 18532      31366973 
 18533              	.LASF627:
 18534 12fa 5F5A4E33 		.ascii	"_ZN3r2p5Topic12alloc_unsafeEv\000"
 18534      72327035 
 18534      546F7069 
 18534      63313261 
 18534      6C6C6F63 
 18535              	.LASF190:
 18536 1318 50415241 		.ascii	"PARAM_REQUEST\000"
 18536      4D5F5245 
 18536      51554553 
 18536      5400
 18537              	.LASF701:
 18538 1326 626F6F6C 		.ascii	"bool\000"
 18538      00
 18539              	.LASF85:
 18540 132b 5F5A4E33 		.ascii	"_ZN3r2p8Flasher_13get_ram_startEv\000"
 18540      72327038 
 18540      466C6173 
 18540      6865725F 
 18540      31336765 
 18541              	.LASF364:
 18542 134d 6765745F 		.ascii	"get_next\000"
 18542      6E657874 
 18542      00
 18543              	.LASF725:
 18544 1356 705F7761 		.ascii	"p_waiting\000"
 18544      6974696E 
 18544      6700
 18545              	.LASF650:
 18546 1360 61647665 		.ascii	"advertise\000"
 18546      72746973 
 18546      6500
 18547              	.LASF182:
 18548 136a 52454D4F 		.ascii	"REMOVE_ALL\000"
 18548      56455F41 
 18548      4C4C00
 18549              	.LASF158:
 18550 1375 4E616D69 		.ascii	"NamingTraits<r2p::Topic>\000"
 18550      6E675472 
 18550      61697473 
 18550      3C723270 
 18550      3A3A546F 
 18551              	.LASF264:
 18552 138e 5F5A4E33 		.ascii	"_ZN3r2p7Thread_13create_staticEPvjmPFlS1_ES1_PKc\000"
ARM GAS  /tmp/cc5OZvFd.s 			page 338


 18552      72327037 
 18552      54687265 
 18552      61645F31 
 18552      33637265 
 18553              	.LASF793:
 18554 13bf 62656769 		.ascii	"beginp\000"
 18554      6E7000
 18555              	.LASF221:
 18556 13c6 63746F72 		.ascii	"ctorsadr\000"
 18556      73616472 
 18556      00
 18557              	.LASF23:
 18558 13cf 556E636F 		.ascii	"Uncopyable\000"
 18558      70796162 
 18558      6C6500
 18559              	.LASF592:
 18560 13da 6D73675F 		.ascii	"msg_pool\000"
 18560      706F6F6C 
 18560      00
 18561              	.LASF183:
 18562 13e3 42454749 		.ascii	"BEGIN_APPINFO\000"
 18562      4E5F4150 
 18562      50494E46 
 18562      4F00
 18563              	.LASF125:
 18564 13f1 5F5A4E33 		.ascii	"_ZN3r2p8Flasher_7jump_toEPKh\000"
 18564      72327038 
 18564      466C6173 
 18564      6865725F 
 18564      376A756D 
 18565              	.LASF694:
 18566 140e 75696E74 		.ascii	"uint16_t\000"
 18566      31365F74 
 18566      00
 18567              	.LASF575:
 18568 1417 5F5A4E4B 		.ascii	"_ZNK3r2p10StaticListINS_5TopicEE8is_emptyEv\000"
 18568      33723270 
 18568      31305374 
 18568      61746963 
 18568      4C697374 
 18569              	.LASF565:
 18570 1443 5F5A4E4B 		.ascii	"_ZNK3r2p10StaticListINS_5TopicEE15contains_unsafeER"
 18570      33723270 
 18570      31305374 
 18570      61746963 
 18570      4C697374 
 18571 1476 4B53315F 		.ascii	"KS1_\000"
 18571      00
 18572              	.LASF360:
 18573 147b 6765745F 		.ascii	"get_program\000"
 18573      70726F67 
 18573      72616D00 
 18574              	.LASF99:
 18575 1487 5F5A4E33 		.ascii	"_ZN3r2p7Flasher5flashEPKhS2_j\000"
 18575      72327037 
 18575      466C6173 
 18575      68657235 
ARM GAS  /tmp/cc5OZvFd.s 			page 339


 18575      666C6173 
 18576              	.LASF472:
 18577 14a5 5F5A4E4B 		.ascii	"_ZNK3r2p10StaticListINS_15LocalSubscriberEE15get_he"
 18577      33723270 
 18577      31305374 
 18577      61746963 
 18577      4C697374 
 18578 14d8 61645F75 		.ascii	"ad_unsafeEv\000"
 18578      6E736166 
 18578      65457600 
 18579              	.LASF745:
 18580 14e4 725F6F6C 		.ascii	"r_older\000"
 18580      64657200 
 18581              	.LASF595:
 18582 14ec 6C6F6361 		.ascii	"local_subscribers\000"
 18582      6C5F7375 
 18582      62736372 
 18582      69626572 
 18582      7300
 18583              	.LASF733:
 18584 14fe 31325468 		.ascii	"12ThreadsQueue\000"
 18584      72656164 
 18584      73517565 
 18584      756500
 18585              	.LASF820:
 18586 150d 6D696372 		.ascii	"microseconds\000"
 18586      6F736563 
 18586      6F6E6473 
 18586      00
 18587              	.LASF79:
 18588 151a 6765745F 		.ascii	"get_program_end\000"
 18588      70726F67 
 18588      72616D5F 
 18588      656E6400 
 18589              	.LASF239:
 18590 152a 6C696E6B 		.ascii	"linking_addresses\000"
 18590      696E675F 
 18590      61646472 
 18590      65737365 
 18590      7300
 18591              	.LASF735:
 18592 153c 54687265 		.ascii	"ThreadsList\000"
 18592      6164734C 
 18592      69737400 
 18593              	.LASF501:
 18594 1548 5F5A4E4B 		.ascii	"_ZNK3r2p10StaticListINS_15LocalSubscriberEE8is_empt"
 18594      33723270 
 18594      31305374 
 18594      61746963 
 18594      4C697374 
 18595 157b 79457600 		.ascii	"yEv\000"
 18596              	.LASF18:
 18597 157f 63686172 		.ascii	"char\000"
 18597      00
 18598              	.LASF25:
 18599 1584 5379734C 		.ascii	"SysLock_\000"
 18599      6F636B5F 
ARM GAS  /tmp/cc5OZvFd.s 			page 340


 18599      00
 18600              	.LASF781:
 18601 158d 5F5A4E33 		.ascii	"_ZN3r2p10UncopyableC2Ev\000"
 18601      72327031 
 18601      30556E63 
 18601      6F707961 
 18601      626C6543 
 18602              	.LASF475:
 18603 15a5 5F5A4E4B 		.ascii	"_ZNK3r2p10StaticListINS_15LocalSubscriberEE12count_"
 18603      33723270 
 18603      31305374 
 18603      61746963 
 18603      4C697374 
 18604 15d8 756E7361 		.ascii	"unsafeEv\000"
 18604      66654576 
 18604      00
 18605              	.LASF665:
 18606 15e1 6D6F6475 		.ascii	"module\000"
 18606      6C6500
 18607              	.LASF789:
 18608 15e8 74687265 		.ascii	"threadp\000"
 18608      61647000 
 18609              	.LASF278:
 18610 15f0 5F5A4E33 		.ascii	"_ZN3r2p7Thread_5sleepERKNS_4TimeE\000"
 18610      72327037 
 18610      54687265 
 18610      61645F35 
 18610      736C6565 
 18611              	.LASF378:
 18612 1612 5F5A4E4B 		.ascii	"_ZNK3r2p10Bootloader8IteratorcvPKNS0_12FlashAppInfo"
 18612      33723270 
 18612      3130426F 
 18612      6F746C6F 
 18612      61646572 
 18613 1645 45457600 		.ascii	"EEv\000"
 18614              	.LASF252:
 18615 1649 494E5445 		.ascii	"INTERRUPT\000"
 18615      52525550 
 18615      5400
 18616              	.LASF461:
 18617 1653 4C696E6B 		.ascii	"Link\000"
 18617      00
 18618              	.LASF24:
 18619 1658 7E556E63 		.ascii	"~Uncopyable\000"
 18619      6F707961 
 18619      626C6500 
 18620              	.LASF546:
 18621 1664 5F5A4E4B 		.ascii	"_ZNK3r2p10StaticListINS_16RemoteSubscriberEE8index_"
 18621      33723270 
 18621      31305374 
 18621      61746963 
 18621      4C697374 
 18622 1697 6F664552 		.ascii	"ofERKS1_\000"
 18622      4B53315F 
 18622      00
 18623              	.LASF31:
 18624 16a0 5F5A4E33 		.ascii	"_ZN3r2p7SysLock7acquireEv\000"
ARM GAS  /tmp/cc5OZvFd.s 			page 341


 18624      72327037 
 18624      5379734C 
 18624      6F636B37 
 18624      61637175 
 18625              	.LASF588:
 18626 16ba 5F5A4E4B 		.ascii	"_ZNK3r2p10StaticListINS_5TopicEE7restartERNS2_13Con"
 18626      33723270 
 18626      31305374 
 18626      61746963 
 18626      4C697374 
 18627 16ed 73744974 		.ascii	"stIteratorE\000"
 18627      65726174 
 18627      6F724500 
 18628              	.LASF568:
 18629 16f9 5F5A4E33 		.ascii	"_ZN3r2p10StaticListINS_5TopicEE12begin_unsafeEv\000"
 18629      72327031 
 18629      30537461 
 18629      7469634C 
 18629      69737449 
 18630              	.LASF298:
 18631 1729 54696D65 		.ascii	"Time\000"
 18631      00
 18632              	.LASF256:
 18633 172e 41726775 		.ascii	"Argument\000"
 18633      6D656E74 
 18633      00
 18634              	.LASF539:
 18635 1737 5F5A4E4B 		.ascii	"_ZNK3r2p10StaticListINS_16RemoteSubscriberEE10end_u"
 18635      33723270 
 18635      31305374 
 18635      61746963 
 18635      4C697374 
 18636 176a 6E736166 		.ascii	"nsafeEv\000"
 18636      65457600 
 18637              	.LASF121:
 18638 1772 69735F70 		.ascii	"is_program\000"
 18638      726F6772 
 18638      616D00
 18639              	.LASF523:
 18640 177d 4C6F6361 		.ascii	"LocalSubscriber\000"
 18640      6C537562 
 18640      73637269 
 18640      62657200 
 18641              	.LASF288:
 18642 178d 5F5A4E33 		.ascii	"_ZN3r2p11MemoryPool_12alloc_unsafeEv\000"
 18642      72327031 
 18642      314D656D 
 18642      6F727950 
 18642      6F6F6C5F 
 18643              	.LASF7:
 18644 17b2 5F5F7569 		.ascii	"__uint16_t\000"
 18644      6E743136 
 18644      5F7400
 18645              	.LASF230:
 18646 17bd 72616D73 		.ascii	"ramstartadr\000"
 18646      74617274 
 18646      61647200 
ARM GAS  /tmp/cc5OZvFd.s 			page 342


 18647              	.LASF641:
 18648 17c9 5F5A4E33 		.ascii	"_ZN3r2p5Topic4freeERNS_7MessageE\000"
 18648      72327035 
 18648      546F7069 
 18648      63346672 
 18648      65654552 
 18649              	.LASF341:
 18650 17ea 5F5A4E33 		.ascii	"_ZN3r2p6Thread5sleepERKNS_4TimeE\000"
 18650      72327036 
 18650      54687265 
 18650      61643573 
 18650      6C656570 
 18651              	.LASF525:
 18652 180b 5F5A4E4B 		.ascii	"_ZNK3r2p10StaticListINS_16RemoteSubscriberEE15get_h"
 18652      33723270 
 18652      31305374 
 18652      61746963 
 18652      4C697374 
 18653 183e 6561645F 		.ascii	"ead_unsafeEv\000"
 18653      756E7361 
 18653      66654576 
 18653      00
 18654              	.LASF481:
 18655 184b 5F5A4E33 		.ascii	"_ZN3r2p10StaticListINS_15LocalSubscriberEE13unlink_"
 18655      72327031 
 18655      30537461 
 18655      7469634C 
 18655      69737449 
 18656 187e 756E7361 		.ascii	"unsafeERNS2_4LinkE\000"
 18656      66654552 
 18656      4E53325F 
 18656      344C696E 
 18656      6B4500
 18657              	.LASF160:
 18658 1891 44415441 		.ascii	"DATA\000"
 18658      00
 18659              	.LASF261:
 18660 1896 636F6D70 		.ascii	"compute_stack_size\000"
 18660      7574655F 
 18660      73746163 
 18660      6B5F7369 
 18660      7A6500
 18661              	.LASF715:
 18662 18a9 705F7072 		.ascii	"p_prio\000"
 18662      696F00
 18663              	.LASF804:
 18664 18b0 73756D6D 		.ascii	"summary\000"
 18664      61727900 
 18665              	.LASF420:
 18666 18b8 5F5A4E33 		.ascii	"_ZN3r2p10Bootloader11begin_writeEv\000"
 18666      72327031 
 18666      30426F6F 
 18666      746C6F61 
 18666      64657231 
 18667              	.LASF617:
 18668 18db 5F5A4E4B 		.ascii	"_ZNK3r2p5Topic22has_remote_subscribersEv\000"
 18668      33723270 
ARM GAS  /tmp/cc5OZvFd.s 			page 343


 18668      35546F70 
 18668      69633232 
 18668      6861735F 
 18669              	.LASF711:
 18670 1904 77746F62 		.ascii	"wtobjp\000"
 18670      6A7000
 18671              	.LASF791:
 18672 190b 696E666F 		.ascii	"infop\000"
 18672      7000
 18673              	.LASF209:
 18674 1911 666C6167 		.ascii	"flags\000"
 18674      7300
 18675              	.LASF773:
 18676 1917 76616C75 		.ascii	"valuep\000"
 18676      657000
 18677              	.LASF737:
 18678 191e 73746B61 		.ascii	"stkalign_t\000"
 18678      6C69676E 
 18678      5F7400
 18679              	.LASF80:
 18680 1929 5F5A4E33 		.ascii	"_ZN3r2p8Flasher_17get_program_startEv\000"
 18680      72327038 
 18680      466C6173 
 18680      6865725F 
 18680      31376765 
 18681              	.LASF314:
 18682 194f 746F5F6D 		.ascii	"to_ms\000"
 18682      7300
 18683              	.LASF120:
 18684 1955 5F5A4E33 		.ascii	"_ZN3r2p7Flasher14get_ram_lengthEv\000"
 18684      72327037 
 18684      466C6173 
 18684      68657231 
 18684      34676574 
 18685              	.LASF0:
 18686 1977 70747264 		.ascii	"ptrdiff_t\000"
 18686      6966665F 
 18686      7400
 18687              	.LASF126:
 18688 1981 5F5A4E33 		.ascii	"_ZN3r2p7Flasher7jump_toEPKh\000"
 18688      72327037 
 18688      466C6173 
 18688      68657237 
 18688      6A756D70 
 18689              	.LASF414:
 18690 199d 5F5A4E33 		.ascii	"_ZN3r2p10Bootloader6do_ackEv\000"
 18690      72327031 
 18690      30426F6F 
 18690      746C6F61 
 18690      64657236 
 18691              	.LASF203:
 18692 19ba 4C696E6B 		.ascii	"LinkingSetup\000"
 18692      696E6753 
 18692      65747570 
 18692      00
 18693              	.LASF613:
 18694 19c7 5F5A4E4B 		.ascii	"_ZNK3r2p5Topic14has_publishersEv\000"
ARM GAS  /tmp/cc5OZvFd.s 			page 344


 18694      33723270 
 18694      35546F70 
 18694      69633134 
 18694      6861735F 
 18695              	.LASF97:
 18696 19e8 5F5A4E33 		.ascii	"_ZN3r2p7Flasher13flash_alignedEPKtS2_j\000"
 18696      72327037 
 18696      466C6173 
 18696      68657231 
 18696      33666C61 
 18697              	.LASF391:
 18698 1a0f 73756270 		.ascii	"subp\000"
 18698      00
 18699              	.LASF34:
 18700 1a14 50414745 		.ascii	"PAGE_SIZE\000"
 18700      5F53495A 
 18700      4500
 18701              	.LASF250:
 18702 1a1e 4E4F524D 		.ascii	"NORMAL\000"
 18702      414C00
 18703              	.LASF666:
 18704 1a25 6E6F6465 		.ascii	"node\000"
 18704      00
 18705              	.LASF71:
 18706 1a2a 5F5A4E33 		.ascii	"_ZN3r2p8Flasher_10address_ofEt\000"
 18706      72327038 
 18706      466C6173 
 18706      6865725F 
 18706      31306164 
 18707              	.LASF195:
 18708 1a49 74657874 		.ascii	"text\000"
 18708      00
 18709              	.LASF558:
 18710 1a4e 5F5A4E4B 		.ascii	"_ZNK3r2p10StaticListINS_5TopicEE15get_head_unsafeEv"
 18710      33723270 
 18710      31305374 
 18710      61746963 
 18710      4C697374 
 18711 1a81 00       		.ascii	"\000"
 18712              	.LASF32:
 18713 1a82 5F5A4E33 		.ascii	"_ZN3r2p7SysLock7releaseEv\000"
 18713      72327037 
 18713      5379734C 
 18713      6F636B37 
 18713      72656C65 
 18714              	.LASF306:
 18715 1a9c 746F5F6D 		.ascii	"to_ms_raw\000"
 18715      735F7261 
 18715      7700
 18716              	.LASF77:
 18717 1aa6 5F5A4E33 		.ascii	"_ZN3r2p8Flasher_10align_nextEPKh\000"
 18717      72327038 
 18717      466C6173 
 18717      6865725F 
 18717      3130616C 
 18718              	.LASF780:
 18719 1ac7 70616765 		.ascii	"page_buf\000"
ARM GAS  /tmp/cc5OZvFd.s 			page 345


 18719      5F627566 
 18719      00
 18720              	.LASF62:
 18721 1ad0 636F6D70 		.ascii	"compare\000"
 18721      61726500 
 18722              	.LASF117:
 18723 1ad8 5F5A4E33 		.ascii	"_ZN3r2p7Flasher13get_ram_startEv\000"
 18723      72327037 
 18723      466C6173 
 18723      68657231 
 18723      33676574 
 18724              	.LASF624:
 18725 1af9 636F6D70 		.ascii	"compute_deadline_unsafe\000"
 18725      7574655F 
 18725      64656164 
 18725      6C696E65 
 18725      5F756E73 
 18726              	.LASF645:
 18727 1b11 5F5A4E33 		.ascii	"_ZN3r2p5Topic14notify_remotesERNS_7MessageERKNS_4Ti"
 18727      72327035 
 18727      546F7069 
 18727      6331346E 
 18727      6F746966 
 18728 1b44 6D654500 		.ascii	"meE\000"
 18729              	.LASF68:
 18730 1b48 77726974 		.ascii	"write_if_needed\000"
 18730      655F6966 
 18730      5F6E6565 
 18730      64656400 
 18731              	.LASF309:
 18732 1b58 5F5A4E4B 		.ascii	"_ZNK3r2p4Time8to_s_rawEv\000"
 18732      33723270 
 18732      3454696D 
 18732      6538746F 
 18732      5F735F72 
 18733              	.LASF82:
 18734 1b71 6765745F 		.ascii	"get_program_length\000"
 18734      70726F67 
 18734      72616D5F 
 18734      6C656E67 
 18734      746800
 18735              	.LASF277:
 18736 1b84 736C6565 		.ascii	"sleep\000"
 18736      7000
 18737              	.LASF808:
 18738 1b8a 74657874 		.ascii	"textp\000"
 18738      7000
 18739              	.LASF491:
 18740 1b90 656E645F 		.ascii	"end_unsafe\000"
 18740      756E7361 
 18740      666500
 18741              	.LASF387:
 18742 1b9b 5F5A4E4B 		.ascii	"_ZNK3r2p10Bootloader8IteratorneERKS1_\000"
 18742      33723270 
 18742      3130426F 
 18742      6F746C6F 
 18742      61646572 
ARM GAS  /tmp/cc5OZvFd.s 			page 346


 18743              	.LASF464:
 18744 1bc1 68656164 		.ascii	"headp\000"
 18744      7000
 18745              	.LASF214:
 18746 1bc7 64617461 		.ascii	"dataadr\000"
 18746      61647200 
 18747              	.LASF131:
 18748 1bcf 5F5A4E4B 		.ascii	"_ZNK3r2p7Message12get_raw_dataEv\000"
 18748      33723270 
 18748      374D6573 
 18748      73616765 
 18748      31326765 
 18749              	.LASF800:
 18750 1bf0 73657475 		.ascii	"setup\000"
 18750      7000
 18751              	.LASF59:
 18752 1bf6 69735F65 		.ascii	"is_erased\000"
 18752      72617365 
 18752      6400
 18753              	.LASF618:
 18754 1c00 6861735F 		.ascii	"has_subscribers\000"
 18754      73756273 
 18754      63726962 
 18754      65727300 
 18755              	.LASF676:
 18756 1c10 7265626F 		.ascii	"rebooted\000"
 18756      6F746564 
 18756      00
 18757              	.LASF632:
 18758 1c19 6E6F7469 		.ascii	"notify_remotes_unsafe\000"
 18758      66795F72 
 18758      656D6F74 
 18758      65735F75 
 18758      6E736166 
 18759              	.LASF728:
 18760 1c2f 705F6570 		.ascii	"p_epending\000"
 18760      656E6469 
 18760      6E6700
 18761              	.LASF496:
 18762 1c3a 5F5A4E4B 		.ascii	"_ZNK3r2p10StaticListINS_15LocalSubscriberEE10end_un"
 18762      33723270 
 18762      31305374 
 18762      61746963 
 18762      4C697374 
 18763 1c6d 73616665 		.ascii	"safeEv\000"
 18763      457600
 18764              	.LASF268:
 18765 1c74 5F5A4E33 		.ascii	"_ZN3r2p7Thread_11create_poolERNS_11MemoryPool_EmPFl"
 18765      72327037 
 18765      54687265 
 18765      61645F31 
 18765      31637265 
 18766 1ca7 50764553 		.ascii	"PvES3_PKc\000"
 18766      335F504B 
 18766      6300
 18767              	.LASF122:
 18768 1cb1 5F5A4E33 		.ascii	"_ZN3r2p7Flasher10is_programEPKh\000"
ARM GAS  /tmp/cc5OZvFd.s 			page 347


 18768      72327037 
 18768      466C6173 
 18768      68657231 
 18768      3069735F 
 18769              	.LASF334:
 18770 1cd1 5F5A4E33 		.ascii	"_ZN3r2p6Thread18compute_stack_sizeEj\000"
 18770      72327036 
 18770      54687265 
 18770      61643138 
 18770      636F6D70 
 18771              	.LASF48:
 18772 1cf6 65726173 		.ascii	"erase_aligned\000"
 18772      655F616C 
 18772      69676E65 
 18772      6400
 18773              	.LASF519:
 18774 1d04 5F5A4E4B 		.ascii	"_ZNK3r2p10StaticListINS_15LocalSubscriberEE3endEv\000"
 18774      33723270 
 18774      31305374 
 18774      61746963 
 18774      4C697374 
 18775              	.LASF456:
 18776 1d36 5075626C 		.ascii	"Publisher<r2p::BootMsg>\000"
 18776      69736865 
 18776      723C7232 
 18776      703A3A42 
 18776      6F6F744D 
 18777              	.LASF829:
 18778 1d4e 2F686F6D 		.ascii	"/home/tino/workspace/openrobots/Middleware_v2-new/\000"
 18778      652F7469 
 18778      6E6F2F77 
 18778      6F726B73 
 18778      70616365 
 18779              	.LASF403:
 18780 1d81 5F5A4E33 		.ascii	"_ZN3r2p10Bootloader5fetchENS_7BootMsg8TypeEnumE\000"
 18780      72327031 
 18780      30426F6F 
 18780      746C6F61 
 18780      64657235 
 18781              	.LASF759:
 18782 1db1 68656170 		.ascii	"heap_header\000"
 18782      5F686561 
 18782      64657200 
 18783              	.LASF797:
 18784 1dbd 64737470 		.ascii	"dstp\000"
 18784      00
 18785              	.LASF637:
 18786 1dc2 5F5A4E4B 		.ascii	"_ZNK3r2p5Topic16compute_deadlineERKNS_4TimeE\000"
 18786      33723270 
 18786      35546F70 
 18786      69633136 
 18786      636F6D70 
 18787              	.LASF515:
 18788 1def 72657374 		.ascii	"restart\000"
 18788      61727400 
 18789              	.LASF510:
 18790 1df7 5F5A4E4B 		.ascii	"_ZNK3r2p10StaticListINS_15LocalSubscriberEE8contain"
ARM GAS  /tmp/cc5OZvFd.s 			page 348


 18790      33723270 
 18790      31305374 
 18790      61746963 
 18790      4C697374 
 18791 1e2a 7345524B 		.ascii	"sERKS1_\000"
 18791      53315F00 
 18792              	.LASF567:
 18793 1e32 5F5A4E4B 		.ascii	"_ZNK3r2p10StaticListINS_5TopicEE17find_first_unsafe"
 18793      33723270 
 18793      31305374 
 18793      61746963 
 18793      4C697374 
 18794 1e65 45504662 		.ascii	"EPFbRKS1_PKvES6_\000"
 18794      524B5331 
 18794      5F504B76 
 18794      4553365F 
 18794      00
 18795              	.LASF179:
 18796 1e76 4C494E4B 		.ascii	"LINKING_OUTCOME\000"
 18796      494E475F 
 18796      4F555443 
 18796      4F4D4500 
 18797              	.LASF149:
 18798 1e86 72657365 		.ascii	"reset_payload<r2p::BootMsg>\000"
 18798      745F7061 
 18798      796C6F61 
 18798      643C7232 
 18798      703A3A42 
 18799              	.LASF730:
 18800 1ea2 705F7265 		.ascii	"p_realprio\000"
 18800      616C7072 
 18800      696F00
 18801              	.LASF134:
 18802 1ead 72656C65 		.ascii	"release_unsafe\000"
 18802      6173655F 
 18802      756E7361 
 18802      666500
 18803              	.LASF95:
 18804 1ebc 5F5A4E33 		.ascii	"_ZN3r2p8Flasher_3endEv\000"
 18804      72327038 
 18804      466C6173 
 18804      6865725F 
 18804      33656E64 
 18805              	.LASF495:
 18806 1ed3 5F5A4E4B 		.ascii	"_ZNK3r2p10StaticListINS_15LocalSubscriberEE12begin_"
 18806      33723270 
 18806      31305374 
 18806      61746963 
 18806      4C697374 
 18807 1f06 756E7361 		.ascii	"unsafeEv\000"
 18807      66654576 
 18807      00
 18808              	.LASF440:
 18809 1f0f 5F5A4E33 		.ascii	"_ZN3r2p10Bootloader12get_last_appEv\000"
 18809      72327031 
 18809      30426F6F 
 18809      746C6F61 
ARM GAS  /tmp/cc5OZvFd.s 			page 349


 18809      64657231 
 18810              	.LASF594:
 18811 1f33 6E756D5F 		.ascii	"num_remote_publishers\000"
 18811      72656D6F 
 18811      74655F70 
 18811      75626C69 
 18811      73686572 
 18812              	.LASF532:
 18813 1f49 5F5A4E4B 		.ascii	"_ZNK3r2p10StaticListINS_16RemoteSubscriberEE15conta"
 18813      33723270 
 18813      31305374 
 18813      61746963 
 18813      4C697374 
 18814 1f7c 696E735F 		.ascii	"ins_unsafeERKS1_\000"
 18814      756E7361 
 18814      66654552 
 18814      4B53315F 
 18814      00
 18815              	.LASF674:
 18816 1f8d 656E6162 		.ascii	"enabled\000"
 18816      6C656400 
 18817              	.LASF500:
 18818 1f95 69735F65 		.ascii	"is_empty\000"
 18818      6D707479 
 18818      00
 18819              	.LASF412:
 18820 1f9e 5F5A4E33 		.ascii	"_ZN3r2p10Bootloader11do_setparamEv\000"
 18820      72327031 
 18820      30426F6F 
 18820      746C6F61 
 18820      64657231 
 18821              	.LASF274:
 18822 1fc1 5F5A4E33 		.ascii	"_ZN3r2p7Thread_12set_priorityEm\000"
 18822      72327037 
 18822      54687265 
 18822      61645F31 
 18822      32736574 
 18823              	.LASF148:
 18824 1fe1 5F5A4E33 		.ascii	"_ZN3r2p7Message13get_type_sizeEj\000"
 18824      72327037 
 18824      4D657373 
 18824      61676531 
 18824      33676574 
 18825              	.LASF792:
 18826 2002 5F5A4E33 		.ascii	"_ZN3r2p10Bootloader8IteratorC2ERKS1_\000"
 18826      72327031 
 18826      30426F6F 
 18826      746C6F61 
 18826      64657238 
 18827              	.LASF528:
 18828 2027 5F5A4E33 		.ascii	"_ZN3r2p10StaticListINS_16RemoteSubscriberEE11link_u"
 18828      72327031 
 18828      30537461 
 18828      7469634C 
 18828      69737449 
 18829 205a 6E736166 		.ascii	"nsafeERNS2_4LinkE\000"
 18829      6545524E 
ARM GAS  /tmp/cc5OZvFd.s 			page 350


 18829      53325F34 
 18829      4C696E6B 
 18829      4500
 18830              	.LASF580:
 18831 206c 5F5A4E4B 		.ascii	"_ZNK3r2p10StaticListINS_5TopicEE8containsERKS1_\000"
 18831      33723270 
 18831      31305374 
 18831      61746963 
 18831      4C697374 
 18832              	.LASF14:
 18833 209c 5F5F7569 		.ascii	"__uint64_t\000"
 18833      6E743634 
 18833      5F7400
 18834              	.LASF433:
 18835 20a7 6765745F 		.ascii	"get_num_apps\000"
 18835      6E756D5F 
 18835      61707073 
 18835      00
 18836              	.LASF449:
 18837 20b4 6C61756E 		.ascii	"launch\000"
 18837      636800
 18838              	.LASF12:
 18839 20bb 6C6F6E67 		.ascii	"long unsigned int\000"
 18839      20756E73 
 18839      69676E65 
 18839      6420696E 
 18839      7400
 18840              	.LASF603:
 18841 20cd 5F5A4E4B 		.ascii	"_ZNK3r2p5Topic16get_payload_sizeEv\000"
 18841      33723270 
 18841      35546F70 
 18841      69633136 
 18841      6765745F 
 18842              	.LASF124:
 18843 20f0 5F5A4E33 		.ascii	"_ZN3r2p7Flasher6is_ramEPKh\000"
 18843      72327037 
 18843      466C6173 
 18843      68657236 
 18843      69735F72 
 18844              	.LASF152:
 18845 210b 6765745F 		.ascii	"get_payload_size<r2p::BootMsg>\000"
 18845      7061796C 
 18845      6F61645F 
 18845      73697A65 
 18845      3C723270 
 18846              	.LASF329:
 18847 212a 5F5A4E33 		.ascii	"_ZN3r2p4Time1mEl\000"
 18847      72327034 
 18847      54696D65 
 18847      316D456C 
 18847      00
 18848              	.LASF583:
 18849 213b 5F5A4E33 		.ascii	"_ZN3r2p10StaticListINS_5TopicEE5beginEv\000"
 18849      72327031 
 18849      30537461 
 18849      7469634C 
 18849      69737449 
ARM GAS  /tmp/cc5OZvFd.s 			page 351


 18850              	.LASF269:
 18851 2163 73656C66 		.ascii	"self\000"
 18851      00
 18852              	.LASF466:
 18853 2168 436F6E73 		.ascii	"ConstIteratorUnsafe\000"
 18853      74497465 
 18853      7261746F 
 18853      72556E73 
 18853      61666500 
 18854              	.LASF599:
 18855 217c 5F5A4E4B 		.ascii	"_ZNK3r2p5Topic8get_nameEv\000"
 18855      33723270 
 18855      35546F70 
 18855      69633867 
 18855      65745F6E 
 18856              	.LASF535:
 18857 2196 5F5A4E33 		.ascii	"_ZN3r2p10StaticListINS_16RemoteSubscriberEE12begin_"
 18857      72327031 
 18857      30537461 
 18857      7469634C 
 18857      69737449 
 18858 21c9 756E7361 		.ascii	"unsafeEv\000"
 18858      66654576 
 18858      00
 18859              	.LASF193:
 18860 21d2 61646472 		.ascii	"address\000"
 18860      65737300 
 18861              	.LASF384:
 18862 21da 6F706572 		.ascii	"operator==\000"
 18862      61746F72 
 18862      3D3D00
 18863              	.LASF685:
 18864 21e5 5F5A4E33 		.ascii	"_ZN3r2p12check_boundsEPKvjS1_j\000"
 18864      72327031 
 18864      32636865 
 18864      636B5F62 
 18864      6F756E64 
 18865              	.LASF465:
 18866 2204 49746572 		.ascii	"IteratorUnsafe\000"
 18866      61746F72 
 18866      556E7361 
 18866      666500
 18867              	.LASF199:
 18868 2213 6C696E65 		.ascii	"line\000"
 18868      00
 18869              	.LASF503:
 18870 2218 6C696E6B 		.ascii	"link\000"
 18870      00
 18871              	.LASF777:
 18872 221d 74686973 		.ascii	"this\000"
 18872      00
 18873              	.LASF423:
 18874 2222 5F5A4E33 		.ascii	"_ZN3r2p10Bootloader5writeEPKvS2_j\000"
 18874      72327031 
 18874      30426F6F 
 18874      746C6F61 
 18874      64657235 
ARM GAS  /tmp/cc5OZvFd.s 			page 352


 18875              	.LASF91:
 18876 2244 466C6173 		.ascii	"Flasher\000"
 18876      68657200 
 18877              	.LASF205:
 18878 224c 6273736C 		.ascii	"bsslen\000"
 18878      656E00
 18879              	.LASF119:
 18880 2253 5F5A4E33 		.ascii	"_ZN3r2p7Flasher18get_program_lengthEv\000"
 18880      72327037 
 18880      466C6173 
 18880      68657231 
 18880      38676574 
 18881              	.LASF370:
 18882 2279 63757270 		.ascii	"curp\000"
 18882      00
 18883              	.LASF336:
 18884 227e 5F5A4E33 		.ascii	"_ZN3r2p6Thread11create_heapEPvjmPFlS1_ES1_PKc\000"
 18884      72327036 
 18884      54687265 
 18884      61643131 
 18884      63726561 
 18885              	.LASF477:
 18886 22ac 6C696E6B 		.ascii	"link_tail_unsafe\000"
 18886      5F746169 
 18886      6C5F756E 
 18886      73616665 
 18886      00
 18887              	.LASF224:
 18888 22bd 64746F72 		.ascii	"dtorslen\000"
 18888      736C656E 
 18888      00
 18889              	.LASF700:
 18890 22c6 75696E74 		.ascii	"uintptr_t\000"
 18890      7074725F 
 18890      7400
 18891              	.LASF432:
 18892 22d0 5F5A4E33 		.ascii	"_ZN3r2p10Bootloader5beginEv\000"
 18892      72327031 
 18892      30426F6F 
 18892      746C6F61 
 18892      64657235 
 18893              	.LASF246:
 18894 22ec 5072696F 		.ascii	"PriorityEnum\000"
 18894      72697479 
 18894      456E756D 
 18894      00
 18895              	.LASF506:
 18896 22f9 5F5A4E33 		.ascii	"_ZN3r2p10StaticListINS_15LocalSubscriberEE6unlinkER"
 18896      72327031 
 18896      30537461 
 18896      7469634C 
 18896      69737449 
 18897 232c 4E53325F 		.ascii	"NS2_4LinkE\000"
 18897      344C696E 
 18897      6B4500
 18898              	.LASF681:
 18899 2337 70756273 		.ascii	"pubsub\000"
ARM GAS  /tmp/cc5OZvFd.s 			page 353


 18899      756200
 18900              	.LASF45:
 18901 233e 5F5A4E33 		.ascii	"_ZN3r2p8Flasher_15set_page_bufferEPt\000"
 18901      72327038 
 18901      466C6173 
 18901      6865725F 
 18901      31357365 
 18902              	.LASF815:
 18903 2363 746F7461 		.ascii	"total\000"
 18903      6C00
 18904              	.LASF679:
 18905 2369 7061796C 		.ascii	"payload\000"
 18905      6F616400 
 18906              	.LASF335:
 18907 2371 5F5A4E33 		.ascii	"_ZN3r2p6Thread13create_staticEPvjmPFlS1_ES1_PKc\000"
 18907      72327036 
 18907      54687265 
 18907      61643133 
 18907      63726561 
 18908              	.LASF579:
 18909 23a1 5F5A4E4B 		.ascii	"_ZNK3r2p10StaticListINS_5TopicEE8index_ofERKS1_\000"
 18909      33723270 
 18909      31305374 
 18909      61746963 
 18909      4C697374 
 18910              	.LASF401:
 18911 23d1 66657463 		.ascii	"fetch\000"
 18911      6800
 18912              	.LASF764:
 18913 23d7 706F6F6C 		.ascii	"pool_header\000"
 18913      5F686561 
 18913      64657200 
 18914              	.LASF22:
 18915 23e3 73747278 		.ascii	"strxfrm\000"
 18915      66726D00 
 18916              	.LASF788:
 18917 23eb 61726770 		.ascii	"argp\000"
 18917      00
 18918              	.LASF418:
 18919 23f0 5F5A4E33 		.ascii	"_ZN3r2p10Bootloader16do_release_errorEmPKc\000"
 18919      72327031 
 18919      30426F6F 
 18919      746C6F61 
 18919      64657231 
 18920              	.LASF642:
 18921 241b 6E6F7469 		.ascii	"notify_locals\000"
 18921      66795F6C 
 18921      6F63616C 
 18921      7300
 18922              	.LASF467:
 18923 2429 436F6E73 		.ascii	"ConstIterator\000"
 18923      74497465 
 18923      7261746F 
 18923      7200
 18924              	.LASF19:
 18925 2437 73747263 		.ascii	"strcoll\000"
 18925      6F6C6C00 
ARM GAS  /tmp/cc5OZvFd.s 			page 354


 18926              	.LASF279:
 18927 243f 6A6F696E 		.ascii	"join\000"
 18927      00
 18928              	.LASF744:
 18929 2444 725F6E65 		.ascii	"r_newer\000"
 18929      77657200 
 18930              	.LASF766:
 18931 244c 31304D65 		.ascii	"10MemoryPool\000"
 18931      6D6F7279 
 18931      506F6F6C 
 18931      00
 18932              	.LASF614:
 18933 2459 6861735F 		.ascii	"has_local_subscribers\000"
 18933      6C6F6361 
 18933      6C5F7375 
 18933      62736372 
 18933      69626572 
 18934              	.LASF738:
 18935 246f 696E7463 		.ascii	"intctx\000"
 18935      747800
 18936              	.LASF453:
 18937 2476 6C61756E 		.ascii	"launch_all\000"
 18937      63685F61 
 18937      6C6C00
 18938              	.LASF112:
 18939 2481 5F5A4E33 		.ascii	"_ZN3r2p7Flasher10align_nextEPKh\000"
 18939      72327037 
 18939      466C6173 
 18939      68657231 
 18939      30616C69 
 18940              	.LASF574:
 18941 24a1 5F5A4E4B 		.ascii	"_ZNK3r2p10StaticListINS_5TopicEE8get_headEv\000"
 18941      33723270 
 18941      31305374 
 18941      61746963 
 18941      4C697374 
 18942              	.LASF390:
 18943 24cd 70756270 		.ascii	"pubp\000"
 18943      00
 18944              	.LASF832:
 18945 24d2 73746174 		.ascii	"static_cast_check<r2p::BootMsg, r2p::Message>\000"
 18945      69635F63 
 18945      6173745F 
 18945      63686563 
 18945      6B3C7232 
 18946              	.LASF114:
 18947 2500 5F5A4E33 		.ascii	"_ZN3r2p7Flasher10align_nextEj\000"
 18947      72327037 
 18947      466C6173 
 18947      68657231 
 18947      30616C69 
 18948              	.LASF577:
 18949 251e 5F5A4E33 		.ascii	"_ZN3r2p10StaticListINS_5TopicEE4linkERNS2_4LinkE\000"
 18949      72327031 
 18949      30537461 
 18949      7469634C 
 18949      69737449 
ARM GAS  /tmp/cc5OZvFd.s 			page 355


 18950              	.LASF11:
 18951 254f 5F5F7569 		.ascii	"__uint32_t\000"
 18951      6E743332 
 18951      5F7400
 18952              	.LASF748:
 18953 255a 4D757465 		.ascii	"Mutex\000"
 18953      7800
 18954              	.LASF222:
 18955 2560 63746F72 		.ascii	"ctorslen\000"
 18955      736C656E 
 18955      00
 18956              	.LASF13:
 18957 2569 6C6F6E67 		.ascii	"long long int\000"
 18957      206C6F6E 
 18957      6720696E 
 18957      7400
 18958              	.LASF144:
 18959 2577 5F5A4E33 		.ascii	"_ZN3r2p7Message21get_msg_from_raw_dataEPKh\000"
 18959      72327037 
 18959      4D657373 
 18959      61676532 
 18959      31676574 
 18960              	.LASF351:
 18961 25a2 6D61696E 		.ascii	"mainf\000"
 18961      6600
 18962              	.LASF749:
 18963 25a8 6D5F7175 		.ascii	"m_queue\000"
 18963      65756500 
 18964              	.LASF286:
 18965 25b0 5F5A4E4B 		.ascii	"_ZNK3r2p11MemoryPool_13get_allocatorEv\000"
 18965      33723270 
 18965      31314D65 
 18965      6D6F7279 
 18965      506F6F6C 
 18966              	.LASF241:
 18967 25d7 61707069 		.ascii	"appinfo_summary\000"
 18967      6E666F5F 
 18967      73756D6D 
 18967      61727900 
 18968              	.LASF406:
 18969 25e7 5F5A4E33 		.ascii	"_ZN3r2p10Bootloader9do_loaderEv\000"
 18969      72327031 
 18969      30426F6F 
 18969      746C6F61 
 18969      64657239 
 18970              	.LASF702:
 18971 2607 746D6F64 		.ascii	"tmode_t\000"
 18971      655F7400 
 18972              	.LASF458:
 18973 260f 5F5A4E33 		.ascii	"_ZN3r2p16SubscriberExtBufINS_7BootMsgEE5fetchERPS1_"
 18973      72327031 
 18973      36537562 
 18973      73637269 
 18973      62657245 
 18974 2642 00       		.ascii	"\000"
 18975              	.LASF811:
 18976 2643 656E6478 		.ascii	"endxp\000"
ARM GAS  /tmp/cc5OZvFd.s 			page 356


 18976      7000
 18977              	.LASF386:
 18978 2649 6F706572 		.ascii	"operator!=\000"
 18978      61746F72 
 18978      213D00
 18979              	.LASF663:
 18980 2654 4D41585F 		.ascii	"MAX_PAYLOAD_LENGTH\000"
 18980      5041594C 
 18980      4F41445F 
 18980      4C454E47 
 18980      544800
 18981              	.LASF507:
 18982 2667 696E6465 		.ascii	"index_of\000"
 18982      785F6F66 
 18982      00
 18983              	.LASF176:
 18984 2670 454E445F 		.ascii	"END_LOADER\000"
 18984      4C4F4144 
 18984      455200
 18985              	.LASF772:
 18986 267b 646F7562 		.ascii	"double\000"
 18986      6C6500
 18987              	.LASF244:
 18988 2682 54687265 		.ascii	"Thread_\000"
 18988      61645F00 
 18989              	.LASF129:
 18990 268a 72656663 		.ascii	"refcount\000"
 18990      6F756E74 
 18990      00
 18991              	.LASF553:
 18992 2693 5F5A4E4B 		.ascii	"_ZNK3r2p10StaticListINS_16RemoteSubscriberEE5beginE"
 18992      33723270 
 18992      31305374 
 18992      61746963 
 18992      4C697374 
 18993 26c6 7600     		.ascii	"v\000"
 18994              	.LASF318:
 18995 26c8 746F5F6D 		.ascii	"to_m\000"
 18995      00
 18996              	.LASF316:
 18997 26cd 746F5F73 		.ascii	"to_s\000"
 18997      00
 18998              	.LASF756:
 18999 26d2 685F6672 		.ascii	"h_free\000"
 18999      656500
 19000              	.LASF415:
 19001 26d9 646F5F65 		.ascii	"do_error\000"
 19001      72726F72 
 19001      00
 19002              	.LASF623:
 19003 26e2 5F5A4E4B 		.ascii	"_ZNK3r2p5Topic25is_awaiting_subscriptionsEv\000"
 19003      33723270 
 19003      35546F70 
 19003      69633235 
 19003      69735F61 
 19004              	.LASF826:
 19005 270e 5F5F7261 		.ascii	"__ram_end__\000"
ARM GAS  /tmp/cc5OZvFd.s 			page 357


 19005      6D5F656E 
 19005      645F5F00 
 19006              	.LASF366:
 19007 271a 69735F76 		.ascii	"is_valid\000"
 19007      616C6964 
 19007      00
 19008              	.LASF297:
 19009 2723 5F5A4E33 		.ascii	"_ZN3r2p11MemoryPool_8get_implEv\000"
 19009      72327031 
 19009      314D656D 
 19009      6F727950 
 19009      6F6F6C5F 
 19010              	.LASF699:
 19011 2743 75696E74 		.ascii	"uintmax_t\000"
 19011      6D61785F 
 19011      7400
 19012              	.LASF454:
 19013 274d 5F5A4E33 		.ascii	"_ZN3r2p10Bootloader10launch_allEv\000"
 19013      72327031 
 19013      30426F6F 
 19013      746C6F61 
 19013      64657231 
 19014              	.LASF587:
 19015 276f 5F5A4E4B 		.ascii	"_ZNK3r2p10StaticListINS_5TopicEE3endEv\000"
 19015      33723270 
 19015      31305374 
 19015      61746963 
 19015      4C697374 
 19016              	.LASF654:
 19017 2796 5F5A4E33 		.ascii	"_ZN3r2p5Topic9subscribeERNS_15LocalSubscriberEj\000"
 19017      72327035 
 19017      546F7069 
 19017      63397375 
 19017      62736372 
 19018              	.LASF763:
 19019 27c6 616C6967 		.ascii	"align\000"
 19019      6E00
 19020              	.LASF429:
 19021 27cc 5F5A4E33 		.ascii	"_ZN3r2p10Bootloader11remove_lastEv\000"
 19021      72327031 
 19021      30426F6F 
 19021      746C6F61 
 19021      64657231 
 19022              	.LASF649:
 19023 27ef 5F5A4E33 		.ascii	"_ZN3r2p5Topic11extend_poolEPNS_7MessageEj\000"
 19023      72327035 
 19023      546F7069 
 19023      63313165 
 19023      7874656E 
 19024              	.LASF771:
 19025 2819 7466756E 		.ascii	"tfunc_t\000"
 19025      635F7400 
 19026              	.LASF181:
 19027 2821 52454D4F 		.ascii	"REMOVE_LAST\000"
 19027      56455F4C 
 19027      41535400 
 19028              	.LASF529:
ARM GAS  /tmp/cc5OZvFd.s 			page 358


 19029 282d 5F5A4E33 		.ascii	"_ZN3r2p10StaticListINS_16RemoteSubscriberEE16link_t"
 19029      72327031 
 19029      30537461 
 19029      7469634C 
 19029      69737449 
 19030 2860 61696C5F 		.ascii	"ail_unsafeERNS2_4LinkE\000"
 19030      756E7361 
 19030      66654552 
 19030      4E53325F 
 19030      344C696E 
 19031              	.LASF20:
 19032 2877 73747265 		.ascii	"strerror\000"
 19032      72726F72 
 19032      00
 19033              	.LASF585:
 19034 2880 5F5A4E33 		.ascii	"_ZN3r2p10StaticListINS_5TopicEE7restartERNS2_8Itera"
 19034      72327031 
 19034      30537461 
 19034      7469634C 
 19034      69737449 
 19035 28b3 746F7245 		.ascii	"torE\000"
 19035      00
 19036              	.LASF494:
 19037 28b8 5F5A4E33 		.ascii	"_ZN3r2p10StaticListINS_15LocalSubscriberEE14restart"
 19037      72327031 
 19037      30537461 
 19037      7469634C 
 19037      69737449 
 19038 28eb 5F756E73 		.ascii	"_unsafeERNS2_14IteratorUnsafeE\000"
 19038      61666545 
 19038      524E5332 
 19038      5F313449 
 19038      74657261 
 19039              	.LASF686:
 19040 290a 42617365 		.ascii	"BasePublisher\000"
 19040      5075626C 
 19040      69736865 
 19040      7200
 19041              	.LASF571:
 19042 2918 5F5A4E4B 		.ascii	"_ZNK3r2p10StaticListINS_5TopicEE12begin_unsafeEv\000"
 19042      33723270 
 19042      31305374 
 19042      61746963 
 19042      4C697374 
 19043              	.LASF86:
 19044 2949 6765745F 		.ascii	"get_ram_end\000"
 19044      72616D5F 
 19044      656E6400 
 19045              	.LASF778:
 19046 2955 62756670 		.ascii	"bufp\000"
 19046      00
 19047              	.LASF132:
 19048 295a 61637175 		.ascii	"acquire_unsafe\000"
 19048      6972655F 
 19048      756E7361 
 19048      666500
 19049              	.LASF303:
ARM GAS  /tmp/cc5OZvFd.s 			page 359


 19050 2969 494E4649 		.ascii	"INFINITEN\000"
 19050      4E495445 
 19050      4E00
 19051              	.LASF166:
 19052 2973 636F756E 		.ascii	"count\000"
 19052      7400
 19053              	.LASF270:
 19054 2979 5F5A4E33 		.ascii	"_ZN3r2p7Thread_4selfEv\000"
 19054      72327037 
 19054      54687265 
 19054      61645F34 
 19054      73656C66 
 19055              	.LASF785:
 19056 2990 68656170 		.ascii	"heapp\000"
 19056      7000
 19057              	.LASF291:
 19058 2996 616C6C6F 		.ascii	"alloc\000"
 19058      6300
 19059              	.LASF338:
 19060 299c 5F5A4E33 		.ascii	"_ZN3r2p6Thread12get_priorityEv\000"
 19060      72327036 
 19060      54687265 
 19060      61643132 
 19060      6765745F 
 19061              	.LASF824:
 19062 29bb 5F5F7072 		.ascii	"__program_end__\000"
 19062      6F677261 
 19062      6D5F656E 
 19062      645F5F00 
 19063              	.LASF35:
 19064 29cb 50524F47 		.ascii	"PROGRAM_ALIGNMENT\000"
 19064      52414D5F 
 19064      414C4947 
 19064      4E4D454E 
 19064      5400
 19065              	.LASF64:
 19066 29dd 72656164 		.ascii	"read\000"
 19066      00
 19067              	.LASF116:
 19068 29e2 5F5A4E33 		.ascii	"_ZN3r2p7Flasher15get_program_endEv\000"
 19068      72327037 
 19068      466C6173 
 19068      68657231 
 19068      35676574 
 19069              	.LASF561:
 19070 2a05 5F5A4E33 		.ascii	"_ZN3r2p10StaticListINS_5TopicEE11link_unsafeERNS2_4"
 19070      72327031 
 19070      30537461 
 19070      7469634C 
 19070      69737449 
 19071 2a38 4C696E6B 		.ascii	"LinkE\000"
 19071      4500
 19072              	.LASF2:
 19073 2a3e 756E7369 		.ascii	"unsigned int\000"
 19073      676E6564 
 19073      20696E74 
 19073      00
ARM GAS  /tmp/cc5OZvFd.s 			page 360


 19074              	.LASF382:
 19075 2a4b 5F5A4E33 		.ascii	"_ZN3r2p10Bootloader8IteratorppEv\000"
 19075      72327031 
 19075      30426F6F 
 19075      746C6F61 
 19075      64657238 
 19076              	.LASF656:
 19077 2a6c 70617463 		.ascii	"patch_pubsub_msg\000"
 19077      685F7075 
 19077      62737562 
 19077      5F6D7367 
 19077      00
 19078              	.LASF358:
 19079 2a7d 636F6D70 		.ascii	"compute_next\000"
 19079      7574655F 
 19079      6E657874 
 19079      00
 19080              	.LASF537:
 19081 2a8a 5F5A4E33 		.ascii	"_ZN3r2p10StaticListINS_16RemoteSubscriberEE14restar"
 19081      72327031 
 19081      30537461 
 19081      7469634C 
 19081      69737449 
 19082 2abd 745F756E 		.ascii	"t_unsafeERNS2_14IteratorUnsafeE\000"
 19082      73616665 
 19082      45524E53 
 19082      325F3134 
 19082      49746572 
 19083              	.LASF511:
 19084 2add 66696E64 		.ascii	"find_first\000"
 19084      5F666972 
 19084      737400
 19085              	.LASF30:
 19086 2ae8 5379734C 		.ascii	"SysLock\000"
 19086      6F636B00 
 19087              	.LASF339:
 19088 2af0 5F5A4E33 		.ascii	"_ZN3r2p6Thread12set_priorityEm\000"
 19088      72327036 
 19088      54687265 
 19088      61643132 
 19088      7365745F 
 19089              	.LASF325:
 19090 2b0f 5F5A4E33 		.ascii	"_ZN3r2p4TimemIERKS0_\000"
 19090      72327034 
 19090      54696D65 
 19090      6D494552 
 19090      4B53305F 
 19091              	.LASF731:
 19092 2b24 705F6D70 		.ascii	"p_mpool\000"
 19092      6F6F6C00 
 19093              	.LASF347:
 19094 2b2c 62737370 		.ascii	"bssp\000"
 19094      00
 19095              	.LASF424:
 19096 2b31 77726974 		.ascii	"write_appinfo\000"
 19096      655F6170 
 19096      70696E66 
ARM GAS  /tmp/cc5OZvFd.s 			page 361


 19096      6F00
 19097              	.LASF774:
 19098 2b3f 76616C75 		.ascii	"valuelen\000"
 19098      656C656E 
 19098      00
 19099              	.LASF576:
 19100 2b48 5F5A4E4B 		.ascii	"_ZNK3r2p10StaticListINS_5TopicEE5countEv\000"
 19100      33723270 
 19100      31305374 
 19100      61746963 
 19100      4C697374 
 19101              	.LASF271:
 19102 2b71 6765745F 		.ascii	"get_priority\000"
 19102      7072696F 
 19102      72697479 
 19102      00
 19103              	.LASF640:
 19104 2b7e 5F5A4E33 		.ascii	"_ZN3r2p5Topic7releaseERNS_7MessageE\000"
 19104      72327035 
 19104      546F7069 
 19104      63377265 
 19104      6C656173 
 19105              	.LASF315:
 19106 2ba2 5F5A4E4B 		.ascii	"_ZNK3r2p4Time5to_msEv\000"
 19106      33723270 
 19106      3454696D 
 19106      6535746F 
 19106      5F6D7345 
 19107              	.LASF607:
 19108 2bb8 5F5A4E4B 		.ascii	"_ZNK3r2p5Topic13is_forwardingEv\000"
 19108      33723270 
 19108      35546F70 
 19108      69633133 
 19108      69735F66 
 19109              	.LASF604:
 19110 2bd8 6765745F 		.ascii	"get_max_queue_length\000"
 19110      6D61785F 
 19110      71756575 
 19110      655F6C65 
 19110      6E677468 
 19111              	.LASF541:
 19112 2bed 5F5A4E4B 		.ascii	"_ZNK3r2p10StaticListINS_16RemoteSubscriberEE8get_he"
 19112      33723270 
 19112      31305374 
 19112      61746963 
 19112      4C697374 
 19113 2c20 61644576 		.ascii	"adEv\000"
 19113      00
 19114              	.LASF267:
 19115 2c25 63726561 		.ascii	"create_pool\000"
 19115      74655F70 
 19115      6F6F6C00 
 19116              	.LASF513:
 19117 2c31 5F5A4E4B 		.ascii	"_ZNK3r2p10StaticListINS_15LocalSubscriberEE10find_f"
 19117      33723270 
 19117      31305374 
 19117      61746963 
ARM GAS  /tmp/cc5OZvFd.s 			page 362


 19117      4C697374 
 19118 2c64 69727374 		.ascii	"irstEPFbRKS1_PKvES6_\000"
 19118      45504662 
 19118      524B5331 
 19118      5F504B76 
 19118      4553365F 
 19119              	.LASF289:
 19120 2c79 66726565 		.ascii	"free_unsafe\000"
 19120      5F756E73 
 19120      61666500 
 19121              	.LASF534:
 19122 2c85 5F5A4E4B 		.ascii	"_ZNK3r2p10StaticListINS_16RemoteSubscriberEE17find_"
 19122      33723270 
 19122      31305374 
 19122      61746963 
 19122      4C697374 
 19123 2cb8 66697273 		.ascii	"first_unsafeEPFbRKS1_PKvES6_\000"
 19123      745F756E 
 19123      73616665 
 19123      45504662 
 19123      524B5331 
 19124              	.LASF655:
 19125 2cd5 5F5A4E33 		.ascii	"_ZN3r2p5Topic9subscribeERNS_16RemoteSubscriberEj\000"
 19125      72327035 
 19125      546F7069 
 19125      63397375 
 19125      62736372 
 19126              	.LASF154:
 19127 2d06 4D657373 		.ascii	"MessageType\000"
 19127      61676554 
 19127      79706500 
 19128              	.LASF657:
 19129 2d12 5F5A4E4B 		.ascii	"_ZNK3r2p5Topic16patch_pubsub_msgERNS_7MessageERNS_9"
 19129      33723270 
 19129      35546F70 
 19129      69633136 
 19129      70617463 
 19130 2d45 5472616E 		.ascii	"TransportE\000"
 19130      73706F72 
 19130      744500
 19131              	.LASF307:
 19132 2d50 5F5A4E4B 		.ascii	"_ZNK3r2p4Time9to_ms_rawEv\000"
 19132      33723270 
 19132      3454696D 
 19132      6539746F 
 19132      5F6D735F 
 19133              	.LASF462:
 19134 2d6a 6E657874 		.ascii	"nextp\000"
 19134      7000
 19135              	.LASF292:
 19136 2d70 5F5A4E33 		.ascii	"_ZN3r2p11MemoryPool_5allocEv\000"
 19136      72327031 
 19136      314D656D 
 19136      6F727950 
 19136      6F6F6C5F 
 19137              	.LASF611:
 19138 2d8d 5F5A4E4B 		.ascii	"_ZNK3r2p5Topic21has_remote_publishersEv\000"
ARM GAS  /tmp/cc5OZvFd.s 			page 363


 19138      33723270 
 19138      35546F70 
 19138      69633231 
 19138      6861735F 
 19139              	.LASF518:
 19140 2db5 5F5A4E33 		.ascii	"_ZN3r2p10StaticListINS_15LocalSubscriberEE3endEv\000"
 19140      72327031 
 19140      30537461 
 19140      7469634C 
 19140      69737449 
 19141              	.LASF476:
 19142 2de6 6C696E6B 		.ascii	"link_unsafe\000"
 19142      5F756E73 
 19142      61666500 
 19143              	.LASF622:
 19144 2df2 69735F61 		.ascii	"is_awaiting_subscriptions\000"
 19144      77616974 
 19144      696E675F 
 19144      73756273 
 19144      63726970 
 19145              	.LASF691:
 19146 2e0c 636F6D70 		.ascii	"compute_chunk_size<unsigned char>\000"
 19146      7574655F 
 19146      6368756E 
 19146      6B5F7369 
 19146      7A653C75 
 19147              	.LASF98:
 19148 2e2e 5F5A4E33 		.ascii	"_ZN3r2p7Flasher13erase_alignedEPKtj\000"
 19148      72327037 
 19148      466C6173 
 19148      68657231 
 19148      33657261 
 19149              	.LASF28:
 19150 2e52 5F5A4E33 		.ascii	"_ZN3r2p8SysLock_7acquireEv\000"
 19150      72327038 
 19150      5379734C 
 19150      6F636B5F 
 19150      37616371 
 19151              	.LASF172:
 19152 2e6d 5F5A4E4B 		.ascii	"_ZNK3r2p10IhexRecord16compute_checksumEv\000"
 19152      33723270 
 19152      31304968 
 19152      65785265 
 19152      636F7264 
 19153              	.LASF526:
 19154 2e96 5F5A4E4B 		.ascii	"_ZNK3r2p10StaticListINS_16RemoteSubscriberEE15is_em"
 19154      33723270 
 19154      31305374 
 19154      61746963 
 19154      4C697374 
 19155 2ec9 7074795F 		.ascii	"pty_unsafeEv\000"
 19155      756E7361 
 19155      66654576 
 19155      00
 19156              	.LASF228:
 19157 2ed6 70676D73 		.ascii	"pgmstartadr\000"
 19157      74617274 
ARM GAS  /tmp/cc5OZvFd.s 			page 364


 19157      61647200 
 19158              	.LASF299:
 19159 2ee2 54797065 		.ascii	"Type\000"
 19159      00
 19160              	.LASF689:
 19161 2ee7 7075626C 		.ascii	"publish_remotely\000"
 19161      6973685F 
 19161      72656D6F 
 19161      74656C79 
 19161      00
 19162              	.LASF167:
 19163 2ef8 6F666673 		.ascii	"offset\000"
 19163      657400
 19164              	.LASF206:
 19165 2eff 64617461 		.ascii	"datalen\000"
 19165      6C656E00 
 19166              	.LASF684:
 19167 2f07 63686563 		.ascii	"check_bounds\000"
 19167      6B5F626F 
 19167      756E6473 
 19167      00
 19168              	.LASF802:
 19169 2f14 6F757463 		.ascii	"outcome\000"
 19169      6F6D6500 
 19170              	.LASF474:
 19171 2f1c 636F756E 		.ascii	"count_unsafe\000"
 19171      745F756E 
 19171      73616665 
 19171      00
 19172              	.LASF455:
 19173 2f29 5F5A4E33 		.ascii	"_ZN3r2p9PublisherINS_7BootMsgEE5allocERPS1_\000"
 19173      72327039 
 19173      5075626C 
 19173      69736865 
 19173      72494E53 
 19174              	.LASF41:
 19175 2f55 70616765 		.ascii	"page\000"
 19175      00
 19176              	.LASF431:
 19177 2f5a 5F5A4E33 		.ascii	"_ZN3r2p10Bootloader10remove_allEv\000"
 19177      72327031 
 19177      30426F6F 
 19177      746C6F61 
 19177      64657231 
 19178              	.LASF724:
 19179 2f7c 705F7469 		.ascii	"p_time\000"
 19179      6D6500
 19180              	.LASF411:
 19181 2f83 646F5F73 		.ascii	"do_setparam\000"
 19181      65747061 
 19181      72616D00 
 19182              	.LASF633:
 19183 2f8f 5F5A4E33 		.ascii	"_ZN3r2p5Topic21notify_remotes_unsafeERNS_7MessageER"
 19183      72327035 
 19183      546F7069 
 19183      6332316E 
 19183      6F746966 
ARM GAS  /tmp/cc5OZvFd.s 			page 365


 19184 2fc2 4B4E535F 		.ascii	"KNS_4TimeE\000"
 19184      3454696D 
 19184      654500
 19185              	.LASF313:
 19186 2fcd 5F5A4E4B 		.ascii	"_ZNK3r2p4Time5to_usEv\000"
 19186      33723270 
 19186      3454696D 
 19186      6535746F 
 19186      5F757345 
 19187              	.LASF446:
 19188 2fe3 5F5A4E33 		.ascii	"_ZN3r2p10Bootloader11reserve_ramEj\000"
 19188      72327031 
 19188      30426F6F 
 19188      746C6F61 
 19188      64657231 
 19189              	.LASF263:
 19190 3006 63726561 		.ascii	"create_static\000"
 19190      74655F73 
 19190      74617469 
 19190      6300
 19191              	.LASF782:
 19192 3014 5F5A4E33 		.ascii	"_ZN3r2p7FlasherC2EPt\000"
 19192      72327037 
 19192      466C6173 
 19192      68657243 
 19192      32455074 
 19193              	.LASF323:
 19194 3029 5F5A4E33 		.ascii	"_ZN3r2p4TimepLERKS0_\000"
 19194      72327034 
 19194      54696D65 
 19194      704C4552 
 19194      4B53305F 
 19195              	.LASF807:
 19196 303e 74617267 		.ascii	"targetp\000"
 19196      65747000 
 19197              	.LASF543:
 19198 3046 5F5A4E4B 		.ascii	"_ZNK3r2p10StaticListINS_16RemoteSubscriberEE5countE"
 19198      33723270 
 19198      31305374 
 19198      61746963 
 19198      4C697374 
 19199 3079 7600     		.ascii	"v\000"
 19200              	.LASF106:
 19201 307b 5F5A4E33 		.ascii	"_ZN3r2p7Flasher4readEtPt\000"
 19201      72327037 
 19201      466C6173 
 19201      68657234 
 19201      72656164 
 19202              	.LASF168:
 19203 3094 74797065 		.ascii	"type\000"
 19203      00
 19204              	.LASF310:
 19205 3099 746F5F6D 		.ascii	"to_m_raw\000"
 19205      5F726177 
 19205      00
 19206              	.LASF345:
 19207 30a2 466C6173 		.ascii	"FlashAppInfo\000"
ARM GAS  /tmp/cc5OZvFd.s 			page 366


 19207      68417070 
 19207      496E666F 
 19207      00
 19208              	.LASF75:
 19209 30af 5F5A4E33 		.ascii	"_ZN3r2p8Flasher_10align_prevEPKh\000"
 19209      72327038 
 19209      466C6173 
 19209      6865725F 
 19209      3130616C 
 19210              	.LASF796:
 19211 30d0 73756363 		.ascii	"success\000"
 19211      65737300 
 19212              	.LASF833:
 19213 30d8 5F5A4E33 		.ascii	"_ZN3r2p10Bootloader20an_invalid_signatureE\000"
 19213      72327031 
 19213      30426F6F 
 19213      746C6F61 
 19213      64657232 
 19214              	.LASF83:
 19215 3103 5F5A4E33 		.ascii	"_ZN3r2p8Flasher_18get_program_lengthEv\000"
 19215      72327038 
 19215      466C6173 
 19215      6865725F 
 19215      31386765 
 19216              	.LASF331:
 19217 312a 54696D65 		.ascii	"Time<long int>\000"
 19217      3C6C6F6E 
 19217      6720696E 
 19217      743E00
 19218              	.LASF50:
 19219 3139 5F5A4E33 		.ascii	"_ZN3r2p8Flasher_13erase_alignedEPKtj\000"
 19219      72327038 
 19219      466C6173 
 19219      6865725F 
 19219      31336572 
 19220              	.LASF760:
 19221 315e 6E657874 		.ascii	"next\000"
 19221      00
 19222              	.LASF249:
 19223 3163 4C4F5745 		.ascii	"LOWEST\000"
 19223      535400
 19224              	.LASF616:
 19225 316a 6861735F 		.ascii	"has_remote_subscribers\000"
 19225      72656D6F 
 19225      74655F73 
 19225      75627363 
 19225      72696265 
 19226              	.LASF163:
 19227 3181 53544152 		.ascii	"START_SEGMENT_ADDRESS\000"
 19227      545F5345 
 19227      474D454E 
 19227      545F4144 
 19227      44524553 
 19228              	.LASF236:
 19229 3197 6572726F 		.ascii	"error_info\000"
 19229      725F696E 
 19229      666F00
ARM GAS  /tmp/cc5OZvFd.s 			page 367


 19230              	.LASF400:
 19231 31a2 5F5A4E33 		.ascii	"_ZN3r2p10Bootloader7publishEv\000"
 19231      72327031 
 19231      30426F6F 
 19231      746C6F61 
 19231      64657237 
 19232              	.LASF197:
 19233 31c0 75696E74 		.ascii	"uintegral\000"
 19233      65677261 
 19233      6C00
 19234              	.LASF550:
 19235 31ca 5F5A4E33 		.ascii	"_ZN3r2p10StaticListINS_16RemoteSubscriberEE5beginEv"
 19235      72327031 
 19235      30537461 
 19235      7469634C 
 19235      69737449 
 19236 31fd 00       		.ascii	"\000"
 19237              	.LASF281:
 19238 31fe 4D656D6F 		.ascii	"MemoryPool_\000"
 19238      7279506F 
 19238      6F6C5F00 
 19239              	.LASF769:
 19240 320a 6D705F70 		.ascii	"mp_provider\000"
 19240      726F7669 
 19240      64657200 
 19241              	.LASF29:
 19242 3216 5F5A4E33 		.ascii	"_ZN3r2p8SysLock_7releaseEv\000"
 19242      72327038 
 19242      5379734C 
 19242      6F636B5F 
 19242      3772656C 
 19243              	.LASF409:
 19244 3231 646F5F67 		.ascii	"do_getparam\000"
 19244      65747061 
 19244      72616D00 
 19245              	.LASF516:
 19246 323d 5F5A4E33 		.ascii	"_ZN3r2p10StaticListINS_15LocalSubscriberEE7restartE"
 19246      72327031 
 19246      30537461 
 19246      7469634C 
 19246      69737449 
 19247 3270 524E5332 		.ascii	"RNS2_8IteratorE\000"
 19247      5F384974 
 19247      65726174 
 19247      6F724500 
 19248              	.LASF830:
 19249 3280 5F5A4E33 		.ascii	"_ZN3r2p4Time3nowEv\000"
 19249      72327034 
 19249      54696D65 
 19249      336E6F77 
 19249      457600
 19250              	.LASF44:
 19251 3293 62656769 		.ascii	"begin\000"
 19251      6E00
 19252              	.LASF170:
 19253 3299 63686563 		.ascii	"checksum\000"
 19253      6B73756D 
ARM GAS  /tmp/cc5OZvFd.s 			page 368


 19253      00
 19254              	.LASF707:
 19255 32a2 6576656E 		.ascii	"eventmask_t\000"
 19255      746D6173 
 19255      6B5F7400 
 19256              	.LASF135:
 19257 32ae 5F5A4E33 		.ascii	"_ZN3r2p7Message14release_unsafeEv\000"
 19257      72327037 
 19257      4D657373 
 19257      61676531 
 19257      3472656C 
 19258              	.LASF667:
 19259 32d0 746F7069 		.ascii	"topic\000"
 19259      6300
 19260              	.LASF156:
 19261 32d6 4E616D69 		.ascii	"NamingTraits<r2p::Middleware>\000"
 19261      6E675472 
 19261      61697473 
 19261      3C723270 
 19261      3A3A4D69 
 19262              	.LASF427:
 19263 32f4 5F5A4E33 		.ascii	"_ZN3r2p10Bootloader12process_ihexERKNS_10IhexRecord"
 19263      72327031 
 19263      30426F6F 
 19263      746C6F61 
 19263      64657231 
 19264 3327 45524B4E 		.ascii	"ERKNS_7BootMsg12LinkingSetupERKNS4_16LinkingAddress"
 19264      535F3742 
 19264      6F6F744D 
 19264      73673132 
 19264      4C696E6B 
 19265 335a 65734500 		.ascii	"esE\000"
 19266              	.LASF159:
 19267 335e 49686578 		.ascii	"IhexRecord\000"
 19267      5265636F 
 19267      726400
 19268              	.LASF217:
 19269 3369 4C696E6B 		.ascii	"LinkingOutcome\000"
 19269      696E674F 
 19269      7574636F 
 19269      6D6500
 19270              	.LASF330:
 19271 3378 5F5A4E33 		.ascii	"_ZN3r2p4Time2hzEd\000"
 19271      72327034 
 19271      54696D65 
 19271      32687A45 
 19271      6400
 19272              	.LASF36:
 19273 338a 574F5244 		.ascii	"WORD_ALIGNMENT\000"
 19273      5F414C49 
 19273      474E4D45 
 19273      4E5400
 19274              	.LASF758:
 19275 3399 466C6167 		.ascii	"Flags\000"
 19275      7300
 19276              	.LASF753:
 19277 339f 4D656D6F 		.ascii	"MemoryHeap\000"
ARM GAS  /tmp/cc5OZvFd.s 			page 369


 19277      72794865 
 19277      617000
 19278              	.LASF682:
 19279 33aa 54657374 		.ascii	"Test\000"
 19279      00
 19280              	.LASF740:
 19281 33af 39526561 		.ascii	"9ReadyList\000"
 19281      64794C69 
 19281      737400
 19282              	.LASF533:
 19283 33ba 5F5A4E4B 		.ascii	"_ZNK3r2p10StaticListINS_16RemoteSubscriberEE17find_"
 19283      33723270 
 19283      31305374 
 19283      61746963 
 19283      4C697374 
 19284 33ed 66697273 		.ascii	"first_unsafeEPFbRKS1_E\000"
 19284      745F756E 
 19284      73616665 
 19284      45504662 
 19284      524B5331 
 19285              	.LASF441:
 19286 3404 6765745F 		.ascii	"get_app\000"
 19286      61707000 
 19287              	.LASF52:
 19288 340c 5F5A4E33 		.ascii	"_ZN3r2p8Flasher_5flashEPKhS2_j\000"
 19288      72327038 
 19288      466C6173 
 19288      6865725F 
 19288      35666C61 
 19289              	.LASF522:
 19290 342b 4974656D 		.ascii	"Item\000"
 19290      00
 19291              	.LASF301:
 19292 3430 494D4D45 		.ascii	"IMMEDIATE\000"
 19292      44494154 
 19292      4500
 19293              	.LASF473:
 19294 343a 5F5A4E4B 		.ascii	"_ZNK3r2p10StaticListINS_15LocalSubscriberEE15is_emp"
 19294      33723270 
 19294      31305374 
 19294      61746963 
 19294      4C697374 
 19295 346d 74795F75 		.ascii	"ty_unsafeEv\000"
 19295      6E736166 
 19295      65457600 
 19296              	.LASF389:
 19297 3479 666C6173 		.ascii	"flasher\000"
 19297      68657200 
 19298              	.LASF452:
 19299 3481 5F5A4E33 		.ascii	"_ZN3r2p10Bootloader19app_threadf_wrapperEPv\000"
 19299      72327031 
 19299      30426F6F 
 19299      746C6F61 
 19299      64657231 
 19300              	.LASF762:
 19301 34ad 73697A65 		.ascii	"size\000"
 19301      00
ARM GAS  /tmp/cc5OZvFd.s 			page 370


 19302              	.LASF765:
 19303 34b2 70685F6E 		.ascii	"ph_next\000"
 19303      65787400 
 19304              	.LASF207:
 19305 34ba 73746163 		.ascii	"stacklen\000"
 19305      6B6C656E 
 19305      00
 19306              	.LASF348:
 19307 34c3 64617461 		.ascii	"datap\000"
 19307      7000
 19308              	.LASF15:
 19309 34c9 6C6F6E67 		.ascii	"long long unsigned int\000"
 19309      206C6F6E 
 19309      6720756E 
 19309      7369676E 
 19309      65642069 
 19310              	.LASF343:
 19311 34e0 426F6F74 		.ascii	"Bootloader\000"
 19311      6C6F6164 
 19311      657200
 19312              	.LASF396:
 19313 34eb 5F5A4E33 		.ascii	"_ZN3r2p10Bootloader9spin_loopEv\000"
 19313      72327031 
 19313      30426F6F 
 19313      746C6F61 
 19313      64657239 
 19314              	.LASF589:
 19315 350b 546F7069 		.ascii	"Topic\000"
 19315      6300
 19316              	.LASF51:
 19317 3511 666C6173 		.ascii	"flash\000"
 19317      6800
 19318              	.LASF693:
 19319 3517 75696E74 		.ascii	"uint8_t\000"
 19319      385F7400 
 19320              	.LASF463:
 19321 351f 6974656D 		.ascii	"itemp\000"
 19321      7000
 19322              	.LASF483:
 19323 3525 5F5A4E4B 		.ascii	"_ZNK3r2p10StaticListINS_15LocalSubscriberEE15index_"
 19323      33723270 
 19323      31305374 
 19323      61746963 
 19323      4C697374 
 19324 3558 6F665F75 		.ascii	"of_unsafeERKS1_\000"
 19324      6E736166 
 19324      6545524B 
 19324      53315F00 
 19325              	.LASF89:
 19326 3568 5F5A4E33 		.ascii	"_ZN3r2p8Flasher_14get_ram_lengthEv\000"
 19326      72327038 
 19326      466C6173 
 19326      6865725F 
 19326      31346765 
 19327              	.LASF194:
 19328 358b 6C656E67 		.ascii	"length\000"
 19328      746800
ARM GAS  /tmp/cc5OZvFd.s 			page 371


 19329              	.LASF669:
 19330 3592 4D41585F 		.ascii	"MAX_RAW_PARAMS_LENGTH\000"
 19330      5241575F 
 19330      50415241 
 19330      4D535F4C 
 19330      454E4754 
 19331              	.LASF130:
 19332 35a8 6765745F 		.ascii	"get_raw_data\000"
 19332      7261775F 
 19332      64617461 
 19332      00
 19333              	.LASF828:
 19334 35b5 2F6F7074 		.ascii	"/opt/R2P/core/Middleware/src/Bootloader.cpp\000"
 19334      2F523250 
 19334      2F636F72 
 19334      652F4D69 
 19334      64646C65 
 19335              	.LASF723:
 19336 35e1 705F7265 		.ascii	"p_refs\000"
 19336      667300
 19337              	.LASF282:
 19338 35e8 416C6C6F 		.ascii	"Allocator\000"
 19338      6361746F 
 19338      7200
 19339              	.LASF600:
 19340 35f2 6765745F 		.ascii	"get_publish_timeout\000"
 19340      7075626C 
 19340      6973685F 
 19340      74696D65 
 19340      6F757400 
 19341              	.LASF706:
 19342 3606 6D73675F 		.ascii	"msg_t\000"
 19342      7400
 19343              	.LASF444:
 19344 360c 5F5A4E33 		.ascii	"_ZN3r2p10Bootloader17compute_addressesERKNS_7BootMs"
 19344      72327031 
 19344      30426F6F 
 19344      746C6F61 
 19344      64657231 
 19345 363f 6731324C 		.ascii	"g12LinkingSetupERNS1_16LinkingAddressesE\000"
 19345      696E6B69 
 19345      6E675365 
 19345      74757045 
 19345      524E5331 
 19346              	.LASF395:
 19347 3668 7370696E 		.ascii	"spin_loop\000"
 19347      5F6C6F6F 
 19347      7000
 19348              	.LASF801:
 19349 3672 61646472 		.ascii	"addresses\000"
 19349      65737365 
 19349      7300
 19350              	.LASF417:
 19351 367c 646F5F72 		.ascii	"do_release_error\000"
 19351      656C6561 
 19351      73655F65 
 19351      72726F72 
ARM GAS  /tmp/cc5OZvFd.s 			page 372


 19351      00
 19352              	.LASF562:
 19353 368d 5F5A4E33 		.ascii	"_ZN3r2p10StaticListINS_5TopicEE16link_tail_unsafeER"
 19353      72327031 
 19353      30537461 
 19353      7469634C 
 19353      69737449 
 19354 36c0 4E53325F 		.ascii	"NS2_4LinkE\000"
 19354      344C696E 
 19354      6B4500
 19355              	.LASF499:
 19356 36cb 5F5A4E4B 		.ascii	"_ZNK3r2p10StaticListINS_15LocalSubscriberEE8get_hea"
 19356      33723270 
 19356      31305374 
 19356      61746963 
 19356      4C697374 
 19357 36fe 64457600 		.ascii	"dEv\000"
 19358              	.LASF547:
 19359 3702 5F5A4E4B 		.ascii	"_ZNK3r2p10StaticListINS_16RemoteSubscriberEE8contai"
 19359      33723270 
 19359      31305374 
 19359      61746963 
 19359      4C697374 
 19360 3735 6E734552 		.ascii	"nsERKS1_\000"
 19360      4B53315F 
 19360      00
 19361              	.LASF509:
 19362 373e 636F6E74 		.ascii	"contains\000"
 19362      61696E73 
 19362      00
 19363              	.LASF552:
 19364 3747 5F5A4E33 		.ascii	"_ZN3r2p10StaticListINS_16RemoteSubscriberEE7restart"
 19364      72327031 
 19364      30537461 
 19364      7469634C 
 19364      69737449 
 19365 377a 45524E53 		.ascii	"ERNS2_8IteratorE\000"
 19365      325F3849 
 19365      74657261 
 19365      746F7245 
 19365      00
 19366              	.LASF569:
 19367 378b 5F5A4E33 		.ascii	"_ZN3r2p10StaticListINS_5TopicEE10end_unsafeEv\000"
 19367      72327031 
 19367      30537461 
 19367      7469634C 
 19367      69737449 
 19368              	.LASF563:
 19369 37b9 5F5A4E33 		.ascii	"_ZN3r2p10StaticListINS_5TopicEE13unlink_unsafeERNS2"
 19369      72327031 
 19369      30537461 
 19369      7469634C 
 19369      69737449 
 19370 37ec 5F344C69 		.ascii	"_4LinkE\000"
 19370      6E6B4500 
 19371              	.LASF296:
 19372 37f4 5F5A4E33 		.ascii	"_ZN3r2p11MemoryPool_6extendEPvj\000"
ARM GAS  /tmp/cc5OZvFd.s 			page 373


 19372      72327031 
 19372      314D656D 
 19372      6F727950 
 19372      6F6F6C5F 
 19373              	.LASF746:
 19374 3814 725F6375 		.ascii	"r_current\000"
 19374      7272656E 
 19374      7400
 19375              	.LASF73:
 19376 381e 5F5A4E33 		.ascii	"_ZN3r2p8Flasher_7page_ofEPKh\000"
 19376      72327038 
 19376      466C6173 
 19376      6865725F 
 19376      37706167 
 19377              	.LASF136:
 19378 383b 72657365 		.ascii	"reset_unsafe\000"
 19378      745F756E 
 19378      73616665 
 19378      00
 19379              	.LASF243:
 19380 3848 70617261 		.ascii	"param_chunk\000"
 19380      6D5F6368 
 19380      756E6B00 
 19381              	.LASF300:
 19382 3854 65726173 		.ascii	"erased_word\000"
 19382      65645F77 
 19382      6F726400 
 19383              	.LASF33:
 19384 3860 466C6173 		.ascii	"Flasher_\000"
 19384      6865725F 
 19384      00
 19385              	.LASF426:
 19386 3869 70726F63 		.ascii	"process_ihex\000"
 19386      6573735F 
 19386      69686578 
 19386      00
 19387              	.LASF200:
 19388 3876 72656173 		.ascii	"reason\000"
 19388      6F6E00
 19389              	.LASF799:
 19390 387d 6D736770 		.ascii	"msgp\000"
 19390      00
 19391              	.LASF750:
 19392 3882 6D5F6F77 		.ascii	"m_owner\000"
 19392      6E657200 
 19393              	.LASF695:
 19394 388a 696E7433 		.ascii	"int32_t\000"
 19394      325F7400 
 19395              	.LASF162:
 19396 3892 45585445 		.ascii	"EXTENDED_SEGMENT_ADDRESS\000"
 19396      4E444544 
 19396      5F534547 
 19396      4D454E54 
 19396      5F414444 
 19397              	.LASF795:
 19398 38ab 65787065 		.ascii	"expected_type\000"
 19398      63746564 
ARM GAS  /tmp/cc5OZvFd.s 			page 374


 19398      5F747970 
 19398      6500
 19399              	.LASF322:
 19400 38b9 6F706572 		.ascii	"operator+=\000"
 19400      61746F72 
 19400      2B3D00
 19401              	.LASF615:
 19402 38c4 5F5A4E4B 		.ascii	"_ZNK3r2p5Topic21has_local_subscribersEv\000"
 19402      33723270 
 19402      35546F70 
 19402      69633231 
 19402      6861735F 
 19403              	.LASF661:
 19404 38ec 5472616E 		.ascii	"Transport\000"
 19404      73706F72 
 19404      7400
 19405              	.LASF61:
 19406 38f6 5F5A4E33 		.ascii	"_ZN3r2p8Flasher_5eraseEt\000"
 19406      72327038 
 19406      466C6173 
 19406      6865725F 
 19406      35657261 
 19407              	.LASF687:
 19408 390f 5F5A4E33 		.ascii	"_ZN3r2p13BasePublisher12alloc_unsafeERPNS_7MessageE"
 19408      72327031 
 19408      33426173 
 19408      65507562 
 19408      6C697368 
 19409 3942 00       		.ascii	"\000"
 19410              	.LASF177:
 19411 3943 4C494E4B 		.ascii	"LINKING_SETUP\000"
 19411      494E475F 
 19411      53455455 
 19411      5000
 19412              	.LASF593:
 19413 3951 6E756D5F 		.ascii	"num_local_publishers\000"
 19413      6C6F6361 
 19413      6C5F7075 
 19413      626C6973 
 19413      68657273 
 19414              	.LASF383:
 19415 3966 5F5A4E33 		.ascii	"_ZN3r2p10Bootloader8IteratorppEi\000"
 19415      72327031 
 19415      30426F6F 
 19415      746C6F61 
 19415      64657238 
 19416              	.LASF798:
 19417 3987 73726370 		.ascii	"srcp\000"
 19417      00
 19418              	.LASF359:
 19419 398c 5F5A4E33 		.ascii	"_ZN3r2p10Bootloader12FlashAppInfo12compute_nextEPKS"
 19419      72327031 
 19419      30426F6F 
 19419      746C6F61 
 19419      64657231 
 19420 39bf 315F6A6A 		.ascii	"1_jj\000"
 19420      00
ARM GAS  /tmp/cc5OZvFd.s 			page 375


 19421              	.LASF165:
 19422 39c4 53544152 		.ascii	"START_LINEAR_ADDRESS\000"
 19422      545F4C49 
 19422      4E454152 
 19422      5F414444 
 19422      52455353 
 19423              	.LASF87:
 19424 39d9 5F5A4E33 		.ascii	"_ZN3r2p8Flasher_11get_ram_endEv\000"
 19424      72327038 
 19424      466C6173 
 19424      6865725F 
 19424      31316765 
 19425              	.LASF757:
 19426 39f9 685F6D74 		.ascii	"h_mtx\000"
 19426      7800
 19427              	.LASF231:
 19428 39ff 72616D65 		.ascii	"ramendadr\000"
 19428      6E646164 
 19428      7200
 19429              	.LASF404:
 19430 3a09 5F5A4E33 		.ascii	"_ZN3r2p10Bootloader7releaseEv\000"
 19430      72327031 
 19430      30426F6F 
 19430      746C6F61 
 19430      64657237 
 19431              	.LASF42:
 19432 3a27 4C656E67 		.ascii	"Length\000"
 19432      746800
 19433              	.LASF173:
 19434 3a2e 426F6F74 		.ascii	"BootMsg\000"
 19434      4D736700 
 19435              	.LASF787:
 19436 3a36 74687265 		.ascii	"threadf\000"
 19436      61646600 
 19437              	.LASF219:
 19438 3a3e 63666761 		.ascii	"cfgadr\000"
 19438      647200
 19439              	.LASF186:
 19440 3a45 42454749 		.ascii	"BEGIN_SETPARAM\000"
 19440      4E5F5345 
 19440      54504152 
 19440      414D00
 19441              	.LASF67:
 19442 3a54 5F5A4E33 		.ascii	"_ZN3r2p8Flasher_5writeEtPVKt\000"
 19442      72327038 
 19442      466C6173 
 19442      6865725F 
 19442      35777269 
 19443              	.LASF196:
 19444 3a71 696E7465 		.ascii	"integral\000"
 19444      6772616C 
 19444      00
 19445              	.LASF60:
 19446 3a7a 5F5A4E33 		.ascii	"_ZN3r2p8Flasher_9is_erasedEt\000"
 19446      72327038 
 19446      466C6173 
 19446      6865725F 
ARM GAS  /tmp/cc5OZvFd.s 			page 376


 19446      3969735F 
 19447              	.LASF626:
 19448 3a97 5F5A4E4B 		.ascii	"_ZNK3r2p5Topic23compute_deadline_unsafeEv\000"
 19448      33723270 
 19448      35546F70 
 19448      69633233 
 19448      636F6D70 
 19449              	.LASF16:
 19450 3ac1 5F5F7569 		.ascii	"__uintptr_t\000"
 19450      6E747074 
 19450      725F7400 
 19451              	.LASF380:
 19452 3acd 5F5A4E4B 		.ascii	"_ZNK3r2p10Bootloader8IteratorcvRKNS0_12FlashAppInfo"
 19452      33723270 
 19452      3130426F 
 19452      6F746C6F 
 19452      61646572 
 19453 3b00 45457600 		.ascii	"EEv\000"
 19454              	.LASF683:
 19455 3b04 42617365 		.ascii	"Base\000"
 19455      00
 19456              	.LASF184:
 19457 3b09 454E445F 		.ascii	"END_APPINFO\000"
 19457      41505049 
 19457      4E464F00 
 19458              	.LASF822:
 19459 3b15 726C6973 		.ascii	"rlist\000"
 19459      7400
 19460              	.LASF540:
 19461 3b1b 5F5A4E4B 		.ascii	"_ZNK3r2p10StaticListINS_16RemoteSubscriberEE14resta"
 19461      33723270 
 19461      31305374 
 19461      61746963 
 19461      4C697374 
 19462 3b4e 72745F75 		.ascii	"rt_unsafeERNS2_19ConstIteratorUnsafeE\000"
 19462      6E736166 
 19462      6545524E 
 19462      53325F31 
 19462      39436F6E 
 19463              	.LASF111:
 19464 3b74 5F5A4E33 		.ascii	"_ZN3r2p7Flasher10align_prevEPKh\000"
 19464      72327037 
 19464      466C6173 
 19464      68657231 
 19464      30616C69 
 19465              	.LASF155:
 19466 3b94 4D41585F 		.ascii	"MAX_LENGTH\000"
 19466      4C454E47 
 19466      544800
 19467              	.LASF38:
 19468 3b9f 70616765 		.ascii	"page_modified\000"
 19468      5F6D6F64 
 19468      69666965 
 19468      6400
 19469              	.LASF76:
 19470 3bad 616C6967 		.ascii	"align_next\000"
 19470      6E5F6E65 
ARM GAS  /tmp/cc5OZvFd.s 			page 377


 19470      787400
 19471              	.LASF434:
 19472 3bb8 5F5A4E33 		.ascii	"_ZN3r2p10Bootloader12get_num_appsEv\000"
 19472      72327031 
 19472      30426F6F 
 19472      746C6F61 
 19472      64657231 
 19473              	.LASF78:
 19474 3bdc 6765745F 		.ascii	"get_program_start\000"
 19474      70726F67 
 19474      72616D5F 
 19474      73746172 
 19474      7400
 19475              	.LASF630:
 19476 3bee 6E6F7469 		.ascii	"notify_locals_unsafe\000"
 19476      66795F6C 
 19476      6F63616C 
 19476      735F756E 
 19476      73616665 
 19477              	.LASF486:
 19478 3c03 66696E64 		.ascii	"find_first_unsafe\000"
 19478      5F666972 
 19478      73745F75 
 19478      6E736166 
 19478      6500
 19479              	.LASF260:
 19480 3c15 5F5A4E33 		.ascii	"_ZN3r2p7Thread_8get_implEv\000"
 19480      72327037 
 19480      54687265 
 19480      61645F38 
 19480      6765745F 
 19481              	.LASF74:
 19482 3c30 616C6967 		.ascii	"align_prev\000"
 19482      6E5F7072 
 19482      657600
 19483              	.LASF327:
 19484 3c3b 5F5A4E33 		.ascii	"_ZN3r2p4Time2msEl\000"
 19484      72327034 
 19484      54696D65 
 19484      326D7345 
 19484      6C00
 19485              	.LASF174:
 19486 3c4d 4E41434B 		.ascii	"NACK\000"
 19486      00
 19487              	.LASF140:
 19488 3c52 72657365 		.ascii	"reset\000"
 19488      7400
 19489              	.LASF408:
 19490 3c58 5F5A4E33 		.ascii	"_ZN3r2p10Bootloader10do_appinfoEv\000"
 19490      72327031 
 19490      30426F6F 
 19490      746C6F61 
 19490      64657231 
 19491              	.LASF40:
 19492 3c7a 50616765 		.ascii	"PageID\000"
 19492      494400
 19493              	.LASF92:
ARM GAS  /tmp/cc5OZvFd.s 			page 378


 19494 3c81 696D706C 		.ascii	"impl\000"
 19494      00
 19495              	.LASF776:
 19496 3c86 736C6F74 		.ascii	"slotlen\000"
 19496      6C656E00 
 19497              	.LASF90:
 19498 3c8e 6A756D70 		.ascii	"jump_to\000"
 19498      5F746F00 
 19499              	.LASF208:
 19500 3c96 6E616D65 		.ascii	"name\000"
 19500      00
 19501              	.LASF419:
 19502 3c9b 62656769 		.ascii	"begin_write\000"
 19502      6E5F7772 
 19502      69746500 
 19503              	.LASF448:
 19504 3ca7 5F5A4E33 		.ascii	"_ZN3r2p10Bootloader13unreserve_ramEj\000"
 19504      72327031 
 19504      30426F6F 
 19504      746C6F61 
 19504      64657231 
 19505              	.LASF188:
 19506 3ccc 42454749 		.ascii	"BEGIN_GETPARAM\000"
 19506      4E5F4745 
 19506      54504152 
 19506      414D00
 19507              	.LASF584:
 19508 3cdb 5F5A4E33 		.ascii	"_ZN3r2p10StaticListINS_5TopicEE3endEv\000"
 19508      72327031 
 19508      30537461 
 19508      7469634C 
 19508      69737449 
 19509              	.LASF559:
 19510 3d01 5F5A4E4B 		.ascii	"_ZNK3r2p10StaticListINS_5TopicEE15is_empty_unsafeEv"
 19510      33723270 
 19510      31305374 
 19510      61746963 
 19510      4C697374 
 19511 3d34 00       		.ascii	"\000"
 19512              	.LASF21:
 19513 3d35 73747274 		.ascii	"strtok\000"
 19513      6F6B00
 19514              	.LASF46:
 19515 3d3c 5F5A4E33 		.ascii	"_ZN3r2p8Flasher_5beginEv\000"
 19515      72327038 
 19515      466C6173 
 19515      6865725F 
 19515      35626567 
 19516              	.LASF39:
 19517 3d55 44617461 		.ascii	"Data\000"
 19517      00
 19518              	.LASF6:
 19519 3d5a 73686F72 		.ascii	"short int\000"
 19519      7420696E 
 19519      7400
 19520              	.LASF790:
 19521 3d64 64656C61 		.ascii	"delay\000"
ARM GAS  /tmp/cc5OZvFd.s 			page 379


 19521      7900
 19522              	.LASF521:
 19523 3d6a 53746174 		.ascii	"StaticList\000"
 19523      69634C69 
 19523      737400
 19524              	.LASF625:
 19525 3d75 5F5A4E4B 		.ascii	"_ZNK3r2p5Topic23compute_deadline_unsafeERKNS_4TimeE"
 19525      33723270 
 19525      35546F70 
 19525      69633233 
 19525      636F6D70 
 19526 3da8 00       		.ascii	"\000"
 19527              	.LASF727:
 19528 3da9 705F6D73 		.ascii	"p_msg\000"
 19528      6700
 19529              	.LASF697:
 19530 3daf 75696E74 		.ascii	"uint64_t\000"
 19530      36345F74 
 19530      00
 19531              	.LASF783:
 19532 3db8 74797065 		.ascii	"type_size\000"
 19532      5F73697A 
 19532      6500
 19533              	.LASF356:
 19534 3dc2 636F6D70 		.ascii	"compute_data_program\000"
 19534      7574655F 
 19534      64617461 
 19534      5F70726F 
 19534      6772616D 
 19535              	.LASF786:
 19536 3dd7 7072696F 		.ascii	"priority\000"
 19536      72697479 
 19536      00
 19537              	.LASF498:
 19538 3de0 6765745F 		.ascii	"get_head\000"
 19538      68656164 
 19538      00
 19539              	.LASF443:
 19540 3de9 636F6D70 		.ascii	"compute_addresses\000"
 19540      7574655F 
 19540      61646472 
 19540      65737365 
 19540      7300
 19541              	.LASF398:
 19542 3dfb 5F5A4E33 		.ascii	"_ZN3r2p10Bootloader5allocENS_7BootMsg8TypeEnumE\000"
 19542      72327031 
 19542      30426F6F 
 19542      746C6F61 
 19542      64657235 
 19543              	.LASF551:
 19544 3e2b 5F5A4E33 		.ascii	"_ZN3r2p10StaticListINS_16RemoteSubscriberEE3endEv\000"
 19544      72327031 
 19544      30537461 
 19544      7469634C 
 19544      69737449 
 19545              	.LASF180:
 19546 3e5d 49484558 		.ascii	"IHEX_RECORD\000"
ARM GAS  /tmp/cc5OZvFd.s 			page 380


 19546      5F524543 
 19546      4F524400 
 19547              	.LASF482:
 19548 3e69 696E6465 		.ascii	"index_of_unsafe\000"
 19548      785F6F66 
 19548      5F756E73 
 19548      61666500 
 19549              	.LASF258:
 19550 3e79 5F5A4E4B 		.ascii	"_ZNK3r2p7Thread_8get_nameEv\000"
 19550      33723270 
 19550      37546872 
 19550      6561645F 
 19550      38676574 
 19551              	.LASF619:
 19552 3e95 5F5A4E4B 		.ascii	"_ZNK3r2p5Topic15has_subscribersEv\000"
 19552      33723270 
 19552      35546F70 
 19552      69633135 
 19552      6861735F 
 19553              	.LASF104:
 19554 3eb7 5F5A4E33 		.ascii	"_ZN3r2p7Flasher5eraseEt\000"
 19554      72327037 
 19554      466C6173 
 19554      68657235 
 19554      65726173 
 19555              	.LASF381:
 19556 3ecf 6F706572 		.ascii	"operator++\000"
 19556      61746F72 
 19556      2B2B00
 19557              	.LASF225:
 19558 3eda 41707049 		.ascii	"AppInfoSummary\000"
 19558      6E666F53 
 19558      756D6D61 
 19558      727900
 19559              	.LASF586:
 19560 3ee9 5F5A4E4B 		.ascii	"_ZNK3r2p10StaticListINS_5TopicEE5beginEv\000"
 19560      33723270 
 19560      31305374 
 19560      61746963 
 19560      4C697374 
 19561              	.LASF185:
 19562 3f12 41505049 		.ascii	"APPINFO_SUMMARY\000"
 19562      4E464F5F 
 19562      53554D4D 
 19562      41525900 
 19563              	.LASF326:
 19564 3f22 5F5A4E33 		.ascii	"_ZN3r2p4Time2usEl\000"
 19564      72327034 
 19564      54696D65 
 19564      32757345 
 19564      6C00
 19565              	.LASF818:
 19566 3f34 61707069 		.ascii	"appinfop\000"
 19566      6E666F70 
 19566      00
 19567              	.LASF113:
 19568 3f3d 5F5A4E33 		.ascii	"_ZN3r2p7Flasher10align_prevEj\000"
ARM GAS  /tmp/cc5OZvFd.s 			page 381


 19568      72327037 
 19568      466C6173 
 19568      68657231 
 19568      30616C69 
 19569              	.LASF742:
 19570 3f5b 725F7072 		.ascii	"r_prio\000"
 19570      696F00
 19571              	.LASF312:
 19572 3f62 746F5F75 		.ascii	"to_us\000"
 19572      7300
 19573              	.LASF821:
 19574 3f68 5F5A4E33 		.ascii	"_ZN3r2p4TimeC2IlEET_\000"
 19574      72327034 
 19574      54696D65 
 19574      4332496C 
 19574      4545545F 
 19575              	.LASF718:
 19576 3f7d 705F6F6C 		.ascii	"p_older\000"
 19576      64657200 
 19577              	.LASF118:
 19578 3f85 5F5A4E33 		.ascii	"_ZN3r2p7Flasher11get_ram_endEv\000"
 19578      72327037 
 19578      466C6173 
 19578      68657231 
 19578      31676574 
 19579              	.LASF794:
 19580 3fa4 5F5A4E33 		.ascii	"_ZN3r2p10Bootloader8IteratorC2EPKNS0_12FlashAppInfo"
 19580      72327031 
 19580      30426F6F 
 19580      746C6F61 
 19580      64657238 
 19581 3fd7 4500     		.ascii	"E\000"
 19582              	.LASF220:
 19583 3fd9 6366676C 		.ascii	"cfglen\000"
 19583      656E00
 19584              	.LASF566:
 19585 3fe0 5F5A4E4B 		.ascii	"_ZNK3r2p10StaticListINS_5TopicEE17find_first_unsafe"
 19585      33723270 
 19585      31305374 
 19585      61746963 
 19585      4C697374 
 19586 4013 45504662 		.ascii	"EPFbRKS1_E\000"
 19586      524B5331 
 19586      5F4500
 19587              	.LASF445:
 19588 401e 72657365 		.ascii	"reserve_ram\000"
 19588      7276655F 
 19588      72616D00 
 19589              	.LASF422:
 19590 402a 5F5A4E33 		.ascii	"_ZN3r2p10Bootloader9end_writeEv\000"
 19590      72327031 
 19590      30426F6F 
 19590      746C6F61 
 19590      64657239 
 19591              	.LASF612:
 19592 404a 6861735F 		.ascii	"has_publishers\000"
 19592      7075626C 
ARM GAS  /tmp/cc5OZvFd.s 			page 382


 19592      69736865 
 19592      727300
 19593              	.LASF570:
 19594 4059 5F5A4E33 		.ascii	"_ZN3r2p10StaticListINS_5TopicEE14restart_unsafeERNS"
 19594      72327031 
 19594      30537461 
 19594      7469634C 
 19594      69737449 
 19595 408c 325F3134 		.ascii	"2_14IteratorUnsafeE\000"
 19595      49746572 
 19595      61746F72 
 19595      556E7361 
 19595      66654500 
 19596              	.LASF151:
 19597 40a0 5F5A4E33 		.ascii	"_ZN3r2p7Message13reset_payloadINS_7BootMsgEEEvRT_\000"
 19597      72327037 
 19597      4D657373 
 19597      61676531 
 19597      33726573 
 19598              	.LASF365:
 19599 40d2 5F5A4E4B 		.ascii	"_ZNK3r2p10Bootloader12FlashAppInfo8get_nextEv\000"
 19599      33723270 
 19599      3130426F 
 19599      6F746C6F 
 19599      61646572 
 19600              	.LASF716:
 19601 4100 705F6374 		.ascii	"p_ctx\000"
 19601      7800
 19602              	.LASF459:
 19603 4106 5F5A4E33 		.ascii	"_ZN3r2p16SubscriberExtBufINS_7BootMsgEE7releaseERS1"
 19603      72327031 
 19603      36537562 
 19603      73637269 
 19603      62657245 
 19604 4139 5F00     		.ascii	"_\000"
 19605              	.LASF814:
 19606 413b 5F5A4E33 		.ascii	"_ZN3r2p10BootloaderC2EPtRNS_9PublisherINS_7BootMsgE"
 19606      72327031 
 19606      30426F6F 
 19606      746C6F61 
 19606      64657243 
 19607 416e 4545524E 		.ascii	"EERNS_16SubscriberExtBufIS3_EE\000"
 19607      535F3136 
 19607      53756273 
 19607      63726962 
 19607      65724578 
 19608              	.LASF63:
 19609 418d 5F5A4E33 		.ascii	"_ZN3r2p8Flasher_7compareEtPVKt\000"
 19609      72327038 
 19609      466C6173 
 19609      6865725F 
 19609      37636F6D 
 19610              	.LASF392:
 19611 41ac 6D617374 		.ascii	"master_msgp\000"
 19611      65725F6D 
 19611      73677000 
 19612              	.LASF609:
ARM GAS  /tmp/cc5OZvFd.s 			page 383


 19613 41b8 5F5A4E4B 		.ascii	"_ZNK3r2p5Topic20has_local_publishersEv\000"
 19613      33723270 
 19613      35546F70 
 19613      69633230 
 19613      6861735F 
 19614              	.LASF332:
 19615 41df 54687265 		.ascii	"Thread\000"
 19615      616400
 19616              	.LASF775:
 19617 41e6 736C6F74 		.ascii	"slotp\000"
 19617      7000
 19618              	.LASF590:
 19619 41ec 6E616D65 		.ascii	"namep\000"
 19619      7000
 19620              	.LASF139:
 19621 41f2 5F5A4E33 		.ascii	"_ZN3r2p7Message7releaseEv\000"
 19621      72327037 
 19621      4D657373 
 19621      61676537 
 19621      72656C65 
 19622              	.LASF421:
 19623 420c 656E645F 		.ascii	"end_write\000"
 19623      77726974 
 19623      6500
 19624              	.LASF47:
 19625 4216 666C6173 		.ascii	"flash_aligned\000"
 19625      685F616C 
 19625      69676E65 
 19625      6400
 19626              	.LASF346:
 19627 4224 7369676E 		.ascii	"signature\000"
 19627      61747572 
 19627      6500
 19628              	.LASF439:
 19629 422e 6765745F 		.ascii	"get_last_app\000"
 19629      6C617374 
 19629      5F617070 
 19629      00
 19630              	.LASF447:
 19631 423b 756E7265 		.ascii	"unreserve_ram\000"
 19631      73657276 
 19631      655F7261 
 19631      6D00
 19632              	.LASF284:
 19633 4249 5F5A4E4B 		.ascii	"_ZNK3r2p11MemoryPool_13get_item_sizeEv\000"
 19633      33723270 
 19633      31314D65 
 19633      6D6F7279 
 19633      506F6F6C 
 19634              	.LASF823:
 19635 4270 5F5F7072 		.ascii	"__program_start__\000"
 19635      6F677261 
 19635      6D5F7374 
 19635      6172745F 
 19635      5F00
 19636              	.LASF115:
 19637 4282 5F5A4E33 		.ascii	"_ZN3r2p7Flasher17get_program_startEv\000"
ARM GAS  /tmp/cc5OZvFd.s 			page 384


 19637      72327037 
 19637      466C6173 
 19637      68657231 
 19637      37676574 
 19638              	.LASF812:
 19639 42a7 6C617374 		.ascii	"lastp\000"
 19639      7000
 19640              	.LASF678:
 19641 42ad 72657365 		.ascii	"reserved_\000"
 19641      72766564 
 19641      5F00
 19642              	.LASF659:
 19643 42b7 4C6F6361 		.ascii	"LocalPublisher\000"
 19643      6C507562 
 19643      6C697368 
 19643      657200
 19644              	.LASF373:
 19645 42c6 6F706572 		.ascii	"operator->\000"
 19645      61746F72 
 19645      2D3E00
 19646              	.LASF363:
 19647 42d1 5F5A4E4B 		.ascii	"_ZNK3r2p10Bootloader12FlashAppInfo16get_data_progra"
 19647      33723270 
 19647      3130426F 
 19647      6F746C6F 
 19647      61646572 
 19648 4304 6D457600 		.ascii	"mEv\000"
 19649              	.LASF664:
 19650 4308 50617468 		.ascii	"Path\000"
 19650      00
 19651              	.LASF53:
 19652 430d 65726173 		.ascii	"erase\000"
 19652      6500
 19653              	.LASF242:
 19654 4313 70617261 		.ascii	"param_request\000"
 19654      6D5F7265 
 19654      71756573 
 19654      7400
 19655              	.LASF354:
 19656 4321 636F6D70 		.ascii	"compute_program\000"
 19656      7574655F 
 19656      70726F67 
 19656      72616D00 
 19657              	.LASF704:
 19658 4331 74726566 		.ascii	"trefs_t\000"
 19658      735F7400 
 19659              	.LASF49:
 19660 4339 5F5A4E33 		.ascii	"_ZN3r2p8Flasher_13flash_alignedEPKtS2_j\000"
 19660      72327038 
 19660      466C6173 
 19660      6865725F 
 19660      3133666C 
 19661              	.LASF741:
 19662 4361 725F7175 		.ascii	"r_queue\000"
 19662      65756500 
 19663              	.LASF770:
 19664 4369 4D656D6F 		.ascii	"MemoryPool\000"
ARM GAS  /tmp/cc5OZvFd.s 			page 385


 19664      7279506F 
 19664      6F6C00
 19665              	.LASF457:
 19666 4374 53756273 		.ascii	"SubscriberExtBuf<r2p::BootMsg>\000"
 19666      63726962 
 19666      65724578 
 19666      74427566 
 19666      3C723270 
 19667              	.LASF107:
 19668 4393 5F5A4E33 		.ascii	"_ZN3r2p7Flasher5writeEtPKt\000"
 19668      72327037 
 19668      466C6173 
 19668      68657235 
 19668      77726974 
 19669              	.LASF451:
 19670 43ae 6170705F 		.ascii	"app_threadf_wrapper\000"
 19670      74687265 
 19670      6164665F 
 19670      77726170 
 19670      70657200 
 19671              	.LASF255:
 19672 43c2 52657475 		.ascii	"Return\000"
 19672      726E00
 19673              	.LASF227:
 19674 43c9 66726565 		.ascii	"freeadr\000"
 19674      61647200 
 19675              	.LASF784:
 19676 43d1 6D696C6C 		.ascii	"milliseconds\000"
 19676      69736563 
 19676      6F6E6473 
 19676      00
 19677              	.LASF153:
 19678 43de 5F5A4E33 		.ascii	"_ZN3r2p7Message16get_payload_sizeINS_7BootMsgEEEjv\000"
 19678      72327037 
 19678      4D657373 
 19678      61676531 
 19678      36676574 
 19679              	.LASF805:
 19680 4411 72657175 		.ascii	"request\000"
 19680      65737400 
 19681              	.LASF294:
 19682 4419 5F5A4E33 		.ascii	"_ZN3r2p11MemoryPool_4freeEPv\000"
 19682      72327031 
 19682      314D656D 
 19682      6F727950 
 19682      6F6F6C5F 
 19683              	.LASF485:
 19684 4436 5F5A4E4B 		.ascii	"_ZNK3r2p10StaticListINS_15LocalSubscriberEE15contai"
 19684      33723270 
 19684      31305374 
 19684      61746963 
 19684      4C697374 
 19685 4469 6E735F75 		.ascii	"ns_unsafeERKS1_\000"
 19685      6E736166 
 19685      6545524B 
 19685      53315F00 
 19686              	.LASF779:
ARM GAS  /tmp/cc5OZvFd.s 			page 386


 19687 4479 6275666C 		.ascii	"buflen\000"
 19687      656E00
 19688              	.LASF517:
 19689 4480 5F5A4E4B 		.ascii	"_ZNK3r2p10StaticListINS_15LocalSubscriberEE5beginEv"
 19689      33723270 
 19689      31305374 
 19689      61746963 
 19689      4C697374 
 19690 44b3 00       		.ascii	"\000"
 19691              	.LASF601:
 19692 44b4 5F5A4E4B 		.ascii	"_ZNK3r2p5Topic19get_publish_timeoutEv\000"
 19692      33723270 
 19692      35546F70 
 19692      69633139 
 19692      6765745F 
 19693              	.LASF302:
 19694 44da 494E4649 		.ascii	"INFINITE\000"
 19694      4E495445 
 19694      00
 19695              	.LASF442:
 19696 44e3 5F5A4E33 		.ascii	"_ZN3r2p10Bootloader7get_appEPKc\000"
 19696      72327031 
 19696      30426F6F 
 19696      746C6F61 
 19696      64657237 
 19697              	.LASF109:
 19698 4503 5F5A4E33 		.ascii	"_ZN3r2p7Flasher10address_ofEt\000"
 19698      72327037 
 19698      466C6173 
 19698      68657231 
 19698      30616464 
 19699              	.LASF385:
 19700 4521 5F5A4E4B 		.ascii	"_ZNK3r2p10Bootloader8IteratoreqERKS1_\000"
 19700      33723270 
 19700      3130426F 
 19700      6F746C6F 
 19700      61646572 
 19701              	.LASF602:
 19702 4547 5F5A4E4B 		.ascii	"_ZNK3r2p5Topic13get_type_sizeEv\000"
 19702      33723270 
 19702      35546F70 
 19702      69633133 
 19702      6765745F 
 19703              	.LASF324:
 19704 4567 6F706572 		.ascii	"operator-=\000"
 19704      61746F72 
 19704      2D3D00
 19705              	.LASF189:
 19706 4572 454E445F 		.ascii	"END_GETPARAM\000"
 19706      47455450 
 19706      4152414D 
 19706      00
 19707              	.LASF768:
 19708 457f 6D705F6F 		.ascii	"mp_object_size\000"
 19708      626A6563 
 19708      745F7369 
 19708      7A6500
ARM GAS  /tmp/cc5OZvFd.s 			page 387


 19709              	.LASF413:
 19710 458e 646F5F61 		.ascii	"do_ack\000"
 19710      636B00
 19711              	.LASF732:
 19712 4595 54687265 		.ascii	"ThreadsQueue\000"
 19712      61647351 
 19712      75657565 
 19712      00
 19713              	.LASF304:
 19714 45a2 746F5F75 		.ascii	"to_us_raw\000"
 19714      735F7261 
 19714      7700
 19715              	.LASF714:
 19716 45ac 705F7072 		.ascii	"p_prev\000"
 19716      657600
 19717              	.LASF729:
 19718 45b3 705F6D74 		.ascii	"p_mtxlist\000"
 19718      786C6973 
 19718      7400
 19719              	.LASF27:
 19720 45bd 72656C65 		.ascii	"release\000"
 19720      61736500 
 19721              	.LASF490:
 19722 45c5 5F5A4E33 		.ascii	"_ZN3r2p10StaticListINS_15LocalSubscriberEE12begin_u"
 19722      72327031 
 19722      30537461 
 19722      7469634C 
 19722      69737449 
 19723 45f8 6E736166 		.ascii	"nsafeEv\000"
 19723      65457600 
 19724              	.LASF450:
 19725 4600 5F5A4E33 		.ascii	"_ZN3r2p10Bootloader6launchEPKc\000"
 19725      72327031 
 19725      30426F6F 
 19725      746C6F61 
 19725      64657236 
 19726              	.LASF235:
 19727 461f 4D41585F 		.ascii	"MAX_DATA_LENGTH\000"
 19727      44415441 
 19727      5F4C454E 
 19727      47544800 
 19728              	.LASF502:
 19729 462f 5F5A4E4B 		.ascii	"_ZNK3r2p10StaticListINS_15LocalSubscriberEE5countEv"
 19729      33723270 
 19729      31305374 
 19729      61746963 
 19729      4C697374 
 19730 4662 00       		.ascii	"\000"
 19731              	.LASF232:
 19732 4663 50617261 		.ascii	"ParamRequest\000"
 19732      6D526571 
 19732      75657374 
 19732      00
 19733              	.LASF319:
 19734 4670 5F5A4E4B 		.ascii	"_ZNK3r2p4Time4to_mEv\000"
 19734      33723270 
 19734      3454696D 
ARM GAS  /tmp/cc5OZvFd.s 			page 388


 19734      6534746F 
 19734      5F6D4576 
 19735              	.LASF652:
 19736 4685 5F5A4E33 		.ascii	"_ZN3r2p5Topic9advertiseERNS_15RemotePublisherERKNS_"
 19736      72327035 
 19736      546F7069 
 19736      63396164 
 19736      76657274 
 19737 46b8 3454696D 		.ascii	"4TimeE\000"
 19737      654500
 19738              	.LASF285:
 19739 46bf 6765745F 		.ascii	"get_allocator\000"
 19739      616C6C6F 
 19739      6361746F 
 19739      7200
 19740              	.LASF293:
 19741 46cd 66726565 		.ascii	"free\000"
 19741      00
 19742              	.LASF128:
 19743 46d2 52656663 		.ascii	"RefcountType\000"
 19743      6F756E74 
 19743      54797065 
 19743      00
 19744              	.LASF514:
 19745 46df 5F5A4E33 		.ascii	"_ZN3r2p10StaticListINS_15LocalSubscriberEE5beginEv\000"
 19745      72327031 
 19745      30537461 
 19745      7469634C 
 19745      69737449 
 19746              	.LASF337:
 19747 4712 5F5A4E33 		.ascii	"_ZN3r2p6Thread4selfEv\000"
 19747      72327036 
 19747      54687265 
 19747      61643473 
 19747      656C6645 
 19748              	.LASF141:
 19749 4728 5F5A4E33 		.ascii	"_ZN3r2p7Message5resetEv\000"
 19749      72327037 
 19749      4D657373 
 19749      61676535 
 19749      72657365 
 19750              	.LASF328:
 19751 4740 5F5A4E33 		.ascii	"_ZN3r2p4Time1sEl\000"
 19751      72327034 
 19751      54696D65 
 19751      3173456C 
 19751      00
 19752              	.LASF361:
 19753 4751 5F5A4E4B 		.ascii	"_ZNK3r2p10Bootloader12FlashAppInfo11get_programEv\000"
 19753      33723270 
 19753      3130426F 
 19753      6F746C6F 
 19753      61646572 
 19754              	.LASF675:
 19755 4783 73746F70 		.ascii	"stopped\000"
 19755      70656400 
 19756              	.LASF388:
ARM GAS  /tmp/cc5OZvFd.s 			page 389


 19757 478b 62617365 		.ascii	"basep\000"
 19757      7000
 19758              	.LASF8:
 19759 4791 73686F72 		.ascii	"short unsigned int\000"
 19759      7420756E 
 19759      7369676E 
 19759      65642069 
 19759      6E7400
 19760              	.LASF438:
 19761 47a4 5F5A4E33 		.ascii	"_ZN3r2p10Bootloader12get_free_appEv\000"
 19761      72327031 
 19761      30426F6F 
 19761      746C6F61 
 19761      64657231 
 19762              	.LASF545:
 19763 47c8 5F5A4E33 		.ascii	"_ZN3r2p10StaticListINS_16RemoteSubscriberEE6unlinkE"
 19763      72327031 
 19763      30537461 
 19763      7469634C 
 19763      69737449 
 19764 47fb 524E5332 		.ascii	"RNS2_4LinkE\000"
 19764      5F344C69 
 19764      6E6B4500 
 19765              	.LASF212:
 19766 4807 70676D61 		.ascii	"pgmadr\000"
 19766      647200
 19767              	.LASF226:
 19768 480e 6E756D61 		.ascii	"numapps\000"
 19768      70707300 
 19769              	.LASF69:
 19770 4816 5F5A4E33 		.ascii	"_ZN3r2p8Flasher_15write_if_neededEtPVKt\000"
 19770      72327038 
 19770      466C6173 
 19770      6865725F 
 19770      31357772 
 19771              	.LASF608:
 19772 483e 6861735F 		.ascii	"has_local_publishers\000"
 19772      6C6F6361 
 19772      6C5F7075 
 19772      626C6973 
 19772      68657273 
 19773              	.LASF352:
 19774 4853 63746F72 		.ascii	"ctorsp\000"
 19774      737000
 19775              	.LASF216:
 19776 485a 6E657874 		.ascii	"nextadr\000"
 19776      61647200 
 19777              	.LASF508:
 19778 4862 5F5A4E4B 		.ascii	"_ZNK3r2p10StaticListINS_15LocalSubscriberEE8index_o"
 19778      33723270 
 19778      31305374 
 19778      61746963 
 19778      4C697374 
 19779 4895 6645524B 		.ascii	"fERKS1_\000"
 19779      53315F00 
 19780              	.LASF720:
 19781 489d 705F7374 		.ascii	"p_stklimit\000"
ARM GAS  /tmp/cc5OZvFd.s 			page 390


 19781      6B6C696D 
 19781      697400
 19782              	.LASF72:
 19783 48a8 70616765 		.ascii	"page_of\000"
 19783      5F6F6600 
 19784              	.LASF557:
 19785 48b0 53746174 		.ascii	"StaticList<r2p::Topic>\000"
 19785      69634C69 
 19785      73743C72 
 19785      32703A3A 
 19785      546F7069 
 19786              	.LASF767:
 19787 48c7 6D705F6E 		.ascii	"mp_next\000"
 19787      65787400 
 19788              	.LASF621:
 19789 48cf 5F5A4E4B 		.ascii	"_ZNK3r2p5Topic26is_awaiting_advertisementsEv\000"
 19789      33723270 
 19789      35546F70 
 19789      69633236 
 19789      69735F61 
 19790              	.LASF357:
 19791 48fc 5F5A4E33 		.ascii	"_ZN3r2p10Bootloader12FlashAppInfo20compute_data_pro"
 19791      72327031 
 19791      30426F6F 
 19791      746C6F61 
 19791      64657231 
 19792 492f 6772616D 		.ascii	"gramEPKS1_jj\000"
 19792      45504B53 
 19792      315F6A6A 
 19792      00
 19793              	.LASF9:
 19794 493c 5F5F696E 		.ascii	"__int32_t\000"
 19794      7433325F 
 19794      7400
 19795              	.LASF556:
 19796 4946 52656D6F 		.ascii	"RemoteSubscriber\000"
 19796      74655375 
 19796      62736372 
 19796      69626572 
 19796      00
 19797              	.LASF831:
 19798 4957 5F5A4E33 		.ascii	"_ZN3r2p10Bootloader3endEv\000"
 19798      72327031 
 19798      30426F6F 
 19798      746C6F61 
 19798      64657233 
 19799              	.LASF647:
 19800 4971 5F5A4E33 		.ascii	"_ZN3r2p5Topic12forward_copyERKNS_7MessageERKNS_4Tim"
 19800      72327035 
 19800      546F7069 
 19800      63313266 
 19800      6F727761 
 19801 49a4 654500   		.ascii	"eE\000"
 19802              	.LASF591:
 19803 49a7 7075626C 		.ascii	"publish_timeout\000"
 19803      6973685F 
 19803      74696D65 
ARM GAS  /tmp/cc5OZvFd.s 			page 391


 19803      6F757400 
 19804              	.LASF254:
 19805 49b7 46756E63 		.ascii	"Function\000"
 19805      74696F6E 
 19805      00
 19806              	.LASF371:
 19807 49c0 49746572 		.ascii	"Iterator\000"
 19807      61746F72 
 19807      00
 19808              	.LASF487:
 19809 49c9 5F5A4E4B 		.ascii	"_ZNK3r2p10StaticListINS_15LocalSubscriberEE17find_f"
 19809      33723270 
 19809      31305374 
 19809      61746963 
 19809      4C697374 
 19810 49fc 69727374 		.ascii	"irst_unsafeEPFbRKS1_E\000"
 19810      5F756E73 
 19810      61666545 
 19810      50466252 
 19810      4B53315F 
 19811              	.LASF751:
 19812 4a12 6D5F6E65 		.ascii	"m_next\000"
 19812      787400
 19813              	.LASF606:
 19814 4a19 69735F66 		.ascii	"is_forwarding\000"
 19814      6F727761 
 19814      7264696E 
 19814      6700
 19815              	.LASF672:
 19816 4a27 7261775F 		.ascii	"raw_params\000"
 19816      70617261 
 19816      6D7300
 19817              	.LASF582:
 19818 4a32 5F5A4E4B 		.ascii	"_ZNK3r2p10StaticListINS_5TopicEE10find_firstEPFbRKS"
 19818      33723270 
 19818      31305374 
 19818      61746963 
 19818      4C697374 
 19819 4a65 315F504B 		.ascii	"1_PKvES6_\000"
 19819      76455336 
 19819      5F00
 19820              	.LASF717:
 19821 4a6f 705F6E65 		.ascii	"p_newer\000"
 19821      77657200 
 19822              	.LASF747:
 19823 4a77 52656164 		.ascii	"ReadyList\000"
 19823      794C6973 
 19823      7400
 19824              	.LASF147:
 19825 4a81 6765745F 		.ascii	"get_type_size\000"
 19825      74797065 
 19825      5F73697A 
 19825      6500
 19826              	.LASF646:
 19827 4a8f 666F7277 		.ascii	"forward_copy\000"
 19827      6172645F 
 19827      636F7079 
ARM GAS  /tmp/cc5OZvFd.s 			page 392


 19827      00
 19828              	.LASF178:
 19829 4a9c 4C494E4B 		.ascii	"LINKING_ADDRESSES\000"
 19829      494E475F 
 19829      41444452 
 19829      45535345 
 19829      5300
 19830              	.LASF368:
 19831 4aae 6861735F 		.ascii	"has_name\000"
 19831      6E616D65 
 19831      00
 19832              	.LASF719:
 19833 4ab7 705F6E61 		.ascii	"p_name\000"
 19833      6D6500
 19834              	.LASF290:
 19835 4abe 5F5A4E33 		.ascii	"_ZN3r2p11MemoryPool_11free_unsafeEPv\000"
 19835      72327031 
 19835      314D656D 
 19835      6F727950 
 19835      6F6F6C5F 
 19836              	.LASF497:
 19837 4ae3 5F5A4E4B 		.ascii	"_ZNK3r2p10StaticListINS_15LocalSubscriberEE14restar"
 19837      33723270 
 19837      31305374 
 19837      61746963 
 19837      4C697374 
 19838 4b16 745F756E 		.ascii	"t_unsafeERNS2_19ConstIteratorUnsafeE\000"
 19838      73616665 
 19838      45524E53 
 19838      325F3139 
 19838      436F6E73 
 19839              	.LASF430:
 19840 4b3b 72656D6F 		.ascii	"remove_all\000"
 19840      76655F61 
 19840      6C6C00
 19841              	.LASF696:
 19842 4b46 75696E74 		.ascii	"uint32_t\000"
 19842      33325F74 
 19842      00
 19843              	.LASF56:
 19844 4b4f 5F5A4E33 		.ascii	"_ZN3r2p8Flasher_10is_alignedEPKv\000"
 19844      72327038 
 19844      466C6173 
 19844      6865725F 
 19844      31306973 
 19845              	.LASF536:
 19846 4b70 5F5A4E33 		.ascii	"_ZN3r2p10StaticListINS_16RemoteSubscriberEE10end_un"
 19846      72327031 
 19846      30537461 
 19846      7469634C 
 19846      69737449 
 19847 4ba3 73616665 		.ascii	"safeEv\000"
 19847      457600
 19848              	.LASF146:
 19849 4baa 5F5A4E33 		.ascii	"_ZN3r2p7Message16get_payload_sizeEj\000"
 19849      72327037 
 19849      4D657373 
ARM GAS  /tmp/cc5OZvFd.s 			page 393


 19849      61676531 
 19849      36676574 
 19850              	.LASF597:
 19851 4bce 6D61785F 		.ascii	"max_queue_length\000"
 19851      71756575 
 19851      655F6C65 
 19851      6E677468 
 19851      00
 19852              	.LASF470:
 19853 4bdf 6765745F 		.ascii	"get_head_unsafe\000"
 19853      68656164 
 19853      5F756E73 
 19853      61666500 
 19854              	.LASF428:
 19855 4bef 72656D6F 		.ascii	"remove_last\000"
 19855      76655F6C 
 19855      61737400 
 19856              	.LASF436:
 19857 4bfb 5F5A4E33 		.ascii	"_ZN3r2p10Bootloader16get_free_addressEv\000"
 19857      72327031 
 19857      30426F6F 
 19857      746C6F61 
 19857      64657231 
 19858              	.LASF210:
 19859 4c23 4C696E6B 		.ascii	"LinkingAddresses\000"
 19859      696E6741 
 19859      64647265 
 19859      73736573 
 19859      00
 19860              	.LASF399:
 19861 4c34 7075626C 		.ascii	"publish\000"
 19861      69736800 
 19862              	.LASF437:
 19863 4c3c 6765745F 		.ascii	"get_free_app\000"
 19863      66726565 
 19863      5F617070 
 19863      00
 19864              	.LASF598:
 19865 4c49 62795F6D 		.ascii	"by_middleware\000"
 19865      6964646C 
 19865      65776172 
 19865      6500
 19866              	.LASF698:
 19867 4c57 696E746D 		.ascii	"intmax_t\000"
 19867      61785F74 
 19867      00
 19868              	.LASF164:
 19869 4c60 45585445 		.ascii	"EXTENDED_LINEAR_ADDRESS\000"
 19869      4E444544 
 19869      5F4C494E 
 19869      4541525F 
 19869      41444452 
 19870              	.LASF138:
 19871 4c78 5F5A4E33 		.ascii	"_ZN3r2p7Message7acquireEv\000"
 19871      72327037 
 19871      4D657373 
 19871      61676537 
ARM GAS  /tmp/cc5OZvFd.s 			page 394


 19871      61637175 
 19872              	.LASF145:
 19873 4c92 6765745F 		.ascii	"get_payload_size\000"
 19873      7061796C 
 19873      6F61645F 
 19873      73697A65 
 19873      00
 19874              	.LASF755:
 19875 4ca3 685F7072 		.ascii	"h_provider\000"
 19875      6F766964 
 19875      657200
 19876              	.LASF635:
 19877 4cae 5F5A4E33 		.ascii	"_ZN3r2p5Topic19forward_copy_unsafeERKNS_7MessageERK"
 19877      72327035 
 19877      546F7069 
 19877      63313966 
 19877      6F727761 
 19878 4ce1 4E535F34 		.ascii	"NS_4TimeE\000"
 19878      54696D65 
 19878      4500
 19879              	.LASF548:
 19880 4ceb 5F5A4E4B 		.ascii	"_ZNK3r2p10StaticListINS_16RemoteSubscriberEE10find_"
 19880      33723270 
 19880      31305374 
 19880      61746963 
 19880      4C697374 
 19881 4d1e 66697273 		.ascii	"firstEPFbRKS1_E\000"
 19881      74455046 
 19881      62524B53 
 19881      315F4500 
 19882              	.LASF721:
 19883 4d2e 705F7374 		.ascii	"p_state\000"
 19883      61746500 
 19884              	.LASF520:
 19885 4d36 5F5A4E4B 		.ascii	"_ZNK3r2p10StaticListINS_15LocalSubscriberEE7restart"
 19885      33723270 
 19885      31305374 
 19885      61746963 
 19885      4C697374 
 19886 4d69 45524E53 		.ascii	"ERNS2_13ConstIteratorE\000"
 19886      325F3133 
 19886      436F6E73 
 19886      74497465 
 19886      7261746F 
 19887              		.ident	"GCC: (GNU Tools for ARM Embedded Processors) 4.9.3 20141119 (release) [ARM/embedded-4_9-br
ARM GAS  /tmp/cc5OZvFd.s 			page 395


DEFINED SYMBOLS
                            *ABS*:00000000 Bootloader.cpp
     /tmp/cc5OZvFd.s:19     .text._ZN3r2p10UncopyableC2Ev:00000000 $t
     /tmp/cc5OZvFd.s:24     .text._ZN3r2p10UncopyableC2Ev:00000000 _ZN3r2p10UncopyableC2Ev
     /tmp/cc5OZvFd.s:24     .text._ZN3r2p10UncopyableC2Ev:00000000 _ZN3r2p10UncopyableC1Ev
     /tmp/cc5OZvFd.s:48     .text._ZN3r2p8SysLock_7acquireEv:00000000 $t
     /tmp/cc5OZvFd.s:53     .text._ZN3r2p8SysLock_7acquireEv:00000000 _ZN3r2p8SysLock_7acquireEv
     /tmp/cc5OZvFd.s:83     .text._ZN3r2p8SysLock_7releaseEv:00000000 $t
     /tmp/cc5OZvFd.s:88     .text._ZN3r2p8SysLock_7releaseEv:00000000 _ZN3r2p8SysLock_7releaseEv
     /tmp/cc5OZvFd.s:117    .text._ZN3r2p7SysLock7acquireEv:00000000 $t
     /tmp/cc5OZvFd.s:122    .text._ZN3r2p7SysLock7acquireEv:00000000 _ZN3r2p7SysLock7acquireEv
     /tmp/cc5OZvFd.s:141    .text._ZN3r2p7SysLock7releaseEv:00000000 $t
     /tmp/cc5OZvFd.s:146    .text._ZN3r2p7SysLock7releaseEv:00000000 _ZN3r2p7SysLock7releaseEv
     /tmp/cc5OZvFd.s:164    .text._ZN3r2p12check_boundsEPKvjS1_j:00000000 $t
     /tmp/cc5OZvFd.s:169    .text._ZN3r2p12check_boundsEPKvjS1_j:00000000 _ZN3r2p12check_boundsEPKvjS1_j
     /tmp/cc5OZvFd.s:224    .text._ZN3r2p8Flasher_10is_alignedEPKv:00000000 $t
     /tmp/cc5OZvFd.s:229    .text._ZN3r2p8Flasher_10is_alignedEPKv:00000000 _ZN3r2p8Flasher_10is_alignedEPKv
     /tmp/cc5OZvFd.s:258    .text._ZN3r2p8Flasher_16is_within_boundsEPKv:00000000 $t
     /tmp/cc5OZvFd.s:263    .text._ZN3r2p8Flasher_16is_within_boundsEPKv:00000000 _ZN3r2p8Flasher_16is_within_boundsEPKv
     /tmp/cc5OZvFd.s:371    .text._ZN3r2p8Flasher_17get_program_startEv:00000000 _ZN3r2p8Flasher_17get_program_startEv
     /tmp/cc5OZvFd.s:399    .text._ZN3r2p8Flasher_15get_program_endEv:00000000 _ZN3r2p8Flasher_15get_program_endEv
     /tmp/cc5OZvFd.s:305    .text._ZN3r2p8Flasher_10align_prevEPKh:00000000 $t
     /tmp/cc5OZvFd.s:310    .text._ZN3r2p8Flasher_10align_prevEPKh:00000000 _ZN3r2p8Flasher_10align_prevEPKh
     /tmp/cc5OZvFd.s:333    .text._ZN3r2p8Flasher_10align_nextEPKh:00000000 $t
     /tmp/cc5OZvFd.s:338    .text._ZN3r2p8Flasher_10align_nextEPKh:00000000 _ZN3r2p8Flasher_10align_nextEPKh
     /tmp/cc5OZvFd.s:366    .text._ZN3r2p8Flasher_17get_program_startEv:00000000 $t
     /tmp/cc5OZvFd.s:389    .text._ZN3r2p8Flasher_17get_program_startEv:00000014 $d
     /tmp/cc5OZvFd.s:394    .text._ZN3r2p8Flasher_15get_program_endEv:00000000 $t
     /tmp/cc5OZvFd.s:419    .text._ZN3r2p8Flasher_15get_program_endEv:00000010 $d
     /tmp/cc5OZvFd.s:424    .text._ZN3r2p8Flasher_13get_ram_startEv:00000000 $t
     /tmp/cc5OZvFd.s:429    .text._ZN3r2p8Flasher_13get_ram_startEv:00000000 _ZN3r2p8Flasher_13get_ram_startEv
     /tmp/cc5OZvFd.s:444    .text._ZN3r2p8Flasher_13get_ram_startEv:00000008 $d
     /tmp/cc5OZvFd.s:449    .text._ZN3r2p8Flasher_11get_ram_endEv:00000000 $t
     /tmp/cc5OZvFd.s:454    .text._ZN3r2p8Flasher_11get_ram_endEv:00000000 _ZN3r2p8Flasher_11get_ram_endEv
     /tmp/cc5OZvFd.s:469    .text._ZN3r2p8Flasher_11get_ram_endEv:00000008 $d
     /tmp/cc5OZvFd.s:474    .text._ZN3r2p7Flasher10is_alignedEPKv:00000000 $t
     /tmp/cc5OZvFd.s:479    .text._ZN3r2p7Flasher10is_alignedEPKv:00000000 _ZN3r2p7Flasher10is_alignedEPKv
     /tmp/cc5OZvFd.s:506    .text._ZN3r2p7Flasher16is_within_boundsEPKv:00000000 $t
     /tmp/cc5OZvFd.s:511    .text._ZN3r2p7Flasher16is_within_boundsEPKv:00000000 _ZN3r2p7Flasher16is_within_boundsEPKv
     /tmp/cc5OZvFd.s:537    .text._ZN3r2p7Flasher5beginEv:00000000 $t
     /tmp/cc5OZvFd.s:542    .text._ZN3r2p7Flasher5beginEv:00000000 _ZN3r2p7Flasher5beginEv
     /tmp/cc5OZvFd.s:568    .text._ZN3r2p7Flasher3endEv:00000000 $t
     /tmp/cc5OZvFd.s:573    .text._ZN3r2p7Flasher3endEv:00000000 _ZN3r2p7Flasher3endEv
     /tmp/cc5OZvFd.s:601    .text._ZN3r2p7Flasher5flashEPKhS2_j:00000000 $t
     /tmp/cc5OZvFd.s:606    .text._ZN3r2p7Flasher5flashEPKhS2_j:00000000 _ZN3r2p7Flasher5flashEPKhS2_j
     /tmp/cc5OZvFd.s:640    .text._ZN3r2p7Flasher5eraseEPKhj:00000000 $t
     /tmp/cc5OZvFd.s:645    .text._ZN3r2p7Flasher5eraseEPKhj:00000000 _ZN3r2p7Flasher5eraseEPKhj
     /tmp/cc5OZvFd.s:677    .text._ZN3r2p7FlasherC2EPt:00000000 $t
     /tmp/cc5OZvFd.s:682    .text._ZN3r2p7FlasherC2EPt:00000000 _ZN3r2p7FlasherC2EPt
     /tmp/cc5OZvFd.s:682    .text._ZN3r2p7FlasherC2EPt:00000000 _ZN3r2p7FlasherC1EPt
     /tmp/cc5OZvFd.s:718    .text._ZN3r2p7Flasher10align_nextEj:00000000 $t
     /tmp/cc5OZvFd.s:723    .text._ZN3r2p7Flasher10align_nextEj:00000000 _ZN3r2p7Flasher10align_nextEj
     /tmp/cc5OZvFd.s:750    .text._ZN3r2p7Flasher17get_program_startEv:00000000 $t
     /tmp/cc5OZvFd.s:755    .text._ZN3r2p7Flasher17get_program_startEv:00000000 _ZN3r2p7Flasher17get_program_startEv
     /tmp/cc5OZvFd.s:775    .text._ZN3r2p7Flasher15get_program_endEv:00000000 $t
     /tmp/cc5OZvFd.s:780    .text._ZN3r2p7Flasher15get_program_endEv:00000000 _ZN3r2p7Flasher15get_program_endEv
     /tmp/cc5OZvFd.s:800    .text._ZN3r2p7Flasher13get_ram_startEv:00000000 $t
ARM GAS  /tmp/cc5OZvFd.s 			page 396


     /tmp/cc5OZvFd.s:805    .text._ZN3r2p7Flasher13get_ram_startEv:00000000 _ZN3r2p7Flasher13get_ram_startEv
     /tmp/cc5OZvFd.s:825    .text._ZN3r2p7Flasher11get_ram_endEv:00000000 $t
     /tmp/cc5OZvFd.s:830    .text._ZN3r2p7Flasher11get_ram_endEv:00000000 _ZN3r2p7Flasher11get_ram_endEv
     /tmp/cc5OZvFd.s:850    .text._ZN3r2p7Flasher18get_program_lengthEv:00000000 $t
     /tmp/cc5OZvFd.s:855    .text._ZN3r2p7Flasher18get_program_lengthEv:00000000 _ZN3r2p7Flasher18get_program_lengthEv
     /tmp/cc5OZvFd.s:5865   .text._ZN3r2p18compute_chunk_sizeIhEEjPKT_S3_:00000000 _ZN3r2p18compute_chunk_sizeIhEEjPKT_S3_
     /tmp/cc5OZvFd.s:881    .text._ZN3r2p7Message12reset_unsafeEv:00000000 $t
     /tmp/cc5OZvFd.s:886    .text._ZN3r2p7Message12reset_unsafeEv:00000000 _ZN3r2p7Message12reset_unsafeEv
     /tmp/cc5OZvFd.s:912    .text._ZN3r2p7Message16get_payload_sizeEj:00000000 $t
     /tmp/cc5OZvFd.s:917    .text._ZN3r2p7Message16get_payload_sizeEj:00000000 _ZN3r2p7Message16get_payload_sizeEj
     /tmp/cc5OZvFd.s:940    .text._ZN3r2p11MemoryPool_12alloc_unsafeEv:00000000 $t
     /tmp/cc5OZvFd.s:945    .text._ZN3r2p11MemoryPool_12alloc_unsafeEv:00000000 _ZN3r2p11MemoryPool_12alloc_unsafeEv
     /tmp/cc5OZvFd.s:973    .text._ZNK3r2p4Time8to_s_rawEv:00000000 $t
     /tmp/cc5OZvFd.s:978    .text._ZNK3r2p4Time8to_s_rawEv:00000000 _ZNK3r2p4Time8to_s_rawEv
     /tmp/cc5OZvFd.s:1006   .text._ZNK3r2p4Time8to_s_rawEv:0000001c $d
     /tmp/cc5OZvFd.s:1011   .text._ZN3r2p4Time2msEl:00000000 $t
     /tmp/cc5OZvFd.s:1016   .text._ZN3r2p4Time2msEl:00000000 _ZN3r2p4Time2msEl
     /tmp/cc5OZvFd.s:5895   .text._ZN3r2p4TimeC2IlEET_:00000000 _ZN3r2p4TimeC1IlEET_
     /tmp/cc5OZvFd.s:1046   .text._ZN3r2p7Thread_11create_heapEPvjmPFlS1_ES1_PKc:00000000 $t
     /tmp/cc5OZvFd.s:1051   .text._ZN3r2p7Thread_11create_heapEPvjmPFlS1_ES1_PKc:00000000 _ZN3r2p7Thread_11create_heapEPvjmPFlS1_ES1_PKc
     /tmp/cc5OZvFd.s:1099   .text._ZN3r2p7Thread_5sleepERKNS_4TimeE:00000000 $t
     /tmp/cc5OZvFd.s:1104   .text._ZN3r2p7Thread_5sleepERKNS_4TimeE:00000000 _ZN3r2p7Thread_5sleepERKNS_4TimeE
     /tmp/cc5OZvFd.s:1163   .text._ZN3r2p7Thread_5sleepERKNS_4TimeE:0000005c $d
     /tmp/cc5OZvFd.s:1169   .text._ZN3r2p6Thread11create_heapEPvjmPFlS1_ES1_PKc:00000000 $t
     /tmp/cc5OZvFd.s:1174   .text._ZN3r2p6Thread11create_heapEPvjmPFlS1_ES1_PKc:00000000 _ZN3r2p6Thread11create_heapEPvjmPFlS1_ES1_PKc
     /tmp/cc5OZvFd.s:1211   .text._ZN3r2p6Thread5sleepERKNS_4TimeE:00000000 $t
     /tmp/cc5OZvFd.s:1216   .text._ZN3r2p6Thread5sleepERKNS_4TimeE:00000000 _ZN3r2p6Thread5sleepERKNS_4TimeE
     /tmp/cc5OZvFd.s:1240   .text._ZN3r2p10Bootloader12FlashAppInfo15compute_programEPKS1_:00000000 $t
     /tmp/cc5OZvFd.s:1245   .text._ZN3r2p10Bootloader12FlashAppInfo15compute_programEPKS1_:00000000 _ZN3r2p10Bootloader12FlashAppInfo15compute_programEPKS1_
     /tmp/cc5OZvFd.s:1274   .text._ZN3r2p10Bootloader12FlashAppInfo20compute_data_programEPKS1_jj:00000000 $t
     /tmp/cc5OZvFd.s:1279   .text._ZN3r2p10Bootloader12FlashAppInfo20compute_data_programEPKS1_jj:00000000 _ZN3r2p10Bootloader12FlashAppInfo20compute_data_programEPKS1_jj
     /tmp/cc5OZvFd.s:1324   .text._ZN3r2p10Bootloader12FlashAppInfo12compute_nextEPKS1_jj:00000000 $t
     /tmp/cc5OZvFd.s:1329   .text._ZN3r2p10Bootloader12FlashAppInfo12compute_nextEPKS1_jj:00000000 _ZN3r2p10Bootloader12FlashAppInfo12compute_nextEPKS1_jj
     /tmp/cc5OZvFd.s:1371   .text._ZNK3r2p10Bootloader12FlashAppInfo11get_programEv:00000000 $t
     /tmp/cc5OZvFd.s:1376   .text._ZNK3r2p10Bootloader12FlashAppInfo11get_programEv:00000000 _ZNK3r2p10Bootloader12FlashAppInfo11get_programEv
     /tmp/cc5OZvFd.s:1402   .text._ZNK3r2p10Bootloader12FlashAppInfo16get_data_programEv:00000000 $t
     /tmp/cc5OZvFd.s:1407   .text._ZNK3r2p10Bootloader12FlashAppInfo16get_data_programEv:00000000 _ZNK3r2p10Bootloader12FlashAppInfo16get_data_programEv
     /tmp/cc5OZvFd.s:1439   .text._ZNK3r2p10Bootloader12FlashAppInfo8get_nextEv:00000000 $t
     /tmp/cc5OZvFd.s:1444   .text._ZNK3r2p10Bootloader12FlashAppInfo8get_nextEv:00000000 _ZNK3r2p10Bootloader12FlashAppInfo8get_nextEv
     /tmp/cc5OZvFd.s:1476   .text._ZNK3r2p10Bootloader12FlashAppInfo8is_validEv:00000000 $t
     /tmp/cc5OZvFd.s:1481   .text._ZNK3r2p10Bootloader12FlashAppInfo8is_validEv:00000000 _ZNK3r2p10Bootloader12FlashAppInfo8is_validEv
     /tmp/cc5OZvFd.s:1522   .text._ZNK3r2p10Bootloader12FlashAppInfo8is_validEv:0000002c $d
     /tmp/cc5OZvFd.s:1527   .text._ZNK3r2p10Bootloader12FlashAppInfo8has_nameEPKc:00000000 $t
     /tmp/cc5OZvFd.s:1532   .text._ZNK3r2p10Bootloader12FlashAppInfo8has_nameEPKc:00000000 _ZNK3r2p10Bootloader12FlashAppInfo8has_nameEPKc
     /tmp/cc5OZvFd.s:1568   .text._ZN3r2p10Bootloader8IteratorC2ERKS1_:00000000 $t
     /tmp/cc5OZvFd.s:1573   .text._ZN3r2p10Bootloader8IteratorC2ERKS1_:00000000 _ZN3r2p10Bootloader8IteratorC2ERKS1_
     /tmp/cc5OZvFd.s:1573   .text._ZN3r2p10Bootloader8IteratorC2ERKS1_:00000000 _ZN3r2p10Bootloader8IteratorC1ERKS1_
     /tmp/cc5OZvFd.s:1603   .text._ZN3r2p10Bootloader8IteratorC2EPKNS0_12FlashAppInfoE:00000000 $t
     /tmp/cc5OZvFd.s:1608   .text._ZN3r2p10Bootloader8IteratorC2EPKNS0_12FlashAppInfoE:00000000 _ZN3r2p10Bootloader8IteratorC2EPKNS0_12FlashAppInfoE
     /tmp/cc5OZvFd.s:1608   .text._ZN3r2p10Bootloader8IteratorC2EPKNS0_12FlashAppInfoE:00000000 _ZN3r2p10Bootloader8IteratorC1EPKNS0_12FlashAppInfoE
     /tmp/cc5OZvFd.s:1637   .text._ZNK3r2p10Bootloader8IteratorptEv:00000000 $t
     /tmp/cc5OZvFd.s:1642   .text._ZNK3r2p10Bootloader8IteratorptEv:00000000 _ZNK3r2p10Bootloader8IteratorptEv
     /tmp/cc5OZvFd.s:1665   .text._ZNK3r2p10Bootloader8IteratordeEv:00000000 $t
     /tmp/cc5OZvFd.s:1670   .text._ZNK3r2p10Bootloader8IteratordeEv:00000000 _ZNK3r2p10Bootloader8IteratordeEv
     /tmp/cc5OZvFd.s:1693   .text._ZNK3r2p10Bootloader8IteratorcvPKNS0_12FlashAppInfoEEv:00000000 $t
     /tmp/cc5OZvFd.s:1698   .text._ZNK3r2p10Bootloader8IteratorcvPKNS0_12FlashAppInfoEEv:00000000 _ZNK3r2p10Bootloader8IteratorcvPKNS0_12FlashAppInfoEEv
     /tmp/cc5OZvFd.s:1721   .text._ZN3r2p10Bootloader8IteratorppEv:00000000 $t
ARM GAS  /tmp/cc5OZvFd.s 			page 397


     /tmp/cc5OZvFd.s:1726   .text._ZN3r2p10Bootloader8IteratorppEv:00000000 _ZN3r2p10Bootloader8IteratorppEv
     /tmp/cc5OZvFd.s:1758   .text._ZNK3r2p10Bootloader8IteratorneERKS1_:00000000 $t
     /tmp/cc5OZvFd.s:1763   .text._ZNK3r2p10Bootloader8IteratorneERKS1_:00000000 _ZNK3r2p10Bootloader8IteratorneERKS1_
     /tmp/cc5OZvFd.s:1804   .text._ZN3r2p10Bootloader5allocENS_7BootMsg8TypeEnumE:00000000 $t
     /tmp/cc5OZvFd.s:1809   .text._ZN3r2p10Bootloader5allocENS_7BootMsg8TypeEnumE:00000000 _ZN3r2p10Bootloader5allocENS_7BootMsg8TypeEnumE
     /tmp/cc5OZvFd.s:2432   .text:000000bc _ZN3r2p10Bootloader5allocEv
     /tmp/cc5OZvFd.s:1840   .text._ZN3r2p10Bootloader5fetchENS_7BootMsg8TypeEnumE:00000000 $t
     /tmp/cc5OZvFd.s:1845   .text._ZN3r2p10Bootloader5fetchENS_7BootMsg8TypeEnumE:00000000 _ZN3r2p10Bootloader5fetchENS_7BootMsg8TypeEnumE
     /tmp/cc5OZvFd.s:2586   .text:00000188 _ZN3r2p10Bootloader5fetchEv
     /tmp/cc5OZvFd.s:1882   .text._ZN3r2p10Bootloader11begin_writeEv:00000000 $t
     /tmp/cc5OZvFd.s:1887   .text._ZN3r2p10Bootloader11begin_writeEv:00000000 _ZN3r2p10Bootloader11begin_writeEv
     /tmp/cc5OZvFd.s:1913   .rodata:00000000 $d
     /tmp/cc5OZvFd.s:1917   .text._ZN3r2p10Bootloader9end_writeEv:00000000 $t
     /tmp/cc5OZvFd.s:1922   .text._ZN3r2p10Bootloader9end_writeEv:00000000 _ZN3r2p10Bootloader9end_writeEv
     /tmp/cc5OZvFd.s:1961   .text._ZN3r2p10Bootloader9end_writeEv:00000030 $d
     /tmp/cc5OZvFd.s:1966   .text._ZN3r2p10Bootloader5writeEPKvS2_j:00000000 $t
     /tmp/cc5OZvFd.s:1971   .text._ZN3r2p10Bootloader5writeEPKvS2_j:00000000 _ZN3r2p10Bootloader5writeEPKvS2_j
     /tmp/cc5OZvFd.s:2005   .text._ZN3r2p10Bootloader5beginEv:00000000 $t
     /tmp/cc5OZvFd.s:2010   .text._ZN3r2p10Bootloader5beginEv:00000000 _ZN3r2p10Bootloader5beginEv
     /tmp/cc5OZvFd.s:2039   .text._ZN3r2p10Bootloader3endEv:00000000 $t
     /tmp/cc5OZvFd.s:2044   .text._ZN3r2p10Bootloader3endEv:00000000 _ZN3r2p10Bootloader3endEv
     /tmp/cc5OZvFd.s:2069   .text._ZN3r2p10Bootloader3endEv:00000018 $d
     /tmp/cc5OZvFd.s:2307   .rodata:00000010 _ZN3r2p10Bootloader20an_invalid_signatureE
     /tmp/cc5OZvFd.s:2074   .text._ZN3r2p10Bootloader16get_free_addressEv:00000000 $t
     /tmp/cc5OZvFd.s:2079   .text._ZN3r2p10Bootloader16get_free_addressEv:00000000 _ZN3r2p10Bootloader16get_free_addressEv
     /tmp/cc5OZvFd.s:5151   .text:00001124 _ZN3r2p10Bootloader12get_free_appEv
     /tmp/cc5OZvFd.s:2099   .text._ZN3r2p5Topic12alloc_unsafeEv:00000000 $t
     /tmp/cc5OZvFd.s:2104   .text._ZN3r2p5Topic12alloc_unsafeEv:00000000 _ZN3r2p5Topic12alloc_unsafeEv
     /tmp/cc5OZvFd.s:2149   .text._ZN3r2p13BasePublisher12alloc_unsafeERPNS_7MessageE:00000000 $t
     /tmp/cc5OZvFd.s:2154   .text._ZN3r2p13BasePublisher12alloc_unsafeERPNS_7MessageE:00000000 _ZN3r2p13BasePublisher12alloc_unsafeERPNS_7MessageE
     /tmp/cc5OZvFd.s:2202   .text._ZN3r2p13BasePublisher12alloc_unsafeERPNS_7MessageE:0000003c $d
     /tmp/cc5OZvFd.s:2207   .text._ZN3r2p13BasePublisher5allocERPNS_7MessageE:00000000 $t
     /tmp/cc5OZvFd.s:2212   .text._ZN3r2p13BasePublisher5allocERPNS_7MessageE:00000000 _ZN3r2p13BasePublisher5allocERPNS_7MessageE
     /tmp/cc5OZvFd.s:2249   .text._ZN3r2p13BasePublisher16publish_remotelyERNS_7MessageE:00000000 $t
     /tmp/cc5OZvFd.s:2254   .text._ZN3r2p13BasePublisher16publish_remotelyERNS_7MessageE:00000000 _ZN3r2p13BasePublisher16publish_remotelyERNS_7MessageE
     /tmp/cc5OZvFd.s:2298   .text._ZN3r2p13BasePublisher16publish_remotelyERNS_7MessageE:00000038 $d
     /tmp/cc5OZvFd.s:2313   .text:00000000 $t
     /tmp/cc5OZvFd.s:2318   .text:00000000 _ZN3r2p10Bootloader9spin_loopEv
     /tmp/cc5OZvFd.s:2346   .text:00000020 $d
     /tmp/cc5OZvFd.s:2360   .text:00000058 $t
     /tmp/cc5OZvFd.s:2658   .text:000001e4 _ZN3r2p10Bootloader7releaseEv
     /tmp/cc5OZvFd.s:2717   .text:00000228 _ZN3r2p10Bootloader9do_loaderEv
     /tmp/cc5OZvFd.s:3070   .text:00000468 _ZN3r2p10Bootloader10do_appinfoEv
     /tmp/cc5OZvFd.s:3480   .text:0000074c _ZN3r2p10Bootloader11do_getparamEv
     /tmp/cc5OZvFd.s:3740   .text:000008d0 _ZN3r2p10Bootloader11do_setparamEv
     /tmp/cc5OZvFd.s:4107   .text:00000ae0 _ZN3r2p10Bootloader16do_release_errorEmPKc
     /tmp/cc5OZvFd.s:2423   .text:000000b8 $d
     /tmp/cc5OZvFd.s:2427   .text:000000bc $t
     /tmp/cc5OZvFd.s:5930   .text._ZN3r2p9PublisherINS_7BootMsgEE5allocERPS1_:00000000 _ZN3r2p9PublisherINS_7BootMsgEE5allocERPS1_
     /tmp/cc5OZvFd.s:5965   .text._ZN3r2p7Message13reset_payloadINS_7BootMsgEEEvRT_:00000000 _ZN3r2p7Message13reset_payloadINS_7BootMsgEEEvRT_
     /tmp/cc5OZvFd.s:2500   .text:00000120 $d
     /tmp/cc5OZvFd.s:2504   .text:00000124 $t
     /tmp/cc5OZvFd.s:2509   .text:00000124 _ZN3r2p10Bootloader7publishEv
     /tmp/cc5OZvFd.s:2577   .text:00000184 $d
     /tmp/cc5OZvFd.s:2581   .text:00000188 $t
     /tmp/cc5OZvFd.s:6001   .text._ZN3r2p16SubscriberExtBufINS_7BootMsgEE5fetchERPS1_:00000000 _ZN3r2p16SubscriberExtBufINS_7BootMsgEE5fetchERPS1_
     /tmp/cc5OZvFd.s:2649   .text:000001e0 $d
ARM GAS  /tmp/cc5OZvFd.s 			page 398


     /tmp/cc5OZvFd.s:2653   .text:000001e4 $t
     /tmp/cc5OZvFd.s:6036   .text._ZN3r2p16SubscriberExtBufINS_7BootMsgEE7releaseERS1_:00000000 _ZN3r2p16SubscriberExtBufINS_7BootMsgEE7releaseERS1_
     /tmp/cc5OZvFd.s:2708   .text:00000224 $d
     /tmp/cc5OZvFd.s:2712   .text:00000228 $t
     /tmp/cc5OZvFd.s:4027   .text:00000a8c _ZN3r2p10Bootloader6do_ackEv
     /tmp/cc5OZvFd.s:2752   .text:00000250 $d
     /tmp/cc5OZvFd.s:2759   .text:0000026c $t
     /tmp/cc5OZvFd.s:4818   .text:00000f68 _ZN3r2p10Bootloader11remove_lastEv
     /tmp/cc5OZvFd.s:4059   .text:00000aa8 _ZN3r2p10Bootloader8do_errorEmPKc
     /tmp/cc5OZvFd.s:4880   .text:00000fac _ZN3r2p10Bootloader10remove_allEv
     /tmp/cc5OZvFd.s:5304   .text:000011ec _ZN3r2p10Bootloader7get_appEPKc
     /tmp/cc5OZvFd.s:5378   .text:0000124c _ZN3r2p10Bootloader17compute_addressesERKNS_7BootMsg12LinkingSetupERNS1_16LinkingAddressesE
     /tmp/cc5OZvFd.s:4499   .text:00000d94 _ZN3r2p10Bootloader12process_ihexERKNS_10IhexRecordERKNS_7BootMsg12LinkingSetupERKNS4_16LinkingAddressesE
     /tmp/cc5OZvFd.s:4158   .text:00000b20 _ZN3r2p10Bootloader13write_appinfoEPKNS0_12FlashAppInfoERKNS_7BootMsg12LinkingSetupERKNS4_16LinkingAddressesERKNS4_14LinkingOutcomeE
     /tmp/cc5OZvFd.s:3061   .text:00000464 $d
     /tmp/cc5OZvFd.s:3065   .text:00000468 $t
     /tmp/cc5OZvFd.s:5092   .text:000010e4 _ZN3r2p10Bootloader12get_num_appsEv
     /tmp/cc5OZvFd.s:3471   .text:00000748 $d
     /tmp/cc5OZvFd.s:3475   .text:0000074c $t
     /tmp/cc5OZvFd.s:3731   .text:000008cc $d
     /tmp/cc5OZvFd.s:3735   .text:000008d0 $t
     /tmp/cc5OZvFd.s:4018   .text:00000a88 $d
     /tmp/cc5OZvFd.s:4022   .text:00000a8c $t
     /tmp/cc5OZvFd.s:4490   .text:00000d90 $d
     /tmp/cc5OZvFd.s:4494   .text:00000d94 $t
     /tmp/cc5OZvFd.s:4543   .text:00000dd0 $d
     /tmp/cc5OZvFd.s:4549   .text:00000de8 $t
     /tmp/cc5OZvFd.s:4809   .text:00000f64 $d
     /tmp/cc5OZvFd.s:4813   .text:00000f68 $t
     /tmp/cc5OZvFd.s:5231   .text:00001194 _ZN3r2p10Bootloader12get_last_appEv
     /tmp/cc5OZvFd.s:4871   .text:00000fa8 $d
     /tmp/cc5OZvFd.s:4875   .text:00000fac $t
     /tmp/cc5OZvFd.s:5014   .text:00001088 $d
     /tmp/cc5OZvFd.s:5018   .text:0000108c $t
     /tmp/cc5OZvFd.s:5023   .text:0000108c _ZN3r2p10BootloaderC2EPtRNS_9PublisherINS_7BootMsgEEERNS_16SubscriberExtBufIS3_EE
     /tmp/cc5OZvFd.s:5081   .text:000010e0 $d
     /tmp/cc5OZvFd.s:5023   .text:0000108c _ZN3r2p10BootloaderC1EPtRNS_9PublisherINS_7BootMsgEEERNS_16SubscriberExtBufIS3_EE
     /tmp/cc5OZvFd.s:5087   .text:000010e4 $t
     /tmp/cc5OZvFd.s:5586   .text:00001370 _ZN3r2p10Bootloader6launchEPKc
     /tmp/cc5OZvFd.s:5677   .text:000013f4 $d
     /tmp/cc5OZvFd.s:5686   .text:000013f8 _ZN3r2p10Bootloader19app_threadf_wrapperEPv
     /tmp/cc5OZvFd.s:5681   .text:000013f8 $t
     /tmp/cc5OZvFd.s:5790   .text:00001470 _ZN3r2p10Bootloader10launch_allEv
     /tmp/cc5OZvFd.s:5860   .text._ZN3r2p18compute_chunk_sizeIhEEjPKT_S3_:00000000 $t
     /tmp/cc5OZvFd.s:5890   .text._ZN3r2p4TimeC2IlEET_:00000000 $t
     /tmp/cc5OZvFd.s:5895   .text._ZN3r2p4TimeC2IlEET_:00000000 _ZN3r2p4TimeC2IlEET_
     /tmp/cc5OZvFd.s:5925   .text._ZN3r2p9PublisherINS_7BootMsgEE5allocERPS1_:00000000 $t
     /tmp/cc5OZvFd.s:5960   .text._ZN3r2p7Message13reset_payloadINS_7BootMsgEEEvRT_:00000000 $t
     /tmp/cc5OZvFd.s:6071   .text._ZN3r2p7Message16get_payload_sizeINS_7BootMsgEEEjv:00000000 _ZN3r2p7Message16get_payload_sizeINS_7BootMsgEEEjv
     /tmp/cc5OZvFd.s:5996   .text._ZN3r2p16SubscriberExtBufINS_7BootMsgEE5fetchERPS1_:00000000 $t
     /tmp/cc5OZvFd.s:6031   .text._ZN3r2p16SubscriberExtBufINS_7BootMsgEE7releaseERS1_:00000000 $t
     /tmp/cc5OZvFd.s:6066   .text._ZN3r2p7Message16get_payload_sizeINS_7BootMsgEEEjv:00000000 $t
                     .debug_frame:00000010 $d
                           .group:00000000 _ZN3r2p10UncopyableC5Ev
                           .group:00000000 _ZN3r2p7FlasherC5EPt
                           .group:00000000 _ZN3r2p10Bootloader8IteratorC5ERKS1_
                           .group:00000000 _ZN3r2p10Bootloader8IteratorC5EPKNS0_12FlashAppInfoE
ARM GAS  /tmp/cc5OZvFd.s 			page 399


                           .group:00000000 _ZN3r2p4TimeC5IlEET_

UNDEFINED SYMBOLS
dbg_check_lock
dbg_check_unlock
__program_start__
__program_end__
__ram_start__
__ram_end__
_ZN3r2p8Flasher_5beginEv
_ZN3r2p8Flasher_3endEv
_ZN3r2p8Flasher_5flashEPKhS2_j
_ZN3r2p8Flasher_5eraseEPKhj
_ZN3r2p8Flasher_C1EPt
chPoolAllocI
chThdCreateFromHeap
chThdSleep
chThdYield
strncmp
chDbgPanic
_ZN3r2p4Time3nowEv
_ZN3r2p5Topic14notify_remotesERNS_7MessageERKNS_4TimeE
strncpy
memcpy
_ZNK3r2p10IhexRecord16compute_checksumEv
_ZN3r2p10Bootloader13unreserve_ramEj
memset
_ZN3r2p10Bootloader11reserve_ramEj
_Znaj
_ZN3r2p15LocalSubscriber5fetchERPNS_7MessageE
_ZN3r2p14BaseSubscriber7releaseERNS_7MessageE
