ARM GAS  /tmp/ccHh3ds7.s 			page 1


   1              		.syntax unified
   2              		.cpu cortex-m4
   3              		.fpu softvfp
   4              		.eabi_attribute 20, 1
   5              		.eabi_attribute 21, 1
   6              		.eabi_attribute 23, 3
   7              		.eabi_attribute 24, 1
   8              		.eabi_attribute 25, 1
   9              		.eabi_attribute 26, 1
  10              		.eabi_attribute 30, 6
  11              		.eabi_attribute 34, 1
  12              		.eabi_attribute 18, 4
  13              		.thumb
  14              		.file	"Checksummer.cpp"
  15              		.text
  16              	.Ltext0:
  17              		.cfi_sections	.debug_frame
  18              		.section	.text._ZN3r2p11Checksummer3addEh,"axG",%progbits,_ZN3r2p11Checksummer3addEh,comdat
  19              		.align	2
  20              		.weak	_ZN3r2p11Checksummer3addEh
  21              		.thumb
  22              		.thumb_func
  23              		.type	_ZN3r2p11Checksummer3addEh, %function
  24              	_ZN3r2p11Checksummer3addEh:
  25              	.LFB41:
  26              		.file 1 "/opt/R2P/core/Middleware/include/r2p/Checksummer.hpp"
  27              		.loc 1 104 0
  28              		.cfi_startproc
  29              		@ args = 0, pretend = 0, frame = 8
  30              		@ frame_needed = 0, uses_anonymous_args = 0
  31              		@ link register save eliminated.
  32 0000 82B0     		sub	sp, sp, #8
  33              		.cfi_def_cfa_offset 8
  34 0002 0190     		str	r0, [sp, #4]
  35 0004 0B46     		mov	r3, r1
  36 0006 8DF80330 		strb	r3, [sp, #3]
  37              		.loc 1 106 0
  38 000a 019B     		ldr	r3, [sp, #4]
  39 000c 1A78     		ldrb	r2, [r3]	@ zero_extendqisi2
  40 000e 9DF80330 		ldrb	r3, [sp, #3]
  41 0012 1344     		add	r3, r3, r2
  42 0014 DAB2     		uxtb	r2, r3
  43 0016 019B     		ldr	r3, [sp, #4]
  44 0018 1A70     		strb	r2, [r3]
  45              		.loc 1 107 0
  46 001a 02B0     		add	sp, sp, #8
  47              		.cfi_def_cfa_offset 0
  48              		@ sp needed
  49 001c 7047     		bx	lr
  50              		.cfi_endproc
  51              	.LFE41:
  52              		.size	_ZN3r2p11Checksummer3addEh, .-_ZN3r2p11Checksummer3addEh
  53 001e 00BF     		.text
  54              		.align	2
  55              		.global	_ZN3r2p11Checksummer3addEPKhj
  56              		.thumb
  57              		.thumb_func
ARM GAS  /tmp/ccHh3ds7.s 			page 2


  58              		.type	_ZN3r2p11Checksummer3addEPKhj, %function
  59              	_ZN3r2p11Checksummer3addEPKhj:
  60              	.LFB66:
  61              		.file 2 "/opt/R2P/core/Middleware/src/Checksummer.cpp"
  62              		.loc 2 7 0
  63              		.cfi_startproc
  64              		@ args = 0, pretend = 0, frame = 16
  65              		@ frame_needed = 0, uses_anonymous_args = 0
  66 0000 00B5     		push	{lr}
  67              		.cfi_def_cfa_offset 4
  68              		.cfi_offset 14, -4
  69 0002 85B0     		sub	sp, sp, #20
  70              		.cfi_def_cfa_offset 24
  71 0004 0390     		str	r0, [sp, #12]
  72 0006 0291     		str	r1, [sp, #8]
  73 0008 0192     		str	r2, [sp, #4]
  74              		.loc 2 9 0
  75 000a 07E0     		b	.L3
  76              	.L4:
  77              		.loc 2 10 0
  78 000c 029B     		ldr	r3, [sp, #8]
  79 000e 5A1C     		adds	r2, r3, #1
  80 0010 0292     		str	r2, [sp, #8]
  81 0012 1B78     		ldrb	r3, [r3]	@ zero_extendqisi2
  82 0014 0398     		ldr	r0, [sp, #12]
  83 0016 1946     		mov	r1, r3
  84 0018 FFF7FEFF 		bl	_ZN3r2p11Checksummer3addEh
  85              	.L3:
  86              		.loc 2 9 0
  87 001c 019B     		ldr	r3, [sp, #4]
  88 001e 5A1E     		subs	r2, r3, #1
  89 0020 0192     		str	r2, [sp, #4]
  90 0022 002B     		cmp	r3, #0
  91 0024 14BF     		ite	ne
  92 0026 0123     		movne	r3, #1
  93 0028 0023     		moveq	r3, #0
  94 002a DBB2     		uxtb	r3, r3
  95 002c 002B     		cmp	r3, #0
  96 002e EDD1     		bne	.L4
  97              		.loc 2 12 0
  98 0030 05B0     		add	sp, sp, #20
  99              		.cfi_def_cfa_offset 4
 100              		@ sp needed
 101 0032 5DF804FB 		ldr	pc, [sp], #4
 102              		.cfi_endproc
 103              	.LFE66:
 104              		.size	_ZN3r2p11Checksummer3addEPKhj, .-_ZN3r2p11Checksummer3addEPKhj
 105              	.Letext0:
 106              		.file 3 "/opt/R2P/tools/gcc-arm-none-eabi-4_9-2014q4/lib/gcc/arm-none-eabi/4.9.3/include/stddef.h"
 107              		.file 4 "/opt/R2P/tools/gcc-arm-none-eabi-4_9-2014q4/arm-none-eabi/include/machine/_default_types.
 108              		.file 5 "/opt/R2P/tools/gcc-arm-none-eabi-4_9-2014q4/arm-none-eabi/include/c++/4.9.3/cstring"
 109              		.file 6 "/opt/R2P/tools/gcc-arm-none-eabi-4_9-2014q4/arm-none-eabi/include/string.h"
 110              		.file 7 "<built-in>"
 111              		.file 8 "/opt/R2P/core/Middleware/include/r2p/Uncopyable.hpp"
 112              		.file 9 "/opt/R2P/tools/gcc-arm-none-eabi-4_9-2014q4/arm-none-eabi/include/stdint.h"