ARM GAS  /tmp/ccboN3eA.s 			page 1


   1              		.syntax unified
   2              		.cpu cortex-m4
   3              		.fpu softvfp
   4              		.eabi_attribute 20, 1
   5              		.eabi_attribute 21, 1
   6              		.eabi_attribute 23, 3
   7              		.eabi_attribute 24, 1
   8              		.eabi_attribute 25, 1
   9              		.eabi_attribute 26, 1
  10              		.eabi_attribute 30, 6
  11              		.eabi_attribute 34, 1
  12              		.eabi_attribute 18, 4
  13              		.thumb
  14              		.file	"chheap.c"
  15              		.text
  16              	.Ltext0:
  17              		.cfi_sections	.debug_frame
  18              		.bss
  19              		.align	3
  20              	default_heap:
  21 0000 00000000 		.space	32
  21      00000000 
  21      00000000 
  21      00000000 
  21      00000000 
  22              		.text
  23              		.align	2
  24              		.global	_heap_init
  25              		.thumb
  26              		.thumb_func
  27              		.type	_heap_init, %function
  28              	_heap_init:
  29              	.LFB7:
  30              		.file 1 "/opt/R2P/core/ChibiOS_2.6.5/os/kernel/src/chheap.c"
  31              		.loc 1 75 0
  32              		.cfi_startproc
  33              		@ args = 0, pretend = 0, frame = 0
  34              		@ frame_needed = 0, uses_anonymous_args = 0
  35 0000 08B5     		push	{r3, lr}
  36              		.cfi_def_cfa_offset 8
  37              		.cfi_offset 3, -8
  38              		.cfi_offset 14, -4
  39              		.loc 1 76 0
  40 0002 064B     		ldr	r3, .L2
  41 0004 064A     		ldr	r2, .L2+4
  42 0006 1A60     		str	r2, [r3]
  43              		.loc 1 77 0
  44 0008 044B     		ldr	r3, .L2
  45 000a 0022     		movs	r2, #0
  46 000c 9A60     		str	r2, [r3, #8]
  47              		.loc 1 78 0
  48 000e 034B     		ldr	r3, .L2
  49 0010 0022     		movs	r2, #0
  50 0012 DA60     		str	r2, [r3, #12]
  51              		.loc 1 80 0
  52 0014 0348     		ldr	r0, .L2+8
  53 0016 FFF7FEFF 		bl	chMtxInit
ARM GAS  /tmp/ccboN3eA.s 			page 2


  54              		.loc 1 84 0
  55 001a 08BD     		pop	{r3, pc}
  56              	.L3:
  57              		.align	2
  58              	.L2:
  59 001c 00000000 		.word	default_heap
  60 0020 00000000 		.word	chCoreAlloc
  61 0024 10000000 		.word	default_heap+16
  62              		.cfi_endproc
  63              	.LFE7:
  64              		.size	_heap_init, .-_heap_init
  65              		.section	.rodata
  66              		.align	2
  67              	.LC0:
  68 0000 22636848 		.ascii	"\"chHeapInit\"()\000"
  68      65617049 
  68      6E697422 
  68      282900
  69              		.text
  70              		.align	2
  71              		.global	chHeapInit
  72              		.thumb
  73              		.thumb_func
  74              		.type	chHeapInit, %function
  75              	chHeapInit:
  76              	.LFB8:
  77              		.loc 1 99 0
  78              		.cfi_startproc
  79              		@ args = 0, pretend = 0, frame = 24
  80              		@ frame_needed = 0, uses_anonymous_args = 0
  81 0028 00B5     		push	{lr}
  82              		.cfi_def_cfa_offset 4
  83              		.cfi_offset 14, -4
  84 002a 87B0     		sub	sp, sp, #28
  85              		.cfi_def_cfa_offset 32
  86 002c 0390     		str	r0, [sp, #12]
  87 002e 0291     		str	r1, [sp, #8]
  88 0030 0192     		str	r2, [sp, #4]
  89              		.loc 1 102 0
  90 0032 029B     		ldr	r3, [sp, #8]
  91 0034 03F00703 		and	r3, r3, #7
  92 0038 002B     		cmp	r3, #0
  93 003a 04D1     		bne	.L5
  94              		.loc 1 102 0 is_stmt 0 discriminator 2
  95 003c 019B     		ldr	r3, [sp, #4]
  96 003e 03F00703 		and	r3, r3, #7
  97 0042 002B     		cmp	r3, #0
  98 0044 02D0     		beq	.L6
  99              	.L5:
 100              		.loc 1 102 0 discriminator 3
 101 0046 0F48     		ldr	r0, .L7
 102 0048 FFF7FEFF 		bl	chDbgPanic
 103              	.L6:
 104              		.loc 1 104 0 is_stmt 1
 105 004c 039B     		ldr	r3, [sp, #12]
 106 004e 0022     		movs	r2, #0
 107 0050 1A60     		str	r2, [r3]
ARM GAS  /tmp/ccboN3eA.s 			page 3


 108              		.loc 1 105 0
 109 0052 029B     		ldr	r3, [sp, #8]
 110 0054 0593     		str	r3, [sp, #20]
 111 0056 039B     		ldr	r3, [sp, #12]
 112 0058 059A     		ldr	r2, [sp, #20]
 113 005a 9A60     		str	r2, [r3, #8]
 114              		.loc 1 106 0
 115 005c 039B     		ldr	r3, [sp, #12]
 116 005e 0022     		movs	r2, #0
 117 0060 DA60     		str	r2, [r3, #12]
 118              		.loc 1 107 0
 119 0062 059B     		ldr	r3, [sp, #20]
 120 0064 0022     		movs	r2, #0
 121 0066 1A60     		str	r2, [r3]
 122              		.loc 1 108 0
 123 0068 019B     		ldr	r3, [sp, #4]
 124 006a A3F10802 		sub	r2, r3, #8
 125 006e 059B     		ldr	r3, [sp, #20]
 126 0070 5A60     		str	r2, [r3, #4]
 127              		.loc 1 110 0
 128 0072 039B     		ldr	r3, [sp, #12]
 129 0074 1033     		adds	r3, r3, #16
 130 0076 1846     		mov	r0, r3
 131 0078 FFF7FEFF 		bl	chMtxInit
 132              		.loc 1 114 0
 133 007c 07B0     		add	sp, sp, #28
 134              		.cfi_def_cfa_offset 4
 135              		@ sp needed
 136 007e 5DF804FB 		ldr	pc, [sp], #4
 137              	.L8:
 138 0082 00BF     		.align	2
 139              	.L7:
 140 0084 00000000 		.word	.LC0
 141              		.cfi_endproc
 142              	.LFE8:
 143              		.size	chHeapInit, .-chHeapInit
 144              		.align	2
 145              		.global	chHeapAlloc
 146              		.thumb
 147              		.thumb_func
 148              		.type	chHeapAlloc, %function
 149              	chHeapAlloc:
 150              	.LFB9:
 151              		.loc 1 132 0
 152              		.cfi_startproc
 153              		@ args = 0, pretend = 0, frame = 24
 154              		@ frame_needed = 0, uses_anonymous_args = 0
 155 0088 00B5     		push	{lr}
 156              		.cfi_def_cfa_offset 4
 157              		.cfi_offset 14, -4
 158 008a 87B0     		sub	sp, sp, #28
 159              		.cfi_def_cfa_offset 32
 160 008c 0190     		str	r0, [sp, #4]
 161 008e 0091     		str	r1, [sp]
 162              		.loc 1 135 0
 163 0090 019B     		ldr	r3, [sp, #4]
 164 0092 002B     		cmp	r3, #0
ARM GAS  /tmp/ccboN3eA.s 			page 4


 165 0094 01D1     		bne	.L10
 166              		.loc 1 136 0
 167 0096 344B     		ldr	r3, .L18
 168 0098 0193     		str	r3, [sp, #4]
 169              	.L10:
 170              		.loc 1 138 0
 171 009a 009B     		ldr	r3, [sp]
 172 009c 0733     		adds	r3, r3, #7
 173 009e 23F00703 		bic	r3, r3, #7
 174 00a2 0093     		str	r3, [sp]
 175              		.loc 1 139 0
 176 00a4 019B     		ldr	r3, [sp, #4]
 177 00a6 0833     		adds	r3, r3, #8
 178 00a8 0593     		str	r3, [sp, #20]
 179              		.loc 1 140 0
 180 00aa 019B     		ldr	r3, [sp, #4]
 181 00ac 1033     		adds	r3, r3, #16
 182 00ae 1846     		mov	r0, r3
 183 00b0 FFF7FEFF 		bl	chMtxLock
 184              		.loc 1 142 0
 185 00b4 33E0     		b	.L11
 186              	.L16:
 187              		.loc 1 143 0
 188 00b6 059B     		ldr	r3, [sp, #20]
 189 00b8 1B68     		ldr	r3, [r3]
 190 00ba 0493     		str	r3, [sp, #16]
 191              		.loc 1 144 0
 192 00bc 049B     		ldr	r3, [sp, #16]
 193 00be 5A68     		ldr	r2, [r3, #4]
 194 00c0 009B     		ldr	r3, [sp]
 195 00c2 9A42     		cmp	r2, r3
 196 00c4 29D3     		bcc	.L12
 197              		.loc 1 145 0
 198 00c6 049B     		ldr	r3, [sp, #16]
 199 00c8 5A68     		ldr	r2, [r3, #4]
 200 00ca 009B     		ldr	r3, [sp]
 201 00cc 0833     		adds	r3, r3, #8
 202 00ce 9A42     		cmp	r2, r3
 203 00d0 04D2     		bcs	.L13
 204              		.loc 1 149 0
 205 00d2 049B     		ldr	r3, [sp, #16]
 206 00d4 1A68     		ldr	r2, [r3]
 207 00d6 059B     		ldr	r3, [sp, #20]
 208 00d8 1A60     		str	r2, [r3]
 209 00da 16E0     		b	.L14
 210              	.L13:
 211              		.loc 1 153 0
 212 00dc 009B     		ldr	r3, [sp]
 213 00de 0833     		adds	r3, r3, #8
 214 00e0 049A     		ldr	r2, [sp, #16]
 215 00e2 1344     		add	r3, r3, r2
 216 00e4 0393     		str	r3, [sp, #12]
 217              		.loc 1 154 0
 218 00e6 049B     		ldr	r3, [sp, #16]
 219 00e8 1A68     		ldr	r2, [r3]
 220 00ea 039B     		ldr	r3, [sp, #12]
 221 00ec 1A60     		str	r2, [r3]
ARM GAS  /tmp/ccboN3eA.s 			page 5


 222              		.loc 1 155 0
 223 00ee 049B     		ldr	r3, [sp, #16]
 224 00f0 5A68     		ldr	r2, [r3, #4]
 225 00f2 009B     		ldr	r3, [sp]
 226 00f4 D31A     		subs	r3, r2, r3
 227 00f6 A3F10802 		sub	r2, r3, #8
 228 00fa 039B     		ldr	r3, [sp, #12]
 229 00fc 5A60     		str	r2, [r3, #4]
 230              		.loc 1 156 0
 231 00fe 059B     		ldr	r3, [sp, #20]
 232 0100 039A     		ldr	r2, [sp, #12]
 233 0102 1A60     		str	r2, [r3]
 234              		.loc 1 157 0
 235 0104 049B     		ldr	r3, [sp, #16]
 236 0106 009A     		ldr	r2, [sp]
 237 0108 5A60     		str	r2, [r3, #4]
 238              	.L14:
 239              		.loc 1 159 0
 240 010a 049B     		ldr	r3, [sp, #16]
 241 010c 019A     		ldr	r2, [sp, #4]
 242 010e 1A60     		str	r2, [r3]
 243              		.loc 1 161 0
 244 0110 FFF7FEFF 		bl	chMtxUnlock
 245              		.loc 1 162 0
 246 0114 049B     		ldr	r3, [sp, #16]
 247 0116 0833     		adds	r3, r3, #8
 248 0118 21E0     		b	.L15
 249              	.L12:
 250              		.loc 1 164 0
 251 011a 049B     		ldr	r3, [sp, #16]
 252 011c 0593     		str	r3, [sp, #20]
 253              	.L11:
 254              		.loc 1 142 0
 255 011e 059B     		ldr	r3, [sp, #20]
 256 0120 1B68     		ldr	r3, [r3]
 257 0122 002B     		cmp	r3, #0
 258 0124 C7D1     		bne	.L16
 259              		.loc 1 167 0
 260 0126 FFF7FEFF 		bl	chMtxUnlock
 261              		.loc 1 171 0
 262 012a 019B     		ldr	r3, [sp, #4]
 263 012c 1B68     		ldr	r3, [r3]
 264 012e 002B     		cmp	r3, #0
 265 0130 14D0     		beq	.L17
 266              		.loc 1 172 0
 267 0132 019B     		ldr	r3, [sp, #4]
 268 0134 1B68     		ldr	r3, [r3]
 269 0136 009A     		ldr	r2, [sp]
 270 0138 0832     		adds	r2, r2, #8
 271 013a 1046     		mov	r0, r2
 272 013c 9847     		blx	r3
 273 013e 0490     		str	r0, [sp, #16]
 274              		.loc 1 173 0
 275 0140 049B     		ldr	r3, [sp, #16]
 276 0142 002B     		cmp	r3, #0
 277 0144 0AD0     		beq	.L17
 278              		.loc 1 174 0
ARM GAS  /tmp/ccboN3eA.s 			page 6


 279 0146 049B     		ldr	r3, [sp, #16]
 280 0148 019A     		ldr	r2, [sp, #4]
 281 014a 1A60     		str	r2, [r3]
 282              		.loc 1 175 0
 283 014c 049B     		ldr	r3, [sp, #16]
 284 014e 009A     		ldr	r2, [sp]
 285 0150 5A60     		str	r2, [r3, #4]
 286              		.loc 1 176 0
 287 0152 049B     		ldr	r3, [sp, #16]
 288 0154 0833     		adds	r3, r3, #8
 289 0156 0493     		str	r3, [sp, #16]
 290              		.loc 1 177 0
 291 0158 049B     		ldr	r3, [sp, #16]
 292 015a 00E0     		b	.L15
 293              	.L17:
 294              		.loc 1 180 0
 295 015c 0023     		movs	r3, #0
 296              	.L15:
 297              		.loc 1 181 0
 298 015e 1846     		mov	r0, r3
 299 0160 07B0     		add	sp, sp, #28
 300              		.cfi_def_cfa_offset 4
 301              		@ sp needed
 302 0162 5DF804FB 		ldr	pc, [sp], #4
 303              	.L19:
 304 0166 00BF     		.align	2
 305              	.L18:
 306 0168 00000000 		.word	default_heap
 307              		.cfi_endproc
 308              	.LFE9:
 309              		.size	chHeapAlloc, .-chHeapAlloc
 310              		.section	.rodata
 311 000f 00       		.align	2
 312              	.LC1:
 313 0010 22636848 		.ascii	"\"chHeapFree\"()\000"
 313      65617046 
 313      72656522 
 313      282900
 314 001f 00       		.align	2
 315              	.LC2:
 316 0020 63684865 		.ascii	"chHeapFree(), #1\000"
 316      61704672 
 316      65652829 
 316      2C202331 
 316      00
 317 0031 000000   		.text
 318              		.align	2
 319              		.global	chHeapFree
 320              		.thumb
 321              		.thumb_func
 322              		.type	chHeapFree, %function
 323              	chHeapFree:
 324              	.LFB10:
 325              		.loc 1 194 0
 326              		.cfi_startproc
 327              		@ args = 0, pretend = 0, frame = 24
 328              		@ frame_needed = 0, uses_anonymous_args = 0
ARM GAS  /tmp/ccboN3eA.s 			page 7


 329 016c 00B5     		push	{lr}
 330              		.cfi_def_cfa_offset 4
 331              		.cfi_offset 14, -4
 332 016e 87B0     		sub	sp, sp, #28
 333              		.cfi_def_cfa_offset 32
 334 0170 0190     		str	r0, [sp, #4]
 335              		.loc 1 198 0
 336 0172 019B     		ldr	r3, [sp, #4]
 337 0174 002B     		cmp	r3, #0
 338 0176 02D1     		bne	.L21
 339              		.loc 1 198 0 is_stmt 0 discriminator 1
 340 0178 3948     		ldr	r0, .L31
 341 017a FFF7FEFF 		bl	chDbgPanic
 342              	.L21:
 343              		.loc 1 200 0 is_stmt 1
 344 017e 019B     		ldr	r3, [sp, #4]
 345 0180 083B     		subs	r3, r3, #8
 346 0182 0493     		str	r3, [sp, #16]
 347              		.loc 1 201 0
 348 0184 049B     		ldr	r3, [sp, #16]
 349 0186 1B68     		ldr	r3, [r3]
 350 0188 0393     		str	r3, [sp, #12]
 351              		.loc 1 202 0
 352 018a 039B     		ldr	r3, [sp, #12]
 353 018c 0833     		adds	r3, r3, #8
 354 018e 0593     		str	r3, [sp, #20]
 355              		.loc 1 203 0
 356 0190 039B     		ldr	r3, [sp, #12]
 357 0192 1033     		adds	r3, r3, #16
 358 0194 1846     		mov	r0, r3
 359 0196 FFF7FEFF 		bl	chMtxLock
 360              	.L29:
 361              		.loc 1 206 0
 362 019a 049A     		ldr	r2, [sp, #16]
 363 019c 059B     		ldr	r3, [sp, #20]
 364 019e 9A42     		cmp	r2, r3
 365 01a0 0AD3     		bcc	.L22
 366              		.loc 1 206 0 is_stmt 0 discriminator 1
 367 01a2 059B     		ldr	r3, [sp, #20]
 368 01a4 5B68     		ldr	r3, [r3, #4]
 369 01a6 0833     		adds	r3, r3, #8
 370 01a8 059A     		ldr	r2, [sp, #20]
 371 01aa 1A44     		add	r2, r2, r3
 372 01ac 049B     		ldr	r3, [sp, #16]
 373 01ae 9A42     		cmp	r2, r3
 374 01b0 02D9     		bls	.L22
 375              		.loc 1 206 0 discriminator 2
 376 01b2 2C48     		ldr	r0, .L31+4
 377 01b4 FFF7FEFF 		bl	chDbgPanic
 378              	.L22:
 379              		.loc 1 210 0 is_stmt 1
 380 01b8 039B     		ldr	r3, [sp, #12]
 381 01ba 03F10802 		add	r2, r3, #8
 382 01be 059B     		ldr	r3, [sp, #20]
 383 01c0 9A42     		cmp	r2, r3
 384 01c2 03D0     		beq	.L23
 385              		.loc 1 210 0 is_stmt 0 discriminator 2
ARM GAS  /tmp/ccboN3eA.s 			page 8


 386 01c4 049A     		ldr	r2, [sp, #16]
 387 01c6 059B     		ldr	r3, [sp, #20]
 388 01c8 9A42     		cmp	r2, r3
 389 01ca 3ED9     		bls	.L24
 390              	.L23:
 391              		.loc 1 211 0 is_stmt 1 discriminator 3
 392 01cc 059B     		ldr	r3, [sp, #20]
 393 01ce 1B68     		ldr	r3, [r3]
 394              		.loc 1 210 0 discriminator 3
 395 01d0 002B     		cmp	r3, #0
 396 01d2 04D0     		beq	.L25
 397              		.loc 1 211 0
 398 01d4 059B     		ldr	r3, [sp, #20]
 399 01d6 1A68     		ldr	r2, [r3]
 400 01d8 049B     		ldr	r3, [sp, #16]
 401 01da 9A42     		cmp	r2, r3
 402 01dc 35D9     		bls	.L24
 403              	.L25:
 404              		.loc 1 213 0
 405 01de 059B     		ldr	r3, [sp, #20]
 406 01e0 1A68     		ldr	r2, [r3]
 407 01e2 049B     		ldr	r3, [sp, #16]
 408 01e4 1A60     		str	r2, [r3]
 409              		.loc 1 214 0
 410 01e6 059B     		ldr	r3, [sp, #20]
 411 01e8 049A     		ldr	r2, [sp, #16]
 412 01ea 1A60     		str	r2, [r3]
 413              		.loc 1 216 0
 414 01ec 049B     		ldr	r3, [sp, #16]
 415 01ee 5B68     		ldr	r3, [r3, #4]
 416 01f0 0833     		adds	r3, r3, #8
 417 01f2 049A     		ldr	r2, [sp, #16]
 418 01f4 1A44     		add	r2, r2, r3
 419 01f6 049B     		ldr	r3, [sp, #16]
 420 01f8 1B68     		ldr	r3, [r3]
 421 01fa 9A42     		cmp	r2, r3
 422 01fc 0ED1     		bne	.L26
 423              		.loc 1 218 0
 424 01fe 049B     		ldr	r3, [sp, #16]
 425 0200 5A68     		ldr	r2, [r3, #4]
 426 0202 049B     		ldr	r3, [sp, #16]
 427 0204 1B68     		ldr	r3, [r3]
 428 0206 5B68     		ldr	r3, [r3, #4]
 429 0208 1344     		add	r3, r3, r2
 430 020a 03F10802 		add	r2, r3, #8
 431 020e 049B     		ldr	r3, [sp, #16]
 432 0210 5A60     		str	r2, [r3, #4]
 433              		.loc 1 219 0
 434 0212 049B     		ldr	r3, [sp, #16]
 435 0214 1B68     		ldr	r3, [r3]
 436 0216 1A68     		ldr	r2, [r3]
 437 0218 049B     		ldr	r3, [sp, #16]
 438 021a 1A60     		str	r2, [r3]
 439              	.L26:
 440              		.loc 1 221 0
 441 021c 059B     		ldr	r3, [sp, #20]
 442 021e 5B68     		ldr	r3, [r3, #4]
ARM GAS  /tmp/ccboN3eA.s 			page 9


 443 0220 0833     		adds	r3, r3, #8
 444 0222 059A     		ldr	r2, [sp, #20]
 445 0224 1A44     		add	r2, r2, r3
 446 0226 049B     		ldr	r3, [sp, #16]
 447 0228 9A42     		cmp	r2, r3
 448 022a 0DD1     		bne	.L27
 449              		.loc 1 223 0
 450 022c 059B     		ldr	r3, [sp, #20]
 451 022e 5A68     		ldr	r2, [r3, #4]
 452 0230 049B     		ldr	r3, [sp, #16]
 453 0232 5B68     		ldr	r3, [r3, #4]
 454 0234 1344     		add	r3, r3, r2
 455 0236 03F10802 		add	r2, r3, #8
 456 023a 059B     		ldr	r3, [sp, #20]
 457 023c 5A60     		str	r2, [r3, #4]
 458              		.loc 1 224 0
 459 023e 049B     		ldr	r3, [sp, #16]
 460 0240 1A68     		ldr	r2, [r3]
 461 0242 059B     		ldr	r3, [sp, #20]
 462 0244 1A60     		str	r2, [r3]
 463              		.loc 1 226 0
 464 0246 04E0     		b	.L28
 465              	.L27:
 466 0248 03E0     		b	.L28
 467              	.L24:
 468              		.loc 1 228 0
 469 024a 059B     		ldr	r3, [sp, #20]
 470 024c 1B68     		ldr	r3, [r3]
 471 024e 0593     		str	r3, [sp, #20]
 472              		.loc 1 229 0
 473 0250 A3E7     		b	.L29
 474              	.L28:
 475              		.loc 1 231 0
 476 0252 FFF7FEFF 		bl	chMtxUnlock
 477              		.loc 1 232 0
 478 0256 00BF     		nop
 479              		.loc 1 233 0
 480 0258 07B0     		add	sp, sp, #28
 481              		.cfi_def_cfa_offset 4
 482              		@ sp needed
 483 025a 5DF804FB 		ldr	pc, [sp], #4
 484              	.L32:
 485 025e 00BF     		.align	2
 486              	.L31:
 487 0260 10000000 		.word	.LC1
 488 0264 20000000 		.word	.LC2
 489              		.cfi_endproc
 490              	.LFE10:
 491              		.size	chHeapFree, .-chHeapFree
 492              		.align	2
 493              		.global	chHeapStatus
 494              		.thumb
 495              		.thumb_func
 496              		.type	chHeapStatus, %function
 497              	chHeapStatus:
 498              	.LFB11:
 499              		.loc 1 250 0
ARM GAS  /tmp/ccboN3eA.s 			page 10


 500              		.cfi_startproc
 501              		@ args = 0, pretend = 0, frame = 24
 502              		@ frame_needed = 0, uses_anonymous_args = 0
 503 0268 00B5     		push	{lr}
 504              		.cfi_def_cfa_offset 4
 505              		.cfi_offset 14, -4
 506 026a 87B0     		sub	sp, sp, #28
 507              		.cfi_def_cfa_offset 32
 508 026c 0190     		str	r0, [sp, #4]
 509 026e 0091     		str	r1, [sp]
 510              		.loc 1 254 0
 511 0270 019B     		ldr	r3, [sp, #4]
 512 0272 002B     		cmp	r3, #0
 513 0274 01D1     		bne	.L34
 514              		.loc 1 255 0
 515 0276 164B     		ldr	r3, .L39
 516 0278 0193     		str	r3, [sp, #4]
 517              	.L34:
 518              		.loc 1 257 0
 519 027a 019B     		ldr	r3, [sp, #4]
 520 027c 1033     		adds	r3, r3, #16
 521 027e 1846     		mov	r0, r3
 522 0280 FFF7FEFF 		bl	chMtxLock
 523              		.loc 1 259 0
 524 0284 0023     		movs	r3, #0
 525 0286 0393     		str	r3, [sp, #12]
 526              		.loc 1 260 0
 527 0288 0023     		movs	r3, #0
 528 028a 0493     		str	r3, [sp, #16]
 529 028c 019B     		ldr	r3, [sp, #4]
 530 028e 0833     		adds	r3, r3, #8
 531 0290 0593     		str	r3, [sp, #20]
 532 0292 0BE0     		b	.L35
 533              	.L36:
 534              		.loc 1 261 0 discriminator 3
 535 0294 059B     		ldr	r3, [sp, #20]
 536 0296 1B68     		ldr	r3, [r3]
 537 0298 5B68     		ldr	r3, [r3, #4]
 538 029a 039A     		ldr	r2, [sp, #12]
 539 029c 1344     		add	r3, r3, r2
 540 029e 0393     		str	r3, [sp, #12]
 541              		.loc 1 260 0 discriminator 3
 542 02a0 049B     		ldr	r3, [sp, #16]
 543 02a2 0133     		adds	r3, r3, #1
 544 02a4 0493     		str	r3, [sp, #16]
 545 02a6 059B     		ldr	r3, [sp, #20]
 546 02a8 1B68     		ldr	r3, [r3]
 547 02aa 0593     		str	r3, [sp, #20]
 548              	.L35:
 549              		.loc 1 260 0 is_stmt 0 discriminator 1
 550 02ac 059B     		ldr	r3, [sp, #20]
 551 02ae 1B68     		ldr	r3, [r3]
 552 02b0 002B     		cmp	r3, #0
 553 02b2 EFD1     		bne	.L36
 554              		.loc 1 262 0 is_stmt 1
 555 02b4 009B     		ldr	r3, [sp]
 556 02b6 002B     		cmp	r3, #0
ARM GAS  /tmp/ccboN3eA.s 			page 11


 557 02b8 02D0     		beq	.L37
 558              		.loc 1 263 0
 559 02ba 009B     		ldr	r3, [sp]
 560 02bc 039A     		ldr	r2, [sp, #12]
 561 02be 1A60     		str	r2, [r3]
 562              	.L37:
 563              		.loc 1 265 0
 564 02c0 FFF7FEFF 		bl	chMtxUnlock
 565              		.loc 1 266 0
 566 02c4 049B     		ldr	r3, [sp, #16]
 567              		.loc 1 267 0
 568 02c6 1846     		mov	r0, r3
 569 02c8 07B0     		add	sp, sp, #28
 570              		.cfi_def_cfa_offset 4
 571              		@ sp needed
 572 02ca 5DF804FB 		ldr	pc, [sp], #4
 573              	.L40:
 574 02ce 00BF     		.align	2
 575              	.L39:
 576 02d0 00000000 		.word	default_heap
 577              		.cfi_endproc
 578              	.LFE11:
 579              		.size	chHeapStatus, .-chHeapStatus
 580              	.Letext0:
 581              		.file 2 "/opt/R2P/tools/gcc-arm-none-eabi-4_9-2014q4/lib/gcc/arm-none-eabi/4.9.3/include/stddef.h"
 582              		.file 3 "/opt/R2P/tools/gcc-arm-none-eabi-4_9-2014q4/arm-none-eabi/include/machine/_default_types.
 583              		.file 4 "/opt/R2P/tools/gcc-arm-none-eabi-4_9-2014q4/arm-none-eabi/include/stdint.h"
 584              		.file 5 "/opt/R2P/core/ChibiOS_2.6.5/os/ports/GCC/ARMCMx/chtypes.h"
 585              		.file 6 "/opt/R2P/core/ChibiOS_2.6.5/os/kernel/include/chlists.h"
 586              		.file 7 "/opt/R2P/core/ChibiOS_2.6.5/os/kernel/include/chthreads.h"
 587              		.file 8 "/opt/R2P/core/ChibiOS_2.6.5/os/ports/GCC/ARMCMx/chcore_v7m.h"
 588              		.file 9 "/opt/R2P/core/ChibiOS_2.6.5/os/kernel/include/chmtx.h"
 589              		.file 10 "/opt/R2P/core/ChibiOS_2.6.5/os/kernel/include/chmemcore.h"
 590              		.file 11 "/opt/R2P/core/ChibiOS_2.6.5/os/kernel/include/chheap.h"