ARM GAS  /tmp/ccPevzAy.s 			page 1


   1              		.syntax unified
   2              		.cpu cortex-m4
   3              		.fpu softvfp
   4              		.eabi_attribute 20, 1
   5              		.eabi_attribute 21, 1
   6              		.eabi_attribute 23, 3
   7              		.eabi_attribute 24, 1
   8              		.eabi_attribute 25, 1
   9              		.eabi_attribute 26, 1
  10              		.eabi_attribute 30, 6
  11              		.eabi_attribute 34, 1
  12              		.eabi_attribute 18, 4
  13              		.thumb
  14              		.file	"chmemcore.c"
  15              		.text
  16              	.Ltext0:
  17              		.cfi_sections	.debug_frame
  18              		.bss
  19              		.align	2
  20              	nextmem:
  21 0000 00000000 		.space	4
  22              		.align	2
  23              	endmem:
  24 0004 00000000 		.space	4
  25              		.align	2
  26              	realendmem:
  27 0008 00000000 		.space	4
  28              		.text
  29              		.align	2
  30              		.global	_core_init
  31              		.thumb
  32              		.thumb_func
  33              		.type	_core_init, %function
  34              	_core_init:
  35              	.LFB7:
  36              		.file 1 "chmemcore.c"
  37              		.loc 1 61 0
  38              		.cfi_startproc
  39              		@ args = 0, pretend = 0, frame = 0
  40              		@ frame_needed = 0, uses_anonymous_args = 0
  41              		@ link register save eliminated.
  42              		.loc 1 65 0
  43 0000 084B     		ldr	r3, .L2
  44 0002 0733     		adds	r3, r3, #7
  45 0004 23F00703 		bic	r3, r3, #7
  46 0008 1A46     		mov	r2, r3
  47 000a 074B     		ldr	r3, .L2+4
  48 000c 1A60     		str	r2, [r3]
  49              		.loc 1 66 0
  50 000e 074B     		ldr	r3, .L2+8
  51 0010 23F00703 		bic	r3, r3, #7
  52 0014 1A46     		mov	r2, r3
  53 0016 064B     		ldr	r3, .L2+12
  54 0018 1A60     		str	r2, [r3]
  55              		.loc 1 72 0
  56 001a 054B     		ldr	r3, .L2+12
  57 001c 1B68     		ldr	r3, [r3]
ARM GAS  /tmp/ccPevzAy.s 			page 2


  58 001e 054A     		ldr	r2, .L2+16
  59 0020 1360     		str	r3, [r2]
  60              		.loc 1 73 0
  61 0022 7047     		bx	lr
  62              	.L3:
  63              		.align	2
  64              	.L2:
  65 0024 00000000 		.word	__heap_base__
  66 0028 00000000 		.word	nextmem
  67 002c 00000000 		.word	__heap_end__
  68 0030 04000000 		.word	endmem
  69 0034 08000000 		.word	realendmem
  70              		.cfi_endproc
  71              	.LFE7:
  72              		.size	_core_init, .-_core_init
  73              		.align	2
  74              		.global	chCoreAlloc
  75              		.thumb
  76              		.thumb_func
  77              		.type	chCoreAlloc, %function
  78              	chCoreAlloc:
  79              	.LFB8:
  80              		.loc 1 87 0
  81              		.cfi_startproc
  82              		@ args = 0, pretend = 0, frame = 16
  83              		@ frame_needed = 0, uses_anonymous_args = 0
  84 0038 00B5     		push	{lr}
  85              		.cfi_def_cfa_offset 4
  86              		.cfi_offset 14, -4
  87 003a 85B0     		sub	sp, sp, #20
  88              		.cfi_def_cfa_offset 24
  89 003c 0190     		str	r0, [sp, #4]
  90              	.LBB2:
  91              		.loc 1 90 0
  92 003e 2023     		movs	r3, #32
  93              	@ 90 "chmemcore.c" 1
  94 0040 83F31188 		msr     BASEPRI, r3
  95              	@ 0 "" 2
  96              		.thumb
  97              	.LBE2:
  98 0044 FFF7FEFF 		bl	dbg_check_lock
  99              		.loc 1 91 0
 100 0048 0198     		ldr	r0, [sp, #4]
 101 004a FFF7FEFF 		bl	chCoreAllocI
 102 004e 0390     		str	r0, [sp, #12]
 103              		.loc 1 92 0
 104 0050 FFF7FEFF 		bl	dbg_check_unlock
 105              	.LBB3:
 106 0054 0023     		movs	r3, #0
 107              	@ 92 "chmemcore.c" 1
 108 0056 83F31188 		msr     BASEPRI, r3
 109              	@ 0 "" 2
 110              		.thumb
 111              	.LBE3:
 112              		.loc 1 93 0
 113 005a 039B     		ldr	r3, [sp, #12]
 114              		.loc 1 94 0
ARM GAS  /tmp/ccPevzAy.s 			page 3


 115 005c 1846     		mov	r0, r3
 116 005e 05B0     		add	sp, sp, #20
 117              		.cfi_def_cfa_offset 4
 118              		@ sp needed
 119 0060 5DF804FB 		ldr	pc, [sp], #4
 120              		.cfi_endproc
 121              	.LFE8:
 122              		.size	chCoreAlloc, .-chCoreAlloc
 123              		.align	2
 124              		.global	chCoreAllocI
 125              		.thumb
 126              		.thumb_func
 127              		.type	chCoreAllocI, %function
 128              	chCoreAllocI:
 129              	.LFB9:
 130              		.loc 1 108 0
 131              		.cfi_startproc
 132              		@ args = 0, pretend = 0, frame = 16
 133              		@ frame_needed = 0, uses_anonymous_args = 0
 134 0064 00B5     		push	{lr}
 135              		.cfi_def_cfa_offset 4
 136              		.cfi_offset 14, -4
 137 0066 85B0     		sub	sp, sp, #20
 138              		.cfi_def_cfa_offset 24
 139 0068 0190     		str	r0, [sp, #4]
 140              		.loc 1 111 0
 141 006a FFF7FEFF 		bl	chDbgCheckClassI
 142              		.loc 1 113 0
 143 006e 019B     		ldr	r3, [sp, #4]
 144 0070 0733     		adds	r3, r3, #7
 145 0072 23F00703 		bic	r3, r3, #7
 146 0076 0193     		str	r3, [sp, #4]
 147              		.loc 1 114 0
 148 0078 0C4B     		ldr	r3, .L9
 149 007a 1B68     		ldr	r3, [r3]
 150 007c 1A46     		mov	r2, r3
 151 007e 0C4B     		ldr	r3, .L9+4
 152 0080 1B68     		ldr	r3, [r3]
 153 0082 D31A     		subs	r3, r2, r3
 154 0084 1A46     		mov	r2, r3
 155 0086 019B     		ldr	r3, [sp, #4]
 156 0088 9A42     		cmp	r2, r3
 157 008a 01D2     		bcs	.L7
 158              		.loc 1 115 0
 159 008c 0023     		movs	r3, #0
 160 008e 09E0     		b	.L8
 161              	.L7:
 162              		.loc 1 116 0
 163 0090 074B     		ldr	r3, .L9+4
 164 0092 1B68     		ldr	r3, [r3]
 165 0094 0393     		str	r3, [sp, #12]
 166              		.loc 1 117 0
 167 0096 064B     		ldr	r3, .L9+4
 168 0098 1A68     		ldr	r2, [r3]
 169 009a 019B     		ldr	r3, [sp, #4]
 170 009c 1344     		add	r3, r3, r2
 171 009e 044A     		ldr	r2, .L9+4
ARM GAS  /tmp/ccPevzAy.s 			page 4


 172 00a0 1360     		str	r3, [r2]
 173              		.loc 1 118 0
 174 00a2 039B     		ldr	r3, [sp, #12]
 175              	.L8:
 176              		.loc 1 119 0
 177 00a4 1846     		mov	r0, r3
 178 00a6 05B0     		add	sp, sp, #20
 179              		.cfi_def_cfa_offset 4
 180              		@ sp needed
 181 00a8 5DF804FB 		ldr	pc, [sp], #4
 182              	.L10:
 183              		.align	2
 184              	.L9:
 185 00ac 04000000 		.word	endmem
 186 00b0 00000000 		.word	nextmem
 187              		.cfi_endproc
 188              	.LFE9:
 189              		.size	chCoreAllocI, .-chCoreAllocI
 190              		.align	2
 191              		.global	chCoreStatus
 192              		.thumb
 193              		.thumb_func
 194              		.type	chCoreStatus, %function
 195              	chCoreStatus:
 196              	.LFB10:
 197              		.loc 1 128 0
 198              		.cfi_startproc
 199              		@ args = 0, pretend = 0, frame = 0
 200              		@ frame_needed = 0, uses_anonymous_args = 0
 201              		@ link register save eliminated.
 202              		.loc 1 130 0
 203 00b4 034B     		ldr	r3, .L13
 204 00b6 1B68     		ldr	r3, [r3]
 205 00b8 1A46     		mov	r2, r3
 206 00ba 034B     		ldr	r3, .L13+4
 207 00bc 1B68     		ldr	r3, [r3]
 208 00be D31A     		subs	r3, r2, r3
 209              		.loc 1 131 0
 210 00c0 1846     		mov	r0, r3
 211 00c2 7047     		bx	lr
 212              	.L14:
 213              		.align	2
 214              	.L13:
 215 00c4 04000000 		.word	endmem
 216 00c8 00000000 		.word	nextmem
 217              		.cfi_endproc
 218              	.LFE10:
 219              		.size	chCoreStatus, .-chCoreStatus
 220              		.align	2
 221              		.global	chCoreReserve
 222              		.thumb
 223              		.thumb_func
 224              		.type	chCoreReserve, %function
 225              	chCoreReserve:
 226              	.LFB11:
 227              		.loc 1 135 0
 228              		.cfi_startproc
ARM GAS  /tmp/ccPevzAy.s 			page 5


 229              		@ args = 0, pretend = 0, frame = 16
 230              		@ frame_needed = 0, uses_anonymous_args = 0
 231 00cc 00B5     		push	{lr}
 232              		.cfi_def_cfa_offset 4
 233              		.cfi_offset 14, -4
 234 00ce 85B0     		sub	sp, sp, #20
 235              		.cfi_def_cfa_offset 24
 236 00d0 0190     		str	r0, [sp, #4]
 237              	.LBB4:
 238              		.loc 1 138 0
 239 00d2 2023     		movs	r3, #32
 240              	@ 138 "chmemcore.c" 1
 241 00d4 83F31188 		msr     BASEPRI, r3
 242              	@ 0 "" 2
 243              		.thumb
 244              	.LBE4:
 245 00d8 FFF7FEFF 		bl	dbg_check_lock
 246              		.loc 1 139 0
 247 00dc 0198     		ldr	r0, [sp, #4]
 248 00de FFF7FEFF 		bl	chCoreReserveI
 249 00e2 0390     		str	r0, [sp, #12]
 250              		.loc 1 140 0
 251 00e4 FFF7FEFF 		bl	dbg_check_unlock
 252              	.LBB5:
 253 00e8 0023     		movs	r3, #0
 254              	@ 140 "chmemcore.c" 1
 255 00ea 83F31188 		msr     BASEPRI, r3
 256              	@ 0 "" 2
 257              		.thumb
 258              	.LBE5:
 259              		.loc 1 141 0
 260 00ee 039B     		ldr	r3, [sp, #12]
 261              		.loc 1 142 0
 262 00f0 1846     		mov	r0, r3
 263 00f2 05B0     		add	sp, sp, #20
 264              		.cfi_def_cfa_offset 4
 265              		@ sp needed
 266 00f4 5DF804FB 		ldr	pc, [sp], #4
 267              		.cfi_endproc
 268              	.LFE11:
 269              		.size	chCoreReserve, .-chCoreReserve
 270              		.align	2
 271              		.global	chCoreReserveI
 272              		.thumb
 273              		.thumb_func
 274              		.type	chCoreReserveI, %function
 275              	chCoreReserveI:
 276              	.LFB12:
 277              		.loc 1 144 0
 278              		.cfi_startproc
 279              		@ args = 0, pretend = 0, frame = 8
 280              		@ frame_needed = 0, uses_anonymous_args = 0
 281 00f8 00B5     		push	{lr}
 282              		.cfi_def_cfa_offset 4
 283              		.cfi_offset 14, -4
 284 00fa 83B0     		sub	sp, sp, #12
 285              		.cfi_def_cfa_offset 16
ARM GAS  /tmp/ccPevzAy.s 			page 6


 286 00fc 0190     		str	r0, [sp, #4]
 287              		.loc 1 146 0
 288 00fe FFF7FEFF 		bl	chDbgCheckClassI
 289              		.loc 1 148 0
 290 0102 019B     		ldr	r3, [sp, #4]
 291 0104 0733     		adds	r3, r3, #7
 292 0106 23F00703 		bic	r3, r3, #7
 293 010a 0193     		str	r3, [sp, #4]
 294              		.loc 1 149 0
 295 010c 0C4B     		ldr	r3, .L20
 296 010e 1B68     		ldr	r3, [r3]
 297 0110 1A46     		mov	r2, r3
 298 0112 0C4B     		ldr	r3, .L20+4
 299 0114 1B68     		ldr	r3, [r3]
 300 0116 D31A     		subs	r3, r2, r3
 301 0118 1A46     		mov	r2, r3
 302 011a 019B     		ldr	r3, [sp, #4]
 303 011c 9A42     		cmp	r2, r3
 304 011e 01D2     		bcs	.L18
 305              		.loc 1 150 0
 306 0120 0023     		movs	r3, #0
 307 0122 08E0     		b	.L19
 308              	.L18:
 309              		.loc 1 151 0
 310 0124 064B     		ldr	r3, .L20
 311 0126 1A68     		ldr	r2, [r3]
 312 0128 019B     		ldr	r3, [sp, #4]
 313 012a 5B42     		negs	r3, r3
 314 012c 1344     		add	r3, r3, r2
 315 012e 044A     		ldr	r2, .L20
 316 0130 1360     		str	r3, [r2]
 317              		.loc 1 152 0
 318 0132 034B     		ldr	r3, .L20
 319 0134 1B68     		ldr	r3, [r3]
 320              	.L19:
 321              		.loc 1 153 0
 322 0136 1846     		mov	r0, r3
 323 0138 03B0     		add	sp, sp, #12
 324              		.cfi_def_cfa_offset 4
 325              		@ sp needed
 326 013a 5DF804FB 		ldr	pc, [sp], #4
 327              	.L21:
 328 013e 00BF     		.align	2
 329              	.L20:
 330 0140 04000000 		.word	endmem
 331 0144 00000000 		.word	nextmem
 332              		.cfi_endproc
 333              	.LFE12:
 334              		.size	chCoreReserveI, .-chCoreReserveI
 335              		.align	2
 336              		.global	chCoreUnreserve
 337              		.thumb
 338              		.thumb_func
 339              		.type	chCoreUnreserve, %function
 340              	chCoreUnreserve:
 341              	.LFB13:
 342              		.loc 1 155 0
ARM GAS  /tmp/ccPevzAy.s 			page 7


 343              		.cfi_startproc
 344              		@ args = 0, pretend = 0, frame = 16
 345              		@ frame_needed = 0, uses_anonymous_args = 0
 346 0148 00B5     		push	{lr}
 347              		.cfi_def_cfa_offset 4
 348              		.cfi_offset 14, -4
 349 014a 85B0     		sub	sp, sp, #20
 350              		.cfi_def_cfa_offset 24
 351 014c 0190     		str	r0, [sp, #4]
 352              	.LBB6:
 353              		.loc 1 158 0
 354 014e 2023     		movs	r3, #32
 355              	@ 158 "chmemcore.c" 1
 356 0150 83F31188 		msr     BASEPRI, r3
 357              	@ 0 "" 2
 358              		.thumb
 359              	.LBE6:
 360 0154 FFF7FEFF 		bl	dbg_check_lock
 361              		.loc 1 159 0
 362 0158 0198     		ldr	r0, [sp, #4]
 363 015a FFF7FEFF 		bl	chCoreUnreserveI
 364 015e 0390     		str	r0, [sp, #12]
 365              		.loc 1 160 0
 366 0160 FFF7FEFF 		bl	dbg_check_unlock
 367              	.LBB7:
 368 0164 0023     		movs	r3, #0
 369              	@ 160 "chmemcore.c" 1
 370 0166 83F31188 		msr     BASEPRI, r3
 371              	@ 0 "" 2
 372              		.thumb
 373              	.LBE7:
 374              		.loc 1 161 0
 375 016a 039B     		ldr	r3, [sp, #12]
 376              		.loc 1 162 0
 377 016c 1846     		mov	r0, r3
 378 016e 05B0     		add	sp, sp, #20
 379              		.cfi_def_cfa_offset 4
 380              		@ sp needed
 381 0170 5DF804FB 		ldr	pc, [sp], #4
 382              		.cfi_endproc
 383              	.LFE13:
 384              		.size	chCoreUnreserve, .-chCoreUnreserve
 385              		.align	2
 386              		.global	chCoreUnreserveI
 387              		.thumb
 388              		.thumb_func
 389              		.type	chCoreUnreserveI, %function
 390              	chCoreUnreserveI:
 391              	.LFB14:
 392              		.loc 1 164 0
 393              		.cfi_startproc
 394              		@ args = 0, pretend = 0, frame = 8
 395              		@ frame_needed = 0, uses_anonymous_args = 0
 396 0174 00B5     		push	{lr}
 397              		.cfi_def_cfa_offset 4
 398              		.cfi_offset 14, -4
 399 0176 83B0     		sub	sp, sp, #12
ARM GAS  /tmp/ccPevzAy.s 			page 8


 400              		.cfi_def_cfa_offset 16
 401 0178 0190     		str	r0, [sp, #4]
 402              		.loc 1 166 0
 403 017a FFF7FEFF 		bl	chDbgCheckClassI
 404              		.loc 1 168 0
 405 017e 019B     		ldr	r3, [sp, #4]
 406 0180 0733     		adds	r3, r3, #7
 407 0182 23F00703 		bic	r3, r3, #7
 408 0186 0193     		str	r3, [sp, #4]
 409              		.loc 1 169 0
 410 0188 0B4B     		ldr	r3, .L27
 411 018a 1B68     		ldr	r3, [r3]
 412 018c 1A46     		mov	r2, r3
 413 018e 0B4B     		ldr	r3, .L27+4
 414 0190 1B68     		ldr	r3, [r3]
 415 0192 D31A     		subs	r3, r2, r3
 416 0194 1A46     		mov	r2, r3
 417 0196 019B     		ldr	r3, [sp, #4]
 418 0198 9A42     		cmp	r2, r3
 419 019a 01D2     		bcs	.L25
 420              		.loc 1 170 0
 421 019c 0023     		movs	r3, #0
 422 019e 07E0     		b	.L26
 423              	.L25:
 424              		.loc 1 171 0
 425 01a0 064B     		ldr	r3, .L27+4
 426 01a2 1A68     		ldr	r2, [r3]
 427 01a4 019B     		ldr	r3, [sp, #4]
 428 01a6 1344     		add	r3, r3, r2
 429 01a8 044A     		ldr	r2, .L27+4
 430 01aa 1360     		str	r3, [r2]
 431              		.loc 1 172 0
 432 01ac 034B     		ldr	r3, .L27+4
 433 01ae 1B68     		ldr	r3, [r3]
 434              	.L26:
 435              		.loc 1 173 0
 436 01b0 1846     		mov	r0, r3
 437 01b2 03B0     		add	sp, sp, #12
 438              		.cfi_def_cfa_offset 4
 439              		@ sp needed
 440 01b4 5DF804FB 		ldr	pc, [sp], #4
 441              	.L28:
 442              		.align	2
 443              	.L27:
 444 01b8 08000000 		.word	realendmem
 445 01bc 04000000 		.word	endmem
 446              		.cfi_endproc
 447              	.LFE14:
 448              		.size	chCoreUnreserveI, .-chCoreUnreserveI
 449              	.Letext0:
 450              		.file 2 "/opt/R2P/tools/gcc-arm-none-eabi-4_9-2014q4/lib/gcc/arm-none-eabi/4.9.3/include/stddef.h"
 451              		.file 3 "/opt/R2P/tools/gcc-arm-none-eabi-4_9-2014q4/arm-none-eabi/include/machine/_default_types.
 452              		.file 4 "/opt/R2P/tools/gcc-arm-none-eabi-4_9-2014q4/arm-none-eabi/include/stdint.h"