ARM GAS  /tmp/ccrOybKq.s 			page 1


   1              		.syntax unified
   2              		.cpu cortex-m4
   3              		.fpu softvfp
   4              		.eabi_attribute 20, 1
   5              		.eabi_attribute 21, 1
   6              		.eabi_attribute 23, 3
   7              		.eabi_attribute 24, 1
   8              		.eabi_attribute 25, 1
   9              		.eabi_attribute 26, 1
  10              		.eabi_attribute 30, 6
  11              		.eabi_attribute 34, 1
  12              		.eabi_attribute 18, 4
  13              		.thumb
  14              		.file	"chmsg.c"
  15              		.text
  16              	.Ltext0:
  17              		.cfi_sections	.debug_frame
  18              		.align	2
  19              		.thumb
  20              		.thumb_func
  21              		.type	queue_insert, %function
  22              	queue_insert:
  23              	.LFB1:
  24              		.file 1 "/opt/R2P/core/ChibiOS_2.6.5/os/kernel/include/chinline.h"
  25              		.loc 1 52 0
  26              		.cfi_startproc
  27              		@ args = 0, pretend = 0, frame = 8
  28              		@ frame_needed = 0, uses_anonymous_args = 0
  29              		@ link register save eliminated.
  30 0000 82B0     		sub	sp, sp, #8
  31              		.cfi_def_cfa_offset 8
  32 0002 0190     		str	r0, [sp, #4]
  33 0004 0091     		str	r1, [sp]
  34              		.loc 1 54 0
  35 0006 019B     		ldr	r3, [sp, #4]
  36 0008 009A     		ldr	r2, [sp]
  37 000a 1A60     		str	r2, [r3]
  38              		.loc 1 55 0
  39 000c 009B     		ldr	r3, [sp]
  40 000e 5A68     		ldr	r2, [r3, #4]
  41 0010 019B     		ldr	r3, [sp, #4]
  42 0012 5A60     		str	r2, [r3, #4]
  43              		.loc 1 56 0
  44 0014 019B     		ldr	r3, [sp, #4]
  45 0016 5B68     		ldr	r3, [r3, #4]
  46 0018 009A     		ldr	r2, [sp]
  47 001a 0199     		ldr	r1, [sp, #4]
  48 001c 5160     		str	r1, [r2, #4]
  49 001e 009A     		ldr	r2, [sp]
  50 0020 5268     		ldr	r2, [r2, #4]
  51 0022 1A60     		str	r2, [r3]
  52              		.loc 1 57 0
  53 0024 02B0     		add	sp, sp, #8
  54              		.cfi_def_cfa_offset 0
  55              		@ sp needed
  56 0026 7047     		bx	lr
  57              		.cfi_endproc
ARM GAS  /tmp/ccrOybKq.s 			page 2


  58              	.LFE1:
  59              		.size	queue_insert, .-queue_insert
  60              		.align	2
  61              		.thumb
  62              		.thumb_func
  63              		.type	fifo_remove, %function
  64              	fifo_remove:
  65              	.LFB2:
  66              		.loc 1 59 0
  67              		.cfi_startproc
  68              		@ args = 0, pretend = 0, frame = 16
  69              		@ frame_needed = 0, uses_anonymous_args = 0
  70              		@ link register save eliminated.
  71 0028 84B0     		sub	sp, sp, #16
  72              		.cfi_def_cfa_offset 16
  73 002a 0190     		str	r0, [sp, #4]
  74              		.loc 1 60 0
  75 002c 019B     		ldr	r3, [sp, #4]
  76 002e 1B68     		ldr	r3, [r3]
  77 0030 0393     		str	r3, [sp, #12]
  78              		.loc 1 62 0
  79 0032 039B     		ldr	r3, [sp, #12]
  80 0034 1A68     		ldr	r2, [r3]
  81 0036 019B     		ldr	r3, [sp, #4]
  82 0038 1A60     		str	r2, [r3]
  83 003a 019B     		ldr	r3, [sp, #4]
  84 003c 1B68     		ldr	r3, [r3]
  85 003e 019A     		ldr	r2, [sp, #4]
  86 0040 5A60     		str	r2, [r3, #4]
  87              		.loc 1 63 0
  88 0042 039B     		ldr	r3, [sp, #12]
  89              		.loc 1 64 0
  90 0044 1846     		mov	r0, r3
  91 0046 04B0     		add	sp, sp, #16
  92              		.cfi_def_cfa_offset 0
  93              		@ sp needed
  94 0048 7047     		bx	lr
  95              		.cfi_endproc
  96              	.LFE2:
  97              		.size	fifo_remove, .-fifo_remove
  98              		.section	.rodata
  99              		.align	2
 100              	.LC0:
 101 0000 2263684D 		.ascii	"\"chMsgSend\"()\000"
 101      73675365 
 101      6E642228 
 101      2900
 102              		.text
 103 004a 00BF     		.align	2
 104              		.global	chMsgSend
 105              		.thumb
 106              		.thumb_func
 107              		.type	chMsgSend, %function
 108              	chMsgSend:
 109              	.LFB7:
 110              		.file 2 "/opt/R2P/core/ChibiOS_2.6.5/os/kernel/src/chmsg.c"
 111              		.loc 2 75 0
ARM GAS  /tmp/ccrOybKq.s 			page 3


 112              		.cfi_startproc
 113              		@ args = 0, pretend = 0, frame = 16
 114              		@ frame_needed = 0, uses_anonymous_args = 0
 115 004c 00B5     		push	{lr}
 116              		.cfi_def_cfa_offset 4
 117              		.cfi_offset 14, -4
 118 004e 85B0     		sub	sp, sp, #20
 119              		.cfi_def_cfa_offset 24
 120 0050 0190     		str	r0, [sp, #4]
 121 0052 0091     		str	r1, [sp]
 122              		.loc 2 76 0
 123 0054 194B     		ldr	r3, .L8
 124 0056 9B69     		ldr	r3, [r3, #24]
 125 0058 0393     		str	r3, [sp, #12]
 126              		.loc 2 78 0
 127 005a 019B     		ldr	r3, [sp, #4]
 128 005c 002B     		cmp	r3, #0
 129 005e 02D1     		bne	.L5
 130              		.loc 2 78 0 is_stmt 0 discriminator 1
 131 0060 1748     		ldr	r0, .L8+4
 132 0062 FFF7FEFF 		bl	chDbgPanic
 133              	.L5:
 134              	.LBB2:
 135              		.loc 2 80 0 is_stmt 1
 136 0066 2023     		movs	r3, #32
 137              	@ 80 "/opt/R2P/core/ChibiOS_2.6.5/os/kernel/src/chmsg.c" 1
 138 0068 83F31188 		msr     BASEPRI, r3
 139              	@ 0 "" 2
 140              		.thumb
 141              	.LBE2:
 142 006c FFF7FEFF 		bl	dbg_check_lock
 143              		.loc 2 81 0
 144 0070 039B     		ldr	r3, [sp, #12]
 145 0072 009A     		ldr	r2, [sp]
 146 0074 9A63     		str	r2, [r3, #56]
 147              		.loc 2 82 0
 148 0076 019B     		ldr	r3, [sp, #4]
 149 0078 03F13002 		add	r2, r3, #48
 150 007c 039B     		ldr	r3, [sp, #12]
 151 007e 9A62     		str	r2, [r3, #40]
 152              		.loc 2 83 0
 153 0080 019B     		ldr	r3, [sp, #4]
 154 0082 3033     		adds	r3, r3, #48
 155 0084 0398     		ldr	r0, [sp, #12]
 156 0086 1946     		mov	r1, r3
 157 0088 FFF7BAFF 		bl	queue_insert
 158              		.loc 2 84 0
 159 008c 019B     		ldr	r3, [sp, #4]
 160 008e 93F82030 		ldrb	r3, [r3, #32]	@ zero_extendqisi2
 161 0092 0C2B     		cmp	r3, #12
 162 0094 02D1     		bne	.L6
 163              		.loc 2 85 0
 164 0096 0198     		ldr	r0, [sp, #4]
 165 0098 FFF7FEFF 		bl	chSchReadyI
 166              	.L6:
 167              		.loc 2 86 0
 168 009c 0A20     		movs	r0, #10
ARM GAS  /tmp/ccrOybKq.s 			page 4


 169 009e FFF7FEFF 		bl	chSchGoSleepS
 170              		.loc 2 87 0
 171 00a2 039B     		ldr	r3, [sp, #12]
 172 00a4 9B6A     		ldr	r3, [r3, #40]
 173 00a6 0093     		str	r3, [sp]
 174              		.loc 2 88 0
 175 00a8 FFF7FEFF 		bl	dbg_check_unlock
 176              	.LBB3:
 177 00ac 0023     		movs	r3, #0
 178              	@ 88 "/opt/R2P/core/ChibiOS_2.6.5/os/kernel/src/chmsg.c" 1
 179 00ae 83F31188 		msr     BASEPRI, r3
 180              	@ 0 "" 2
 181              		.thumb
 182              	.LBE3:
 183              		.loc 2 89 0
 184 00b2 009B     		ldr	r3, [sp]
 185              		.loc 2 90 0
 186 00b4 1846     		mov	r0, r3
 187 00b6 05B0     		add	sp, sp, #20
 188              		.cfi_def_cfa_offset 4
 189              		@ sp needed
 190 00b8 5DF804FB 		ldr	pc, [sp], #4
 191              	.L9:
 192              		.align	2
 193              	.L8:
 194 00bc 00000000 		.word	rlist
 195 00c0 00000000 		.word	.LC0
 196              		.cfi_endproc
 197              	.LFE7:
 198              		.size	chMsgSend, .-chMsgSend
 199              		.align	2
 200              		.global	chMsgWait
 201              		.thumb
 202              		.thumb_func
 203              		.type	chMsgWait, %function
 204              	chMsgWait:
 205              	.LFB8:
 206              		.loc 2 106 0
 207              		.cfi_startproc
 208              		@ args = 0, pretend = 0, frame = 8
 209              		@ frame_needed = 0, uses_anonymous_args = 0
 210 00c4 00B5     		push	{lr}
 211              		.cfi_def_cfa_offset 4
 212              		.cfi_offset 14, -4
 213 00c6 83B0     		sub	sp, sp, #12
 214              		.cfi_def_cfa_offset 16
 215              	.LBB4:
 216              		.loc 2 109 0
 217 00c8 2023     		movs	r3, #32
 218              	@ 109 "/opt/R2P/core/ChibiOS_2.6.5/os/kernel/src/chmsg.c" 1
 219 00ca 83F31188 		msr     BASEPRI, r3
 220              	@ 0 "" 2
 221              		.thumb
 222              	.LBE4:
 223 00ce FFF7FEFF 		bl	dbg_check_lock
 224              		.loc 2 110 0
 225 00d2 104B     		ldr	r3, .L13
ARM GAS  /tmp/ccrOybKq.s 			page 5


 226 00d4 9B69     		ldr	r3, [r3, #24]
 227 00d6 1A6B     		ldr	r2, [r3, #48]
 228 00d8 0E4B     		ldr	r3, .L13
 229 00da 9B69     		ldr	r3, [r3, #24]
 230 00dc 3033     		adds	r3, r3, #48
 231 00de 9A42     		cmp	r2, r3
 232 00e0 02D1     		bne	.L11
 233              		.loc 2 111 0
 234 00e2 0C20     		movs	r0, #12
 235 00e4 FFF7FEFF 		bl	chSchGoSleepS
 236              	.L11:
 237              		.loc 2 112 0
 238 00e8 0A4B     		ldr	r3, .L13
 239 00ea 9B69     		ldr	r3, [r3, #24]
 240 00ec 3033     		adds	r3, r3, #48
 241 00ee 1846     		mov	r0, r3
 242 00f0 FFF79AFF 		bl	fifo_remove
 243 00f4 0190     		str	r0, [sp, #4]
 244              		.loc 2 113 0
 245 00f6 019B     		ldr	r3, [sp, #4]
 246 00f8 0B22     		movs	r2, #11
 247 00fa 83F82020 		strb	r2, [r3, #32]
 248              		.loc 2 114 0
 249 00fe FFF7FEFF 		bl	dbg_check_unlock
 250              	.LBB5:
 251 0102 0023     		movs	r3, #0
 252              	@ 114 "/opt/R2P/core/ChibiOS_2.6.5/os/kernel/src/chmsg.c" 1
 253 0104 83F31188 		msr     BASEPRI, r3
 254              	@ 0 "" 2
 255              		.thumb
 256              	.LBE5:
 257              		.loc 2 115 0
 258 0108 019B     		ldr	r3, [sp, #4]
 259              		.loc 2 116 0
 260 010a 1846     		mov	r0, r3
 261 010c 03B0     		add	sp, sp, #12
 262              		.cfi_def_cfa_offset 4
 263              		@ sp needed
 264 010e 5DF804FB 		ldr	pc, [sp], #4
 265              	.L14:
 266 0112 00BF     		.align	2
 267              	.L13:
 268 0114 00000000 		.word	rlist
 269              		.cfi_endproc
 270              	.LFE8:
 271              		.size	chMsgWait, .-chMsgWait
 272              		.section	.rodata
 273 000e 0000     		.align	2
 274              	.LC1:
 275 0010 63684D73 		.ascii	"chMsgRelease(), #1\000"
 275      6752656C 
 275      65617365 
 275      28292C20 
 275      233100
 276 0023 00       		.text
 277              		.align	2
 278              		.global	chMsgRelease
ARM GAS  /tmp/ccrOybKq.s 			page 6


 279              		.thumb
 280              		.thumb_func
 281              		.type	chMsgRelease, %function
 282              	chMsgRelease:
 283              	.LFB9:
 284              		.loc 2 128 0
 285              		.cfi_startproc
 286              		@ args = 0, pretend = 0, frame = 8
 287              		@ frame_needed = 0, uses_anonymous_args = 0
 288 0118 00B5     		push	{lr}
 289              		.cfi_def_cfa_offset 4
 290              		.cfi_offset 14, -4
 291 011a 83B0     		sub	sp, sp, #12
 292              		.cfi_def_cfa_offset 16
 293 011c 0190     		str	r0, [sp, #4]
 294 011e 0091     		str	r1, [sp]
 295              	.LBB6:
 296              		.loc 2 130 0
 297 0120 2023     		movs	r3, #32
 298              	@ 130 "/opt/R2P/core/ChibiOS_2.6.5/os/kernel/src/chmsg.c" 1
 299 0122 83F31188 		msr     BASEPRI, r3
 300              	@ 0 "" 2
 301              		.thumb
 302              	.LBE6:
 303 0126 FFF7FEFF 		bl	dbg_check_lock
 304              		.loc 2 131 0
 305 012a 019B     		ldr	r3, [sp, #4]
 306 012c 93F82030 		ldrb	r3, [r3, #32]	@ zero_extendqisi2
 307 0130 0B2B     		cmp	r3, #11
 308 0132 02D0     		beq	.L16
 309              		.loc 2 131 0 is_stmt 0 discriminator 1
 310 0134 0748     		ldr	r0, .L17
 311 0136 FFF7FEFF 		bl	chDbgPanic
 312              	.L16:
 313              		.loc 2 133 0 is_stmt 1
 314 013a 0198     		ldr	r0, [sp, #4]
 315 013c 0099     		ldr	r1, [sp]
 316 013e FFF7FEFF 		bl	chSchWakeupS
 317              		.loc 2 134 0
 318 0142 FFF7FEFF 		bl	dbg_check_unlock
 319              	.LBB7:
 320 0146 0023     		movs	r3, #0
 321              	@ 134 "/opt/R2P/core/ChibiOS_2.6.5/os/kernel/src/chmsg.c" 1
 322 0148 83F31188 		msr     BASEPRI, r3
 323              	@ 0 "" 2
 324              		.thumb
 325              	.LBE7:
 326              		.loc 2 135 0
 327 014c 03B0     		add	sp, sp, #12
 328              		.cfi_def_cfa_offset 4
 329              		@ sp needed
 330 014e 5DF804FB 		ldr	pc, [sp], #4
 331              	.L18:
 332 0152 00BF     		.align	2
 333              	.L17:
 334 0154 10000000 		.word	.LC1
 335              		.cfi_endproc
ARM GAS  /tmp/ccrOybKq.s 			page 7


 336              	.LFE9:
 337              		.size	chMsgRelease, .-chMsgRelease
 338              	.Letext0:
 339              		.file 3 "/opt/R2P/tools/gcc-arm-none-eabi-4_9-2014q4/arm-none-eabi/include/machine/_default_types.
 340              		.file 4 "/opt/R2P/tools/gcc-arm-none-eabi-4_9-2014q4/arm-none-eabi/include/stdint.h"
 341              		.file 5 "/opt/R2P/core/ChibiOS_2.6.5/os/ports/GCC/ARMCMx/chtypes.h"
 342              		.file 6 "/opt/R2P/core/ChibiOS_2.6.5/os/kernel/include/chlists.h"
 343              		.file 7 "/opt/R2P/core/ChibiOS_2.6.5/os/kernel/include/chthreads.h"
 344              		.file 8 "/opt/R2P/core/ChibiOS_2.6.5/os/ports/GCC/ARMCMx/chcore_v7m.h"
 345              		.file 9 "/opt/R2P/core/ChibiOS_2.6.5/os/kernel/include/chschd.h"
 346              		.file 10 "/opt/R2P/core/ChibiOS_2.6.5/os/kernel/include/chmtx.h"