ARM GAS  /tmp/cc5arPyl.s 			page 1


   1              		.syntax unified
   2              		.cpu cortex-m4
   3              		.fpu softvfp
   4              		.eabi_attribute 20, 1
   5              		.eabi_attribute 21, 1
   6              		.eabi_attribute 23, 3
   7              		.eabi_attribute 24, 1
   8              		.eabi_attribute 25, 1
   9              		.eabi_attribute 26, 1
  10              		.eabi_attribute 30, 6
  11              		.eabi_attribute 34, 1
  12              		.eabi_attribute 18, 4
  13              		.thumb
  14              		.file	"chmtx.c"
  15              		.text
  16              	.Ltext0:
  17              		.cfi_sections	.debug_frame
  18              		.align	2
  19              		.thumb
  20              		.thumb_func
  21              		.type	prio_insert, %function
  22              	prio_insert:
  23              	.LFB0:
  24              		.file 1 "/opt/R2P/core/ChibiOS_2.6.5/os/kernel/include/chinline.h"
  25              		.loc 1 41 0
  26              		.cfi_startproc
  27              		@ args = 0, pretend = 0, frame = 16
  28              		@ frame_needed = 0, uses_anonymous_args = 0
  29              		@ link register save eliminated.
  30 0000 84B0     		sub	sp, sp, #16
  31              		.cfi_def_cfa_offset 16
  32 0002 0190     		str	r0, [sp, #4]
  33 0004 0091     		str	r1, [sp]
  34              		.loc 1 43 0
  35 0006 009B     		ldr	r3, [sp]
  36 0008 0393     		str	r3, [sp, #12]
  37              	.L3:
  38              		.loc 1 45 0 discriminator 2
  39 000a 039B     		ldr	r3, [sp, #12]
  40 000c 1B68     		ldr	r3, [r3]
  41 000e 0393     		str	r3, [sp, #12]
  42              		.loc 1 46 0 discriminator 2
  43 0010 039A     		ldr	r2, [sp, #12]
  44 0012 009B     		ldr	r3, [sp]
  45 0014 9A42     		cmp	r2, r3
  46 0016 05D0     		beq	.L2
  47              		.loc 1 46 0 is_stmt 0 discriminator 1
  48 0018 039B     		ldr	r3, [sp, #12]
  49 001a 9A68     		ldr	r2, [r3, #8]
  50 001c 019B     		ldr	r3, [sp, #4]
  51 001e 9B68     		ldr	r3, [r3, #8]
  52 0020 9A42     		cmp	r2, r3
  53 0022 F2D2     		bcs	.L3
  54              	.L2:
  55              		.loc 1 47 0 is_stmt 1
  56 0024 019B     		ldr	r3, [sp, #4]
  57 0026 039A     		ldr	r2, [sp, #12]
ARM GAS  /tmp/cc5arPyl.s 			page 2


  58 0028 1A60     		str	r2, [r3]
  59              		.loc 1 48 0
  60 002a 039B     		ldr	r3, [sp, #12]
  61 002c 5A68     		ldr	r2, [r3, #4]
  62 002e 019B     		ldr	r3, [sp, #4]
  63 0030 5A60     		str	r2, [r3, #4]
  64              		.loc 1 49 0
  65 0032 019B     		ldr	r3, [sp, #4]
  66 0034 5B68     		ldr	r3, [r3, #4]
  67 0036 039A     		ldr	r2, [sp, #12]
  68 0038 0199     		ldr	r1, [sp, #4]
  69 003a 5160     		str	r1, [r2, #4]
  70 003c 039A     		ldr	r2, [sp, #12]
  71 003e 5268     		ldr	r2, [r2, #4]
  72 0040 1A60     		str	r2, [r3]
  73              		.loc 1 50 0
  74 0042 04B0     		add	sp, sp, #16
  75              		.cfi_def_cfa_offset 0
  76              		@ sp needed
  77 0044 7047     		bx	lr
  78              		.cfi_endproc
  79              	.LFE0:
  80              		.size	prio_insert, .-prio_insert
  81 0046 00BF     		.align	2
  82              		.thumb
  83              		.thumb_func
  84              		.type	fifo_remove, %function
  85              	fifo_remove:
  86              	.LFB2:
  87              		.loc 1 59 0
  88              		.cfi_startproc
  89              		@ args = 0, pretend = 0, frame = 16
  90              		@ frame_needed = 0, uses_anonymous_args = 0
  91              		@ link register save eliminated.
  92 0048 84B0     		sub	sp, sp, #16
  93              		.cfi_def_cfa_offset 16
  94 004a 0190     		str	r0, [sp, #4]
  95              		.loc 1 60 0
  96 004c 019B     		ldr	r3, [sp, #4]
  97 004e 1B68     		ldr	r3, [r3]
  98 0050 0393     		str	r3, [sp, #12]
  99              		.loc 1 62 0
 100 0052 039B     		ldr	r3, [sp, #12]
 101 0054 1A68     		ldr	r2, [r3]
 102 0056 019B     		ldr	r3, [sp, #4]
 103 0058 1A60     		str	r2, [r3]
 104 005a 019B     		ldr	r3, [sp, #4]
 105 005c 1B68     		ldr	r3, [r3]
 106 005e 019A     		ldr	r2, [sp, #4]
 107 0060 5A60     		str	r2, [r3, #4]
 108              		.loc 1 63 0
 109 0062 039B     		ldr	r3, [sp, #12]
 110              		.loc 1 64 0
 111 0064 1846     		mov	r0, r3
 112 0066 04B0     		add	sp, sp, #16
 113              		.cfi_def_cfa_offset 0
 114              		@ sp needed
ARM GAS  /tmp/cc5arPyl.s 			page 3


 115 0068 7047     		bx	lr
 116              		.cfi_endproc
 117              	.LFE2:
 118              		.size	fifo_remove, .-fifo_remove
 119 006a 00BF     		.align	2
 120              		.thumb
 121              		.thumb_func
 122              		.type	dequeue, %function
 123              	dequeue:
 124              	.LFB4:
 125              		.loc 1 73 0
 126              		.cfi_startproc
 127              		@ args = 0, pretend = 0, frame = 8
 128              		@ frame_needed = 0, uses_anonymous_args = 0
 129              		@ link register save eliminated.
 130 006c 82B0     		sub	sp, sp, #8
 131              		.cfi_def_cfa_offset 8
 132 006e 0190     		str	r0, [sp, #4]
 133              		.loc 1 75 0
 134 0070 019B     		ldr	r3, [sp, #4]
 135 0072 5B68     		ldr	r3, [r3, #4]
 136 0074 019A     		ldr	r2, [sp, #4]
 137 0076 1268     		ldr	r2, [r2]
 138 0078 1A60     		str	r2, [r3]
 139              		.loc 1 76 0
 140 007a 019B     		ldr	r3, [sp, #4]
 141 007c 1B68     		ldr	r3, [r3]
 142 007e 019A     		ldr	r2, [sp, #4]
 143 0080 5268     		ldr	r2, [r2, #4]
 144 0082 5A60     		str	r2, [r3, #4]
 145              		.loc 1 77 0
 146 0084 019B     		ldr	r3, [sp, #4]
 147              		.loc 1 78 0
 148 0086 1846     		mov	r0, r3
 149 0088 02B0     		add	sp, sp, #8
 150              		.cfi_def_cfa_offset 0
 151              		@ sp needed
 152 008a 7047     		bx	lr
 153              		.cfi_endproc
 154              	.LFE4:
 155              		.size	dequeue, .-dequeue
 156              		.section	.rodata
 157              		.align	2
 158              	.LC0:
 159 0000 2263684D 		.ascii	"\"chMtxInit\"()\000"
 159      7478496E 
 159      69742228 
 159      2900
 160              		.text
 161              		.align	2
 162              		.global	chMtxInit
 163              		.thumb
 164              		.thumb_func
 165              		.type	chMtxInit, %function
 166              	chMtxInit:
 167              	.LFB7:
 168              		.file 2 "/opt/R2P/core/ChibiOS_2.6.5/os/kernel/src/chmtx.c"
ARM GAS  /tmp/cc5arPyl.s 			page 4


 169              		.loc 2 86 0
 170              		.cfi_startproc
 171              		@ args = 0, pretend = 0, frame = 8
 172              		@ frame_needed = 0, uses_anonymous_args = 0
 173 008c 00B5     		push	{lr}
 174              		.cfi_def_cfa_offset 4
 175              		.cfi_offset 14, -4
 176 008e 83B0     		sub	sp, sp, #12
 177              		.cfi_def_cfa_offset 16
 178 0090 0190     		str	r0, [sp, #4]
 179              		.loc 2 88 0
 180 0092 019B     		ldr	r3, [sp, #4]
 181 0094 002B     		cmp	r3, #0
 182 0096 02D1     		bne	.L9
 183              		.loc 2 88 0 is_stmt 0 discriminator 1
 184 0098 0748     		ldr	r0, .L10
 185 009a FFF7FEFF 		bl	chDbgPanic
 186              	.L9:
 187              		.loc 2 90 0 is_stmt 1
 188 009e 019A     		ldr	r2, [sp, #4]
 189 00a0 019B     		ldr	r3, [sp, #4]
 190 00a2 5A60     		str	r2, [r3, #4]
 191 00a4 019B     		ldr	r3, [sp, #4]
 192 00a6 5A68     		ldr	r2, [r3, #4]
 193 00a8 019B     		ldr	r3, [sp, #4]
 194 00aa 1A60     		str	r2, [r3]
 195              		.loc 2 91 0
 196 00ac 019B     		ldr	r3, [sp, #4]
 197 00ae 0022     		movs	r2, #0
 198 00b0 9A60     		str	r2, [r3, #8]
 199              		.loc 2 92 0
 200 00b2 03B0     		add	sp, sp, #12
 201              		.cfi_def_cfa_offset 4
 202              		@ sp needed
 203 00b4 5DF804FB 		ldr	pc, [sp], #4
 204              	.L11:
 205              		.align	2
 206              	.L10:
 207 00b8 00000000 		.word	.LC0
 208              		.cfi_endproc
 209              	.LFE7:
 210              		.size	chMtxInit, .-chMtxInit
 211              		.align	2
 212              		.global	chMtxLock
 213              		.thumb
 214              		.thumb_func
 215              		.type	chMtxLock, %function
 216              	chMtxLock:
 217              	.LFB8:
 218              		.loc 2 103 0
 219              		.cfi_startproc
 220              		@ args = 0, pretend = 0, frame = 8
 221              		@ frame_needed = 0, uses_anonymous_args = 0
 222 00bc 00B5     		push	{lr}
 223              		.cfi_def_cfa_offset 4
 224              		.cfi_offset 14, -4
 225 00be 83B0     		sub	sp, sp, #12
ARM GAS  /tmp/cc5arPyl.s 			page 5


 226              		.cfi_def_cfa_offset 16
 227 00c0 0190     		str	r0, [sp, #4]
 228              	.LBB2:
 229              		.loc 2 105 0
 230 00c2 2023     		movs	r3, #32
 231              	@ 105 "/opt/R2P/core/ChibiOS_2.6.5/os/kernel/src/chmtx.c" 1
 232 00c4 83F31188 		msr     BASEPRI, r3
 233              	@ 0 "" 2
 234              		.thumb
 235              	.LBE2:
 236 00c8 FFF7FEFF 		bl	dbg_check_lock
 237              		.loc 2 107 0
 238 00cc 0198     		ldr	r0, [sp, #4]
 239 00ce FFF7FEFF 		bl	chMtxLockS
 240              		.loc 2 109 0
 241 00d2 FFF7FEFF 		bl	dbg_check_unlock
 242              	.LBB3:
 243 00d6 0023     		movs	r3, #0
 244              	@ 109 "/opt/R2P/core/ChibiOS_2.6.5/os/kernel/src/chmtx.c" 1
 245 00d8 83F31188 		msr     BASEPRI, r3
 246              	@ 0 "" 2
 247              		.thumb
 248              	.LBE3:
 249              		.loc 2 110 0
 250 00dc 03B0     		add	sp, sp, #12
 251              		.cfi_def_cfa_offset 4
 252              		@ sp needed
 253 00de 5DF804FB 		ldr	pc, [sp], #4
 254              		.cfi_endproc
 255              	.LFE8:
 256              		.size	chMtxLock, .-chMtxLock
 257              		.section	.rodata
 258 000e 0000     		.align	2
 259              	.LC1:
 260 0010 2263684D 		.ascii	"\"chMtxLockS\"()\000"
 260      74784C6F 
 260      636B5322 
 260      282900
 261 001f 00       		.align	2
 262              	.LC2:
 263 0020 63684D74 		.ascii	"chMtxLockS(), #1\000"
 263      784C6F63 
 263      6B532829 
 263      2C202331 
 263      00
 264 0031 000000   		.align	2
 265              	.LC3:
 266 0034 63684D74 		.ascii	"chMtxLockS(), #2\000"
 266      784C6F63 
 266      6B532829 
 266      2C202332 
 266      00
 267              		.text
 268 00e2 00BF     		.align	2
 269              		.global	chMtxLockS
 270              		.thumb
 271              		.thumb_func
ARM GAS  /tmp/cc5arPyl.s 			page 6


 272              		.type	chMtxLockS, %function
 273              	chMtxLockS:
 274              	.LFB9:
 275              		.loc 2 121 0
 276              		.cfi_startproc
 277              		@ args = 0, pretend = 0, frame = 16
 278              		@ frame_needed = 0, uses_anonymous_args = 0
 279 00e4 00B5     		push	{lr}
 280              		.cfi_def_cfa_offset 4
 281              		.cfi_offset 14, -4
 282 00e6 85B0     		sub	sp, sp, #20
 283              		.cfi_def_cfa_offset 24
 284 00e8 0190     		str	r0, [sp, #4]
 285              		.loc 2 122 0
 286 00ea 3C4B     		ldr	r3, .L26
 287 00ec 9B69     		ldr	r3, [r3, #24]
 288 00ee 0293     		str	r3, [sp, #8]
 289              		.loc 2 124 0
 290 00f0 FFF7FEFF 		bl	chDbgCheckClassS
 291              		.loc 2 125 0
 292 00f4 019B     		ldr	r3, [sp, #4]
 293 00f6 002B     		cmp	r3, #0
 294 00f8 02D1     		bne	.L14
 295              		.loc 2 125 0 is_stmt 0 discriminator 1
 296 00fa 3948     		ldr	r0, .L26+4
 297 00fc FFF7FEFF 		bl	chDbgPanic
 298              	.L14:
 299              		.loc 2 128 0 is_stmt 1
 300 0100 019B     		ldr	r3, [sp, #4]
 301 0102 9B68     		ldr	r3, [r3, #8]
 302 0104 002B     		cmp	r3, #0
 303 0106 5BD0     		beq	.L15
 304              	.LBB4:
 305              		.loc 2 132 0
 306 0108 019B     		ldr	r3, [sp, #4]
 307 010a 9B68     		ldr	r3, [r3, #8]
 308 010c 0393     		str	r3, [sp, #12]
 309              		.loc 2 135 0
 310 010e 34E0     		b	.L16
 311              	.L22:
 312              		.loc 2 137 0
 313 0110 029B     		ldr	r3, [sp, #8]
 314 0112 9A68     		ldr	r2, [r3, #8]
 315 0114 039B     		ldr	r3, [sp, #12]
 316 0116 9A60     		str	r2, [r3, #8]
 317              		.loc 2 139 0
 318 0118 039B     		ldr	r3, [sp, #12]
 319 011a 93F82030 		ldrb	r3, [r3, #32]	@ zero_extendqisi2
 320 011e 042B     		cmp	r3, #4
 321 0120 04D0     		beq	.L18
 322 0122 052B     		cmp	r3, #5
 323 0124 11D0     		beq	.L19
 324 0126 002B     		cmp	r3, #0
 325 0128 1AD0     		beq	.L20
 326              		.loc 2 170 0
 327 012a 2CE0     		b	.L21
 328              	.L18:
ARM GAS  /tmp/cc5arPyl.s 			page 7


 329              		.loc 2 142 0
 330 012c 0398     		ldr	r0, [sp, #12]
 331 012e FFF79DFF 		bl	dequeue
 332 0132 0246     		mov	r2, r0
 333 0134 039B     		ldr	r3, [sp, #12]
 334 0136 9B6A     		ldr	r3, [r3, #40]
 335 0138 1046     		mov	r0, r2
 336 013a 1946     		mov	r1, r3
 337 013c FFF760FF 		bl	prio_insert
 338              		.loc 2 143 0
 339 0140 039B     		ldr	r3, [sp, #12]
 340 0142 9B6A     		ldr	r3, [r3, #40]
 341 0144 9B68     		ldr	r3, [r3, #8]
 342 0146 0393     		str	r3, [sp, #12]
 343              		.loc 2 144 0
 344 0148 17E0     		b	.L16
 345              	.L19:
 346              		.loc 2 158 0
 347 014a 0398     		ldr	r0, [sp, #12]
 348 014c FFF78EFF 		bl	dequeue
 349 0150 0246     		mov	r2, r0
 350 0152 039B     		ldr	r3, [sp, #12]
 351 0154 9B6A     		ldr	r3, [r3, #40]
 352 0156 1046     		mov	r0, r2
 353 0158 1946     		mov	r1, r3
 354 015a FFF751FF 		bl	prio_insert
 355              		.loc 2 159 0
 356 015e 0BE0     		b	.L17
 357              	.L20:
 358              		.loc 2 164 0
 359 0160 039B     		ldr	r3, [sp, #12]
 360 0162 0122     		movs	r2, #1
 361 0164 83F82020 		strb	r2, [r3, #32]
 362              		.loc 2 167 0
 363 0168 0398     		ldr	r0, [sp, #12]
 364 016a FFF77FFF 		bl	dequeue
 365 016e 0346     		mov	r3, r0
 366 0170 1846     		mov	r0, r3
 367 0172 FFF7FEFF 		bl	chSchReadyI
 368              		.loc 2 168 0
 369 0176 00BF     		nop
 370              	.L17:
 371              		.loc 2 170 0
 372 0178 05E0     		b	.L21
 373              	.L16:
 374              		.loc 2 135 0
 375 017a 039B     		ldr	r3, [sp, #12]
 376 017c 9A68     		ldr	r2, [r3, #8]
 377 017e 029B     		ldr	r3, [sp, #8]
 378 0180 9B68     		ldr	r3, [r3, #8]
 379 0182 9A42     		cmp	r2, r3
 380 0184 C4D3     		bcc	.L22
 381              	.L21:
 382              		.loc 2 173 0
 383 0186 019B     		ldr	r3, [sp, #4]
 384 0188 0298     		ldr	r0, [sp, #8]
 385 018a 1946     		mov	r1, r3
ARM GAS  /tmp/cc5arPyl.s 			page 8


 386 018c FFF738FF 		bl	prio_insert
 387              		.loc 2 174 0
 388 0190 029B     		ldr	r3, [sp, #8]
 389 0192 019A     		ldr	r2, [sp, #4]
 390 0194 9A62     		str	r2, [r3, #40]
 391              		.loc 2 175 0
 392 0196 0420     		movs	r0, #4
 393 0198 FFF7FEFF 		bl	chSchGoSleepS
 394              		.loc 2 178 0
 395 019c 019B     		ldr	r3, [sp, #4]
 396 019e 9A68     		ldr	r2, [r3, #8]
 397 01a0 029B     		ldr	r3, [sp, #8]
 398 01a2 9A42     		cmp	r2, r3
 399 01a4 02D0     		beq	.L23
 400              		.loc 2 178 0 is_stmt 0 discriminator 1
 401 01a6 0F48     		ldr	r0, .L26+8
 402 01a8 FFF7FEFF 		bl	chDbgPanic
 403              	.L23:
 404              		.loc 2 179 0 is_stmt 1
 405 01ac 029B     		ldr	r3, [sp, #8]
 406 01ae 1A6C     		ldr	r2, [r3, #64]
 407 01b0 019B     		ldr	r3, [sp, #4]
 408 01b2 9A42     		cmp	r2, r3
 409 01b4 03D0     		beq	.L24
 410              		.loc 2 179 0 is_stmt 0 discriminator 1
 411 01b6 0C48     		ldr	r0, .L26+12
 412 01b8 FFF7FEFF 		bl	chDbgPanic
 413              	.LBE4:
 414 01bc 0AE0     		b	.L13
 415              	.L24:
 416 01be 09E0     		b	.L13
 417              	.L15:
 418              		.loc 2 183 0 is_stmt 1
 419 01c0 019B     		ldr	r3, [sp, #4]
 420 01c2 029A     		ldr	r2, [sp, #8]
 421 01c4 9A60     		str	r2, [r3, #8]
 422              		.loc 2 184 0
 423 01c6 029B     		ldr	r3, [sp, #8]
 424 01c8 1A6C     		ldr	r2, [r3, #64]
 425 01ca 019B     		ldr	r3, [sp, #4]
 426 01cc DA60     		str	r2, [r3, #12]
 427              		.loc 2 185 0
 428 01ce 029B     		ldr	r3, [sp, #8]
 429 01d0 019A     		ldr	r2, [sp, #4]
 430 01d2 1A64     		str	r2, [r3, #64]
 431              	.L13:
 432              		.loc 2 187 0
 433 01d4 05B0     		add	sp, sp, #20
 434              		.cfi_def_cfa_offset 4
 435              		@ sp needed
 436 01d6 5DF804FB 		ldr	pc, [sp], #4
 437              	.L27:
 438 01da 00BF     		.align	2
 439              	.L26:
 440 01dc 00000000 		.word	rlist
 441 01e0 10000000 		.word	.LC1
 442 01e4 20000000 		.word	.LC2
ARM GAS  /tmp/cc5arPyl.s 			page 9


 443 01e8 34000000 		.word	.LC3
 444              		.cfi_endproc
 445              	.LFE9:
 446              		.size	chMtxLockS, .-chMtxLockS
 447              		.align	2
 448              		.global	chMtxTryLock
 449              		.thumb
 450              		.thumb_func
 451              		.type	chMtxTryLock, %function
 452              	chMtxTryLock:
 453              	.LFB10:
 454              		.loc 2 206 0
 455              		.cfi_startproc
 456              		@ args = 0, pretend = 0, frame = 16
 457              		@ frame_needed = 0, uses_anonymous_args = 0
 458 01ec 00B5     		push	{lr}
 459              		.cfi_def_cfa_offset 4
 460              		.cfi_offset 14, -4
 461 01ee 85B0     		sub	sp, sp, #20
 462              		.cfi_def_cfa_offset 24
 463 01f0 0190     		str	r0, [sp, #4]
 464              	.LBB5:
 465              		.loc 2 209 0
 466 01f2 2023     		movs	r3, #32
 467              	@ 209 "/opt/R2P/core/ChibiOS_2.6.5/os/kernel/src/chmtx.c" 1
 468 01f4 83F31188 		msr     BASEPRI, r3
 469              	@ 0 "" 2
 470              		.thumb
 471              	.LBE5:
 472 01f8 FFF7FEFF 		bl	dbg_check_lock
 473              		.loc 2 211 0
 474 01fc 0198     		ldr	r0, [sp, #4]
 475 01fe FFF7FEFF 		bl	chMtxTryLockS
 476 0202 0346     		mov	r3, r0
 477 0204 8DF80F30 		strb	r3, [sp, #15]
 478              		.loc 2 213 0
 479 0208 FFF7FEFF 		bl	dbg_check_unlock
 480              	.LBB6:
 481 020c 0023     		movs	r3, #0
 482              	@ 213 "/opt/R2P/core/ChibiOS_2.6.5/os/kernel/src/chmtx.c" 1
 483 020e 83F31188 		msr     BASEPRI, r3
 484              	@ 0 "" 2
 485              		.thumb
 486              	.LBE6:
 487              		.loc 2 214 0
 488 0212 9DF80F30 		ldrb	r3, [sp, #15]	@ zero_extendqisi2
 489              		.loc 2 215 0
 490 0216 1846     		mov	r0, r3
 491 0218 05B0     		add	sp, sp, #20
 492              		.cfi_def_cfa_offset 4
 493              		@ sp needed
 494 021a 5DF804FB 		ldr	pc, [sp], #4
 495              		.cfi_endproc
 496              	.LFE10:
 497              		.size	chMtxTryLock, .-chMtxTryLock
 498              		.section	.rodata
 499 0045 000000   		.align	2
ARM GAS  /tmp/cc5arPyl.s 			page 10


 500              	.LC4:
 501 0048 2263684D 		.ascii	"\"chMtxTryLockS\"()\000"
 501      74785472 
 501      794C6F63 
 501      6B532228 
 501      2900
 502              		.text
 503 021e 00BF     		.align	2
 504              		.global	chMtxTryLockS
 505              		.thumb
 506              		.thumb_func
 507              		.type	chMtxTryLockS, %function
 508              	chMtxTryLockS:
 509              	.LFB11:
 510              		.loc 2 234 0
 511              		.cfi_startproc
 512              		@ args = 0, pretend = 0, frame = 8
 513              		@ frame_needed = 0, uses_anonymous_args = 0
 514 0220 00B5     		push	{lr}
 515              		.cfi_def_cfa_offset 4
 516              		.cfi_offset 14, -4
 517 0222 83B0     		sub	sp, sp, #12
 518              		.cfi_def_cfa_offset 16
 519 0224 0190     		str	r0, [sp, #4]
 520              		.loc 2 236 0
 521 0226 FFF7FEFF 		bl	chDbgCheckClassS
 522              		.loc 2 237 0
 523 022a 019B     		ldr	r3, [sp, #4]
 524 022c 002B     		cmp	r3, #0
 525 022e 02D1     		bne	.L31
 526              		.loc 2 237 0 is_stmt 0 discriminator 1
 527 0230 0D48     		ldr	r0, .L34
 528 0232 FFF7FEFF 		bl	chDbgPanic
 529              	.L31:
 530              		.loc 2 239 0 is_stmt 1
 531 0236 019B     		ldr	r3, [sp, #4]
 532 0238 9B68     		ldr	r3, [r3, #8]
 533 023a 002B     		cmp	r3, #0
 534 023c 01D0     		beq	.L32
 535              		.loc 2 240 0
 536 023e 0023     		movs	r3, #0
 537 0240 0DE0     		b	.L33
 538              	.L32:
 539              		.loc 2 241 0
 540 0242 0A4B     		ldr	r3, .L34+4
 541 0244 9A69     		ldr	r2, [r3, #24]
 542 0246 019B     		ldr	r3, [sp, #4]
 543 0248 9A60     		str	r2, [r3, #8]
 544              		.loc 2 242 0
 545 024a 084B     		ldr	r3, .L34+4
 546 024c 9B69     		ldr	r3, [r3, #24]
 547 024e 1A6C     		ldr	r2, [r3, #64]
 548 0250 019B     		ldr	r3, [sp, #4]
 549 0252 DA60     		str	r2, [r3, #12]
 550              		.loc 2 243 0
 551 0254 054B     		ldr	r3, .L34+4
 552 0256 9B69     		ldr	r3, [r3, #24]
ARM GAS  /tmp/cc5arPyl.s 			page 11


 553 0258 019A     		ldr	r2, [sp, #4]
 554 025a 1A64     		str	r2, [r3, #64]
 555              		.loc 2 244 0
 556 025c 0123     		movs	r3, #1
 557              	.L33:
 558              		.loc 2 245 0
 559 025e 1846     		mov	r0, r3
 560 0260 03B0     		add	sp, sp, #12
 561              		.cfi_def_cfa_offset 4
 562              		@ sp needed
 563 0262 5DF804FB 		ldr	pc, [sp], #4
 564              	.L35:
 565 0266 00BF     		.align	2
 566              	.L34:
 567 0268 48000000 		.word	.LC4
 568 026c 00000000 		.word	rlist
 569              		.cfi_endproc
 570              	.LFE11:
 571              		.size	chMtxTryLockS, .-chMtxTryLockS
 572              		.section	.rodata
 573 005a 0000     		.align	2
 574              	.LC5:
 575 005c 63684D74 		.ascii	"chMtxUnlock(), #1\000"
 575      78556E6C 
 575      6F636B28 
 575      292C2023 
 575      3100
 576 006e 0000     		.align	2
 577              	.LC6:
 578 0070 63684D74 		.ascii	"chMtxUnlock(), #2\000"
 578      78556E6C 
 578      6F636B28 
 578      292C2023 
 578      3200
 579              		.text
 580              		.align	2
 581              		.global	chMtxUnlock
 582              		.thumb
 583              		.thumb_func
 584              		.type	chMtxUnlock, %function
 585              	chMtxUnlock:
 586              	.LFB12:
 587              		.loc 2 257 0
 588              		.cfi_startproc
 589              		@ args = 0, pretend = 0, frame = 24
 590              		@ frame_needed = 0, uses_anonymous_args = 0
 591 0270 00B5     		push	{lr}
 592              		.cfi_def_cfa_offset 4
 593              		.cfi_offset 14, -4
 594 0272 87B0     		sub	sp, sp, #28
 595              		.cfi_def_cfa_offset 32
 596              		.loc 2 258 0
 597 0274 314B     		ldr	r3, .L45
 598 0276 9B69     		ldr	r3, [r3, #24]
 599 0278 0393     		str	r3, [sp, #12]
 600              	.LBB7:
 601              		.loc 2 261 0
ARM GAS  /tmp/cc5arPyl.s 			page 12


 602 027a 2023     		movs	r3, #32
 603              	@ 261 "/opt/R2P/core/ChibiOS_2.6.5/os/kernel/src/chmtx.c" 1
 604 027c 83F31188 		msr     BASEPRI, r3
 605              	@ 0 "" 2
 606              		.thumb
 607              	.LBE7:
 608 0280 FFF7FEFF 		bl	dbg_check_lock
 609              		.loc 2 262 0
 610 0284 039B     		ldr	r3, [sp, #12]
 611 0286 1B6C     		ldr	r3, [r3, #64]
 612 0288 002B     		cmp	r3, #0
 613 028a 02D1     		bne	.L37
 614              		.loc 2 262 0 is_stmt 0 discriminator 1
 615 028c 2C48     		ldr	r0, .L45+4
 616 028e FFF7FEFF 		bl	chDbgPanic
 617              	.L37:
 618              		.loc 2 265 0 is_stmt 1
 619 0292 039B     		ldr	r3, [sp, #12]
 620 0294 1B6C     		ldr	r3, [r3, #64]
 621 0296 9A68     		ldr	r2, [r3, #8]
 622 0298 039B     		ldr	r3, [sp, #12]
 623 029a 9A42     		cmp	r2, r3
 624 029c 02D0     		beq	.L38
 625              		.loc 2 265 0 is_stmt 0 discriminator 1
 626 029e 2948     		ldr	r0, .L45+8
 627 02a0 FFF7FEFF 		bl	chDbgPanic
 628              	.L38:
 629              		.loc 2 270 0 is_stmt 1
 630 02a4 039B     		ldr	r3, [sp, #12]
 631 02a6 1B6C     		ldr	r3, [r3, #64]
 632 02a8 0293     		str	r3, [sp, #8]
 633              		.loc 2 271 0
 634 02aa 029B     		ldr	r3, [sp, #8]
 635 02ac DA68     		ldr	r2, [r3, #12]
 636 02ae 039B     		ldr	r3, [sp, #12]
 637 02b0 1A64     		str	r2, [r3, #64]
 638              		.loc 2 273 0
 639 02b2 029B     		ldr	r3, [sp, #8]
 640 02b4 1A68     		ldr	r2, [r3]
 641 02b6 029B     		ldr	r3, [sp, #8]
 642 02b8 9A42     		cmp	r2, r3
 643 02ba 32D0     		beq	.L39
 644              	.LBB8:
 645              		.loc 2 278 0
 646 02bc 039B     		ldr	r3, [sp, #12]
 647 02be 5B6C     		ldr	r3, [r3, #68]
 648 02c0 0493     		str	r3, [sp, #16]
 649              		.loc 2 279 0
 650 02c2 039B     		ldr	r3, [sp, #12]
 651 02c4 1B6C     		ldr	r3, [r3, #64]
 652 02c6 0593     		str	r3, [sp, #20]
 653              		.loc 2 280 0
 654 02c8 11E0     		b	.L40
 655              	.L42:
 656              		.loc 2 284 0
 657 02ca 059B     		ldr	r3, [sp, #20]
 658 02cc 1A68     		ldr	r2, [r3]
ARM GAS  /tmp/cc5arPyl.s 			page 13


 659 02ce 059B     		ldr	r3, [sp, #20]
 660 02d0 9A42     		cmp	r2, r3
 661 02d2 09D0     		beq	.L41
 662              		.loc 2 284 0 is_stmt 0 discriminator 1
 663 02d4 059B     		ldr	r3, [sp, #20]
 664 02d6 1B68     		ldr	r3, [r3]
 665 02d8 9A68     		ldr	r2, [r3, #8]
 666 02da 049B     		ldr	r3, [sp, #16]
 667 02dc 9A42     		cmp	r2, r3
 668 02de 03D9     		bls	.L41
 669              		.loc 2 285 0 is_stmt 1
 670 02e0 059B     		ldr	r3, [sp, #20]
 671 02e2 1B68     		ldr	r3, [r3]
 672 02e4 9B68     		ldr	r3, [r3, #8]
 673 02e6 0493     		str	r3, [sp, #16]
 674              	.L41:
 675              		.loc 2 286 0
 676 02e8 059B     		ldr	r3, [sp, #20]
 677 02ea DB68     		ldr	r3, [r3, #12]
 678 02ec 0593     		str	r3, [sp, #20]
 679              	.L40:
 680              		.loc 2 280 0
 681 02ee 059B     		ldr	r3, [sp, #20]
 682 02f0 002B     		cmp	r3, #0
 683 02f2 EAD1     		bne	.L42
 684              		.loc 2 290 0
 685 02f4 039B     		ldr	r3, [sp, #12]
 686 02f6 049A     		ldr	r2, [sp, #16]
 687 02f8 9A60     		str	r2, [r3, #8]
 688              		.loc 2 293 0
 689 02fa 029B     		ldr	r3, [sp, #8]
 690 02fc 1846     		mov	r0, r3
 691 02fe FFF7A3FE 		bl	fifo_remove
 692 0302 0190     		str	r0, [sp, #4]
 693              		.loc 2 294 0
 694 0304 029B     		ldr	r3, [sp, #8]
 695 0306 019A     		ldr	r2, [sp, #4]
 696 0308 9A60     		str	r2, [r3, #8]
 697              		.loc 2 295 0
 698 030a 019B     		ldr	r3, [sp, #4]
 699 030c 1A6C     		ldr	r2, [r3, #64]
 700 030e 029B     		ldr	r3, [sp, #8]
 701 0310 DA60     		str	r2, [r3, #12]
 702              		.loc 2 296 0
 703 0312 019B     		ldr	r3, [sp, #4]
 704 0314 029A     		ldr	r2, [sp, #8]
 705 0316 1A64     		str	r2, [r3, #64]
 706              		.loc 2 297 0
 707 0318 0198     		ldr	r0, [sp, #4]
 708 031a 0021     		movs	r1, #0
 709 031c FFF7FEFF 		bl	chSchWakeupS
 710              	.LBE8:
 711 0320 02E0     		b	.L43
 712              	.L39:
 713              		.loc 2 300 0
 714 0322 029B     		ldr	r3, [sp, #8]
 715 0324 0022     		movs	r2, #0
ARM GAS  /tmp/cc5arPyl.s 			page 14


 716 0326 9A60     		str	r2, [r3, #8]
 717              	.L43:
 718              		.loc 2 301 0
 719 0328 FFF7FEFF 		bl	dbg_check_unlock
 720              	.LBB9:
 721 032c 0023     		movs	r3, #0
 722              	@ 301 "/opt/R2P/core/ChibiOS_2.6.5/os/kernel/src/chmtx.c" 1
 723 032e 83F31188 		msr     BASEPRI, r3
 724              	@ 0 "" 2
 725              		.thumb
 726              	.LBE9:
 727              		.loc 2 302 0
 728 0332 029B     		ldr	r3, [sp, #8]
 729              		.loc 2 303 0
 730 0334 1846     		mov	r0, r3
 731 0336 07B0     		add	sp, sp, #28
 732              		.cfi_def_cfa_offset 4
 733              		@ sp needed
 734 0338 5DF804FB 		ldr	pc, [sp], #4
 735              	.L46:
 736              		.align	2
 737              	.L45:
 738 033c 00000000 		.word	rlist
 739 0340 5C000000 		.word	.LC5
 740 0344 70000000 		.word	.LC6
 741              		.cfi_endproc
 742              	.LFE12:
 743              		.size	chMtxUnlock, .-chMtxUnlock
 744              		.section	.rodata
 745 0082 0000     		.align	2
 746              	.LC7:
 747 0084 63684D74 		.ascii	"chMtxUnlockS(), #1\000"
 747      78556E6C 
 747      6F636B53 
 747      28292C20 
 747      233100
 748 0097 00       		.align	2
 749              	.LC8:
 750 0098 63684D74 		.ascii	"chMtxUnlockS(), #2\000"
 750      78556E6C 
 750      6F636B53 
 750      28292C20 
 750      233200
 751 00ab 00       		.text
 752              		.align	2
 753              		.global	chMtxUnlockS
 754              		.thumb
 755              		.thumb_func
 756              		.type	chMtxUnlockS, %function
 757              	chMtxUnlockS:
 758              	.LFB13:
 759              		.loc 2 317 0
 760              		.cfi_startproc
 761              		@ args = 0, pretend = 0, frame = 24
 762              		@ frame_needed = 0, uses_anonymous_args = 0
 763 0348 00B5     		push	{lr}
 764              		.cfi_def_cfa_offset 4
ARM GAS  /tmp/cc5arPyl.s 			page 15


 765              		.cfi_offset 14, -4
 766 034a 87B0     		sub	sp, sp, #28
 767              		.cfi_def_cfa_offset 32
 768              		.loc 2 318 0
 769 034c 2D4B     		ldr	r3, .L56
 770 034e 9B69     		ldr	r3, [r3, #24]
 771 0350 0393     		str	r3, [sp, #12]
 772              		.loc 2 321 0
 773 0352 FFF7FEFF 		bl	chDbgCheckClassS
 774              		.loc 2 322 0
 775 0356 039B     		ldr	r3, [sp, #12]
 776 0358 1B6C     		ldr	r3, [r3, #64]
 777 035a 002B     		cmp	r3, #0
 778 035c 02D1     		bne	.L48
 779              		.loc 2 322 0 is_stmt 0 discriminator 1
 780 035e 2A48     		ldr	r0, .L56+4
 781 0360 FFF7FEFF 		bl	chDbgPanic
 782              	.L48:
 783              		.loc 2 325 0 is_stmt 1
 784 0364 039B     		ldr	r3, [sp, #12]
 785 0366 1B6C     		ldr	r3, [r3, #64]
 786 0368 9A68     		ldr	r2, [r3, #8]
 787 036a 039B     		ldr	r3, [sp, #12]
 788 036c 9A42     		cmp	r2, r3
 789 036e 02D0     		beq	.L49
 790              		.loc 2 325 0 is_stmt 0 discriminator 1
 791 0370 2648     		ldr	r0, .L56+8
 792 0372 FFF7FEFF 		bl	chDbgPanic
 793              	.L49:
 794              		.loc 2 331 0 is_stmt 1
 795 0376 039B     		ldr	r3, [sp, #12]
 796 0378 1B6C     		ldr	r3, [r3, #64]
 797 037a 0293     		str	r3, [sp, #8]
 798              		.loc 2 332 0
 799 037c 029B     		ldr	r3, [sp, #8]
 800 037e DA68     		ldr	r2, [r3, #12]
 801 0380 039B     		ldr	r3, [sp, #12]
 802 0382 1A64     		str	r2, [r3, #64]
 803              		.loc 2 334 0
 804 0384 029B     		ldr	r3, [sp, #8]
 805 0386 1A68     		ldr	r2, [r3]
 806 0388 029B     		ldr	r3, [sp, #8]
 807 038a 9A42     		cmp	r2, r3
 808 038c 31D0     		beq	.L50
 809              	.LBB10:
 810              		.loc 2 339 0
 811 038e 039B     		ldr	r3, [sp, #12]
 812 0390 5B6C     		ldr	r3, [r3, #68]
 813 0392 0493     		str	r3, [sp, #16]
 814              		.loc 2 340 0
 815 0394 039B     		ldr	r3, [sp, #12]
 816 0396 1B6C     		ldr	r3, [r3, #64]
 817 0398 0593     		str	r3, [sp, #20]
 818              		.loc 2 341 0
 819 039a 11E0     		b	.L51
 820              	.L53:
 821              		.loc 2 345 0
ARM GAS  /tmp/cc5arPyl.s 			page 16


 822 039c 059B     		ldr	r3, [sp, #20]
 823 039e 1A68     		ldr	r2, [r3]
 824 03a0 059B     		ldr	r3, [sp, #20]
 825 03a2 9A42     		cmp	r2, r3
 826 03a4 09D0     		beq	.L52
 827              		.loc 2 345 0 is_stmt 0 discriminator 1
 828 03a6 059B     		ldr	r3, [sp, #20]
 829 03a8 1B68     		ldr	r3, [r3]
 830 03aa 9A68     		ldr	r2, [r3, #8]
 831 03ac 049B     		ldr	r3, [sp, #16]
 832 03ae 9A42     		cmp	r2, r3
 833 03b0 03D9     		bls	.L52
 834              		.loc 2 346 0 is_stmt 1
 835 03b2 059B     		ldr	r3, [sp, #20]
 836 03b4 1B68     		ldr	r3, [r3]
 837 03b6 9B68     		ldr	r3, [r3, #8]
 838 03b8 0493     		str	r3, [sp, #16]
 839              	.L52:
 840              		.loc 2 347 0
 841 03ba 059B     		ldr	r3, [sp, #20]
 842 03bc DB68     		ldr	r3, [r3, #12]
 843 03be 0593     		str	r3, [sp, #20]
 844              	.L51:
 845              		.loc 2 341 0
 846 03c0 059B     		ldr	r3, [sp, #20]
 847 03c2 002B     		cmp	r3, #0
 848 03c4 EAD1     		bne	.L53
 849              		.loc 2 349 0
 850 03c6 039B     		ldr	r3, [sp, #12]
 851 03c8 049A     		ldr	r2, [sp, #16]
 852 03ca 9A60     		str	r2, [r3, #8]
 853              		.loc 2 352 0
 854 03cc 029B     		ldr	r3, [sp, #8]
 855 03ce 1846     		mov	r0, r3
 856 03d0 FFF73AFE 		bl	fifo_remove
 857 03d4 0190     		str	r0, [sp, #4]
 858              		.loc 2 353 0
 859 03d6 029B     		ldr	r3, [sp, #8]
 860 03d8 019A     		ldr	r2, [sp, #4]
 861 03da 9A60     		str	r2, [r3, #8]
 862              		.loc 2 354 0
 863 03dc 019B     		ldr	r3, [sp, #4]
 864 03de 1A6C     		ldr	r2, [r3, #64]
 865 03e0 029B     		ldr	r3, [sp, #8]
 866 03e2 DA60     		str	r2, [r3, #12]
 867              		.loc 2 355 0
 868 03e4 019B     		ldr	r3, [sp, #4]
 869 03e6 029A     		ldr	r2, [sp, #8]
 870 03e8 1A64     		str	r2, [r3, #64]
 871              		.loc 2 356 0
 872 03ea 0198     		ldr	r0, [sp, #4]
 873 03ec FFF7FEFF 		bl	chSchReadyI
 874              	.LBE10:
 875 03f0 02E0     		b	.L54
 876              	.L50:
 877              		.loc 2 359 0
 878 03f2 029B     		ldr	r3, [sp, #8]
ARM GAS  /tmp/cc5arPyl.s 			page 17


 879 03f4 0022     		movs	r2, #0
 880 03f6 9A60     		str	r2, [r3, #8]
 881              	.L54:
 882              		.loc 2 360 0
 883 03f8 029B     		ldr	r3, [sp, #8]
 884              		.loc 2 361 0
 885 03fa 1846     		mov	r0, r3
 886 03fc 07B0     		add	sp, sp, #28
 887              		.cfi_def_cfa_offset 4
 888              		@ sp needed
 889 03fe 5DF804FB 		ldr	pc, [sp], #4
 890              	.L57:
 891 0402 00BF     		.align	2
 892              	.L56:
 893 0404 00000000 		.word	rlist
 894 0408 84000000 		.word	.LC7
 895 040c 98000000 		.word	.LC8
 896              		.cfi_endproc
 897              	.LFE13:
 898              		.size	chMtxUnlockS, .-chMtxUnlockS
 899              		.align	2
 900              		.global	chMtxUnlockAll
 901              		.thumb
 902              		.thumb_func
 903              		.type	chMtxUnlockAll, %function
 904              	chMtxUnlockAll:
 905              	.LFB14:
 906              		.loc 2 374 0
 907              		.cfi_startproc
 908              		@ args = 0, pretend = 0, frame = 16
 909              		@ frame_needed = 0, uses_anonymous_args = 0
 910 0410 00B5     		push	{lr}
 911              		.cfi_def_cfa_offset 4
 912              		.cfi_offset 14, -4
 913 0412 85B0     		sub	sp, sp, #20
 914              		.cfi_def_cfa_offset 24
 915              		.loc 2 375 0
 916 0414 1F4B     		ldr	r3, .L63
 917 0416 9B69     		ldr	r3, [r3, #24]
 918 0418 0393     		str	r3, [sp, #12]
 919              	.LBB11:
 920              		.loc 2 377 0
 921 041a 2023     		movs	r3, #32
 922              	@ 377 "/opt/R2P/core/ChibiOS_2.6.5/os/kernel/src/chmtx.c" 1
 923 041c 83F31188 		msr     BASEPRI, r3
 924              	@ 0 "" 2
 925              		.thumb
 926              	.LBE11:
 927 0420 FFF7FEFF 		bl	dbg_check_lock
 928              		.loc 2 378 0
 929 0424 039B     		ldr	r3, [sp, #12]
 930 0426 1B6C     		ldr	r3, [r3, #64]
 931 0428 002B     		cmp	r3, #0
 932 042a 2BD0     		beq	.L59
 933              	.L62:
 934              	.LBB12:
 935              		.loc 2 380 0
ARM GAS  /tmp/cc5arPyl.s 			page 18


 936 042c 039B     		ldr	r3, [sp, #12]
 937 042e 1B6C     		ldr	r3, [r3, #64]
 938 0430 0293     		str	r3, [sp, #8]
 939              		.loc 2 381 0
 940 0432 029B     		ldr	r3, [sp, #8]
 941 0434 DA68     		ldr	r2, [r3, #12]
 942 0436 039B     		ldr	r3, [sp, #12]
 943 0438 1A64     		str	r2, [r3, #64]
 944              		.loc 2 382 0
 945 043a 029B     		ldr	r3, [sp, #8]
 946 043c 1A68     		ldr	r2, [r3]
 947 043e 029B     		ldr	r3, [sp, #8]
 948 0440 9A42     		cmp	r2, r3
 949 0442 12D0     		beq	.L60
 950              	.LBB13:
 951              		.loc 2 383 0
 952 0444 029B     		ldr	r3, [sp, #8]
 953 0446 1846     		mov	r0, r3
 954 0448 FFF7FEFD 		bl	fifo_remove
 955 044c 0190     		str	r0, [sp, #4]
 956              		.loc 2 384 0
 957 044e 029B     		ldr	r3, [sp, #8]
 958 0450 019A     		ldr	r2, [sp, #4]
 959 0452 9A60     		str	r2, [r3, #8]
 960              		.loc 2 385 0
 961 0454 019B     		ldr	r3, [sp, #4]
 962 0456 1A6C     		ldr	r2, [r3, #64]
 963 0458 029B     		ldr	r3, [sp, #8]
 964 045a DA60     		str	r2, [r3, #12]
 965              		.loc 2 386 0
 966 045c 019B     		ldr	r3, [sp, #4]
 967 045e 029A     		ldr	r2, [sp, #8]
 968 0460 1A64     		str	r2, [r3, #64]
 969              		.loc 2 387 0
 970 0462 0198     		ldr	r0, [sp, #4]
 971 0464 FFF7FEFF 		bl	chSchReadyI
 972              	.LBE13:
 973 0468 02E0     		b	.L61
 974              	.L60:
 975              		.loc 2 390 0
 976 046a 029B     		ldr	r3, [sp, #8]
 977 046c 0022     		movs	r2, #0
 978 046e 9A60     		str	r2, [r3, #8]
 979              	.L61:
 980              	.LBE12:
 981              		.loc 2 391 0
 982 0470 039B     		ldr	r3, [sp, #12]
 983 0472 1B6C     		ldr	r3, [r3, #64]
 984 0474 002B     		cmp	r3, #0
 985 0476 D9D1     		bne	.L62
 986              		.loc 2 392 0
 987 0478 039B     		ldr	r3, [sp, #12]
 988 047a 5A6C     		ldr	r2, [r3, #68]
 989 047c 039B     		ldr	r3, [sp, #12]
 990 047e 9A60     		str	r2, [r3, #8]
 991              		.loc 2 393 0
 992 0480 FFF7FEFF 		bl	chSchRescheduleS
ARM GAS  /tmp/cc5arPyl.s 			page 19


 993              	.L59:
 994              		.loc 2 395 0
 995 0484 FFF7FEFF 		bl	dbg_check_unlock
 996              	.LBB14:
 997 0488 0023     		movs	r3, #0
 998              	@ 395 "/opt/R2P/core/ChibiOS_2.6.5/os/kernel/src/chmtx.c" 1
 999 048a 83F31188 		msr     BASEPRI, r3
 1000              	@ 0 "" 2
 1001              		.thumb
 1002              	.LBE14:
 1003              		.loc 2 396 0
 1004 048e 05B0     		add	sp, sp, #20
 1005              		.cfi_def_cfa_offset 4
 1006              		@ sp needed
 1007 0490 5DF804FB 		ldr	pc, [sp], #4
 1008              	.L64:
 1009              		.align	2
 1010              	.L63:
 1011 0494 00000000 		.word	rlist
 1012              		.cfi_endproc
 1013              	.LFE14:
 1014              		.size	chMtxUnlockAll, .-chMtxUnlockAll
 1015              	.Letext0:
 1016              		.file 3 "/opt/R2P/tools/gcc-arm-none-eabi-4_9-2014q4/arm-none-eabi/include/machine/_default_types.
 1017              		.file 4 "/opt/R2P/tools/gcc-arm-none-eabi-4_9-2014q4/arm-none-eabi/include/stdint.h"
 1018              		.file 5 "/opt/R2P/core/ChibiOS_2.6.5/os/ports/GCC/ARMCMx/chtypes.h"
 1019              		.file 6 "/opt/R2P/core/ChibiOS_2.6.5/os/kernel/include/chlists.h"
 1020              		.file 7 "/opt/R2P/core/ChibiOS_2.6.5/os/kernel/include/chthreads.h"
 1021              		.file 8 "/opt/R2P/core/ChibiOS_2.6.5/os/ports/GCC/ARMCMx/chcore_v7m.h"
 1022              		.file 9 "/opt/R2P/core/ChibiOS_2.6.5/os/kernel/include/chschd.h"
 1023              		.file 10 "/opt/R2P/core/ChibiOS_2.6.5/os/kernel/include/chmtx.h"