ARM GAS  /tmp/cckmiftk.s 			page 1


   1              		.syntax unified
   2              		.cpu cortex-m4
   3              		.fpu softvfp
   4              		.eabi_attribute 20, 1
   5              		.eabi_attribute 21, 1
   6              		.eabi_attribute 23, 3
   7              		.eabi_attribute 24, 1
   8              		.eabi_attribute 25, 1
   9              		.eabi_attribute 26, 1
  10              		.eabi_attribute 30, 6
  11              		.eabi_attribute 34, 1
  12              		.eabi_attribute 18, 4
  13              		.thumb
  14              		.file	"chprintf.c"
  15              		.text
  16              	.Ltext0:
  17              		.cfi_sections	.debug_frame
  18              		.align	2
  19              		.thumb
  20              		.thumb_func
  21              		.type	long_to_string_with_divisor, %function
  22              	long_to_string_with_divisor:
  23              	.LFB8:
  24              		.file 1 "/opt/R2P/core/ChibiOS_2.6.5/os/various/chprintf.c"
  25              		.loc 1 40 0
  26              		.cfi_startproc
  27              		@ args = 0, pretend = 0, frame = 32
  28              		@ frame_needed = 0, uses_anonymous_args = 0
  29              		@ link register save eliminated.
  30 0000 88B0     		sub	sp, sp, #32
  31              		.cfi_def_cfa_offset 32
  32 0002 0390     		str	r0, [sp, #12]
  33 0004 0291     		str	r1, [sp, #8]
  34 0006 0192     		str	r2, [sp, #4]
  35 0008 0093     		str	r3, [sp]
  36              		.loc 1 45 0
  37 000a 029B     		ldr	r3, [sp, #8]
  38 000c 0593     		str	r3, [sp, #20]
  39              		.loc 1 46 0
  40 000e 009B     		ldr	r3, [sp]
  41 0010 002B     		cmp	r3, #0
  42 0012 02D1     		bne	.L2
  43              		.loc 1 47 0
  44 0014 029B     		ldr	r3, [sp, #8]
  45 0016 0493     		str	r3, [sp, #16]
  46 0018 01E0     		b	.L3
  47              	.L2:
  48              		.loc 1 49 0
  49 001a 009B     		ldr	r3, [sp]
  50 001c 0493     		str	r3, [sp, #16]
  51              	.L3:
  52              		.loc 1 52 0
  53 001e 039B     		ldr	r3, [sp, #12]
  54 0020 0B33     		adds	r3, r3, #11
  55 0022 0693     		str	r3, [sp, #24]
  56              	.L5:
  57              		.loc 1 54 0
ARM GAS  /tmp/cckmiftk.s 			page 2


  58 0024 059B     		ldr	r3, [sp, #20]
  59 0026 019A     		ldr	r2, [sp, #4]
  60 0028 B3FBF2F2 		udiv	r2, r3, r2
  61 002c 0199     		ldr	r1, [sp, #4]
  62 002e 01FB02F2 		mul	r2, r1, r2
  63 0032 9B1A     		subs	r3, r3, r2
  64 0034 0793     		str	r3, [sp, #28]
  65              		.loc 1 55 0
  66 0036 079B     		ldr	r3, [sp, #28]
  67 0038 3033     		adds	r3, r3, #48
  68 003a 0793     		str	r3, [sp, #28]
  69              		.loc 1 56 0
  70 003c 079B     		ldr	r3, [sp, #28]
  71 003e 392B     		cmp	r3, #57
  72 0040 02DD     		ble	.L4
  73              		.loc 1 57 0
  74 0042 079B     		ldr	r3, [sp, #28]
  75 0044 0733     		adds	r3, r3, #7
  76 0046 0793     		str	r3, [sp, #28]
  77              	.L4:
  78              		.loc 1 58 0
  79 0048 069B     		ldr	r3, [sp, #24]
  80 004a 013B     		subs	r3, r3, #1
  81 004c 0693     		str	r3, [sp, #24]
  82 004e 079B     		ldr	r3, [sp, #28]
  83 0050 DAB2     		uxtb	r2, r3
  84 0052 069B     		ldr	r3, [sp, #24]
  85 0054 1A70     		strb	r2, [r3]
  86              		.loc 1 59 0
  87 0056 059A     		ldr	r2, [sp, #20]
  88 0058 019B     		ldr	r3, [sp, #4]
  89 005a B2FBF3F3 		udiv	r3, r2, r3
  90 005e 0593     		str	r3, [sp, #20]
  91              		.loc 1 60 0
  92 0060 049A     		ldr	r2, [sp, #16]
  93 0062 019B     		ldr	r3, [sp, #4]
  94 0064 B2FBF3F3 		udiv	r3, r2, r3
  95 0068 0493     		str	r3, [sp, #16]
  96 006a 049B     		ldr	r3, [sp, #16]
  97 006c 002B     		cmp	r3, #0
  98 006e D9D1     		bne	.L5
  99              		.loc 1 62 0
 100 0070 039B     		ldr	r3, [sp, #12]
 101 0072 0B33     		adds	r3, r3, #11
 102 0074 1A46     		mov	r2, r3
 103 0076 069B     		ldr	r3, [sp, #24]
 104 0078 D31A     		subs	r3, r2, r3
 105 007a 0793     		str	r3, [sp, #28]
 106              	.L6:
 107              		.loc 1 64 0 discriminator 1
 108 007c 039B     		ldr	r3, [sp, #12]
 109 007e 5A1C     		adds	r2, r3, #1
 110 0080 0392     		str	r2, [sp, #12]
 111 0082 069A     		ldr	r2, [sp, #24]
 112 0084 511C     		adds	r1, r2, #1
 113 0086 0691     		str	r1, [sp, #24]
 114 0088 1278     		ldrb	r2, [r2]	@ zero_extendqisi2
ARM GAS  /tmp/cckmiftk.s 			page 3


 115 008a 1A70     		strb	r2, [r3]
 116              		.loc 1 65 0 discriminator 1
 117 008c 079B     		ldr	r3, [sp, #28]
 118 008e 013B     		subs	r3, r3, #1
 119 0090 0793     		str	r3, [sp, #28]
 120 0092 079B     		ldr	r3, [sp, #28]
 121 0094 002B     		cmp	r3, #0
 122 0096 F1D1     		bne	.L6
 123              		.loc 1 67 0
 124 0098 039B     		ldr	r3, [sp, #12]
 125              		.loc 1 68 0
 126 009a 1846     		mov	r0, r3
 127 009c 08B0     		add	sp, sp, #32
 128              		.cfi_def_cfa_offset 0
 129              		@ sp needed
 130 009e 7047     		bx	lr
 131              		.cfi_endproc
 132              	.LFE8:
 133              		.size	long_to_string_with_divisor, .-long_to_string_with_divisor
 134              		.align	2
 135              		.thumb
 136              		.thumb_func
 137              		.type	ltoa, %function
 138              	ltoa:
 139              	.LFB9:
 140              		.loc 1 70 0
 141              		.cfi_startproc
 142              		@ args = 0, pretend = 0, frame = 16
 143              		@ frame_needed = 0, uses_anonymous_args = 0
 144 00a0 00B5     		push	{lr}
 145              		.cfi_def_cfa_offset 4
 146              		.cfi_offset 14, -4
 147 00a2 85B0     		sub	sp, sp, #20
 148              		.cfi_def_cfa_offset 24
 149 00a4 0390     		str	r0, [sp, #12]
 150 00a6 0291     		str	r1, [sp, #8]
 151 00a8 0192     		str	r2, [sp, #4]
 152              		.loc 1 72 0
 153 00aa 0398     		ldr	r0, [sp, #12]
 154 00ac 0299     		ldr	r1, [sp, #8]
 155 00ae 019A     		ldr	r2, [sp, #4]
 156 00b0 0023     		movs	r3, #0
 157 00b2 FFF7A5FF 		bl	long_to_string_with_divisor
 158 00b6 0346     		mov	r3, r0
 159              		.loc 1 73 0
 160 00b8 1846     		mov	r0, r3
 161 00ba 05B0     		add	sp, sp, #20
 162              		.cfi_def_cfa_offset 4
 163              		@ sp needed
 164 00bc 5DF804FB 		ldr	pc, [sp], #4
 165              		.cfi_endproc
 166              	.LFE9:
 167              		.size	ltoa, .-ltoa
 168              		.global	__aeabi_d2iz
 169              		.global	__aeabi_i2d
 170              		.global	__aeabi_dsub
 171              		.global	__aeabi_ui2d
ARM GAS  /tmp/cckmiftk.s 			page 4


 172              		.global	__aeabi_dmul
 173              		.align	2
 174              		.thumb
 175              		.thumb_func
 176              		.type	ftoa, %function
 177              	ftoa:
 178              	.LFB10:
 179              		.loc 1 76 0
 180              		.cfi_startproc
 181              		@ args = 0, pretend = 0, frame = 24
 182              		@ frame_needed = 0, uses_anonymous_args = 0
 183 00c0 30B5     		push	{r4, r5, lr}
 184              		.cfi_def_cfa_offset 12
 185              		.cfi_offset 4, -12
 186              		.cfi_offset 5, -8
 187              		.cfi_offset 14, -4
 188 00c2 87B0     		sub	sp, sp, #28
 189              		.cfi_def_cfa_offset 40
 190 00c4 0390     		str	r0, [sp, #12]
 191 00c6 CDE90023 		strd	r2, [sp]
 192              		.loc 1 78 0
 193 00ca 204B     		ldr	r3, .L12
 194 00cc 0593     		str	r3, [sp, #20]
 195              		.loc 1 80 0
 196 00ce DDE90001 		ldrd	r0, [sp]
 197 00d2 FFF7FEFF 		bl	__aeabi_d2iz
 198 00d6 0346     		mov	r3, r0
 199 00d8 0493     		str	r3, [sp, #16]
 200              		.loc 1 81 0
 201 00da 0398     		ldr	r0, [sp, #12]
 202 00dc 0499     		ldr	r1, [sp, #16]
 203 00de 0A22     		movs	r2, #10
 204 00e0 0023     		movs	r3, #0
 205 00e2 FFF78DFF 		bl	long_to_string_with_divisor
 206 00e6 0390     		str	r0, [sp, #12]
 207              		.loc 1 82 0
 208 00e8 039B     		ldr	r3, [sp, #12]
 209 00ea 5A1C     		adds	r2, r3, #1
 210 00ec 0392     		str	r2, [sp, #12]
 211 00ee 2E22     		movs	r2, #46
 212 00f0 1A70     		strb	r2, [r3]
 213              		.loc 1 83 0
 214 00f2 0498     		ldr	r0, [sp, #16]
 215 00f4 FFF7FEFF 		bl	__aeabi_i2d
 216 00f8 0246     		mov	r2, r0
 217 00fa 0B46     		mov	r3, r1
 218 00fc DDE90001 		ldrd	r0, [sp]
 219 0100 FFF7FEFF 		bl	__aeabi_dsub
 220 0104 0246     		mov	r2, r0
 221 0106 0B46     		mov	r3, r1
 222 0108 1446     		mov	r4, r2
 223 010a 1D46     		mov	r5, r3
 224 010c 0598     		ldr	r0, [sp, #20]
 225 010e FFF7FEFF 		bl	__aeabi_ui2d
 226 0112 0246     		mov	r2, r0
 227 0114 0B46     		mov	r3, r1
 228 0116 2046     		mov	r0, r4
ARM GAS  /tmp/cckmiftk.s 			page 5


 229 0118 2946     		mov	r1, r5
 230 011a FFF7FEFF 		bl	__aeabi_dmul
 231 011e 0246     		mov	r2, r0
 232 0120 0B46     		mov	r3, r1
 233 0122 1046     		mov	r0, r2
 234 0124 1946     		mov	r1, r3
 235 0126 FFF7FEFF 		bl	__aeabi_d2iz
 236 012a 0346     		mov	r3, r0
 237 012c 0493     		str	r3, [sp, #16]
 238              		.loc 1 84 0
 239 012e 059B     		ldr	r3, [sp, #20]
 240 0130 074A     		ldr	r2, .L12+4
 241 0132 A2FB0323 		umull	r2, r3, r2, r3
 242 0136 DB08     		lsrs	r3, r3, #3
 243 0138 0398     		ldr	r0, [sp, #12]
 244 013a 0499     		ldr	r1, [sp, #16]
 245 013c 0A22     		movs	r2, #10
 246 013e FFF75FFF 		bl	long_to_string_with_divisor
 247 0142 0346     		mov	r3, r0
 248              		.loc 1 85 0
 249 0144 1846     		mov	r0, r3
 250 0146 07B0     		add	sp, sp, #28
 251              		.cfi_def_cfa_offset 12
 252              		@ sp needed
 253 0148 30BD     		pop	{r4, r5, pc}
 254              	.L13:
 255 014a 00BF     		.align	2
 256              	.L12:
 257 014c A0860100 		.word	100000
 258 0150 CDCCCCCC 		.word	-858993459
 259              		.cfi_endproc
 260              	.LFE10:
 261              		.size	ftoa, .-ftoa
 262              		.section	.rodata
 263              		.align	2
 264              	.LC0:
 265 0000 286E756C 		.ascii	"(null)\000"
 265      6C2900
 266              		.global	__aeabi_d2f
 267              		.global	__aeabi_fcmplt
 268              		.global	__aeabi_f2d
 269 0007 00       		.text
 270              		.align	2
 271              		.global	chvprintf
 272              		.thumb
 273              		.thumb_func
 274              		.type	chvprintf, %function
 275              	chvprintf:
 276              	.LFB11:
 277              		.loc 1 112 0
 278              		.cfi_startproc
 279              		@ args = 0, pretend = 0, frame = 80
 280              		@ frame_needed = 0, uses_anonymous_args = 0
 281 0154 00B5     		push	{lr}
 282              		.cfi_def_cfa_offset 4
 283              		.cfi_offset 14, -4
 284 0156 95B0     		sub	sp, sp, #84
ARM GAS  /tmp/cckmiftk.s 			page 6


 285              		.cfi_def_cfa_offset 88
 286 0158 0390     		str	r0, [sp, #12]
 287 015a 0291     		str	r1, [sp, #8]
 288 015c 0192     		str	r2, [sp, #4]
 289              	.L69:
 290              		.loc 1 125 0
 291 015e 029B     		ldr	r3, [sp, #8]
 292 0160 5A1C     		adds	r2, r3, #1
 293 0162 0292     		str	r2, [sp, #8]
 294 0164 1B78     		ldrb	r3, [r3]
 295 0166 8DF84730 		strb	r3, [sp, #71]
 296              		.loc 1 126 0
 297 016a 9DF84730 		ldrb	r3, [sp, #71]	@ zero_extendqisi2
 298 016e 002B     		cmp	r3, #0
 299 0170 00D1     		bne	.L15
 300              		.loc 1 127 0
 301 0172 2FE2     		b	.L72
 302              	.L15:
 303              		.loc 1 128 0
 304 0174 9DF84730 		ldrb	r3, [sp, #71]	@ zero_extendqisi2
 305 0178 252B     		cmp	r3, #37
 306 017a 08D0     		beq	.L17
 307              		.loc 1 129 0
 308 017c 039B     		ldr	r3, [sp, #12]
 309 017e 1B68     		ldr	r3, [r3]
 310 0180 9B68     		ldr	r3, [r3, #8]
 311 0182 9DF84720 		ldrb	r2, [sp, #71]	@ zero_extendqisi2
 312 0186 0398     		ldr	r0, [sp, #12]
 313 0188 1146     		mov	r1, r2
 314 018a 9847     		blx	r3
 315              		.loc 1 130 0
 316 018c 21E2     		b	.L18
 317              	.L17:
 318              		.loc 1 132 0
 319 018e 05AB     		add	r3, sp, #20
 320 0190 1393     		str	r3, [sp, #76]
 321              		.loc 1 133 0
 322 0192 05AB     		add	r3, sp, #20
 323 0194 1293     		str	r3, [sp, #72]
 324              		.loc 1 134 0
 325 0196 0023     		movs	r3, #0
 326 0198 8DF83630 		strb	r3, [sp, #54]
 327              		.loc 1 135 0
 328 019c 029B     		ldr	r3, [sp, #8]
 329 019e 1B78     		ldrb	r3, [r3]	@ zero_extendqisi2
 330 01a0 2D2B     		cmp	r3, #45
 331 01a2 05D1     		bne	.L19
 332              		.loc 1 136 0
 333 01a4 029B     		ldr	r3, [sp, #8]
 334 01a6 0133     		adds	r3, r3, #1
 335 01a8 0293     		str	r3, [sp, #8]
 336              		.loc 1 137 0
 337 01aa 0123     		movs	r3, #1
 338 01ac 8DF83630 		strb	r3, [sp, #54]
 339              	.L19:
 340              		.loc 1 139 0
 341 01b0 2023     		movs	r3, #32
ARM GAS  /tmp/cckmiftk.s 			page 7


 342 01b2 8DF84630 		strb	r3, [sp, #70]
 343              		.loc 1 140 0
 344 01b6 029B     		ldr	r3, [sp, #8]
 345 01b8 1B78     		ldrb	r3, [r3]	@ zero_extendqisi2
 346 01ba 2E2B     		cmp	r3, #46
 347 01bc 03D0     		beq	.L20
 348              		.loc 1 140 0 is_stmt 0 discriminator 1
 349 01be 029B     		ldr	r3, [sp, #8]
 350 01c0 1B78     		ldrb	r3, [r3]	@ zero_extendqisi2
 351 01c2 302B     		cmp	r3, #48
 352 01c4 05D1     		bne	.L21
 353              	.L20:
 354              		.loc 1 141 0 is_stmt 1
 355 01c6 029B     		ldr	r3, [sp, #8]
 356 01c8 0133     		adds	r3, r3, #1
 357 01ca 0293     		str	r3, [sp, #8]
 358              		.loc 1 142 0
 359 01cc 3023     		movs	r3, #48
 360 01ce 8DF84630 		strb	r3, [sp, #70]
 361              	.L21:
 362              		.loc 1 144 0
 363 01d2 0023     		movs	r3, #0
 364 01d4 0E93     		str	r3, [sp, #56]
 365              	.L26:
 366              		.loc 1 146 0
 367 01d6 029B     		ldr	r3, [sp, #8]
 368 01d8 5A1C     		adds	r2, r3, #1
 369 01da 0292     		str	r2, [sp, #8]
 370 01dc 1B78     		ldrb	r3, [r3]
 371 01de 8DF84730 		strb	r3, [sp, #71]
 372              		.loc 1 147 0
 373 01e2 9DF84730 		ldrb	r3, [sp, #71]	@ zero_extendqisi2
 374 01e6 2F2B     		cmp	r3, #47
 375 01e8 09D9     		bls	.L22
 376              		.loc 1 147 0 is_stmt 0 discriminator 1
 377 01ea 9DF84730 		ldrb	r3, [sp, #71]	@ zero_extendqisi2
 378 01ee 392B     		cmp	r3, #57
 379 01f0 05D8     		bhi	.L22
 380              		.loc 1 148 0 is_stmt 1
 381 01f2 9DF84730 		ldrb	r3, [sp, #71]
 382 01f6 303B     		subs	r3, r3, #48
 383 01f8 8DF84730 		strb	r3, [sp, #71]
 384 01fc 12E0     		b	.L23
 385              	.L22:
 386              		.loc 1 149 0
 387 01fe 9DF84730 		ldrb	r3, [sp, #71]	@ zero_extendqisi2
 388 0202 2A2B     		cmp	r3, #42
 389 0204 06D1     		bne	.L24
 390              		.loc 1 150 0
 391 0206 019B     		ldr	r3, [sp, #4]
 392 0208 1A1D     		adds	r2, r3, #4
 393 020a 0192     		str	r2, [sp, #4]
 394 020c 1B68     		ldr	r3, [r3]
 395 020e 8DF84730 		strb	r3, [sp, #71]
 396 0212 07E0     		b	.L23
 397              	.L24:
 398              		.loc 1 152 0
ARM GAS  /tmp/cckmiftk.s 			page 8


 399 0214 00BF     		nop
 400              		.loc 1 155 0
 401 0216 0023     		movs	r3, #0
 402 0218 0F93     		str	r3, [sp, #60]
 403              		.loc 1 156 0
 404 021a 9DF84730 		ldrb	r3, [sp, #71]	@ zero_extendqisi2
 405 021e 2E2B     		cmp	r3, #46
 406 0220 37D1     		bne	.L27
 407 0222 0AE0     		b	.L31
 408              	.L23:
 409              		.loc 1 153 0
 410 0224 0E9A     		ldr	r2, [sp, #56]
 411 0226 1346     		mov	r3, r2
 412 0228 9B00     		lsls	r3, r3, #2
 413 022a 1344     		add	r3, r3, r2
 414 022c 5B00     		lsls	r3, r3, #1
 415 022e 1A46     		mov	r2, r3
 416 0230 9DF84730 		ldrb	r3, [sp, #71]	@ zero_extendqisi2
 417 0234 1344     		add	r3, r3, r2
 418 0236 0E93     		str	r3, [sp, #56]
 419              		.loc 1 154 0
 420 0238 CDE7     		b	.L26
 421              	.L31:
 422              		.loc 1 158 0
 423 023a 029B     		ldr	r3, [sp, #8]
 424 023c 5A1C     		adds	r2, r3, #1
 425 023e 0292     		str	r2, [sp, #8]
 426 0240 1B78     		ldrb	r3, [r3]
 427 0242 8DF84730 		strb	r3, [sp, #71]
 428              		.loc 1 159 0
 429 0246 9DF84730 		ldrb	r3, [sp, #71]	@ zero_extendqisi2
 430 024a 2F2B     		cmp	r3, #47
 431 024c 09D9     		bls	.L28
 432              		.loc 1 159 0 is_stmt 0 discriminator 1
 433 024e 9DF84730 		ldrb	r3, [sp, #71]	@ zero_extendqisi2
 434 0252 392B     		cmp	r3, #57
 435 0254 05D8     		bhi	.L28
 436              		.loc 1 160 0 is_stmt 1
 437 0256 9DF84730 		ldrb	r3, [sp, #71]
 438 025a 303B     		subs	r3, r3, #48
 439 025c 8DF84730 		strb	r3, [sp, #71]
 440 0260 0BE0     		b	.L29
 441              	.L28:
 442              		.loc 1 161 0
 443 0262 9DF84730 		ldrb	r3, [sp, #71]	@ zero_extendqisi2
 444 0266 2A2B     		cmp	r3, #42
 445 0268 06D1     		bne	.L30
 446              		.loc 1 162 0
 447 026a 019B     		ldr	r3, [sp, #4]
 448 026c 1A1D     		adds	r2, r3, #4
 449 026e 0192     		str	r2, [sp, #4]
 450 0270 1B68     		ldr	r3, [r3]
 451 0272 8DF84730 		strb	r3, [sp, #71]
 452 0276 00E0     		b	.L29
 453              	.L30:
 454              		.loc 1 164 0
 455 0278 0BE0     		b	.L27
ARM GAS  /tmp/cckmiftk.s 			page 9


 456              	.L29:
 457              		.loc 1 165 0
 458 027a 0F9A     		ldr	r2, [sp, #60]
 459 027c 1346     		mov	r3, r2
 460 027e 9B00     		lsls	r3, r3, #2
 461 0280 1344     		add	r3, r3, r2
 462 0282 5B00     		lsls	r3, r3, #1
 463 0284 0F93     		str	r3, [sp, #60]
 464              		.loc 1 166 0
 465 0286 9DF84730 		ldrb	r3, [sp, #71]	@ zero_extendqisi2
 466 028a 0F9A     		ldr	r2, [sp, #60]
 467 028c 1344     		add	r3, r3, r2
 468 028e 0F93     		str	r3, [sp, #60]
 469              		.loc 1 167 0
 470 0290 D3E7     		b	.L31
 471              	.L27:
 472              		.loc 1 170 0
 473 0292 9DF84730 		ldrb	r3, [sp, #71]	@ zero_extendqisi2
 474 0296 6C2B     		cmp	r3, #108
 475 0298 03D0     		beq	.L32
 476              		.loc 1 170 0 is_stmt 0 discriminator 1
 477 029a 9DF84730 		ldrb	r3, [sp, #71]	@ zero_extendqisi2
 478 029e 4C2B     		cmp	r3, #76
 479 02a0 0ED1     		bne	.L33
 480              	.L32:
 481              		.loc 1 171 0 is_stmt 1
 482 02a2 0123     		movs	r3, #1
 483 02a4 8DF83730 		strb	r3, [sp, #55]
 484              		.loc 1 172 0
 485 02a8 029B     		ldr	r3, [sp, #8]
 486 02aa 1B78     		ldrb	r3, [r3]	@ zero_extendqisi2
 487 02ac 002B     		cmp	r3, #0
 488 02ae 06D0     		beq	.L34
 489              		.loc 1 173 0
 490 02b0 029B     		ldr	r3, [sp, #8]
 491 02b2 5A1C     		adds	r2, r3, #1
 492 02b4 0292     		str	r2, [sp, #8]
 493 02b6 1B78     		ldrb	r3, [r3]
 494 02b8 8DF84730 		strb	r3, [sp, #71]
 495              		.loc 1 172 0
 496 02bc 13E0     		b	.L35
 497              	.L34:
 498 02be 12E0     		b	.L35
 499              	.L33:
 500              		.loc 1 176 0
 501 02c0 9DF84730 		ldrb	r3, [sp, #71]	@ zero_extendqisi2
 502 02c4 402B     		cmp	r3, #64
 503 02c6 05D9     		bls	.L36
 504              		.loc 1 176 0 is_stmt 0 discriminator 1
 505 02c8 9DF84730 		ldrb	r3, [sp, #71]	@ zero_extendqisi2
 506 02cc 5A2B     		cmp	r3, #90
 507 02ce 01D8     		bhi	.L36
 508              		.loc 1 176 0 discriminator 3
 509 02d0 0123     		movs	r3, #1
 510 02d2 00E0     		b	.L37
 511              	.L36:
 512              		.loc 1 176 0 discriminator 4
ARM GAS  /tmp/cckmiftk.s 			page 10


 513 02d4 0023     		movs	r3, #0
 514              	.L37:
 515              		.loc 1 176 0 discriminator 6
 516 02d6 8DF83730 		strb	r3, [sp, #55]
 517 02da 9DF83730 		ldrb	r3, [sp, #55]
 518 02de 03F00103 		and	r3, r3, #1
 519 02e2 8DF83730 		strb	r3, [sp, #55]
 520              	.L35:
 521              		.loc 1 179 0 is_stmt 1
 522 02e6 9DF84730 		ldrb	r3, [sp, #71]	@ zero_extendqisi2
 523 02ea 443B     		subs	r3, r3, #68
 524 02ec 342B     		cmp	r3, #52
 525 02ee 00F20C81 		bhi	.L38
 526 02f2 01A2     		adr	r2, .L40
 527 02f4 52F823F0 		ldr	pc, [r2, r3, lsl #2]
 528              		.p2align 2
 529              	.L40:
 530 02f8 2F040000 		.word	.L39+1
 531 02fc 0B050000 		.word	.L38+1
 532 0300 0B050000 		.word	.L38+1
 533 0304 0B050000 		.word	.L38+1
 534 0308 0B050000 		.word	.L38+1
 535 030c 2F040000 		.word	.L39+1
 536 0310 0B050000 		.word	.L38+1
 537 0314 0B050000 		.word	.L38+1
 538 0318 0B050000 		.word	.L38+1
 539 031c 0B050000 		.word	.L38+1
 540 0320 0B050000 		.word	.L38+1
 541 0324 D5040000 		.word	.L41+1
 542 0328 0B050000 		.word	.L38+1
 543 032c 0B050000 		.word	.L38+1
 544 0330 0B050000 		.word	.L38+1
 545 0334 0B050000 		.word	.L38+1
 546 0338 0B050000 		.word	.L38+1
 547 033c CD040000 		.word	.L42+1
 548 0340 0B050000 		.word	.L38+1
 549 0344 0B050000 		.word	.L38+1
 550 0348 C5040000 		.word	.L43+1
 551 034c 0B050000 		.word	.L38+1
 552 0350 0B050000 		.word	.L38+1
 553 0354 0B050000 		.word	.L38+1
 554 0358 0B050000 		.word	.L38+1
 555 035c 0B050000 		.word	.L38+1
 556 0360 0B050000 		.word	.L38+1
 557 0364 0B050000 		.word	.L38+1
 558 0368 0B050000 		.word	.L38+1
 559 036c 0B050000 		.word	.L38+1
 560 0370 0B050000 		.word	.L38+1
 561 0374 CD030000 		.word	.L44+1
 562 0378 2F040000 		.word	.L39+1
 563 037c 0B050000 		.word	.L38+1
 564 0380 71040000 		.word	.L45+1
 565 0384 0B050000 		.word	.L38+1
 566 0388 0B050000 		.word	.L38+1
 567 038c 2F040000 		.word	.L39+1
 568 0390 0B050000 		.word	.L38+1
 569 0394 0B050000 		.word	.L38+1
ARM GAS  /tmp/cckmiftk.s 			page 11


 570 0398 0B050000 		.word	.L38+1
 571 039c 0B050000 		.word	.L38+1
 572 03a0 0B050000 		.word	.L38+1
 573 03a4 D5040000 		.word	.L41+1
 574 03a8 0B050000 		.word	.L38+1
 575 03ac 0B050000 		.word	.L38+1
 576 03b0 0B050000 		.word	.L38+1
 577 03b4 E7030000 		.word	.L46+1
 578 03b8 0B050000 		.word	.L38+1
 579 03bc CD040000 		.word	.L42+1
 580 03c0 0B050000 		.word	.L38+1
 581 03c4 0B050000 		.word	.L38+1
 582 03c8 C5040000 		.word	.L43+1
 583              		.p2align 1
 584              	.L44:
 585              		.loc 1 181 0
 586 03cc 2023     		movs	r3, #32
 587 03ce 8DF84630 		strb	r3, [sp, #70]
 588              		.loc 1 182 0
 589 03d2 139B     		ldr	r3, [sp, #76]
 590 03d4 5A1C     		adds	r2, r3, #1
 591 03d6 1392     		str	r2, [sp, #76]
 592 03d8 019A     		ldr	r2, [sp, #4]
 593 03da 111D     		adds	r1, r2, #4
 594 03dc 0191     		str	r1, [sp, #4]
 595 03de 1268     		ldr	r2, [r2]
 596 03e0 D2B2     		uxtb	r2, r2
 597 03e2 1A70     		strb	r2, [r3]
 598              		.loc 1 183 0
 599 03e4 98E0     		b	.L47
 600              	.L46:
 601              		.loc 1 185 0
 602 03e6 2023     		movs	r3, #32
 603 03e8 8DF84630 		strb	r3, [sp, #70]
 604              		.loc 1 186 0
 605 03ec 019B     		ldr	r3, [sp, #4]
 606 03ee 1A1D     		adds	r2, r3, #4
 607 03f0 0192     		str	r2, [sp, #4]
 608 03f2 1B68     		ldr	r3, [r3]
 609 03f4 1293     		str	r3, [sp, #72]
 610 03f6 129B     		ldr	r3, [sp, #72]
 611 03f8 002B     		cmp	r3, #0
 612 03fa 01D1     		bne	.L48
 613              		.loc 1 187 0
 614 03fc 774B     		ldr	r3, .L73
 615 03fe 1293     		str	r3, [sp, #72]
 616              	.L48:
 617              		.loc 1 188 0
 618 0400 0F9B     		ldr	r3, [sp, #60]
 619 0402 002B     		cmp	r3, #0
 620 0404 02D1     		bne	.L49
 621              		.loc 1 189 0
 622 0406 47F6FF73 		movw	r3, #32767
 623 040a 0F93     		str	r3, [sp, #60]
 624              	.L49:
 625              		.loc 1 190 0
 626 040c 129B     		ldr	r3, [sp, #72]
ARM GAS  /tmp/cckmiftk.s 			page 12


 627 040e 1393     		str	r3, [sp, #76]
 628 0410 02E0     		b	.L50
 629              	.L52:
 630              		.loc 1 190 0 is_stmt 0 discriminator 4
 631 0412 139B     		ldr	r3, [sp, #76]
 632 0414 0133     		adds	r3, r3, #1
 633 0416 1393     		str	r3, [sp, #76]
 634              	.L50:
 635              		.loc 1 190 0 discriminator 1
 636 0418 139B     		ldr	r3, [sp, #76]
 637 041a 1B78     		ldrb	r3, [r3]	@ zero_extendqisi2
 638 041c 002B     		cmp	r3, #0
 639 041e 05D0     		beq	.L51
 640              		.loc 1 190 0 discriminator 3
 641 0420 0F9B     		ldr	r3, [sp, #60]
 642 0422 013B     		subs	r3, r3, #1
 643 0424 0F93     		str	r3, [sp, #60]
 644 0426 0F9B     		ldr	r3, [sp, #60]
 645 0428 002B     		cmp	r3, #0
 646 042a F2DA     		bge	.L52
 647              	.L51:
 648              		.loc 1 192 0 is_stmt 1
 649 042c 74E0     		b	.L47
 650              	.L39:
 651              		.loc 1 197 0
 652 042e 9DF83730 		ldrb	r3, [sp, #55]	@ zero_extendqisi2
 653 0432 002B     		cmp	r3, #0
 654 0434 05D0     		beq	.L53
 655              		.loc 1 198 0
 656 0436 019B     		ldr	r3, [sp, #4]
 657 0438 1A1D     		adds	r2, r3, #4
 658 043a 0192     		str	r2, [sp, #4]
 659 043c 1B68     		ldr	r3, [r3]
 660 043e 0C93     		str	r3, [sp, #48]
 661 0440 04E0     		b	.L54
 662              	.L53:
 663              		.loc 1 200 0
 664 0442 019B     		ldr	r3, [sp, #4]
 665 0444 1A1D     		adds	r2, r3, #4
 666 0446 0192     		str	r2, [sp, #4]
 667 0448 1B68     		ldr	r3, [r3]
 668 044a 0C93     		str	r3, [sp, #48]
 669              	.L54:
 670              		.loc 1 201 0
 671 044c 0C9B     		ldr	r3, [sp, #48]
 672 044e 002B     		cmp	r3, #0
 673 0450 07DA     		bge	.L55
 674              		.loc 1 202 0
 675 0452 139B     		ldr	r3, [sp, #76]
 676 0454 5A1C     		adds	r2, r3, #1
 677 0456 1392     		str	r2, [sp, #76]
 678 0458 2D22     		movs	r2, #45
 679 045a 1A70     		strb	r2, [r3]
 680              		.loc 1 203 0
 681 045c 0C9B     		ldr	r3, [sp, #48]
 682 045e 5B42     		negs	r3, r3
 683 0460 0C93     		str	r3, [sp, #48]
ARM GAS  /tmp/cckmiftk.s 			page 13


 684              	.L55:
 685              		.loc 1 205 0
 686 0462 1398     		ldr	r0, [sp, #76]
 687 0464 0C99     		ldr	r1, [sp, #48]
 688 0466 0A22     		movs	r2, #10
 689 0468 FFF71AFE 		bl	ltoa
 690 046c 1390     		str	r0, [sp, #76]
 691              		.loc 1 206 0
 692 046e 53E0     		b	.L47
 693              	.L45:
 694              		.loc 1 209 0
 695 0470 019B     		ldr	r3, [sp, #4]
 696 0472 0733     		adds	r3, r3, #7
 697 0474 23F00703 		bic	r3, r3, #7
 698 0478 03F10802 		add	r2, r3, #8
 699 047c 0192     		str	r2, [sp, #4]
 700 047e D3E90023 		ldrd	r2, [r3]
 701 0482 1046     		mov	r0, r2
 702 0484 1946     		mov	r1, r3
 703 0486 FFF7FEFF 		bl	__aeabi_d2f
 704 048a 0346     		mov	r3, r0
 705 048c 0B93     		str	r3, [sp, #44]	@ float
 706              		.loc 1 210 0
 707 048e 0B98     		ldr	r0, [sp, #44]	@ float
 708 0490 4FF00001 		mov	r1, #0
 709 0494 FFF7FEFF 		bl	__aeabi_fcmplt
 710 0498 0346     		mov	r3, r0
 711 049a 002B     		cmp	r3, #0
 712 049c 08D0     		beq	.L56
 713              		.loc 1 211 0
 714 049e 139B     		ldr	r3, [sp, #76]
 715 04a0 5A1C     		adds	r2, r3, #1
 716 04a2 1392     		str	r2, [sp, #76]
 717 04a4 2D22     		movs	r2, #45
 718 04a6 1A70     		strb	r2, [r3]
 719              		.loc 1 212 0
 720 04a8 0B9B     		ldr	r3, [sp, #44]
 721 04aa 83F00043 		eor	r3, r3, #-2147483648
 722 04ae 0B93     		str	r3, [sp, #44]	@ float
 723              	.L56:
 724              		.loc 1 214 0
 725 04b0 0B98     		ldr	r0, [sp, #44]	@ float
 726 04b2 FFF7FEFF 		bl	__aeabi_f2d
 727 04b6 0246     		mov	r2, r0
 728 04b8 0B46     		mov	r3, r1
 729 04ba 1398     		ldr	r0, [sp, #76]
 730 04bc FFF700FE 		bl	ftoa
 731 04c0 1390     		str	r0, [sp, #76]
 732              		.loc 1 215 0
 733 04c2 29E0     		b	.L47
 734              	.L43:
 735              		.loc 1 219 0
 736 04c4 1023     		movs	r3, #16
 737 04c6 8DF84730 		strb	r3, [sp, #71]
 738              		.loc 1 220 0
 739 04ca 06E0     		b	.L58
 740              	.L42:
ARM GAS  /tmp/cckmiftk.s 			page 14


 741              		.loc 1 223 0
 742 04cc 0A23     		movs	r3, #10
 743 04ce 8DF84730 		strb	r3, [sp, #71]
 744              		.loc 1 224 0
 745 04d2 02E0     		b	.L58
 746              	.L41:
 747              		.loc 1 227 0
 748 04d4 0823     		movs	r3, #8
 749 04d6 8DF84730 		strb	r3, [sp, #71]
 750              	.L58:
 751              		.loc 1 229 0
 752 04da 9DF83730 		ldrb	r3, [sp, #55]	@ zero_extendqisi2
 753 04de 002B     		cmp	r3, #0
 754 04e0 05D0     		beq	.L59
 755              		.loc 1 230 0
 756 04e2 019B     		ldr	r3, [sp, #4]
 757 04e4 1A1D     		adds	r2, r3, #4
 758 04e6 0192     		str	r2, [sp, #4]
 759 04e8 1B68     		ldr	r3, [r3]
 760 04ea 0C93     		str	r3, [sp, #48]
 761 04ec 04E0     		b	.L60
 762              	.L59:
 763              		.loc 1 232 0
 764 04ee 019B     		ldr	r3, [sp, #4]
 765 04f0 1A1D     		adds	r2, r3, #4
 766 04f2 0192     		str	r2, [sp, #4]
 767 04f4 1B68     		ldr	r3, [r3]
 768 04f6 0C93     		str	r3, [sp, #48]
 769              	.L60:
 770              		.loc 1 233 0
 771 04f8 9DF84730 		ldrb	r3, [sp, #71]	@ zero_extendqisi2
 772 04fc 1398     		ldr	r0, [sp, #76]
 773 04fe 0C99     		ldr	r1, [sp, #48]
 774 0500 1A46     		mov	r2, r3
 775 0502 FFF7CDFD 		bl	ltoa
 776 0506 1390     		str	r0, [sp, #76]
 777              		.loc 1 234 0
 778 0508 06E0     		b	.L47
 779              	.L38:
 780              		.loc 1 236 0
 781 050a 139B     		ldr	r3, [sp, #76]
 782 050c 5A1C     		adds	r2, r3, #1
 783 050e 1392     		str	r2, [sp, #76]
 784 0510 9DF84720 		ldrb	r2, [sp, #71]
 785 0514 1A70     		strb	r2, [r3]
 786              		.loc 1 237 0
 787 0516 00BF     		nop
 788              	.L47:
 789              		.loc 1 239 0
 790 0518 139A     		ldr	r2, [sp, #76]
 791 051a 129B     		ldr	r3, [sp, #72]
 792 051c D31A     		subs	r3, r2, r3
 793 051e 1093     		str	r3, [sp, #64]
 794              		.loc 1 240 0
 795 0520 0E9A     		ldr	r2, [sp, #56]
 796 0522 109B     		ldr	r3, [sp, #64]
 797 0524 D31A     		subs	r3, r2, r3
ARM GAS  /tmp/cckmiftk.s 			page 15


 798 0526 0E93     		str	r3, [sp, #56]
 799 0528 0E9B     		ldr	r3, [sp, #56]
 800 052a 002B     		cmp	r3, #0
 801 052c 01DA     		bge	.L61
 802              		.loc 1 241 0
 803 052e 0023     		movs	r3, #0
 804 0530 0E93     		str	r3, [sp, #56]
 805              	.L61:
 806              		.loc 1 242 0
 807 0532 9DF83630 		ldrb	r3, [sp, #54]
 808 0536 83F00103 		eor	r3, r3, #1
 809 053a DBB2     		uxtb	r3, r3
 810 053c 002B     		cmp	r3, #0
 811 053e 02D0     		beq	.L62
 812              		.loc 1 243 0
 813 0540 0E9B     		ldr	r3, [sp, #56]
 814 0542 5B42     		negs	r3, r3
 815 0544 0E93     		str	r3, [sp, #56]
 816              	.L62:
 817              		.loc 1 244 0
 818 0546 0E9B     		ldr	r3, [sp, #56]
 819 0548 002B     		cmp	r3, #0
 820 054a 22DA     		bge	.L63
 821              		.loc 1 245 0
 822 054c 129B     		ldr	r3, [sp, #72]
 823 054e 1B78     		ldrb	r3, [r3]	@ zero_extendqisi2
 824 0550 2D2B     		cmp	r3, #45
 825 0552 10D1     		bne	.L64
 826              		.loc 1 245 0 is_stmt 0 discriminator 1
 827 0554 9DF84630 		ldrb	r3, [sp, #70]	@ zero_extendqisi2
 828 0558 302B     		cmp	r3, #48
 829 055a 0CD1     		bne	.L64
 830              		.loc 1 246 0 is_stmt 1
 831 055c 039B     		ldr	r3, [sp, #12]
 832 055e 1B68     		ldr	r3, [r3]
 833 0560 9A68     		ldr	r2, [r3, #8]
 834 0562 129B     		ldr	r3, [sp, #72]
 835 0564 591C     		adds	r1, r3, #1
 836 0566 1291     		str	r1, [sp, #72]
 837 0568 1B78     		ldrb	r3, [r3]	@ zero_extendqisi2
 838 056a 0398     		ldr	r0, [sp, #12]
 839 056c 1946     		mov	r1, r3
 840 056e 9047     		blx	r2
 841              		.loc 1 247 0
 842 0570 109B     		ldr	r3, [sp, #64]
 843 0572 013B     		subs	r3, r3, #1
 844 0574 1093     		str	r3, [sp, #64]
 845              	.L64:
 846              		.loc 1 250 0 discriminator 1
 847 0576 039B     		ldr	r3, [sp, #12]
 848 0578 1B68     		ldr	r3, [r3]
 849 057a 9B68     		ldr	r3, [r3, #8]
 850 057c 9DF84620 		ldrb	r2, [sp, #70]	@ zero_extendqisi2
 851 0580 0398     		ldr	r0, [sp, #12]
 852 0582 1146     		mov	r1, r2
 853 0584 9847     		blx	r3
 854              		.loc 1 251 0 discriminator 1
ARM GAS  /tmp/cckmiftk.s 			page 16


 855 0586 0E9B     		ldr	r3, [sp, #56]
 856 0588 0133     		adds	r3, r3, #1
 857 058a 0E93     		str	r3, [sp, #56]
 858 058c 0E9B     		ldr	r3, [sp, #56]
 859 058e 002B     		cmp	r3, #0
 860 0590 F1D1     		bne	.L64
 861              	.L63:
 862              		.loc 1 253 0
 863 0592 09E0     		b	.L65
 864              	.L66:
 865              		.loc 1 254 0
 866 0594 039B     		ldr	r3, [sp, #12]
 867 0596 1B68     		ldr	r3, [r3]
 868 0598 9A68     		ldr	r2, [r3, #8]
 869 059a 129B     		ldr	r3, [sp, #72]
 870 059c 591C     		adds	r1, r3, #1
 871 059e 1291     		str	r1, [sp, #72]
 872 05a0 1B78     		ldrb	r3, [r3]	@ zero_extendqisi2
 873 05a2 0398     		ldr	r0, [sp, #12]
 874 05a4 1946     		mov	r1, r3
 875 05a6 9047     		blx	r2
 876              	.L65:
 877              		.loc 1 253 0
 878 05a8 109B     		ldr	r3, [sp, #64]
 879 05aa 013B     		subs	r3, r3, #1
 880 05ac 1093     		str	r3, [sp, #64]
 881 05ae 109B     		ldr	r3, [sp, #64]
 882 05b0 002B     		cmp	r3, #0
 883 05b2 EFDA     		bge	.L66
 884              		.loc 1 256 0
 885 05b4 0AE0     		b	.L67
 886              	.L68:
 887              		.loc 1 257 0
 888 05b6 039B     		ldr	r3, [sp, #12]
 889 05b8 1B68     		ldr	r3, [r3]
 890 05ba 9B68     		ldr	r3, [r3, #8]
 891 05bc 9DF84620 		ldrb	r2, [sp, #70]	@ zero_extendqisi2
 892 05c0 0398     		ldr	r0, [sp, #12]
 893 05c2 1146     		mov	r1, r2
 894 05c4 9847     		blx	r3
 895              		.loc 1 258 0
 896 05c6 0E9B     		ldr	r3, [sp, #56]
 897 05c8 013B     		subs	r3, r3, #1
 898 05ca 0E93     		str	r3, [sp, #56]
 899              	.L67:
 900              		.loc 1 256 0
 901 05cc 0E9B     		ldr	r3, [sp, #56]
 902 05ce 002B     		cmp	r3, #0
 903 05d0 F1D1     		bne	.L68
 904              	.L18:
 905              		.loc 1 260 0
 906 05d2 C4E5     		b	.L69
 907              	.L72:
 908              		.loc 1 261 0
 909 05d4 15B0     		add	sp, sp, #84
 910              		.cfi_def_cfa_offset 4
 911              		@ sp needed
ARM GAS  /tmp/cckmiftk.s 			page 17


 912 05d6 5DF804FB 		ldr	pc, [sp], #4
 913              	.L74:
 914 05da 00BF     		.align	2
 915              	.L73:
 916 05dc 00000000 		.word	.LC0
 917              		.cfi_endproc
 918              	.LFE11:
 919              		.size	chvprintf, .-chvprintf
 920              		.align	2
 921              		.global	chsnprintf
 922              		.thumb
 923              		.thumb_func
 924              		.type	chsnprintf, %function
 925              	chsnprintf:
 926              	.LFB12:
 927              		.loc 1 288 0
 928              		.cfi_startproc
 929              		@ args = 4, pretend = 8, frame = 40
 930              		@ frame_needed = 0, uses_anonymous_args = 1
 931 05e0 0CB4     		push	{r2, r3}
 932              		.cfi_def_cfa_offset 8
 933              		.cfi_offset 2, -8
 934              		.cfi_offset 3, -4
 935 05e2 00B5     		push	{lr}
 936              		.cfi_def_cfa_offset 12
 937              		.cfi_offset 14, -12
 938 05e4 8BB0     		sub	sp, sp, #44
 939              		.cfi_def_cfa_offset 56
 940 05e6 0190     		str	r0, [sp, #4]
 941 05e8 0091     		str	r1, [sp]
 942              		.loc 1 294 0
 943 05ea 03AB     		add	r3, sp, #12
 944 05ec 1846     		mov	r0, r3
 945 05ee 0199     		ldr	r1, [sp, #4]
 946 05f0 009A     		ldr	r2, [sp]
 947 05f2 0023     		movs	r3, #0
 948 05f4 FFF7FEFF 		bl	msObjectInit
 949              		.loc 1 297 0
 950 05f8 03AB     		add	r3, sp, #12
 951 05fa 0993     		str	r3, [sp, #36]
 952              		.loc 1 298 0
 953 05fc 0DAB     		add	r3, sp, #52
 954 05fe 0893     		str	r3, [sp, #32]
 955              		.loc 1 299 0
 956 0600 0998     		ldr	r0, [sp, #36]
 957 0602 0C99     		ldr	r1, [sp, #48]
 958 0604 089A     		ldr	r2, [sp, #32]
 959 0606 FFF7FEFF 		bl	chvprintf
 960              		.loc 1 303 0
 961 060a 099B     		ldr	r3, [sp, #36]
 962 060c 1B68     		ldr	r3, [r3]
 963 060e 9B68     		ldr	r3, [r3, #8]
 964 0610 0998     		ldr	r0, [sp, #36]
 965 0612 0021     		movs	r1, #0
 966 0614 9847     		blx	r3
 967              		.loc 1 304 0
 968 0616 069B     		ldr	r3, [sp, #24]
ARM GAS  /tmp/cckmiftk.s 			page 18


 969 0618 013B     		subs	r3, r3, #1
 970              		.loc 1 305 0
 971 061a 1846     		mov	r0, r3
 972 061c 0BB0     		add	sp, sp, #44
 973              		.cfi_def_cfa_offset 12
 974              		@ sp needed
 975 061e 5DF804EB 		ldr	lr, [sp], #4
 976              		.cfi_restore 14
 977              		.cfi_def_cfa_offset 8
 978 0622 02B0     		add	sp, sp, #8
 979              		.cfi_restore 3
 980              		.cfi_restore 2
 981              		.cfi_def_cfa_offset 0
 982 0624 7047     		bx	lr
 983              		.cfi_endproc
 984              	.LFE12:
 985              		.size	chsnprintf, .-chsnprintf
 986              	.Letext0:
 987              		.file 2 "/opt/R2P/tools/gcc-arm-none-eabi-4_9-2014q4/lib/gcc/arm-none-eabi/4.9.3/include/stddef.h"
 988              		.file 3 "/opt/R2P/tools/gcc-arm-none-eabi-4_9-2014q4/arm-none-eabi/include/machine/_default_types.
 989              		.file 4 "/opt/R2P/tools/gcc-arm-none-eabi-4_9-2014q4/arm-none-eabi/include/stdint.h"
 990              		.file 5 "/opt/R2P/core/ChibiOS_2.6.5/os/ports/GCC/ARMCMx/chtypes.h"
 991              		.file 6 "/opt/R2P/core/ChibiOS_2.6.5/os/kernel/include/chstreams.h"
 992              		.file 7 "/opt/R2P/tools/gcc-arm-none-eabi-4_9-2014q4/lib/gcc/arm-none-eabi/4.9.3/include/stdarg.h"
 993              		.file 8 "<built-in>"
 994              		.file 9 "/opt/R2P/core/ChibiOS_2.6.5/os/various/memstreams.h"