ARM GAS  /tmp/ccjcRCPv.s 			page 1


   1              		.syntax unified
   2              		.cpu cortex-m4
   3              		.fpu softvfp
   4              		.eabi_attribute 20, 1
   5              		.eabi_attribute 21, 1
   6              		.eabi_attribute 23, 3
   7              		.eabi_attribute 24, 1
   8              		.eabi_attribute 25, 1
   9              		.eabi_attribute 26, 1
  10              		.eabi_attribute 30, 6
  11              		.eabi_attribute 34, 1
  12              		.eabi_attribute 18, 4
  13              		.thumb
  14              		.file	"chqueues.c"
  15              		.text
  16              	.Ltext0:
  17              		.cfi_sections	.debug_frame
  18              		.align	2
  19              		.thumb
  20              		.thumb_func
  21              		.type	queue_insert, %function
  22              	queue_insert:
  23              	.LFB1:
  24              		.file 1 "/opt/R2P/core/ChibiOS_2.6.5/os/kernel/include/chinline.h"
  25              		.loc 1 52 0
  26              		.cfi_startproc
  27              		@ args = 0, pretend = 0, frame = 8
  28              		@ frame_needed = 0, uses_anonymous_args = 0
  29              		@ link register save eliminated.
  30 0000 82B0     		sub	sp, sp, #8
  31              		.cfi_def_cfa_offset 8
  32 0002 0190     		str	r0, [sp, #4]
  33 0004 0091     		str	r1, [sp]
  34              		.loc 1 54 0
  35 0006 019B     		ldr	r3, [sp, #4]
  36 0008 009A     		ldr	r2, [sp]
  37 000a 1A60     		str	r2, [r3]
  38              		.loc 1 55 0
  39 000c 009B     		ldr	r3, [sp]
  40 000e 5A68     		ldr	r2, [r3, #4]
  41 0010 019B     		ldr	r3, [sp, #4]
  42 0012 5A60     		str	r2, [r3, #4]
  43              		.loc 1 56 0
  44 0014 019B     		ldr	r3, [sp, #4]
  45 0016 5B68     		ldr	r3, [r3, #4]
  46 0018 009A     		ldr	r2, [sp]
  47 001a 0199     		ldr	r1, [sp, #4]
  48 001c 5160     		str	r1, [r2, #4]
  49 001e 009A     		ldr	r2, [sp]
  50 0020 5268     		ldr	r2, [r2, #4]
  51 0022 1A60     		str	r2, [r3]
  52              		.loc 1 57 0
  53 0024 02B0     		add	sp, sp, #8
  54              		.cfi_def_cfa_offset 0
  55              		@ sp needed
  56 0026 7047     		bx	lr
  57              		.cfi_endproc
ARM GAS  /tmp/ccjcRCPv.s 			page 2


  58              	.LFE1:
  59              		.size	queue_insert, .-queue_insert
  60              		.align	2
  61              		.thumb
  62              		.thumb_func
  63              		.type	fifo_remove, %function
  64              	fifo_remove:
  65              	.LFB2:
  66              		.loc 1 59 0
  67              		.cfi_startproc
  68              		@ args = 0, pretend = 0, frame = 16
  69              		@ frame_needed = 0, uses_anonymous_args = 0
  70              		@ link register save eliminated.
  71 0028 84B0     		sub	sp, sp, #16
  72              		.cfi_def_cfa_offset 16
  73 002a 0190     		str	r0, [sp, #4]
  74              		.loc 1 60 0
  75 002c 019B     		ldr	r3, [sp, #4]
  76 002e 1B68     		ldr	r3, [r3]
  77 0030 0393     		str	r3, [sp, #12]
  78              		.loc 1 62 0
  79 0032 039B     		ldr	r3, [sp, #12]
  80 0034 1A68     		ldr	r2, [r3]
  81 0036 019B     		ldr	r3, [sp, #4]
  82 0038 1A60     		str	r2, [r3]
  83 003a 019B     		ldr	r3, [sp, #4]
  84 003c 1B68     		ldr	r3, [r3]
  85 003e 019A     		ldr	r2, [sp, #4]
  86 0040 5A60     		str	r2, [r3, #4]
  87              		.loc 1 63 0
  88 0042 039B     		ldr	r3, [sp, #12]
  89              		.loc 1 64 0
  90 0044 1846     		mov	r0, r3
  91 0046 04B0     		add	sp, sp, #16
  92              		.cfi_def_cfa_offset 0
  93              		@ sp needed
  94 0048 7047     		bx	lr
  95              		.cfi_endproc
  96              	.LFE2:
  97              		.size	fifo_remove, .-fifo_remove
  98 004a 00BF     		.align	2
  99              		.thumb
 100              		.thumb_func
 101              		.type	qwait, %function
 102              	qwait:
 103              	.LFB7:
 104              		.file 2 "/opt/R2P/core/ChibiOS_2.6.5/os/kernel/src/chqueues.c"
 105              		.loc 2 70 0
 106              		.cfi_startproc
 107              		@ args = 0, pretend = 0, frame = 8
 108              		@ frame_needed = 0, uses_anonymous_args = 0
 109 004c 00B5     		push	{lr}
 110              		.cfi_def_cfa_offset 4
 111              		.cfi_offset 14, -4
 112 004e 83B0     		sub	sp, sp, #12
 113              		.cfi_def_cfa_offset 16
 114 0050 0190     		str	r0, [sp, #4]
ARM GAS  /tmp/ccjcRCPv.s 			page 3


 115 0052 0091     		str	r1, [sp]
 116              		.loc 2 72 0
 117 0054 009B     		ldr	r3, [sp]
 118 0056 002B     		cmp	r3, #0
 119 0058 02D1     		bne	.L5
 120              		.loc 2 73 0
 121 005a 4FF0FF33 		mov	r3, #-1
 122 005e 0FE0     		b	.L6
 123              	.L5:
 124              		.loc 2 74 0
 125 0060 094B     		ldr	r3, .L7
 126 0062 9B69     		ldr	r3, [r3, #24]
 127 0064 019A     		ldr	r2, [sp, #4]
 128 0066 9A62     		str	r2, [r3, #40]
 129              		.loc 2 75 0
 130 0068 074B     		ldr	r3, .L7
 131 006a 9A69     		ldr	r2, [r3, #24]
 132 006c 019B     		ldr	r3, [sp, #4]
 133 006e 1046     		mov	r0, r2
 134 0070 1946     		mov	r1, r3
 135 0072 FFF7C5FF 		bl	queue_insert
 136              		.loc 2 76 0
 137 0076 0D20     		movs	r0, #13
 138 0078 0099     		ldr	r1, [sp]
 139 007a FFF7FEFF 		bl	chSchGoSleepTimeoutS
 140 007e 0346     		mov	r3, r0
 141              	.L6:
 142              		.loc 2 77 0
 143 0080 1846     		mov	r0, r3
 144 0082 03B0     		add	sp, sp, #12
 145              		.cfi_def_cfa_offset 4
 146              		@ sp needed
 147 0084 5DF804FB 		ldr	pc, [sp], #4
 148              	.L8:
 149              		.align	2
 150              	.L7:
 151 0088 00000000 		.word	rlist
 152              		.cfi_endproc
 153              	.LFE7:
 154              		.size	qwait, .-qwait
 155              		.align	2
 156              		.global	chIQInit
 157              		.thumb
 158              		.thumb_func
 159              		.type	chIQInit, %function
 160              	chIQInit:
 161              	.LFB8:
 162              		.loc 2 96 0
 163              		.cfi_startproc
 164              		@ args = 4, pretend = 0, frame = 16
 165              		@ frame_needed = 0, uses_anonymous_args = 0
 166              		@ link register save eliminated.
 167 008c 84B0     		sub	sp, sp, #16
 168              		.cfi_def_cfa_offset 16
 169 008e 0390     		str	r0, [sp, #12]
 170 0090 0291     		str	r1, [sp, #8]
 171 0092 0192     		str	r2, [sp, #4]
ARM GAS  /tmp/ccjcRCPv.s 			page 4


 172 0094 0093     		str	r3, [sp]
 173              		.loc 2 98 0
 174 0096 039A     		ldr	r2, [sp, #12]
 175 0098 039B     		ldr	r3, [sp, #12]
 176 009a 5A60     		str	r2, [r3, #4]
 177 009c 039B     		ldr	r3, [sp, #12]
 178 009e 5A68     		ldr	r2, [r3, #4]
 179 00a0 039B     		ldr	r3, [sp, #12]
 180 00a2 1A60     		str	r2, [r3]
 181              		.loc 2 99 0
 182 00a4 039B     		ldr	r3, [sp, #12]
 183 00a6 0022     		movs	r2, #0
 184 00a8 9A60     		str	r2, [r3, #8]
 185              		.loc 2 100 0
 186 00aa 039B     		ldr	r3, [sp, #12]
 187 00ac 029A     		ldr	r2, [sp, #8]
 188 00ae 5A61     		str	r2, [r3, #20]
 189 00b0 039B     		ldr	r3, [sp, #12]
 190 00b2 5A69     		ldr	r2, [r3, #20]
 191 00b4 039B     		ldr	r3, [sp, #12]
 192 00b6 9A61     		str	r2, [r3, #24]
 193 00b8 039B     		ldr	r3, [sp, #12]
 194 00ba 9A69     		ldr	r2, [r3, #24]
 195 00bc 039B     		ldr	r3, [sp, #12]
 196 00be DA60     		str	r2, [r3, #12]
 197              		.loc 2 101 0
 198 00c0 029A     		ldr	r2, [sp, #8]
 199 00c2 019B     		ldr	r3, [sp, #4]
 200 00c4 1A44     		add	r2, r2, r3
 201 00c6 039B     		ldr	r3, [sp, #12]
 202 00c8 1A61     		str	r2, [r3, #16]
 203              		.loc 2 102 0
 204 00ca 039B     		ldr	r3, [sp, #12]
 205 00cc 009A     		ldr	r2, [sp]
 206 00ce DA61     		str	r2, [r3, #28]
 207              		.loc 2 103 0
 208 00d0 039B     		ldr	r3, [sp, #12]
 209 00d2 049A     		ldr	r2, [sp, #16]
 210 00d4 1A62     		str	r2, [r3, #32]
 211              		.loc 2 104 0
 212 00d6 04B0     		add	sp, sp, #16
 213              		.cfi_def_cfa_offset 0
 214              		@ sp needed
 215 00d8 7047     		bx	lr
 216              		.cfi_endproc
 217              	.LFE8:
 218              		.size	chIQInit, .-chIQInit
 219 00da 00BF     		.align	2
 220              		.global	chIQResetI
 221              		.thumb
 222              		.thumb_func
 223              		.type	chIQResetI, %function
 224              	chIQResetI:
 225              	.LFB9:
 226              		.loc 2 117 0
 227              		.cfi_startproc
 228              		@ args = 0, pretend = 0, frame = 8
ARM GAS  /tmp/ccjcRCPv.s 			page 5


 229              		@ frame_needed = 0, uses_anonymous_args = 0
 230 00dc 00B5     		push	{lr}
 231              		.cfi_def_cfa_offset 4
 232              		.cfi_offset 14, -4
 233 00de 83B0     		sub	sp, sp, #12
 234              		.cfi_def_cfa_offset 16
 235 00e0 0190     		str	r0, [sp, #4]
 236              		.loc 2 119 0
 237 00e2 FFF7FEFF 		bl	chDbgCheckClassI
 238              		.loc 2 121 0
 239 00e6 019B     		ldr	r3, [sp, #4]
 240 00e8 DA68     		ldr	r2, [r3, #12]
 241 00ea 019B     		ldr	r3, [sp, #4]
 242 00ec 5A61     		str	r2, [r3, #20]
 243 00ee 019B     		ldr	r3, [sp, #4]
 244 00f0 5A69     		ldr	r2, [r3, #20]
 245 00f2 019B     		ldr	r3, [sp, #4]
 246 00f4 9A61     		str	r2, [r3, #24]
 247              		.loc 2 122 0
 248 00f6 019B     		ldr	r3, [sp, #4]
 249 00f8 0022     		movs	r2, #0
 250 00fa 9A60     		str	r2, [r3, #8]
 251              		.loc 2 123 0
 252 00fc 0BE0     		b	.L11
 253              	.L12:
 254              		.loc 2 124 0
 255 00fe 019B     		ldr	r3, [sp, #4]
 256 0100 1846     		mov	r0, r3
 257 0102 FFF791FF 		bl	fifo_remove
 258 0106 0346     		mov	r3, r0
 259 0108 1846     		mov	r0, r3
 260 010a FFF7FEFF 		bl	chSchReadyI
 261 010e 0246     		mov	r2, r0
 262 0110 6FF00103 		mvn	r3, #1
 263 0114 9362     		str	r3, [r2, #40]
 264              	.L11:
 265              		.loc 2 123 0
 266 0116 019B     		ldr	r3, [sp, #4]
 267 0118 1A68     		ldr	r2, [r3]
 268 011a 019B     		ldr	r3, [sp, #4]
 269 011c 9A42     		cmp	r2, r3
 270 011e EED1     		bne	.L12
 271              		.loc 2 125 0
 272 0120 03B0     		add	sp, sp, #12
 273              		.cfi_def_cfa_offset 4
 274              		@ sp needed
 275 0122 5DF804FB 		ldr	pc, [sp], #4
 276              		.cfi_endproc
 277              	.LFE9:
 278              		.size	chIQResetI, .-chIQResetI
 279 0126 00BF     		.align	2
 280              		.global	chIQPutI
 281              		.thumb
 282              		.thumb_func
 283              		.type	chIQPutI, %function
 284              	chIQPutI:
 285              	.LFB10:
ARM GAS  /tmp/ccjcRCPv.s 			page 6


 286              		.loc 2 140 0
 287              		.cfi_startproc
 288              		@ args = 0, pretend = 0, frame = 8
 289              		@ frame_needed = 0, uses_anonymous_args = 0
 290 0128 00B5     		push	{lr}
 291              		.cfi_def_cfa_offset 4
 292              		.cfi_offset 14, -4
 293 012a 83B0     		sub	sp, sp, #12
 294              		.cfi_def_cfa_offset 16
 295 012c 0190     		str	r0, [sp, #4]
 296 012e 0B46     		mov	r3, r1
 297 0130 8DF80330 		strb	r3, [sp, #3]
 298              		.loc 2 142 0
 299 0134 FFF7FEFF 		bl	chDbgCheckClassI
 300              		.loc 2 144 0
 301 0138 019B     		ldr	r3, [sp, #4]
 302 013a 5A69     		ldr	r2, [r3, #20]
 303 013c 019B     		ldr	r3, [sp, #4]
 304 013e 9B69     		ldr	r3, [r3, #24]
 305 0140 9A42     		cmp	r2, r3
 306 0142 05D1     		bne	.L14
 307              		.loc 2 144 0 is_stmt 0 discriminator 1
 308 0144 019B     		ldr	r3, [sp, #4]
 309 0146 9B68     		ldr	r3, [r3, #8]
 310 0148 002B     		cmp	r3, #0
 311 014a 01D0     		beq	.L14
 312              		.loc 2 144 0 discriminator 3
 313 014c 0123     		movs	r3, #1
 314 014e 00E0     		b	.L15
 315              	.L14:
 316              		.loc 2 144 0 discriminator 4
 317 0150 0023     		movs	r3, #0
 318              	.L15:
 319              		.loc 2 144 0 discriminator 6
 320 0152 03F00103 		and	r3, r3, #1
 321 0156 DBB2     		uxtb	r3, r3
 322 0158 002B     		cmp	r3, #0
 323 015a 02D0     		beq	.L16
 324              		.loc 2 145 0 is_stmt 1
 325 015c 6FF00303 		mvn	r3, #3
 326 0160 27E0     		b	.L17
 327              	.L16:
 328              		.loc 2 147 0
 329 0162 019B     		ldr	r3, [sp, #4]
 330 0164 9B68     		ldr	r3, [r3, #8]
 331 0166 5A1C     		adds	r2, r3, #1
 332 0168 019B     		ldr	r3, [sp, #4]
 333 016a 9A60     		str	r2, [r3, #8]
 334              		.loc 2 148 0
 335 016c 019B     		ldr	r3, [sp, #4]
 336 016e 5B69     		ldr	r3, [r3, #20]
 337 0170 591C     		adds	r1, r3, #1
 338 0172 019A     		ldr	r2, [sp, #4]
 339 0174 5161     		str	r1, [r2, #20]
 340 0176 9DF80320 		ldrb	r2, [sp, #3]
 341 017a 1A70     		strb	r2, [r3]
 342              		.loc 2 149 0
ARM GAS  /tmp/ccjcRCPv.s 			page 7


 343 017c 019B     		ldr	r3, [sp, #4]
 344 017e 5A69     		ldr	r2, [r3, #20]
 345 0180 019B     		ldr	r3, [sp, #4]
 346 0182 1B69     		ldr	r3, [r3, #16]
 347 0184 9A42     		cmp	r2, r3
 348 0186 03D3     		bcc	.L18
 349              		.loc 2 150 0
 350 0188 019B     		ldr	r3, [sp, #4]
 351 018a DA68     		ldr	r2, [r3, #12]
 352 018c 019B     		ldr	r3, [sp, #4]
 353 018e 5A61     		str	r2, [r3, #20]
 354              	.L18:
 355              		.loc 2 152 0
 356 0190 019B     		ldr	r3, [sp, #4]
 357 0192 1A68     		ldr	r2, [r3]
 358 0194 019B     		ldr	r3, [sp, #4]
 359 0196 9A42     		cmp	r2, r3
 360 0198 0AD0     		beq	.L19
 361              		.loc 2 153 0
 362 019a 019B     		ldr	r3, [sp, #4]
 363 019c 1846     		mov	r0, r3
 364 019e FFF743FF 		bl	fifo_remove
 365 01a2 0346     		mov	r3, r0
 366 01a4 1846     		mov	r0, r3
 367 01a6 FFF7FEFF 		bl	chSchReadyI
 368 01aa 0246     		mov	r2, r0
 369 01ac 0023     		movs	r3, #0
 370 01ae 9362     		str	r3, [r2, #40]
 371              	.L19:
 372              		.loc 2 155 0
 373 01b0 0023     		movs	r3, #0
 374              	.L17:
 375              		.loc 2 156 0
 376 01b2 1846     		mov	r0, r3
 377 01b4 03B0     		add	sp, sp, #12
 378              		.cfi_def_cfa_offset 4
 379              		@ sp needed
 380 01b6 5DF804FB 		ldr	pc, [sp], #4
 381              		.cfi_endproc
 382              	.LFE10:
 383              		.size	chIQPutI, .-chIQPutI
 384 01ba 00BF     		.align	2
 385              		.global	chIQGetTimeout
 386              		.thumb
 387              		.thumb_func
 388              		.type	chIQGetTimeout, %function
 389              	chIQGetTimeout:
 390              	.LFB11:
 391              		.loc 2 178 0
 392              		.cfi_startproc
 393              		@ args = 0, pretend = 0, frame = 16
 394              		@ frame_needed = 0, uses_anonymous_args = 0
 395 01bc 00B5     		push	{lr}
 396              		.cfi_def_cfa_offset 4
 397              		.cfi_offset 14, -4
 398 01be 85B0     		sub	sp, sp, #20
 399              		.cfi_def_cfa_offset 24
ARM GAS  /tmp/ccjcRCPv.s 			page 8


 400 01c0 0190     		str	r0, [sp, #4]
 401 01c2 0091     		str	r1, [sp]
 402              	.LBB2:
 403              		.loc 2 181 0
 404 01c4 2023     		movs	r3, #32
 405              	@ 181 "/opt/R2P/core/ChibiOS_2.6.5/os/kernel/src/chqueues.c" 1
 406 01c6 83F31188 		msr     BASEPRI, r3
 407              	@ 0 "" 2
 408              		.thumb
 409              	.LBE2:
 410 01ca FFF7FEFF 		bl	dbg_check_lock
 411              		.loc 2 182 0
 412 01ce 019B     		ldr	r3, [sp, #4]
 413 01d0 DB69     		ldr	r3, [r3, #28]
 414 01d2 002B     		cmp	r3, #0
 415 01d4 03D0     		beq	.L21
 416              		.loc 2 183 0
 417 01d6 019B     		ldr	r3, [sp, #4]
 418 01d8 DB69     		ldr	r3, [r3, #28]
 419 01da 0198     		ldr	r0, [sp, #4]
 420 01dc 9847     		blx	r3
 421              	.L21:
 422              		.loc 2 185 0
 423 01de 0EE0     		b	.L22
 424              	.L24:
 425              	.LBB3:
 426              		.loc 2 187 0
 427 01e0 0198     		ldr	r0, [sp, #4]
 428 01e2 0099     		ldr	r1, [sp]
 429 01e4 FFF732FF 		bl	qwait
 430 01e8 0390     		str	r0, [sp, #12]
 431 01ea 039B     		ldr	r3, [sp, #12]
 432 01ec 002B     		cmp	r3, #0
 433 01ee 06DA     		bge	.L22
 434              		.loc 2 188 0
 435 01f0 FFF7FEFF 		bl	dbg_check_unlock
 436              	.LBB4:
 437 01f4 0023     		movs	r3, #0
 438              	@ 188 "/opt/R2P/core/ChibiOS_2.6.5/os/kernel/src/chqueues.c" 1
 439 01f6 83F31188 		msr     BASEPRI, r3
 440              	@ 0 "" 2
 441              		.thumb
 442              	.LBE4:
 443              		.loc 2 189 0
 444 01fa 039B     		ldr	r3, [sp, #12]
 445 01fc 21E0     		b	.L23
 446              	.L22:
 447              	.LBE3:
 448              		.loc 2 185 0
 449 01fe 019B     		ldr	r3, [sp, #4]
 450 0200 9B68     		ldr	r3, [r3, #8]
 451 0202 002B     		cmp	r3, #0
 452 0204 ECD0     		beq	.L24
 453              		.loc 2 193 0
 454 0206 019B     		ldr	r3, [sp, #4]
 455 0208 9B68     		ldr	r3, [r3, #8]
 456 020a 5A1E     		subs	r2, r3, #1
ARM GAS  /tmp/ccjcRCPv.s 			page 9


 457 020c 019B     		ldr	r3, [sp, #4]
 458 020e 9A60     		str	r2, [r3, #8]
 459              		.loc 2 194 0
 460 0210 019B     		ldr	r3, [sp, #4]
 461 0212 9B69     		ldr	r3, [r3, #24]
 462 0214 591C     		adds	r1, r3, #1
 463 0216 019A     		ldr	r2, [sp, #4]
 464 0218 9161     		str	r1, [r2, #24]
 465 021a 1B78     		ldrb	r3, [r3]
 466 021c 8DF80B30 		strb	r3, [sp, #11]
 467              		.loc 2 195 0
 468 0220 019B     		ldr	r3, [sp, #4]
 469 0222 9A69     		ldr	r2, [r3, #24]
 470 0224 019B     		ldr	r3, [sp, #4]
 471 0226 1B69     		ldr	r3, [r3, #16]
 472 0228 9A42     		cmp	r2, r3
 473 022a 03D3     		bcc	.L25
 474              		.loc 2 196 0
 475 022c 019B     		ldr	r3, [sp, #4]
 476 022e DA68     		ldr	r2, [r3, #12]
 477 0230 019B     		ldr	r3, [sp, #4]
 478 0232 9A61     		str	r2, [r3, #24]
 479              	.L25:
 480              		.loc 2 198 0
 481 0234 FFF7FEFF 		bl	dbg_check_unlock
 482              	.LBB5:
 483 0238 0023     		movs	r3, #0
 484              	@ 198 "/opt/R2P/core/ChibiOS_2.6.5/os/kernel/src/chqueues.c" 1
 485 023a 83F31188 		msr     BASEPRI, r3
 486              	@ 0 "" 2
 487              		.thumb
 488              	.LBE5:
 489              		.loc 2 199 0
 490 023e 9DF80B30 		ldrb	r3, [sp, #11]	@ zero_extendqisi2
 491              	.L23:
 492              		.loc 2 200 0
 493 0242 1846     		mov	r0, r3
 494 0244 05B0     		add	sp, sp, #20
 495              		.cfi_def_cfa_offset 4
 496              		@ sp needed
 497 0246 5DF804FB 		ldr	pc, [sp], #4
 498              		.cfi_endproc
 499              	.LFE11:
 500              		.size	chIQGetTimeout, .-chIQGetTimeout
 501              		.section	.rodata
 502              		.align	2
 503              	.LC0:
 504 0000 22636849 		.ascii	"\"chIQReadTimeout\"()\000"
 504      51526561 
 504      6454696D 
 504      656F7574 
 504      22282900 
 505              		.text
 506 024a 00BF     		.align	2
 507              		.global	chIQReadTimeout
 508              		.thumb
 509              		.thumb_func
ARM GAS  /tmp/ccjcRCPv.s 			page 10


 510              		.type	chIQReadTimeout, %function
 511              	chIQReadTimeout:
 512              	.LFB12:
 513              		.loc 2 227 0
 514              		.cfi_startproc
 515              		@ args = 0, pretend = 0, frame = 24
 516              		@ frame_needed = 0, uses_anonymous_args = 0
 517 024c 00B5     		push	{lr}
 518              		.cfi_def_cfa_offset 4
 519              		.cfi_offset 14, -4
 520 024e 87B0     		sub	sp, sp, #28
 521              		.cfi_def_cfa_offset 32
 522 0250 0390     		str	r0, [sp, #12]
 523 0252 0291     		str	r1, [sp, #8]
 524 0254 0192     		str	r2, [sp, #4]
 525 0256 0093     		str	r3, [sp]
 526              		.loc 2 228 0
 527 0258 039B     		ldr	r3, [sp, #12]
 528 025a DB69     		ldr	r3, [r3, #28]
 529 025c 0493     		str	r3, [sp, #16]
 530              		.loc 2 229 0
 531 025e 0023     		movs	r3, #0
 532 0260 0593     		str	r3, [sp, #20]
 533              		.loc 2 231 0
 534 0262 019B     		ldr	r3, [sp, #4]
 535 0264 002B     		cmp	r3, #0
 536 0266 02D1     		bne	.L27
 537              		.loc 2 231 0 is_stmt 0 discriminator 1
 538 0268 2948     		ldr	r0, .L35
 539 026a FFF7FEFF 		bl	chDbgPanic
 540              	.L27:
 541              	.LBB6:
 542              		.loc 2 233 0 is_stmt 1
 543 026e 2023     		movs	r3, #32
 544              	@ 233 "/opt/R2P/core/ChibiOS_2.6.5/os/kernel/src/chqueues.c" 1
 545 0270 83F31188 		msr     BASEPRI, r3
 546              	@ 0 "" 2
 547              		.thumb
 548              	.LBE6:
 549 0274 FFF7FEFF 		bl	dbg_check_lock
 550              	.L34:
 551              		.loc 2 235 0
 552 0278 049B     		ldr	r3, [sp, #16]
 553 027a 002B     		cmp	r3, #0
 554 027c 02D0     		beq	.L28
 555              		.loc 2 236 0
 556 027e 049B     		ldr	r3, [sp, #16]
 557 0280 0398     		ldr	r0, [sp, #12]
 558 0282 9847     		blx	r3
 559              	.L28:
 560              		.loc 2 238 0
 561 0284 0DE0     		b	.L29
 562              	.L31:
 563              		.loc 2 239 0
 564 0286 0398     		ldr	r0, [sp, #12]
 565 0288 0099     		ldr	r1, [sp]
 566 028a FFF7DFFE 		bl	qwait
ARM GAS  /tmp/ccjcRCPv.s 			page 11


 567 028e 0346     		mov	r3, r0
 568 0290 002B     		cmp	r3, #0
 569 0292 06D0     		beq	.L29
 570              		.loc 2 240 0
 571 0294 FFF7FEFF 		bl	dbg_check_unlock
 572              	.LBB7:
 573 0298 0023     		movs	r3, #0
 574              	@ 240 "/opt/R2P/core/ChibiOS_2.6.5/os/kernel/src/chqueues.c" 1
 575 029a 83F31188 		msr     BASEPRI, r3
 576              	@ 0 "" 2
 577              		.thumb
 578              	.LBE7:
 579              		.loc 2 241 0
 580 029e 059B     		ldr	r3, [sp, #20]
 581 02a0 32E0     		b	.L30
 582              	.L29:
 583              		.loc 2 238 0
 584 02a2 039B     		ldr	r3, [sp, #12]
 585 02a4 9B68     		ldr	r3, [r3, #8]
 586 02a6 002B     		cmp	r3, #0
 587 02a8 EDD0     		beq	.L31
 588              		.loc 2 245 0
 589 02aa 039B     		ldr	r3, [sp, #12]
 590 02ac 9B68     		ldr	r3, [r3, #8]
 591 02ae 5A1E     		subs	r2, r3, #1
 592 02b0 039B     		ldr	r3, [sp, #12]
 593 02b2 9A60     		str	r2, [r3, #8]
 594              		.loc 2 246 0
 595 02b4 029B     		ldr	r3, [sp, #8]
 596 02b6 5A1C     		adds	r2, r3, #1
 597 02b8 0292     		str	r2, [sp, #8]
 598 02ba 039A     		ldr	r2, [sp, #12]
 599 02bc 9269     		ldr	r2, [r2, #24]
 600 02be 501C     		adds	r0, r2, #1
 601 02c0 0399     		ldr	r1, [sp, #12]
 602 02c2 8861     		str	r0, [r1, #24]
 603 02c4 1278     		ldrb	r2, [r2]	@ zero_extendqisi2
 604 02c6 1A70     		strb	r2, [r3]
 605              		.loc 2 247 0
 606 02c8 039B     		ldr	r3, [sp, #12]
 607 02ca 9A69     		ldr	r2, [r3, #24]
 608 02cc 039B     		ldr	r3, [sp, #12]
 609 02ce 1B69     		ldr	r3, [r3, #16]
 610 02d0 9A42     		cmp	r2, r3
 611 02d2 03D3     		bcc	.L32
 612              		.loc 2 248 0
 613 02d4 039B     		ldr	r3, [sp, #12]
 614 02d6 DA68     		ldr	r2, [r3, #12]
 615 02d8 039B     		ldr	r3, [sp, #12]
 616 02da 9A61     		str	r2, [r3, #24]
 617              	.L32:
 618              		.loc 2 250 0
 619 02dc FFF7FEFF 		bl	dbg_check_unlock
 620              	.LBB8:
 621 02e0 0023     		movs	r3, #0
 622              	@ 250 "/opt/R2P/core/ChibiOS_2.6.5/os/kernel/src/chqueues.c" 1
 623 02e2 83F31188 		msr     BASEPRI, r3
ARM GAS  /tmp/ccjcRCPv.s 			page 12


 624              	@ 0 "" 2
 625              		.thumb
 626              	.LBE8:
 627              		.loc 2 251 0
 628 02e6 059B     		ldr	r3, [sp, #20]
 629 02e8 0133     		adds	r3, r3, #1
 630 02ea 0593     		str	r3, [sp, #20]
 631              		.loc 2 252 0
 632 02ec 019B     		ldr	r3, [sp, #4]
 633 02ee 013B     		subs	r3, r3, #1
 634 02f0 0193     		str	r3, [sp, #4]
 635 02f2 019B     		ldr	r3, [sp, #4]
 636 02f4 002B     		cmp	r3, #0
 637 02f6 01D1     		bne	.L33
 638              		.loc 2 253 0
 639 02f8 059B     		ldr	r3, [sp, #20]
 640 02fa 05E0     		b	.L30
 641              	.L33:
 642              	.LBB9:
 643              		.loc 2 255 0
 644 02fc 2023     		movs	r3, #32
 645              	@ 255 "/opt/R2P/core/ChibiOS_2.6.5/os/kernel/src/chqueues.c" 1
 646 02fe 83F31188 		msr     BASEPRI, r3
 647              	@ 0 "" 2
 648              		.thumb
 649              	.LBE9:
 650 0302 FFF7FEFF 		bl	dbg_check_lock
 651              		.loc 2 256 0
 652 0306 B7E7     		b	.L34
 653              	.L30:
 654              		.loc 2 257 0
 655 0308 1846     		mov	r0, r3
 656 030a 07B0     		add	sp, sp, #28
 657              		.cfi_def_cfa_offset 4
 658              		@ sp needed
 659 030c 5DF804FB 		ldr	pc, [sp], #4
 660              	.L36:
 661              		.align	2
 662              	.L35:
 663 0310 00000000 		.word	.LC0
 664              		.cfi_endproc
 665              	.LFE12:
 666              		.size	chIQReadTimeout, .-chIQReadTimeout
 667              		.align	2
 668              		.global	chOQInit
 669              		.thumb
 670              		.thumb_func
 671              		.type	chOQInit, %function
 672              	chOQInit:
 673              	.LFB13:
 674              		.loc 2 276 0
 675              		.cfi_startproc
 676              		@ args = 4, pretend = 0, frame = 16
 677              		@ frame_needed = 0, uses_anonymous_args = 0
 678              		@ link register save eliminated.
 679 0314 84B0     		sub	sp, sp, #16
 680              		.cfi_def_cfa_offset 16
ARM GAS  /tmp/ccjcRCPv.s 			page 13


 681 0316 0390     		str	r0, [sp, #12]
 682 0318 0291     		str	r1, [sp, #8]
 683 031a 0192     		str	r2, [sp, #4]
 684 031c 0093     		str	r3, [sp]
 685              		.loc 2 278 0
 686 031e 039A     		ldr	r2, [sp, #12]
 687 0320 039B     		ldr	r3, [sp, #12]
 688 0322 5A60     		str	r2, [r3, #4]
 689 0324 039B     		ldr	r3, [sp, #12]
 690 0326 5A68     		ldr	r2, [r3, #4]
 691 0328 039B     		ldr	r3, [sp, #12]
 692 032a 1A60     		str	r2, [r3]
 693              		.loc 2 279 0
 694 032c 039B     		ldr	r3, [sp, #12]
 695 032e 019A     		ldr	r2, [sp, #4]
 696 0330 9A60     		str	r2, [r3, #8]
 697              		.loc 2 280 0
 698 0332 039B     		ldr	r3, [sp, #12]
 699 0334 029A     		ldr	r2, [sp, #8]
 700 0336 5A61     		str	r2, [r3, #20]
 701 0338 039B     		ldr	r3, [sp, #12]
 702 033a 5A69     		ldr	r2, [r3, #20]
 703 033c 039B     		ldr	r3, [sp, #12]
 704 033e 9A61     		str	r2, [r3, #24]
 705 0340 039B     		ldr	r3, [sp, #12]
 706 0342 9A69     		ldr	r2, [r3, #24]
 707 0344 039B     		ldr	r3, [sp, #12]
 708 0346 DA60     		str	r2, [r3, #12]
 709              		.loc 2 281 0
 710 0348 029A     		ldr	r2, [sp, #8]
 711 034a 019B     		ldr	r3, [sp, #4]
 712 034c 1A44     		add	r2, r2, r3
 713 034e 039B     		ldr	r3, [sp, #12]
 714 0350 1A61     		str	r2, [r3, #16]
 715              		.loc 2 282 0
 716 0352 039B     		ldr	r3, [sp, #12]
 717 0354 009A     		ldr	r2, [sp]
 718 0356 DA61     		str	r2, [r3, #28]
 719              		.loc 2 283 0
 720 0358 039B     		ldr	r3, [sp, #12]
 721 035a 049A     		ldr	r2, [sp, #16]
 722 035c 1A62     		str	r2, [r3, #32]
 723              		.loc 2 284 0
 724 035e 04B0     		add	sp, sp, #16
 725              		.cfi_def_cfa_offset 0
 726              		@ sp needed
 727 0360 7047     		bx	lr
 728              		.cfi_endproc
 729              	.LFE13:
 730              		.size	chOQInit, .-chOQInit
 731 0362 00BF     		.align	2
 732              		.global	chOQResetI
 733              		.thumb
 734              		.thumb_func
 735              		.type	chOQResetI, %function
 736              	chOQResetI:
 737              	.LFB14:
ARM GAS  /tmp/ccjcRCPv.s 			page 14


 738              		.loc 2 297 0
 739              		.cfi_startproc
 740              		@ args = 0, pretend = 0, frame = 8
 741              		@ frame_needed = 0, uses_anonymous_args = 0
 742 0364 00B5     		push	{lr}
 743              		.cfi_def_cfa_offset 4
 744              		.cfi_offset 14, -4
 745 0366 83B0     		sub	sp, sp, #12
 746              		.cfi_def_cfa_offset 16
 747 0368 0190     		str	r0, [sp, #4]
 748              		.loc 2 299 0
 749 036a FFF7FEFF 		bl	chDbgCheckClassI
 750              		.loc 2 301 0
 751 036e 019B     		ldr	r3, [sp, #4]
 752 0370 DA68     		ldr	r2, [r3, #12]
 753 0372 019B     		ldr	r3, [sp, #4]
 754 0374 5A61     		str	r2, [r3, #20]
 755 0376 019B     		ldr	r3, [sp, #4]
 756 0378 5A69     		ldr	r2, [r3, #20]
 757 037a 019B     		ldr	r3, [sp, #4]
 758 037c 9A61     		str	r2, [r3, #24]
 759              		.loc 2 302 0
 760 037e 019B     		ldr	r3, [sp, #4]
 761 0380 1B69     		ldr	r3, [r3, #16]
 762 0382 1A46     		mov	r2, r3
 763 0384 019B     		ldr	r3, [sp, #4]
 764 0386 DB68     		ldr	r3, [r3, #12]
 765 0388 D31A     		subs	r3, r2, r3
 766 038a 1A46     		mov	r2, r3
 767 038c 019B     		ldr	r3, [sp, #4]
 768 038e 9A60     		str	r2, [r3, #8]
 769              		.loc 2 303 0
 770 0390 0BE0     		b	.L39
 771              	.L40:
 772              		.loc 2 304 0
 773 0392 019B     		ldr	r3, [sp, #4]
 774 0394 1846     		mov	r0, r3
 775 0396 FFF747FE 		bl	fifo_remove
 776 039a 0346     		mov	r3, r0
 777 039c 1846     		mov	r0, r3
 778 039e FFF7FEFF 		bl	chSchReadyI
 779 03a2 0246     		mov	r2, r0
 780 03a4 6FF00103 		mvn	r3, #1
 781 03a8 9362     		str	r3, [r2, #40]
 782              	.L39:
 783              		.loc 2 303 0
 784 03aa 019B     		ldr	r3, [sp, #4]
 785 03ac 1A68     		ldr	r2, [r3]
 786 03ae 019B     		ldr	r3, [sp, #4]
 787 03b0 9A42     		cmp	r2, r3
 788 03b2 EED1     		bne	.L40
 789              		.loc 2 305 0
 790 03b4 03B0     		add	sp, sp, #12
 791              		.cfi_def_cfa_offset 4
 792              		@ sp needed
 793 03b6 5DF804FB 		ldr	pc, [sp], #4
 794              		.cfi_endproc
ARM GAS  /tmp/ccjcRCPv.s 			page 15


 795              	.LFE14:
 796              		.size	chOQResetI, .-chOQResetI
 797 03ba 00BF     		.align	2
 798              		.global	chOQPutTimeout
 799              		.thumb
 800              		.thumb_func
 801              		.type	chOQPutTimeout, %function
 802              	chOQPutTimeout:
 803              	.LFB15:
 804              		.loc 2 329 0
 805              		.cfi_startproc
 806              		@ args = 0, pretend = 0, frame = 24
 807              		@ frame_needed = 0, uses_anonymous_args = 0
 808 03bc 00B5     		push	{lr}
 809              		.cfi_def_cfa_offset 4
 810              		.cfi_offset 14, -4
 811 03be 87B0     		sub	sp, sp, #28
 812              		.cfi_def_cfa_offset 32
 813 03c0 0390     		str	r0, [sp, #12]
 814 03c2 0B46     		mov	r3, r1
 815 03c4 0192     		str	r2, [sp, #4]
 816 03c6 8DF80B30 		strb	r3, [sp, #11]
 817              	.LBB10:
 818              		.loc 2 331 0
 819 03ca 2023     		movs	r3, #32
 820              	@ 331 "/opt/R2P/core/ChibiOS_2.6.5/os/kernel/src/chqueues.c" 1
 821 03cc 83F31188 		msr     BASEPRI, r3
 822              	@ 0 "" 2
 823              		.thumb
 824              	.LBE10:
 825 03d0 FFF7FEFF 		bl	dbg_check_lock
 826              		.loc 2 332 0
 827 03d4 0EE0     		b	.L42
 828              	.L44:
 829              	.LBB11:
 830              		.loc 2 335 0
 831 03d6 0398     		ldr	r0, [sp, #12]
 832 03d8 0199     		ldr	r1, [sp, #4]
 833 03da FFF737FE 		bl	qwait
 834 03de 0590     		str	r0, [sp, #20]
 835 03e0 059B     		ldr	r3, [sp, #20]
 836 03e2 002B     		cmp	r3, #0
 837 03e4 06DA     		bge	.L42
 838              		.loc 2 336 0
 839 03e6 FFF7FEFF 		bl	dbg_check_unlock
 840              	.LBB12:
 841 03ea 0023     		movs	r3, #0
 842              	@ 336 "/opt/R2P/core/ChibiOS_2.6.5/os/kernel/src/chqueues.c" 1
 843 03ec 83F31188 		msr     BASEPRI, r3
 844              	@ 0 "" 2
 845              		.thumb
 846              	.LBE12:
 847              		.loc 2 337 0
 848 03f0 059B     		ldr	r3, [sp, #20]
 849 03f2 28E0     		b	.L43
 850              	.L42:
 851              	.LBE11:
ARM GAS  /tmp/ccjcRCPv.s 			page 16


 852              		.loc 2 332 0
 853 03f4 039B     		ldr	r3, [sp, #12]
 854 03f6 9B68     		ldr	r3, [r3, #8]
 855 03f8 002B     		cmp	r3, #0
 856 03fa ECD0     		beq	.L44
 857              		.loc 2 341 0
 858 03fc 039B     		ldr	r3, [sp, #12]
 859 03fe 9B68     		ldr	r3, [r3, #8]
 860 0400 5A1E     		subs	r2, r3, #1
 861 0402 039B     		ldr	r3, [sp, #12]
 862 0404 9A60     		str	r2, [r3, #8]
 863              		.loc 2 342 0
 864 0406 039B     		ldr	r3, [sp, #12]
 865 0408 5B69     		ldr	r3, [r3, #20]
 866 040a 591C     		adds	r1, r3, #1
 867 040c 039A     		ldr	r2, [sp, #12]
 868 040e 5161     		str	r1, [r2, #20]
 869 0410 9DF80B20 		ldrb	r2, [sp, #11]
 870 0414 1A70     		strb	r2, [r3]
 871              		.loc 2 343 0
 872 0416 039B     		ldr	r3, [sp, #12]
 873 0418 5A69     		ldr	r2, [r3, #20]
 874 041a 039B     		ldr	r3, [sp, #12]
 875 041c 1B69     		ldr	r3, [r3, #16]
 876 041e 9A42     		cmp	r2, r3
 877 0420 03D3     		bcc	.L45
 878              		.loc 2 344 0
 879 0422 039B     		ldr	r3, [sp, #12]
 880 0424 DA68     		ldr	r2, [r3, #12]
 881 0426 039B     		ldr	r3, [sp, #12]
 882 0428 5A61     		str	r2, [r3, #20]
 883              	.L45:
 884              		.loc 2 346 0
 885 042a 039B     		ldr	r3, [sp, #12]
 886 042c DB69     		ldr	r3, [r3, #28]
 887 042e 002B     		cmp	r3, #0
 888 0430 03D0     		beq	.L46
 889              		.loc 2 347 0
 890 0432 039B     		ldr	r3, [sp, #12]
 891 0434 DB69     		ldr	r3, [r3, #28]
 892 0436 0398     		ldr	r0, [sp, #12]
 893 0438 9847     		blx	r3
 894              	.L46:
 895              		.loc 2 349 0
 896 043a FFF7FEFF 		bl	dbg_check_unlock
 897              	.LBB13:
 898 043e 0023     		movs	r3, #0
 899              	@ 349 "/opt/R2P/core/ChibiOS_2.6.5/os/kernel/src/chqueues.c" 1
 900 0440 83F31188 		msr     BASEPRI, r3
 901              	@ 0 "" 2
 902              		.thumb
 903              	.LBE13:
 904              		.loc 2 350 0
 905 0444 0023     		movs	r3, #0
 906              	.L43:
 907              		.loc 2 351 0
 908 0446 1846     		mov	r0, r3
ARM GAS  /tmp/ccjcRCPv.s 			page 17


 909 0448 07B0     		add	sp, sp, #28
 910              		.cfi_def_cfa_offset 4
 911              		@ sp needed
 912 044a 5DF804FB 		ldr	pc, [sp], #4
 913              		.cfi_endproc
 914              	.LFE15:
 915              		.size	chOQPutTimeout, .-chOQPutTimeout
 916 044e 00BF     		.align	2
 917              		.global	chOQGetI
 918              		.thumb
 919              		.thumb_func
 920              		.type	chOQGetI, %function
 921              	chOQGetI:
 922              	.LFB16:
 923              		.loc 2 363 0
 924              		.cfi_startproc
 925              		@ args = 0, pretend = 0, frame = 16
 926              		@ frame_needed = 0, uses_anonymous_args = 0
 927 0450 00B5     		push	{lr}
 928              		.cfi_def_cfa_offset 4
 929              		.cfi_offset 14, -4
 930 0452 85B0     		sub	sp, sp, #20
 931              		.cfi_def_cfa_offset 24
 932 0454 0190     		str	r0, [sp, #4]
 933              		.loc 2 366 0
 934 0456 FFF7FEFF 		bl	chDbgCheckClassI
 935              		.loc 2 368 0
 936 045a 019B     		ldr	r3, [sp, #4]
 937 045c 5A69     		ldr	r2, [r3, #20]
 938 045e 019B     		ldr	r3, [sp, #4]
 939 0460 9B69     		ldr	r3, [r3, #24]
 940 0462 9A42     		cmp	r2, r3
 941 0464 05D1     		bne	.L48
 942              		.loc 2 368 0 is_stmt 0 discriminator 1
 943 0466 019B     		ldr	r3, [sp, #4]
 944 0468 9B68     		ldr	r3, [r3, #8]
 945 046a 002B     		cmp	r3, #0
 946 046c 01D0     		beq	.L48
 947              		.loc 2 368 0 discriminator 3
 948 046e 0123     		movs	r3, #1
 949 0470 00E0     		b	.L49
 950              	.L48:
 951              		.loc 2 368 0 discriminator 4
 952 0472 0023     		movs	r3, #0
 953              	.L49:
 954              		.loc 2 368 0 discriminator 6
 955 0474 03F00103 		and	r3, r3, #1
 956 0478 DBB2     		uxtb	r3, r3
 957 047a 002B     		cmp	r3, #0
 958 047c 02D0     		beq	.L50
 959              		.loc 2 369 0 is_stmt 1
 960 047e 6FF00203 		mvn	r3, #2
 961 0482 28E0     		b	.L51
 962              	.L50:
 963              		.loc 2 371 0
 964 0484 019B     		ldr	r3, [sp, #4]
 965 0486 9B68     		ldr	r3, [r3, #8]
ARM GAS  /tmp/ccjcRCPv.s 			page 18


 966 0488 5A1C     		adds	r2, r3, #1
 967 048a 019B     		ldr	r3, [sp, #4]
 968 048c 9A60     		str	r2, [r3, #8]
 969              		.loc 2 372 0
 970 048e 019B     		ldr	r3, [sp, #4]
 971 0490 9B69     		ldr	r3, [r3, #24]
 972 0492 591C     		adds	r1, r3, #1
 973 0494 019A     		ldr	r2, [sp, #4]
 974 0496 9161     		str	r1, [r2, #24]
 975 0498 1B78     		ldrb	r3, [r3]
 976 049a 8DF80F30 		strb	r3, [sp, #15]
 977              		.loc 2 373 0
 978 049e 019B     		ldr	r3, [sp, #4]
 979 04a0 9A69     		ldr	r2, [r3, #24]
 980 04a2 019B     		ldr	r3, [sp, #4]
 981 04a4 1B69     		ldr	r3, [r3, #16]
 982 04a6 9A42     		cmp	r2, r3
 983 04a8 03D3     		bcc	.L52
 984              		.loc 2 374 0
 985 04aa 019B     		ldr	r3, [sp, #4]
 986 04ac DA68     		ldr	r2, [r3, #12]
 987 04ae 019B     		ldr	r3, [sp, #4]
 988 04b0 9A61     		str	r2, [r3, #24]
 989              	.L52:
 990              		.loc 2 376 0
 991 04b2 019B     		ldr	r3, [sp, #4]
 992 04b4 1A68     		ldr	r2, [r3]
 993 04b6 019B     		ldr	r3, [sp, #4]
 994 04b8 9A42     		cmp	r2, r3
 995 04ba 0AD0     		beq	.L53
 996              		.loc 2 377 0
 997 04bc 019B     		ldr	r3, [sp, #4]
 998 04be 1846     		mov	r0, r3
 999 04c0 FFF7B2FD 		bl	fifo_remove
 1000 04c4 0346     		mov	r3, r0
 1001 04c6 1846     		mov	r0, r3
 1002 04c8 FFF7FEFF 		bl	chSchReadyI
 1003 04cc 0246     		mov	r2, r0
 1004 04ce 0023     		movs	r3, #0
 1005 04d0 9362     		str	r3, [r2, #40]
 1006              	.L53:
 1007              		.loc 2 379 0
 1008 04d2 9DF80F30 		ldrb	r3, [sp, #15]	@ zero_extendqisi2
 1009              	.L51:
 1010              		.loc 2 380 0
 1011 04d6 1846     		mov	r0, r3
 1012 04d8 05B0     		add	sp, sp, #20
 1013              		.cfi_def_cfa_offset 4
 1014              		@ sp needed
 1015 04da 5DF804FB 		ldr	pc, [sp], #4
 1016              		.cfi_endproc
 1017              	.LFE16:
 1018              		.size	chOQGetI, .-chOQGetI
 1019              		.section	.rodata
 1020              		.align	2
 1021              	.LC1:
 1022 0014 2263684F 		.ascii	"\"chOQWriteTimeout\"()\000"
ARM GAS  /tmp/ccjcRCPv.s 			page 19


 1022      51577269 
 1022      74655469 
 1022      6D656F75 
 1022      74222829 
 1023 0029 000000   		.text
 1024 04de 00BF     		.align	2
 1025              		.global	chOQWriteTimeout
 1026              		.thumb
 1027              		.thumb_func
 1028              		.type	chOQWriteTimeout, %function
 1029              	chOQWriteTimeout:
 1030              	.LFB17:
 1031              		.loc 2 407 0
 1032              		.cfi_startproc
 1033              		@ args = 0, pretend = 0, frame = 24
 1034              		@ frame_needed = 0, uses_anonymous_args = 0
 1035 04e0 00B5     		push	{lr}
 1036              		.cfi_def_cfa_offset 4
 1037              		.cfi_offset 14, -4
 1038 04e2 87B0     		sub	sp, sp, #28
 1039              		.cfi_def_cfa_offset 32
 1040 04e4 0390     		str	r0, [sp, #12]
 1041 04e6 0291     		str	r1, [sp, #8]
 1042 04e8 0192     		str	r2, [sp, #4]
 1043 04ea 0093     		str	r3, [sp]
 1044              		.loc 2 408 0
 1045 04ec 039B     		ldr	r3, [sp, #12]
 1046 04ee DB69     		ldr	r3, [r3, #28]
 1047 04f0 0493     		str	r3, [sp, #16]
 1048              		.loc 2 409 0
 1049 04f2 0023     		movs	r3, #0
 1050 04f4 0593     		str	r3, [sp, #20]
 1051              		.loc 2 411 0
 1052 04f6 019B     		ldr	r3, [sp, #4]
 1053 04f8 002B     		cmp	r3, #0
 1054 04fa 02D1     		bne	.L55
 1055              		.loc 2 411 0 is_stmt 0 discriminator 1
 1056 04fc 2948     		ldr	r0, .L63
 1057 04fe FFF7FEFF 		bl	chDbgPanic
 1058              	.L55:
 1059              	.LBB14:
 1060              		.loc 2 413 0 is_stmt 1
 1061 0502 2023     		movs	r3, #32
 1062              	@ 413 "/opt/R2P/core/ChibiOS_2.6.5/os/kernel/src/chqueues.c" 1
 1063 0504 83F31188 		msr     BASEPRI, r3
 1064              	@ 0 "" 2
 1065              		.thumb
 1066              	.LBE14:
 1067 0508 FFF7FEFF 		bl	dbg_check_lock
 1068              	.L62:
 1069              		.loc 2 415 0
 1070 050c 0DE0     		b	.L56
 1071              	.L58:
 1072              		.loc 2 416 0
 1073 050e 0398     		ldr	r0, [sp, #12]
 1074 0510 0099     		ldr	r1, [sp]
 1075 0512 FFF79BFD 		bl	qwait
ARM GAS  /tmp/ccjcRCPv.s 			page 20


 1076 0516 0346     		mov	r3, r0
 1077 0518 002B     		cmp	r3, #0
 1078 051a 06D0     		beq	.L56
 1079              		.loc 2 417 0
 1080 051c FFF7FEFF 		bl	dbg_check_unlock
 1081              	.LBB15:
 1082 0520 0023     		movs	r3, #0
 1083              	@ 417 "/opt/R2P/core/ChibiOS_2.6.5/os/kernel/src/chqueues.c" 1
 1084 0522 83F31188 		msr     BASEPRI, r3
 1085              	@ 0 "" 2
 1086              		.thumb
 1087              	.LBE15:
 1088              		.loc 2 418 0
 1089 0526 059B     		ldr	r3, [sp, #20]
 1090 0528 38E0     		b	.L57
 1091              	.L56:
 1092              		.loc 2 415 0
 1093 052a 039B     		ldr	r3, [sp, #12]
 1094 052c 9B68     		ldr	r3, [r3, #8]
 1095 052e 002B     		cmp	r3, #0
 1096 0530 EDD0     		beq	.L58
 1097              		.loc 2 421 0
 1098 0532 039B     		ldr	r3, [sp, #12]
 1099 0534 9B68     		ldr	r3, [r3, #8]
 1100 0536 5A1E     		subs	r2, r3, #1
 1101 0538 039B     		ldr	r3, [sp, #12]
 1102 053a 9A60     		str	r2, [r3, #8]
 1103              		.loc 2 422 0
 1104 053c 039B     		ldr	r3, [sp, #12]
 1105 053e 5B69     		ldr	r3, [r3, #20]
 1106 0540 591C     		adds	r1, r3, #1
 1107 0542 039A     		ldr	r2, [sp, #12]
 1108 0544 5161     		str	r1, [r2, #20]
 1109 0546 029A     		ldr	r2, [sp, #8]
 1110 0548 511C     		adds	r1, r2, #1
 1111 054a 0291     		str	r1, [sp, #8]
 1112 054c 1278     		ldrb	r2, [r2]	@ zero_extendqisi2
 1113 054e 1A70     		strb	r2, [r3]
 1114              		.loc 2 423 0
 1115 0550 039B     		ldr	r3, [sp, #12]
 1116 0552 5A69     		ldr	r2, [r3, #20]
 1117 0554 039B     		ldr	r3, [sp, #12]
 1118 0556 1B69     		ldr	r3, [r3, #16]
 1119 0558 9A42     		cmp	r2, r3
 1120 055a 03D3     		bcc	.L59
 1121              		.loc 2 424 0
 1122 055c 039B     		ldr	r3, [sp, #12]
 1123 055e DA68     		ldr	r2, [r3, #12]
 1124 0560 039B     		ldr	r3, [sp, #12]
 1125 0562 5A61     		str	r2, [r3, #20]
 1126              	.L59:
 1127              		.loc 2 426 0
 1128 0564 049B     		ldr	r3, [sp, #16]
 1129 0566 002B     		cmp	r3, #0
 1130 0568 02D0     		beq	.L60
 1131              		.loc 2 427 0
 1132 056a 049B     		ldr	r3, [sp, #16]
ARM GAS  /tmp/ccjcRCPv.s 			page 21


 1133 056c 0398     		ldr	r0, [sp, #12]
 1134 056e 9847     		blx	r3
 1135              	.L60:
 1136              		.loc 2 429 0
 1137 0570 FFF7FEFF 		bl	dbg_check_unlock
 1138              	.LBB16:
 1139 0574 0023     		movs	r3, #0
 1140              	@ 429 "/opt/R2P/core/ChibiOS_2.6.5/os/kernel/src/chqueues.c" 1
 1141 0576 83F31188 		msr     BASEPRI, r3
 1142              	@ 0 "" 2
 1143              		.thumb
 1144              	.LBE16:
 1145              		.loc 2 430 0
 1146 057a 059B     		ldr	r3, [sp, #20]
 1147 057c 0133     		adds	r3, r3, #1
 1148 057e 0593     		str	r3, [sp, #20]
 1149              		.loc 2 431 0
 1150 0580 019B     		ldr	r3, [sp, #4]
 1151 0582 013B     		subs	r3, r3, #1
 1152 0584 0193     		str	r3, [sp, #4]
 1153 0586 019B     		ldr	r3, [sp, #4]
 1154 0588 002B     		cmp	r3, #0
 1155 058a 01D1     		bne	.L61
 1156              		.loc 2 432 0
 1157 058c 059B     		ldr	r3, [sp, #20]
 1158 058e 05E0     		b	.L57
 1159              	.L61:
 1160              	.LBB17:
 1161              		.loc 2 433 0
 1162 0590 2023     		movs	r3, #32
 1163              	@ 433 "/opt/R2P/core/ChibiOS_2.6.5/os/kernel/src/chqueues.c" 1
 1164 0592 83F31188 		msr     BASEPRI, r3
 1165              	@ 0 "" 2
 1166              		.thumb
 1167              	.LBE17:
 1168 0596 FFF7FEFF 		bl	dbg_check_lock
 1169              		.loc 2 434 0
 1170 059a B7E7     		b	.L62
 1171              	.L57:
 1172              		.loc 2 435 0
 1173 059c 1846     		mov	r0, r3
 1174 059e 07B0     		add	sp, sp, #28
 1175              		.cfi_def_cfa_offset 4
 1176              		@ sp needed
 1177 05a0 5DF804FB 		ldr	pc, [sp], #4
 1178              	.L64:
 1179              		.align	2
 1180              	.L63:
 1181 05a4 14000000 		.word	.LC1
 1182              		.cfi_endproc
 1183              	.LFE17:
 1184              		.size	chOQWriteTimeout, .-chOQWriteTimeout
 1185              	.Letext0:
 1186              		.file 3 "/opt/R2P/tools/gcc-arm-none-eabi-4_9-2014q4/lib/gcc/arm-none-eabi/4.9.3/include/stddef.h"
 1187              		.file 4 "/opt/R2P/tools/gcc-arm-none-eabi-4_9-2014q4/arm-none-eabi/include/machine/_default_types.
 1188              		.file 5 "/opt/R2P/tools/gcc-arm-none-eabi-4_9-2014q4/arm-none-eabi/include/stdint.h"
 1189              		.file 6 "/opt/R2P/core/ChibiOS_2.6.5/os/ports/GCC/ARMCMx/chtypes.h"
ARM GAS  /tmp/ccjcRCPv.s 			page 22


 1190              		.file 7 "/opt/R2P/core/ChibiOS_2.6.5/os/kernel/include/chlists.h"
 1191              		.file 8 "/opt/R2P/core/ChibiOS_2.6.5/os/kernel/include/chthreads.h"
 1192              		.file 9 "/opt/R2P/core/ChibiOS_2.6.5/os/ports/GCC/ARMCMx/chcore_v7m.h"
 1193              		.file 10 "/opt/R2P/core/ChibiOS_2.6.5/os/kernel/include/chschd.h"
 1194              		.file 11 "/opt/R2P/core/ChibiOS_2.6.5/os/kernel/include/chmtx.h"
 1195              		.file 12 "/opt/R2P/core/ChibiOS_2.6.5/os/kernel/include/chqueues.h"
 1196              		.section	.debug_info,"",%progbits
 1197              	.Ldebug_info0:
 1198 0000 1F0A0000 		.4byte	0xa1f
 1199 0004 0400     		.2byte	0x4
 1200 0006 00000000 		.4byte	.Ldebug_abbrev0
 1201 000a 04       		.byte	0x4
 1202 000b 01       		.uleb128 0x1
 1203 000c E7020000 		.4byte	.LASF99
 1204 0010 01       		.byte	0x1
 1205 0011 13040000 		.4byte	.LASF100
 1206 0015 00000000 		.4byte	.Ltext0
 1207 0019 A8050000 		.4byte	.Letext0-.Ltext0
 1208 001d 00000000 		.4byte	.Ldebug_line0
 1209 0021 02       		.uleb128 0x2
 1210 0022 04       		.byte	0x4
 1211 0023 05       		.byte	0x5
 1212 0024 696E7400 		.ascii	"int\000"
 1213 0028 03       		.uleb128 0x3
 1214 0029 21000000 		.4byte	.LASF2
 1215 002d 03       		.byte	0x3
 1216 002e D4       		.byte	0xd4
 1217 002f 33000000 		.4byte	0x33
 1218 0033 04       		.uleb128 0x4
 1219 0034 04       		.byte	0x4
 1220 0035 07       		.byte	0x7
 1221 0036 3F010000 		.4byte	.LASF0
 1222 003a 04       		.uleb128 0x4
 1223 003b 01       		.byte	0x1
 1224 003c 06       		.byte	0x6
 1225 003d A6000000 		.4byte	.LASF1
 1226 0041 03       		.uleb128 0x3
 1227 0042 4D000000 		.4byte	.LASF3
 1228 0046 04       		.byte	0x4
 1229 0047 1D       		.byte	0x1d
 1230 0048 4C000000 		.4byte	0x4c
 1231 004c 04       		.uleb128 0x4
 1232 004d 01       		.byte	0x1
 1233 004e 08       		.byte	0x8
 1234 004f 78020000 		.4byte	.LASF4
 1235 0053 04       		.uleb128 0x4
 1236 0054 02       		.byte	0x2
 1237 0055 05       		.byte	0x5
 1238 0056 90020000 		.4byte	.LASF5
 1239 005a 04       		.uleb128 0x4
 1240 005b 02       		.byte	0x2
 1241 005c 07       		.byte	0x7
 1242 005d 76010000 		.4byte	.LASF6
 1243 0061 03       		.uleb128 0x3
 1244 0062 A9030000 		.4byte	.LASF7
 1245 0066 04       		.byte	0x4
 1246 0067 3F       		.byte	0x3f
ARM GAS  /tmp/ccjcRCPv.s 			page 23


 1247 0068 6C000000 		.4byte	0x6c
 1248 006c 04       		.uleb128 0x4
 1249 006d 04       		.byte	0x4
 1250 006e 05       		.byte	0x5
 1251 006f CF000000 		.4byte	.LASF8
 1252 0073 03       		.uleb128 0x3
 1253 0074 03010000 		.4byte	.LASF9
 1254 0078 04       		.byte	0x4
 1255 0079 41       		.byte	0x41
 1256 007a 7E000000 		.4byte	0x7e
 1257 007e 04       		.uleb128 0x4
 1258 007f 04       		.byte	0x4
 1259 0080 07       		.byte	0x7
 1260 0081 57010000 		.4byte	.LASF10
 1261 0085 04       		.uleb128 0x4
 1262 0086 08       		.byte	0x8
 1263 0087 05       		.byte	0x5
 1264 0088 98000000 		.4byte	.LASF11
 1265 008c 03       		.uleb128 0x3
 1266 008d 36020000 		.4byte	.LASF12
 1267 0091 04       		.byte	0x4
 1268 0092 5B       		.byte	0x5b
 1269 0093 97000000 		.4byte	0x97
 1270 0097 04       		.uleb128 0x4
 1271 0098 08       		.byte	0x8
 1272 0099 07       		.byte	0x7
 1273 009a 67000000 		.4byte	.LASF13
 1274 009e 03       		.uleb128 0x3
 1275 009f FD030000 		.4byte	.LASF14
 1276 00a3 05       		.byte	0x5
 1277 00a4 15       		.byte	0x15
 1278 00a5 41000000 		.4byte	0x41
 1279 00a9 03       		.uleb128 0x3
 1280 00aa 70020000 		.4byte	.LASF15
 1281 00ae 05       		.byte	0x5
 1282 00af 2C       		.byte	0x2c
 1283 00b0 61000000 		.4byte	0x61
 1284 00b4 03       		.uleb128 0x3
 1285 00b5 D6020000 		.4byte	.LASF16
 1286 00b9 05       		.byte	0x5
 1287 00ba 2D       		.byte	0x2d
 1288 00bb 73000000 		.4byte	0x73
 1289 00bf 03       		.uleb128 0x3
 1290 00c0 38000000 		.4byte	.LASF17
 1291 00c4 05       		.byte	0x5
 1292 00c5 39       		.byte	0x39
 1293 00c6 8C000000 		.4byte	0x8c
 1294 00ca 03       		.uleb128 0x3
 1295 00cb BA000000 		.4byte	.LASF18
 1296 00cf 06       		.byte	0x6
 1297 00d0 2B       		.byte	0x2b
 1298 00d1 D5000000 		.4byte	0xd5
 1299 00d5 04       		.uleb128 0x4
 1300 00d6 01       		.byte	0x1
 1301 00d7 02       		.byte	0x2
 1302 00d8 6A020000 		.4byte	.LASF19
 1303 00dc 03       		.uleb128 0x3
ARM GAS  /tmp/ccjcRCPv.s 			page 24


 1304 00dd 97010000 		.4byte	.LASF20
 1305 00e1 06       		.byte	0x6
 1306 00e2 2C       		.byte	0x2c
 1307 00e3 9E000000 		.4byte	0x9e
 1308 00e7 03       		.uleb128 0x3
 1309 00e8 D8000000 		.4byte	.LASF21
 1310 00ec 06       		.byte	0x6
 1311 00ed 2D       		.byte	0x2d
 1312 00ee 9E000000 		.4byte	0x9e
 1313 00f2 03       		.uleb128 0x3
 1314 00f3 41020000 		.4byte	.LASF22
 1315 00f7 06       		.byte	0x6
 1316 00f8 2E       		.byte	0x2e
 1317 00f9 9E000000 		.4byte	0x9e
 1318 00fd 03       		.uleb128 0x3
 1319 00fe 5A020000 		.4byte	.LASF23
 1320 0102 06       		.byte	0x6
 1321 0103 30       		.byte	0x30
 1322 0104 B4000000 		.4byte	0xb4
 1323 0108 03       		.uleb128 0x3
 1324 0109 89010000 		.4byte	.LASF24
 1325 010d 06       		.byte	0x6
 1326 010e 31       		.byte	0x31
 1327 010f A9000000 		.4byte	0xa9
 1328 0113 03       		.uleb128 0x3
 1329 0114 AB010000 		.4byte	.LASF25
 1330 0118 06       		.byte	0x6
 1331 0119 33       		.byte	0x33
 1332 011a B4000000 		.4byte	0xb4
 1333 011e 03       		.uleb128 0x3
 1334 011f 94030000 		.4byte	.LASF26
 1335 0123 06       		.byte	0x6
 1336 0124 35       		.byte	0x35
 1337 0125 B4000000 		.4byte	0xb4
 1338 0129 03       		.uleb128 0x3
 1339 012a C4020000 		.4byte	.LASF27
 1340 012e 07       		.byte	0x7
 1341 012f 2A       		.byte	0x2a
 1342 0130 34010000 		.4byte	0x134
 1343 0134 05       		.uleb128 0x5
 1344 0135 C4020000 		.4byte	.LASF27
 1345 0139 4C       		.byte	0x4c
 1346 013a 08       		.byte	0x8
 1347 013b 5E       		.byte	0x5e
 1348 013c 31020000 		.4byte	0x231
 1349 0140 06       		.uleb128 0x6
 1350 0141 B0020000 		.4byte	.LASF28
 1351 0145 08       		.byte	0x8
 1352 0146 5F       		.byte	0x5f
 1353 0147 52020000 		.4byte	0x252
 1354 014b 00       		.byte	0
 1355 014c 06       		.uleb128 0x6
 1356 014d 53020000 		.4byte	.LASF29
 1357 0151 08       		.byte	0x8
 1358 0152 61       		.byte	0x61
 1359 0153 52020000 		.4byte	0x252
 1360 0157 04       		.byte	0x4
ARM GAS  /tmp/ccjcRCPv.s 			page 25


 1361 0158 06       		.uleb128 0x6
 1362 0159 87000000 		.4byte	.LASF30
 1363 015d 08       		.byte	0x8
 1364 015e 63       		.byte	0x63
 1365 015f FD000000 		.4byte	0xfd
 1366 0163 08       		.byte	0x8
 1367 0164 06       		.uleb128 0x6
 1368 0165 57040000 		.4byte	.LASF31
 1369 0169 08       		.byte	0x8
 1370 016a 64       		.byte	0x64
 1371 016b 17030000 		.4byte	0x317
 1372 016f 0C       		.byte	0xc
 1373 0170 06       		.uleb128 0x6
 1374 0171 FB000000 		.4byte	.LASF32
 1375 0175 08       		.byte	0x8
 1376 0176 66       		.byte	0x66
 1377 0177 52020000 		.4byte	0x252
 1378 017b 10       		.byte	0x10
 1379 017c 06       		.uleb128 0x6
 1380 017d 04020000 		.4byte	.LASF33
 1381 0181 08       		.byte	0x8
 1382 0182 67       		.byte	0x67
 1383 0183 52020000 		.4byte	0x252
 1384 0187 14       		.byte	0x14
 1385 0188 06       		.uleb128 0x6
 1386 0189 0C040000 		.4byte	.LASF34
 1387 018d 08       		.byte	0x8
 1388 018e 6E       		.byte	0x6e
 1389 018f 17040000 		.4byte	0x417
 1390 0193 18       		.byte	0x18
 1391 0194 06       		.uleb128 0x6
 1392 0195 34010000 		.4byte	.LASF35
 1393 0199 08       		.byte	0x8
 1394 019a 74       		.byte	0x74
 1395 019b 29040000 		.4byte	0x429
 1396 019f 1C       		.byte	0x1c
 1397 01a0 06       		.uleb128 0x6
 1398 01a1 9A020000 		.4byte	.LASF36
 1399 01a5 08       		.byte	0x8
 1400 01a6 79       		.byte	0x79
 1401 01a7 E7000000 		.4byte	0xe7
 1402 01ab 20       		.byte	0x20
 1403 01ac 06       		.uleb128 0x6
 1404 01ad BC020000 		.4byte	.LASF37
 1405 01b1 08       		.byte	0x8
 1406 01b2 7D       		.byte	0x7d
 1407 01b3 DC000000 		.4byte	0xdc
 1408 01b7 21       		.byte	0x21
 1409 01b8 06       		.uleb128 0x6
 1410 01b9 DD030000 		.4byte	.LASF38
 1411 01bd 08       		.byte	0x8
 1412 01be 82       		.byte	0x82
 1413 01bf F2000000 		.4byte	0xf2
 1414 01c3 22       		.byte	0x22
 1415 01c4 06       		.uleb128 0x6
 1416 01c5 BE030000 		.4byte	.LASF39
 1417 01c9 08       		.byte	0x8
ARM GAS  /tmp/ccjcRCPv.s 			page 26


 1418 01ca 8F       		.byte	0x8f
 1419 01cb 3F030000 		.4byte	0x33f
 1420 01cf 24       		.byte	0x24
 1421 01d0 07       		.uleb128 0x7
 1422 01d1 705F7500 		.ascii	"p_u\000"
 1423 01d5 08       		.byte	0x8
 1424 01d6 B4       		.byte	0xb4
 1425 01d7 E2030000 		.4byte	0x3e2
 1426 01db 28       		.byte	0x28
 1427 01dc 06       		.uleb128 0x6
 1428 01dd 5D040000 		.4byte	.LASF40
 1429 01e1 08       		.byte	0x8
 1430 01e2 B9       		.byte	0xb9
 1431 01e3 78020000 		.4byte	0x278
 1432 01e7 2C       		.byte	0x2c
 1433 01e8 06       		.uleb128 0x6
 1434 01e9 CC030000 		.4byte	.LASF41
 1435 01ed 08       		.byte	0x8
 1436 01ee BF       		.byte	0xbf
 1437 01ef 58020000 		.4byte	0x258
 1438 01f3 30       		.byte	0x30
 1439 01f4 06       		.uleb128 0x6
 1440 01f5 09000000 		.4byte	.LASF42
 1441 01f9 08       		.byte	0x8
 1442 01fa C3       		.byte	0xc3
 1443 01fb 08010000 		.4byte	0x108
 1444 01ff 38       		.byte	0x38
 1445 0200 06       		.uleb128 0x6
 1446 0201 CB020000 		.4byte	.LASF43
 1447 0205 08       		.byte	0x8
 1448 0206 C9       		.byte	0xc9
 1449 0207 13010000 		.4byte	0x113
 1450 020b 3C       		.byte	0x3c
 1451 020c 06       		.uleb128 0x6
 1452 020d 86020000 		.4byte	.LASF44
 1453 0211 08       		.byte	0x8
 1454 0212 D0       		.byte	0xd0
 1455 0213 2F040000 		.4byte	0x42f
 1456 0217 40       		.byte	0x40
 1457 0218 06       		.uleb128 0x6
 1458 0219 9E030000 		.4byte	.LASF45
 1459 021d 08       		.byte	0x8
 1460 021e D4       		.byte	0xd4
 1461 021f FD000000 		.4byte	0xfd
 1462 0223 44       		.byte	0x44
 1463 0224 06       		.uleb128 0x6
 1464 0225 B2000000 		.4byte	.LASF46
 1465 0229 08       		.byte	0x8
 1466 022a DA       		.byte	0xda
 1467 022b 8E020000 		.4byte	0x28e
 1468 022f 48       		.byte	0x48
 1469 0230 00       		.byte	0
 1470 0231 08       		.uleb128 0x8
 1471 0232 08       		.byte	0x8
 1472 0233 07       		.byte	0x7
 1473 0234 61       		.byte	0x61
 1474 0235 52020000 		.4byte	0x252
ARM GAS  /tmp/ccjcRCPv.s 			page 27


 1475 0239 06       		.uleb128 0x6
 1476 023a B0020000 		.4byte	.LASF28
 1477 023e 07       		.byte	0x7
 1478 023f 62       		.byte	0x62
 1479 0240 52020000 		.4byte	0x252
 1480 0244 00       		.byte	0
 1481 0245 06       		.uleb128 0x6
 1482 0246 53020000 		.4byte	.LASF29
 1483 024a 07       		.byte	0x7
 1484 024b 64       		.byte	0x64
 1485 024c 52020000 		.4byte	0x252
 1486 0250 04       		.byte	0x4
 1487 0251 00       		.byte	0
 1488 0252 09       		.uleb128 0x9
 1489 0253 04       		.byte	0x4
 1490 0254 29010000 		.4byte	0x129
 1491 0258 03       		.uleb128 0x3
 1492 0259 12020000 		.4byte	.LASF47
 1493 025d 07       		.byte	0x7
 1494 025e 66       		.byte	0x66
 1495 025f 31020000 		.4byte	0x231
 1496 0263 08       		.uleb128 0x8
 1497 0264 04       		.byte	0x4
 1498 0265 07       		.byte	0x7
 1499 0266 6B       		.byte	0x6b
 1500 0267 78020000 		.4byte	0x278
 1501 026b 06       		.uleb128 0x6
 1502 026c B0020000 		.4byte	.LASF28
 1503 0270 07       		.byte	0x7
 1504 0271 6D       		.byte	0x6d
 1505 0272 52020000 		.4byte	0x252
 1506 0276 00       		.byte	0
 1507 0277 00       		.byte	0
 1508 0278 03       		.uleb128 0x3
 1509 0279 9F010000 		.4byte	.LASF48
 1510 027d 07       		.byte	0x7
 1511 027e 70       		.byte	0x70
 1512 027f 63020000 		.4byte	0x263
 1513 0283 03       		.uleb128 0x3
 1514 0284 0E010000 		.4byte	.LASF49
 1515 0288 09       		.byte	0x9
 1516 0289 E5       		.byte	0xe5
 1517 028a 8E020000 		.4byte	0x28e
 1518 028e 0A       		.uleb128 0xa
 1519 028f 04       		.byte	0x4
 1520 0290 03       		.uleb128 0x3
 1521 0291 D5010000 		.4byte	.LASF50
 1522 0295 09       		.byte	0x9
 1523 0296 EB       		.byte	0xeb
 1524 0297 BF000000 		.4byte	0xbf
 1525 029b 0B       		.uleb128 0xb
 1526 029c C5030000 		.4byte	.LASF51
 1527 02a0 24       		.byte	0x24
 1528 02a1 09       		.byte	0x9
 1529 02a2 0C01     		.2byte	0x10c
 1530 02a4 17030000 		.4byte	0x317
 1531 02a8 0C       		.uleb128 0xc
ARM GAS  /tmp/ccjcRCPv.s 			page 28


 1532 02a9 723400   		.ascii	"r4\000"
 1533 02ac 09       		.byte	0x9
 1534 02ad 1F01     		.2byte	0x11f
 1535 02af 83020000 		.4byte	0x283
 1536 02b3 00       		.byte	0
 1537 02b4 0C       		.uleb128 0xc
 1538 02b5 723500   		.ascii	"r5\000"
 1539 02b8 09       		.byte	0x9
 1540 02b9 2001     		.2byte	0x120
 1541 02bb 83020000 		.4byte	0x283
 1542 02bf 04       		.byte	0x4
 1543 02c0 0C       		.uleb128 0xc
 1544 02c1 723600   		.ascii	"r6\000"
 1545 02c4 09       		.byte	0x9
 1546 02c5 2101     		.2byte	0x121
 1547 02c7 83020000 		.4byte	0x283
 1548 02cb 08       		.byte	0x8
 1549 02cc 0C       		.uleb128 0xc
 1550 02cd 723700   		.ascii	"r7\000"
 1551 02d0 09       		.byte	0x9
 1552 02d1 2201     		.2byte	0x122
 1553 02d3 83020000 		.4byte	0x283
 1554 02d7 0C       		.byte	0xc
 1555 02d8 0C       		.uleb128 0xc
 1556 02d9 723800   		.ascii	"r8\000"
 1557 02dc 09       		.byte	0x9
 1558 02dd 2301     		.2byte	0x123
 1559 02df 83020000 		.4byte	0x283
 1560 02e3 10       		.byte	0x10
 1561 02e4 0C       		.uleb128 0xc
 1562 02e5 723900   		.ascii	"r9\000"
 1563 02e8 09       		.byte	0x9
 1564 02e9 2401     		.2byte	0x124
 1565 02eb 83020000 		.4byte	0x283
 1566 02ef 14       		.byte	0x14
 1567 02f0 0C       		.uleb128 0xc
 1568 02f1 72313000 		.ascii	"r10\000"
 1569 02f5 09       		.byte	0x9
 1570 02f6 2501     		.2byte	0x125
 1571 02f8 83020000 		.4byte	0x283
 1572 02fc 18       		.byte	0x18
 1573 02fd 0C       		.uleb128 0xc
 1574 02fe 72313100 		.ascii	"r11\000"
 1575 0302 09       		.byte	0x9
 1576 0303 2601     		.2byte	0x126
 1577 0305 83020000 		.4byte	0x283
 1578 0309 1C       		.byte	0x1c
 1579 030a 0C       		.uleb128 0xc
 1580 030b 6C7200   		.ascii	"lr\000"
 1581 030e 09       		.byte	0x9
 1582 030f 2701     		.2byte	0x127
 1583 0311 83020000 		.4byte	0x283
 1584 0315 20       		.byte	0x20
 1585 0316 00       		.byte	0
 1586 0317 0B       		.uleb128 0xb
 1587 0318 69010000 		.4byte	.LASF52
 1588 031c 04       		.byte	0x4
ARM GAS  /tmp/ccjcRCPv.s 			page 29


 1589 031d 09       		.byte	0x9
 1590 031e 3101     		.2byte	0x131
 1591 0320 32030000 		.4byte	0x332
 1592 0324 0C       		.uleb128 0xc
 1593 0325 72313300 		.ascii	"r13\000"
 1594 0329 09       		.byte	0x9
 1595 032a 3201     		.2byte	0x132
 1596 032c 32030000 		.4byte	0x332
 1597 0330 00       		.byte	0
 1598 0331 00       		.byte	0
 1599 0332 09       		.uleb128 0x9
 1600 0333 04       		.byte	0x4
 1601 0334 9B020000 		.4byte	0x29b
 1602 0338 04       		.uleb128 0x4
 1603 0339 04       		.byte	0x4
 1604 033a 07       		.byte	0x7
 1605 033b F1010000 		.4byte	.LASF53
 1606 033f 0D       		.uleb128 0xd
 1607 0340 1E010000 		.4byte	0x11e
 1608 0344 08       		.uleb128 0x8
 1609 0345 1C       		.byte	0x1c
 1610 0346 0A       		.byte	0xa
 1611 0347 5E       		.byte	0x5e
 1612 0348 95030000 		.4byte	0x395
 1613 034c 06       		.uleb128 0x6
 1614 034d DF020000 		.4byte	.LASF54
 1615 0351 0A       		.byte	0xa
 1616 0352 5F       		.byte	0x5f
 1617 0353 58020000 		.4byte	0x258
 1618 0357 00       		.byte	0
 1619 0358 06       		.uleb128 0x6
 1620 0359 A2020000 		.4byte	.LASF55
 1621 035d 0A       		.byte	0xa
 1622 035e 60       		.byte	0x60
 1623 035f FD000000 		.4byte	0xfd
 1624 0363 08       		.byte	0x8
 1625 0364 06       		.uleb128 0x6
 1626 0365 0C020000 		.4byte	.LASF56
 1627 0369 0A       		.byte	0xa
 1628 036a 62       		.byte	0x62
 1629 036b 17030000 		.4byte	0x317
 1630 036f 0C       		.byte	0xc
 1631 0370 06       		.uleb128 0x6
 1632 0371 8F010000 		.4byte	.LASF57
 1633 0375 0A       		.byte	0xa
 1634 0376 65       		.byte	0x65
 1635 0377 52020000 		.4byte	0x252
 1636 037b 10       		.byte	0x10
 1637 037c 06       		.uleb128 0x6
 1638 037d 2E020000 		.4byte	.LASF58
 1639 0381 0A       		.byte	0xa
 1640 0382 66       		.byte	0x66
 1641 0383 52020000 		.4byte	0x252
 1642 0387 14       		.byte	0x14
 1643 0388 06       		.uleb128 0x6
 1644 0389 24020000 		.4byte	.LASF59
 1645 038d 0A       		.byte	0xa
ARM GAS  /tmp/ccjcRCPv.s 			page 30


 1646 038e 69       		.byte	0x69
 1647 038f 52020000 		.4byte	0x252
 1648 0393 18       		.byte	0x18
 1649 0394 00       		.byte	0
 1650 0395 03       		.uleb128 0x3
 1651 0396 E4030000 		.4byte	.LASF60
 1652 039a 0A       		.byte	0xa
 1653 039b 6B       		.byte	0x6b
 1654 039c 44030000 		.4byte	0x344
 1655 03a0 05       		.uleb128 0x5
 1656 03a1 C2010000 		.4byte	.LASF61
 1657 03a5 10       		.byte	0x10
 1658 03a6 0B       		.byte	0xb
 1659 03a7 2C       		.byte	0x2c
 1660 03a8 D1030000 		.4byte	0x3d1
 1661 03ac 06       		.uleb128 0x6
 1662 03ad C1000000 		.4byte	.LASF62
 1663 03b1 0B       		.byte	0xb
 1664 03b2 2D       		.byte	0x2d
 1665 03b3 58020000 		.4byte	0x258
 1666 03b7 00       		.byte	0
 1667 03b8 06       		.uleb128 0x6
 1668 03b9 4F040000 		.4byte	.LASF63
 1669 03bd 0B       		.byte	0xb
 1670 03be 2F       		.byte	0x2f
 1671 03bf 52020000 		.4byte	0x252
 1672 03c3 08       		.byte	0x8
 1673 03c4 06       		.uleb128 0x6
 1674 03c5 8D030000 		.4byte	.LASF64
 1675 03c9 0B       		.byte	0xb
 1676 03ca 31       		.byte	0x31
 1677 03cb D1030000 		.4byte	0x3d1
 1678 03cf 0C       		.byte	0xc
 1679 03d0 00       		.byte	0
 1680 03d1 09       		.uleb128 0x9
 1681 03d2 04       		.byte	0x4
 1682 03d3 A0030000 		.4byte	0x3a0
 1683 03d7 03       		.uleb128 0x3
 1684 03d8 C2010000 		.4byte	.LASF61
 1685 03dc 0B       		.byte	0xb
 1686 03dd 33       		.byte	0x33
 1687 03de A0030000 		.4byte	0x3a0
 1688 03e2 0E       		.uleb128 0xe
 1689 03e3 04       		.byte	0x4
 1690 03e4 08       		.byte	0x8
 1691 03e5 96       		.byte	0x96
 1692 03e6 17040000 		.4byte	0x417
 1693 03ea 0F       		.uleb128 0xf
 1694 03eb 28000000 		.4byte	.LASF65
 1695 03ef 08       		.byte	0x8
 1696 03f0 9D       		.byte	0x9d
 1697 03f1 08010000 		.4byte	0x108
 1698 03f5 0F       		.uleb128 0xf
 1699 03f6 7E000000 		.4byte	.LASF66
 1700 03fa 08       		.byte	0x8
 1701 03fb A4       		.byte	0xa4
 1702 03fc 08010000 		.4byte	0x108
ARM GAS  /tmp/ccjcRCPv.s 			page 31


 1703 0400 0F       		.uleb128 0xf
 1704 0401 05040000 		.4byte	.LASF67
 1705 0405 08       		.byte	0x8
 1706 0406 AB       		.byte	0xab
 1707 0407 8E020000 		.4byte	0x28e
 1708 040b 0F       		.uleb128 0xf
 1709 040c A9020000 		.4byte	.LASF68
 1710 0410 08       		.byte	0x8
 1711 0411 B2       		.byte	0xb2
 1712 0412 13010000 		.4byte	0x113
 1713 0416 00       		.byte	0
 1714 0417 09       		.uleb128 0x9
 1715 0418 04       		.byte	0x4
 1716 0419 1D040000 		.4byte	0x41d
 1717 041d 10       		.uleb128 0x10
 1718 041e 22040000 		.4byte	0x422
 1719 0422 04       		.uleb128 0x4
 1720 0423 01       		.byte	0x1
 1721 0424 08       		.byte	0x8
 1722 0425 7C030000 		.4byte	.LASF69
 1723 0429 09       		.uleb128 0x9
 1724 042a 04       		.byte	0x4
 1725 042b 90020000 		.4byte	0x290
 1726 042f 09       		.uleb128 0x9
 1727 0430 04       		.byte	0x4
 1728 0431 D7030000 		.4byte	0x3d7
 1729 0435 03       		.uleb128 0x3
 1730 0436 C8010000 		.4byte	.LASF70
 1731 043a 0C       		.byte	0xc
 1732 043b 37       		.byte	0x37
 1733 043c 40040000 		.4byte	0x440
 1734 0440 05       		.uleb128 0x5
 1735 0441 C8010000 		.4byte	.LASF70
 1736 0445 24       		.byte	0x24
 1737 0446 0C       		.byte	0xc
 1738 0447 45       		.byte	0x45
 1739 0448 AD040000 		.4byte	0x4ad
 1740 044c 06       		.uleb128 0x6
 1741 044d 8E000000 		.4byte	.LASF71
 1742 0451 0C       		.byte	0xc
 1743 0452 46       		.byte	0x46
 1744 0453 58020000 		.4byte	0x258
 1745 0457 00       		.byte	0
 1746 0458 06       		.uleb128 0x6
 1747 0459 FA010000 		.4byte	.LASF72
 1748 045d 0C       		.byte	0xc
 1749 045e 47       		.byte	0x47
 1750 045f 28000000 		.4byte	0x28
 1751 0463 08       		.byte	0x8
 1752 0464 06       		.uleb128 0x6
 1753 0465 EA000000 		.4byte	.LASF73
 1754 0469 0C       		.byte	0xc
 1755 046a 48       		.byte	0x48
 1756 046b CF040000 		.4byte	0x4cf
 1757 046f 0C       		.byte	0xc
 1758 0470 06       		.uleb128 0x6
 1759 0471 D7030000 		.4byte	.LASF74
ARM GAS  /tmp/ccjcRCPv.s 			page 32


 1760 0475 0C       		.byte	0xc
 1761 0476 49       		.byte	0x49
 1762 0477 CF040000 		.4byte	0x4cf
 1763 047b 10       		.byte	0x10
 1764 047c 06       		.uleb128 0x6
 1765 047d F3000000 		.4byte	.LASF75
 1766 0481 0C       		.byte	0xc
 1767 0482 4B       		.byte	0x4b
 1768 0483 CF040000 		.4byte	0x4cf
 1769 0487 14       		.byte	0x14
 1770 0488 06       		.uleb128 0x6
 1771 0489 62020000 		.4byte	.LASF76
 1772 048d 0C       		.byte	0xc
 1773 048e 4C       		.byte	0x4c
 1774 048f CF040000 		.4byte	0x4cf
 1775 0493 18       		.byte	0x18
 1776 0494 06       		.uleb128 0x6
 1777 0495 EE030000 		.4byte	.LASF77
 1778 0499 0C       		.byte	0xc
 1779 049a 4D       		.byte	0x4d
 1780 049b AD040000 		.4byte	0x4ad
 1781 049f 1C       		.byte	0x1c
 1782 04a0 06       		.uleb128 0x6
 1783 04a1 48040000 		.4byte	.LASF78
 1784 04a5 0C       		.byte	0xc
 1785 04a6 4E       		.byte	0x4e
 1786 04a7 8E020000 		.4byte	0x28e
 1787 04ab 20       		.byte	0x20
 1788 04ac 00       		.byte	0
 1789 04ad 03       		.uleb128 0x3
 1790 04ae 49020000 		.4byte	.LASF79
 1791 04b2 0C       		.byte	0xc
 1792 04b3 3A       		.byte	0x3a
 1793 04b4 B8040000 		.4byte	0x4b8
 1794 04b8 09       		.uleb128 0x9
 1795 04b9 04       		.byte	0x4
 1796 04ba BE040000 		.4byte	0x4be
 1797 04be 11       		.uleb128 0x11
 1798 04bf C9040000 		.4byte	0x4c9
 1799 04c3 12       		.uleb128 0x12
 1800 04c4 C9040000 		.4byte	0x4c9
 1801 04c8 00       		.byte	0
 1802 04c9 09       		.uleb128 0x9
 1803 04ca 04       		.byte	0x4
 1804 04cb 35040000 		.4byte	0x435
 1805 04cf 09       		.uleb128 0x9
 1806 04d0 04       		.byte	0x4
 1807 04d1 9E000000 		.4byte	0x9e
 1808 04d5 03       		.uleb128 0x3
 1809 04d6 B7010000 		.4byte	.LASF80
 1810 04da 0C       		.byte	0xc
 1811 04db 82       		.byte	0x82
 1812 04dc 35040000 		.4byte	0x435
 1813 04e0 03       		.uleb128 0x3
 1814 04e1 41000000 		.4byte	.LASF81
 1815 04e5 0C       		.byte	0xc
 1816 04e6 F5       		.byte	0xf5
ARM GAS  /tmp/ccjcRCPv.s 			page 33


 1817 04e7 35040000 		.4byte	0x435
 1818 04eb 09       		.uleb128 0x9
 1819 04ec 04       		.byte	0x4
 1820 04ed F1040000 		.4byte	0x4f1
 1821 04f1 10       		.uleb128 0x10
 1822 04f2 9E000000 		.4byte	0x9e
 1823 04f6 13       		.uleb128 0x13
 1824 04f7 0F000000 		.4byte	.LASF101
 1825 04fb 01       		.byte	0x1
 1826 04fc 34       		.byte	0x34
 1827 04fd 00000000 		.4byte	.LFB1
 1828 0501 28000000 		.4byte	.LFE1-.LFB1
 1829 0505 01       		.uleb128 0x1
 1830 0506 9C       		.byte	0x9c
 1831 0507 27050000 		.4byte	0x527
 1832 050b 14       		.uleb128 0x14
 1833 050c 747000   		.ascii	"tp\000"
 1834 050f 01       		.byte	0x1
 1835 0510 34       		.byte	0x34
 1836 0511 52020000 		.4byte	0x252
 1837 0515 02       		.uleb128 0x2
 1838 0516 91       		.byte	0x91
 1839 0517 7C       		.sleb128 -4
 1840 0518 14       		.uleb128 0x14
 1841 0519 74717000 		.ascii	"tqp\000"
 1842 051d 01       		.byte	0x1
 1843 051e 34       		.byte	0x34
 1844 051f 27050000 		.4byte	0x527
 1845 0523 02       		.uleb128 0x2
 1846 0524 91       		.byte	0x91
 1847 0525 78       		.sleb128 -8
 1848 0526 00       		.byte	0
 1849 0527 09       		.uleb128 0x9
 1850 0528 04       		.byte	0x4
 1851 0529 58020000 		.4byte	0x258
 1852 052d 15       		.uleb128 0x15
 1853 052e 81030000 		.4byte	.LASF82
 1854 0532 01       		.byte	0x1
 1855 0533 3B       		.byte	0x3b
 1856 0534 52020000 		.4byte	0x252
 1857 0538 28000000 		.4byte	.LFB2
 1858 053c 22000000 		.4byte	.LFE2-.LFB2
 1859 0540 01       		.uleb128 0x1
 1860 0541 9C       		.byte	0x9c
 1861 0542 62050000 		.4byte	0x562
 1862 0546 14       		.uleb128 0x14
 1863 0547 74717000 		.ascii	"tqp\000"
 1864 054b 01       		.byte	0x1
 1865 054c 3B       		.byte	0x3b
 1866 054d 27050000 		.4byte	0x527
 1867 0551 02       		.uleb128 0x2
 1868 0552 91       		.byte	0x91
 1869 0553 74       		.sleb128 -12
 1870 0554 16       		.uleb128 0x16
 1871 0555 747000   		.ascii	"tp\000"
 1872 0558 01       		.byte	0x1
 1873 0559 3C       		.byte	0x3c
ARM GAS  /tmp/ccjcRCPv.s 			page 34


 1874 055a 52020000 		.4byte	0x252
 1875 055e 02       		.uleb128 0x2
 1876 055f 91       		.byte	0x91
 1877 0560 7C       		.sleb128 -4
 1878 0561 00       		.byte	0
 1879 0562 17       		.uleb128 0x17
 1880 0563 C9000000 		.4byte	.LASF83
 1881 0567 02       		.byte	0x2
 1882 0568 46       		.byte	0x46
 1883 0569 08010000 		.4byte	0x108
 1884 056d 4C000000 		.4byte	.LFB7
 1885 0571 40000000 		.4byte	.LFE7-.LFB7
 1886 0575 01       		.uleb128 0x1
 1887 0576 9C       		.byte	0x9c
 1888 0577 97050000 		.4byte	0x597
 1889 057b 14       		.uleb128 0x14
 1890 057c 717000   		.ascii	"qp\000"
 1891 057f 02       		.byte	0x2
 1892 0580 46       		.byte	0x46
 1893 0581 C9040000 		.4byte	0x4c9
 1894 0585 02       		.uleb128 0x2
 1895 0586 91       		.byte	0x91
 1896 0587 74       		.sleb128 -12
 1897 0588 18       		.uleb128 0x18
 1898 0589 1F020000 		.4byte	.LASF84
 1899 058d 02       		.byte	0x2
 1900 058e 46       		.byte	0x46
 1901 058f 1E010000 		.4byte	0x11e
 1902 0593 02       		.uleb128 0x2
 1903 0594 91       		.byte	0x91
 1904 0595 70       		.sleb128 -16
 1905 0596 00       		.byte	0
 1906 0597 19       		.uleb128 0x19
 1907 0598 2F000000 		.4byte	.LASF88
 1908 059c 02       		.byte	0x2
 1909 059d 5F       		.byte	0x5f
 1910 059e 8C000000 		.4byte	.LFB8
 1911 05a2 4E000000 		.4byte	.LFE8-.LFB8
 1912 05a6 01       		.uleb128 0x1
 1913 05a7 9C       		.byte	0x9c
 1914 05a8 F2050000 		.4byte	0x5f2
 1915 05ac 14       		.uleb128 0x14
 1916 05ad 69717000 		.ascii	"iqp\000"
 1917 05b1 02       		.byte	0x2
 1918 05b2 5F       		.byte	0x5f
 1919 05b3 F2050000 		.4byte	0x5f2
 1920 05b7 02       		.uleb128 0x2
 1921 05b8 91       		.byte	0x91
 1922 05b9 7C       		.sleb128 -4
 1923 05ba 14       		.uleb128 0x14
 1924 05bb 627000   		.ascii	"bp\000"
 1925 05be 02       		.byte	0x2
 1926 05bf 5F       		.byte	0x5f
 1927 05c0 CF040000 		.4byte	0x4cf
 1928 05c4 02       		.uleb128 0x2
 1929 05c5 91       		.byte	0x91
 1930 05c6 78       		.sleb128 -8
ARM GAS  /tmp/ccjcRCPv.s 			page 35


 1931 05c7 18       		.uleb128 0x18
 1932 05c8 71010000 		.4byte	.LASF85
 1933 05cc 02       		.byte	0x2
 1934 05cd 5F       		.byte	0x5f
 1935 05ce 28000000 		.4byte	0x28
 1936 05d2 02       		.uleb128 0x2
 1937 05d3 91       		.byte	0x91
 1938 05d4 74       		.sleb128 -12
 1939 05d5 18       		.uleb128 0x18
 1940 05d6 B7020000 		.4byte	.LASF86
 1941 05da 02       		.byte	0x2
 1942 05db 5F       		.byte	0x5f
 1943 05dc AD040000 		.4byte	0x4ad
 1944 05e0 02       		.uleb128 0x2
 1945 05e1 91       		.byte	0x91
 1946 05e2 70       		.sleb128 -16
 1947 05e3 18       		.uleb128 0x18
 1948 05e4 17010000 		.4byte	.LASF87
 1949 05e8 02       		.byte	0x2
 1950 05e9 60       		.byte	0x60
 1951 05ea 8E020000 		.4byte	0x28e
 1952 05ee 02       		.uleb128 0x2
 1953 05ef 91       		.byte	0x91
 1954 05f0 00       		.sleb128 0
 1955 05f1 00       		.byte	0
 1956 05f2 09       		.uleb128 0x9
 1957 05f3 04       		.byte	0x4
 1958 05f4 D5040000 		.4byte	0x4d5
 1959 05f8 1A       		.uleb128 0x1a
 1960 05f9 4C010000 		.4byte	.LASF89
 1961 05fd 02       		.byte	0x2
 1962 05fe 75       		.byte	0x75
 1963 05ff DC000000 		.4byte	.LFB9
 1964 0603 4A000000 		.4byte	.LFE9-.LFB9
 1965 0607 01       		.uleb128 0x1
 1966 0608 9C       		.byte	0x9c
 1967 0609 1C060000 		.4byte	0x61c
 1968 060d 14       		.uleb128 0x14
 1969 060e 69717000 		.ascii	"iqp\000"
 1970 0612 02       		.byte	0x2
 1971 0613 75       		.byte	0x75
 1972 0614 F2050000 		.4byte	0x5f2
 1973 0618 02       		.uleb128 0x2
 1974 0619 91       		.byte	0x91
 1975 061a 74       		.sleb128 -12
 1976 061b 00       		.byte	0
 1977 061c 1B       		.uleb128 0x1b
 1978 061d 2B010000 		.4byte	.LASF90
 1979 0621 02       		.byte	0x2
 1980 0622 8C       		.byte	0x8c
 1981 0623 08010000 		.4byte	0x108
 1982 0627 28010000 		.4byte	.LFB10
 1983 062b 92000000 		.4byte	.LFE10-.LFB10
 1984 062f 01       		.uleb128 0x1
 1985 0630 9C       		.byte	0x9c
 1986 0631 50060000 		.4byte	0x650
 1987 0635 14       		.uleb128 0x14
ARM GAS  /tmp/ccjcRCPv.s 			page 36


 1988 0636 69717000 		.ascii	"iqp\000"
 1989 063a 02       		.byte	0x2
 1990 063b 8C       		.byte	0x8c
 1991 063c F2050000 		.4byte	0x5f2
 1992 0640 02       		.uleb128 0x2
 1993 0641 91       		.byte	0x91
 1994 0642 74       		.sleb128 -12
 1995 0643 14       		.uleb128 0x14
 1996 0644 6200     		.ascii	"b\000"
 1997 0646 02       		.byte	0x2
 1998 0647 8C       		.byte	0x8c
 1999 0648 9E000000 		.4byte	0x9e
 2000 064c 02       		.uleb128 0x2
 2001 064d 91       		.byte	0x91
 2002 064e 73       		.sleb128 -13
 2003 064f 00       		.byte	0
 2004 0650 1B       		.uleb128 0x1b
 2005 0651 67040000 		.4byte	.LASF91
 2006 0655 02       		.byte	0x2
 2007 0656 B2       		.byte	0xb2
 2008 0657 08010000 		.4byte	0x108
 2009 065b BC010000 		.4byte	.LFB11
 2010 065f 8E000000 		.4byte	.LFE11-.LFB11
 2011 0663 01       		.uleb128 0x1
 2012 0664 9C       		.byte	0x9c
 2013 0665 F7060000 		.4byte	0x6f7
 2014 0669 14       		.uleb128 0x14
 2015 066a 69717000 		.ascii	"iqp\000"
 2016 066e 02       		.byte	0x2
 2017 066f B2       		.byte	0xb2
 2018 0670 F2050000 		.4byte	0x5f2
 2019 0674 02       		.uleb128 0x2
 2020 0675 91       		.byte	0x91
 2021 0676 6C       		.sleb128 -20
 2022 0677 18       		.uleb128 0x18
 2023 0678 1F020000 		.4byte	.LASF84
 2024 067c 02       		.byte	0x2
 2025 067d B2       		.byte	0xb2
 2026 067e 1E010000 		.4byte	0x11e
 2027 0682 02       		.uleb128 0x2
 2028 0683 91       		.byte	0x91
 2029 0684 68       		.sleb128 -24
 2030 0685 16       		.uleb128 0x16
 2031 0686 6200     		.ascii	"b\000"
 2032 0688 02       		.byte	0x2
 2033 0689 B3       		.byte	0xb3
 2034 068a 9E000000 		.4byte	0x9e
 2035 068e 02       		.uleb128 0x2
 2036 068f 91       		.byte	0x91
 2037 0690 73       		.sleb128 -13
 2038 0691 1C       		.uleb128 0x1c
 2039 0692 C4010000 		.4byte	.LBB2
 2040 0696 06000000 		.4byte	.LBE2-.LBB2
 2041 069a AC060000 		.4byte	0x6ac
 2042 069e 16       		.uleb128 0x16
 2043 069f 746D7000 		.ascii	"tmp\000"
 2044 06a3 02       		.byte	0x2
ARM GAS  /tmp/ccjcRCPv.s 			page 37


 2045 06a4 B5       		.byte	0xb5
 2046 06a5 B4000000 		.4byte	0xb4
 2047 06a9 01       		.uleb128 0x1
 2048 06aa 53       		.byte	0x53
 2049 06ab 00       		.byte	0
 2050 06ac 1C       		.uleb128 0x1c
 2051 06ad E0010000 		.4byte	.LBB3
 2052 06b1 1E000000 		.4byte	.LBE3-.LBB3
 2053 06b5 DF060000 		.4byte	0x6df
 2054 06b9 16       		.uleb128 0x16
 2055 06ba 6D736700 		.ascii	"msg\000"
 2056 06be 02       		.byte	0x2
 2057 06bf BA       		.byte	0xba
 2058 06c0 08010000 		.4byte	0x108
 2059 06c4 02       		.uleb128 0x2
 2060 06c5 91       		.byte	0x91
 2061 06c6 74       		.sleb128 -12
 2062 06c7 1D       		.uleb128 0x1d
 2063 06c8 F4010000 		.4byte	.LBB4
 2064 06cc 06000000 		.4byte	.LBE4-.LBB4
 2065 06d0 16       		.uleb128 0x16
 2066 06d1 746D7000 		.ascii	"tmp\000"
 2067 06d5 02       		.byte	0x2
 2068 06d6 BC       		.byte	0xbc
 2069 06d7 B4000000 		.4byte	0xb4
 2070 06db 01       		.uleb128 0x1
 2071 06dc 53       		.byte	0x53
 2072 06dd 00       		.byte	0
 2073 06de 00       		.byte	0
 2074 06df 1D       		.uleb128 0x1d
 2075 06e0 38020000 		.4byte	.LBB5
 2076 06e4 06000000 		.4byte	.LBE5-.LBB5
 2077 06e8 16       		.uleb128 0x16
 2078 06e9 746D7000 		.ascii	"tmp\000"
 2079 06ed 02       		.byte	0x2
 2080 06ee C6       		.byte	0xc6
 2081 06ef B4000000 		.4byte	0xb4
 2082 06f3 01       		.uleb128 0x1
 2083 06f4 53       		.byte	0x53
 2084 06f5 00       		.byte	0
 2085 06f6 00       		.byte	0
 2086 06f7 1B       		.uleb128 0x1b
 2087 06f8 57000000 		.4byte	.LASF92
 2088 06fc 02       		.byte	0x2
 2089 06fd E2       		.byte	0xe2
 2090 06fe 28000000 		.4byte	0x28
 2091 0702 4C020000 		.4byte	.LFB12
 2092 0706 C8000000 		.4byte	.LFE12-.LFB12
 2093 070a 01       		.uleb128 0x1
 2094 070b 9C       		.byte	0x9c
 2095 070c C8070000 		.4byte	0x7c8
 2096 0710 14       		.uleb128 0x14
 2097 0711 69717000 		.ascii	"iqp\000"
 2098 0715 02       		.byte	0x2
 2099 0716 E2       		.byte	0xe2
 2100 0717 F2050000 		.4byte	0x5f2
 2101 071b 02       		.uleb128 0x2
ARM GAS  /tmp/ccjcRCPv.s 			page 38


 2102 071c 91       		.byte	0x91
 2103 071d 6C       		.sleb128 -20
 2104 071e 14       		.uleb128 0x14
 2105 071f 627000   		.ascii	"bp\000"
 2106 0722 02       		.byte	0x2
 2107 0723 E2       		.byte	0xe2
 2108 0724 CF040000 		.4byte	0x4cf
 2109 0728 02       		.uleb128 0x2
 2110 0729 91       		.byte	0x91
 2111 072a 68       		.sleb128 -24
 2112 072b 14       		.uleb128 0x14
 2113 072c 6E00     		.ascii	"n\000"
 2114 072e 02       		.byte	0x2
 2115 072f E3       		.byte	0xe3
 2116 0730 28000000 		.4byte	0x28
 2117 0734 02       		.uleb128 0x2
 2118 0735 91       		.byte	0x91
 2119 0736 64       		.sleb128 -28
 2120 0737 18       		.uleb128 0x18
 2121 0738 1F020000 		.4byte	.LASF84
 2122 073c 02       		.byte	0x2
 2123 073d E3       		.byte	0xe3
 2124 073e 1E010000 		.4byte	0x11e
 2125 0742 02       		.uleb128 0x2
 2126 0743 91       		.byte	0x91
 2127 0744 60       		.sleb128 -32
 2128 0745 16       		.uleb128 0x16
 2129 0746 6E667900 		.ascii	"nfy\000"
 2130 074a 02       		.byte	0x2
 2131 074b E4       		.byte	0xe4
 2132 074c AD040000 		.4byte	0x4ad
 2133 0750 02       		.uleb128 0x2
 2134 0751 91       		.byte	0x91
 2135 0752 70       		.sleb128 -16
 2136 0753 16       		.uleb128 0x16
 2137 0754 7200     		.ascii	"r\000"
 2138 0756 02       		.byte	0x2
 2139 0757 E5       		.byte	0xe5
 2140 0758 28000000 		.4byte	0x28
 2141 075c 02       		.uleb128 0x2
 2142 075d 91       		.byte	0x91
 2143 075e 74       		.sleb128 -12
 2144 075f 1C       		.uleb128 0x1c
 2145 0760 6E020000 		.4byte	.LBB6
 2146 0764 06000000 		.4byte	.LBE6-.LBB6
 2147 0768 7A070000 		.4byte	0x77a
 2148 076c 16       		.uleb128 0x16
 2149 076d 746D7000 		.ascii	"tmp\000"
 2150 0771 02       		.byte	0x2
 2151 0772 E9       		.byte	0xe9
 2152 0773 B4000000 		.4byte	0xb4
 2153 0777 01       		.uleb128 0x1
 2154 0778 53       		.byte	0x53
 2155 0779 00       		.byte	0
 2156 077a 1C       		.uleb128 0x1c
 2157 077b 98020000 		.4byte	.LBB7
 2158 077f 06000000 		.4byte	.LBE7-.LBB7
ARM GAS  /tmp/ccjcRCPv.s 			page 39


 2159 0783 95070000 		.4byte	0x795
 2160 0787 16       		.uleb128 0x16
 2161 0788 746D7000 		.ascii	"tmp\000"
 2162 078c 02       		.byte	0x2
 2163 078d F0       		.byte	0xf0
 2164 078e B4000000 		.4byte	0xb4
 2165 0792 01       		.uleb128 0x1
 2166 0793 53       		.byte	0x53
 2167 0794 00       		.byte	0
 2168 0795 1C       		.uleb128 0x1c
 2169 0796 E0020000 		.4byte	.LBB8
 2170 079a 06000000 		.4byte	.LBE8-.LBB8
 2171 079e B0070000 		.4byte	0x7b0
 2172 07a2 16       		.uleb128 0x16
 2173 07a3 746D7000 		.ascii	"tmp\000"
 2174 07a7 02       		.byte	0x2
 2175 07a8 FA       		.byte	0xfa
 2176 07a9 B4000000 		.4byte	0xb4
 2177 07ad 01       		.uleb128 0x1
 2178 07ae 53       		.byte	0x53
 2179 07af 00       		.byte	0
 2180 07b0 1D       		.uleb128 0x1d
 2181 07b1 FC020000 		.4byte	.LBB9
 2182 07b5 06000000 		.4byte	.LBE9-.LBB9
 2183 07b9 16       		.uleb128 0x16
 2184 07ba 746D7000 		.ascii	"tmp\000"
 2185 07be 02       		.byte	0x2
 2186 07bf FF       		.byte	0xff
 2187 07c0 B4000000 		.4byte	0xb4
 2188 07c4 01       		.uleb128 0x1
 2189 07c5 53       		.byte	0x53
 2190 07c6 00       		.byte	0
 2191 07c7 00       		.byte	0
 2192 07c8 1E       		.uleb128 0x1e
 2193 07c9 00000000 		.4byte	.LASF93
 2194 07cd 02       		.byte	0x2
 2195 07ce 1301     		.2byte	0x113
 2196 07d0 14030000 		.4byte	.LFB13
 2197 07d4 4E000000 		.4byte	.LFE13-.LFB13
 2198 07d8 01       		.uleb128 0x1
 2199 07d9 9C       		.byte	0x9c
 2200 07da 29080000 		.4byte	0x829
 2201 07de 1F       		.uleb128 0x1f
 2202 07df 6F717000 		.ascii	"oqp\000"
 2203 07e3 02       		.byte	0x2
 2204 07e4 1301     		.2byte	0x113
 2205 07e6 29080000 		.4byte	0x829
 2206 07ea 02       		.uleb128 0x2
 2207 07eb 91       		.byte	0x91
 2208 07ec 7C       		.sleb128 -4
 2209 07ed 1F       		.uleb128 0x1f
 2210 07ee 627000   		.ascii	"bp\000"
 2211 07f1 02       		.byte	0x2
 2212 07f2 1301     		.2byte	0x113
 2213 07f4 CF040000 		.4byte	0x4cf
 2214 07f8 02       		.uleb128 0x2
 2215 07f9 91       		.byte	0x91
ARM GAS  /tmp/ccjcRCPv.s 			page 40


 2216 07fa 78       		.sleb128 -8
 2217 07fb 20       		.uleb128 0x20
 2218 07fc 71010000 		.4byte	.LASF85
 2219 0800 02       		.byte	0x2
 2220 0801 1301     		.2byte	0x113
 2221 0803 28000000 		.4byte	0x28
 2222 0807 02       		.uleb128 0x2
 2223 0808 91       		.byte	0x91
 2224 0809 74       		.sleb128 -12
 2225 080a 20       		.uleb128 0x20
 2226 080b 1C000000 		.4byte	.LASF94
 2227 080f 02       		.byte	0x2
 2228 0810 1301     		.2byte	0x113
 2229 0812 AD040000 		.4byte	0x4ad
 2230 0816 02       		.uleb128 0x2
 2231 0817 91       		.byte	0x91
 2232 0818 70       		.sleb128 -16
 2233 0819 20       		.uleb128 0x20
 2234 081a 17010000 		.4byte	.LASF87
 2235 081e 02       		.byte	0x2
 2236 081f 1401     		.2byte	0x114
 2237 0821 8E020000 		.4byte	0x28e
 2238 0825 02       		.uleb128 0x2
 2239 0826 91       		.byte	0x91
 2240 0827 00       		.sleb128 0
 2241 0828 00       		.byte	0
 2242 0829 09       		.uleb128 0x9
 2243 082a 04       		.byte	0x4
 2244 082b E0040000 		.4byte	0x4e0
 2245 082f 21       		.uleb128 0x21
 2246 0830 B3030000 		.4byte	.LASF95
 2247 0834 02       		.byte	0x2
 2248 0835 2901     		.2byte	0x129
 2249 0837 64030000 		.4byte	.LFB14
 2250 083b 56000000 		.4byte	.LFE14-.LFB14
 2251 083f 01       		.uleb128 0x1
 2252 0840 9C       		.byte	0x9c
 2253 0841 55080000 		.4byte	0x855
 2254 0845 1F       		.uleb128 0x1f
 2255 0846 6F717000 		.ascii	"oqp\000"
 2256 084a 02       		.byte	0x2
 2257 084b 2901     		.2byte	0x129
 2258 084d 29080000 		.4byte	0x829
 2259 0851 02       		.uleb128 0x2
 2260 0852 91       		.byte	0x91
 2261 0853 74       		.sleb128 -12
 2262 0854 00       		.byte	0
 2263 0855 22       		.uleb128 0x22
 2264 0856 1C010000 		.4byte	.LASF96
 2265 085a 02       		.byte	0x2
 2266 085b 4901     		.2byte	0x149
 2267 085d 08010000 		.4byte	0x108
 2268 0861 BC030000 		.4byte	.LFB15
 2269 0865 92000000 		.4byte	.LFE15-.LFB15
 2270 0869 01       		.uleb128 0x1
 2271 086a 9C       		.byte	0x9c
 2272 086b 04090000 		.4byte	0x904
ARM GAS  /tmp/ccjcRCPv.s 			page 41


 2273 086f 1F       		.uleb128 0x1f
 2274 0870 6F717000 		.ascii	"oqp\000"
 2275 0874 02       		.byte	0x2
 2276 0875 4901     		.2byte	0x149
 2277 0877 29080000 		.4byte	0x829
 2278 087b 02       		.uleb128 0x2
 2279 087c 91       		.byte	0x91
 2280 087d 6C       		.sleb128 -20
 2281 087e 1F       		.uleb128 0x1f
 2282 087f 6200     		.ascii	"b\000"
 2283 0881 02       		.byte	0x2
 2284 0882 4901     		.2byte	0x149
 2285 0884 9E000000 		.4byte	0x9e
 2286 0888 02       		.uleb128 0x2
 2287 0889 91       		.byte	0x91
 2288 088a 6B       		.sleb128 -21
 2289 088b 20       		.uleb128 0x20
 2290 088c 1F020000 		.4byte	.LASF84
 2291 0890 02       		.byte	0x2
 2292 0891 4901     		.2byte	0x149
 2293 0893 1E010000 		.4byte	0x11e
 2294 0897 02       		.uleb128 0x2
 2295 0898 91       		.byte	0x91
 2296 0899 64       		.sleb128 -28
 2297 089a 1C       		.uleb128 0x1c
 2298 089b CA030000 		.4byte	.LBB10
 2299 089f 06000000 		.4byte	.LBE10-.LBB10
 2300 08a3 B6080000 		.4byte	0x8b6
 2301 08a7 23       		.uleb128 0x23
 2302 08a8 746D7000 		.ascii	"tmp\000"
 2303 08ac 02       		.byte	0x2
 2304 08ad 4B01     		.2byte	0x14b
 2305 08af B4000000 		.4byte	0xb4
 2306 08b3 01       		.uleb128 0x1
 2307 08b4 53       		.byte	0x53
 2308 08b5 00       		.byte	0
 2309 08b6 1C       		.uleb128 0x1c
 2310 08b7 D6030000 		.4byte	.LBB11
 2311 08bb 1E000000 		.4byte	.LBE11-.LBB11
 2312 08bf EB080000 		.4byte	0x8eb
 2313 08c3 23       		.uleb128 0x23
 2314 08c4 6D736700 		.ascii	"msg\000"
 2315 08c8 02       		.byte	0x2
 2316 08c9 4D01     		.2byte	0x14d
 2317 08cb 08010000 		.4byte	0x108
 2318 08cf 02       		.uleb128 0x2
 2319 08d0 91       		.byte	0x91
 2320 08d1 74       		.sleb128 -12
 2321 08d2 1D       		.uleb128 0x1d
 2322 08d3 EA030000 		.4byte	.LBB12
 2323 08d7 06000000 		.4byte	.LBE12-.LBB12
 2324 08db 23       		.uleb128 0x23
 2325 08dc 746D7000 		.ascii	"tmp\000"
 2326 08e0 02       		.byte	0x2
 2327 08e1 5001     		.2byte	0x150
 2328 08e3 B4000000 		.4byte	0xb4
 2329 08e7 01       		.uleb128 0x1
ARM GAS  /tmp/ccjcRCPv.s 			page 42


 2330 08e8 53       		.byte	0x53
 2331 08e9 00       		.byte	0
 2332 08ea 00       		.byte	0
 2333 08eb 1D       		.uleb128 0x1d
 2334 08ec 3E040000 		.4byte	.LBB13
 2335 08f0 06000000 		.4byte	.LBE13-.LBB13
 2336 08f4 23       		.uleb128 0x23
 2337 08f5 746D7000 		.ascii	"tmp\000"
 2338 08f9 02       		.byte	0x2
 2339 08fa 5D01     		.2byte	0x15d
 2340 08fc B4000000 		.4byte	0xb4
 2341 0900 01       		.uleb128 0x1
 2342 0901 53       		.byte	0x53
 2343 0902 00       		.byte	0
 2344 0903 00       		.byte	0
 2345 0904 22       		.uleb128 0x22
 2346 0905 E1000000 		.4byte	.LASF97
 2347 0909 02       		.byte	0x2
 2348 090a 6B01     		.2byte	0x16b
 2349 090c 08010000 		.4byte	0x108
 2350 0910 50040000 		.4byte	.LFB16
 2351 0914 8E000000 		.4byte	.LFE16-.LFB16
 2352 0918 01       		.uleb128 0x1
 2353 0919 9C       		.byte	0x9c
 2354 091a 3B090000 		.4byte	0x93b
 2355 091e 1F       		.uleb128 0x1f
 2356 091f 6F717000 		.ascii	"oqp\000"
 2357 0923 02       		.byte	0x2
 2358 0924 6B01     		.2byte	0x16b
 2359 0926 29080000 		.4byte	0x829
 2360 092a 02       		.uleb128 0x2
 2361 092b 91       		.byte	0x91
 2362 092c 6C       		.sleb128 -20
 2363 092d 23       		.uleb128 0x23
 2364 092e 6200     		.ascii	"b\000"
 2365 0930 02       		.byte	0x2
 2366 0931 6C01     		.2byte	0x16c
 2367 0933 9E000000 		.4byte	0x9e
 2368 0937 02       		.uleb128 0x2
 2369 0938 91       		.byte	0x91
 2370 0939 77       		.sleb128 -9
 2371 093a 00       		.byte	0
 2372 093b 22       		.uleb128 0x22
 2373 093c E0010000 		.4byte	.LASF98
 2374 0940 02       		.byte	0x2
 2375 0941 9601     		.2byte	0x196
 2376 0943 28000000 		.4byte	0x28
 2377 0947 E0040000 		.4byte	.LFB17
 2378 094b C8000000 		.4byte	.LFE17-.LFB17
 2379 094f 01       		.uleb128 0x1
 2380 0950 9C       		.byte	0x9c
 2381 0951 170A0000 		.4byte	0xa17
 2382 0955 1F       		.uleb128 0x1f
 2383 0956 6F717000 		.ascii	"oqp\000"
 2384 095a 02       		.byte	0x2
 2385 095b 9601     		.2byte	0x196
 2386 095d 29080000 		.4byte	0x829
ARM GAS  /tmp/ccjcRCPv.s 			page 43


 2387 0961 02       		.uleb128 0x2
 2388 0962 91       		.byte	0x91
 2389 0963 6C       		.sleb128 -20
 2390 0964 1F       		.uleb128 0x1f
 2391 0965 627000   		.ascii	"bp\000"
 2392 0968 02       		.byte	0x2
 2393 0969 9601     		.2byte	0x196
 2394 096b EB040000 		.4byte	0x4eb
 2395 096f 02       		.uleb128 0x2
 2396 0970 91       		.byte	0x91
 2397 0971 68       		.sleb128 -24
 2398 0972 1F       		.uleb128 0x1f
 2399 0973 6E00     		.ascii	"n\000"
 2400 0975 02       		.byte	0x2
 2401 0976 9701     		.2byte	0x197
 2402 0978 28000000 		.4byte	0x28
 2403 097c 02       		.uleb128 0x2
 2404 097d 91       		.byte	0x91
 2405 097e 64       		.sleb128 -28
 2406 097f 20       		.uleb128 0x20
 2407 0980 1F020000 		.4byte	.LASF84
 2408 0984 02       		.byte	0x2
 2409 0985 9701     		.2byte	0x197
 2410 0987 1E010000 		.4byte	0x11e
 2411 098b 02       		.uleb128 0x2
 2412 098c 91       		.byte	0x91
 2413 098d 60       		.sleb128 -32
 2414 098e 23       		.uleb128 0x23
 2415 098f 6E667900 		.ascii	"nfy\000"
 2416 0993 02       		.byte	0x2
 2417 0994 9801     		.2byte	0x198
 2418 0996 AD040000 		.4byte	0x4ad
 2419 099a 02       		.uleb128 0x2
 2420 099b 91       		.byte	0x91
 2421 099c 70       		.sleb128 -16
 2422 099d 23       		.uleb128 0x23
 2423 099e 7700     		.ascii	"w\000"
 2424 09a0 02       		.byte	0x2
 2425 09a1 9901     		.2byte	0x199
 2426 09a3 28000000 		.4byte	0x28
 2427 09a7 02       		.uleb128 0x2
 2428 09a8 91       		.byte	0x91
 2429 09a9 74       		.sleb128 -12
 2430 09aa 1C       		.uleb128 0x1c
 2431 09ab 02050000 		.4byte	.LBB14
 2432 09af 06000000 		.4byte	.LBE14-.LBB14
 2433 09b3 C6090000 		.4byte	0x9c6
 2434 09b7 23       		.uleb128 0x23
 2435 09b8 746D7000 		.ascii	"tmp\000"
 2436 09bc 02       		.byte	0x2
 2437 09bd 9D01     		.2byte	0x19d
 2438 09bf B4000000 		.4byte	0xb4
 2439 09c3 01       		.uleb128 0x1
 2440 09c4 53       		.byte	0x53
 2441 09c5 00       		.byte	0
 2442 09c6 1C       		.uleb128 0x1c
 2443 09c7 20050000 		.4byte	.LBB15
ARM GAS  /tmp/ccjcRCPv.s 			page 44


 2444 09cb 06000000 		.4byte	.LBE15-.LBB15
 2445 09cf E2090000 		.4byte	0x9e2
 2446 09d3 23       		.uleb128 0x23
 2447 09d4 746D7000 		.ascii	"tmp\000"
 2448 09d8 02       		.byte	0x2
 2449 09d9 A101     		.2byte	0x1a1
 2450 09db B4000000 		.4byte	0xb4
 2451 09df 01       		.uleb128 0x1
 2452 09e0 53       		.byte	0x53
 2453 09e1 00       		.byte	0
 2454 09e2 1C       		.uleb128 0x1c
 2455 09e3 74050000 		.4byte	.LBB16
 2456 09e7 06000000 		.4byte	.LBE16-.LBB16
 2457 09eb FE090000 		.4byte	0x9fe
 2458 09ef 23       		.uleb128 0x23
 2459 09f0 746D7000 		.ascii	"tmp\000"
 2460 09f4 02       		.byte	0x2
 2461 09f5 AD01     		.2byte	0x1ad
 2462 09f7 B4000000 		.4byte	0xb4
 2463 09fb 01       		.uleb128 0x1
 2464 09fc 53       		.byte	0x53
 2465 09fd 00       		.byte	0
 2466 09fe 1D       		.uleb128 0x1d
 2467 09ff 90050000 		.4byte	.LBB17
 2468 0a03 06000000 		.4byte	.LBE17-.LBB17
 2469 0a07 23       		.uleb128 0x23
 2470 0a08 746D7000 		.ascii	"tmp\000"
 2471 0a0c 02       		.byte	0x2
 2472 0a0d B101     		.2byte	0x1b1
 2473 0a0f B4000000 		.4byte	0xb4
 2474 0a13 01       		.uleb128 0x1
 2475 0a14 53       		.byte	0x53
 2476 0a15 00       		.byte	0
 2477 0a16 00       		.byte	0
 2478 0a17 24       		.uleb128 0x24
 2479 0a18 F7030000 		.4byte	.LASF102
 2480 0a1c 0A       		.byte	0xa
 2481 0a1d 6F       		.byte	0x6f
 2482 0a1e 95030000 		.4byte	0x395
 2483 0a22 00       		.byte	0
 2484              		.section	.debug_abbrev,"",%progbits
 2485              	.Ldebug_abbrev0:
 2486 0000 01       		.uleb128 0x1
 2487 0001 11       		.uleb128 0x11
 2488 0002 01       		.byte	0x1
 2489 0003 25       		.uleb128 0x25
 2490 0004 0E       		.uleb128 0xe
 2491 0005 13       		.uleb128 0x13
 2492 0006 0B       		.uleb128 0xb
 2493 0007 03       		.uleb128 0x3
 2494 0008 0E       		.uleb128 0xe
 2495 0009 11       		.uleb128 0x11
 2496 000a 01       		.uleb128 0x1
 2497 000b 12       		.uleb128 0x12
 2498 000c 06       		.uleb128 0x6
 2499 000d 10       		.uleb128 0x10
 2500 000e 17       		.uleb128 0x17
ARM GAS  /tmp/ccjcRCPv.s 			page 45


 2501 000f 00       		.byte	0
 2502 0010 00       		.byte	0
 2503 0011 02       		.uleb128 0x2
 2504 0012 24       		.uleb128 0x24
 2505 0013 00       		.byte	0
 2506 0014 0B       		.uleb128 0xb
 2507 0015 0B       		.uleb128 0xb
 2508 0016 3E       		.uleb128 0x3e
 2509 0017 0B       		.uleb128 0xb
 2510 0018 03       		.uleb128 0x3
 2511 0019 08       		.uleb128 0x8
 2512 001a 00       		.byte	0
 2513 001b 00       		.byte	0
 2514 001c 03       		.uleb128 0x3
 2515 001d 16       		.uleb128 0x16
 2516 001e 00       		.byte	0
 2517 001f 03       		.uleb128 0x3
 2518 0020 0E       		.uleb128 0xe
 2519 0021 3A       		.uleb128 0x3a
 2520 0022 0B       		.uleb128 0xb
 2521 0023 3B       		.uleb128 0x3b
 2522 0024 0B       		.uleb128 0xb
 2523 0025 49       		.uleb128 0x49
 2524 0026 13       		.uleb128 0x13
 2525 0027 00       		.byte	0
 2526 0028 00       		.byte	0
 2527 0029 04       		.uleb128 0x4
 2528 002a 24       		.uleb128 0x24
 2529 002b 00       		.byte	0
 2530 002c 0B       		.uleb128 0xb
 2531 002d 0B       		.uleb128 0xb
 2532 002e 3E       		.uleb128 0x3e
 2533 002f 0B       		.uleb128 0xb
 2534 0030 03       		.uleb128 0x3
 2535 0031 0E       		.uleb128 0xe
 2536 0032 00       		.byte	0
 2537 0033 00       		.byte	0
 2538 0034 05       		.uleb128 0x5
 2539 0035 13       		.uleb128 0x13
 2540 0036 01       		.byte	0x1
 2541 0037 03       		.uleb128 0x3
 2542 0038 0E       		.uleb128 0xe
 2543 0039 0B       		.uleb128 0xb
 2544 003a 0B       		.uleb128 0xb
 2545 003b 3A       		.uleb128 0x3a
 2546 003c 0B       		.uleb128 0xb
 2547 003d 3B       		.uleb128 0x3b
 2548 003e 0B       		.uleb128 0xb
 2549 003f 01       		.uleb128 0x1
 2550 0040 13       		.uleb128 0x13
 2551 0041 00       		.byte	0
 2552 0042 00       		.byte	0
 2553 0043 06       		.uleb128 0x6
 2554 0044 0D       		.uleb128 0xd
 2555 0045 00       		.byte	0
 2556 0046 03       		.uleb128 0x3
 2557 0047 0E       		.uleb128 0xe
ARM GAS  /tmp/ccjcRCPv.s 			page 46


 2558 0048 3A       		.uleb128 0x3a
 2559 0049 0B       		.uleb128 0xb
 2560 004a 3B       		.uleb128 0x3b
 2561 004b 0B       		.uleb128 0xb
 2562 004c 49       		.uleb128 0x49
 2563 004d 13       		.uleb128 0x13
 2564 004e 38       		.uleb128 0x38
 2565 004f 0B       		.uleb128 0xb
 2566 0050 00       		.byte	0
 2567 0051 00       		.byte	0
 2568 0052 07       		.uleb128 0x7
 2569 0053 0D       		.uleb128 0xd
 2570 0054 00       		.byte	0
 2571 0055 03       		.uleb128 0x3
 2572 0056 08       		.uleb128 0x8
 2573 0057 3A       		.uleb128 0x3a
 2574 0058 0B       		.uleb128 0xb
 2575 0059 3B       		.uleb128 0x3b
 2576 005a 0B       		.uleb128 0xb
 2577 005b 49       		.uleb128 0x49
 2578 005c 13       		.uleb128 0x13
 2579 005d 38       		.uleb128 0x38
 2580 005e 0B       		.uleb128 0xb
 2581 005f 00       		.byte	0
 2582 0060 00       		.byte	0
 2583 0061 08       		.uleb128 0x8
 2584 0062 13       		.uleb128 0x13
 2585 0063 01       		.byte	0x1
 2586 0064 0B       		.uleb128 0xb
 2587 0065 0B       		.uleb128 0xb
 2588 0066 3A       		.uleb128 0x3a
 2589 0067 0B       		.uleb128 0xb
 2590 0068 3B       		.uleb128 0x3b
 2591 0069 0B       		.uleb128 0xb
 2592 006a 01       		.uleb128 0x1
 2593 006b 13       		.uleb128 0x13
 2594 006c 00       		.byte	0
 2595 006d 00       		.byte	0
 2596 006e 09       		.uleb128 0x9
 2597 006f 0F       		.uleb128 0xf
 2598 0070 00       		.byte	0
 2599 0071 0B       		.uleb128 0xb
 2600 0072 0B       		.uleb128 0xb
 2601 0073 49       		.uleb128 0x49
 2602 0074 13       		.uleb128 0x13
 2603 0075 00       		.byte	0
 2604 0076 00       		.byte	0
 2605 0077 0A       		.uleb128 0xa
 2606 0078 0F       		.uleb128 0xf
 2607 0079 00       		.byte	0
 2608 007a 0B       		.uleb128 0xb
 2609 007b 0B       		.uleb128 0xb
 2610 007c 00       		.byte	0
 2611 007d 00       		.byte	0
 2612 007e 0B       		.uleb128 0xb
 2613 007f 13       		.uleb128 0x13
 2614 0080 01       		.byte	0x1
ARM GAS  /tmp/ccjcRCPv.s 			page 47


 2615 0081 03       		.uleb128 0x3
 2616 0082 0E       		.uleb128 0xe
 2617 0083 0B       		.uleb128 0xb
 2618 0084 0B       		.uleb128 0xb
 2619 0085 3A       		.uleb128 0x3a
 2620 0086 0B       		.uleb128 0xb
 2621 0087 3B       		.uleb128 0x3b
 2622 0088 05       		.uleb128 0x5
 2623 0089 01       		.uleb128 0x1
 2624 008a 13       		.uleb128 0x13
 2625 008b 00       		.byte	0
 2626 008c 00       		.byte	0
 2627 008d 0C       		.uleb128 0xc
 2628 008e 0D       		.uleb128 0xd
 2629 008f 00       		.byte	0
 2630 0090 03       		.uleb128 0x3
 2631 0091 08       		.uleb128 0x8
 2632 0092 3A       		.uleb128 0x3a
 2633 0093 0B       		.uleb128 0xb
 2634 0094 3B       		.uleb128 0x3b
 2635 0095 05       		.uleb128 0x5
 2636 0096 49       		.uleb128 0x49
 2637 0097 13       		.uleb128 0x13
 2638 0098 38       		.uleb128 0x38
 2639 0099 0B       		.uleb128 0xb
 2640 009a 00       		.byte	0
 2641 009b 00       		.byte	0
 2642 009c 0D       		.uleb128 0xd
 2643 009d 35       		.uleb128 0x35
 2644 009e 00       		.byte	0
 2645 009f 49       		.uleb128 0x49
 2646 00a0 13       		.uleb128 0x13
 2647 00a1 00       		.byte	0
 2648 00a2 00       		.byte	0
 2649 00a3 0E       		.uleb128 0xe
 2650 00a4 17       		.uleb128 0x17
 2651 00a5 01       		.byte	0x1
 2652 00a6 0B       		.uleb128 0xb
 2653 00a7 0B       		.uleb128 0xb
 2654 00a8 3A       		.uleb128 0x3a
 2655 00a9 0B       		.uleb128 0xb
 2656 00aa 3B       		.uleb128 0x3b
 2657 00ab 0B       		.uleb128 0xb
 2658 00ac 01       		.uleb128 0x1
 2659 00ad 13       		.uleb128 0x13
 2660 00ae 00       		.byte	0
 2661 00af 00       		.byte	0
 2662 00b0 0F       		.uleb128 0xf
 2663 00b1 0D       		.uleb128 0xd
 2664 00b2 00       		.byte	0
 2665 00b3 03       		.uleb128 0x3
 2666 00b4 0E       		.uleb128 0xe
 2667 00b5 3A       		.uleb128 0x3a
 2668 00b6 0B       		.uleb128 0xb
 2669 00b7 3B       		.uleb128 0x3b
 2670 00b8 0B       		.uleb128 0xb
 2671 00b9 49       		.uleb128 0x49
ARM GAS  /tmp/ccjcRCPv.s 			page 48


 2672 00ba 13       		.uleb128 0x13
 2673 00bb 00       		.byte	0
 2674 00bc 00       		.byte	0
 2675 00bd 10       		.uleb128 0x10
 2676 00be 26       		.uleb128 0x26
 2677 00bf 00       		.byte	0
 2678 00c0 49       		.uleb128 0x49
 2679 00c1 13       		.uleb128 0x13
 2680 00c2 00       		.byte	0
 2681 00c3 00       		.byte	0
 2682 00c4 11       		.uleb128 0x11
 2683 00c5 15       		.uleb128 0x15
 2684 00c6 01       		.byte	0x1
 2685 00c7 27       		.uleb128 0x27
 2686 00c8 19       		.uleb128 0x19
 2687 00c9 01       		.uleb128 0x1
 2688 00ca 13       		.uleb128 0x13
 2689 00cb 00       		.byte	0
 2690 00cc 00       		.byte	0
 2691 00cd 12       		.uleb128 0x12
 2692 00ce 05       		.uleb128 0x5
 2693 00cf 00       		.byte	0
 2694 00d0 49       		.uleb128 0x49
 2695 00d1 13       		.uleb128 0x13
 2696 00d2 00       		.byte	0
 2697 00d3 00       		.byte	0
 2698 00d4 13       		.uleb128 0x13
 2699 00d5 2E       		.uleb128 0x2e
 2700 00d6 01       		.byte	0x1
 2701 00d7 03       		.uleb128 0x3
 2702 00d8 0E       		.uleb128 0xe
 2703 00d9 3A       		.uleb128 0x3a
 2704 00da 0B       		.uleb128 0xb
 2705 00db 3B       		.uleb128 0x3b
 2706 00dc 0B       		.uleb128 0xb
 2707 00dd 27       		.uleb128 0x27
 2708 00de 19       		.uleb128 0x19
 2709 00df 11       		.uleb128 0x11
 2710 00e0 01       		.uleb128 0x1
 2711 00e1 12       		.uleb128 0x12
 2712 00e2 06       		.uleb128 0x6
 2713 00e3 40       		.uleb128 0x40
 2714 00e4 18       		.uleb128 0x18
 2715 00e5 9742     		.uleb128 0x2117
 2716 00e7 19       		.uleb128 0x19
 2717 00e8 01       		.uleb128 0x1
 2718 00e9 13       		.uleb128 0x13
 2719 00ea 00       		.byte	0
 2720 00eb 00       		.byte	0
 2721 00ec 14       		.uleb128 0x14
 2722 00ed 05       		.uleb128 0x5
 2723 00ee 00       		.byte	0
 2724 00ef 03       		.uleb128 0x3
 2725 00f0 08       		.uleb128 0x8
 2726 00f1 3A       		.uleb128 0x3a
 2727 00f2 0B       		.uleb128 0xb
 2728 00f3 3B       		.uleb128 0x3b
ARM GAS  /tmp/ccjcRCPv.s 			page 49


 2729 00f4 0B       		.uleb128 0xb
 2730 00f5 49       		.uleb128 0x49
 2731 00f6 13       		.uleb128 0x13
 2732 00f7 02       		.uleb128 0x2
 2733 00f8 18       		.uleb128 0x18
 2734 00f9 00       		.byte	0
 2735 00fa 00       		.byte	0
 2736 00fb 15       		.uleb128 0x15
 2737 00fc 2E       		.uleb128 0x2e
 2738 00fd 01       		.byte	0x1
 2739 00fe 03       		.uleb128 0x3
 2740 00ff 0E       		.uleb128 0xe
 2741 0100 3A       		.uleb128 0x3a
 2742 0101 0B       		.uleb128 0xb
 2743 0102 3B       		.uleb128 0x3b
 2744 0103 0B       		.uleb128 0xb
 2745 0104 27       		.uleb128 0x27
 2746 0105 19       		.uleb128 0x19
 2747 0106 49       		.uleb128 0x49
 2748 0107 13       		.uleb128 0x13
 2749 0108 11       		.uleb128 0x11
 2750 0109 01       		.uleb128 0x1
 2751 010a 12       		.uleb128 0x12
 2752 010b 06       		.uleb128 0x6
 2753 010c 40       		.uleb128 0x40
 2754 010d 18       		.uleb128 0x18
 2755 010e 9742     		.uleb128 0x2117
 2756 0110 19       		.uleb128 0x19
 2757 0111 01       		.uleb128 0x1
 2758 0112 13       		.uleb128 0x13
 2759 0113 00       		.byte	0
 2760 0114 00       		.byte	0
 2761 0115 16       		.uleb128 0x16
 2762 0116 34       		.uleb128 0x34
 2763 0117 00       		.byte	0
 2764 0118 03       		.uleb128 0x3
 2765 0119 08       		.uleb128 0x8
 2766 011a 3A       		.uleb128 0x3a
 2767 011b 0B       		.uleb128 0xb
 2768 011c 3B       		.uleb128 0x3b
 2769 011d 0B       		.uleb128 0xb
 2770 011e 49       		.uleb128 0x49
 2771 011f 13       		.uleb128 0x13
 2772 0120 02       		.uleb128 0x2
 2773 0121 18       		.uleb128 0x18
 2774 0122 00       		.byte	0
 2775 0123 00       		.byte	0
 2776 0124 17       		.uleb128 0x17
 2777 0125 2E       		.uleb128 0x2e
 2778 0126 01       		.byte	0x1
 2779 0127 03       		.uleb128 0x3
 2780 0128 0E       		.uleb128 0xe
 2781 0129 3A       		.uleb128 0x3a
 2782 012a 0B       		.uleb128 0xb
 2783 012b 3B       		.uleb128 0x3b
 2784 012c 0B       		.uleb128 0xb
 2785 012d 27       		.uleb128 0x27
ARM GAS  /tmp/ccjcRCPv.s 			page 50


 2786 012e 19       		.uleb128 0x19
 2787 012f 49       		.uleb128 0x49
 2788 0130 13       		.uleb128 0x13
 2789 0131 11       		.uleb128 0x11
 2790 0132 01       		.uleb128 0x1
 2791 0133 12       		.uleb128 0x12
 2792 0134 06       		.uleb128 0x6
 2793 0135 40       		.uleb128 0x40
 2794 0136 18       		.uleb128 0x18
 2795 0137 9642     		.uleb128 0x2116
 2796 0139 19       		.uleb128 0x19
 2797 013a 01       		.uleb128 0x1
 2798 013b 13       		.uleb128 0x13
 2799 013c 00       		.byte	0
 2800 013d 00       		.byte	0
 2801 013e 18       		.uleb128 0x18
 2802 013f 05       		.uleb128 0x5
 2803 0140 00       		.byte	0
 2804 0141 03       		.uleb128 0x3
 2805 0142 0E       		.uleb128 0xe
 2806 0143 3A       		.uleb128 0x3a
 2807 0144 0B       		.uleb128 0xb
 2808 0145 3B       		.uleb128 0x3b
 2809 0146 0B       		.uleb128 0xb
 2810 0147 49       		.uleb128 0x49
 2811 0148 13       		.uleb128 0x13
 2812 0149 02       		.uleb128 0x2
 2813 014a 18       		.uleb128 0x18
 2814 014b 00       		.byte	0
 2815 014c 00       		.byte	0
 2816 014d 19       		.uleb128 0x19
 2817 014e 2E       		.uleb128 0x2e
 2818 014f 01       		.byte	0x1
 2819 0150 3F       		.uleb128 0x3f
 2820 0151 19       		.uleb128 0x19
 2821 0152 03       		.uleb128 0x3
 2822 0153 0E       		.uleb128 0xe
 2823 0154 3A       		.uleb128 0x3a
 2824 0155 0B       		.uleb128 0xb
 2825 0156 3B       		.uleb128 0x3b
 2826 0157 0B       		.uleb128 0xb
 2827 0158 27       		.uleb128 0x27
 2828 0159 19       		.uleb128 0x19
 2829 015a 11       		.uleb128 0x11
 2830 015b 01       		.uleb128 0x1
 2831 015c 12       		.uleb128 0x12
 2832 015d 06       		.uleb128 0x6
 2833 015e 40       		.uleb128 0x40
 2834 015f 18       		.uleb128 0x18
 2835 0160 9742     		.uleb128 0x2117
 2836 0162 19       		.uleb128 0x19
 2837 0163 01       		.uleb128 0x1
 2838 0164 13       		.uleb128 0x13
 2839 0165 00       		.byte	0
 2840 0166 00       		.byte	0
 2841 0167 1A       		.uleb128 0x1a
 2842 0168 2E       		.uleb128 0x2e
ARM GAS  /tmp/ccjcRCPv.s 			page 51


 2843 0169 01       		.byte	0x1
 2844 016a 3F       		.uleb128 0x3f
 2845 016b 19       		.uleb128 0x19
 2846 016c 03       		.uleb128 0x3
 2847 016d 0E       		.uleb128 0xe
 2848 016e 3A       		.uleb128 0x3a
 2849 016f 0B       		.uleb128 0xb
 2850 0170 3B       		.uleb128 0x3b
 2851 0171 0B       		.uleb128 0xb
 2852 0172 27       		.uleb128 0x27
 2853 0173 19       		.uleb128 0x19
 2854 0174 11       		.uleb128 0x11
 2855 0175 01       		.uleb128 0x1
 2856 0176 12       		.uleb128 0x12
 2857 0177 06       		.uleb128 0x6
 2858 0178 40       		.uleb128 0x40
 2859 0179 18       		.uleb128 0x18
 2860 017a 9642     		.uleb128 0x2116
 2861 017c 19       		.uleb128 0x19
 2862 017d 01       		.uleb128 0x1
 2863 017e 13       		.uleb128 0x13
 2864 017f 00       		.byte	0
 2865 0180 00       		.byte	0
 2866 0181 1B       		.uleb128 0x1b
 2867 0182 2E       		.uleb128 0x2e
 2868 0183 01       		.byte	0x1
 2869 0184 3F       		.uleb128 0x3f
 2870 0185 19       		.uleb128 0x19
 2871 0186 03       		.uleb128 0x3
 2872 0187 0E       		.uleb128 0xe
 2873 0188 3A       		.uleb128 0x3a
 2874 0189 0B       		.uleb128 0xb
 2875 018a 3B       		.uleb128 0x3b
 2876 018b 0B       		.uleb128 0xb
 2877 018c 27       		.uleb128 0x27
 2878 018d 19       		.uleb128 0x19
 2879 018e 49       		.uleb128 0x49
 2880 018f 13       		.uleb128 0x13
 2881 0190 11       		.uleb128 0x11
 2882 0191 01       		.uleb128 0x1
 2883 0192 12       		.uleb128 0x12
 2884 0193 06       		.uleb128 0x6
 2885 0194 40       		.uleb128 0x40
 2886 0195 18       		.uleb128 0x18
 2887 0196 9642     		.uleb128 0x2116
 2888 0198 19       		.uleb128 0x19
 2889 0199 01       		.uleb128 0x1
 2890 019a 13       		.uleb128 0x13
 2891 019b 00       		.byte	0
 2892 019c 00       		.byte	0
 2893 019d 1C       		.uleb128 0x1c
 2894 019e 0B       		.uleb128 0xb
 2895 019f 01       		.byte	0x1
 2896 01a0 11       		.uleb128 0x11
 2897 01a1 01       		.uleb128 0x1
 2898 01a2 12       		.uleb128 0x12
 2899 01a3 06       		.uleb128 0x6
ARM GAS  /tmp/ccjcRCPv.s 			page 52


 2900 01a4 01       		.uleb128 0x1
 2901 01a5 13       		.uleb128 0x13
 2902 01a6 00       		.byte	0
 2903 01a7 00       		.byte	0
 2904 01a8 1D       		.uleb128 0x1d
 2905 01a9 0B       		.uleb128 0xb
 2906 01aa 01       		.byte	0x1
 2907 01ab 11       		.uleb128 0x11
 2908 01ac 01       		.uleb128 0x1
 2909 01ad 12       		.uleb128 0x12
 2910 01ae 06       		.uleb128 0x6
 2911 01af 00       		.byte	0
 2912 01b0 00       		.byte	0
 2913 01b1 1E       		.uleb128 0x1e
 2914 01b2 2E       		.uleb128 0x2e
 2915 01b3 01       		.byte	0x1
 2916 01b4 3F       		.uleb128 0x3f
 2917 01b5 19       		.uleb128 0x19
 2918 01b6 03       		.uleb128 0x3
 2919 01b7 0E       		.uleb128 0xe
 2920 01b8 3A       		.uleb128 0x3a
 2921 01b9 0B       		.uleb128 0xb
 2922 01ba 3B       		.uleb128 0x3b
 2923 01bb 05       		.uleb128 0x5
 2924 01bc 27       		.uleb128 0x27
 2925 01bd 19       		.uleb128 0x19
 2926 01be 11       		.uleb128 0x11
 2927 01bf 01       		.uleb128 0x1
 2928 01c0 12       		.uleb128 0x12
 2929 01c1 06       		.uleb128 0x6
 2930 01c2 40       		.uleb128 0x40
 2931 01c3 18       		.uleb128 0x18
 2932 01c4 9742     		.uleb128 0x2117
 2933 01c6 19       		.uleb128 0x19
 2934 01c7 01       		.uleb128 0x1
 2935 01c8 13       		.uleb128 0x13
 2936 01c9 00       		.byte	0
 2937 01ca 00       		.byte	0
 2938 01cb 1F       		.uleb128 0x1f
 2939 01cc 05       		.uleb128 0x5
 2940 01cd 00       		.byte	0
 2941 01ce 03       		.uleb128 0x3
 2942 01cf 08       		.uleb128 0x8
 2943 01d0 3A       		.uleb128 0x3a
 2944 01d1 0B       		.uleb128 0xb
 2945 01d2 3B       		.uleb128 0x3b
 2946 01d3 05       		.uleb128 0x5
 2947 01d4 49       		.uleb128 0x49
 2948 01d5 13       		.uleb128 0x13
 2949 01d6 02       		.uleb128 0x2
 2950 01d7 18       		.uleb128 0x18
 2951 01d8 00       		.byte	0
 2952 01d9 00       		.byte	0
 2953 01da 20       		.uleb128 0x20
 2954 01db 05       		.uleb128 0x5
 2955 01dc 00       		.byte	0
 2956 01dd 03       		.uleb128 0x3
ARM GAS  /tmp/ccjcRCPv.s 			page 53


 2957 01de 0E       		.uleb128 0xe
 2958 01df 3A       		.uleb128 0x3a
 2959 01e0 0B       		.uleb128 0xb
 2960 01e1 3B       		.uleb128 0x3b
 2961 01e2 05       		.uleb128 0x5
 2962 01e3 49       		.uleb128 0x49
 2963 01e4 13       		.uleb128 0x13
 2964 01e5 02       		.uleb128 0x2
 2965 01e6 18       		.uleb128 0x18
 2966 01e7 00       		.byte	0
 2967 01e8 00       		.byte	0
 2968 01e9 21       		.uleb128 0x21
 2969 01ea 2E       		.uleb128 0x2e
 2970 01eb 01       		.byte	0x1
 2971 01ec 3F       		.uleb128 0x3f
 2972 01ed 19       		.uleb128 0x19
 2973 01ee 03       		.uleb128 0x3
 2974 01ef 0E       		.uleb128 0xe
 2975 01f0 3A       		.uleb128 0x3a
 2976 01f1 0B       		.uleb128 0xb
 2977 01f2 3B       		.uleb128 0x3b
 2978 01f3 05       		.uleb128 0x5
 2979 01f4 27       		.uleb128 0x27
 2980 01f5 19       		.uleb128 0x19
 2981 01f6 11       		.uleb128 0x11
 2982 01f7 01       		.uleb128 0x1
 2983 01f8 12       		.uleb128 0x12
 2984 01f9 06       		.uleb128 0x6
 2985 01fa 40       		.uleb128 0x40
 2986 01fb 18       		.uleb128 0x18
 2987 01fc 9642     		.uleb128 0x2116
 2988 01fe 19       		.uleb128 0x19
 2989 01ff 01       		.uleb128 0x1
 2990 0200 13       		.uleb128 0x13
 2991 0201 00       		.byte	0
 2992 0202 00       		.byte	0
 2993 0203 22       		.uleb128 0x22
 2994 0204 2E       		.uleb128 0x2e
 2995 0205 01       		.byte	0x1
 2996 0206 3F       		.uleb128 0x3f
 2997 0207 19       		.uleb128 0x19
 2998 0208 03       		.uleb128 0x3
 2999 0209 0E       		.uleb128 0xe
 3000 020a 3A       		.uleb128 0x3a
 3001 020b 0B       		.uleb128 0xb
 3002 020c 3B       		.uleb128 0x3b
 3003 020d 05       		.uleb128 0x5
 3004 020e 27       		.uleb128 0x27
 3005 020f 19       		.uleb128 0x19
 3006 0210 49       		.uleb128 0x49
 3007 0211 13       		.uleb128 0x13
 3008 0212 11       		.uleb128 0x11
 3009 0213 01       		.uleb128 0x1
 3010 0214 12       		.uleb128 0x12
 3011 0215 06       		.uleb128 0x6
 3012 0216 40       		.uleb128 0x40
 3013 0217 18       		.uleb128 0x18
ARM GAS  /tmp/ccjcRCPv.s 			page 54


 3014 0218 9642     		.uleb128 0x2116
 3015 021a 19       		.uleb128 0x19
 3016 021b 01       		.uleb128 0x1
 3017 021c 13       		.uleb128 0x13
 3018 021d 00       		.byte	0
 3019 021e 00       		.byte	0
 3020 021f 23       		.uleb128 0x23
 3021 0220 34       		.uleb128 0x34
 3022 0221 00       		.byte	0
 3023 0222 03       		.uleb128 0x3
 3024 0223 08       		.uleb128 0x8
 3025 0224 3A       		.uleb128 0x3a
 3026 0225 0B       		.uleb128 0xb
 3027 0226 3B       		.uleb128 0x3b
 3028 0227 05       		.uleb128 0x5
 3029 0228 49       		.uleb128 0x49
 3030 0229 13       		.uleb128 0x13
 3031 022a 02       		.uleb128 0x2
 3032 022b 18       		.uleb128 0x18
 3033 022c 00       		.byte	0
 3034 022d 00       		.byte	0
 3035 022e 24       		.uleb128 0x24
 3036 022f 34       		.uleb128 0x34
 3037 0230 00       		.byte	0
 3038 0231 03       		.uleb128 0x3
 3039 0232 0E       		.uleb128 0xe
 3040 0233 3A       		.uleb128 0x3a
 3041 0234 0B       		.uleb128 0xb
 3042 0235 3B       		.uleb128 0x3b
 3043 0236 0B       		.uleb128 0xb
 3044 0237 49       		.uleb128 0x49
 3045 0238 13       		.uleb128 0x13
 3046 0239 3F       		.uleb128 0x3f
 3047 023a 19       		.uleb128 0x19
 3048 023b 3C       		.uleb128 0x3c
 3049 023c 19       		.uleb128 0x19
 3050 023d 00       		.byte	0
 3051 023e 00       		.byte	0
 3052 023f 00       		.byte	0
 3053              		.section	.debug_aranges,"",%progbits
 3054 0000 1C000000 		.4byte	0x1c
 3055 0004 0200     		.2byte	0x2
 3056 0006 00000000 		.4byte	.Ldebug_info0
 3057 000a 04       		.byte	0x4
 3058 000b 00       		.byte	0
 3059 000c 0000     		.2byte	0
 3060 000e 0000     		.2byte	0
 3061 0010 00000000 		.4byte	.Ltext0
 3062 0014 A8050000 		.4byte	.Letext0-.Ltext0
 3063 0018 00000000 		.4byte	0
 3064 001c 00000000 		.4byte	0
 3065              		.section	.debug_line,"",%progbits
 3066              	.Ldebug_line0:
 3067 0000 1A030000 		.section	.debug_str,"MS",%progbits,1
 3067      02001D02 
 3067      00000201 
 3067      FB0E0D00 
ARM GAS  /tmp/ccjcRCPv.s 			page 55


 3067      01010101 
 3068              	.LASF93:
 3069 0000 63684F51 		.ascii	"chOQInit\000"
 3069      496E6974 
 3069      00
 3070              	.LASF42:
 3071 0009 705F6D73 		.ascii	"p_msg\000"
 3071      6700
 3072              	.LASF101:
 3073 000f 71756575 		.ascii	"queue_insert\000"
 3073      655F696E 
 3073      73657274 
 3073      00
 3074              	.LASF94:
 3075 001c 6F6E6679 		.ascii	"onfy\000"
 3075      00
 3076              	.LASF2:
 3077 0021 73697A65 		.ascii	"size_t\000"
 3077      5F7400
 3078              	.LASF65:
 3079 0028 7264796D 		.ascii	"rdymsg\000"
 3079      736700
 3080              	.LASF88:
 3081 002f 63684951 		.ascii	"chIQInit\000"
 3081      496E6974 
 3081      00
 3082              	.LASF17:
 3083 0038 75696E74 		.ascii	"uint64_t\000"
 3083      36345F74 
 3083      00
 3084              	.LASF81:
 3085 0041 4F757470 		.ascii	"OutputQueue\000"
 3085      75745175 
 3085      65756500 
 3086              	.LASF3:
 3087 004d 5F5F7569 		.ascii	"__uint8_t\000"
 3087      6E74385F 
 3087      7400
 3088              	.LASF92:
 3089 0057 63684951 		.ascii	"chIQReadTimeout\000"
 3089      52656164 
 3089      54696D65 
 3089      6F757400 
 3090              	.LASF13:
 3091 0067 6C6F6E67 		.ascii	"long long unsigned int\000"
 3091      206C6F6E 
 3091      6720756E 
 3091      7369676E 
 3091      65642069 
 3092              	.LASF66:
 3093 007e 65786974 		.ascii	"exitcode\000"
 3093      636F6465 
 3093      00
 3094              	.LASF30:
 3095 0087 705F7072 		.ascii	"p_prio\000"
 3095      696F00
 3096              	.LASF71:
ARM GAS  /tmp/ccjcRCPv.s 			page 56


 3097 008e 715F7761 		.ascii	"q_waiting\000"
 3097      6974696E 
 3097      6700
 3098              	.LASF11:
 3099 0098 6C6F6E67 		.ascii	"long long int\000"
 3099      206C6F6E 
 3099      6720696E 
 3099      7400
 3100              	.LASF1:
 3101 00a6 7369676E 		.ascii	"signed char\000"
 3101      65642063 
 3101      68617200 
 3102              	.LASF46:
 3103 00b2 705F6D70 		.ascii	"p_mpool\000"
 3103      6F6F6C00 
 3104              	.LASF18:
 3105 00ba 626F6F6C 		.ascii	"bool_t\000"
 3105      5F7400
 3106              	.LASF62:
 3107 00c1 6D5F7175 		.ascii	"m_queue\000"
 3107      65756500 
 3108              	.LASF83:
 3109 00c9 71776169 		.ascii	"qwait\000"
 3109      7400
 3110              	.LASF8:
 3111 00cf 6C6F6E67 		.ascii	"long int\000"
 3111      20696E74 
 3111      00
 3112              	.LASF21:
 3113 00d8 74737461 		.ascii	"tstate_t\000"
 3113      74655F74 
 3113      00
 3114              	.LASF97:
 3115 00e1 63684F51 		.ascii	"chOQGetI\000"
 3115      47657449 
 3115      00
 3116              	.LASF73:
 3117 00ea 715F6275 		.ascii	"q_buffer\000"
 3117      66666572 
 3117      00
 3118              	.LASF75:
 3119 00f3 715F7772 		.ascii	"q_wrptr\000"
 3119      70747200 
 3120              	.LASF32:
 3121 00fb 705F6E65 		.ascii	"p_newer\000"
 3121      77657200 
 3122              	.LASF9:
 3123 0103 5F5F7569 		.ascii	"__uint32_t\000"
 3123      6E743332 
 3123      5F7400
 3124              	.LASF49:
 3125 010e 72656761 		.ascii	"regarm_t\000"
 3125      726D5F74 
 3125      00
 3126              	.LASF87:
 3127 0117 6C696E6B 		.ascii	"link\000"
 3127      00
ARM GAS  /tmp/ccjcRCPv.s 			page 57


 3128              	.LASF96:
 3129 011c 63684F51 		.ascii	"chOQPutTimeout\000"
 3129      50757454 
 3129      696D656F 
 3129      757400
 3130              	.LASF90:
 3131 012b 63684951 		.ascii	"chIQPutI\000"
 3131      50757449 
 3131      00
 3132              	.LASF35:
 3133 0134 705F7374 		.ascii	"p_stklimit\000"
 3133      6B6C696D 
 3133      697400
 3134              	.LASF0:
 3135 013f 756E7369 		.ascii	"unsigned int\000"
 3135      676E6564 
 3135      20696E74 
 3135      00
 3136              	.LASF89:
 3137 014c 63684951 		.ascii	"chIQResetI\000"
 3137      52657365 
 3137      744900
 3138              	.LASF10:
 3139 0157 6C6F6E67 		.ascii	"long unsigned int\000"
 3139      20756E73 
 3139      69676E65 
 3139      6420696E 
 3139      7400
 3140              	.LASF52:
 3141 0169 636F6E74 		.ascii	"context\000"
 3141      65787400 
 3142              	.LASF85:
 3143 0171 73697A65 		.ascii	"size\000"
 3143      00
 3144              	.LASF6:
 3145 0176 73686F72 		.ascii	"short unsigned int\000"
 3145      7420756E 
 3145      7369676E 
 3145      65642069 
 3145      6E7400
 3146              	.LASF24:
 3147 0189 6D73675F 		.ascii	"msg_t\000"
 3147      7400
 3148              	.LASF57:
 3149 018f 725F6E65 		.ascii	"r_newer\000"
 3149      77657200 
 3150              	.LASF20:
 3151 0197 746D6F64 		.ascii	"tmode_t\000"
 3151      655F7400 
 3152              	.LASF48:
 3153 019f 54687265 		.ascii	"ThreadsList\000"
 3153      6164734C 
 3153      69737400 
 3154              	.LASF25:
 3155 01ab 6576656E 		.ascii	"eventmask_t\000"
 3155      746D6173 
 3155      6B5F7400 
ARM GAS  /tmp/ccjcRCPv.s 			page 58


 3156              	.LASF80:
 3157 01b7 496E7075 		.ascii	"InputQueue\000"
 3157      74517565 
 3157      756500
 3158              	.LASF61:
 3159 01c2 4D757465 		.ascii	"Mutex\000"
 3159      7800
 3160              	.LASF70:
 3161 01c8 47656E65 		.ascii	"GenericQueue\000"
 3161      72696351 
 3161      75657565 
 3161      00
 3162              	.LASF50:
 3163 01d5 73746B61 		.ascii	"stkalign_t\000"
 3163      6C69676E 
 3163      5F7400
 3164              	.LASF98:
 3165 01e0 63684F51 		.ascii	"chOQWriteTimeout\000"
 3165      57726974 
 3165      6554696D 
 3165      656F7574 
 3165      00
 3166              	.LASF53:
 3167 01f1 73697A65 		.ascii	"sizetype\000"
 3167      74797065 
 3167      00
 3168              	.LASF72:
 3169 01fa 715F636F 		.ascii	"q_counter\000"
 3169      756E7465 
 3169      7200
 3170              	.LASF33:
 3171 0204 705F6F6C 		.ascii	"p_older\000"
 3171      64657200 
 3172              	.LASF56:
 3173 020c 725F6374 		.ascii	"r_ctx\000"
 3173      7800
 3174              	.LASF47:
 3175 0212 54687265 		.ascii	"ThreadsQueue\000"
 3175      61647351 
 3175      75657565 
 3175      00
 3176              	.LASF84:
 3177 021f 74696D65 		.ascii	"time\000"
 3177      00
 3178              	.LASF59:
 3179 0224 725F6375 		.ascii	"r_current\000"
 3179      7272656E 
 3179      7400
 3180              	.LASF58:
 3181 022e 725F6F6C 		.ascii	"r_older\000"
 3181      64657200 
 3182              	.LASF12:
 3183 0236 5F5F7569 		.ascii	"__uint64_t\000"
 3183      6E743634 
 3183      5F7400
 3184              	.LASF22:
 3185 0241 74726566 		.ascii	"trefs_t\000"
ARM GAS  /tmp/ccjcRCPv.s 			page 59


 3185      735F7400 
 3186              	.LASF79:
 3187 0249 716E6F74 		.ascii	"qnotify_t\000"
 3187      6966795F 
 3187      7400
 3188              	.LASF29:
 3189 0253 705F7072 		.ascii	"p_prev\000"
 3189      657600
 3190              	.LASF23:
 3191 025a 74707269 		.ascii	"tprio_t\000"
 3191      6F5F7400 
 3192              	.LASF76:
 3193 0262 715F7264 		.ascii	"q_rdptr\000"
 3193      70747200 
 3194              	.LASF19:
 3195 026a 5F426F6F 		.ascii	"_Bool\000"
 3195      6C00
 3196              	.LASF15:
 3197 0270 696E7433 		.ascii	"int32_t\000"
 3197      325F7400 
 3198              	.LASF4:
 3199 0278 756E7369 		.ascii	"unsigned char\000"
 3199      676E6564 
 3199      20636861 
 3199      7200
 3200              	.LASF44:
 3201 0286 705F6D74 		.ascii	"p_mtxlist\000"
 3201      786C6973 
 3201      7400
 3202              	.LASF5:
 3203 0290 73686F72 		.ascii	"short int\000"
 3203      7420696E 
 3203      7400
 3204              	.LASF36:
 3205 029a 705F7374 		.ascii	"p_state\000"
 3205      61746500 
 3206              	.LASF55:
 3207 02a2 725F7072 		.ascii	"r_prio\000"
 3207      696F00
 3208              	.LASF68:
 3209 02a9 65776D61 		.ascii	"ewmask\000"
 3209      736B00
 3210              	.LASF28:
 3211 02b0 705F6E65 		.ascii	"p_next\000"
 3211      787400
 3212              	.LASF86:
 3213 02b7 696E6679 		.ascii	"infy\000"
 3213      00
 3214              	.LASF37:
 3215 02bc 705F666C 		.ascii	"p_flags\000"
 3215      61677300 
 3216              	.LASF27:
 3217 02c4 54687265 		.ascii	"Thread\000"
 3217      616400
 3218              	.LASF43:
 3219 02cb 705F6570 		.ascii	"p_epending\000"
 3219      656E6469 
ARM GAS  /tmp/ccjcRCPv.s 			page 60


 3219      6E6700
 3220              	.LASF16:
 3221 02d6 75696E74 		.ascii	"uint32_t\000"
 3221      33325F74 
 3221      00
 3222              	.LASF54:
 3223 02df 725F7175 		.ascii	"r_queue\000"
 3223      65756500 
 3224              	.LASF99:
 3225 02e7 474E5520 		.ascii	"GNU C 4.9.3 20141119 (release) [ARM/embedded-4_9-br"
 3225      4320342E 
 3225      392E3320 
 3225      32303134 
 3225      31313139 
 3226 031a 616E6368 		.ascii	"anch revision 218278] -mcpu=cortex-m4 -mno-thumb-in"
 3226      20726576 
 3226      6973696F 
 3226      6E203231 
 3226      38323738 
 3227 034d 74657277 		.ascii	"terwork -mthumb -ggdb -O0 -fomit-frame-pointer\000"
 3227      6F726B20 
 3227      2D6D7468 
 3227      756D6220 
 3227      2D676764 
 3228              	.LASF69:
 3229 037c 63686172 		.ascii	"char\000"
 3229      00
 3230              	.LASF82:
 3231 0381 6669666F 		.ascii	"fifo_remove\000"
 3231      5F72656D 
 3231      6F766500 
 3232              	.LASF64:
 3233 038d 6D5F6E65 		.ascii	"m_next\000"
 3233      787400
 3234              	.LASF26:
 3235 0394 73797374 		.ascii	"systime_t\000"
 3235      696D655F 
 3235      7400
 3236              	.LASF45:
 3237 039e 705F7265 		.ascii	"p_realprio\000"
 3237      616C7072 
 3237      696F00
 3238              	.LASF7:
 3239 03a9 5F5F696E 		.ascii	"__int32_t\000"
 3239      7433325F 
 3239      7400
 3240              	.LASF95:
 3241 03b3 63684F51 		.ascii	"chOQResetI\000"
 3241      52657365 
 3241      744900
 3242              	.LASF39:
 3243 03be 705F7469 		.ascii	"p_time\000"
 3243      6D6500
 3244              	.LASF51:
 3245 03c5 696E7463 		.ascii	"intctx\000"
 3245      747800
 3246              	.LASF41:
ARM GAS  /tmp/ccjcRCPv.s 			page 61


 3247 03cc 705F6D73 		.ascii	"p_msgqueue\000"
 3247      67717565 
 3247      756500
 3248              	.LASF74:
 3249 03d7 715F746F 		.ascii	"q_top\000"
 3249      7000
 3250              	.LASF38:
 3251 03dd 705F7265 		.ascii	"p_refs\000"
 3251      667300
 3252              	.LASF60:
 3253 03e4 52656164 		.ascii	"ReadyList\000"
 3253      794C6973 
 3253      7400
 3254              	.LASF77:
 3255 03ee 715F6E6F 		.ascii	"q_notify\000"
 3255      74696679 
 3255      00
 3256              	.LASF102:
 3257 03f7 726C6973 		.ascii	"rlist\000"
 3257      7400
 3258              	.LASF14:
 3259 03fd 75696E74 		.ascii	"uint8_t\000"
 3259      385F7400 
 3260              	.LASF67:
 3261 0405 77746F62 		.ascii	"wtobjp\000"
 3261      6A7000
 3262              	.LASF34:
 3263 040c 705F6E61 		.ascii	"p_name\000"
 3263      6D6500
 3264              	.LASF100:
 3265 0413 2F6F7074 		.ascii	"/opt/R2P/core/ChibiOS_2.6.5/os/kernel/src/chqueues."
 3265      2F523250 
 3265      2F636F72 
 3265      652F4368 
 3265      6962694F 
 3266 0446 6300     		.ascii	"c\000"
 3267              	.LASF78:
 3268 0448 715F6C69 		.ascii	"q_link\000"
 3268      6E6B00
 3269              	.LASF63:
 3270 044f 6D5F6F77 		.ascii	"m_owner\000"
 3270      6E657200 
 3271              	.LASF31:
 3272 0457 705F6374 		.ascii	"p_ctx\000"
 3272      7800
 3273              	.LASF40:
 3274 045d 705F7761 		.ascii	"p_waiting\000"
 3274      6974696E 
 3274      6700
 3275              	.LASF91:
 3276 0467 63684951 		.ascii	"chIQGetTimeout\000"
 3276      47657454 
 3276      696D656F 
 3276      757400
 3277              		.ident	"GCC: (GNU Tools for ARM Embedded Processors) 4.9.3 20141119 (release) [ARM/embedded-4_9-br
ARM GAS  /tmp/ccjcRCPv.s 			page 62


DEFINED SYMBOLS
                            *ABS*:00000000 chqueues.c
     /tmp/ccjcRCPv.s:18     .text:00000000 $t
     /tmp/ccjcRCPv.s:22     .text:00000000 queue_insert
     /tmp/ccjcRCPv.s:64     .text:00000028 fifo_remove
     /tmp/ccjcRCPv.s:102    .text:0000004c qwait
     /tmp/ccjcRCPv.s:151    .text:00000088 $d
     /tmp/ccjcRCPv.s:155    .text:0000008c $t
     /tmp/ccjcRCPv.s:160    .text:0000008c chIQInit
     /tmp/ccjcRCPv.s:224    .text:000000dc chIQResetI
     /tmp/ccjcRCPv.s:284    .text:00000128 chIQPutI
     /tmp/ccjcRCPv.s:389    .text:000001bc chIQGetTimeout
     /tmp/ccjcRCPv.s:502    .rodata:00000000 $d
     /tmp/ccjcRCPv.s:511    .text:0000024c chIQReadTimeout
     /tmp/ccjcRCPv.s:663    .text:00000310 $d
     /tmp/ccjcRCPv.s:667    .text:00000314 $t
     /tmp/ccjcRCPv.s:672    .text:00000314 chOQInit
     /tmp/ccjcRCPv.s:736    .text:00000364 chOQResetI
     /tmp/ccjcRCPv.s:802    .text:000003bc chOQPutTimeout
     /tmp/ccjcRCPv.s:921    .text:00000450 chOQGetI
     /tmp/ccjcRCPv.s:1029   .text:000004e0 chOQWriteTimeout
     /tmp/ccjcRCPv.s:1181   .text:000005a4 $d
                     .debug_frame:00000010 $d

UNDEFINED SYMBOLS
chSchGoSleepTimeoutS
rlist
chDbgCheckClassI
chSchReadyI
dbg_check_lock
dbg_check_unlock
chDbgPanic
