ARM GAS  /tmp/ccjcRCPv.s 			page 1


   1              		.syntax unified
   2              		.cpu cortex-m4
   3              		.fpu softvfp
   4              		.eabi_attribute 20, 1
   5              		.eabi_attribute 21, 1
   6              		.eabi_attribute 23, 3
   7              		.eabi_attribute 24, 1
   8              		.eabi_attribute 25, 1
   9              		.eabi_attribute 26, 1
  10              		.eabi_attribute 30, 6
  11              		.eabi_attribute 34, 1
  12              		.eabi_attribute 18, 4
  13              		.thumb
  14              		.file	"chqueues.c"
  15              		.text
  16              	.Ltext0:
  17              		.cfi_sections	.debug_frame
  18              		.align	2
  19              		.thumb
  20              		.thumb_func
  21              		.type	queue_insert, %function
  22              	queue_insert:
  23              	.LFB1:
  24              		.file 1 "/opt/R2P/core/ChibiOS_2.6.5/os/kernel/include/chinline.h"
  25              		.loc 1 52 0
  26              		.cfi_startproc
  27              		@ args = 0, pretend = 0, frame = 8
  28              		@ frame_needed = 0, uses_anonymous_args = 0
  29              		@ link register save eliminated.
  30 0000 82B0     		sub	sp, sp, #8
  31              		.cfi_def_cfa_offset 8
  32 0002 0190     		str	r0, [sp, #4]
  33 0004 0091     		str	r1, [sp]
  34              		.loc 1 54 0
  35 0006 019B     		ldr	r3, [sp, #4]
  36 0008 009A     		ldr	r2, [sp]
  37 000a 1A60     		str	r2, [r3]
  38              		.loc 1 55 0
  39 000c 009B     		ldr	r3, [sp]
  40 000e 5A68     		ldr	r2, [r3, #4]
  41 0010 019B     		ldr	r3, [sp, #4]
  42 0012 5A60     		str	r2, [r3, #4]
  43              		.loc 1 56 0
  44 0014 019B     		ldr	r3, [sp, #4]
  45 0016 5B68     		ldr	r3, [r3, #4]
  46 0018 009A     		ldr	r2, [sp]
  47 001a 0199     		ldr	r1, [sp, #4]
  48 001c 5160     		str	r1, [r2, #4]
  49 001e 009A     		ldr	r2, [sp]
  50 0020 5268     		ldr	r2, [r2, #4]
  51 0022 1A60     		str	r2, [r3]
  52              		.loc 1 57 0
  53 0024 02B0     		add	sp, sp, #8
  54              		.cfi_def_cfa_offset 0
  55              		@ sp needed
  56 0026 7047     		bx	lr
  57              		.cfi_endproc
ARM GAS  /tmp/ccjcRCPv.s 			page 2


  58              	.LFE1:
  59              		.size	queue_insert, .-queue_insert
  60              		.align	2
  61              		.thumb
  62              		.thumb_func
  63              		.type	fifo_remove, %function
  64              	fifo_remove:
  65              	.LFB2:
  66              		.loc 1 59 0
  67              		.cfi_startproc
  68              		@ args = 0, pretend = 0, frame = 16
  69              		@ frame_needed = 0, uses_anonymous_args = 0
  70              		@ link register save eliminated.
  71 0028 84B0     		sub	sp, sp, #16
  72              		.cfi_def_cfa_offset 16
  73 002a 0190     		str	r0, [sp, #4]
  74              		.loc 1 60 0
  75 002c 019B     		ldr	r3, [sp, #4]
  76 002e 1B68     		ldr	r3, [r3]
  77 0030 0393     		str	r3, [sp, #12]
  78              		.loc 1 62 0
  79 0032 039B     		ldr	r3, [sp, #12]
  80 0034 1A68     		ldr	r2, [r3]
  81 0036 019B     		ldr	r3, [sp, #4]
  82 0038 1A60     		str	r2, [r3]
  83 003a 019B     		ldr	r3, [sp, #4]
  84 003c 1B68     		ldr	r3, [r3]
  85 003e 019A     		ldr	r2, [sp, #4]
  86 0040 5A60     		str	r2, [r3, #4]
  87              		.loc 1 63 0
  88 0042 039B     		ldr	r3, [sp, #12]
  89              		.loc 1 64 0
  90 0044 1846     		mov	r0, r3
  91 0046 04B0     		add	sp, sp, #16
  92              		.cfi_def_cfa_offset 0
  93              		@ sp needed
  94 0048 7047     		bx	lr
  95              		.cfi_endproc
  96              	.LFE2:
  97              		.size	fifo_remove, .-fifo_remove
  98 004a 00BF     		.align	2
  99              		.thumb
 100              		.thumb_func
 101              		.type	qwait, %function
 102              	qwait:
 103              	.LFB7:
 104              		.file 2 "/opt/R2P/core/ChibiOS_2.6.5/os/kernel/src/chqueues.c"
 105              		.loc 2 70 0
 106              		.cfi_startproc
 107              		@ args = 0, pretend = 0, frame = 8
 108              		@ frame_needed = 0, uses_anonymous_args = 0
 109 004c 00B5     		push	{lr}
 110              		.cfi_def_cfa_offset 4
 111              		.cfi_offset 14, -4
 112 004e 83B0     		sub	sp, sp, #12
 113              		.cfi_def_cfa_offset 16
 114 0050 0190     		str	r0, [sp, #4]
ARM GAS  /tmp/ccjcRCPv.s 			page 3


 115 0052 0091     		str	r1, [sp]
 116              		.loc 2 72 0
 117 0054 009B     		ldr	r3, [sp]
 118 0056 002B     		cmp	r3, #0
 119 0058 02D1     		bne	.L5
 120              		.loc 2 73 0
 121 005a 4FF0FF33 		mov	r3, #-1
 122 005e 0FE0     		b	.L6
 123              	.L5:
 124              		.loc 2 74 0
 125 0060 094B     		ldr	r3, .L7
 126 0062 9B69     		ldr	r3, [r3, #24]
 127 0064 019A     		ldr	r2, [sp, #4]
 128 0066 9A62     		str	r2, [r3, #40]
 129              		.loc 2 75 0
 130 0068 074B     		ldr	r3, .L7
 131 006a 9A69     		ldr	r2, [r3, #24]
 132 006c 019B     		ldr	r3, [sp, #4]
 133 006e 1046     		mov	r0, r2
 134 0070 1946     		mov	r1, r3
 135 0072 FFF7C5FF 		bl	queue_insert
 136              		.loc 2 76 0
 137 0076 0D20     		movs	r0, #13
 138 0078 0099     		ldr	r1, [sp]
 139 007a FFF7FEFF 		bl	chSchGoSleepTimeoutS
 140 007e 0346     		mov	r3, r0
 141              	.L6:
 142              		.loc 2 77 0
 143 0080 1846     		mov	r0, r3
 144 0082 03B0     		add	sp, sp, #12
 145              		.cfi_def_cfa_offset 4
 146              		@ sp needed
 147 0084 5DF804FB 		ldr	pc, [sp], #4
 148              	.L8:
 149              		.align	2
 150              	.L7:
 151 0088 00000000 		.word	rlist
 152              		.cfi_endproc
 153              	.LFE7:
 154              		.size	qwait, .-qwait
 155              		.align	2
 156              		.global	chIQInit
 157              		.thumb
 158              		.thumb_func
 159              		.type	chIQInit, %function
 160              	chIQInit:
 161              	.LFB8:
 162              		.loc 2 96 0
 163              		.cfi_startproc
 164              		@ args = 4, pretend = 0, frame = 16
 165              		@ frame_needed = 0, uses_anonymous_args = 0
 166              		@ link register save eliminated.
 167 008c 84B0     		sub	sp, sp, #16
 168              		.cfi_def_cfa_offset 16
 169 008e 0390     		str	r0, [sp, #12]
 170 0090 0291     		str	r1, [sp, #8]
 171 0092 0192     		str	r2, [sp, #4]
ARM GAS  /tmp/ccjcRCPv.s 			page 4


 172 0094 0093     		str	r3, [sp]
 173              		.loc 2 98 0
 174 0096 039A     		ldr	r2, [sp, #12]
 175 0098 039B     		ldr	r3, [sp, #12]
 176 009a 5A60     		str	r2, [r3, #4]
 177 009c 039B     		ldr	r3, [sp, #12]
 178 009e 5A68     		ldr	r2, [r3, #4]
 179 00a0 039B     		ldr	r3, [sp, #12]
 180 00a2 1A60     		str	r2, [r3]
 181              		.loc 2 99 0
 182 00a4 039B     		ldr	r3, [sp, #12]
 183 00a6 0022     		movs	r2, #0
 184 00a8 9A60     		str	r2, [r3, #8]
 185              		.loc 2 100 0
 186 00aa 039B     		ldr	r3, [sp, #12]
 187 00ac 029A     		ldr	r2, [sp, #8]
 188 00ae 5A61     		str	r2, [r3, #20]
 189 00b0 039B     		ldr	r3, [sp, #12]
 190 00b2 5A69     		ldr	r2, [r3, #20]
 191 00b4 039B     		ldr	r3, [sp, #12]
 192 00b6 9A61     		str	r2, [r3, #24]
 193 00b8 039B     		ldr	r3, [sp, #12]
 194 00ba 9A69     		ldr	r2, [r3, #24]
 195 00bc 039B     		ldr	r3, [sp, #12]
 196 00be DA60     		str	r2, [r3, #12]
 197              		.loc 2 101 0
 198 00c0 029A     		ldr	r2, [sp, #8]
 199 00c2 019B     		ldr	r3, [sp, #4]
 200 00c4 1A44     		add	r2, r2, r3
 201 00c6 039B     		ldr	r3, [sp, #12]
 202 00c8 1A61     		str	r2, [r3, #16]
 203              		.loc 2 102 0
 204 00ca 039B     		ldr	r3, [sp, #12]
 205 00cc 009A     		ldr	r2, [sp]
 206 00ce DA61     		str	r2, [r3, #28]
 207              		.loc 2 103 0
 208 00d0 039B     		ldr	r3, [sp, #12]
 209 00d2 049A     		ldr	r2, [sp, #16]
 210 00d4 1A62     		str	r2, [r3, #32]
 211              		.loc 2 104 0
 212 00d6 04B0     		add	sp, sp, #16
 213              		.cfi_def_cfa_offset 0
 214              		@ sp needed
 215 00d8 7047     		bx	lr
 216              		.cfi_endproc
 217              	.LFE8:
 218              		.size	chIQInit, .-chIQInit
 219 00da 00BF     		.align	2
 220              		.global	chIQResetI
 221              		.thumb
 222              		.thumb_func
 223              		.type	chIQResetI, %function
 224              	chIQResetI:
 225              	.LFB9:
 226              		.loc 2 117 0
 227              		.cfi_startproc
 228              		@ args = 0, pretend = 0, frame = 8
ARM GAS  /tmp/ccjcRCPv.s 			page 5


 229              		@ frame_needed = 0, uses_anonymous_args = 0
 230 00dc 00B5     		push	{lr}
 231              		.cfi_def_cfa_offset 4
 232              		.cfi_offset 14, -4
 233 00de 83B0     		sub	sp, sp, #12
 234              		.cfi_def_cfa_offset 16
 235 00e0 0190     		str	r0, [sp, #4]
 236              		.loc 2 119 0
 237 00e2 FFF7FEFF 		bl	chDbgCheckClassI
 238              		.loc 2 121 0
 239 00e6 019B     		ldr	r3, [sp, #4]
 240 00e8 DA68     		ldr	r2, [r3, #12]
 241 00ea 019B     		ldr	r3, [sp, #4]
 242 00ec 5A61     		str	r2, [r3, #20]
 243 00ee 019B     		ldr	r3, [sp, #4]
 244 00f0 5A69     		ldr	r2, [r3, #20]
 245 00f2 019B     		ldr	r3, [sp, #4]
 246 00f4 9A61     		str	r2, [r3, #24]
 247              		.loc 2 122 0
 248 00f6 019B     		ldr	r3, [sp, #4]
 249 00f8 0022     		movs	r2, #0
 250 00fa 9A60     		str	r2, [r3, #8]
 251              		.loc 2 123 0
 252 00fc 0BE0     		b	.L11
 253              	.L12:
 254              		.loc 2 124 0
 255 00fe 019B     		ldr	r3, [sp, #4]
 256 0100 1846     		mov	r0, r3
 257 0102 FFF791FF 		bl	fifo_remove
 258 0106 0346     		mov	r3, r0
 259 0108 1846     		mov	r0, r3
 260 010a FFF7FEFF 		bl	chSchReadyI
 261 010e 0246     		mov	r2, r0
 262 0110 6FF00103 		mvn	r3, #1
 263 0114 9362     		str	r3, [r2, #40]
 264              	.L11:
 265              		.loc 2 123 0
 266 0116 019B     		ldr	r3, [sp, #4]
 267 0118 1A68     		ldr	r2, [r3]
 268 011a 019B     		ldr	r3, [sp, #4]
 269 011c 9A42     		cmp	r2, r3
 270 011e EED1     		bne	.L12
 271              		.loc 2 125 0
 272 0120 03B0     		add	sp, sp, #12
 273              		.cfi_def_cfa_offset 4
 274              		@ sp needed
 275 0122 5DF804FB 		ldr	pc, [sp], #4
 276              		.cfi_endproc
 277              	.LFE9:
 278              		.size	chIQResetI, .-chIQResetI
 279 0126 00BF     		.align	2
 280              		.global	chIQPutI
 281              		.thumb
 282              		.thumb_func
 283              		.type	chIQPutI, %function
 284              	chIQPutI:
 285              	.LFB10:
ARM GAS  /tmp/ccjcRCPv.s 			page 6


 286              		.loc 2 140 0
 287              		.cfi_startproc
 288              		@ args = 0, pretend = 0, frame = 8
 289              		@ frame_needed = 0, uses_anonymous_args = 0
 290 0128 00B5     		push	{lr}
 291              		.cfi_def_cfa_offset 4
 292              		.cfi_offset 14, -4
 293 012a 83B0     		sub	sp, sp, #12
 294              		.cfi_def_cfa_offset 16
 295 012c 0190     		str	r0, [sp, #4]
 296 012e 0B46     		mov	r3, r1
 297 0130 8DF80330 		strb	r3, [sp, #3]
 298              		.loc 2 142 0
 299 0134 FFF7FEFF 		bl	chDbgCheckClassI
 300              		.loc 2 144 0
 301 0138 019B     		ldr	r3, [sp, #4]
 302 013a 5A69     		ldr	r2, [r3, #20]
 303 013c 019B     		ldr	r3, [sp, #4]
 304 013e 9B69     		ldr	r3, [r3, #24]
 305 0140 9A42     		cmp	r2, r3
 306 0142 05D1     		bne	.L14
 307              		.loc 2 144 0 is_stmt 0 discriminator 1
 308 0144 019B     		ldr	r3, [sp, #4]
 309 0146 9B68     		ldr	r3, [r3, #8]
 310 0148 002B     		cmp	r3, #0
 311 014a 01D0     		beq	.L14
 312              		.loc 2 144 0 discriminator 3
 313 014c 0123     		movs	r3, #1
 314 014e 00E0     		b	.L15
 315              	.L14:
 316              		.loc 2 144 0 discriminator 4
 317 0150 0023     		movs	r3, #0
 318              	.L15:
 319              		.loc 2 144 0 discriminator 6
 320 0152 03F00103 		and	r3, r3, #1
 321 0156 DBB2     		uxtb	r3, r3
 322 0158 002B     		cmp	r3, #0
 323 015a 02D0     		beq	.L16
 324              		.loc 2 145 0 is_stmt 1
 325 015c 6FF00303 		mvn	r3, #3
 326 0160 27E0     		b	.L17
 327              	.L16:
 328              		.loc 2 147 0
 329 0162 019B     		ldr	r3, [sp, #4]
 330 0164 9B68     		ldr	r3, [r3, #8]
 331 0166 5A1C     		adds	r2, r3, #1
 332 0168 019B     		ldr	r3, [sp, #4]
 333 016a 9A60     		str	r2, [r3, #8]
 334              		.loc 2 148 0
 335 016c 019B     		ldr	r3, [sp, #4]
 336 016e 5B69     		ldr	r3, [r3, #20]
 337 0170 591C     		adds	r1, r3, #1
 338 0172 019A     		ldr	r2, [sp, #4]
 339 0174 5161     		str	r1, [r2, #20]
 340 0176 9DF80320 		ldrb	r2, [sp, #3]
 341 017a 1A70     		strb	r2, [r3]
 342              		.loc 2 149 0
ARM GAS  /tmp/ccjcRCPv.s 			page 7


 343 017c 019B     		ldr	r3, [sp, #4]
 344 017e 5A69     		ldr	r2, [r3, #20]
 345 0180 019B     		ldr	r3, [sp, #4]
 346 0182 1B69     		ldr	r3, [r3, #16]
 347 0184 9A42     		cmp	r2, r3
 348 0186 03D3     		bcc	.L18
 349              		.loc 2 150 0
 350 0188 019B     		ldr	r3, [sp, #4]
 351 018a DA68     		ldr	r2, [r3, #12]
 352 018c 019B     		ldr	r3, [sp, #4]
 353 018e 5A61     		str	r2, [r3, #20]
 354              	.L18:
 355              		.loc 2 152 0
 356 0190 019B     		ldr	r3, [sp, #4]
 357 0192 1A68     		ldr	r2, [r3]
 358 0194 019B     		ldr	r3, [sp, #4]
 359 0196 9A42     		cmp	r2, r3
 360 0198 0AD0     		beq	.L19
 361              		.loc 2 153 0
 362 019a 019B     		ldr	r3, [sp, #4]
 363 019c 1846     		mov	r0, r3
 364 019e FFF743FF 		bl	fifo_remove
 365 01a2 0346     		mov	r3, r0
 366 01a4 1846     		mov	r0, r3
 367 01a6 FFF7FEFF 		bl	chSchReadyI
 368 01aa 0246     		mov	r2, r0
 369 01ac 0023     		movs	r3, #0
 370 01ae 9362     		str	r3, [r2, #40]
 371              	.L19:
 372              		.loc 2 155 0
 373 01b0 0023     		movs	r3, #0
 374              	.L17:
 375              		.loc 2 156 0
 376 01b2 1846     		mov	r0, r3
 377 01b4 03B0     		add	sp, sp, #12
 378              		.cfi_def_cfa_offset 4
 379              		@ sp needed
 380 01b6 5DF804FB 		ldr	pc, [sp], #4
 381              		.cfi_endproc
 382              	.LFE10:
 383              		.size	chIQPutI, .-chIQPutI
 384 01ba 00BF     		.align	2
 385              		.global	chIQGetTimeout
 386              		.thumb
 387              		.thumb_func
 388              		.type	chIQGetTimeout, %function
 389              	chIQGetTimeout:
 390              	.LFB11:
 391              		.loc 2 178 0
 392              		.cfi_startproc
 393              		@ args = 0, pretend = 0, frame = 16
 394              		@ frame_needed = 0, uses_anonymous_args = 0
 395 01bc 00B5     		push	{lr}
 396              		.cfi_def_cfa_offset 4
 397              		.cfi_offset 14, -4
 398 01be 85B0     		sub	sp, sp, #20
 399              		.cfi_def_cfa_offset 24
ARM GAS  /tmp/ccjcRCPv.s 			page 8


 400 01c0 0190     		str	r0, [sp, #4]
 401 01c2 0091     		str	r1, [sp]
 402              	.LBB2:
 403              		.loc 2 181 0
 404 01c4 2023     		movs	r3, #32
 405              	@ 181 "/opt/R2P/core/ChibiOS_2.6.5/os/kernel/src/chqueues.c" 1
 406 01c6 83F31188 		msr     BASEPRI, r3
 407              	@ 0 "" 2
 408              		.thumb
 409              	.LBE2:
 410 01ca FFF7FEFF 		bl	dbg_check_lock
 411              		.loc 2 182 0
 412 01ce 019B     		ldr	r3, [sp, #4]
 413 01d0 DB69     		ldr	r3, [r3, #28]
 414 01d2 002B     		cmp	r3, #0
 415 01d4 03D0     		beq	.L21
 416              		.loc 2 183 0
 417 01d6 019B     		ldr	r3, [sp, #4]
 418 01d8 DB69     		ldr	r3, [r3, #28]
 419 01da 0198     		ldr	r0, [sp, #4]
 420 01dc 9847     		blx	r3
 421              	.L21:
 422              		.loc 2 185 0
 423 01de 0EE0     		b	.L22
 424              	.L24:
 425              	.LBB3:
 426              		.loc 2 187 0
 427 01e0 0198     		ldr	r0, [sp, #4]
 428 01e2 0099     		ldr	r1, [sp]
 429 01e4 FFF732FF 		bl	qwait
 430 01e8 0390     		str	r0, [sp, #12]
 431 01ea 039B     		ldr	r3, [sp, #12]
 432 01ec 002B     		cmp	r3, #0
 433 01ee 06DA     		bge	.L22
 434              		.loc 2 188 0
 435 01f0 FFF7FEFF 		bl	dbg_check_unlock
 436              	.LBB4:
 437 01f4 0023     		movs	r3, #0
 438              	@ 188 "/opt/R2P/core/ChibiOS_2.6.5/os/kernel/src/chqueues.c" 1
 439 01f6 83F31188 		msr     BASEPRI, r3
 440              	@ 0 "" 2
 441              		.thumb
 442              	.LBE4:
 443              		.loc 2 189 0
 444 01fa 039B     		ldr	r3, [sp, #12]
 445 01fc 21E0     		b	.L23
 446              	.L22:
 447              	.LBE3:
 448              		.loc 2 185 0
 449 01fe 019B     		ldr	r3, [sp, #4]
 450 0200 9B68     		ldr	r3, [r3, #8]
 451 0202 002B     		cmp	r3, #0
 452 0204 ECD0     		beq	.L24
 453              		.loc 2 193 0
 454 0206 019B     		ldr	r3, [sp, #4]
 455 0208 9B68     		ldr	r3, [r3, #8]
 456 020a 5A1E     		subs	r2, r3, #1
ARM GAS  /tmp/ccjcRCPv.s 			page 9


 457 020c 019B     		ldr	r3, [sp, #4]
 458 020e 9A60     		str	r2, [r3, #8]
 459              		.loc 2 194 0
 460 0210 019B     		ldr	r3, [sp, #4]
 461 0212 9B69     		ldr	r3, [r3, #24]
 462 0214 591C     		adds	r1, r3, #1
 463 0216 019A     		ldr	r2, [sp, #4]
 464 0218 9161     		str	r1, [r2, #24]
 465 021a 1B78     		ldrb	r3, [r3]
 466 021c 8DF80B30 		strb	r3, [sp, #11]
 467              		.loc 2 195 0
 468 0220 019B     		ldr	r3, [sp, #4]
 469 0222 9A69     		ldr	r2, [r3, #24]
 470 0224 019B     		ldr	r3, [sp, #4]
 471 0226 1B69     		ldr	r3, [r3, #16]
 472 0228 9A42     		cmp	r2, r3
 473 022a 03D3     		bcc	.L25
 474              		.loc 2 196 0
 475 022c 019B     		ldr	r3, [sp, #4]
 476 022e DA68     		ldr	r2, [r3, #12]
 477 0230 019B     		ldr	r3, [sp, #4]
 478 0232 9A61     		str	r2, [r3, #24]
 479              	.L25:
 480              		.loc 2 198 0
 481 0234 FFF7FEFF 		bl	dbg_check_unlock
 482              	.LBB5:
 483 0238 0023     		movs	r3, #0
 484              	@ 198 "/opt/R2P/core/ChibiOS_2.6.5/os/kernel/src/chqueues.c" 1
 485 023a 83F31188 		msr     BASEPRI, r3
 486              	@ 0 "" 2
 487              		.thumb
 488              	.LBE5:
 489              		.loc 2 199 0
 490 023e 9DF80B30 		ldrb	r3, [sp, #11]	@ zero_extendqisi2
 491              	.L23:
 492              		.loc 2 200 0
 493 0242 1846     		mov	r0, r3
 494 0244 05B0     		add	sp, sp, #20
 495              		.cfi_def_cfa_offset 4
 496              		@ sp needed
 497 0246 5DF804FB 		ldr	pc, [sp], #4
 498              		.cfi_endproc
 499              	.LFE11:
 500              		.size	chIQGetTimeout, .-chIQGetTimeout
 501              		.section	.rodata
 502              		.align	2
 503              	.LC0:
 504 0000 22636849 		.ascii	"\"chIQReadTimeout\"()\000"
 504      51526561 
 504      6454696D 
 504      656F7574 
 504      22282900 
 505              		.text
 506 024a 00BF     		.align	2
 507              		.global	chIQReadTimeout
 508              		.thumb
 509              		.thumb_func
ARM GAS  /tmp/ccjcRCPv.s 			page 10


 510              		.type	chIQReadTimeout, %function
 511              	chIQReadTimeout:
 512              	.LFB12:
 513              		.loc 2 227 0
 514              		.cfi_startproc
 515              		@ args = 0, pretend = 0, frame = 24
 516              		@ frame_needed = 0, uses_anonymous_args = 0
 517 024c 00B5     		push	{lr}
 518              		.cfi_def_cfa_offset 4
 519              		.cfi_offset 14, -4
 520 024e 87B0     		sub	sp, sp, #28
 521              		.cfi_def_cfa_offset 32
 522 0250 0390     		str	r0, [sp, #12]
 523 0252 0291     		str	r1, [sp, #8]
 524 0254 0192     		str	r2, [sp, #4]
 525 0256 0093     		str	r3, [sp]
 526              		.loc 2 228 0
 527 0258 039B     		ldr	r3, [sp, #12]
 528 025a DB69     		ldr	r3, [r3, #28]
 529 025c 0493     		str	r3, [sp, #16]
 530              		.loc 2 229 0
 531 025e 0023     		movs	r3, #0
 532 0260 0593     		str	r3, [sp, #20]
 533              		.loc 2 231 0
 534 0262 019B     		ldr	r3, [sp, #4]
 535 0264 002B     		cmp	r3, #0
 536 0266 02D1     		bne	.L27
 537              		.loc 2 231 0 is_stmt 0 discriminator 1
 538 0268 2948     		ldr	r0, .L35
 539 026a FFF7FEFF 		bl	chDbgPanic
 540              	.L27:
 541              	.LBB6:
 542              		.loc 2 233 0 is_stmt 1
 543 026e 2023     		movs	r3, #32
 544              	@ 233 "/opt/R2P/core/ChibiOS_2.6.5/os/kernel/src/chqueues.c" 1
 545 0270 83F31188 		msr     BASEPRI, r3
 546              	@ 0 "" 2
 547              		.thumb
 548              	.LBE6:
 549 0274 FFF7FEFF 		bl	dbg_check_lock
 550              	.L34:
 551              		.loc 2 235 0
 552 0278 049B     		ldr	r3, [sp, #16]
 553 027a 002B     		cmp	r3, #0
 554 027c 02D0     		beq	.L28
 555              		.loc 2 236 0
 556 027e 049B     		ldr	r3, [sp, #16]
 557 0280 0398     		ldr	r0, [sp, #12]
 558 0282 9847     		blx	r3
 559              	.L28:
 560              		.loc 2 238 0
 561 0284 0DE0     		b	.L29
 562              	.L31:
 563              		.loc 2 239 0
 564 0286 0398     		ldr	r0, [sp, #12]
 565 0288 0099     		ldr	r1, [sp]
 566 028a FFF7DFFE 		bl	qwait
ARM GAS  /tmp/ccjcRCPv.s 			page 11


 567 028e 0346     		mov	r3, r0
 568 0290 002B     		cmp	r3, #0
 569 0292 06D0     		beq	.L29
 570              		.loc 2 240 0
 571 0294 FFF7FEFF 		bl	dbg_check_unlock
 572              	.LBB7:
 573 0298 0023     		movs	r3, #0
 574              	@ 240 "/opt/R2P/core/ChibiOS_2.6.5/os/kernel/src/chqueues.c" 1
 575 029a 83F31188 		msr     BASEPRI, r3
 576              	@ 0 "" 2
 577              		.thumb
 578              	.LBE7:
 579              		.loc 2 241 0
 580 029e 059B     		ldr	r3, [sp, #20]
 581 02a0 32E0     		b	.L30
 582              	.L29:
 583              		.loc 2 238 0
 584 02a2 039B     		ldr	r3, [sp, #12]
 585 02a4 9B68     		ldr	r3, [r3, #8]
 586 02a6 002B     		cmp	r3, #0
 587 02a8 EDD0     		beq	.L31
 588              		.loc 2 245 0
 589 02aa 039B     		ldr	r3, [sp, #12]
 590 02ac 9B68     		ldr	r3, [r3, #8]
 591 02ae 5A1E     		subs	r2, r3, #1
 592 02b0 039B     		ldr	r3, [sp, #12]
 593 02b2 9A60     		str	r2, [r3, #8]
 594              		.loc 2 246 0
 595 02b4 029B     		ldr	r3, [sp, #8]
 596 02b6 5A1C     		adds	r2, r3, #1
 597 02b8 0292     		str	r2, [sp, #8]
 598 02ba 039A     		ldr	r2, [sp, #12]
 599 02bc 9269     		ldr	r2, [r2, #24]
 600 02be 501C     		adds	r0, r2, #1
 601 02c0 0399     		ldr	r1, [sp, #12]
 602 02c2 8861     		str	r0, [r1, #24]
 603 02c4 1278     		ldrb	r2, [r2]	@ zero_extendqisi2
 604 02c6 1A70     		strb	r2, [r3]
 605              		.loc 2 247 0
 606 02c8 039B     		ldr	r3, [sp, #12]
 607 02ca 9A69     		ldr	r2, [r3, #24]
 608 02cc 039B     		ldr	r3, [sp, #12]
 609 02ce 1B69     		ldr	r3, [r3, #16]
 610 02d0 9A42     		cmp	r2, r3
 611 02d2 03D3     		bcc	.L32
 612              		.loc 2 248 0
 613 02d4 039B     		ldr	r3, [sp, #12]
 614 02d6 DA68     		ldr	r2, [r3, #12]
 615 02d8 039B     		ldr	r3, [sp, #12]
 616 02da 9A61     		str	r2, [r3, #24]
 617              	.L32:
 618              		.loc 2 250 0
 619 02dc FFF7FEFF 		bl	dbg_check_unlock
 620              	.LBB8:
 621 02e0 0023     		movs	r3, #0
 622              	@ 250 "/opt/R2P/core/ChibiOS_2.6.5/os/kernel/src/chqueues.c" 1
 623 02e2 83F31188 		msr     BASEPRI, r3
ARM GAS  /tmp/ccjcRCPv.s 			page 12


 624              	@ 0 "" 2
 625              		.thumb
 626              	.LBE8:
 627              		.loc 2 251 0
 628 02e6 059B     		ldr	r3, [sp, #20]
 629 02e8 0133     		adds	r3, r3, #1
 630 02ea 0593     		str	r3, [sp, #20]
 631              		.loc 2 252 0
 632 02ec 019B     		ldr	r3, [sp, #4]
 633 02ee 013B     		subs	r3, r3, #1
 634 02f0 0193     		str	r3, [sp, #4]
 635 02f2 019B     		ldr	r3, [sp, #4]
 636 02f4 002B     		cmp	r3, #0
 637 02f6 01D1     		bne	.L33
 638              		.loc 2 253 0
 639 02f8 059B     		ldr	r3, [sp, #20]
 640 02fa 05E0     		b	.L30
 641              	.L33:
 642              	.LBB9:
 643              		.loc 2 255 0
 644 02fc 2023     		movs	r3, #32
 645              	@ 255 "/opt/R2P/core/ChibiOS_2.6.5/os/kernel/src/chqueues.c" 1
 646 02fe 83F31188 		msr     BASEPRI, r3
 647              	@ 0 "" 2
 648              		.thumb
 649              	.LBE9:
 650 0302 FFF7FEFF 		bl	dbg_check_lock
 651              		.loc 2 256 0
 652 0306 B7E7     		b	.L34
 653              	.L30:
 654              		.loc 2 257 0
 655 0308 1846     		mov	r0, r3
 656 030a 07B0     		add	sp, sp, #28
 657              		.cfi_def_cfa_offset 4
 658              		@ sp needed
 659 030c 5DF804FB 		ldr	pc, [sp], #4
 660              	.L36:
 661              		.align	2
 662              	.L35:
 663 0310 00000000 		.word	.LC0
 664              		.cfi_endproc
 665              	.LFE12:
 666              		.size	chIQReadTimeout, .-chIQReadTimeout
 667              		.align	2
 668              		.global	chOQInit
 669              		.thumb
 670              		.thumb_func
 671              		.type	chOQInit, %function
 672              	chOQInit:
 673              	.LFB13:
 674              		.loc 2 276 0
 675              		.cfi_startproc
 676              		@ args = 4, pretend = 0, frame = 16
 677              		@ frame_needed = 0, uses_anonymous_args = 0
 678              		@ link register save eliminated.
 679 0314 84B0     		sub	sp, sp, #16
 680              		.cfi_def_cfa_offset 16
ARM GAS  /tmp/ccjcRCPv.s 			page 13


 681 0316 0390     		str	r0, [sp, #12]
 682 0318 0291     		str	r1, [sp, #8]
 683 031a 0192     		str	r2, [sp, #4]
 684 031c 0093     		str	r3, [sp]
 685              		.loc 2 278 0
 686 031e 039A     		ldr	r2, [sp, #12]
 687 0320 039B     		ldr	r3, [sp, #12]
 688 0322 5A60     		str	r2, [r3, #4]
 689 0324 039B     		ldr	r3, [sp, #12]
 690 0326 5A68     		ldr	r2, [r3, #4]
 691 0328 039B     		ldr	r3, [sp, #12]
 692 032a 1A60     		str	r2, [r3]
 693              		.loc 2 279 0
 694 032c 039B     		ldr	r3, [sp, #12]
 695 032e 019A     		ldr	r2, [sp, #4]
 696 0330 9A60     		str	r2, [r3, #8]
 697              		.loc 2 280 0
 698 0332 039B     		ldr	r3, [sp, #12]
 699 0334 029A     		ldr	r2, [sp, #8]
 700 0336 5A61     		str	r2, [r3, #20]
 701 0338 039B     		ldr	r3, [sp, #12]
 702 033a 5A69     		ldr	r2, [r3, #20]
 703 033c 039B     		ldr	r3, [sp, #12]
 704 033e 9A61     		str	r2, [r3, #24]
 705 0340 039B     		ldr	r3, [sp, #12]
 706 0342 9A69     		ldr	r2, [r3, #24]
 707 0344 039B     		ldr	r3, [sp, #12]
 708 0346 DA60     		str	r2, [r3, #12]
 709              		.loc 2 281 0
 710 0348 029A     		ldr	r2, [sp, #8]
 711 034a 019B     		ldr	r3, [sp, #4]
 712 034c 1A44     		add	r2, r2, r3
 713 034e 039B     		ldr	r3, [sp, #12]
 714 0350 1A61     		str	r2, [r3, #16]
 715              		.loc 2 282 0
 716 0352 039B     		ldr	r3, [sp, #12]
 717 0354 009A     		ldr	r2, [sp]
 718 0356 DA61     		str	r2, [r3, #28]
 719              		.loc 2 283 0
 720 0358 039B     		ldr	r3, [sp, #12]
 721 035a 049A     		ldr	r2, [sp, #16]
 722 035c 1A62     		str	r2, [r3, #32]
 723              		.loc 2 284 0
 724 035e 04B0     		add	sp, sp, #16
 725              		.cfi_def_cfa_offset 0
 726              		@ sp needed
 727 0360 7047     		bx	lr
 728              		.cfi_endproc
 729              	.LFE13:
 730              		.size	chOQInit, .-chOQInit
 731 0362 00BF     		.align	2
 732              		.global	chOQResetI
 733              		.thumb
 734              		.thumb_func
 735              		.type	chOQResetI, %function
 736              	chOQResetI:
 737              	.LFB14:
ARM GAS  /tmp/ccjcRCPv.s 			page 14


 738              		.loc 2 297 0
 739              		.cfi_startproc
 740              		@ args = 0, pretend = 0, frame = 8
 741              		@ frame_needed = 0, uses_anonymous_args = 0
 742 0364 00B5     		push	{lr}
 743              		.cfi_def_cfa_offset 4
 744              		.cfi_offset 14, -4
 745 0366 83B0     		sub	sp, sp, #12
 746              		.cfi_def_cfa_offset 16
 747 0368 0190     		str	r0, [sp, #4]
 748              		.loc 2 299 0
 749 036a FFF7FEFF 		bl	chDbgCheckClassI
 750              		.loc 2 301 0
 751 036e 019B     		ldr	r3, [sp, #4]
 752 0370 DA68     		ldr	r2, [r3, #12]
 753 0372 019B     		ldr	r3, [sp, #4]
 754 0374 5A61     		str	r2, [r3, #20]
 755 0376 019B     		ldr	r3, [sp, #4]
 756 0378 5A69     		ldr	r2, [r3, #20]
 757 037a 019B     		ldr	r3, [sp, #4]
 758 037c 9A61     		str	r2, [r3, #24]
 759              		.loc 2 302 0
 760 037e 019B     		ldr	r3, [sp, #4]
 761 0380 1B69     		ldr	r3, [r3, #16]
 762 0382 1A46     		mov	r2, r3
 763 0384 019B     		ldr	r3, [sp, #4]
 764 0386 DB68     		ldr	r3, [r3, #12]
 765 0388 D31A     		subs	r3, r2, r3
 766 038a 1A46     		mov	r2, r3
 767 038c 019B     		ldr	r3, [sp, #4]
 768 038e 9A60     		str	r2, [r3, #8]
 769              		.loc 2 303 0
 770 0390 0BE0     		b	.L39
 771              	.L40:
 772              		.loc 2 304 0
 773 0392 019B     		ldr	r3, [sp, #4]
 774 0394 1846     		mov	r0, r3
 775 0396 FFF747FE 		bl	fifo_remove
 776 039a 0346     		mov	r3, r0
 777 039c 1846     		mov	r0, r3
 778 039e FFF7FEFF 		bl	chSchReadyI
 779 03a2 0246     		mov	r2, r0
 780 03a4 6FF00103 		mvn	r3, #1
 781 03a8 9362     		str	r3, [r2, #40]
 782              	.L39:
 783              		.loc 2 303 0
 784 03aa 019B     		ldr	r3, [sp, #4]
 785 03ac 1A68     		ldr	r2, [r3]
 786 03ae 019B     		ldr	r3, [sp, #4]
 787 03b0 9A42     		cmp	r2, r3
 788 03b2 EED1     		bne	.L40
 789              		.loc 2 305 0
 790 03b4 03B0     		add	sp, sp, #12
 791              		.cfi_def_cfa_offset 4
 792              		@ sp needed
 793 03b6 5DF804FB 		ldr	pc, [sp], #4
 794              		.cfi_endproc
ARM GAS  /tmp/ccjcRCPv.s 			page 15


 795              	.LFE14:
 796              		.size	chOQResetI, .-chOQResetI
 797 03ba 00BF     		.align	2
 798              		.global	chOQPutTimeout
 799              		.thumb
 800              		.thumb_func
 801              		.type	chOQPutTimeout, %function
 802              	chOQPutTimeout:
 803              	.LFB15:
 804              		.loc 2 329 0
 805              		.cfi_startproc
 806              		@ args = 0, pretend = 0, frame = 24
 807              		@ frame_needed = 0, uses_anonymous_args = 0
 808 03bc 00B5     		push	{lr}
 809              		.cfi_def_cfa_offset 4
 810              		.cfi_offset 14, -4
 811 03be 87B0     		sub	sp, sp, #28
 812              		.cfi_def_cfa_offset 32
 813 03c0 0390     		str	r0, [sp, #12]
 814 03c2 0B46     		mov	r3, r1
 815 03c4 0192     		str	r2, [sp, #4]
 816 03c6 8DF80B30 		strb	r3, [sp, #11]
 817              	.LBB10:
 818              		.loc 2 331 0
 819 03ca 2023     		movs	r3, #32
 820              	@ 331 "/opt/R2P/core/ChibiOS_2.6.5/os/kernel/src/chqueues.c" 1
 821 03cc 83F31188 		msr     BASEPRI, r3
 822              	@ 0 "" 2
 823              		.thumb
 824              	.LBE10:
 825 03d0 FFF7FEFF 		bl	dbg_check_lock
 826              		.loc 2 332 0
 827 03d4 0EE0     		b	.L42
 828              	.L44:
 829              	.LBB11:
 830              		.loc 2 335 0
 831 03d6 0398     		ldr	r0, [sp, #12]
 832 03d8 0199     		ldr	r1, [sp, #4]
 833 03da FFF737FE 		bl	qwait
 834 03de 0590     		str	r0, [sp, #20]
 835 03e0 059B     		ldr	r3, [sp, #20]
 836 03e2 002B     		cmp	r3, #0
 837 03e4 06DA     		bge	.L42
 838              		.loc 2 336 0
 839 03e6 FFF7FEFF 		bl	dbg_check_unlock
 840              	.LBB12:
 841 03ea 0023     		movs	r3, #0
 842              	@ 336 "/opt/R2P/core/ChibiOS_2.6.5/os/kernel/src/chqueues.c" 1
 843 03ec 83F31188 		msr     BASEPRI, r3
 844              	@ 0 "" 2
 845              		.thumb
 846              	.LBE12:
 847              		.loc 2 337 0
 848 03f0 059B     		ldr	r3, [sp, #20]
 849 03f2 28E0     		b	.L43
 850              	.L42:
 851              	.LBE11:
ARM GAS  /tmp/ccjcRCPv.s 			page 16


 852              		.loc 2 332 0
 853 03f4 039B     		ldr	r3, [sp, #12]
 854 03f6 9B68     		ldr	r3, [r3, #8]
 855 03f8 002B     		cmp	r3, #0
 856 03fa ECD0     		beq	.L44
 857              		.loc 2 341 0
 858 03fc 039B     		ldr	r3, [sp, #12]
 859 03fe 9B68     		ldr	r3, [r3, #8]
 860 0400 5A1E     		subs	r2, r3, #1
 861 0402 039B     		ldr	r3, [sp, #12]
 862 0404 9A60     		str	r2, [r3, #8]
 863              		.loc 2 342 0
 864 0406 039B     		ldr	r3, [sp, #12]
 865 0408 5B69     		ldr	r3, [r3, #20]
 866 040a 591C     		adds	r1, r3, #1
 867 040c 039A     		ldr	r2, [sp, #12]
 868 040e 5161     		str	r1, [r2, #20]
 869 0410 9DF80B20 		ldrb	r2, [sp, #11]
 870 0414 1A70     		strb	r2, [r3]
 871              		.loc 2 343 0
 872 0416 039B     		ldr	r3, [sp, #12]
 873 0418 5A69     		ldr	r2, [r3, #20]
 874 041a 039B     		ldr	r3, [sp, #12]
 875 041c 1B69     		ldr	r3, [r3, #16]
 876 041e 9A42     		cmp	r2, r3
 877 0420 03D3     		bcc	.L45
 878              		.loc 2 344 0
 879 0422 039B     		ldr	r3, [sp, #12]
 880 0424 DA68     		ldr	r2, [r3, #12]
 881 0426 039B     		ldr	r3, [sp, #12]
 882 0428 5A61     		str	r2, [r3, #20]
 883              	.L45:
 884              		.loc 2 346 0
 885 042a 039B     		ldr	r3, [sp, #12]
 886 042c DB69     		ldr	r3, [r3, #28]
 887 042e 002B     		cmp	r3, #0
 888 0430 03D0     		beq	.L46
 889              		.loc 2 347 0
 890 0432 039B     		ldr	r3, [sp, #12]
 891 0434 DB69     		ldr	r3, [r3, #28]
 892 0436 0398     		ldr	r0, [sp, #12]
 893 0438 9847     		blx	r3
 894              	.L46:
 895              		.loc 2 349 0
 896 043a FFF7FEFF 		bl	dbg_check_unlock
 897              	.LBB13:
 898 043e 0023     		movs	r3, #0
 899              	@ 349 "/opt/R2P/core/ChibiOS_2.6.5/os/kernel/src/chqueues.c" 1
 900 0440 83F31188 		msr     BASEPRI, r3
 901              	@ 0 "" 2
 902              		.thumb
 903              	.LBE13:
 904              		.loc 2 350 0
 905 0444 0023     		movs	r3, #0
 906              	.L43:
 907              		.loc 2 351 0
 908 0446 1846     		mov	r0, r3
ARM GAS  /tmp/ccjcRCPv.s 			page 17


 909 0448 07B0     		add	sp, sp, #28
 910              		.cfi_def_cfa_offset 4
 911              		@ sp needed
 912 044a 5DF804FB 		ldr	pc, [sp], #4
 913              		.cfi_endproc
 914              	.LFE15:
 915              		.size	chOQPutTimeout, .-chOQPutTimeout
 916 044e 00BF     		.align	2
 917              		.global	chOQGetI
 918              		.thumb
 919              		.thumb_func
 920              		.type	chOQGetI, %function
 921              	chOQGetI:
 922              	.LFB16:
 923              		.loc 2 363 0
 924              		.cfi_startproc
 925              		@ args = 0, pretend = 0, frame = 16
 926              		@ frame_needed = 0, uses_anonymous_args = 0
 927 0450 00B5     		push	{lr}
 928              		.cfi_def_cfa_offset 4
 929              		.cfi_offset 14, -4
 930 0452 85B0     		sub	sp, sp, #20
 931              		.cfi_def_cfa_offset 24
 932 0454 0190     		str	r0, [sp, #4]
 933              		.loc 2 366 0
 934 0456 FFF7FEFF 		bl	chDbgCheckClassI
 935              		.loc 2 368 0
 936 045a 019B     		ldr	r3, [sp, #4]
 937 045c 5A69     		ldr	r2, [r3, #20]
 938 045e 019B     		ldr	r3, [sp, #4]
 939 0460 9B69     		ldr	r3, [r3, #24]
 940 0462 9A42     		cmp	r2, r3
 941 0464 05D1     		bne	.L48
 942              		.loc 2 368 0 is_stmt 0 discriminator 1
 943 0466 019B     		ldr	r3, [sp, #4]
 944 0468 9B68     		ldr	r3, [r3, #8]
 945 046a 002B     		cmp	r3, #0
 946 046c 01D0     		beq	.L48
 947              		.loc 2 368 0 discriminator 3
 948 046e 0123     		movs	r3, #1
 949 0470 00E0     		b	.L49
 950              	.L48:
 951              		.loc 2 368 0 discriminator 4
 952 0472 0023     		movs	r3, #0
 953              	.L49:
 954              		.loc 2 368 0 discriminator 6
 955 0474 03F00103 		and	r3, r3, #1
 956 0478 DBB2     		uxtb	r3, r3
 957 047a 002B     		cmp	r3, #0
 958 047c 02D0     		beq	.L50
 959              		.loc 2 369 0 is_stmt 1
 960 047e 6FF00203 		mvn	r3, #2
 961 0482 28E0     		b	.L51
 962              	.L50:
 963              		.loc 2 371 0
 964 0484 019B     		ldr	r3, [sp, #4]
 965 0486 9B68     		ldr	r3, [r3, #8]
ARM GAS  /tmp/ccjcRCPv.s 			page 18


 966 0488 5A1C     		adds	r2, r3, #1
 967 048a 019B     		ldr	r3, [sp, #4]
 968 048c 9A60     		str	r2, [r3, #8]
 969              		.loc 2 372 0
 970 048e 019B     		ldr	r3, [sp, #4]
 971 0490 9B69     		ldr	r3, [r3, #24]
 972 0492 591C     		adds	r1, r3, #1
 973 0494 019A     		ldr	r2, [sp, #4]
 974 0496 9161     		str	r1, [r2, #24]
 975 0498 1B78     		ldrb	r3, [r3]
 976 049a 8DF80F30 		strb	r3, [sp, #15]
 977              		.loc 2 373 0
 978 049e 019B     		ldr	r3, [sp, #4]
 979 04a0 9A69     		ldr	r2, [r3, #24]
 980 04a2 019B     		ldr	r3, [sp, #4]
 981 04a4 1B69     		ldr	r3, [r3, #16]
 982 04a6 9A42     		cmp	r2, r3
 983 04a8 03D3     		bcc	.L52
 984              		.loc 2 374 0
 985 04aa 019B     		ldr	r3, [sp, #4]
 986 04ac DA68     		ldr	r2, [r3, #12]
 987 04ae 019B     		ldr	r3, [sp, #4]
 988 04b0 9A61     		str	r2, [r3, #24]
 989              	.L52:
 990              		.loc 2 376 0
 991 04b2 019B     		ldr	r3, [sp, #4]
 992 04b4 1A68     		ldr	r2, [r3]
 993 04b6 019B     		ldr	r3, [sp, #4]
 994 04b8 9A42     		cmp	r2, r3
 995 04ba 0AD0     		beq	.L53
 996              		.loc 2 377 0
 997 04bc 019B     		ldr	r3, [sp, #4]
 998 04be 1846     		mov	r0, r3
 999 04c0 FFF7B2FD 		bl	fifo_remove
 1000 04c4 0346     		mov	r3, r0
 1001 04c6 1846     		mov	r0, r3
 1002 04c8 FFF7FEFF 		bl	chSchReadyI
 1003 04cc 0246     		mov	r2, r0
 1004 04ce 0023     		movs	r3, #0
 1005 04d0 9362     		str	r3, [r2, #40]
 1006              	.L53:
 1007              		.loc 2 379 0
 1008 04d2 9DF80F30 		ldrb	r3, [sp, #15]	@ zero_extendqisi2
 1009              	.L51:
 1010              		.loc 2 380 0
 1011 04d6 1846     		mov	r0, r3
 1012 04d8 05B0     		add	sp, sp, #20
 1013              		.cfi_def_cfa_offset 4
 1014              		@ sp needed
 1015 04da 5DF804FB 		ldr	pc, [sp], #4
 1016              		.cfi_endproc
 1017              	.LFE16:
 1018              		.size	chOQGetI, .-chOQGetI
 1019              		.section	.rodata
 1020              		.align	2
 1021              	.LC1:
 1022 0014 2263684F 		.ascii	"\"chOQWriteTimeout\"()\000"
ARM GAS  /tmp/ccjcRCPv.s 			page 19


 1022      51577269 
 1022      74655469 
 1022      6D656F75 
 1022      74222829 
 1023 0029 000000   		.text
 1024 04de 00BF     		.align	2
 1025              		.global	chOQWriteTimeout
 1026              		.thumb
 1027              		.thumb_func
 1028              		.type	chOQWriteTimeout, %function
 1029              	chOQWriteTimeout:
 1030              	.LFB17:
 1031              		.loc 2 407 0
 1032              		.cfi_startproc
 1033              		@ args = 0, pretend = 0, frame = 24
 1034              		@ frame_needed = 0, uses_anonymous_args = 0
 1035 04e0 00B5     		push	{lr}
 1036              		.cfi_def_cfa_offset 4
 1037              		.cfi_offset 14, -4
 1038 04e2 87B0     		sub	sp, sp, #28
 1039              		.cfi_def_cfa_offset 32
 1040 04e4 0390     		str	r0, [sp, #12]
 1041 04e6 0291     		str	r1, [sp, #8]
 1042 04e8 0192     		str	r2, [sp, #4]
 1043 04ea 0093     		str	r3, [sp]
 1044              		.loc 2 408 0
 1045 04ec 039B     		ldr	r3, [sp, #12]
 1046 04ee DB69     		ldr	r3, [r3, #28]
 1047 04f0 0493     		str	r3, [sp, #16]
 1048              		.loc 2 409 0
 1049 04f2 0023     		movs	r3, #0
 1050 04f4 0593     		str	r3, [sp, #20]
 1051              		.loc 2 411 0
 1052 04f6 019B     		ldr	r3, [sp, #4]
 1053 04f8 002B     		cmp	r3, #0
 1054 04fa 02D1     		bne	.L55
 1055              		.loc 2 411 0 is_stmt 0 discriminator 1
 1056 04fc 2948     		ldr	r0, .L63
 1057 04fe FFF7FEFF 		bl	chDbgPanic
 1058              	.L55:
 1059              	.LBB14:
 1060              		.loc 2 413 0 is_stmt 1
 1061 0502 2023     		movs	r3, #32
 1062              	@ 413 "/opt/R2P/core/ChibiOS_2.6.5/os/kernel/src/chqueues.c" 1
 1063 0504 83F31188 		msr     BASEPRI, r3
 1064              	@ 0 "" 2
 1065              		.thumb
 1066              	.LBE14:
 1067 0508 FFF7FEFF 		bl	dbg_check_lock
 1068              	.L62:
 1069              		.loc 2 415 0
 1070 050c 0DE0     		b	.L56
 1071              	.L58:
 1072              		.loc 2 416 0
 1073 050e 0398     		ldr	r0, [sp, #12]
 1074 0510 0099     		ldr	r1, [sp]
 1075 0512 FFF79BFD 		bl	qwait
ARM GAS  /tmp/ccjcRCPv.s 			page 20


 1076 0516 0346     		mov	r3, r0
 1077 0518 002B     		cmp	r3, #0
 1078 051a 06D0     		beq	.L56
 1079              		.loc 2 417 0
 1080 051c FFF7FEFF 		bl	dbg_check_unlock
 1081              	.LBB15:
 1082 0520 0023     		movs	r3, #0
 1083              	@ 417 "/opt/R2P/core/ChibiOS_2.6.5/os/kernel/src/chqueues.c" 1
 1084 0522 83F31188 		msr     BASEPRI, r3
 1085              	@ 0 "" 2
 1086              		.thumb
 1087              	.LBE15:
 1088              		.loc 2 418 0
 1089 0526 059B     		ldr	r3, [sp, #20]
 1090 0528 38E0     		b	.L57
 1091              	.L56:
 1092              		.loc 2 415 0
 1093 052a 039B     		ldr	r3, [sp, #12]
 1094 052c 9B68     		ldr	r3, [r3, #8]
 1095 052e 002B     		cmp	r3, #0
 1096 0530 EDD0     		beq	.L58
 1097              		.loc 2 421 0
 1098 0532 039B     		ldr	r3, [sp, #12]
 1099 0534 9B68     		ldr	r3, [r3, #8]
 1100 0536 5A1E     		subs	r2, r3, #1
 1101 0538 039B     		ldr	r3, [sp, #12]
 1102 053a 9A60     		str	r2, [r3, #8]
 1103              		.loc 2 422 0
 1104 053c 039B     		ldr	r3, [sp, #12]
 1105 053e 5B69     		ldr	r3, [r3, #20]
 1106 0540 591C     		adds	r1, r3, #1
 1107 0542 039A     		ldr	r2, [sp, #12]
 1108 0544 5161     		str	r1, [r2, #20]
 1109 0546 029A     		ldr	r2, [sp, #8]
 1110 0548 511C     		adds	r1, r2, #1
 1111 054a 0291     		str	r1, [sp, #8]
 1112 054c 1278     		ldrb	r2, [r2]	@ zero_extendqisi2
 1113 054e 1A70     		strb	r2, [r3]
 1114              		.loc 2 423 0
 1115 0550 039B     		ldr	r3, [sp, #12]
 1116 0552 5A69     		ldr	r2, [r3, #20]
 1117 0554 039B     		ldr	r3, [sp, #12]
 1118 0556 1B69     		ldr	r3, [r3, #16]
 1119 0558 9A42     		cmp	r2, r3
 1120 055a 03D3     		bcc	.L59
 1121              		.loc 2 424 0
 1122 055c 039B     		ldr	r3, [sp, #12]
 1123 055e DA68     		ldr	r2, [r3, #12]
 1124 0560 039B     		ldr	r3, [sp, #12]
 1125 0562 5A61     		str	r2, [r3, #20]
 1126              	.L59:
 1127              		.loc 2 426 0
 1128 0564 049B     		ldr	r3, [sp, #16]
 1129 0566 002B     		cmp	r3, #0
 1130 0568 02D0     		beq	.L60
 1131              		.loc 2 427 0
 1132 056a 049B     		ldr	r3, [sp, #16]
ARM GAS  /tmp/ccjcRCPv.s 			page 21


 1133 056c 0398     		ldr	r0, [sp, #12]
 1134 056e 9847     		blx	r3
 1135              	.L60:
 1136              		.loc 2 429 0
 1137 0570 FFF7FEFF 		bl	dbg_check_unlock
 1138              	.LBB16:
 1139 0574 0023     		movs	r3, #0
 1140              	@ 429 "/opt/R2P/core/ChibiOS_2.6.5/os/kernel/src/chqueues.c" 1
 1141 0576 83F31188 		msr     BASEPRI, r3
 1142              	@ 0 "" 2
 1143              		.thumb
 1144              	.LBE16:
 1145              		.loc 2 430 0
 1146 057a 059B     		ldr	r3, [sp, #20]
 1147 057c 0133     		adds	r3, r3, #1
 1148 057e 0593     		str	r3, [sp, #20]
 1149              		.loc 2 431 0
 1150 0580 019B     		ldr	r3, [sp, #4]
 1151 0582 013B     		subs	r3, r3, #1
 1152 0584 0193     		str	r3, [sp, #4]
 1153 0586 019B     		ldr	r3, [sp, #4]
 1154 0588 002B     		cmp	r3, #0
 1155 058a 01D1     		bne	.L61
 1156              		.loc 2 432 0
 1157 058c 059B     		ldr	r3, [sp, #20]
 1158 058e 05E0     		b	.L57
 1159              	.L61:
 1160              	.LBB17:
 1161              		.loc 2 433 0
 1162 0590 2023     		movs	r3, #32
 1163              	@ 433 "/opt/R2P/core/ChibiOS_2.6.5/os/kernel/src/chqueues.c" 1
 1164 0592 83F31188 		msr     BASEPRI, r3
 1165              	@ 0 "" 2
 1166              		.thumb
 1167              	.LBE17:
 1168 0596 FFF7FEFF 		bl	dbg_check_lock
 1169              		.loc 2 434 0
 1170 059a B7E7     		b	.L62
 1171              	.L57:
 1172              		.loc 2 435 0
 1173 059c 1846     		mov	r0, r3
 1174 059e 07B0     		add	sp, sp, #28
 1175              		.cfi_def_cfa_offset 4
 1176              		@ sp needed
 1177 05a0 5DF804FB 		ldr	pc, [sp], #4
 1178              	.L64:
 1179              		.align	2
 1180              	.L63:
 1181 05a4 14000000 		.word	.LC1
 1182              		.cfi_endproc
 1183              	.LFE17:
 1184              		.size	chOQWriteTimeout, .-chOQWriteTimeout
 1185              	.Letext0:
 1186              		.file 3 "/opt/R2P/tools/gcc-arm-none-eabi-4_9-2014q4/lib/gcc/arm-none-eabi/4.9.3/include/stddef.h"
 1187              		.file 4 "/opt/R2P/tools/gcc-arm-none-eabi-4_9-2014q4/arm-none-eabi/include/machine/_default_types.
 1188              		.file 5 "/opt/R2P/tools/gcc-arm-none-eabi-4_9-2014q4/arm-none-eabi/include/stdint.h"
 1189              		.file 6 "/opt/R2P/core/ChibiOS_2.6.5/os/ports/GCC/ARMCMx/chtypes.h"
ARM GAS  /tmp/ccjcRCPv.s 			page 22


 1190              		.file 7 "/opt/R2P/core/ChibiOS_2.6.5/os/kernel/include/chlists.h"
 1191              		.file 8 "/opt/R2P/core/ChibiOS_2.6.5/os/kernel/include/chthreads.h"
 1192              		.file 9 "/opt/R2P/core/ChibiOS_2.6.5/os/ports/GCC/ARMCMx/chcore_v7m.h"
 1193              		.file 10 "/opt/R2P/core/ChibiOS_2.6.5/os/kernel/include/chschd.h"
 1194              		.file 11 "/opt/R2P/core/ChibiOS_2.6.5/os/kernel/include/chmtx.h"
 1195              		.file 12 "/opt/R2P/core/ChibiOS_2.6.5/os/kernel/include/chqueues.h"