ARM GAS  /tmp/cc94xWmi.s 			page 1


   1              		.syntax unified
   2              		.cpu cortex-m4
   3              		.fpu softvfp
   4              		.eabi_attribute 20, 1
   5              		.eabi_attribute 21, 1
   6              		.eabi_attribute 23, 3
   7              		.eabi_attribute 24, 1
   8              		.eabi_attribute 25, 1
   9              		.eabi_attribute 26, 1
  10              		.eabi_attribute 30, 6
  11              		.eabi_attribute 34, 1
  12              		.eabi_attribute 18, 4
  13              		.thumb
  14              		.file	"chsem.c"
  15              		.text
  16              	.Ltext0:
  17              		.cfi_sections	.debug_frame
  18              		.align	2
  19              		.thumb
  20              		.thumb_func
  21              		.type	queue_insert, %function
  22              	queue_insert:
  23              	.LFB1:
  24              		.file 1 "/opt/R2P/core/ChibiOS_2.6.5/os/kernel/include/chinline.h"
  25              		.loc 1 52 0
  26              		.cfi_startproc
  27              		@ args = 0, pretend = 0, frame = 8
  28              		@ frame_needed = 0, uses_anonymous_args = 0
  29              		@ link register save eliminated.
  30 0000 82B0     		sub	sp, sp, #8
  31              		.cfi_def_cfa_offset 8
  32 0002 0190     		str	r0, [sp, #4]
  33 0004 0091     		str	r1, [sp]
  34              		.loc 1 54 0
  35 0006 019B     		ldr	r3, [sp, #4]
  36 0008 009A     		ldr	r2, [sp]
  37 000a 1A60     		str	r2, [r3]
  38              		.loc 1 55 0
  39 000c 009B     		ldr	r3, [sp]
  40 000e 5A68     		ldr	r2, [r3, #4]
  41 0010 019B     		ldr	r3, [sp, #4]
  42 0012 5A60     		str	r2, [r3, #4]
  43              		.loc 1 56 0
  44 0014 019B     		ldr	r3, [sp, #4]
  45 0016 5B68     		ldr	r3, [r3, #4]
  46 0018 009A     		ldr	r2, [sp]
  47 001a 0199     		ldr	r1, [sp, #4]
  48 001c 5160     		str	r1, [r2, #4]
  49 001e 009A     		ldr	r2, [sp]
  50 0020 5268     		ldr	r2, [r2, #4]
  51 0022 1A60     		str	r2, [r3]
  52              		.loc 1 57 0
  53 0024 02B0     		add	sp, sp, #8
  54              		.cfi_def_cfa_offset 0
  55              		@ sp needed
  56 0026 7047     		bx	lr
  57              		.cfi_endproc
ARM GAS  /tmp/cc94xWmi.s 			page 2


  58              	.LFE1:
  59              		.size	queue_insert, .-queue_insert
  60              		.align	2
  61              		.thumb
  62              		.thumb_func
  63              		.type	fifo_remove, %function
  64              	fifo_remove:
  65              	.LFB2:
  66              		.loc 1 59 0
  67              		.cfi_startproc
  68              		@ args = 0, pretend = 0, frame = 16
  69              		@ frame_needed = 0, uses_anonymous_args = 0
  70              		@ link register save eliminated.
  71 0028 84B0     		sub	sp, sp, #16
  72              		.cfi_def_cfa_offset 16
  73 002a 0190     		str	r0, [sp, #4]
  74              		.loc 1 60 0
  75 002c 019B     		ldr	r3, [sp, #4]
  76 002e 1B68     		ldr	r3, [r3]
  77 0030 0393     		str	r3, [sp, #12]
  78              		.loc 1 62 0
  79 0032 039B     		ldr	r3, [sp, #12]
  80 0034 1A68     		ldr	r2, [r3]
  81 0036 019B     		ldr	r3, [sp, #4]
  82 0038 1A60     		str	r2, [r3]
  83 003a 019B     		ldr	r3, [sp, #4]
  84 003c 1B68     		ldr	r3, [r3]
  85 003e 019A     		ldr	r2, [sp, #4]
  86 0040 5A60     		str	r2, [r3, #4]
  87              		.loc 1 63 0
  88 0042 039B     		ldr	r3, [sp, #12]
  89              		.loc 1 64 0
  90 0044 1846     		mov	r0, r3
  91 0046 04B0     		add	sp, sp, #16
  92              		.cfi_def_cfa_offset 0
  93              		@ sp needed
  94 0048 7047     		bx	lr
  95              		.cfi_endproc
  96              	.LFE2:
  97              		.size	fifo_remove, .-fifo_remove
  98 004a 00BF     		.align	2
  99              		.thumb
 100              		.thumb_func
 101              		.type	lifo_remove, %function
 102              	lifo_remove:
 103              	.LFB3:
 104              		.loc 1 66 0
 105              		.cfi_startproc
 106              		@ args = 0, pretend = 0, frame = 16
 107              		@ frame_needed = 0, uses_anonymous_args = 0
 108              		@ link register save eliminated.
 109 004c 84B0     		sub	sp, sp, #16
 110              		.cfi_def_cfa_offset 16
 111 004e 0190     		str	r0, [sp, #4]
 112              		.loc 1 67 0
 113 0050 019B     		ldr	r3, [sp, #4]
 114 0052 5B68     		ldr	r3, [r3, #4]
ARM GAS  /tmp/cc94xWmi.s 			page 3


 115 0054 0393     		str	r3, [sp, #12]
 116              		.loc 1 69 0
 117 0056 039B     		ldr	r3, [sp, #12]
 118 0058 5A68     		ldr	r2, [r3, #4]
 119 005a 019B     		ldr	r3, [sp, #4]
 120 005c 5A60     		str	r2, [r3, #4]
 121 005e 019B     		ldr	r3, [sp, #4]
 122 0060 5B68     		ldr	r3, [r3, #4]
 123 0062 019A     		ldr	r2, [sp, #4]
 124 0064 1A60     		str	r2, [r3]
 125              		.loc 1 70 0
 126 0066 039B     		ldr	r3, [sp, #12]
 127              		.loc 1 71 0
 128 0068 1846     		mov	r0, r3
 129 006a 04B0     		add	sp, sp, #16
 130              		.cfi_def_cfa_offset 0
 131              		@ sp needed
 132 006c 7047     		bx	lr
 133              		.cfi_endproc
 134              	.LFE3:
 135              		.size	lifo_remove, .-lifo_remove
 136              		.section	.rodata
 137              		.align	2
 138              	.LC0:
 139 0000 22636853 		.ascii	"\"chSemInit\"()\000"
 139      656D496E 
 139      69742228 
 139      2900
 140              		.text
 141 006e 00BF     		.align	2
 142              		.global	chSemInit
 143              		.thumb
 144              		.thumb_func
 145              		.type	chSemInit, %function
 146              	chSemInit:
 147              	.LFB7:
 148              		.file 2 "/opt/R2P/core/ChibiOS_2.6.5/os/kernel/src/chsem.c"
 149              		.loc 2 86 0
 150              		.cfi_startproc
 151              		@ args = 0, pretend = 0, frame = 8
 152              		@ frame_needed = 0, uses_anonymous_args = 0
 153 0070 00B5     		push	{lr}
 154              		.cfi_def_cfa_offset 4
 155              		.cfi_offset 14, -4
 156 0072 83B0     		sub	sp, sp, #12
 157              		.cfi_def_cfa_offset 16
 158 0074 0190     		str	r0, [sp, #4]
 159 0076 0091     		str	r1, [sp]
 160              		.loc 2 88 0
 161 0078 019B     		ldr	r3, [sp, #4]
 162 007a 002B     		cmp	r3, #0
 163 007c 02D0     		beq	.L7
 164              		.loc 2 88 0 is_stmt 0 discriminator 2
 165 007e 009B     		ldr	r3, [sp]
 166 0080 002B     		cmp	r3, #0
 167 0082 02DA     		bge	.L8
 168              	.L7:
ARM GAS  /tmp/cc94xWmi.s 			page 4


 169              		.loc 2 88 0 discriminator 3
 170 0084 0748     		ldr	r0, .L9
 171 0086 FFF7FEFF 		bl	chDbgPanic
 172              	.L8:
 173              		.loc 2 90 0 is_stmt 1
 174 008a 019A     		ldr	r2, [sp, #4]
 175 008c 019B     		ldr	r3, [sp, #4]
 176 008e 5A60     		str	r2, [r3, #4]
 177 0090 019B     		ldr	r3, [sp, #4]
 178 0092 5A68     		ldr	r2, [r3, #4]
 179 0094 019B     		ldr	r3, [sp, #4]
 180 0096 1A60     		str	r2, [r3]
 181              		.loc 2 91 0
 182 0098 019B     		ldr	r3, [sp, #4]
 183 009a 009A     		ldr	r2, [sp]
 184 009c 9A60     		str	r2, [r3, #8]
 185              		.loc 2 92 0
 186 009e 03B0     		add	sp, sp, #12
 187              		.cfi_def_cfa_offset 4
 188              		@ sp needed
 189 00a0 5DF804FB 		ldr	pc, [sp], #4
 190              	.L10:
 191              		.align	2
 192              	.L9:
 193 00a4 00000000 		.word	.LC0
 194              		.cfi_endproc
 195              	.LFE7:
 196              		.size	chSemInit, .-chSemInit
 197              		.align	2
 198              		.global	chSemReset
 199              		.thumb
 200              		.thumb_func
 201              		.type	chSemReset, %function
 202              	chSemReset:
 203              	.LFB8:
 204              		.loc 2 109 0
 205              		.cfi_startproc
 206              		@ args = 0, pretend = 0, frame = 8
 207              		@ frame_needed = 0, uses_anonymous_args = 0
 208 00a8 00B5     		push	{lr}
 209              		.cfi_def_cfa_offset 4
 210              		.cfi_offset 14, -4
 211 00aa 83B0     		sub	sp, sp, #12
 212              		.cfi_def_cfa_offset 16
 213 00ac 0190     		str	r0, [sp, #4]
 214 00ae 0091     		str	r1, [sp]
 215              	.LBB2:
 216              		.loc 2 111 0
 217 00b0 2023     		movs	r3, #32
 218              	@ 111 "/opt/R2P/core/ChibiOS_2.6.5/os/kernel/src/chsem.c" 1
 219 00b2 83F31188 		msr     BASEPRI, r3
 220              	@ 0 "" 2
 221              		.thumb
 222              	.LBE2:
 223 00b6 FFF7FEFF 		bl	dbg_check_lock
 224              		.loc 2 112 0
 225 00ba 0198     		ldr	r0, [sp, #4]
ARM GAS  /tmp/cc94xWmi.s 			page 5


 226 00bc 0099     		ldr	r1, [sp]
 227 00be FFF7FEFF 		bl	chSemResetI
 228              		.loc 2 113 0
 229 00c2 FFF7FEFF 		bl	chSchRescheduleS
 230              		.loc 2 114 0
 231 00c6 FFF7FEFF 		bl	dbg_check_unlock
 232              	.LBB3:
 233 00ca 0023     		movs	r3, #0
 234              	@ 114 "/opt/R2P/core/ChibiOS_2.6.5/os/kernel/src/chsem.c" 1
 235 00cc 83F31188 		msr     BASEPRI, r3
 236              	@ 0 "" 2
 237              		.thumb
 238              	.LBE3:
 239              		.loc 2 115 0
 240 00d0 03B0     		add	sp, sp, #12
 241              		.cfi_def_cfa_offset 4
 242              		@ sp needed
 243 00d2 5DF804FB 		ldr	pc, [sp], #4
 244              		.cfi_endproc
 245              	.LFE8:
 246              		.size	chSemReset, .-chSemReset
 247              		.section	.rodata
 248 000e 0000     		.align	2
 249              	.LC1:
 250 0010 22636853 		.ascii	"\"chSemResetI\"()\000"
 250      656D5265 
 250      73657449 
 250      22282900 
 251              		.align	2
 252              	.LC2:
 253 0020 63685365 		.ascii	"chSemResetI(), #1\000"
 253      6D526573 
 253      65744928 
 253      292C2023 
 253      3100
 254              		.text
 255 00d6 00BF     		.align	2
 256              		.global	chSemResetI
 257              		.thumb
 258              		.thumb_func
 259              		.type	chSemResetI, %function
 260              	chSemResetI:
 261              	.LFB9:
 262              		.loc 2 136 0
 263              		.cfi_startproc
 264              		@ args = 0, pretend = 0, frame = 16
 265              		@ frame_needed = 0, uses_anonymous_args = 0
 266 00d8 00B5     		push	{lr}
 267              		.cfi_def_cfa_offset 4
 268              		.cfi_offset 14, -4
 269 00da 85B0     		sub	sp, sp, #20
 270              		.cfi_def_cfa_offset 24
 271 00dc 0190     		str	r0, [sp, #4]
 272 00de 0091     		str	r1, [sp]
 273              		.loc 2 139 0
 274 00e0 FFF7FEFF 		bl	chDbgCheckClassI
 275              		.loc 2 140 0
ARM GAS  /tmp/cc94xWmi.s 			page 6


 276 00e4 019B     		ldr	r3, [sp, #4]
 277 00e6 002B     		cmp	r3, #0
 278 00e8 02D0     		beq	.L13
 279              		.loc 2 140 0 is_stmt 0 discriminator 2
 280 00ea 009B     		ldr	r3, [sp]
 281 00ec 002B     		cmp	r3, #0
 282 00ee 02DA     		bge	.L14
 283              	.L13:
 284              		.loc 2 140 0 discriminator 3
 285 00f0 1948     		ldr	r0, .L20
 286 00f2 FFF7FEFF 		bl	chDbgPanic
 287              	.L14:
 288              		.loc 2 141 0 is_stmt 1
 289 00f6 019B     		ldr	r3, [sp, #4]
 290 00f8 9B68     		ldr	r3, [r3, #8]
 291 00fa 002B     		cmp	r3, #0
 292 00fc 04DB     		blt	.L15
 293              		.loc 2 141 0 is_stmt 0 discriminator 2
 294 00fe 019B     		ldr	r3, [sp, #4]
 295 0100 1A68     		ldr	r2, [r3]
 296 0102 019B     		ldr	r3, [sp, #4]
 297 0104 9A42     		cmp	r2, r3
 298 0106 0BD0     		beq	.L16
 299              	.L15:
 300              		.loc 2 141 0 discriminator 3
 301 0108 019B     		ldr	r3, [sp, #4]
 302 010a 9B68     		ldr	r3, [r3, #8]
 303 010c 002B     		cmp	r3, #0
 304 010e 04DA     		bge	.L17
 305              		.loc 2 141 0 discriminator 5
 306 0110 019B     		ldr	r3, [sp, #4]
 307 0112 1A68     		ldr	r2, [r3]
 308 0114 019B     		ldr	r3, [sp, #4]
 309 0116 9A42     		cmp	r2, r3
 310 0118 02D1     		bne	.L16
 311              	.L17:
 312              		.loc 2 141 0 discriminator 6
 313 011a 1048     		ldr	r0, .L20+4
 314 011c FFF7FEFF 		bl	chDbgPanic
 315              	.L16:
 316              		.loc 2 146 0 is_stmt 1
 317 0120 019B     		ldr	r3, [sp, #4]
 318 0122 9B68     		ldr	r3, [r3, #8]
 319 0124 0393     		str	r3, [sp, #12]
 320              		.loc 2 147 0
 321 0126 019B     		ldr	r3, [sp, #4]
 322 0128 009A     		ldr	r2, [sp]
 323 012a 9A60     		str	r2, [r3, #8]
 324              		.loc 2 148 0
 325 012c 0BE0     		b	.L18
 326              	.L19:
 327              		.loc 2 149 0
 328 012e 019B     		ldr	r3, [sp, #4]
 329 0130 1846     		mov	r0, r3
 330 0132 FFF78BFF 		bl	lifo_remove
 331 0136 0346     		mov	r3, r0
 332 0138 1846     		mov	r0, r3
ARM GAS  /tmp/cc94xWmi.s 			page 7


 333 013a FFF7FEFF 		bl	chSchReadyI
 334 013e 0246     		mov	r2, r0
 335 0140 6FF00103 		mvn	r3, #1
 336 0144 9362     		str	r3, [r2, #40]
 337              	.L18:
 338              		.loc 2 148 0
 339 0146 039B     		ldr	r3, [sp, #12]
 340 0148 0133     		adds	r3, r3, #1
 341 014a 0393     		str	r3, [sp, #12]
 342 014c 039B     		ldr	r3, [sp, #12]
 343 014e 002B     		cmp	r3, #0
 344 0150 EDDD     		ble	.L19
 345              		.loc 2 150 0
 346 0152 05B0     		add	sp, sp, #20
 347              		.cfi_def_cfa_offset 4
 348              		@ sp needed
 349 0154 5DF804FB 		ldr	pc, [sp], #4
 350              	.L21:
 351              		.align	2
 352              	.L20:
 353 0158 10000000 		.word	.LC1
 354 015c 20000000 		.word	.LC2
 355              		.cfi_endproc
 356              	.LFE9:
 357              		.size	chSemResetI, .-chSemResetI
 358              		.align	2
 359              		.global	chSemWait
 360              		.thumb
 361              		.thumb_func
 362              		.type	chSemWait, %function
 363              	chSemWait:
 364              	.LFB10:
 365              		.loc 2 164 0
 366              		.cfi_startproc
 367              		@ args = 0, pretend = 0, frame = 16
 368              		@ frame_needed = 0, uses_anonymous_args = 0
 369 0160 00B5     		push	{lr}
 370              		.cfi_def_cfa_offset 4
 371              		.cfi_offset 14, -4
 372 0162 85B0     		sub	sp, sp, #20
 373              		.cfi_def_cfa_offset 24
 374 0164 0190     		str	r0, [sp, #4]
 375              	.LBB4:
 376              		.loc 2 167 0
 377 0166 2023     		movs	r3, #32
 378              	@ 167 "/opt/R2P/core/ChibiOS_2.6.5/os/kernel/src/chsem.c" 1
 379 0168 83F31188 		msr     BASEPRI, r3
 380              	@ 0 "" 2
 381              		.thumb
 382              	.LBE4:
 383 016c FFF7FEFF 		bl	dbg_check_lock
 384              		.loc 2 168 0
 385 0170 0198     		ldr	r0, [sp, #4]
 386 0172 FFF7FEFF 		bl	chSemWaitS
 387 0176 0390     		str	r0, [sp, #12]
 388              		.loc 2 169 0
 389 0178 FFF7FEFF 		bl	dbg_check_unlock
ARM GAS  /tmp/cc94xWmi.s 			page 8


 390              	.LBB5:
 391 017c 0023     		movs	r3, #0
 392              	@ 169 "/opt/R2P/core/ChibiOS_2.6.5/os/kernel/src/chsem.c" 1
 393 017e 83F31188 		msr     BASEPRI, r3
 394              	@ 0 "" 2
 395              		.thumb
 396              	.LBE5:
 397              		.loc 2 170 0
 398 0182 039B     		ldr	r3, [sp, #12]
 399              		.loc 2 171 0
 400 0184 1846     		mov	r0, r3
 401 0186 05B0     		add	sp, sp, #20
 402              		.cfi_def_cfa_offset 4
 403              		@ sp needed
 404 0188 5DF804FB 		ldr	pc, [sp], #4
 405              		.cfi_endproc
 406              	.LFE10:
 407              		.size	chSemWait, .-chSemWait
 408              		.section	.rodata
 409 0032 0000     		.align	2
 410              	.LC3:
 411 0034 22636853 		.ascii	"\"chSemWaitS\"()\000"
 411      656D5761 
 411      69745322 
 411      282900
 412 0043 00       		.align	2
 413              	.LC4:
 414 0044 63685365 		.ascii	"chSemWaitS(), #1\000"
 414      6D576169 
 414      74532829 
 414      2C202331 
 414      00
 415              		.text
 416              		.align	2
 417              		.global	chSemWaitS
 418              		.thumb
 419              		.thumb_func
 420              		.type	chSemWaitS, %function
 421              	chSemWaitS:
 422              	.LFB11:
 423              		.loc 2 185 0
 424              		.cfi_startproc
 425              		@ args = 0, pretend = 0, frame = 8
 426              		@ frame_needed = 0, uses_anonymous_args = 0
 427 018c 00B5     		push	{lr}
 428              		.cfi_def_cfa_offset 4
 429              		.cfi_offset 14, -4
 430 018e 83B0     		sub	sp, sp, #12
 431              		.cfi_def_cfa_offset 16
 432 0190 0190     		str	r0, [sp, #4]
 433              		.loc 2 187 0
 434 0192 FFF7FEFF 		bl	chDbgCheckClassS
 435              		.loc 2 188 0
 436 0196 019B     		ldr	r3, [sp, #4]
 437 0198 002B     		cmp	r3, #0
 438 019a 02D1     		bne	.L25
 439              		.loc 2 188 0 is_stmt 0 discriminator 1
ARM GAS  /tmp/cc94xWmi.s 			page 9


 440 019c 1B48     		ldr	r0, .L31
 441 019e FFF7FEFF 		bl	chDbgPanic
 442              	.L25:
 443              		.loc 2 189 0 is_stmt 1
 444 01a2 019B     		ldr	r3, [sp, #4]
 445 01a4 9B68     		ldr	r3, [r3, #8]
 446 01a6 002B     		cmp	r3, #0
 447 01a8 04DB     		blt	.L26
 448              		.loc 2 189 0 is_stmt 0 discriminator 2
 449 01aa 019B     		ldr	r3, [sp, #4]
 450 01ac 1A68     		ldr	r2, [r3]
 451 01ae 019B     		ldr	r3, [sp, #4]
 452 01b0 9A42     		cmp	r2, r3
 453 01b2 0BD0     		beq	.L27
 454              	.L26:
 455              		.loc 2 189 0 discriminator 3
 456 01b4 019B     		ldr	r3, [sp, #4]
 457 01b6 9B68     		ldr	r3, [r3, #8]
 458 01b8 002B     		cmp	r3, #0
 459 01ba 04DA     		bge	.L28
 460              		.loc 2 189 0 discriminator 5
 461 01bc 019B     		ldr	r3, [sp, #4]
 462 01be 1A68     		ldr	r2, [r3]
 463 01c0 019B     		ldr	r3, [sp, #4]
 464 01c2 9A42     		cmp	r2, r3
 465 01c4 02D1     		bne	.L27
 466              	.L28:
 467              		.loc 2 189 0 discriminator 6
 468 01c6 1248     		ldr	r0, .L31+4
 469 01c8 FFF7FEFF 		bl	chDbgPanic
 470              	.L27:
 471              		.loc 2 194 0 is_stmt 1
 472 01cc 019B     		ldr	r3, [sp, #4]
 473 01ce 9B68     		ldr	r3, [r3, #8]
 474 01d0 5A1E     		subs	r2, r3, #1
 475 01d2 019B     		ldr	r3, [sp, #4]
 476 01d4 9A60     		str	r2, [r3, #8]
 477 01d6 019B     		ldr	r3, [sp, #4]
 478 01d8 9B68     		ldr	r3, [r3, #8]
 479 01da 002B     		cmp	r3, #0
 480 01dc 11DA     		bge	.L29
 481              		.loc 2 195 0
 482 01de 0D4B     		ldr	r3, .L31+8
 483 01e0 9B69     		ldr	r3, [r3, #24]
 484 01e2 019A     		ldr	r2, [sp, #4]
 485 01e4 9A62     		str	r2, [r3, #40]
 486              		.loc 2 196 0
 487 01e6 0B4B     		ldr	r3, .L31+8
 488 01e8 9A69     		ldr	r2, [r3, #24]
 489 01ea 019B     		ldr	r3, [sp, #4]
 490 01ec 1046     		mov	r0, r2
 491 01ee 1946     		mov	r1, r3
 492 01f0 FFF706FF 		bl	queue_insert
 493              		.loc 2 197 0
 494 01f4 0320     		movs	r0, #3
 495 01f6 FFF7FEFF 		bl	chSchGoSleepS
 496              		.loc 2 198 0
ARM GAS  /tmp/cc94xWmi.s 			page 10


 497 01fa 064B     		ldr	r3, .L31+8
 498 01fc 9B69     		ldr	r3, [r3, #24]
 499 01fe 9B6A     		ldr	r3, [r3, #40]
 500 0200 00E0     		b	.L30
 501              	.L29:
 502              		.loc 2 200 0
 503 0202 0023     		movs	r3, #0
 504              	.L30:
 505              		.loc 2 201 0
 506 0204 1846     		mov	r0, r3
 507 0206 03B0     		add	sp, sp, #12
 508              		.cfi_def_cfa_offset 4
 509              		@ sp needed
 510 0208 5DF804FB 		ldr	pc, [sp], #4
 511              	.L32:
 512              		.align	2
 513              	.L31:
 514 020c 34000000 		.word	.LC3
 515 0210 44000000 		.word	.LC4
 516 0214 00000000 		.word	rlist
 517              		.cfi_endproc
 518              	.LFE11:
 519              		.size	chSemWaitS, .-chSemWaitS
 520              		.align	2
 521              		.global	chSemWaitTimeout
 522              		.thumb
 523              		.thumb_func
 524              		.type	chSemWaitTimeout, %function
 525              	chSemWaitTimeout:
 526              	.LFB12:
 527              		.loc 2 222 0
 528              		.cfi_startproc
 529              		@ args = 0, pretend = 0, frame = 16
 530              		@ frame_needed = 0, uses_anonymous_args = 0
 531 0218 00B5     		push	{lr}
 532              		.cfi_def_cfa_offset 4
 533              		.cfi_offset 14, -4
 534 021a 85B0     		sub	sp, sp, #20
 535              		.cfi_def_cfa_offset 24
 536 021c 0190     		str	r0, [sp, #4]
 537 021e 0091     		str	r1, [sp]
 538              	.LBB6:
 539              		.loc 2 225 0
 540 0220 2023     		movs	r3, #32
 541              	@ 225 "/opt/R2P/core/ChibiOS_2.6.5/os/kernel/src/chsem.c" 1
 542 0222 83F31188 		msr     BASEPRI, r3
 543              	@ 0 "" 2
 544              		.thumb
 545              	.LBE6:
 546 0226 FFF7FEFF 		bl	dbg_check_lock
 547              		.loc 2 226 0
 548 022a 0198     		ldr	r0, [sp, #4]
 549 022c 0099     		ldr	r1, [sp]
 550 022e FFF7FEFF 		bl	chSemWaitTimeoutS
 551 0232 0390     		str	r0, [sp, #12]
 552              		.loc 2 227 0
 553 0234 FFF7FEFF 		bl	dbg_check_unlock
ARM GAS  /tmp/cc94xWmi.s 			page 11


 554              	.LBB7:
 555 0238 0023     		movs	r3, #0
 556              	@ 227 "/opt/R2P/core/ChibiOS_2.6.5/os/kernel/src/chsem.c" 1
 557 023a 83F31188 		msr     BASEPRI, r3
 558              	@ 0 "" 2
 559              		.thumb
 560              	.LBE7:
 561              		.loc 2 228 0
 562 023e 039B     		ldr	r3, [sp, #12]
 563              		.loc 2 229 0
 564 0240 1846     		mov	r0, r3
 565 0242 05B0     		add	sp, sp, #20
 566              		.cfi_def_cfa_offset 4
 567              		@ sp needed
 568 0244 5DF804FB 		ldr	pc, [sp], #4
 569              		.cfi_endproc
 570              	.LFE12:
 571              		.size	chSemWaitTimeout, .-chSemWaitTimeout
 572              		.section	.rodata
 573 0055 000000   		.align	2
 574              	.LC5:
 575 0058 22636853 		.ascii	"\"chSemWaitTimeoutS\"()\000"
 575      656D5761 
 575      69745469 
 575      6D656F75 
 575      74532228 
 576 006e 0000     		.align	2
 577              	.LC6:
 578 0070 63685365 		.ascii	"chSemWaitTimeoutS(), #1\000"
 578      6D576169 
 578      7454696D 
 578      656F7574 
 578      5328292C 
 579              		.text
 580              		.align	2
 581              		.global	chSemWaitTimeoutS
 582              		.thumb
 583              		.thumb_func
 584              		.type	chSemWaitTimeoutS, %function
 585              	chSemWaitTimeoutS:
 586              	.LFB13:
 587              		.loc 2 250 0
 588              		.cfi_startproc
 589              		@ args = 0, pretend = 0, frame = 8
 590              		@ frame_needed = 0, uses_anonymous_args = 0
 591 0248 00B5     		push	{lr}
 592              		.cfi_def_cfa_offset 4
 593              		.cfi_offset 14, -4
 594 024a 83B0     		sub	sp, sp, #12
 595              		.cfi_def_cfa_offset 16
 596 024c 0190     		str	r0, [sp, #4]
 597 024e 0091     		str	r1, [sp]
 598              		.loc 2 252 0
 599 0250 FFF7FEFF 		bl	chDbgCheckClassS
 600              		.loc 2 253 0
 601 0254 019B     		ldr	r3, [sp, #4]
 602 0256 002B     		cmp	r3, #0
ARM GAS  /tmp/cc94xWmi.s 			page 12


 603 0258 02D1     		bne	.L36
 604              		.loc 2 253 0 is_stmt 0 discriminator 1
 605 025a 2148     		ldr	r0, .L43
 606 025c FFF7FEFF 		bl	chDbgPanic
 607              	.L36:
 608              		.loc 2 254 0 is_stmt 1
 609 0260 019B     		ldr	r3, [sp, #4]
 610 0262 9B68     		ldr	r3, [r3, #8]
 611 0264 002B     		cmp	r3, #0
 612 0266 04DB     		blt	.L37
 613              		.loc 2 254 0 is_stmt 0 discriminator 2
 614 0268 019B     		ldr	r3, [sp, #4]
 615 026a 1A68     		ldr	r2, [r3]
 616 026c 019B     		ldr	r3, [sp, #4]
 617 026e 9A42     		cmp	r2, r3
 618 0270 0BD0     		beq	.L38
 619              	.L37:
 620              		.loc 2 254 0 discriminator 3
 621 0272 019B     		ldr	r3, [sp, #4]
 622 0274 9B68     		ldr	r3, [r3, #8]
 623 0276 002B     		cmp	r3, #0
 624 0278 04DA     		bge	.L39
 625              		.loc 2 254 0 discriminator 5
 626 027a 019B     		ldr	r3, [sp, #4]
 627 027c 1A68     		ldr	r2, [r3]
 628 027e 019B     		ldr	r3, [sp, #4]
 629 0280 9A42     		cmp	r2, r3
 630 0282 02D1     		bne	.L38
 631              	.L39:
 632              		.loc 2 254 0 discriminator 6
 633 0284 1748     		ldr	r0, .L43+4
 634 0286 FFF7FEFF 		bl	chDbgPanic
 635              	.L38:
 636              		.loc 2 259 0 is_stmt 1
 637 028a 019B     		ldr	r3, [sp, #4]
 638 028c 9B68     		ldr	r3, [r3, #8]
 639 028e 5A1E     		subs	r2, r3, #1
 640 0290 019B     		ldr	r3, [sp, #4]
 641 0292 9A60     		str	r2, [r3, #8]
 642 0294 019B     		ldr	r3, [sp, #4]
 643 0296 9B68     		ldr	r3, [r3, #8]
 644 0298 002B     		cmp	r3, #0
 645 029a 1BDA     		bge	.L40
 646              		.loc 2 260 0
 647 029c 009B     		ldr	r3, [sp]
 648 029e 002B     		cmp	r3, #0
 649 02a0 07D1     		bne	.L41
 650              		.loc 2 261 0
 651 02a2 019B     		ldr	r3, [sp, #4]
 652 02a4 9B68     		ldr	r3, [r3, #8]
 653 02a6 5A1C     		adds	r2, r3, #1
 654 02a8 019B     		ldr	r3, [sp, #4]
 655 02aa 9A60     		str	r2, [r3, #8]
 656              		.loc 2 262 0
 657 02ac 4FF0FF33 		mov	r3, #-1
 658 02b0 11E0     		b	.L42
 659              	.L41:
ARM GAS  /tmp/cc94xWmi.s 			page 13


 660              		.loc 2 264 0
 661 02b2 0D4B     		ldr	r3, .L43+8
 662 02b4 9B69     		ldr	r3, [r3, #24]
 663 02b6 019A     		ldr	r2, [sp, #4]
 664 02b8 9A62     		str	r2, [r3, #40]
 665              		.loc 2 265 0
 666 02ba 0B4B     		ldr	r3, .L43+8
 667 02bc 9A69     		ldr	r2, [r3, #24]
 668 02be 019B     		ldr	r3, [sp, #4]
 669 02c0 1046     		mov	r0, r2
 670 02c2 1946     		mov	r1, r3
 671 02c4 FFF79CFE 		bl	queue_insert
 672              		.loc 2 266 0
 673 02c8 0320     		movs	r0, #3
 674 02ca 0099     		ldr	r1, [sp]
 675 02cc FFF7FEFF 		bl	chSchGoSleepTimeoutS
 676 02d0 0346     		mov	r3, r0
 677 02d2 00E0     		b	.L42
 678              	.L40:
 679              		.loc 2 268 0
 680 02d4 0023     		movs	r3, #0
 681              	.L42:
 682              		.loc 2 269 0
 683 02d6 1846     		mov	r0, r3
 684 02d8 03B0     		add	sp, sp, #12
 685              		.cfi_def_cfa_offset 4
 686              		@ sp needed
 687 02da 5DF804FB 		ldr	pc, [sp], #4
 688              	.L44:
 689 02de 00BF     		.align	2
 690              	.L43:
 691 02e0 58000000 		.word	.LC5
 692 02e4 70000000 		.word	.LC6
 693 02e8 00000000 		.word	rlist
 694              		.cfi_endproc
 695              	.LFE13:
 696              		.size	chSemWaitTimeoutS, .-chSemWaitTimeoutS
 697              		.section	.rodata
 698              		.align	2
 699              	.LC7:
 700 0088 22636853 		.ascii	"\"chSemSignal\"()\000"
 700      656D5369 
 700      676E616C 
 700      22282900 
 701              		.align	2
 702              	.LC8:
 703 0098 63685365 		.ascii	"chSemSignal(), #1\000"
 703      6D536967 
 703      6E616C28 
 703      292C2023 
 703      3100
 704              		.text
 705              		.align	2
 706              		.global	chSemSignal
 707              		.thumb
 708              		.thumb_func
 709              		.type	chSemSignal, %function
ARM GAS  /tmp/cc94xWmi.s 			page 14


 710              	chSemSignal:
 711              	.LFB14:
 712              		.loc 2 278 0
 713              		.cfi_startproc
 714              		@ args = 0, pretend = 0, frame = 8
 715              		@ frame_needed = 0, uses_anonymous_args = 0
 716 02ec 00B5     		push	{lr}
 717              		.cfi_def_cfa_offset 4
 718              		.cfi_offset 14, -4
 719 02ee 83B0     		sub	sp, sp, #12
 720              		.cfi_def_cfa_offset 16
 721 02f0 0190     		str	r0, [sp, #4]
 722              		.loc 2 280 0
 723 02f2 019B     		ldr	r3, [sp, #4]
 724 02f4 002B     		cmp	r3, #0
 725 02f6 02D1     		bne	.L46
 726              		.loc 2 280 0 is_stmt 0 discriminator 1
 727 02f8 1B48     		ldr	r0, .L51
 728 02fa FFF7FEFF 		bl	chDbgPanic
 729              	.L46:
 730              		.loc 2 281 0 is_stmt 1
 731 02fe 019B     		ldr	r3, [sp, #4]
 732 0300 9B68     		ldr	r3, [r3, #8]
 733 0302 002B     		cmp	r3, #0
 734 0304 04DB     		blt	.L47
 735              		.loc 2 281 0 is_stmt 0 discriminator 2
 736 0306 019B     		ldr	r3, [sp, #4]
 737 0308 1A68     		ldr	r2, [r3]
 738 030a 019B     		ldr	r3, [sp, #4]
 739 030c 9A42     		cmp	r2, r3
 740 030e 0BD0     		beq	.L48
 741              	.L47:
 742              		.loc 2 281 0 discriminator 3
 743 0310 019B     		ldr	r3, [sp, #4]
 744 0312 9B68     		ldr	r3, [r3, #8]
 745 0314 002B     		cmp	r3, #0
 746 0316 04DA     		bge	.L49
 747              		.loc 2 281 0 discriminator 5
 748 0318 019B     		ldr	r3, [sp, #4]
 749 031a 1A68     		ldr	r2, [r3]
 750 031c 019B     		ldr	r3, [sp, #4]
 751 031e 9A42     		cmp	r2, r3
 752 0320 02D1     		bne	.L48
 753              	.L49:
 754              		.loc 2 281 0 discriminator 6
 755 0322 1248     		ldr	r0, .L51+4
 756 0324 FFF7FEFF 		bl	chDbgPanic
 757              	.L48:
 758              	.LBB8:
 759              		.loc 2 286 0 is_stmt 1
 760 0328 2023     		movs	r3, #32
 761              	@ 286 "/opt/R2P/core/ChibiOS_2.6.5/os/kernel/src/chsem.c" 1
 762 032a 83F31188 		msr     BASEPRI, r3
 763              	@ 0 "" 2
 764              		.thumb
 765              	.LBE8:
 766 032e FFF7FEFF 		bl	dbg_check_lock
ARM GAS  /tmp/cc94xWmi.s 			page 15


 767              		.loc 2 287 0
 768 0332 019B     		ldr	r3, [sp, #4]
 769 0334 9B68     		ldr	r3, [r3, #8]
 770 0336 5A1C     		adds	r2, r3, #1
 771 0338 019B     		ldr	r3, [sp, #4]
 772 033a 9A60     		str	r2, [r3, #8]
 773 033c 019B     		ldr	r3, [sp, #4]
 774 033e 9B68     		ldr	r3, [r3, #8]
 775 0340 002B     		cmp	r3, #0
 776 0342 08DC     		bgt	.L50
 777              		.loc 2 288 0
 778 0344 019B     		ldr	r3, [sp, #4]
 779 0346 1846     		mov	r0, r3
 780 0348 FFF76EFE 		bl	fifo_remove
 781 034c 0346     		mov	r3, r0
 782 034e 1846     		mov	r0, r3
 783 0350 0021     		movs	r1, #0
 784 0352 FFF7FEFF 		bl	chSchWakeupS
 785              	.L50:
 786              		.loc 2 289 0
 787 0356 FFF7FEFF 		bl	dbg_check_unlock
 788              	.LBB9:
 789 035a 0023     		movs	r3, #0
 790              	@ 289 "/opt/R2P/core/ChibiOS_2.6.5/os/kernel/src/chsem.c" 1
 791 035c 83F31188 		msr     BASEPRI, r3
 792              	@ 0 "" 2
 793              		.thumb
 794              	.LBE9:
 795              		.loc 2 290 0
 796 0360 03B0     		add	sp, sp, #12
 797              		.cfi_def_cfa_offset 4
 798              		@ sp needed
 799 0362 5DF804FB 		ldr	pc, [sp], #4
 800              	.L52:
 801 0366 00BF     		.align	2
 802              	.L51:
 803 0368 88000000 		.word	.LC7
 804 036c 98000000 		.word	.LC8
 805              		.cfi_endproc
 806              	.LFE14:
 807              		.size	chSemSignal, .-chSemSignal
 808              		.section	.rodata
 809 00aa 0000     		.align	2
 810              	.LC9:
 811 00ac 22636853 		.ascii	"\"chSemSignalI\"()\000"
 811      656D5369 
 811      676E616C 
 811      49222829 
 811      00
 812 00bd 000000   		.align	2
 813              	.LC10:
 814 00c0 63685365 		.ascii	"chSemSignalI(), #1\000"
 814      6D536967 
 814      6E616C49 
 814      28292C20 
 814      233100
 815              		.text
ARM GAS  /tmp/cc94xWmi.s 			page 16


 816              		.align	2
 817              		.global	chSemSignalI
 818              		.thumb
 819              		.thumb_func
 820              		.type	chSemSignalI, %function
 821              	chSemSignalI:
 822              	.LFB15:
 823              		.loc 2 303 0
 824              		.cfi_startproc
 825              		@ args = 0, pretend = 0, frame = 16
 826              		@ frame_needed = 0, uses_anonymous_args = 0
 827 0370 00B5     		push	{lr}
 828              		.cfi_def_cfa_offset 4
 829              		.cfi_offset 14, -4
 830 0372 85B0     		sub	sp, sp, #20
 831              		.cfi_def_cfa_offset 24
 832 0374 0190     		str	r0, [sp, #4]
 833              		.loc 2 305 0
 834 0376 FFF7FEFF 		bl	chDbgCheckClassI
 835              		.loc 2 306 0
 836 037a 019B     		ldr	r3, [sp, #4]
 837 037c 002B     		cmp	r3, #0
 838 037e 02D1     		bne	.L54
 839              		.loc 2 306 0 is_stmt 0 discriminator 1
 840 0380 1748     		ldr	r0, .L59
 841 0382 FFF7FEFF 		bl	chDbgPanic
 842              	.L54:
 843              		.loc 2 307 0 is_stmt 1
 844 0386 019B     		ldr	r3, [sp, #4]
 845 0388 9B68     		ldr	r3, [r3, #8]
 846 038a 002B     		cmp	r3, #0
 847 038c 04DB     		blt	.L55
 848              		.loc 2 307 0 is_stmt 0 discriminator 2
 849 038e 019B     		ldr	r3, [sp, #4]
 850 0390 1A68     		ldr	r2, [r3]
 851 0392 019B     		ldr	r3, [sp, #4]
 852 0394 9A42     		cmp	r2, r3
 853 0396 0BD0     		beq	.L56
 854              	.L55:
 855              		.loc 2 307 0 discriminator 3
 856 0398 019B     		ldr	r3, [sp, #4]
 857 039a 9B68     		ldr	r3, [r3, #8]
 858 039c 002B     		cmp	r3, #0
 859 039e 04DA     		bge	.L57
 860              		.loc 2 307 0 discriminator 5
 861 03a0 019B     		ldr	r3, [sp, #4]
 862 03a2 1A68     		ldr	r2, [r3]
 863 03a4 019B     		ldr	r3, [sp, #4]
 864 03a6 9A42     		cmp	r2, r3
 865 03a8 02D1     		bne	.L56
 866              	.L57:
 867              		.loc 2 307 0 discriminator 6
 868 03aa 0E48     		ldr	r0, .L59+4
 869 03ac FFF7FEFF 		bl	chDbgPanic
 870              	.L56:
 871              		.loc 2 312 0 is_stmt 1
 872 03b0 019B     		ldr	r3, [sp, #4]
ARM GAS  /tmp/cc94xWmi.s 			page 17


 873 03b2 9B68     		ldr	r3, [r3, #8]
 874 03b4 5A1C     		adds	r2, r3, #1
 875 03b6 019B     		ldr	r3, [sp, #4]
 876 03b8 9A60     		str	r2, [r3, #8]
 877 03ba 019B     		ldr	r3, [sp, #4]
 878 03bc 9B68     		ldr	r3, [r3, #8]
 879 03be 002B     		cmp	r3, #0
 880 03c0 0ADC     		bgt	.L53
 881              	.LBB10:
 882              		.loc 2 315 0
 883 03c2 019B     		ldr	r3, [sp, #4]
 884 03c4 1846     		mov	r0, r3
 885 03c6 FFF72FFE 		bl	fifo_remove
 886 03ca 0390     		str	r0, [sp, #12]
 887              		.loc 2 316 0
 888 03cc 039B     		ldr	r3, [sp, #12]
 889 03ce 0022     		movs	r2, #0
 890 03d0 9A62     		str	r2, [r3, #40]
 891              		.loc 2 317 0
 892 03d2 0398     		ldr	r0, [sp, #12]
 893 03d4 FFF7FEFF 		bl	chSchReadyI
 894              	.L53:
 895              	.LBE10:
 896              		.loc 2 319 0
 897 03d8 05B0     		add	sp, sp, #20
 898              		.cfi_def_cfa_offset 4
 899              		@ sp needed
 900 03da 5DF804FB 		ldr	pc, [sp], #4
 901              	.L60:
 902 03de 00BF     		.align	2
 903              	.L59:
 904 03e0 AC000000 		.word	.LC9
 905 03e4 C0000000 		.word	.LC10
 906              		.cfi_endproc
 907              	.LFE15:
 908              		.size	chSemSignalI, .-chSemSignalI
 909              		.section	.rodata
 910 00d3 00       		.align	2
 911              	.LC11:
 912 00d4 22636853 		.ascii	"\"chSemAddCounterI\"()\000"
 912      656D4164 
 912      64436F75 
 912      6E746572 
 912      49222829 
 913 00e9 000000   		.align	2
 914              	.LC12:
 915 00ec 63685365 		.ascii	"chSemAddCounterI(), #1\000"
 915      6D416464 
 915      436F756E 
 915      74657249 
 915      28292C20 
 916              		.text
 917              		.align	2
 918              		.global	chSemAddCounterI
 919              		.thumb
 920              		.thumb_func
 921              		.type	chSemAddCounterI, %function
ARM GAS  /tmp/cc94xWmi.s 			page 18


 922              	chSemAddCounterI:
 923              	.LFB16:
 924              		.loc 2 334 0
 925              		.cfi_startproc
 926              		@ args = 0, pretend = 0, frame = 8
 927              		@ frame_needed = 0, uses_anonymous_args = 0
 928 03e8 00B5     		push	{lr}
 929              		.cfi_def_cfa_offset 4
 930              		.cfi_offset 14, -4
 931 03ea 83B0     		sub	sp, sp, #12
 932              		.cfi_def_cfa_offset 16
 933 03ec 0190     		str	r0, [sp, #4]
 934 03ee 0091     		str	r1, [sp]
 935              		.loc 2 336 0
 936 03f0 FFF7FEFF 		bl	chDbgCheckClassI
 937              		.loc 2 337 0
 938 03f4 019B     		ldr	r3, [sp, #4]
 939 03f6 002B     		cmp	r3, #0
 940 03f8 02D0     		beq	.L62
 941              		.loc 2 337 0 is_stmt 0 discriminator 2
 942 03fa 009B     		ldr	r3, [sp]
 943 03fc 002B     		cmp	r3, #0
 944 03fe 02DC     		bgt	.L63
 945              	.L62:
 946              		.loc 2 337 0 discriminator 3
 947 0400 1A48     		ldr	r0, .L70
 948 0402 FFF7FEFF 		bl	chDbgPanic
 949              	.L63:
 950              		.loc 2 338 0 is_stmt 1
 951 0406 019B     		ldr	r3, [sp, #4]
 952 0408 9B68     		ldr	r3, [r3, #8]
 953 040a 002B     		cmp	r3, #0
 954 040c 04DB     		blt	.L64
 955              		.loc 2 338 0 is_stmt 0 discriminator 2
 956 040e 019B     		ldr	r3, [sp, #4]
 957 0410 1A68     		ldr	r2, [r3]
 958 0412 019B     		ldr	r3, [sp, #4]
 959 0414 9A42     		cmp	r2, r3
 960 0416 0BD0     		beq	.L65
 961              	.L64:
 962              		.loc 2 338 0 discriminator 3
 963 0418 019B     		ldr	r3, [sp, #4]
 964 041a 9B68     		ldr	r3, [r3, #8]
 965 041c 002B     		cmp	r3, #0
 966 041e 04DA     		bge	.L66
 967              		.loc 2 338 0 discriminator 5
 968 0420 019B     		ldr	r3, [sp, #4]
 969 0422 1A68     		ldr	r2, [r3]
 970 0424 019B     		ldr	r3, [sp, #4]
 971 0426 9A42     		cmp	r2, r3
 972 0428 02D1     		bne	.L65
 973              	.L66:
 974              		.loc 2 338 0 discriminator 6
 975 042a 1148     		ldr	r0, .L70+4
 976 042c FFF7FEFF 		bl	chDbgPanic
 977              	.L65:
 978              		.loc 2 343 0 is_stmt 1
ARM GAS  /tmp/cc94xWmi.s 			page 19


 979 0430 16E0     		b	.L67
 980              	.L69:
 981              		.loc 2 344 0
 982 0432 019B     		ldr	r3, [sp, #4]
 983 0434 9B68     		ldr	r3, [r3, #8]
 984 0436 5A1C     		adds	r2, r3, #1
 985 0438 019B     		ldr	r3, [sp, #4]
 986 043a 9A60     		str	r2, [r3, #8]
 987 043c 019B     		ldr	r3, [sp, #4]
 988 043e 9B68     		ldr	r3, [r3, #8]
 989 0440 002B     		cmp	r3, #0
 990 0442 0ADC     		bgt	.L68
 991              		.loc 2 345 0
 992 0444 019B     		ldr	r3, [sp, #4]
 993 0446 1846     		mov	r0, r3
 994 0448 FFF7EEFD 		bl	fifo_remove
 995 044c 0346     		mov	r3, r0
 996 044e 1846     		mov	r0, r3
 997 0450 FFF7FEFF 		bl	chSchReadyI
 998 0454 0246     		mov	r2, r0
 999 0456 0023     		movs	r3, #0
 1000 0458 9362     		str	r3, [r2, #40]
 1001              	.L68:
 1002              		.loc 2 346 0
 1003 045a 009B     		ldr	r3, [sp]
 1004 045c 013B     		subs	r3, r3, #1
 1005 045e 0093     		str	r3, [sp]
 1006              	.L67:
 1007              		.loc 2 343 0
 1008 0460 009B     		ldr	r3, [sp]
 1009 0462 002B     		cmp	r3, #0
 1010 0464 E5DC     		bgt	.L69
 1011              		.loc 2 348 0
 1012 0466 03B0     		add	sp, sp, #12
 1013              		.cfi_def_cfa_offset 4
 1014              		@ sp needed
 1015 0468 5DF804FB 		ldr	pc, [sp], #4
 1016              	.L71:
 1017              		.align	2
 1018              	.L70:
 1019 046c D4000000 		.word	.LC11
 1020 0470 EC000000 		.word	.LC12
 1021              		.cfi_endproc
 1022              	.LFE16:
 1023              		.size	chSemAddCounterI, .-chSemAddCounterI
 1024              		.section	.rodata
 1025 0103 00       		.align	2
 1026              	.LC13:
 1027 0104 22636853 		.ascii	"\"chSemSignalWait\"()\000"
 1027      656D5369 
 1027      676E616C 
 1027      57616974 
 1027      22282900 
 1028              		.align	2
 1029              	.LC14:
 1030 0118 63685365 		.ascii	"chSemSignalWait(), #1\000"
 1030      6D536967 
ARM GAS  /tmp/cc94xWmi.s 			page 20


 1030      6E616C57 
 1030      61697428 
 1030      292C2023 
 1031 012e 0000     		.align	2
 1032              	.LC15:
 1033 0130 63685365 		.ascii	"chSemSignalWait(), #2\000"
 1033      6D536967 
 1033      6E616C57 
 1033      61697428 
 1033      292C2023 
 1034 0146 0000     		.text
 1035              		.align	2
 1036              		.global	chSemSignalWait
 1037              		.thumb
 1038              		.thumb_func
 1039              		.type	chSemSignalWait, %function
 1040              	chSemSignalWait:
 1041              	.LFB17:
 1042              		.loc 2 366 0
 1043              		.cfi_startproc
 1044              		@ args = 0, pretend = 0, frame = 16
 1045              		@ frame_needed = 0, uses_anonymous_args = 0
 1046 0474 00B5     		push	{lr}
 1047              		.cfi_def_cfa_offset 4
 1048              		.cfi_offset 14, -4
 1049 0476 85B0     		sub	sp, sp, #20
 1050              		.cfi_def_cfa_offset 24
 1051 0478 0190     		str	r0, [sp, #4]
 1052 047a 0091     		str	r1, [sp]
 1053              		.loc 2 369 0
 1054 047c 019B     		ldr	r3, [sp, #4]
 1055 047e 002B     		cmp	r3, #0
 1056 0480 02D0     		beq	.L73
 1057              		.loc 2 369 0 is_stmt 0 discriminator 2
 1058 0482 009B     		ldr	r3, [sp]
 1059 0484 002B     		cmp	r3, #0
 1060 0486 02D1     		bne	.L74
 1061              	.L73:
 1062              		.loc 2 369 0 discriminator 3
 1063 0488 3748     		ldr	r0, .L85
 1064 048a FFF7FEFF 		bl	chDbgPanic
 1065              	.L74:
 1066              		.loc 2 370 0 is_stmt 1
 1067 048e 019B     		ldr	r3, [sp, #4]
 1068 0490 9B68     		ldr	r3, [r3, #8]
 1069 0492 002B     		cmp	r3, #0
 1070 0494 04DB     		blt	.L75
 1071              		.loc 2 370 0 is_stmt 0 discriminator 2
 1072 0496 019B     		ldr	r3, [sp, #4]
 1073 0498 1A68     		ldr	r2, [r3]
 1074 049a 019B     		ldr	r3, [sp, #4]
 1075 049c 9A42     		cmp	r2, r3
 1076 049e 0BD0     		beq	.L76
 1077              	.L75:
 1078              		.loc 2 370 0 discriminator 3
 1079 04a0 019B     		ldr	r3, [sp, #4]
 1080 04a2 9B68     		ldr	r3, [r3, #8]
ARM GAS  /tmp/cc94xWmi.s 			page 21


 1081 04a4 002B     		cmp	r3, #0
 1082 04a6 04DA     		bge	.L77
 1083              		.loc 2 370 0 discriminator 5
 1084 04a8 019B     		ldr	r3, [sp, #4]
 1085 04aa 1A68     		ldr	r2, [r3]
 1086 04ac 019B     		ldr	r3, [sp, #4]
 1087 04ae 9A42     		cmp	r2, r3
 1088 04b0 02D1     		bne	.L76
 1089              	.L77:
 1090              		.loc 2 370 0 discriminator 6
 1091 04b2 2E48     		ldr	r0, .L85+4
 1092 04b4 FFF7FEFF 		bl	chDbgPanic
 1093              	.L76:
 1094              		.loc 2 374 0 is_stmt 1
 1095 04b8 009B     		ldr	r3, [sp]
 1096 04ba 9B68     		ldr	r3, [r3, #8]
 1097 04bc 002B     		cmp	r3, #0
 1098 04be 04DB     		blt	.L78
 1099              		.loc 2 374 0 is_stmt 0 discriminator 2
 1100 04c0 009B     		ldr	r3, [sp]
 1101 04c2 1A68     		ldr	r2, [r3]
 1102 04c4 009B     		ldr	r3, [sp]
 1103 04c6 9A42     		cmp	r2, r3
 1104 04c8 0BD0     		beq	.L79
 1105              	.L78:
 1106              		.loc 2 374 0 discriminator 3
 1107 04ca 009B     		ldr	r3, [sp]
 1108 04cc 9B68     		ldr	r3, [r3, #8]
 1109 04ce 002B     		cmp	r3, #0
 1110 04d0 04DA     		bge	.L80
 1111              		.loc 2 374 0 discriminator 5
 1112 04d2 009B     		ldr	r3, [sp]
 1113 04d4 1A68     		ldr	r2, [r3]
 1114 04d6 009B     		ldr	r3, [sp]
 1115 04d8 9A42     		cmp	r2, r3
 1116 04da 02D1     		bne	.L79
 1117              	.L80:
 1118              		.loc 2 374 0 discriminator 6
 1119 04dc 2448     		ldr	r0, .L85+8
 1120 04de FFF7FEFF 		bl	chDbgPanic
 1121              	.L79:
 1122              	.LBB11:
 1123              		.loc 2 379 0 is_stmt 1
 1124 04e2 2023     		movs	r3, #32
 1125              	@ 379 "/opt/R2P/core/ChibiOS_2.6.5/os/kernel/src/chsem.c" 1
 1126 04e4 83F31188 		msr     BASEPRI, r3
 1127              	@ 0 "" 2
 1128              		.thumb
 1129              	.LBE11:
 1130 04e8 FFF7FEFF 		bl	dbg_check_lock
 1131              		.loc 2 380 0
 1132 04ec 019B     		ldr	r3, [sp, #4]
 1133 04ee 9B68     		ldr	r3, [r3, #8]
 1134 04f0 5A1C     		adds	r2, r3, #1
 1135 04f2 019B     		ldr	r3, [sp, #4]
 1136 04f4 9A60     		str	r2, [r3, #8]
 1137 04f6 019B     		ldr	r3, [sp, #4]
ARM GAS  /tmp/cc94xWmi.s 			page 22


 1138 04f8 9B68     		ldr	r3, [r3, #8]
 1139 04fa 002B     		cmp	r3, #0
 1140 04fc 0ADC     		bgt	.L81
 1141              		.loc 2 381 0
 1142 04fe 019B     		ldr	r3, [sp, #4]
 1143 0500 1846     		mov	r0, r3
 1144 0502 FFF791FD 		bl	fifo_remove
 1145 0506 0346     		mov	r3, r0
 1146 0508 1846     		mov	r0, r3
 1147 050a FFF7FEFF 		bl	chSchReadyI
 1148 050e 0246     		mov	r2, r0
 1149 0510 0023     		movs	r3, #0
 1150 0512 9362     		str	r3, [r2, #40]
 1151              	.L81:
 1152              		.loc 2 382 0
 1153 0514 009B     		ldr	r3, [sp]
 1154 0516 9B68     		ldr	r3, [r3, #8]
 1155 0518 5A1E     		subs	r2, r3, #1
 1156 051a 009B     		ldr	r3, [sp]
 1157 051c 9A60     		str	r2, [r3, #8]
 1158 051e 009B     		ldr	r3, [sp]
 1159 0520 9B68     		ldr	r3, [r3, #8]
 1160 0522 002B     		cmp	r3, #0
 1161 0524 11DA     		bge	.L82
 1162              	.LBB12:
 1163              		.loc 2 383 0
 1164 0526 134B     		ldr	r3, .L85+12
 1165 0528 9B69     		ldr	r3, [r3, #24]
 1166 052a 0293     		str	r3, [sp, #8]
 1167              		.loc 2 384 0
 1168 052c 009B     		ldr	r3, [sp]
 1169 052e 0298     		ldr	r0, [sp, #8]
 1170 0530 1946     		mov	r1, r3
 1171 0532 FFF765FD 		bl	queue_insert
 1172              		.loc 2 385 0
 1173 0536 029B     		ldr	r3, [sp, #8]
 1174 0538 009A     		ldr	r2, [sp]
 1175 053a 9A62     		str	r2, [r3, #40]
 1176              		.loc 2 386 0
 1177 053c 0320     		movs	r0, #3
 1178 053e FFF7FEFF 		bl	chSchGoSleepS
 1179              		.loc 2 387 0
 1180 0542 029B     		ldr	r3, [sp, #8]
 1181 0544 9B6A     		ldr	r3, [r3, #40]
 1182 0546 0393     		str	r3, [sp, #12]
 1183              	.LBE12:
 1184 0548 03E0     		b	.L83
 1185              	.L82:
 1186              		.loc 2 390 0
 1187 054a FFF7FEFF 		bl	chSchRescheduleS
 1188              		.loc 2 391 0
 1189 054e 0023     		movs	r3, #0
 1190 0550 0393     		str	r3, [sp, #12]
 1191              	.L83:
 1192              		.loc 2 393 0
 1193 0552 FFF7FEFF 		bl	dbg_check_unlock
 1194              	.LBB13:
ARM GAS  /tmp/cc94xWmi.s 			page 23


 1195 0556 0023     		movs	r3, #0
 1196              	@ 393 "/opt/R2P/core/ChibiOS_2.6.5/os/kernel/src/chsem.c" 1
 1197 0558 83F31188 		msr     BASEPRI, r3
 1198              	@ 0 "" 2
 1199              		.thumb
 1200              	.LBE13:
 1201              		.loc 2 394 0
 1202 055c 039B     		ldr	r3, [sp, #12]
 1203              		.loc 2 395 0
 1204 055e 1846     		mov	r0, r3
 1205 0560 05B0     		add	sp, sp, #20
 1206              		.cfi_def_cfa_offset 4
 1207              		@ sp needed
 1208 0562 5DF804FB 		ldr	pc, [sp], #4
 1209              	.L86:
 1210 0566 00BF     		.align	2
 1211              	.L85:
 1212 0568 04010000 		.word	.LC13
 1213 056c 18010000 		.word	.LC14
 1214 0570 30010000 		.word	.LC15
 1215 0574 00000000 		.word	rlist
 1216              		.cfi_endproc
 1217              	.LFE17:
 1218              		.size	chSemSignalWait, .-chSemSignalWait
 1219              	.Letext0:
 1220              		.file 3 "/opt/R2P/tools/gcc-arm-none-eabi-4_9-2014q4/arm-none-eabi/include/machine/_default_types.
 1221              		.file 4 "/opt/R2P/tools/gcc-arm-none-eabi-4_9-2014q4/arm-none-eabi/include/stdint.h"
 1222              		.file 5 "/opt/R2P/core/ChibiOS_2.6.5/os/ports/GCC/ARMCMx/chtypes.h"
 1223              		.file 6 "/opt/R2P/core/ChibiOS_2.6.5/os/kernel/include/chlists.h"
 1224              		.file 7 "/opt/R2P/core/ChibiOS_2.6.5/os/kernel/include/chthreads.h"
 1225              		.file 8 "/opt/R2P/core/ChibiOS_2.6.5/os/ports/GCC/ARMCMx/chcore_v7m.h"
 1226              		.file 9 "/opt/R2P/core/ChibiOS_2.6.5/os/kernel/include/chschd.h"
 1227              		.file 10 "/opt/R2P/core/ChibiOS_2.6.5/os/kernel/include/chsem.h"
 1228              		.file 11 "/opt/R2P/core/ChibiOS_2.6.5/os/kernel/include/chmtx.h"
 1229              		.section	.debug_info,"",%progbits
 1230              	.Ldebug_info0:
 1231 0000 6F080000 		.4byte	0x86f
 1232 0004 0400     		.2byte	0x4
 1233 0006 00000000 		.4byte	.Ldebug_abbrev0
 1234 000a 04       		.byte	0x4
 1235 000b 01       		.uleb128 0x1
 1236 000c AC020000 		.4byte	.LASF86
 1237 0010 01       		.byte	0x1
 1238 0011 5A000000 		.4byte	.LASF87
 1239 0015 00000000 		.4byte	.Ltext0
 1240 0019 78050000 		.4byte	.Letext0-.Ltext0
 1241 001d 00000000 		.4byte	.Ldebug_line0
 1242 0021 02       		.uleb128 0x2
 1243 0022 04       		.byte	0x4
 1244 0023 05       		.byte	0x5
 1245 0024 696E7400 		.ascii	"int\000"
 1246 0028 03       		.uleb128 0x3
 1247 0029 04       		.byte	0x4
 1248 002a 07       		.byte	0x7
 1249 002b 31010000 		.4byte	.LASF0
 1250 002f 03       		.uleb128 0x3
 1251 0030 01       		.byte	0x1
ARM GAS  /tmp/cc94xWmi.s 			page 24


 1252 0031 06       		.byte	0x6
 1253 0032 B2000000 		.4byte	.LASF1
 1254 0036 04       		.uleb128 0x4
 1255 0037 30000000 		.4byte	.LASF5
 1256 003b 03       		.byte	0x3
 1257 003c 1D       		.byte	0x1d
 1258 003d 41000000 		.4byte	0x41
 1259 0041 03       		.uleb128 0x3
 1260 0042 01       		.byte	0x1
 1261 0043 08       		.byte	0x8
 1262 0044 37020000 		.4byte	.LASF2
 1263 0048 03       		.uleb128 0x3
 1264 0049 02       		.byte	0x2
 1265 004a 05       		.byte	0x5
 1266 004b 4F020000 		.4byte	.LASF3
 1267 004f 03       		.uleb128 0x3
 1268 0050 02       		.byte	0x2
 1269 0051 07       		.byte	0x7
 1270 0052 6F010000 		.4byte	.LASF4
 1271 0056 04       		.uleb128 0x4
 1272 0057 80030000 		.4byte	.LASF6
 1273 005b 03       		.byte	0x3
 1274 005c 3F       		.byte	0x3f
 1275 005d 61000000 		.4byte	0x61
 1276 0061 03       		.uleb128 0x3
 1277 0062 04       		.byte	0x4
 1278 0063 05       		.byte	0x5
 1279 0064 DE000000 		.4byte	.LASF7
 1280 0068 04       		.uleb128 0x4
 1281 0069 0C010000 		.4byte	.LASF8
 1282 006d 03       		.byte	0x3
 1283 006e 41       		.byte	0x41
 1284 006f 73000000 		.4byte	0x73
 1285 0073 03       		.uleb128 0x3
 1286 0074 04       		.byte	0x4
 1287 0075 07       		.byte	0x7
 1288 0076 4F010000 		.4byte	.LASF9
 1289 007a 03       		.uleb128 0x3
 1290 007b 08       		.byte	0x8
 1291 007c 05       		.byte	0x5
 1292 007d A4000000 		.4byte	.LASF10
 1293 0081 04       		.uleb128 0x4
 1294 0082 07020000 		.4byte	.LASF11
 1295 0086 03       		.byte	0x3
 1296 0087 5B       		.byte	0x5b
 1297 0088 8C000000 		.4byte	0x8c
 1298 008c 03       		.uleb128 0x3
 1299 008d 08       		.byte	0x8
 1300 008e 07       		.byte	0x7
 1301 008f 3A000000 		.4byte	.LASF12
 1302 0093 04       		.uleb128 0x4
 1303 0094 E6030000 		.4byte	.LASF13
 1304 0098 04       		.byte	0x4
 1305 0099 15       		.byte	0x15
 1306 009a 36000000 		.4byte	0x36
 1307 009e 04       		.uleb128 0x4
 1308 009f 2F020000 		.4byte	.LASF14
ARM GAS  /tmp/cc94xWmi.s 			page 25


 1309 00a3 04       		.byte	0x4
 1310 00a4 2C       		.byte	0x2c
 1311 00a5 56000000 		.4byte	0x56
 1312 00a9 04       		.uleb128 0x4
 1313 00aa 9B020000 		.4byte	.LASF15
 1314 00ae 04       		.byte	0x4
 1315 00af 2D       		.byte	0x2d
 1316 00b0 68000000 		.4byte	0x68
 1317 00b4 04       		.uleb128 0x4
 1318 00b5 27000000 		.4byte	.LASF16
 1319 00b9 04       		.byte	0x4
 1320 00ba 39       		.byte	0x39
 1321 00bb 81000000 		.4byte	0x81
 1322 00bf 03       		.uleb128 0x3
 1323 00c0 01       		.byte	0x1
 1324 00c1 02       		.byte	0x2
 1325 00c2 29020000 		.4byte	.LASF17
 1326 00c6 04       		.uleb128 0x4
 1327 00c7 9B010000 		.4byte	.LASF18
 1328 00cb 05       		.byte	0x5
 1329 00cc 2C       		.byte	0x2c
 1330 00cd 93000000 		.4byte	0x93
 1331 00d1 04       		.uleb128 0x4
 1332 00d2 E7000000 		.4byte	.LASF19
 1333 00d6 05       		.byte	0x5
 1334 00d7 2D       		.byte	0x2d
 1335 00d8 93000000 		.4byte	0x93
 1336 00dc 04       		.uleb128 0x4
 1337 00dd 12020000 		.4byte	.LASF20
 1338 00e1 05       		.byte	0x5
 1339 00e2 2E       		.byte	0x2e
 1340 00e3 93000000 		.4byte	0x93
 1341 00e7 04       		.uleb128 0x4
 1342 00e8 21020000 		.4byte	.LASF21
 1343 00ec 05       		.byte	0x5
 1344 00ed 30       		.byte	0x30
 1345 00ee A9000000 		.4byte	0xa9
 1346 00f2 04       		.uleb128 0x4
 1347 00f3 8D010000 		.4byte	.LASF22
 1348 00f7 05       		.byte	0x5
 1349 00f8 31       		.byte	0x31
 1350 00f9 9E000000 		.4byte	0x9e
 1351 00fd 04       		.uleb128 0x4
 1352 00fe AF010000 		.4byte	.LASF23
 1353 0102 05       		.byte	0x5
 1354 0103 33       		.byte	0x33
 1355 0104 A9000000 		.4byte	0xa9
 1356 0108 04       		.uleb128 0x4
 1357 0109 6B030000 		.4byte	.LASF24
 1358 010d 05       		.byte	0x5
 1359 010e 35       		.byte	0x35
 1360 010f A9000000 		.4byte	0xa9
 1361 0113 04       		.uleb128 0x4
 1362 0114 20010000 		.4byte	.LASF25
 1363 0118 05       		.byte	0x5
 1364 0119 36       		.byte	0x36
 1365 011a 9E000000 		.4byte	0x9e
ARM GAS  /tmp/cc94xWmi.s 			page 26


 1366 011e 04       		.uleb128 0x4
 1367 011f 89020000 		.4byte	.LASF26
 1368 0123 06       		.byte	0x6
 1369 0124 2A       		.byte	0x2a
 1370 0125 29010000 		.4byte	0x129
 1371 0129 05       		.uleb128 0x5
 1372 012a 89020000 		.4byte	.LASF26
 1373 012e 4C       		.byte	0x4c
 1374 012f 07       		.byte	0x7
 1375 0130 5E       		.byte	0x5e
 1376 0131 26020000 		.4byte	0x226
 1377 0135 06       		.uleb128 0x6
 1378 0136 6F020000 		.4byte	.LASF27
 1379 013a 07       		.byte	0x7
 1380 013b 5F       		.byte	0x5f
 1381 013c 47020000 		.4byte	0x247
 1382 0140 00       		.byte	0
 1383 0141 06       		.uleb128 0x6
 1384 0142 1A020000 		.4byte	.LASF28
 1385 0146 07       		.byte	0x7
 1386 0147 61       		.byte	0x61
 1387 0148 47020000 		.4byte	0x247
 1388 014c 04       		.byte	0x4
 1389 014d 06       		.uleb128 0x6
 1390 014e 9D000000 		.4byte	.LASF29
 1391 0152 07       		.byte	0x7
 1392 0153 63       		.byte	0x63
 1393 0154 E7000000 		.4byte	0xe7
 1394 0158 08       		.byte	0x8
 1395 0159 06       		.uleb128 0x6
 1396 015a 04040000 		.4byte	.LASF30
 1397 015e 07       		.byte	0x7
 1398 015f 64       		.byte	0x64
 1399 0160 0C030000 		.4byte	0x30c
 1400 0164 0C       		.byte	0xc
 1401 0165 06       		.uleb128 0x6
 1402 0166 FC000000 		.4byte	.LASF31
 1403 016a 07       		.byte	0x7
 1404 016b 66       		.byte	0x66
 1405 016c 47020000 		.4byte	0x247
 1406 0170 10       		.byte	0x10
 1407 0171 06       		.uleb128 0x6
 1408 0172 D5010000 		.4byte	.LASF32
 1409 0176 07       		.byte	0x7
 1410 0177 67       		.byte	0x67
 1411 0178 47020000 		.4byte	0x247
 1412 017c 14       		.byte	0x14
 1413 017d 06       		.uleb128 0x6
 1414 017e F5030000 		.4byte	.LASF33
 1415 0182 07       		.byte	0x7
 1416 0183 6E       		.byte	0x6e
 1417 0184 3C040000 		.4byte	0x43c
 1418 0188 18       		.byte	0x18
 1419 0189 06       		.uleb128 0x6
 1420 018a 26010000 		.4byte	.LASF34
 1421 018e 07       		.byte	0x7
 1422 018f 74       		.byte	0x74
ARM GAS  /tmp/cc94xWmi.s 			page 27


 1423 0190 4E040000 		.4byte	0x44e
 1424 0194 1C       		.byte	0x1c
 1425 0195 06       		.uleb128 0x6
 1426 0196 59020000 		.4byte	.LASF35
 1427 019a 07       		.byte	0x7
 1428 019b 79       		.byte	0x79
 1429 019c D1000000 		.4byte	0xd1
 1430 01a0 20       		.byte	0x20
 1431 01a1 06       		.uleb128 0x6
 1432 01a2 76020000 		.4byte	.LASF36
 1433 01a6 07       		.byte	0x7
 1434 01a7 7D       		.byte	0x7d
 1435 01a8 C6000000 		.4byte	0xc6
 1436 01ac 21       		.byte	0x21
 1437 01ad 06       		.uleb128 0x6
 1438 01ae C3030000 		.4byte	.LASF37
 1439 01b2 07       		.byte	0x7
 1440 01b3 82       		.byte	0x82
 1441 01b4 DC000000 		.4byte	0xdc
 1442 01b8 22       		.byte	0x22
 1443 01b9 06       		.uleb128 0x6
 1444 01ba 94030000 		.4byte	.LASF38
 1445 01be 07       		.byte	0x7
 1446 01bf 8F       		.byte	0x8f
 1447 01c0 34030000 		.4byte	0x334
 1448 01c4 24       		.byte	0x24
 1449 01c5 07       		.uleb128 0x7
 1450 01c6 705F7500 		.ascii	"p_u\000"
 1451 01ca 07       		.byte	0x7
 1452 01cb B4       		.byte	0xb4
 1453 01cc 07040000 		.4byte	0x407
 1454 01d0 28       		.byte	0x28
 1455 01d1 06       		.uleb128 0x6
 1456 01d2 0A040000 		.4byte	.LASF39
 1457 01d6 07       		.byte	0x7
 1458 01d7 B9       		.byte	0xb9
 1459 01d8 6D020000 		.4byte	0x26d
 1460 01dc 2C       		.byte	0x2c
 1461 01dd 06       		.uleb128 0x6
 1462 01de AE030000 		.4byte	.LASF40
 1463 01e2 07       		.byte	0x7
 1464 01e3 BF       		.byte	0xbf
 1465 01e4 4D020000 		.4byte	0x24d
 1466 01e8 30       		.byte	0x30
 1467 01e9 06       		.uleb128 0x6
 1468 01ea 00000000 		.4byte	.LASF41
 1469 01ee 07       		.byte	0x7
 1470 01ef C3       		.byte	0xc3
 1471 01f0 F2000000 		.4byte	0xf2
 1472 01f4 38       		.byte	0x38
 1473 01f5 06       		.uleb128 0x6
 1474 01f6 90020000 		.4byte	.LASF42
 1475 01fa 07       		.byte	0x7
 1476 01fb C9       		.byte	0xc9
 1477 01fc FD000000 		.4byte	0xfd
 1478 0200 3C       		.byte	0x3c
 1479 0201 06       		.uleb128 0x6
ARM GAS  /tmp/cc94xWmi.s 			page 28


 1480 0202 45020000 		.4byte	.LASF43
 1481 0206 07       		.byte	0x7
 1482 0207 D0       		.byte	0xd0
 1483 0208 54040000 		.4byte	0x454
 1484 020c 40       		.byte	0x40
 1485 020d 06       		.uleb128 0x6
 1486 020e 75030000 		.4byte	.LASF44
 1487 0212 07       		.byte	0x7
 1488 0213 D4       		.byte	0xd4
 1489 0214 E7000000 		.4byte	0xe7
 1490 0218 44       		.byte	0x44
 1491 0219 06       		.uleb128 0x6
 1492 021a CE000000 		.4byte	.LASF45
 1493 021e 07       		.byte	0x7
 1494 021f DA       		.byte	0xda
 1495 0220 83020000 		.4byte	0x283
 1496 0224 48       		.byte	0x48
 1497 0225 00       		.byte	0
 1498 0226 08       		.uleb128 0x8
 1499 0227 08       		.byte	0x8
 1500 0228 06       		.byte	0x6
 1501 0229 61       		.byte	0x61
 1502 022a 47020000 		.4byte	0x247
 1503 022e 06       		.uleb128 0x6
 1504 022f 6F020000 		.4byte	.LASF27
 1505 0233 06       		.byte	0x6
 1506 0234 62       		.byte	0x62
 1507 0235 47020000 		.4byte	0x247
 1508 0239 00       		.byte	0
 1509 023a 06       		.uleb128 0x6
 1510 023b 1A020000 		.4byte	.LASF28
 1511 023f 06       		.byte	0x6
 1512 0240 64       		.byte	0x64
 1513 0241 47020000 		.4byte	0x247
 1514 0245 04       		.byte	0x4
 1515 0246 00       		.byte	0
 1516 0247 09       		.uleb128 0x9
 1517 0248 04       		.byte	0x4
 1518 0249 1E010000 		.4byte	0x11e
 1519 024d 04       		.uleb128 0x4
 1520 024e E3010000 		.4byte	.LASF46
 1521 0252 06       		.byte	0x6
 1522 0253 66       		.byte	0x66
 1523 0254 26020000 		.4byte	0x226
 1524 0258 08       		.uleb128 0x8
 1525 0259 04       		.byte	0x4
 1526 025a 06       		.byte	0x6
 1527 025b 6B       		.byte	0x6b
 1528 025c 6D020000 		.4byte	0x26d
 1529 0260 06       		.uleb128 0x6
 1530 0261 6F020000 		.4byte	.LASF27
 1531 0265 06       		.byte	0x6
 1532 0266 6D       		.byte	0x6d
 1533 0267 47020000 		.4byte	0x247
 1534 026b 00       		.byte	0
 1535 026c 00       		.byte	0
 1536 026d 04       		.uleb128 0x4
ARM GAS  /tmp/cc94xWmi.s 			page 29


 1537 026e A3010000 		.4byte	.LASF47
 1538 0272 06       		.byte	0x6
 1539 0273 70       		.byte	0x70
 1540 0274 58020000 		.4byte	0x258
 1541 0278 04       		.uleb128 0x4
 1542 0279 17010000 		.4byte	.LASF48
 1543 027d 08       		.byte	0x8
 1544 027e E5       		.byte	0xe5
 1545 027f 83020000 		.4byte	0x283
 1546 0283 0A       		.uleb128 0xa
 1547 0284 04       		.byte	0x4
 1548 0285 04       		.uleb128 0x4
 1549 0286 C1010000 		.4byte	.LASF49
 1550 028a 08       		.byte	0x8
 1551 028b EB       		.byte	0xeb
 1552 028c B4000000 		.4byte	0xb4
 1553 0290 0B       		.uleb128 0xb
 1554 0291 A7030000 		.4byte	.LASF50
 1555 0295 24       		.byte	0x24
 1556 0296 08       		.byte	0x8
 1557 0297 0C01     		.2byte	0x10c
 1558 0299 0C030000 		.4byte	0x30c
 1559 029d 0C       		.uleb128 0xc
 1560 029e 723400   		.ascii	"r4\000"
 1561 02a1 08       		.byte	0x8
 1562 02a2 1F01     		.2byte	0x11f
 1563 02a4 78020000 		.4byte	0x278
 1564 02a8 00       		.byte	0
 1565 02a9 0C       		.uleb128 0xc
 1566 02aa 723500   		.ascii	"r5\000"
 1567 02ad 08       		.byte	0x8
 1568 02ae 2001     		.2byte	0x120
 1569 02b0 78020000 		.4byte	0x278
 1570 02b4 04       		.byte	0x4
 1571 02b5 0C       		.uleb128 0xc
 1572 02b6 723600   		.ascii	"r6\000"
 1573 02b9 08       		.byte	0x8
 1574 02ba 2101     		.2byte	0x121
 1575 02bc 78020000 		.4byte	0x278
 1576 02c0 08       		.byte	0x8
 1577 02c1 0C       		.uleb128 0xc
 1578 02c2 723700   		.ascii	"r7\000"
 1579 02c5 08       		.byte	0x8
 1580 02c6 2201     		.2byte	0x122
 1581 02c8 78020000 		.4byte	0x278
 1582 02cc 0C       		.byte	0xc
 1583 02cd 0C       		.uleb128 0xc
 1584 02ce 723800   		.ascii	"r8\000"
 1585 02d1 08       		.byte	0x8
 1586 02d2 2301     		.2byte	0x123
 1587 02d4 78020000 		.4byte	0x278
 1588 02d8 10       		.byte	0x10
 1589 02d9 0C       		.uleb128 0xc
 1590 02da 723900   		.ascii	"r9\000"
 1591 02dd 08       		.byte	0x8
 1592 02de 2401     		.2byte	0x124
 1593 02e0 78020000 		.4byte	0x278
ARM GAS  /tmp/cc94xWmi.s 			page 30


 1594 02e4 14       		.byte	0x14
 1595 02e5 0C       		.uleb128 0xc
 1596 02e6 72313000 		.ascii	"r10\000"
 1597 02ea 08       		.byte	0x8
 1598 02eb 2501     		.2byte	0x125
 1599 02ed 78020000 		.4byte	0x278
 1600 02f1 18       		.byte	0x18
 1601 02f2 0C       		.uleb128 0xc
 1602 02f3 72313100 		.ascii	"r11\000"
 1603 02f7 08       		.byte	0x8
 1604 02f8 2601     		.2byte	0x126
 1605 02fa 78020000 		.4byte	0x278
 1606 02fe 1C       		.byte	0x1c
 1607 02ff 0C       		.uleb128 0xc
 1608 0300 6C7200   		.ascii	"lr\000"
 1609 0303 08       		.byte	0x8
 1610 0304 2701     		.2byte	0x127
 1611 0306 78020000 		.4byte	0x278
 1612 030a 20       		.byte	0x20
 1613 030b 00       		.byte	0
 1614 030c 0B       		.uleb128 0xb
 1615 030d 67010000 		.4byte	.LASF51
 1616 0311 04       		.byte	0x4
 1617 0312 08       		.byte	0x8
 1618 0313 3101     		.2byte	0x131
 1619 0315 27030000 		.4byte	0x327
 1620 0319 0C       		.uleb128 0xc
 1621 031a 72313300 		.ascii	"r13\000"
 1622 031e 08       		.byte	0x8
 1623 031f 3201     		.2byte	0x132
 1624 0321 27030000 		.4byte	0x327
 1625 0325 00       		.byte	0
 1626 0326 00       		.byte	0
 1627 0327 09       		.uleb128 0x9
 1628 0328 04       		.byte	0x4
 1629 0329 90020000 		.4byte	0x290
 1630 032d 03       		.uleb128 0x3
 1631 032e 04       		.byte	0x4
 1632 032f 07       		.byte	0x7
 1633 0330 CC010000 		.4byte	.LASF52
 1634 0334 0D       		.uleb128 0xd
 1635 0335 08010000 		.4byte	0x108
 1636 0339 08       		.uleb128 0x8
 1637 033a 1C       		.byte	0x1c
 1638 033b 09       		.byte	0x9
 1639 033c 5E       		.byte	0x5e
 1640 033d 8A030000 		.4byte	0x38a
 1641 0341 06       		.uleb128 0x6
 1642 0342 A4020000 		.4byte	.LASF53
 1643 0346 09       		.byte	0x9
 1644 0347 5F       		.byte	0x5f
 1645 0348 4D020000 		.4byte	0x24d
 1646 034c 00       		.byte	0
 1647 034d 06       		.uleb128 0x6
 1648 034e 61020000 		.4byte	.LASF54
 1649 0352 09       		.byte	0x9
 1650 0353 60       		.byte	0x60
ARM GAS  /tmp/cc94xWmi.s 			page 31


 1651 0354 E7000000 		.4byte	0xe7
 1652 0358 08       		.byte	0x8
 1653 0359 06       		.uleb128 0x6
 1654 035a DD010000 		.4byte	.LASF55
 1655 035e 09       		.byte	0x9
 1656 035f 62       		.byte	0x62
 1657 0360 0C030000 		.4byte	0x30c
 1658 0364 0C       		.byte	0xc
 1659 0365 06       		.uleb128 0x6
 1660 0366 93010000 		.4byte	.LASF56
 1661 036a 09       		.byte	0x9
 1662 036b 65       		.byte	0x65
 1663 036c 47020000 		.4byte	0x247
 1664 0370 10       		.byte	0x10
 1665 0371 06       		.uleb128 0x6
 1666 0372 FF010000 		.4byte	.LASF57
 1667 0376 09       		.byte	0x9
 1668 0377 66       		.byte	0x66
 1669 0378 47020000 		.4byte	0x247
 1670 037c 14       		.byte	0x14
 1671 037d 06       		.uleb128 0x6
 1672 037e F5010000 		.4byte	.LASF58
 1673 0382 09       		.byte	0x9
 1674 0383 69       		.byte	0x69
 1675 0384 47020000 		.4byte	0x247
 1676 0388 18       		.byte	0x18
 1677 0389 00       		.byte	0
 1678 038a 04       		.uleb128 0x4
 1679 038b CA030000 		.4byte	.LASF59
 1680 038f 09       		.byte	0x9
 1681 0390 6B       		.byte	0x6b
 1682 0391 39030000 		.4byte	0x339
 1683 0395 05       		.uleb128 0x5
 1684 0396 B9030000 		.4byte	.LASF60
 1685 039a 0C       		.byte	0xc
 1686 039b 0A       		.byte	0xa
 1687 039c 2C       		.byte	0x2c
 1688 039d BA030000 		.4byte	0x3ba
 1689 03a1 06       		.uleb128 0x6
 1690 03a2 04010000 		.4byte	.LASF61
 1691 03a6 0A       		.byte	0xa
 1692 03a7 2D       		.byte	0x2d
 1693 03a8 4D020000 		.4byte	0x24d
 1694 03ac 00       		.byte	0
 1695 03ad 06       		.uleb128 0x6
 1696 03ae 61010000 		.4byte	.LASF62
 1697 03b2 0A       		.byte	0xa
 1698 03b3 2F       		.byte	0x2f
 1699 03b4 13010000 		.4byte	0x113
 1700 03b8 08       		.byte	0x8
 1701 03b9 00       		.byte	0
 1702 03ba 04       		.uleb128 0x4
 1703 03bb B9030000 		.4byte	.LASF60
 1704 03bf 0A       		.byte	0xa
 1705 03c0 30       		.byte	0x30
 1706 03c1 95030000 		.4byte	0x395
 1707 03c5 05       		.uleb128 0x5
ARM GAS  /tmp/cc94xWmi.s 			page 32


 1708 03c6 BB010000 		.4byte	.LASF63
 1709 03ca 10       		.byte	0x10
 1710 03cb 0B       		.byte	0xb
 1711 03cc 2C       		.byte	0x2c
 1712 03cd F6030000 		.4byte	0x3f6
 1713 03d1 06       		.uleb128 0x6
 1714 03d2 D6000000 		.4byte	.LASF64
 1715 03d6 0B       		.byte	0xb
 1716 03d7 2D       		.byte	0x2d
 1717 03d8 4D020000 		.4byte	0x24d
 1718 03dc 00       		.byte	0
 1719 03dd 06       		.uleb128 0x6
 1720 03de FC030000 		.4byte	.LASF65
 1721 03e2 0B       		.byte	0xb
 1722 03e3 2F       		.byte	0x2f
 1723 03e4 47020000 		.4byte	0x247
 1724 03e8 08       		.byte	0x8
 1725 03e9 06       		.uleb128 0x6
 1726 03ea 64030000 		.4byte	.LASF66
 1727 03ee 0B       		.byte	0xb
 1728 03ef 31       		.byte	0x31
 1729 03f0 F6030000 		.4byte	0x3f6
 1730 03f4 0C       		.byte	0xc
 1731 03f5 00       		.byte	0
 1732 03f6 09       		.uleb128 0x9
 1733 03f7 04       		.byte	0x4
 1734 03f8 C5030000 		.4byte	0x3c5
 1735 03fc 04       		.uleb128 0x4
 1736 03fd BB010000 		.4byte	.LASF63
 1737 0401 0B       		.byte	0xb
 1738 0402 33       		.byte	0x33
 1739 0403 C5030000 		.4byte	0x3c5
 1740 0407 0E       		.uleb128 0xe
 1741 0408 04       		.byte	0x4
 1742 0409 07       		.byte	0x7
 1743 040a 96       		.byte	0x96
 1744 040b 3C040000 		.4byte	0x43c
 1745 040f 0F       		.uleb128 0xf
 1746 0410 20000000 		.4byte	.LASF67
 1747 0414 07       		.byte	0x7
 1748 0415 9D       		.byte	0x9d
 1749 0416 F2000000 		.4byte	0xf2
 1750 041a 0F       		.uleb128 0xf
 1751 041b 51000000 		.4byte	.LASF68
 1752 041f 07       		.byte	0x7
 1753 0420 A4       		.byte	0xa4
 1754 0421 F2000000 		.4byte	0xf2
 1755 0425 0F       		.uleb128 0xf
 1756 0426 EE030000 		.4byte	.LASF69
 1757 042a 07       		.byte	0x7
 1758 042b AB       		.byte	0xab
 1759 042c 83020000 		.4byte	0x283
 1760 0430 0F       		.uleb128 0xf
 1761 0431 68020000 		.4byte	.LASF70
 1762 0435 07       		.byte	0x7
 1763 0436 B2       		.byte	0xb2
 1764 0437 FD000000 		.4byte	0xfd
ARM GAS  /tmp/cc94xWmi.s 			page 33


 1765 043b 00       		.byte	0
 1766 043c 09       		.uleb128 0x9
 1767 043d 04       		.byte	0x4
 1768 043e 42040000 		.4byte	0x442
 1769 0442 10       		.uleb128 0x10
 1770 0443 47040000 		.4byte	0x447
 1771 0447 03       		.uleb128 0x3
 1772 0448 01       		.byte	0x1
 1773 0449 08       		.byte	0x8
 1774 044a 41030000 		.4byte	.LASF71
 1775 044e 09       		.uleb128 0x9
 1776 044f 04       		.byte	0x4
 1777 0450 85020000 		.4byte	0x285
 1778 0454 09       		.uleb128 0x9
 1779 0455 04       		.byte	0x4
 1780 0456 FC030000 		.4byte	0x3fc
 1781 045a 11       		.uleb128 0x11
 1782 045b 06000000 		.4byte	.LASF88
 1783 045f 01       		.byte	0x1
 1784 0460 34       		.byte	0x34
 1785 0461 00000000 		.4byte	.LFB1
 1786 0465 28000000 		.4byte	.LFE1-.LFB1
 1787 0469 01       		.uleb128 0x1
 1788 046a 9C       		.byte	0x9c
 1789 046b 8B040000 		.4byte	0x48b
 1790 046f 12       		.uleb128 0x12
 1791 0470 747000   		.ascii	"tp\000"
 1792 0473 01       		.byte	0x1
 1793 0474 34       		.byte	0x34
 1794 0475 47020000 		.4byte	0x247
 1795 0479 02       		.uleb128 0x2
 1796 047a 91       		.byte	0x91
 1797 047b 7C       		.sleb128 -4
 1798 047c 12       		.uleb128 0x12
 1799 047d 74717000 		.ascii	"tqp\000"
 1800 0481 01       		.byte	0x1
 1801 0482 34       		.byte	0x34
 1802 0483 8B040000 		.4byte	0x48b
 1803 0487 02       		.uleb128 0x2
 1804 0488 91       		.byte	0x91
 1805 0489 78       		.sleb128 -8
 1806 048a 00       		.byte	0
 1807 048b 09       		.uleb128 0x9
 1808 048c 04       		.byte	0x4
 1809 048d 4D020000 		.4byte	0x24d
 1810 0491 13       		.uleb128 0x13
 1811 0492 46030000 		.4byte	.LASF72
 1812 0496 01       		.byte	0x1
 1813 0497 3B       		.byte	0x3b
 1814 0498 47020000 		.4byte	0x247
 1815 049c 28000000 		.4byte	.LFB2
 1816 04a0 22000000 		.4byte	.LFE2-.LFB2
 1817 04a4 01       		.uleb128 0x1
 1818 04a5 9C       		.byte	0x9c
 1819 04a6 C6040000 		.4byte	0x4c6
 1820 04aa 12       		.uleb128 0x12
 1821 04ab 74717000 		.ascii	"tqp\000"
ARM GAS  /tmp/cc94xWmi.s 			page 34


 1822 04af 01       		.byte	0x1
 1823 04b0 3B       		.byte	0x3b
 1824 04b1 8B040000 		.4byte	0x48b
 1825 04b5 02       		.uleb128 0x2
 1826 04b6 91       		.byte	0x91
 1827 04b7 74       		.sleb128 -12
 1828 04b8 14       		.uleb128 0x14
 1829 04b9 747000   		.ascii	"tp\000"
 1830 04bc 01       		.byte	0x1
 1831 04bd 3C       		.byte	0x3c
 1832 04be 47020000 		.4byte	0x247
 1833 04c2 02       		.uleb128 0x2
 1834 04c3 91       		.byte	0x91
 1835 04c4 7C       		.sleb128 -4
 1836 04c5 00       		.byte	0
 1837 04c6 13       		.uleb128 0x13
 1838 04c7 9B030000 		.4byte	.LASF73
 1839 04cb 01       		.byte	0x1
 1840 04cc 42       		.byte	0x42
 1841 04cd 47020000 		.4byte	0x247
 1842 04d1 4C000000 		.4byte	.LFB3
 1843 04d5 22000000 		.4byte	.LFE3-.LFB3
 1844 04d9 01       		.uleb128 0x1
 1845 04da 9C       		.byte	0x9c
 1846 04db FB040000 		.4byte	0x4fb
 1847 04df 12       		.uleb128 0x12
 1848 04e0 74717000 		.ascii	"tqp\000"
 1849 04e4 01       		.byte	0x1
 1850 04e5 42       		.byte	0x42
 1851 04e6 8B040000 		.4byte	0x48b
 1852 04ea 02       		.uleb128 0x2
 1853 04eb 91       		.byte	0x91
 1854 04ec 74       		.sleb128 -12
 1855 04ed 14       		.uleb128 0x14
 1856 04ee 747000   		.ascii	"tp\000"
 1857 04f1 01       		.byte	0x1
 1858 04f2 43       		.byte	0x43
 1859 04f3 47020000 		.4byte	0x247
 1860 04f7 02       		.uleb128 0x2
 1861 04f8 91       		.byte	0x91
 1862 04f9 7C       		.sleb128 -4
 1863 04fa 00       		.byte	0
 1864 04fb 15       		.uleb128 0x15
 1865 04fc 14040000 		.4byte	.LASF74
 1866 0500 02       		.byte	0x2
 1867 0501 56       		.byte	0x56
 1868 0502 70000000 		.4byte	.LFB7
 1869 0506 38000000 		.4byte	.LFE7-.LFB7
 1870 050a 01       		.uleb128 0x1
 1871 050b 9C       		.byte	0x9c
 1872 050c 2A050000 		.4byte	0x52a
 1873 0510 12       		.uleb128 0x12
 1874 0511 737000   		.ascii	"sp\000"
 1875 0514 02       		.byte	0x2
 1876 0515 56       		.byte	0x56
 1877 0516 2A050000 		.4byte	0x52a
 1878 051a 02       		.uleb128 0x2
ARM GAS  /tmp/cc94xWmi.s 			page 35


 1879 051b 91       		.byte	0x91
 1880 051c 74       		.sleb128 -12
 1881 051d 12       		.uleb128 0x12
 1882 051e 6E00     		.ascii	"n\000"
 1883 0520 02       		.byte	0x2
 1884 0521 56       		.byte	0x56
 1885 0522 13010000 		.4byte	0x113
 1886 0526 02       		.uleb128 0x2
 1887 0527 91       		.byte	0x91
 1888 0528 70       		.sleb128 -16
 1889 0529 00       		.byte	0
 1890 052a 09       		.uleb128 0x9
 1891 052b 04       		.byte	0x4
 1892 052c BA030000 		.4byte	0x3ba
 1893 0530 15       		.uleb128 0x15
 1894 0531 82010000 		.4byte	.LASF75
 1895 0535 02       		.byte	0x2
 1896 0536 6D       		.byte	0x6d
 1897 0537 A8000000 		.4byte	.LFB8
 1898 053b 2E000000 		.4byte	.LFE8-.LFB8
 1899 053f 01       		.uleb128 0x1
 1900 0540 9C       		.byte	0x9c
 1901 0541 91050000 		.4byte	0x591
 1902 0545 12       		.uleb128 0x12
 1903 0546 737000   		.ascii	"sp\000"
 1904 0549 02       		.byte	0x2
 1905 054a 6D       		.byte	0x6d
 1906 054b 2A050000 		.4byte	0x52a
 1907 054f 02       		.uleb128 0x2
 1908 0550 91       		.byte	0x91
 1909 0551 74       		.sleb128 -12
 1910 0552 12       		.uleb128 0x12
 1911 0553 6E00     		.ascii	"n\000"
 1912 0555 02       		.byte	0x2
 1913 0556 6D       		.byte	0x6d
 1914 0557 13010000 		.4byte	0x113
 1915 055b 02       		.uleb128 0x2
 1916 055c 91       		.byte	0x91
 1917 055d 70       		.sleb128 -16
 1918 055e 16       		.uleb128 0x16
 1919 055f B0000000 		.4byte	.LBB2
 1920 0563 06000000 		.4byte	.LBE2-.LBB2
 1921 0567 79050000 		.4byte	0x579
 1922 056b 14       		.uleb128 0x14
 1923 056c 746D7000 		.ascii	"tmp\000"
 1924 0570 02       		.byte	0x2
 1925 0571 6F       		.byte	0x6f
 1926 0572 A9000000 		.4byte	0xa9
 1927 0576 01       		.uleb128 0x1
 1928 0577 53       		.byte	0x53
 1929 0578 00       		.byte	0
 1930 0579 17       		.uleb128 0x17
 1931 057a CA000000 		.4byte	.LBB3
 1932 057e 06000000 		.4byte	.LBE3-.LBB3
 1933 0582 14       		.uleb128 0x14
 1934 0583 746D7000 		.ascii	"tmp\000"
 1935 0587 02       		.byte	0x2
ARM GAS  /tmp/cc94xWmi.s 			page 36


 1936 0588 72       		.byte	0x72
 1937 0589 A9000000 		.4byte	0xa9
 1938 058d 01       		.uleb128 0x1
 1939 058e 53       		.byte	0x53
 1940 058f 00       		.byte	0
 1941 0590 00       		.byte	0
 1942 0591 15       		.uleb128 0x15
 1943 0592 D4030000 		.4byte	.LASF76
 1944 0596 02       		.byte	0x2
 1945 0597 88       		.byte	0x88
 1946 0598 D8000000 		.4byte	.LFB9
 1947 059c 88000000 		.4byte	.LFE9-.LFB9
 1948 05a0 01       		.uleb128 0x1
 1949 05a1 9C       		.byte	0x9c
 1950 05a2 CE050000 		.4byte	0x5ce
 1951 05a6 12       		.uleb128 0x12
 1952 05a7 737000   		.ascii	"sp\000"
 1953 05aa 02       		.byte	0x2
 1954 05ab 88       		.byte	0x88
 1955 05ac 2A050000 		.4byte	0x52a
 1956 05b0 02       		.uleb128 0x2
 1957 05b1 91       		.byte	0x91
 1958 05b2 6C       		.sleb128 -20
 1959 05b3 12       		.uleb128 0x12
 1960 05b4 6E00     		.ascii	"n\000"
 1961 05b6 02       		.byte	0x2
 1962 05b7 88       		.byte	0x88
 1963 05b8 13010000 		.4byte	0x113
 1964 05bc 02       		.uleb128 0x2
 1965 05bd 91       		.byte	0x91
 1966 05be 68       		.sleb128 -24
 1967 05bf 14       		.uleb128 0x14
 1968 05c0 636E7400 		.ascii	"cnt\000"
 1969 05c4 02       		.byte	0x2
 1970 05c5 89       		.byte	0x89
 1971 05c6 13010000 		.4byte	0x113
 1972 05ca 02       		.uleb128 0x2
 1973 05cb 91       		.byte	0x91
 1974 05cc 74       		.sleb128 -12
 1975 05cd 00       		.byte	0
 1976 05ce 18       		.uleb128 0x18
 1977 05cf 8A030000 		.4byte	.LASF77
 1978 05d3 02       		.byte	0x2
 1979 05d4 A4       		.byte	0xa4
 1980 05d5 F2000000 		.4byte	0xf2
 1981 05d9 60010000 		.4byte	.LFB10
 1982 05dd 2C000000 		.4byte	.LFE10-.LFB10
 1983 05e1 01       		.uleb128 0x1
 1984 05e2 9C       		.byte	0x9c
 1985 05e3 35060000 		.4byte	0x635
 1986 05e7 12       		.uleb128 0x12
 1987 05e8 737000   		.ascii	"sp\000"
 1988 05eb 02       		.byte	0x2
 1989 05ec A4       		.byte	0xa4
 1990 05ed 2A050000 		.4byte	0x52a
 1991 05f1 02       		.uleb128 0x2
 1992 05f2 91       		.byte	0x91
ARM GAS  /tmp/cc94xWmi.s 			page 37


 1993 05f3 6C       		.sleb128 -20
 1994 05f4 14       		.uleb128 0x14
 1995 05f5 6D736700 		.ascii	"msg\000"
 1996 05f9 02       		.byte	0x2
 1997 05fa A5       		.byte	0xa5
 1998 05fb F2000000 		.4byte	0xf2
 1999 05ff 02       		.uleb128 0x2
 2000 0600 91       		.byte	0x91
 2001 0601 74       		.sleb128 -12
 2002 0602 16       		.uleb128 0x16
 2003 0603 66010000 		.4byte	.LBB4
 2004 0607 06000000 		.4byte	.LBE4-.LBB4
 2005 060b 1D060000 		.4byte	0x61d
 2006 060f 14       		.uleb128 0x14
 2007 0610 746D7000 		.ascii	"tmp\000"
 2008 0614 02       		.byte	0x2
 2009 0615 A7       		.byte	0xa7
 2010 0616 A9000000 		.4byte	0xa9
 2011 061a 01       		.uleb128 0x1
 2012 061b 53       		.byte	0x53
 2013 061c 00       		.byte	0
 2014 061d 17       		.uleb128 0x17
 2015 061e 7C010000 		.4byte	.LBB5
 2016 0622 06000000 		.4byte	.LBE5-.LBB5
 2017 0626 14       		.uleb128 0x14
 2018 0627 746D7000 		.ascii	"tmp\000"
 2019 062b 02       		.byte	0x2
 2020 062c A9       		.byte	0xa9
 2021 062d A9000000 		.4byte	0xa9
 2022 0631 01       		.uleb128 0x1
 2023 0632 53       		.byte	0x53
 2024 0633 00       		.byte	0
 2025 0634 00       		.byte	0
 2026 0635 18       		.uleb128 0x18
 2027 0636 7E020000 		.4byte	.LASF78
 2028 063a 02       		.byte	0x2
 2029 063b B9       		.byte	0xb9
 2030 063c F2000000 		.4byte	0xf2
 2031 0640 8C010000 		.4byte	.LFB11
 2032 0644 8C000000 		.4byte	.LFE11-.LFB11
 2033 0648 01       		.uleb128 0x1
 2034 0649 9C       		.byte	0x9c
 2035 064a 5C060000 		.4byte	0x65c
 2036 064e 12       		.uleb128 0x12
 2037 064f 737000   		.ascii	"sp\000"
 2038 0652 02       		.byte	0x2
 2039 0653 B9       		.byte	0xb9
 2040 0654 2A050000 		.4byte	0x52a
 2041 0658 02       		.uleb128 0x2
 2042 0659 91       		.byte	0x91
 2043 065a 74       		.sleb128 -12
 2044 065b 00       		.byte	0
 2045 065c 18       		.uleb128 0x18
 2046 065d 3E010000 		.4byte	.LASF79
 2047 0661 02       		.byte	0x2
 2048 0662 DE       		.byte	0xde
 2049 0663 F2000000 		.4byte	0xf2
ARM GAS  /tmp/cc94xWmi.s 			page 38


 2050 0667 18020000 		.4byte	.LFB12
 2051 066b 30000000 		.4byte	.LFE12-.LFB12
 2052 066f 01       		.uleb128 0x1
 2053 0670 9C       		.byte	0x9c
 2054 0671 D1060000 		.4byte	0x6d1
 2055 0675 12       		.uleb128 0x12
 2056 0676 737000   		.ascii	"sp\000"
 2057 0679 02       		.byte	0x2
 2058 067a DE       		.byte	0xde
 2059 067b 2A050000 		.4byte	0x52a
 2060 067f 02       		.uleb128 0x2
 2061 0680 91       		.byte	0x91
 2062 0681 6C       		.sleb128 -20
 2063 0682 19       		.uleb128 0x19
 2064 0683 F0010000 		.4byte	.LASF80
 2065 0687 02       		.byte	0x2
 2066 0688 DE       		.byte	0xde
 2067 0689 08010000 		.4byte	0x108
 2068 068d 02       		.uleb128 0x2
 2069 068e 91       		.byte	0x91
 2070 068f 68       		.sleb128 -24
 2071 0690 14       		.uleb128 0x14
 2072 0691 6D736700 		.ascii	"msg\000"
 2073 0695 02       		.byte	0x2
 2074 0696 DF       		.byte	0xdf
 2075 0697 F2000000 		.4byte	0xf2
 2076 069b 02       		.uleb128 0x2
 2077 069c 91       		.byte	0x91
 2078 069d 74       		.sleb128 -12
 2079 069e 16       		.uleb128 0x16
 2080 069f 20020000 		.4byte	.LBB6
 2081 06a3 06000000 		.4byte	.LBE6-.LBB6
 2082 06a7 B9060000 		.4byte	0x6b9
 2083 06ab 14       		.uleb128 0x14
 2084 06ac 746D7000 		.ascii	"tmp\000"
 2085 06b0 02       		.byte	0x2
 2086 06b1 E1       		.byte	0xe1
 2087 06b2 A9000000 		.4byte	0xa9
 2088 06b6 01       		.uleb128 0x1
 2089 06b7 53       		.byte	0x53
 2090 06b8 00       		.byte	0
 2091 06b9 17       		.uleb128 0x17
 2092 06ba 38020000 		.4byte	.LBB7
 2093 06be 06000000 		.4byte	.LBE7-.LBB7
 2094 06c2 14       		.uleb128 0x14
 2095 06c3 746D7000 		.ascii	"tmp\000"
 2096 06c7 02       		.byte	0x2
 2097 06c8 E3       		.byte	0xe3
 2098 06c9 A9000000 		.4byte	0xa9
 2099 06cd 01       		.uleb128 0x1
 2100 06ce 53       		.byte	0x53
 2101 06cf 00       		.byte	0
 2102 06d0 00       		.byte	0
 2103 06d1 18       		.uleb128 0x18
 2104 06d2 52030000 		.4byte	.LASF81
 2105 06d6 02       		.byte	0x2
 2106 06d7 FA       		.byte	0xfa
ARM GAS  /tmp/cc94xWmi.s 			page 39


 2107 06d8 F2000000 		.4byte	0xf2
 2108 06dc 48020000 		.4byte	.LFB13
 2109 06e0 A4000000 		.4byte	.LFE13-.LFB13
 2110 06e4 01       		.uleb128 0x1
 2111 06e5 9C       		.byte	0x9c
 2112 06e6 06070000 		.4byte	0x706
 2113 06ea 12       		.uleb128 0x12
 2114 06eb 737000   		.ascii	"sp\000"
 2115 06ee 02       		.byte	0x2
 2116 06ef FA       		.byte	0xfa
 2117 06f0 2A050000 		.4byte	0x52a
 2118 06f4 02       		.uleb128 0x2
 2119 06f5 91       		.byte	0x91
 2120 06f6 74       		.sleb128 -12
 2121 06f7 19       		.uleb128 0x19
 2122 06f8 F0010000 		.4byte	.LASF80
 2123 06fc 02       		.byte	0x2
 2124 06fd FA       		.byte	0xfa
 2125 06fe 08010000 		.4byte	0x108
 2126 0702 02       		.uleb128 0x2
 2127 0703 91       		.byte	0x91
 2128 0704 70       		.sleb128 -16
 2129 0705 00       		.byte	0
 2130 0706 1A       		.uleb128 0x1a
 2131 0707 F0000000 		.4byte	.LASF82
 2132 070b 02       		.byte	0x2
 2133 070c 1601     		.2byte	0x116
 2134 070e EC020000 		.4byte	.LFB14
 2135 0712 84000000 		.4byte	.LFE14-.LFB14
 2136 0716 01       		.uleb128 0x1
 2137 0717 9C       		.byte	0x9c
 2138 0718 5F070000 		.4byte	0x75f
 2139 071c 1B       		.uleb128 0x1b
 2140 071d 737000   		.ascii	"sp\000"
 2141 0720 02       		.byte	0x2
 2142 0721 1601     		.2byte	0x116
 2143 0723 2A050000 		.4byte	0x52a
 2144 0727 02       		.uleb128 0x2
 2145 0728 91       		.byte	0x91
 2146 0729 74       		.sleb128 -12
 2147 072a 16       		.uleb128 0x16
 2148 072b 28030000 		.4byte	.LBB8
 2149 072f 06000000 		.4byte	.LBE8-.LBB8
 2150 0733 46070000 		.4byte	0x746
 2151 0737 1C       		.uleb128 0x1c
 2152 0738 746D7000 		.ascii	"tmp\000"
 2153 073c 02       		.byte	0x2
 2154 073d 1E01     		.2byte	0x11e
 2155 073f A9000000 		.4byte	0xa9
 2156 0743 01       		.uleb128 0x1
 2157 0744 53       		.byte	0x53
 2158 0745 00       		.byte	0
 2159 0746 17       		.uleb128 0x17
 2160 0747 5A030000 		.4byte	.LBB9
 2161 074b 06000000 		.4byte	.LBE9-.LBB9
 2162 074f 1C       		.uleb128 0x1c
 2163 0750 746D7000 		.ascii	"tmp\000"
ARM GAS  /tmp/cc94xWmi.s 			page 40


 2164 0754 02       		.byte	0x2
 2165 0755 2101     		.2byte	0x121
 2166 0757 A9000000 		.4byte	0xa9
 2167 075b 01       		.uleb128 0x1
 2168 075c 53       		.byte	0x53
 2169 075d 00       		.byte	0
 2170 075e 00       		.byte	0
 2171 075f 1A       		.uleb128 0x1a
 2172 0760 13000000 		.4byte	.LASF83
 2173 0764 02       		.byte	0x2
 2174 0765 2F01     		.2byte	0x12f
 2175 0767 70030000 		.4byte	.LFB15
 2176 076b 78000000 		.4byte	.LFE15-.LFB15
 2177 076f 01       		.uleb128 0x1
 2178 0770 9C       		.byte	0x9c
 2179 0771 9C070000 		.4byte	0x79c
 2180 0775 1B       		.uleb128 0x1b
 2181 0776 737000   		.ascii	"sp\000"
 2182 0779 02       		.byte	0x2
 2183 077a 2F01     		.2byte	0x12f
 2184 077c 2A050000 		.4byte	0x52a
 2185 0780 02       		.uleb128 0x2
 2186 0781 91       		.byte	0x91
 2187 0782 6C       		.sleb128 -20
 2188 0783 17       		.uleb128 0x17
 2189 0784 C2030000 		.4byte	.LBB10
 2190 0788 16000000 		.4byte	.LBE10-.LBB10
 2191 078c 1C       		.uleb128 0x1c
 2192 078d 747000   		.ascii	"tp\000"
 2193 0790 02       		.byte	0x2
 2194 0791 3B01     		.2byte	0x13b
 2195 0793 47020000 		.4byte	0x247
 2196 0797 02       		.uleb128 0x2
 2197 0798 91       		.byte	0x91
 2198 0799 74       		.sleb128 -12
 2199 079a 00       		.byte	0
 2200 079b 00       		.byte	0
 2201 079c 1A       		.uleb128 0x1a
 2202 079d 8C000000 		.4byte	.LASF84
 2203 07a1 02       		.byte	0x2
 2204 07a2 4E01     		.2byte	0x14e
 2205 07a4 E8030000 		.4byte	.LFB16
 2206 07a8 8C000000 		.4byte	.LFE16-.LFB16
 2207 07ac 01       		.uleb128 0x1
 2208 07ad 9C       		.byte	0x9c
 2209 07ae CE070000 		.4byte	0x7ce
 2210 07b2 1B       		.uleb128 0x1b
 2211 07b3 737000   		.ascii	"sp\000"
 2212 07b6 02       		.byte	0x2
 2213 07b7 4E01     		.2byte	0x14e
 2214 07b9 2A050000 		.4byte	0x52a
 2215 07bd 02       		.uleb128 0x2
 2216 07be 91       		.byte	0x91
 2217 07bf 74       		.sleb128 -12
 2218 07c0 1B       		.uleb128 0x1b
 2219 07c1 6E00     		.ascii	"n\000"
 2220 07c3 02       		.byte	0x2
ARM GAS  /tmp/cc94xWmi.s 			page 41


 2221 07c4 4E01     		.2byte	0x14e
 2222 07c6 13010000 		.4byte	0x113
 2223 07ca 02       		.uleb128 0x2
 2224 07cb 91       		.byte	0x91
 2225 07cc 70       		.sleb128 -16
 2226 07cd 00       		.byte	0
 2227 07ce 1D       		.uleb128 0x1d
 2228 07cf BE000000 		.4byte	.LASF85
 2229 07d3 02       		.byte	0x2
 2230 07d4 6E01     		.2byte	0x16e
 2231 07d6 F2000000 		.4byte	0xf2
 2232 07da 74040000 		.4byte	.LFB17
 2233 07de 04010000 		.4byte	.LFE17-.LFB17
 2234 07e2 01       		.uleb128 0x1
 2235 07e3 9C       		.byte	0x9c
 2236 07e4 67080000 		.4byte	0x867
 2237 07e8 1B       		.uleb128 0x1b
 2238 07e9 73707300 		.ascii	"sps\000"
 2239 07ed 02       		.byte	0x2
 2240 07ee 6E01     		.2byte	0x16e
 2241 07f0 2A050000 		.4byte	0x52a
 2242 07f4 02       		.uleb128 0x2
 2243 07f5 91       		.byte	0x91
 2244 07f6 6C       		.sleb128 -20
 2245 07f7 1B       		.uleb128 0x1b
 2246 07f8 73707700 		.ascii	"spw\000"
 2247 07fc 02       		.byte	0x2
 2248 07fd 6E01     		.2byte	0x16e
 2249 07ff 2A050000 		.4byte	0x52a
 2250 0803 02       		.uleb128 0x2
 2251 0804 91       		.byte	0x91
 2252 0805 68       		.sleb128 -24
 2253 0806 1C       		.uleb128 0x1c
 2254 0807 6D736700 		.ascii	"msg\000"
 2255 080b 02       		.byte	0x2
 2256 080c 6F01     		.2byte	0x16f
 2257 080e F2000000 		.4byte	0xf2
 2258 0812 02       		.uleb128 0x2
 2259 0813 91       		.byte	0x91
 2260 0814 74       		.sleb128 -12
 2261 0815 16       		.uleb128 0x16
 2262 0816 E2040000 		.4byte	.LBB11
 2263 081a 06000000 		.4byte	.LBE11-.LBB11
 2264 081e 31080000 		.4byte	0x831
 2265 0822 1C       		.uleb128 0x1c
 2266 0823 746D7000 		.ascii	"tmp\000"
 2267 0827 02       		.byte	0x2
 2268 0828 7B01     		.2byte	0x17b
 2269 082a A9000000 		.4byte	0xa9
 2270 082e 01       		.uleb128 0x1
 2271 082f 53       		.byte	0x53
 2272 0830 00       		.byte	0
 2273 0831 16       		.uleb128 0x16
 2274 0832 26050000 		.4byte	.LBB12
 2275 0836 22000000 		.4byte	.LBE12-.LBB12
 2276 083a 4E080000 		.4byte	0x84e
 2277 083e 1C       		.uleb128 0x1c
ARM GAS  /tmp/cc94xWmi.s 			page 42


 2278 083f 63747000 		.ascii	"ctp\000"
 2279 0843 02       		.byte	0x2
 2280 0844 7F01     		.2byte	0x17f
 2281 0846 47020000 		.4byte	0x247
 2282 084a 02       		.uleb128 0x2
 2283 084b 91       		.byte	0x91
 2284 084c 70       		.sleb128 -16
 2285 084d 00       		.byte	0
 2286 084e 17       		.uleb128 0x17
 2287 084f 56050000 		.4byte	.LBB13
 2288 0853 06000000 		.4byte	.LBE13-.LBB13
 2289 0857 1C       		.uleb128 0x1c
 2290 0858 746D7000 		.ascii	"tmp\000"
 2291 085c 02       		.byte	0x2
 2292 085d 8901     		.2byte	0x189
 2293 085f A9000000 		.4byte	0xa9
 2294 0863 01       		.uleb128 0x1
 2295 0864 53       		.byte	0x53
 2296 0865 00       		.byte	0
 2297 0866 00       		.byte	0
 2298 0867 1E       		.uleb128 0x1e
 2299 0868 E0030000 		.4byte	.LASF89
 2300 086c 09       		.byte	0x9
 2301 086d 6F       		.byte	0x6f
 2302 086e 8A030000 		.4byte	0x38a
 2303 0872 00       		.byte	0
 2304              		.section	.debug_abbrev,"",%progbits
 2305              	.Ldebug_abbrev0:
 2306 0000 01       		.uleb128 0x1
 2307 0001 11       		.uleb128 0x11
 2308 0002 01       		.byte	0x1
 2309 0003 25       		.uleb128 0x25
 2310 0004 0E       		.uleb128 0xe
 2311 0005 13       		.uleb128 0x13
 2312 0006 0B       		.uleb128 0xb
 2313 0007 03       		.uleb128 0x3
 2314 0008 0E       		.uleb128 0xe
 2315 0009 11       		.uleb128 0x11
 2316 000a 01       		.uleb128 0x1
 2317 000b 12       		.uleb128 0x12
 2318 000c 06       		.uleb128 0x6
 2319 000d 10       		.uleb128 0x10
 2320 000e 17       		.uleb128 0x17
 2321 000f 00       		.byte	0
 2322 0010 00       		.byte	0
 2323 0011 02       		.uleb128 0x2
 2324 0012 24       		.uleb128 0x24
 2325 0013 00       		.byte	0
 2326 0014 0B       		.uleb128 0xb
 2327 0015 0B       		.uleb128 0xb
 2328 0016 3E       		.uleb128 0x3e
 2329 0017 0B       		.uleb128 0xb
 2330 0018 03       		.uleb128 0x3
 2331 0019 08       		.uleb128 0x8
 2332 001a 00       		.byte	0
 2333 001b 00       		.byte	0
 2334 001c 03       		.uleb128 0x3
ARM GAS  /tmp/cc94xWmi.s 			page 43


 2335 001d 24       		.uleb128 0x24
 2336 001e 00       		.byte	0
 2337 001f 0B       		.uleb128 0xb
 2338 0020 0B       		.uleb128 0xb
 2339 0021 3E       		.uleb128 0x3e
 2340 0022 0B       		.uleb128 0xb
 2341 0023 03       		.uleb128 0x3
 2342 0024 0E       		.uleb128 0xe
 2343 0025 00       		.byte	0
 2344 0026 00       		.byte	0
 2345 0027 04       		.uleb128 0x4
 2346 0028 16       		.uleb128 0x16
 2347 0029 00       		.byte	0
 2348 002a 03       		.uleb128 0x3
 2349 002b 0E       		.uleb128 0xe
 2350 002c 3A       		.uleb128 0x3a
 2351 002d 0B       		.uleb128 0xb
 2352 002e 3B       		.uleb128 0x3b
 2353 002f 0B       		.uleb128 0xb
 2354 0030 49       		.uleb128 0x49
 2355 0031 13       		.uleb128 0x13
 2356 0032 00       		.byte	0
 2357 0033 00       		.byte	0
 2358 0034 05       		.uleb128 0x5
 2359 0035 13       		.uleb128 0x13
 2360 0036 01       		.byte	0x1
 2361 0037 03       		.uleb128 0x3
 2362 0038 0E       		.uleb128 0xe
 2363 0039 0B       		.uleb128 0xb
 2364 003a 0B       		.uleb128 0xb
 2365 003b 3A       		.uleb128 0x3a
 2366 003c 0B       		.uleb128 0xb
 2367 003d 3B       		.uleb128 0x3b
 2368 003e 0B       		.uleb128 0xb
 2369 003f 01       		.uleb128 0x1
 2370 0040 13       		.uleb128 0x13
 2371 0041 00       		.byte	0
 2372 0042 00       		.byte	0
 2373 0043 06       		.uleb128 0x6
 2374 0044 0D       		.uleb128 0xd
 2375 0045 00       		.byte	0
 2376 0046 03       		.uleb128 0x3
 2377 0047 0E       		.uleb128 0xe
 2378 0048 3A       		.uleb128 0x3a
 2379 0049 0B       		.uleb128 0xb
 2380 004a 3B       		.uleb128 0x3b
 2381 004b 0B       		.uleb128 0xb
 2382 004c 49       		.uleb128 0x49
 2383 004d 13       		.uleb128 0x13
 2384 004e 38       		.uleb128 0x38
 2385 004f 0B       		.uleb128 0xb
 2386 0050 00       		.byte	0
 2387 0051 00       		.byte	0
 2388 0052 07       		.uleb128 0x7
 2389 0053 0D       		.uleb128 0xd
 2390 0054 00       		.byte	0
 2391 0055 03       		.uleb128 0x3
ARM GAS  /tmp/cc94xWmi.s 			page 44


 2392 0056 08       		.uleb128 0x8
 2393 0057 3A       		.uleb128 0x3a
 2394 0058 0B       		.uleb128 0xb
 2395 0059 3B       		.uleb128 0x3b
 2396 005a 0B       		.uleb128 0xb
 2397 005b 49       		.uleb128 0x49
 2398 005c 13       		.uleb128 0x13
 2399 005d 38       		.uleb128 0x38
 2400 005e 0B       		.uleb128 0xb
 2401 005f 00       		.byte	0
 2402 0060 00       		.byte	0
 2403 0061 08       		.uleb128 0x8
 2404 0062 13       		.uleb128 0x13
 2405 0063 01       		.byte	0x1
 2406 0064 0B       		.uleb128 0xb
 2407 0065 0B       		.uleb128 0xb
 2408 0066 3A       		.uleb128 0x3a
 2409 0067 0B       		.uleb128 0xb
 2410 0068 3B       		.uleb128 0x3b
 2411 0069 0B       		.uleb128 0xb
 2412 006a 01       		.uleb128 0x1
 2413 006b 13       		.uleb128 0x13
 2414 006c 00       		.byte	0
 2415 006d 00       		.byte	0
 2416 006e 09       		.uleb128 0x9
 2417 006f 0F       		.uleb128 0xf
 2418 0070 00       		.byte	0
 2419 0071 0B       		.uleb128 0xb
 2420 0072 0B       		.uleb128 0xb
 2421 0073 49       		.uleb128 0x49
 2422 0074 13       		.uleb128 0x13
 2423 0075 00       		.byte	0
 2424 0076 00       		.byte	0
 2425 0077 0A       		.uleb128 0xa
 2426 0078 0F       		.uleb128 0xf
 2427 0079 00       		.byte	0
 2428 007a 0B       		.uleb128 0xb
 2429 007b 0B       		.uleb128 0xb
 2430 007c 00       		.byte	0
 2431 007d 00       		.byte	0
 2432 007e 0B       		.uleb128 0xb
 2433 007f 13       		.uleb128 0x13
 2434 0080 01       		.byte	0x1
 2435 0081 03       		.uleb128 0x3
 2436 0082 0E       		.uleb128 0xe
 2437 0083 0B       		.uleb128 0xb
 2438 0084 0B       		.uleb128 0xb
 2439 0085 3A       		.uleb128 0x3a
 2440 0086 0B       		.uleb128 0xb
 2441 0087 3B       		.uleb128 0x3b
 2442 0088 05       		.uleb128 0x5
 2443 0089 01       		.uleb128 0x1
 2444 008a 13       		.uleb128 0x13
 2445 008b 00       		.byte	0
 2446 008c 00       		.byte	0
 2447 008d 0C       		.uleb128 0xc
 2448 008e 0D       		.uleb128 0xd
ARM GAS  /tmp/cc94xWmi.s 			page 45


 2449 008f 00       		.byte	0
 2450 0090 03       		.uleb128 0x3
 2451 0091 08       		.uleb128 0x8
 2452 0092 3A       		.uleb128 0x3a
 2453 0093 0B       		.uleb128 0xb
 2454 0094 3B       		.uleb128 0x3b
 2455 0095 05       		.uleb128 0x5
 2456 0096 49       		.uleb128 0x49
 2457 0097 13       		.uleb128 0x13
 2458 0098 38       		.uleb128 0x38
 2459 0099 0B       		.uleb128 0xb
 2460 009a 00       		.byte	0
 2461 009b 00       		.byte	0
 2462 009c 0D       		.uleb128 0xd
 2463 009d 35       		.uleb128 0x35
 2464 009e 00       		.byte	0
 2465 009f 49       		.uleb128 0x49
 2466 00a0 13       		.uleb128 0x13
 2467 00a1 00       		.byte	0
 2468 00a2 00       		.byte	0
 2469 00a3 0E       		.uleb128 0xe
 2470 00a4 17       		.uleb128 0x17
 2471 00a5 01       		.byte	0x1
 2472 00a6 0B       		.uleb128 0xb
 2473 00a7 0B       		.uleb128 0xb
 2474 00a8 3A       		.uleb128 0x3a
 2475 00a9 0B       		.uleb128 0xb
 2476 00aa 3B       		.uleb128 0x3b
 2477 00ab 0B       		.uleb128 0xb
 2478 00ac 01       		.uleb128 0x1
 2479 00ad 13       		.uleb128 0x13
 2480 00ae 00       		.byte	0
 2481 00af 00       		.byte	0
 2482 00b0 0F       		.uleb128 0xf
 2483 00b1 0D       		.uleb128 0xd
 2484 00b2 00       		.byte	0
 2485 00b3 03       		.uleb128 0x3
 2486 00b4 0E       		.uleb128 0xe
 2487 00b5 3A       		.uleb128 0x3a
 2488 00b6 0B       		.uleb128 0xb
 2489 00b7 3B       		.uleb128 0x3b
 2490 00b8 0B       		.uleb128 0xb
 2491 00b9 49       		.uleb128 0x49
 2492 00ba 13       		.uleb128 0x13
 2493 00bb 00       		.byte	0
 2494 00bc 00       		.byte	0
 2495 00bd 10       		.uleb128 0x10
 2496 00be 26       		.uleb128 0x26
 2497 00bf 00       		.byte	0
 2498 00c0 49       		.uleb128 0x49
 2499 00c1 13       		.uleb128 0x13
 2500 00c2 00       		.byte	0
 2501 00c3 00       		.byte	0
 2502 00c4 11       		.uleb128 0x11
 2503 00c5 2E       		.uleb128 0x2e
 2504 00c6 01       		.byte	0x1
 2505 00c7 03       		.uleb128 0x3
ARM GAS  /tmp/cc94xWmi.s 			page 46


 2506 00c8 0E       		.uleb128 0xe
 2507 00c9 3A       		.uleb128 0x3a
 2508 00ca 0B       		.uleb128 0xb
 2509 00cb 3B       		.uleb128 0x3b
 2510 00cc 0B       		.uleb128 0xb
 2511 00cd 27       		.uleb128 0x27
 2512 00ce 19       		.uleb128 0x19
 2513 00cf 11       		.uleb128 0x11
 2514 00d0 01       		.uleb128 0x1
 2515 00d1 12       		.uleb128 0x12
 2516 00d2 06       		.uleb128 0x6
 2517 00d3 40       		.uleb128 0x40
 2518 00d4 18       		.uleb128 0x18
 2519 00d5 9742     		.uleb128 0x2117
 2520 00d7 19       		.uleb128 0x19
 2521 00d8 01       		.uleb128 0x1
 2522 00d9 13       		.uleb128 0x13
 2523 00da 00       		.byte	0
 2524 00db 00       		.byte	0
 2525 00dc 12       		.uleb128 0x12
 2526 00dd 05       		.uleb128 0x5
 2527 00de 00       		.byte	0
 2528 00df 03       		.uleb128 0x3
 2529 00e0 08       		.uleb128 0x8
 2530 00e1 3A       		.uleb128 0x3a
 2531 00e2 0B       		.uleb128 0xb
 2532 00e3 3B       		.uleb128 0x3b
 2533 00e4 0B       		.uleb128 0xb
 2534 00e5 49       		.uleb128 0x49
 2535 00e6 13       		.uleb128 0x13
 2536 00e7 02       		.uleb128 0x2
 2537 00e8 18       		.uleb128 0x18
 2538 00e9 00       		.byte	0
 2539 00ea 00       		.byte	0
 2540 00eb 13       		.uleb128 0x13
 2541 00ec 2E       		.uleb128 0x2e
 2542 00ed 01       		.byte	0x1
 2543 00ee 03       		.uleb128 0x3
 2544 00ef 0E       		.uleb128 0xe
 2545 00f0 3A       		.uleb128 0x3a
 2546 00f1 0B       		.uleb128 0xb
 2547 00f2 3B       		.uleb128 0x3b
 2548 00f3 0B       		.uleb128 0xb
 2549 00f4 27       		.uleb128 0x27
 2550 00f5 19       		.uleb128 0x19
 2551 00f6 49       		.uleb128 0x49
 2552 00f7 13       		.uleb128 0x13
 2553 00f8 11       		.uleb128 0x11
 2554 00f9 01       		.uleb128 0x1
 2555 00fa 12       		.uleb128 0x12
 2556 00fb 06       		.uleb128 0x6
 2557 00fc 40       		.uleb128 0x40
 2558 00fd 18       		.uleb128 0x18
 2559 00fe 9742     		.uleb128 0x2117
 2560 0100 19       		.uleb128 0x19
 2561 0101 01       		.uleb128 0x1
 2562 0102 13       		.uleb128 0x13
ARM GAS  /tmp/cc94xWmi.s 			page 47


 2563 0103 00       		.byte	0
 2564 0104 00       		.byte	0
 2565 0105 14       		.uleb128 0x14
 2566 0106 34       		.uleb128 0x34
 2567 0107 00       		.byte	0
 2568 0108 03       		.uleb128 0x3
 2569 0109 08       		.uleb128 0x8
 2570 010a 3A       		.uleb128 0x3a
 2571 010b 0B       		.uleb128 0xb
 2572 010c 3B       		.uleb128 0x3b
 2573 010d 0B       		.uleb128 0xb
 2574 010e 49       		.uleb128 0x49
 2575 010f 13       		.uleb128 0x13
 2576 0110 02       		.uleb128 0x2
 2577 0111 18       		.uleb128 0x18
 2578 0112 00       		.byte	0
 2579 0113 00       		.byte	0
 2580 0114 15       		.uleb128 0x15
 2581 0115 2E       		.uleb128 0x2e
 2582 0116 01       		.byte	0x1
 2583 0117 3F       		.uleb128 0x3f
 2584 0118 19       		.uleb128 0x19
 2585 0119 03       		.uleb128 0x3
 2586 011a 0E       		.uleb128 0xe
 2587 011b 3A       		.uleb128 0x3a
 2588 011c 0B       		.uleb128 0xb
 2589 011d 3B       		.uleb128 0x3b
 2590 011e 0B       		.uleb128 0xb
 2591 011f 27       		.uleb128 0x27
 2592 0120 19       		.uleb128 0x19
 2593 0121 11       		.uleb128 0x11
 2594 0122 01       		.uleb128 0x1
 2595 0123 12       		.uleb128 0x12
 2596 0124 06       		.uleb128 0x6
 2597 0125 40       		.uleb128 0x40
 2598 0126 18       		.uleb128 0x18
 2599 0127 9642     		.uleb128 0x2116
 2600 0129 19       		.uleb128 0x19
 2601 012a 01       		.uleb128 0x1
 2602 012b 13       		.uleb128 0x13
 2603 012c 00       		.byte	0
 2604 012d 00       		.byte	0
 2605 012e 16       		.uleb128 0x16
 2606 012f 0B       		.uleb128 0xb
 2607 0130 01       		.byte	0x1
 2608 0131 11       		.uleb128 0x11
 2609 0132 01       		.uleb128 0x1
 2610 0133 12       		.uleb128 0x12
 2611 0134 06       		.uleb128 0x6
 2612 0135 01       		.uleb128 0x1
 2613 0136 13       		.uleb128 0x13
 2614 0137 00       		.byte	0
 2615 0138 00       		.byte	0
 2616 0139 17       		.uleb128 0x17
 2617 013a 0B       		.uleb128 0xb
 2618 013b 01       		.byte	0x1
 2619 013c 11       		.uleb128 0x11
ARM GAS  /tmp/cc94xWmi.s 			page 48


 2620 013d 01       		.uleb128 0x1
 2621 013e 12       		.uleb128 0x12
 2622 013f 06       		.uleb128 0x6
 2623 0140 00       		.byte	0
 2624 0141 00       		.byte	0
 2625 0142 18       		.uleb128 0x18
 2626 0143 2E       		.uleb128 0x2e
 2627 0144 01       		.byte	0x1
 2628 0145 3F       		.uleb128 0x3f
 2629 0146 19       		.uleb128 0x19
 2630 0147 03       		.uleb128 0x3
 2631 0148 0E       		.uleb128 0xe
 2632 0149 3A       		.uleb128 0x3a
 2633 014a 0B       		.uleb128 0xb
 2634 014b 3B       		.uleb128 0x3b
 2635 014c 0B       		.uleb128 0xb
 2636 014d 27       		.uleb128 0x27
 2637 014e 19       		.uleb128 0x19
 2638 014f 49       		.uleb128 0x49
 2639 0150 13       		.uleb128 0x13
 2640 0151 11       		.uleb128 0x11
 2641 0152 01       		.uleb128 0x1
 2642 0153 12       		.uleb128 0x12
 2643 0154 06       		.uleb128 0x6
 2644 0155 40       		.uleb128 0x40
 2645 0156 18       		.uleb128 0x18
 2646 0157 9642     		.uleb128 0x2116
 2647 0159 19       		.uleb128 0x19
 2648 015a 01       		.uleb128 0x1
 2649 015b 13       		.uleb128 0x13
 2650 015c 00       		.byte	0
 2651 015d 00       		.byte	0
 2652 015e 19       		.uleb128 0x19
 2653 015f 05       		.uleb128 0x5
 2654 0160 00       		.byte	0
 2655 0161 03       		.uleb128 0x3
 2656 0162 0E       		.uleb128 0xe
 2657 0163 3A       		.uleb128 0x3a
 2658 0164 0B       		.uleb128 0xb
 2659 0165 3B       		.uleb128 0x3b
 2660 0166 0B       		.uleb128 0xb
 2661 0167 49       		.uleb128 0x49
 2662 0168 13       		.uleb128 0x13
 2663 0169 02       		.uleb128 0x2
 2664 016a 18       		.uleb128 0x18
 2665 016b 00       		.byte	0
 2666 016c 00       		.byte	0
 2667 016d 1A       		.uleb128 0x1a
 2668 016e 2E       		.uleb128 0x2e
 2669 016f 01       		.byte	0x1
 2670 0170 3F       		.uleb128 0x3f
 2671 0171 19       		.uleb128 0x19
 2672 0172 03       		.uleb128 0x3
 2673 0173 0E       		.uleb128 0xe
 2674 0174 3A       		.uleb128 0x3a
 2675 0175 0B       		.uleb128 0xb
 2676 0176 3B       		.uleb128 0x3b
ARM GAS  /tmp/cc94xWmi.s 			page 49


 2677 0177 05       		.uleb128 0x5
 2678 0178 27       		.uleb128 0x27
 2679 0179 19       		.uleb128 0x19
 2680 017a 11       		.uleb128 0x11
 2681 017b 01       		.uleb128 0x1
 2682 017c 12       		.uleb128 0x12
 2683 017d 06       		.uleb128 0x6
 2684 017e 40       		.uleb128 0x40
 2685 017f 18       		.uleb128 0x18
 2686 0180 9642     		.uleb128 0x2116
 2687 0182 19       		.uleb128 0x19
 2688 0183 01       		.uleb128 0x1
 2689 0184 13       		.uleb128 0x13
 2690 0185 00       		.byte	0
 2691 0186 00       		.byte	0
 2692 0187 1B       		.uleb128 0x1b
 2693 0188 05       		.uleb128 0x5
 2694 0189 00       		.byte	0
 2695 018a 03       		.uleb128 0x3
 2696 018b 08       		.uleb128 0x8
 2697 018c 3A       		.uleb128 0x3a
 2698 018d 0B       		.uleb128 0xb
 2699 018e 3B       		.uleb128 0x3b
 2700 018f 05       		.uleb128 0x5
 2701 0190 49       		.uleb128 0x49
 2702 0191 13       		.uleb128 0x13
 2703 0192 02       		.uleb128 0x2
 2704 0193 18       		.uleb128 0x18
 2705 0194 00       		.byte	0
 2706 0195 00       		.byte	0
 2707 0196 1C       		.uleb128 0x1c
 2708 0197 34       		.uleb128 0x34
 2709 0198 00       		.byte	0
 2710 0199 03       		.uleb128 0x3
 2711 019a 08       		.uleb128 0x8
 2712 019b 3A       		.uleb128 0x3a
 2713 019c 0B       		.uleb128 0xb
 2714 019d 3B       		.uleb128 0x3b
 2715 019e 05       		.uleb128 0x5
 2716 019f 49       		.uleb128 0x49
 2717 01a0 13       		.uleb128 0x13
 2718 01a1 02       		.uleb128 0x2
 2719 01a2 18       		.uleb128 0x18
 2720 01a3 00       		.byte	0
 2721 01a4 00       		.byte	0
 2722 01a5 1D       		.uleb128 0x1d
 2723 01a6 2E       		.uleb128 0x2e
 2724 01a7 01       		.byte	0x1
 2725 01a8 3F       		.uleb128 0x3f
 2726 01a9 19       		.uleb128 0x19
 2727 01aa 03       		.uleb128 0x3
 2728 01ab 0E       		.uleb128 0xe
 2729 01ac 3A       		.uleb128 0x3a
 2730 01ad 0B       		.uleb128 0xb
 2731 01ae 3B       		.uleb128 0x3b
 2732 01af 05       		.uleb128 0x5
 2733 01b0 27       		.uleb128 0x27
ARM GAS  /tmp/cc94xWmi.s 			page 50


 2734 01b1 19       		.uleb128 0x19
 2735 01b2 49       		.uleb128 0x49
 2736 01b3 13       		.uleb128 0x13
 2737 01b4 11       		.uleb128 0x11
 2738 01b5 01       		.uleb128 0x1
 2739 01b6 12       		.uleb128 0x12
 2740 01b7 06       		.uleb128 0x6
 2741 01b8 40       		.uleb128 0x40
 2742 01b9 18       		.uleb128 0x18
 2743 01ba 9642     		.uleb128 0x2116
 2744 01bc 19       		.uleb128 0x19
 2745 01bd 01       		.uleb128 0x1
 2746 01be 13       		.uleb128 0x13
 2747 01bf 00       		.byte	0
 2748 01c0 00       		.byte	0
 2749 01c1 1E       		.uleb128 0x1e
 2750 01c2 34       		.uleb128 0x34
 2751 01c3 00       		.byte	0
 2752 01c4 03       		.uleb128 0x3
 2753 01c5 0E       		.uleb128 0xe
 2754 01c6 3A       		.uleb128 0x3a
 2755 01c7 0B       		.uleb128 0xb
 2756 01c8 3B       		.uleb128 0x3b
 2757 01c9 0B       		.uleb128 0xb
 2758 01ca 49       		.uleb128 0x49
 2759 01cb 13       		.uleb128 0x13
 2760 01cc 3F       		.uleb128 0x3f
 2761 01cd 19       		.uleb128 0x19
 2762 01ce 3C       		.uleb128 0x3c
 2763 01cf 19       		.uleb128 0x19
 2764 01d0 00       		.byte	0
 2765 01d1 00       		.byte	0
 2766 01d2 00       		.byte	0
 2767              		.section	.debug_aranges,"",%progbits
 2768 0000 1C000000 		.4byte	0x1c
 2769 0004 0200     		.2byte	0x2
 2770 0006 00000000 		.4byte	.Ldebug_info0
 2771 000a 04       		.byte	0x4
 2772 000b 00       		.byte	0
 2773 000c 0000     		.2byte	0
 2774 000e 0000     		.2byte	0
 2775 0010 00000000 		.4byte	.Ltext0
 2776 0014 78050000 		.4byte	.Letext0-.Ltext0
 2777 0018 00000000 		.4byte	0
 2778 001c 00000000 		.4byte	0
 2779              		.section	.debug_line,"",%progbits
 2780              	.Ldebug_line0:
 2781 0000 58030000 		.section	.debug_str,"MS",%progbits,1
 2781      0200BB01 
 2781      00000201 
 2781      FB0E0D00 
 2781      01010101 
 2782              	.LASF41:
 2783 0000 705F6D73 		.ascii	"p_msg\000"
 2783      6700
 2784              	.LASF88:
 2785 0006 71756575 		.ascii	"queue_insert\000"
ARM GAS  /tmp/cc94xWmi.s 			page 51


 2785      655F696E 
 2785      73657274 
 2785      00
 2786              	.LASF83:
 2787 0013 63685365 		.ascii	"chSemSignalI\000"
 2787      6D536967 
 2787      6E616C49 
 2787      00
 2788              	.LASF67:
 2789 0020 7264796D 		.ascii	"rdymsg\000"
 2789      736700
 2790              	.LASF16:
 2791 0027 75696E74 		.ascii	"uint64_t\000"
 2791      36345F74 
 2791      00
 2792              	.LASF5:
 2793 0030 5F5F7569 		.ascii	"__uint8_t\000"
 2793      6E74385F 
 2793      7400
 2794              	.LASF12:
 2795 003a 6C6F6E67 		.ascii	"long long unsigned int\000"
 2795      206C6F6E 
 2795      6720756E 
 2795      7369676E 
 2795      65642069 
 2796              	.LASF68:
 2797 0051 65786974 		.ascii	"exitcode\000"
 2797      636F6465 
 2797      00
 2798              	.LASF87:
 2799 005a 2F6F7074 		.ascii	"/opt/R2P/core/ChibiOS_2.6.5/os/kernel/src/chsem.c\000"
 2799      2F523250 
 2799      2F636F72 
 2799      652F4368 
 2799      6962694F 
 2800              	.LASF84:
 2801 008c 63685365 		.ascii	"chSemAddCounterI\000"
 2801      6D416464 
 2801      436F756E 
 2801      74657249 
 2801      00
 2802              	.LASF29:
 2803 009d 705F7072 		.ascii	"p_prio\000"
 2803      696F00
 2804              	.LASF10:
 2805 00a4 6C6F6E67 		.ascii	"long long int\000"
 2805      206C6F6E 
 2805      6720696E 
 2805      7400
 2806              	.LASF1:
 2807 00b2 7369676E 		.ascii	"signed char\000"
 2807      65642063 
 2807      68617200 
 2808              	.LASF85:
 2809 00be 63685365 		.ascii	"chSemSignalWait\000"
 2809      6D536967 
 2809      6E616C57 
ARM GAS  /tmp/cc94xWmi.s 			page 52


 2809      61697400 
 2810              	.LASF45:
 2811 00ce 705F6D70 		.ascii	"p_mpool\000"
 2811      6F6F6C00 
 2812              	.LASF64:
 2813 00d6 6D5F7175 		.ascii	"m_queue\000"
 2813      65756500 
 2814              	.LASF7:
 2815 00de 6C6F6E67 		.ascii	"long int\000"
 2815      20696E74 
 2815      00
 2816              	.LASF19:
 2817 00e7 74737461 		.ascii	"tstate_t\000"
 2817      74655F74 
 2817      00
 2818              	.LASF82:
 2819 00f0 63685365 		.ascii	"chSemSignal\000"
 2819      6D536967 
 2819      6E616C00 
 2820              	.LASF31:
 2821 00fc 705F6E65 		.ascii	"p_newer\000"
 2821      77657200 
 2822              	.LASF61:
 2823 0104 735F7175 		.ascii	"s_queue\000"
 2823      65756500 
 2824              	.LASF8:
 2825 010c 5F5F7569 		.ascii	"__uint32_t\000"
 2825      6E743332 
 2825      5F7400
 2826              	.LASF48:
 2827 0117 72656761 		.ascii	"regarm_t\000"
 2827      726D5F74 
 2827      00
 2828              	.LASF25:
 2829 0120 636E745F 		.ascii	"cnt_t\000"
 2829      7400
 2830              	.LASF34:
 2831 0126 705F7374 		.ascii	"p_stklimit\000"
 2831      6B6C696D 
 2831      697400
 2832              	.LASF0:
 2833 0131 756E7369 		.ascii	"unsigned int\000"
 2833      676E6564 
 2833      20696E74 
 2833      00
 2834              	.LASF79:
 2835 013e 63685365 		.ascii	"chSemWaitTimeout\000"
 2835      6D576169 
 2835      7454696D 
 2835      656F7574 
 2835      00
 2836              	.LASF9:
 2837 014f 6C6F6E67 		.ascii	"long unsigned int\000"
 2837      20756E73 
 2837      69676E65 
 2837      6420696E 
 2837      7400
ARM GAS  /tmp/cc94xWmi.s 			page 53


 2838              	.LASF62:
 2839 0161 735F636E 		.ascii	"s_cnt\000"
 2839      7400
 2840              	.LASF51:
 2841 0167 636F6E74 		.ascii	"context\000"
 2841      65787400 
 2842              	.LASF4:
 2843 016f 73686F72 		.ascii	"short unsigned int\000"
 2843      7420756E 
 2843      7369676E 
 2843      65642069 
 2843      6E7400
 2844              	.LASF75:
 2845 0182 63685365 		.ascii	"chSemReset\000"
 2845      6D526573 
 2845      657400
 2846              	.LASF22:
 2847 018d 6D73675F 		.ascii	"msg_t\000"
 2847      7400
 2848              	.LASF56:
 2849 0193 725F6E65 		.ascii	"r_newer\000"
 2849      77657200 
 2850              	.LASF18:
 2851 019b 746D6F64 		.ascii	"tmode_t\000"
 2851      655F7400 
 2852              	.LASF47:
 2853 01a3 54687265 		.ascii	"ThreadsList\000"
 2853      6164734C 
 2853      69737400 
 2854              	.LASF23:
 2855 01af 6576656E 		.ascii	"eventmask_t\000"
 2855      746D6173 
 2855      6B5F7400 
 2856              	.LASF63:
 2857 01bb 4D757465 		.ascii	"Mutex\000"
 2857      7800
 2858              	.LASF49:
 2859 01c1 73746B61 		.ascii	"stkalign_t\000"
 2859      6C69676E 
 2859      5F7400
 2860              	.LASF52:
 2861 01cc 73697A65 		.ascii	"sizetype\000"
 2861      74797065 
 2861      00
 2862              	.LASF32:
 2863 01d5 705F6F6C 		.ascii	"p_older\000"
 2863      64657200 
 2864              	.LASF55:
 2865 01dd 725F6374 		.ascii	"r_ctx\000"
 2865      7800
 2866              	.LASF46:
 2867 01e3 54687265 		.ascii	"ThreadsQueue\000"
 2867      61647351 
 2867      75657565 
 2867      00
 2868              	.LASF80:
 2869 01f0 74696D65 		.ascii	"time\000"
ARM GAS  /tmp/cc94xWmi.s 			page 54


 2869      00
 2870              	.LASF58:
 2871 01f5 725F6375 		.ascii	"r_current\000"
 2871      7272656E 
 2871      7400
 2872              	.LASF57:
 2873 01ff 725F6F6C 		.ascii	"r_older\000"
 2873      64657200 
 2874              	.LASF11:
 2875 0207 5F5F7569 		.ascii	"__uint64_t\000"
 2875      6E743634 
 2875      5F7400
 2876              	.LASF20:
 2877 0212 74726566 		.ascii	"trefs_t\000"
 2877      735F7400 
 2878              	.LASF28:
 2879 021a 705F7072 		.ascii	"p_prev\000"
 2879      657600
 2880              	.LASF21:
 2881 0221 74707269 		.ascii	"tprio_t\000"
 2881      6F5F7400 
 2882              	.LASF17:
 2883 0229 5F426F6F 		.ascii	"_Bool\000"
 2883      6C00
 2884              	.LASF14:
 2885 022f 696E7433 		.ascii	"int32_t\000"
 2885      325F7400 
 2886              	.LASF2:
 2887 0237 756E7369 		.ascii	"unsigned char\000"
 2887      676E6564 
 2887      20636861 
 2887      7200
 2888              	.LASF43:
 2889 0245 705F6D74 		.ascii	"p_mtxlist\000"
 2889      786C6973 
 2889      7400
 2890              	.LASF3:
 2891 024f 73686F72 		.ascii	"short int\000"
 2891      7420696E 
 2891      7400
 2892              	.LASF35:
 2893 0259 705F7374 		.ascii	"p_state\000"
 2893      61746500 
 2894              	.LASF54:
 2895 0261 725F7072 		.ascii	"r_prio\000"
 2895      696F00
 2896              	.LASF70:
 2897 0268 65776D61 		.ascii	"ewmask\000"
 2897      736B00
 2898              	.LASF27:
 2899 026f 705F6E65 		.ascii	"p_next\000"
 2899      787400
 2900              	.LASF36:
 2901 0276 705F666C 		.ascii	"p_flags\000"
 2901      61677300 
 2902              	.LASF78:
 2903 027e 63685365 		.ascii	"chSemWaitS\000"
ARM GAS  /tmp/cc94xWmi.s 			page 55


 2903      6D576169 
 2903      745300
 2904              	.LASF26:
 2905 0289 54687265 		.ascii	"Thread\000"
 2905      616400
 2906              	.LASF42:
 2907 0290 705F6570 		.ascii	"p_epending\000"
 2907      656E6469 
 2907      6E6700
 2908              	.LASF15:
 2909 029b 75696E74 		.ascii	"uint32_t\000"
 2909      33325F74 
 2909      00
 2910              	.LASF53:
 2911 02a4 725F7175 		.ascii	"r_queue\000"
 2911      65756500 
 2912              	.LASF86:
 2913 02ac 474E5520 		.ascii	"GNU C 4.9.3 20141119 (release) [ARM/embedded-4_9-br"
 2913      4320342E 
 2913      392E3320 
 2913      32303134 
 2913      31313139 
 2914 02df 616E6368 		.ascii	"anch revision 218278] -mcpu=cortex-m4 -mno-thumb-in"
 2914      20726576 
 2914      6973696F 
 2914      6E203231 
 2914      38323738 
 2915 0312 74657277 		.ascii	"terwork -mthumb -ggdb -O0 -fomit-frame-pointer\000"
 2915      6F726B20 
 2915      2D6D7468 
 2915      756D6220 
 2915      2D676764 
 2916              	.LASF71:
 2917 0341 63686172 		.ascii	"char\000"
 2917      00
 2918              	.LASF72:
 2919 0346 6669666F 		.ascii	"fifo_remove\000"
 2919      5F72656D 
 2919      6F766500 
 2920              	.LASF81:
 2921 0352 63685365 		.ascii	"chSemWaitTimeoutS\000"
 2921      6D576169 
 2921      7454696D 
 2921      656F7574 
 2921      5300
 2922              	.LASF66:
 2923 0364 6D5F6E65 		.ascii	"m_next\000"
 2923      787400
 2924              	.LASF24:
 2925 036b 73797374 		.ascii	"systime_t\000"
 2925      696D655F 
 2925      7400
 2926              	.LASF44:
 2927 0375 705F7265 		.ascii	"p_realprio\000"
 2927      616C7072 
 2927      696F00
 2928              	.LASF6:
ARM GAS  /tmp/cc94xWmi.s 			page 56


 2929 0380 5F5F696E 		.ascii	"__int32_t\000"
 2929      7433325F 
 2929      7400
 2930              	.LASF77:
 2931 038a 63685365 		.ascii	"chSemWait\000"
 2931      6D576169 
 2931      7400
 2932              	.LASF38:
 2933 0394 705F7469 		.ascii	"p_time\000"
 2933      6D6500
 2934              	.LASF73:
 2935 039b 6C69666F 		.ascii	"lifo_remove\000"
 2935      5F72656D 
 2935      6F766500 
 2936              	.LASF50:
 2937 03a7 696E7463 		.ascii	"intctx\000"
 2937      747800
 2938              	.LASF40:
 2939 03ae 705F6D73 		.ascii	"p_msgqueue\000"
 2939      67717565 
 2939      756500
 2940              	.LASF60:
 2941 03b9 53656D61 		.ascii	"Semaphore\000"
 2941      70686F72 
 2941      6500
 2942              	.LASF37:
 2943 03c3 705F7265 		.ascii	"p_refs\000"
 2943      667300
 2944              	.LASF59:
 2945 03ca 52656164 		.ascii	"ReadyList\000"
 2945      794C6973 
 2945      7400
 2946              	.LASF76:
 2947 03d4 63685365 		.ascii	"chSemResetI\000"
 2947      6D526573 
 2947      65744900 
 2948              	.LASF89:
 2949 03e0 726C6973 		.ascii	"rlist\000"
 2949      7400
 2950              	.LASF13:
 2951 03e6 75696E74 		.ascii	"uint8_t\000"
 2951      385F7400 
 2952              	.LASF69:
 2953 03ee 77746F62 		.ascii	"wtobjp\000"
 2953      6A7000
 2954              	.LASF33:
 2955 03f5 705F6E61 		.ascii	"p_name\000"
 2955      6D6500
 2956              	.LASF65:
 2957 03fc 6D5F6F77 		.ascii	"m_owner\000"
 2957      6E657200 
 2958              	.LASF30:
 2959 0404 705F6374 		.ascii	"p_ctx\000"
 2959      7800
 2960              	.LASF39:
 2961 040a 705F7761 		.ascii	"p_waiting\000"
 2961      6974696E 
ARM GAS  /tmp/cc94xWmi.s 			page 57


 2961      6700
 2962              	.LASF74:
 2963 0414 63685365 		.ascii	"chSemInit\000"
 2963      6D496E69 
 2963      7400
 2964              		.ident	"GCC: (GNU Tools for ARM Embedded Processors) 4.9.3 20141119 (release) [ARM/embedded-4_9-br
ARM GAS  /tmp/cc94xWmi.s 			page 58


DEFINED SYMBOLS
                            *ABS*:00000000 chsem.c
     /tmp/cc94xWmi.s:18     .text:00000000 $t
     /tmp/cc94xWmi.s:22     .text:00000000 queue_insert
     /tmp/cc94xWmi.s:64     .text:00000028 fifo_remove
     /tmp/cc94xWmi.s:102    .text:0000004c lifo_remove
     /tmp/cc94xWmi.s:137    .rodata:00000000 $d
     /tmp/cc94xWmi.s:146    .text:00000070 chSemInit
     /tmp/cc94xWmi.s:193    .text:000000a4 $d
     /tmp/cc94xWmi.s:197    .text:000000a8 $t
     /tmp/cc94xWmi.s:202    .text:000000a8 chSemReset
     /tmp/cc94xWmi.s:260    .text:000000d8 chSemResetI
     /tmp/cc94xWmi.s:353    .text:00000158 $d
     /tmp/cc94xWmi.s:358    .text:00000160 $t
     /tmp/cc94xWmi.s:363    .text:00000160 chSemWait
     /tmp/cc94xWmi.s:421    .text:0000018c chSemWaitS
     /tmp/cc94xWmi.s:514    .text:0000020c $d
     /tmp/cc94xWmi.s:520    .text:00000218 $t
     /tmp/cc94xWmi.s:525    .text:00000218 chSemWaitTimeout
     /tmp/cc94xWmi.s:585    .text:00000248 chSemWaitTimeoutS
     /tmp/cc94xWmi.s:691    .text:000002e0 $d
     /tmp/cc94xWmi.s:705    .text:000002ec $t
     /tmp/cc94xWmi.s:710    .text:000002ec chSemSignal
     /tmp/cc94xWmi.s:803    .text:00000368 $d
     /tmp/cc94xWmi.s:816    .text:00000370 $t
     /tmp/cc94xWmi.s:821    .text:00000370 chSemSignalI
     /tmp/cc94xWmi.s:904    .text:000003e0 $d
     /tmp/cc94xWmi.s:917    .text:000003e8 $t
     /tmp/cc94xWmi.s:922    .text:000003e8 chSemAddCounterI
     /tmp/cc94xWmi.s:1019   .text:0000046c $d
     /tmp/cc94xWmi.s:1035   .text:00000474 $t
     /tmp/cc94xWmi.s:1040   .text:00000474 chSemSignalWait
     /tmp/cc94xWmi.s:1212   .text:00000568 $d
                     .debug_frame:00000010 $d

UNDEFINED SYMBOLS
chDbgPanic
dbg_check_lock
chSchRescheduleS
dbg_check_unlock
chDbgCheckClassI
chSchReadyI
chDbgCheckClassS
chSchGoSleepS
rlist
chSchGoSleepTimeoutS
chSchWakeupS
