ARM GAS  /tmp/cc94xWmi.s 			page 1


   1              		.syntax unified
   2              		.cpu cortex-m4
   3              		.fpu softvfp
   4              		.eabi_attribute 20, 1
   5              		.eabi_attribute 21, 1
   6              		.eabi_attribute 23, 3
   7              		.eabi_attribute 24, 1
   8              		.eabi_attribute 25, 1
   9              		.eabi_attribute 26, 1
  10              		.eabi_attribute 30, 6
  11              		.eabi_attribute 34, 1
  12              		.eabi_attribute 18, 4
  13              		.thumb
  14              		.file	"chsem.c"
  15              		.text
  16              	.Ltext0:
  17              		.cfi_sections	.debug_frame
  18              		.align	2
  19              		.thumb
  20              		.thumb_func
  21              		.type	queue_insert, %function
  22              	queue_insert:
  23              	.LFB1:
  24              		.file 1 "/opt/R2P/core/ChibiOS_2.6.5/os/kernel/include/chinline.h"
  25              		.loc 1 52 0
  26              		.cfi_startproc
  27              		@ args = 0, pretend = 0, frame = 8
  28              		@ frame_needed = 0, uses_anonymous_args = 0
  29              		@ link register save eliminated.
  30 0000 82B0     		sub	sp, sp, #8
  31              		.cfi_def_cfa_offset 8
  32 0002 0190     		str	r0, [sp, #4]
  33 0004 0091     		str	r1, [sp]
  34              		.loc 1 54 0
  35 0006 019B     		ldr	r3, [sp, #4]
  36 0008 009A     		ldr	r2, [sp]
  37 000a 1A60     		str	r2, [r3]
  38              		.loc 1 55 0
  39 000c 009B     		ldr	r3, [sp]
  40 000e 5A68     		ldr	r2, [r3, #4]
  41 0010 019B     		ldr	r3, [sp, #4]
  42 0012 5A60     		str	r2, [r3, #4]
  43              		.loc 1 56 0
  44 0014 019B     		ldr	r3, [sp, #4]
  45 0016 5B68     		ldr	r3, [r3, #4]
  46 0018 009A     		ldr	r2, [sp]
  47 001a 0199     		ldr	r1, [sp, #4]
  48 001c 5160     		str	r1, [r2, #4]
  49 001e 009A     		ldr	r2, [sp]
  50 0020 5268     		ldr	r2, [r2, #4]
  51 0022 1A60     		str	r2, [r3]
  52              		.loc 1 57 0
  53 0024 02B0     		add	sp, sp, #8
  54              		.cfi_def_cfa_offset 0
  55              		@ sp needed
  56 0026 7047     		bx	lr
  57              		.cfi_endproc
ARM GAS  /tmp/cc94xWmi.s 			page 2


  58              	.LFE1:
  59              		.size	queue_insert, .-queue_insert
  60              		.align	2
  61              		.thumb
  62              		.thumb_func
  63              		.type	fifo_remove, %function
  64              	fifo_remove:
  65              	.LFB2:
  66              		.loc 1 59 0
  67              		.cfi_startproc
  68              		@ args = 0, pretend = 0, frame = 16
  69              		@ frame_needed = 0, uses_anonymous_args = 0
  70              		@ link register save eliminated.
  71 0028 84B0     		sub	sp, sp, #16
  72              		.cfi_def_cfa_offset 16
  73 002a 0190     		str	r0, [sp, #4]
  74              		.loc 1 60 0
  75 002c 019B     		ldr	r3, [sp, #4]
  76 002e 1B68     		ldr	r3, [r3]
  77 0030 0393     		str	r3, [sp, #12]
  78              		.loc 1 62 0
  79 0032 039B     		ldr	r3, [sp, #12]
  80 0034 1A68     		ldr	r2, [r3]
  81 0036 019B     		ldr	r3, [sp, #4]
  82 0038 1A60     		str	r2, [r3]
  83 003a 019B     		ldr	r3, [sp, #4]
  84 003c 1B68     		ldr	r3, [r3]
  85 003e 019A     		ldr	r2, [sp, #4]
  86 0040 5A60     		str	r2, [r3, #4]
  87              		.loc 1 63 0
  88 0042 039B     		ldr	r3, [sp, #12]
  89              		.loc 1 64 0
  90 0044 1846     		mov	r0, r3
  91 0046 04B0     		add	sp, sp, #16
  92              		.cfi_def_cfa_offset 0
  93              		@ sp needed
  94 0048 7047     		bx	lr
  95              		.cfi_endproc
  96              	.LFE2:
  97              		.size	fifo_remove, .-fifo_remove
  98 004a 00BF     		.align	2
  99              		.thumb
 100              		.thumb_func
 101              		.type	lifo_remove, %function
 102              	lifo_remove:
 103              	.LFB3:
 104              		.loc 1 66 0
 105              		.cfi_startproc
 106              		@ args = 0, pretend = 0, frame = 16
 107              		@ frame_needed = 0, uses_anonymous_args = 0
 108              		@ link register save eliminated.
 109 004c 84B0     		sub	sp, sp, #16
 110              		.cfi_def_cfa_offset 16
 111 004e 0190     		str	r0, [sp, #4]
 112              		.loc 1 67 0
 113 0050 019B     		ldr	r3, [sp, #4]
 114 0052 5B68     		ldr	r3, [r3, #4]
ARM GAS  /tmp/cc94xWmi.s 			page 3


 115 0054 0393     		str	r3, [sp, #12]
 116              		.loc 1 69 0
 117 0056 039B     		ldr	r3, [sp, #12]
 118 0058 5A68     		ldr	r2, [r3, #4]
 119 005a 019B     		ldr	r3, [sp, #4]
 120 005c 5A60     		str	r2, [r3, #4]
 121 005e 019B     		ldr	r3, [sp, #4]
 122 0060 5B68     		ldr	r3, [r3, #4]
 123 0062 019A     		ldr	r2, [sp, #4]
 124 0064 1A60     		str	r2, [r3]
 125              		.loc 1 70 0
 126 0066 039B     		ldr	r3, [sp, #12]
 127              		.loc 1 71 0
 128 0068 1846     		mov	r0, r3
 129 006a 04B0     		add	sp, sp, #16
 130              		.cfi_def_cfa_offset 0
 131              		@ sp needed
 132 006c 7047     		bx	lr
 133              		.cfi_endproc
 134              	.LFE3:
 135              		.size	lifo_remove, .-lifo_remove
 136              		.section	.rodata
 137              		.align	2
 138              	.LC0:
 139 0000 22636853 		.ascii	"\"chSemInit\"()\000"
 139      656D496E 
 139      69742228 
 139      2900
 140              		.text
 141 006e 00BF     		.align	2
 142              		.global	chSemInit
 143              		.thumb
 144              		.thumb_func
 145              		.type	chSemInit, %function
 146              	chSemInit:
 147              	.LFB7:
 148              		.file 2 "/opt/R2P/core/ChibiOS_2.6.5/os/kernel/src/chsem.c"
 149              		.loc 2 86 0
 150              		.cfi_startproc
 151              		@ args = 0, pretend = 0, frame = 8
 152              		@ frame_needed = 0, uses_anonymous_args = 0
 153 0070 00B5     		push	{lr}
 154              		.cfi_def_cfa_offset 4
 155              		.cfi_offset 14, -4
 156 0072 83B0     		sub	sp, sp, #12
 157              		.cfi_def_cfa_offset 16
 158 0074 0190     		str	r0, [sp, #4]
 159 0076 0091     		str	r1, [sp]
 160              		.loc 2 88 0
 161 0078 019B     		ldr	r3, [sp, #4]
 162 007a 002B     		cmp	r3, #0
 163 007c 02D0     		beq	.L7
 164              		.loc 2 88 0 is_stmt 0 discriminator 2
 165 007e 009B     		ldr	r3, [sp]
 166 0080 002B     		cmp	r3, #0
 167 0082 02DA     		bge	.L8
 168              	.L7:
ARM GAS  /tmp/cc94xWmi.s 			page 4


 169              		.loc 2 88 0 discriminator 3
 170 0084 0748     		ldr	r0, .L9
 171 0086 FFF7FEFF 		bl	chDbgPanic
 172              	.L8:
 173              		.loc 2 90 0 is_stmt 1
 174 008a 019A     		ldr	r2, [sp, #4]
 175 008c 019B     		ldr	r3, [sp, #4]
 176 008e 5A60     		str	r2, [r3, #4]
 177 0090 019B     		ldr	r3, [sp, #4]
 178 0092 5A68     		ldr	r2, [r3, #4]
 179 0094 019B     		ldr	r3, [sp, #4]
 180 0096 1A60     		str	r2, [r3]
 181              		.loc 2 91 0
 182 0098 019B     		ldr	r3, [sp, #4]
 183 009a 009A     		ldr	r2, [sp]
 184 009c 9A60     		str	r2, [r3, #8]
 185              		.loc 2 92 0
 186 009e 03B0     		add	sp, sp, #12
 187              		.cfi_def_cfa_offset 4
 188              		@ sp needed
 189 00a0 5DF804FB 		ldr	pc, [sp], #4
 190              	.L10:
 191              		.align	2
 192              	.L9:
 193 00a4 00000000 		.word	.LC0
 194              		.cfi_endproc
 195              	.LFE7:
 196              		.size	chSemInit, .-chSemInit
 197              		.align	2
 198              		.global	chSemReset
 199              		.thumb
 200              		.thumb_func
 201              		.type	chSemReset, %function
 202              	chSemReset:
 203              	.LFB8:
 204              		.loc 2 109 0
 205              		.cfi_startproc
 206              		@ args = 0, pretend = 0, frame = 8
 207              		@ frame_needed = 0, uses_anonymous_args = 0
 208 00a8 00B5     		push	{lr}
 209              		.cfi_def_cfa_offset 4
 210              		.cfi_offset 14, -4
 211 00aa 83B0     		sub	sp, sp, #12
 212              		.cfi_def_cfa_offset 16
 213 00ac 0190     		str	r0, [sp, #4]
 214 00ae 0091     		str	r1, [sp]
 215              	.LBB2:
 216              		.loc 2 111 0
 217 00b0 2023     		movs	r3, #32
 218              	@ 111 "/opt/R2P/core/ChibiOS_2.6.5/os/kernel/src/chsem.c" 1
 219 00b2 83F31188 		msr     BASEPRI, r3
 220              	@ 0 "" 2
 221              		.thumb
 222              	.LBE2:
 223 00b6 FFF7FEFF 		bl	dbg_check_lock
 224              		.loc 2 112 0
 225 00ba 0198     		ldr	r0, [sp, #4]
ARM GAS  /tmp/cc94xWmi.s 			page 5


 226 00bc 0099     		ldr	r1, [sp]
 227 00be FFF7FEFF 		bl	chSemResetI
 228              		.loc 2 113 0
 229 00c2 FFF7FEFF 		bl	chSchRescheduleS
 230              		.loc 2 114 0
 231 00c6 FFF7FEFF 		bl	dbg_check_unlock
 232              	.LBB3:
 233 00ca 0023     		movs	r3, #0
 234              	@ 114 "/opt/R2P/core/ChibiOS_2.6.5/os/kernel/src/chsem.c" 1
 235 00cc 83F31188 		msr     BASEPRI, r3
 236              	@ 0 "" 2
 237              		.thumb
 238              	.LBE3:
 239              		.loc 2 115 0
 240 00d0 03B0     		add	sp, sp, #12
 241              		.cfi_def_cfa_offset 4
 242              		@ sp needed
 243 00d2 5DF804FB 		ldr	pc, [sp], #4
 244              		.cfi_endproc
 245              	.LFE8:
 246              		.size	chSemReset, .-chSemReset
 247              		.section	.rodata
 248 000e 0000     		.align	2
 249              	.LC1:
 250 0010 22636853 		.ascii	"\"chSemResetI\"()\000"
 250      656D5265 
 250      73657449 
 250      22282900 
 251              		.align	2
 252              	.LC2:
 253 0020 63685365 		.ascii	"chSemResetI(), #1\000"
 253      6D526573 
 253      65744928 
 253      292C2023 
 253      3100
 254              		.text
 255 00d6 00BF     		.align	2
 256              		.global	chSemResetI
 257              		.thumb
 258              		.thumb_func
 259              		.type	chSemResetI, %function
 260              	chSemResetI:
 261              	.LFB9:
 262              		.loc 2 136 0
 263              		.cfi_startproc
 264              		@ args = 0, pretend = 0, frame = 16
 265              		@ frame_needed = 0, uses_anonymous_args = 0
 266 00d8 00B5     		push	{lr}
 267              		.cfi_def_cfa_offset 4
 268              		.cfi_offset 14, -4
 269 00da 85B0     		sub	sp, sp, #20
 270              		.cfi_def_cfa_offset 24
 271 00dc 0190     		str	r0, [sp, #4]
 272 00de 0091     		str	r1, [sp]
 273              		.loc 2 139 0
 274 00e0 FFF7FEFF 		bl	chDbgCheckClassI
 275              		.loc 2 140 0
ARM GAS  /tmp/cc94xWmi.s 			page 6


 276 00e4 019B     		ldr	r3, [sp, #4]
 277 00e6 002B     		cmp	r3, #0
 278 00e8 02D0     		beq	.L13
 279              		.loc 2 140 0 is_stmt 0 discriminator 2
 280 00ea 009B     		ldr	r3, [sp]
 281 00ec 002B     		cmp	r3, #0
 282 00ee 02DA     		bge	.L14
 283              	.L13:
 284              		.loc 2 140 0 discriminator 3
 285 00f0 1948     		ldr	r0, .L20
 286 00f2 FFF7FEFF 		bl	chDbgPanic
 287              	.L14:
 288              		.loc 2 141 0 is_stmt 1
 289 00f6 019B     		ldr	r3, [sp, #4]
 290 00f8 9B68     		ldr	r3, [r3, #8]
 291 00fa 002B     		cmp	r3, #0
 292 00fc 04DB     		blt	.L15
 293              		.loc 2 141 0 is_stmt 0 discriminator 2
 294 00fe 019B     		ldr	r3, [sp, #4]
 295 0100 1A68     		ldr	r2, [r3]
 296 0102 019B     		ldr	r3, [sp, #4]
 297 0104 9A42     		cmp	r2, r3
 298 0106 0BD0     		beq	.L16
 299              	.L15:
 300              		.loc 2 141 0 discriminator 3
 301 0108 019B     		ldr	r3, [sp, #4]
 302 010a 9B68     		ldr	r3, [r3, #8]
 303 010c 002B     		cmp	r3, #0
 304 010e 04DA     		bge	.L17
 305              		.loc 2 141 0 discriminator 5
 306 0110 019B     		ldr	r3, [sp, #4]
 307 0112 1A68     		ldr	r2, [r3]
 308 0114 019B     		ldr	r3, [sp, #4]
 309 0116 9A42     		cmp	r2, r3
 310 0118 02D1     		bne	.L16
 311              	.L17:
 312              		.loc 2 141 0 discriminator 6
 313 011a 1048     		ldr	r0, .L20+4
 314 011c FFF7FEFF 		bl	chDbgPanic
 315              	.L16:
 316              		.loc 2 146 0 is_stmt 1
 317 0120 019B     		ldr	r3, [sp, #4]
 318 0122 9B68     		ldr	r3, [r3, #8]
 319 0124 0393     		str	r3, [sp, #12]
 320              		.loc 2 147 0
 321 0126 019B     		ldr	r3, [sp, #4]
 322 0128 009A     		ldr	r2, [sp]
 323 012a 9A60     		str	r2, [r3, #8]
 324              		.loc 2 148 0
 325 012c 0BE0     		b	.L18
 326              	.L19:
 327              		.loc 2 149 0
 328 012e 019B     		ldr	r3, [sp, #4]
 329 0130 1846     		mov	r0, r3
 330 0132 FFF78BFF 		bl	lifo_remove
 331 0136 0346     		mov	r3, r0
 332 0138 1846     		mov	r0, r3
ARM GAS  /tmp/cc94xWmi.s 			page 7


 333 013a FFF7FEFF 		bl	chSchReadyI
 334 013e 0246     		mov	r2, r0
 335 0140 6FF00103 		mvn	r3, #1
 336 0144 9362     		str	r3, [r2, #40]
 337              	.L18:
 338              		.loc 2 148 0
 339 0146 039B     		ldr	r3, [sp, #12]
 340 0148 0133     		adds	r3, r3, #1
 341 014a 0393     		str	r3, [sp, #12]
 342 014c 039B     		ldr	r3, [sp, #12]
 343 014e 002B     		cmp	r3, #0
 344 0150 EDDD     		ble	.L19
 345              		.loc 2 150 0
 346 0152 05B0     		add	sp, sp, #20
 347              		.cfi_def_cfa_offset 4
 348              		@ sp needed
 349 0154 5DF804FB 		ldr	pc, [sp], #4
 350              	.L21:
 351              		.align	2
 352              	.L20:
 353 0158 10000000 		.word	.LC1
 354 015c 20000000 		.word	.LC2
 355              		.cfi_endproc
 356              	.LFE9:
 357              		.size	chSemResetI, .-chSemResetI
 358              		.align	2
 359              		.global	chSemWait
 360              		.thumb
 361              		.thumb_func
 362              		.type	chSemWait, %function
 363              	chSemWait:
 364              	.LFB10:
 365              		.loc 2 164 0
 366              		.cfi_startproc
 367              		@ args = 0, pretend = 0, frame = 16
 368              		@ frame_needed = 0, uses_anonymous_args = 0
 369 0160 00B5     		push	{lr}
 370              		.cfi_def_cfa_offset 4
 371              		.cfi_offset 14, -4
 372 0162 85B0     		sub	sp, sp, #20
 373              		.cfi_def_cfa_offset 24
 374 0164 0190     		str	r0, [sp, #4]
 375              	.LBB4:
 376              		.loc 2 167 0
 377 0166 2023     		movs	r3, #32
 378              	@ 167 "/opt/R2P/core/ChibiOS_2.6.5/os/kernel/src/chsem.c" 1
 379 0168 83F31188 		msr     BASEPRI, r3
 380              	@ 0 "" 2
 381              		.thumb
 382              	.LBE4:
 383 016c FFF7FEFF 		bl	dbg_check_lock
 384              		.loc 2 168 0
 385 0170 0198     		ldr	r0, [sp, #4]
 386 0172 FFF7FEFF 		bl	chSemWaitS
 387 0176 0390     		str	r0, [sp, #12]
 388              		.loc 2 169 0
 389 0178 FFF7FEFF 		bl	dbg_check_unlock
ARM GAS  /tmp/cc94xWmi.s 			page 8


 390              	.LBB5:
 391 017c 0023     		movs	r3, #0
 392              	@ 169 "/opt/R2P/core/ChibiOS_2.6.5/os/kernel/src/chsem.c" 1
 393 017e 83F31188 		msr     BASEPRI, r3
 394              	@ 0 "" 2
 395              		.thumb
 396              	.LBE5:
 397              		.loc 2 170 0
 398 0182 039B     		ldr	r3, [sp, #12]
 399              		.loc 2 171 0
 400 0184 1846     		mov	r0, r3
 401 0186 05B0     		add	sp, sp, #20
 402              		.cfi_def_cfa_offset 4
 403              		@ sp needed
 404 0188 5DF804FB 		ldr	pc, [sp], #4
 405              		.cfi_endproc
 406              	.LFE10:
 407              		.size	chSemWait, .-chSemWait
 408              		.section	.rodata
 409 0032 0000     		.align	2
 410              	.LC3:
 411 0034 22636853 		.ascii	"\"chSemWaitS\"()\000"
 411      656D5761 
 411      69745322 
 411      282900
 412 0043 00       		.align	2
 413              	.LC4:
 414 0044 63685365 		.ascii	"chSemWaitS(), #1\000"
 414      6D576169 
 414      74532829 
 414      2C202331 
 414      00
 415              		.text
 416              		.align	2
 417              		.global	chSemWaitS
 418              		.thumb
 419              		.thumb_func
 420              		.type	chSemWaitS, %function
 421              	chSemWaitS:
 422              	.LFB11:
 423              		.loc 2 185 0
 424              		.cfi_startproc
 425              		@ args = 0, pretend = 0, frame = 8
 426              		@ frame_needed = 0, uses_anonymous_args = 0
 427 018c 00B5     		push	{lr}
 428              		.cfi_def_cfa_offset 4
 429              		.cfi_offset 14, -4
 430 018e 83B0     		sub	sp, sp, #12
 431              		.cfi_def_cfa_offset 16
 432 0190 0190     		str	r0, [sp, #4]
 433              		.loc 2 187 0
 434 0192 FFF7FEFF 		bl	chDbgCheckClassS
 435              		.loc 2 188 0
 436 0196 019B     		ldr	r3, [sp, #4]
 437 0198 002B     		cmp	r3, #0
 438 019a 02D1     		bne	.L25
 439              		.loc 2 188 0 is_stmt 0 discriminator 1
ARM GAS  /tmp/cc94xWmi.s 			page 9


 440 019c 1B48     		ldr	r0, .L31
 441 019e FFF7FEFF 		bl	chDbgPanic
 442              	.L25:
 443              		.loc 2 189 0 is_stmt 1
 444 01a2 019B     		ldr	r3, [sp, #4]
 445 01a4 9B68     		ldr	r3, [r3, #8]
 446 01a6 002B     		cmp	r3, #0
 447 01a8 04DB     		blt	.L26
 448              		.loc 2 189 0 is_stmt 0 discriminator 2
 449 01aa 019B     		ldr	r3, [sp, #4]
 450 01ac 1A68     		ldr	r2, [r3]
 451 01ae 019B     		ldr	r3, [sp, #4]
 452 01b0 9A42     		cmp	r2, r3
 453 01b2 0BD0     		beq	.L27
 454              	.L26:
 455              		.loc 2 189 0 discriminator 3
 456 01b4 019B     		ldr	r3, [sp, #4]
 457 01b6 9B68     		ldr	r3, [r3, #8]
 458 01b8 002B     		cmp	r3, #0
 459 01ba 04DA     		bge	.L28
 460              		.loc 2 189 0 discriminator 5
 461 01bc 019B     		ldr	r3, [sp, #4]
 462 01be 1A68     		ldr	r2, [r3]
 463 01c0 019B     		ldr	r3, [sp, #4]
 464 01c2 9A42     		cmp	r2, r3
 465 01c4 02D1     		bne	.L27
 466              	.L28:
 467              		.loc 2 189 0 discriminator 6
 468 01c6 1248     		ldr	r0, .L31+4
 469 01c8 FFF7FEFF 		bl	chDbgPanic
 470              	.L27:
 471              		.loc 2 194 0 is_stmt 1
 472 01cc 019B     		ldr	r3, [sp, #4]
 473 01ce 9B68     		ldr	r3, [r3, #8]
 474 01d0 5A1E     		subs	r2, r3, #1
 475 01d2 019B     		ldr	r3, [sp, #4]
 476 01d4 9A60     		str	r2, [r3, #8]
 477 01d6 019B     		ldr	r3, [sp, #4]
 478 01d8 9B68     		ldr	r3, [r3, #8]
 479 01da 002B     		cmp	r3, #0
 480 01dc 11DA     		bge	.L29
 481              		.loc 2 195 0
 482 01de 0D4B     		ldr	r3, .L31+8
 483 01e0 9B69     		ldr	r3, [r3, #24]
 484 01e2 019A     		ldr	r2, [sp, #4]
 485 01e4 9A62     		str	r2, [r3, #40]
 486              		.loc 2 196 0
 487 01e6 0B4B     		ldr	r3, .L31+8
 488 01e8 9A69     		ldr	r2, [r3, #24]
 489 01ea 019B     		ldr	r3, [sp, #4]
 490 01ec 1046     		mov	r0, r2
 491 01ee 1946     		mov	r1, r3
 492 01f0 FFF706FF 		bl	queue_insert
 493              		.loc 2 197 0
 494 01f4 0320     		movs	r0, #3
 495 01f6 FFF7FEFF 		bl	chSchGoSleepS
 496              		.loc 2 198 0
ARM GAS  /tmp/cc94xWmi.s 			page 10


 497 01fa 064B     		ldr	r3, .L31+8
 498 01fc 9B69     		ldr	r3, [r3, #24]
 499 01fe 9B6A     		ldr	r3, [r3, #40]
 500 0200 00E0     		b	.L30
 501              	.L29:
 502              		.loc 2 200 0
 503 0202 0023     		movs	r3, #0
 504              	.L30:
 505              		.loc 2 201 0
 506 0204 1846     		mov	r0, r3
 507 0206 03B0     		add	sp, sp, #12
 508              		.cfi_def_cfa_offset 4
 509              		@ sp needed
 510 0208 5DF804FB 		ldr	pc, [sp], #4
 511              	.L32:
 512              		.align	2
 513              	.L31:
 514 020c 34000000 		.word	.LC3
 515 0210 44000000 		.word	.LC4
 516 0214 00000000 		.word	rlist
 517              		.cfi_endproc
 518              	.LFE11:
 519              		.size	chSemWaitS, .-chSemWaitS
 520              		.align	2
 521              		.global	chSemWaitTimeout
 522              		.thumb
 523              		.thumb_func
 524              		.type	chSemWaitTimeout, %function
 525              	chSemWaitTimeout:
 526              	.LFB12:
 527              		.loc 2 222 0
 528              		.cfi_startproc
 529              		@ args = 0, pretend = 0, frame = 16
 530              		@ frame_needed = 0, uses_anonymous_args = 0
 531 0218 00B5     		push	{lr}
 532              		.cfi_def_cfa_offset 4
 533              		.cfi_offset 14, -4
 534 021a 85B0     		sub	sp, sp, #20
 535              		.cfi_def_cfa_offset 24
 536 021c 0190     		str	r0, [sp, #4]
 537 021e 0091     		str	r1, [sp]
 538              	.LBB6:
 539              		.loc 2 225 0
 540 0220 2023     		movs	r3, #32
 541              	@ 225 "/opt/R2P/core/ChibiOS_2.6.5/os/kernel/src/chsem.c" 1
 542 0222 83F31188 		msr     BASEPRI, r3
 543              	@ 0 "" 2
 544              		.thumb
 545              	.LBE6:
 546 0226 FFF7FEFF 		bl	dbg_check_lock
 547              		.loc 2 226 0
 548 022a 0198     		ldr	r0, [sp, #4]
 549 022c 0099     		ldr	r1, [sp]
 550 022e FFF7FEFF 		bl	chSemWaitTimeoutS
 551 0232 0390     		str	r0, [sp, #12]
 552              		.loc 2 227 0
 553 0234 FFF7FEFF 		bl	dbg_check_unlock
ARM GAS  /tmp/cc94xWmi.s 			page 11


 554              	.LBB7:
 555 0238 0023     		movs	r3, #0
 556              	@ 227 "/opt/R2P/core/ChibiOS_2.6.5/os/kernel/src/chsem.c" 1
 557 023a 83F31188 		msr     BASEPRI, r3
 558              	@ 0 "" 2
 559              		.thumb
 560              	.LBE7:
 561              		.loc 2 228 0
 562 023e 039B     		ldr	r3, [sp, #12]
 563              		.loc 2 229 0
 564 0240 1846     		mov	r0, r3
 565 0242 05B0     		add	sp, sp, #20
 566              		.cfi_def_cfa_offset 4
 567              		@ sp needed
 568 0244 5DF804FB 		ldr	pc, [sp], #4
 569              		.cfi_endproc
 570              	.LFE12:
 571              		.size	chSemWaitTimeout, .-chSemWaitTimeout
 572              		.section	.rodata
 573 0055 000000   		.align	2
 574              	.LC5:
 575 0058 22636853 		.ascii	"\"chSemWaitTimeoutS\"()\000"
 575      656D5761 
 575      69745469 
 575      6D656F75 
 575      74532228 
 576 006e 0000     		.align	2
 577              	.LC6:
 578 0070 63685365 		.ascii	"chSemWaitTimeoutS(), #1\000"
 578      6D576169 
 578      7454696D 
 578      656F7574 
 578      5328292C 
 579              		.text
 580              		.align	2
 581              		.global	chSemWaitTimeoutS
 582              		.thumb
 583              		.thumb_func
 584              		.type	chSemWaitTimeoutS, %function
 585              	chSemWaitTimeoutS:
 586              	.LFB13:
 587              		.loc 2 250 0
 588              		.cfi_startproc
 589              		@ args = 0, pretend = 0, frame = 8
 590              		@ frame_needed = 0, uses_anonymous_args = 0
 591 0248 00B5     		push	{lr}
 592              		.cfi_def_cfa_offset 4
 593              		.cfi_offset 14, -4
 594 024a 83B0     		sub	sp, sp, #12
 595              		.cfi_def_cfa_offset 16
 596 024c 0190     		str	r0, [sp, #4]
 597 024e 0091     		str	r1, [sp]
 598              		.loc 2 252 0
 599 0250 FFF7FEFF 		bl	chDbgCheckClassS
 600              		.loc 2 253 0
 601 0254 019B     		ldr	r3, [sp, #4]
 602 0256 002B     		cmp	r3, #0
ARM GAS  /tmp/cc94xWmi.s 			page 12


 603 0258 02D1     		bne	.L36
 604              		.loc 2 253 0 is_stmt 0 discriminator 1
 605 025a 2148     		ldr	r0, .L43
 606 025c FFF7FEFF 		bl	chDbgPanic
 607              	.L36:
 608              		.loc 2 254 0 is_stmt 1
 609 0260 019B     		ldr	r3, [sp, #4]
 610 0262 9B68     		ldr	r3, [r3, #8]
 611 0264 002B     		cmp	r3, #0
 612 0266 04DB     		blt	.L37
 613              		.loc 2 254 0 is_stmt 0 discriminator 2
 614 0268 019B     		ldr	r3, [sp, #4]
 615 026a 1A68     		ldr	r2, [r3]
 616 026c 019B     		ldr	r3, [sp, #4]
 617 026e 9A42     		cmp	r2, r3
 618 0270 0BD0     		beq	.L38
 619              	.L37:
 620              		.loc 2 254 0 discriminator 3
 621 0272 019B     		ldr	r3, [sp, #4]
 622 0274 9B68     		ldr	r3, [r3, #8]
 623 0276 002B     		cmp	r3, #0
 624 0278 04DA     		bge	.L39
 625              		.loc 2 254 0 discriminator 5
 626 027a 019B     		ldr	r3, [sp, #4]
 627 027c 1A68     		ldr	r2, [r3]
 628 027e 019B     		ldr	r3, [sp, #4]
 629 0280 9A42     		cmp	r2, r3
 630 0282 02D1     		bne	.L38
 631              	.L39:
 632              		.loc 2 254 0 discriminator 6
 633 0284 1748     		ldr	r0, .L43+4
 634 0286 FFF7FEFF 		bl	chDbgPanic
 635              	.L38:
 636              		.loc 2 259 0 is_stmt 1
 637 028a 019B     		ldr	r3, [sp, #4]
 638 028c 9B68     		ldr	r3, [r3, #8]
 639 028e 5A1E     		subs	r2, r3, #1
 640 0290 019B     		ldr	r3, [sp, #4]
 641 0292 9A60     		str	r2, [r3, #8]
 642 0294 019B     		ldr	r3, [sp, #4]
 643 0296 9B68     		ldr	r3, [r3, #8]
 644 0298 002B     		cmp	r3, #0
 645 029a 1BDA     		bge	.L40
 646              		.loc 2 260 0
 647 029c 009B     		ldr	r3, [sp]
 648 029e 002B     		cmp	r3, #0
 649 02a0 07D1     		bne	.L41
 650              		.loc 2 261 0
 651 02a2 019B     		ldr	r3, [sp, #4]
 652 02a4 9B68     		ldr	r3, [r3, #8]
 653 02a6 5A1C     		adds	r2, r3, #1
 654 02a8 019B     		ldr	r3, [sp, #4]
 655 02aa 9A60     		str	r2, [r3, #8]
 656              		.loc 2 262 0
 657 02ac 4FF0FF33 		mov	r3, #-1
 658 02b0 11E0     		b	.L42
 659              	.L41:
ARM GAS  /tmp/cc94xWmi.s 			page 13


 660              		.loc 2 264 0
 661 02b2 0D4B     		ldr	r3, .L43+8
 662 02b4 9B69     		ldr	r3, [r3, #24]
 663 02b6 019A     		ldr	r2, [sp, #4]
 664 02b8 9A62     		str	r2, [r3, #40]
 665              		.loc 2 265 0
 666 02ba 0B4B     		ldr	r3, .L43+8
 667 02bc 9A69     		ldr	r2, [r3, #24]
 668 02be 019B     		ldr	r3, [sp, #4]
 669 02c0 1046     		mov	r0, r2
 670 02c2 1946     		mov	r1, r3
 671 02c4 FFF79CFE 		bl	queue_insert
 672              		.loc 2 266 0
 673 02c8 0320     		movs	r0, #3
 674 02ca 0099     		ldr	r1, [sp]
 675 02cc FFF7FEFF 		bl	chSchGoSleepTimeoutS
 676 02d0 0346     		mov	r3, r0
 677 02d2 00E0     		b	.L42
 678              	.L40:
 679              		.loc 2 268 0
 680 02d4 0023     		movs	r3, #0
 681              	.L42:
 682              		.loc 2 269 0
 683 02d6 1846     		mov	r0, r3
 684 02d8 03B0     		add	sp, sp, #12
 685              		.cfi_def_cfa_offset 4
 686              		@ sp needed
 687 02da 5DF804FB 		ldr	pc, [sp], #4
 688              	.L44:
 689 02de 00BF     		.align	2
 690              	.L43:
 691 02e0 58000000 		.word	.LC5
 692 02e4 70000000 		.word	.LC6
 693 02e8 00000000 		.word	rlist
 694              		.cfi_endproc
 695              	.LFE13:
 696              		.size	chSemWaitTimeoutS, .-chSemWaitTimeoutS
 697              		.section	.rodata
 698              		.align	2
 699              	.LC7:
 700 0088 22636853 		.ascii	"\"chSemSignal\"()\000"
 700      656D5369 
 700      676E616C 
 700      22282900 
 701              		.align	2
 702              	.LC8:
 703 0098 63685365 		.ascii	"chSemSignal(), #1\000"
 703      6D536967 
 703      6E616C28 
 703      292C2023 
 703      3100
 704              		.text
 705              		.align	2
 706              		.global	chSemSignal
 707              		.thumb
 708              		.thumb_func
 709              		.type	chSemSignal, %function
ARM GAS  /tmp/cc94xWmi.s 			page 14


 710              	chSemSignal:
 711              	.LFB14:
 712              		.loc 2 278 0
 713              		.cfi_startproc
 714              		@ args = 0, pretend = 0, frame = 8
 715              		@ frame_needed = 0, uses_anonymous_args = 0
 716 02ec 00B5     		push	{lr}
 717              		.cfi_def_cfa_offset 4
 718              		.cfi_offset 14, -4
 719 02ee 83B0     		sub	sp, sp, #12
 720              		.cfi_def_cfa_offset 16
 721 02f0 0190     		str	r0, [sp, #4]
 722              		.loc 2 280 0
 723 02f2 019B     		ldr	r3, [sp, #4]
 724 02f4 002B     		cmp	r3, #0
 725 02f6 02D1     		bne	.L46
 726              		.loc 2 280 0 is_stmt 0 discriminator 1
 727 02f8 1B48     		ldr	r0, .L51
 728 02fa FFF7FEFF 		bl	chDbgPanic
 729              	.L46:
 730              		.loc 2 281 0 is_stmt 1
 731 02fe 019B     		ldr	r3, [sp, #4]
 732 0300 9B68     		ldr	r3, [r3, #8]
 733 0302 002B     		cmp	r3, #0
 734 0304 04DB     		blt	.L47
 735              		.loc 2 281 0 is_stmt 0 discriminator 2
 736 0306 019B     		ldr	r3, [sp, #4]
 737 0308 1A68     		ldr	r2, [r3]
 738 030a 019B     		ldr	r3, [sp, #4]
 739 030c 9A42     		cmp	r2, r3
 740 030e 0BD0     		beq	.L48
 741              	.L47:
 742              		.loc 2 281 0 discriminator 3
 743 0310 019B     		ldr	r3, [sp, #4]
 744 0312 9B68     		ldr	r3, [r3, #8]
 745 0314 002B     		cmp	r3, #0
 746 0316 04DA     		bge	.L49
 747              		.loc 2 281 0 discriminator 5
 748 0318 019B     		ldr	r3, [sp, #4]
 749 031a 1A68     		ldr	r2, [r3]
 750 031c 019B     		ldr	r3, [sp, #4]
 751 031e 9A42     		cmp	r2, r3
 752 0320 02D1     		bne	.L48
 753              	.L49:
 754              		.loc 2 281 0 discriminator 6
 755 0322 1248     		ldr	r0, .L51+4
 756 0324 FFF7FEFF 		bl	chDbgPanic
 757              	.L48:
 758              	.LBB8:
 759              		.loc 2 286 0 is_stmt 1
 760 0328 2023     		movs	r3, #32
 761              	@ 286 "/opt/R2P/core/ChibiOS_2.6.5/os/kernel/src/chsem.c" 1
 762 032a 83F31188 		msr     BASEPRI, r3
 763              	@ 0 "" 2
 764              		.thumb
 765              	.LBE8:
 766 032e FFF7FEFF 		bl	dbg_check_lock
ARM GAS  /tmp/cc94xWmi.s 			page 15


 767              		.loc 2 287 0
 768 0332 019B     		ldr	r3, [sp, #4]
 769 0334 9B68     		ldr	r3, [r3, #8]
 770 0336 5A1C     		adds	r2, r3, #1
 771 0338 019B     		ldr	r3, [sp, #4]
 772 033a 9A60     		str	r2, [r3, #8]
 773 033c 019B     		ldr	r3, [sp, #4]
 774 033e 9B68     		ldr	r3, [r3, #8]
 775 0340 002B     		cmp	r3, #0
 776 0342 08DC     		bgt	.L50
 777              		.loc 2 288 0
 778 0344 019B     		ldr	r3, [sp, #4]
 779 0346 1846     		mov	r0, r3
 780 0348 FFF76EFE 		bl	fifo_remove
 781 034c 0346     		mov	r3, r0
 782 034e 1846     		mov	r0, r3
 783 0350 0021     		movs	r1, #0
 784 0352 FFF7FEFF 		bl	chSchWakeupS
 785              	.L50:
 786              		.loc 2 289 0
 787 0356 FFF7FEFF 		bl	dbg_check_unlock
 788              	.LBB9:
 789 035a 0023     		movs	r3, #0
 790              	@ 289 "/opt/R2P/core/ChibiOS_2.6.5/os/kernel/src/chsem.c" 1
 791 035c 83F31188 		msr     BASEPRI, r3
 792              	@ 0 "" 2
 793              		.thumb
 794              	.LBE9:
 795              		.loc 2 290 0
 796 0360 03B0     		add	sp, sp, #12
 797              		.cfi_def_cfa_offset 4
 798              		@ sp needed
 799 0362 5DF804FB 		ldr	pc, [sp], #4
 800              	.L52:
 801 0366 00BF     		.align	2
 802              	.L51:
 803 0368 88000000 		.word	.LC7
 804 036c 98000000 		.word	.LC8
 805              		.cfi_endproc
 806              	.LFE14:
 807              		.size	chSemSignal, .-chSemSignal
 808              		.section	.rodata
 809 00aa 0000     		.align	2
 810              	.LC9:
 811 00ac 22636853 		.ascii	"\"chSemSignalI\"()\000"
 811      656D5369 
 811      676E616C 
 811      49222829 
 811      00
 812 00bd 000000   		.align	2
 813              	.LC10:
 814 00c0 63685365 		.ascii	"chSemSignalI(), #1\000"
 814      6D536967 
 814      6E616C49 
 814      28292C20 
 814      233100
 815              		.text
ARM GAS  /tmp/cc94xWmi.s 			page 16


 816              		.align	2
 817              		.global	chSemSignalI
 818              		.thumb
 819              		.thumb_func
 820              		.type	chSemSignalI, %function
 821              	chSemSignalI:
 822              	.LFB15:
 823              		.loc 2 303 0
 824              		.cfi_startproc
 825              		@ args = 0, pretend = 0, frame = 16
 826              		@ frame_needed = 0, uses_anonymous_args = 0
 827 0370 00B5     		push	{lr}
 828              		.cfi_def_cfa_offset 4
 829              		.cfi_offset 14, -4
 830 0372 85B0     		sub	sp, sp, #20
 831              		.cfi_def_cfa_offset 24
 832 0374 0190     		str	r0, [sp, #4]
 833              		.loc 2 305 0
 834 0376 FFF7FEFF 		bl	chDbgCheckClassI
 835              		.loc 2 306 0
 836 037a 019B     		ldr	r3, [sp, #4]
 837 037c 002B     		cmp	r3, #0
 838 037e 02D1     		bne	.L54
 839              		.loc 2 306 0 is_stmt 0 discriminator 1
 840 0380 1748     		ldr	r0, .L59
 841 0382 FFF7FEFF 		bl	chDbgPanic
 842              	.L54:
 843              		.loc 2 307 0 is_stmt 1
 844 0386 019B     		ldr	r3, [sp, #4]
 845 0388 9B68     		ldr	r3, [r3, #8]
 846 038a 002B     		cmp	r3, #0
 847 038c 04DB     		blt	.L55
 848              		.loc 2 307 0 is_stmt 0 discriminator 2
 849 038e 019B     		ldr	r3, [sp, #4]
 850 0390 1A68     		ldr	r2, [r3]
 851 0392 019B     		ldr	r3, [sp, #4]
 852 0394 9A42     		cmp	r2, r3
 853 0396 0BD0     		beq	.L56
 854              	.L55:
 855              		.loc 2 307 0 discriminator 3
 856 0398 019B     		ldr	r3, [sp, #4]
 857 039a 9B68     		ldr	r3, [r3, #8]
 858 039c 002B     		cmp	r3, #0
 859 039e 04DA     		bge	.L57
 860              		.loc 2 307 0 discriminator 5
 861 03a0 019B     		ldr	r3, [sp, #4]
 862 03a2 1A68     		ldr	r2, [r3]
 863 03a4 019B     		ldr	r3, [sp, #4]
 864 03a6 9A42     		cmp	r2, r3
 865 03a8 02D1     		bne	.L56
 866              	.L57:
 867              		.loc 2 307 0 discriminator 6
 868 03aa 0E48     		ldr	r0, .L59+4
 869 03ac FFF7FEFF 		bl	chDbgPanic
 870              	.L56:
 871              		.loc 2 312 0 is_stmt 1
 872 03b0 019B     		ldr	r3, [sp, #4]
ARM GAS  /tmp/cc94xWmi.s 			page 17


 873 03b2 9B68     		ldr	r3, [r3, #8]
 874 03b4 5A1C     		adds	r2, r3, #1
 875 03b6 019B     		ldr	r3, [sp, #4]
 876 03b8 9A60     		str	r2, [r3, #8]
 877 03ba 019B     		ldr	r3, [sp, #4]
 878 03bc 9B68     		ldr	r3, [r3, #8]
 879 03be 002B     		cmp	r3, #0
 880 03c0 0ADC     		bgt	.L53
 881              	.LBB10:
 882              		.loc 2 315 0
 883 03c2 019B     		ldr	r3, [sp, #4]
 884 03c4 1846     		mov	r0, r3
 885 03c6 FFF72FFE 		bl	fifo_remove
 886 03ca 0390     		str	r0, [sp, #12]
 887              		.loc 2 316 0
 888 03cc 039B     		ldr	r3, [sp, #12]
 889 03ce 0022     		movs	r2, #0
 890 03d0 9A62     		str	r2, [r3, #40]
 891              		.loc 2 317 0
 892 03d2 0398     		ldr	r0, [sp, #12]
 893 03d4 FFF7FEFF 		bl	chSchReadyI
 894              	.L53:
 895              	.LBE10:
 896              		.loc 2 319 0
 897 03d8 05B0     		add	sp, sp, #20
 898              		.cfi_def_cfa_offset 4
 899              		@ sp needed
 900 03da 5DF804FB 		ldr	pc, [sp], #4
 901              	.L60:
 902 03de 00BF     		.align	2
 903              	.L59:
 904 03e0 AC000000 		.word	.LC9
 905 03e4 C0000000 		.word	.LC10
 906              		.cfi_endproc
 907              	.LFE15:
 908              		.size	chSemSignalI, .-chSemSignalI
 909              		.section	.rodata
 910 00d3 00       		.align	2
 911              	.LC11:
 912 00d4 22636853 		.ascii	"\"chSemAddCounterI\"()\000"
 912      656D4164 
 912      64436F75 
 912      6E746572 
 912      49222829 
 913 00e9 000000   		.align	2
 914              	.LC12:
 915 00ec 63685365 		.ascii	"chSemAddCounterI(), #1\000"
 915      6D416464 
 915      436F756E 
 915      74657249 
 915      28292C20 
 916              		.text
 917              		.align	2
 918              		.global	chSemAddCounterI
 919              		.thumb
 920              		.thumb_func
 921              		.type	chSemAddCounterI, %function
ARM GAS  /tmp/cc94xWmi.s 			page 18


 922              	chSemAddCounterI:
 923              	.LFB16:
 924              		.loc 2 334 0
 925              		.cfi_startproc
 926              		@ args = 0, pretend = 0, frame = 8
 927              		@ frame_needed = 0, uses_anonymous_args = 0
 928 03e8 00B5     		push	{lr}
 929              		.cfi_def_cfa_offset 4
 930              		.cfi_offset 14, -4
 931 03ea 83B0     		sub	sp, sp, #12
 932              		.cfi_def_cfa_offset 16
 933 03ec 0190     		str	r0, [sp, #4]
 934 03ee 0091     		str	r1, [sp]
 935              		.loc 2 336 0
 936 03f0 FFF7FEFF 		bl	chDbgCheckClassI
 937              		.loc 2 337 0
 938 03f4 019B     		ldr	r3, [sp, #4]
 939 03f6 002B     		cmp	r3, #0
 940 03f8 02D0     		beq	.L62
 941              		.loc 2 337 0 is_stmt 0 discriminator 2
 942 03fa 009B     		ldr	r3, [sp]
 943 03fc 002B     		cmp	r3, #0
 944 03fe 02DC     		bgt	.L63
 945              	.L62:
 946              		.loc 2 337 0 discriminator 3
 947 0400 1A48     		ldr	r0, .L70
 948 0402 FFF7FEFF 		bl	chDbgPanic
 949              	.L63:
 950              		.loc 2 338 0 is_stmt 1
 951 0406 019B     		ldr	r3, [sp, #4]
 952 0408 9B68     		ldr	r3, [r3, #8]
 953 040a 002B     		cmp	r3, #0
 954 040c 04DB     		blt	.L64
 955              		.loc 2 338 0 is_stmt 0 discriminator 2
 956 040e 019B     		ldr	r3, [sp, #4]
 957 0410 1A68     		ldr	r2, [r3]
 958 0412 019B     		ldr	r3, [sp, #4]
 959 0414 9A42     		cmp	r2, r3
 960 0416 0BD0     		beq	.L65
 961              	.L64:
 962              		.loc 2 338 0 discriminator 3
 963 0418 019B     		ldr	r3, [sp, #4]
 964 041a 9B68     		ldr	r3, [r3, #8]
 965 041c 002B     		cmp	r3, #0
 966 041e 04DA     		bge	.L66
 967              		.loc 2 338 0 discriminator 5
 968 0420 019B     		ldr	r3, [sp, #4]
 969 0422 1A68     		ldr	r2, [r3]
 970 0424 019B     		ldr	r3, [sp, #4]
 971 0426 9A42     		cmp	r2, r3
 972 0428 02D1     		bne	.L65
 973              	.L66:
 974              		.loc 2 338 0 discriminator 6
 975 042a 1148     		ldr	r0, .L70+4
 976 042c FFF7FEFF 		bl	chDbgPanic
 977              	.L65:
 978              		.loc 2 343 0 is_stmt 1
ARM GAS  /tmp/cc94xWmi.s 			page 19


 979 0430 16E0     		b	.L67
 980              	.L69:
 981              		.loc 2 344 0
 982 0432 019B     		ldr	r3, [sp, #4]
 983 0434 9B68     		ldr	r3, [r3, #8]
 984 0436 5A1C     		adds	r2, r3, #1
 985 0438 019B     		ldr	r3, [sp, #4]
 986 043a 9A60     		str	r2, [r3, #8]
 987 043c 019B     		ldr	r3, [sp, #4]
 988 043e 9B68     		ldr	r3, [r3, #8]
 989 0440 002B     		cmp	r3, #0
 990 0442 0ADC     		bgt	.L68
 991              		.loc 2 345 0
 992 0444 019B     		ldr	r3, [sp, #4]
 993 0446 1846     		mov	r0, r3
 994 0448 FFF7EEFD 		bl	fifo_remove
 995 044c 0346     		mov	r3, r0
 996 044e 1846     		mov	r0, r3
 997 0450 FFF7FEFF 		bl	chSchReadyI
 998 0454 0246     		mov	r2, r0
 999 0456 0023     		movs	r3, #0
 1000 0458 9362     		str	r3, [r2, #40]
 1001              	.L68:
 1002              		.loc 2 346 0
 1003 045a 009B     		ldr	r3, [sp]
 1004 045c 013B     		subs	r3, r3, #1
 1005 045e 0093     		str	r3, [sp]
 1006              	.L67:
 1007              		.loc 2 343 0
 1008 0460 009B     		ldr	r3, [sp]
 1009 0462 002B     		cmp	r3, #0
 1010 0464 E5DC     		bgt	.L69
 1011              		.loc 2 348 0
 1012 0466 03B0     		add	sp, sp, #12
 1013              		.cfi_def_cfa_offset 4
 1014              		@ sp needed
 1015 0468 5DF804FB 		ldr	pc, [sp], #4
 1016              	.L71:
 1017              		.align	2
 1018              	.L70:
 1019 046c D4000000 		.word	.LC11
 1020 0470 EC000000 		.word	.LC12
 1021              		.cfi_endproc
 1022              	.LFE16:
 1023              		.size	chSemAddCounterI, .-chSemAddCounterI
 1024              		.section	.rodata
 1025 0103 00       		.align	2
 1026              	.LC13:
 1027 0104 22636853 		.ascii	"\"chSemSignalWait\"()\000"
 1027      656D5369 
 1027      676E616C 
 1027      57616974 
 1027      22282900 
 1028              		.align	2
 1029              	.LC14:
 1030 0118 63685365 		.ascii	"chSemSignalWait(), #1\000"
 1030      6D536967 
ARM GAS  /tmp/cc94xWmi.s 			page 20


 1030      6E616C57 
 1030      61697428 
 1030      292C2023 
 1031 012e 0000     		.align	2
 1032              	.LC15:
 1033 0130 63685365 		.ascii	"chSemSignalWait(), #2\000"
 1033      6D536967 
 1033      6E616C57 
 1033      61697428 
 1033      292C2023 
 1034 0146 0000     		.text
 1035              		.align	2
 1036              		.global	chSemSignalWait
 1037              		.thumb
 1038              		.thumb_func
 1039              		.type	chSemSignalWait, %function
 1040              	chSemSignalWait:
 1041              	.LFB17:
 1042              		.loc 2 366 0
 1043              		.cfi_startproc
 1044              		@ args = 0, pretend = 0, frame = 16
 1045              		@ frame_needed = 0, uses_anonymous_args = 0
 1046 0474 00B5     		push	{lr}
 1047              		.cfi_def_cfa_offset 4
 1048              		.cfi_offset 14, -4
 1049 0476 85B0     		sub	sp, sp, #20
 1050              		.cfi_def_cfa_offset 24
 1051 0478 0190     		str	r0, [sp, #4]
 1052 047a 0091     		str	r1, [sp]
 1053              		.loc 2 369 0
 1054 047c 019B     		ldr	r3, [sp, #4]
 1055 047e 002B     		cmp	r3, #0
 1056 0480 02D0     		beq	.L73
 1057              		.loc 2 369 0 is_stmt 0 discriminator 2
 1058 0482 009B     		ldr	r3, [sp]
 1059 0484 002B     		cmp	r3, #0
 1060 0486 02D1     		bne	.L74
 1061              	.L73:
 1062              		.loc 2 369 0 discriminator 3
 1063 0488 3748     		ldr	r0, .L85
 1064 048a FFF7FEFF 		bl	chDbgPanic
 1065              	.L74:
 1066              		.loc 2 370 0 is_stmt 1
 1067 048e 019B     		ldr	r3, [sp, #4]
 1068 0490 9B68     		ldr	r3, [r3, #8]
 1069 0492 002B     		cmp	r3, #0
 1070 0494 04DB     		blt	.L75
 1071              		.loc 2 370 0 is_stmt 0 discriminator 2
 1072 0496 019B     		ldr	r3, [sp, #4]
 1073 0498 1A68     		ldr	r2, [r3]
 1074 049a 019B     		ldr	r3, [sp, #4]
 1075 049c 9A42     		cmp	r2, r3
 1076 049e 0BD0     		beq	.L76
 1077              	.L75:
 1078              		.loc 2 370 0 discriminator 3
 1079 04a0 019B     		ldr	r3, [sp, #4]
 1080 04a2 9B68     		ldr	r3, [r3, #8]
ARM GAS  /tmp/cc94xWmi.s 			page 21


 1081 04a4 002B     		cmp	r3, #0
 1082 04a6 04DA     		bge	.L77
 1083              		.loc 2 370 0 discriminator 5
 1084 04a8 019B     		ldr	r3, [sp, #4]
 1085 04aa 1A68     		ldr	r2, [r3]
 1086 04ac 019B     		ldr	r3, [sp, #4]
 1087 04ae 9A42     		cmp	r2, r3
 1088 04b0 02D1     		bne	.L76
 1089              	.L77:
 1090              		.loc 2 370 0 discriminator 6
 1091 04b2 2E48     		ldr	r0, .L85+4
 1092 04b4 FFF7FEFF 		bl	chDbgPanic
 1093              	.L76:
 1094              		.loc 2 374 0 is_stmt 1
 1095 04b8 009B     		ldr	r3, [sp]
 1096 04ba 9B68     		ldr	r3, [r3, #8]
 1097 04bc 002B     		cmp	r3, #0
 1098 04be 04DB     		blt	.L78
 1099              		.loc 2 374 0 is_stmt 0 discriminator 2
 1100 04c0 009B     		ldr	r3, [sp]
 1101 04c2 1A68     		ldr	r2, [r3]
 1102 04c4 009B     		ldr	r3, [sp]
 1103 04c6 9A42     		cmp	r2, r3
 1104 04c8 0BD0     		beq	.L79
 1105              	.L78:
 1106              		.loc 2 374 0 discriminator 3
 1107 04ca 009B     		ldr	r3, [sp]
 1108 04cc 9B68     		ldr	r3, [r3, #8]
 1109 04ce 002B     		cmp	r3, #0
 1110 04d0 04DA     		bge	.L80
 1111              		.loc 2 374 0 discriminator 5
 1112 04d2 009B     		ldr	r3, [sp]
 1113 04d4 1A68     		ldr	r2, [r3]
 1114 04d6 009B     		ldr	r3, [sp]
 1115 04d8 9A42     		cmp	r2, r3
 1116 04da 02D1     		bne	.L79
 1117              	.L80:
 1118              		.loc 2 374 0 discriminator 6
 1119 04dc 2448     		ldr	r0, .L85+8
 1120 04de FFF7FEFF 		bl	chDbgPanic
 1121              	.L79:
 1122              	.LBB11:
 1123              		.loc 2 379 0 is_stmt 1
 1124 04e2 2023     		movs	r3, #32
 1125              	@ 379 "/opt/R2P/core/ChibiOS_2.6.5/os/kernel/src/chsem.c" 1
 1126 04e4 83F31188 		msr     BASEPRI, r3
 1127              	@ 0 "" 2
 1128              		.thumb
 1129              	.LBE11:
 1130 04e8 FFF7FEFF 		bl	dbg_check_lock
 1131              		.loc 2 380 0
 1132 04ec 019B     		ldr	r3, [sp, #4]
 1133 04ee 9B68     		ldr	r3, [r3, #8]
 1134 04f0 5A1C     		adds	r2, r3, #1
 1135 04f2 019B     		ldr	r3, [sp, #4]
 1136 04f4 9A60     		str	r2, [r3, #8]
 1137 04f6 019B     		ldr	r3, [sp, #4]
ARM GAS  /tmp/cc94xWmi.s 			page 22


 1138 04f8 9B68     		ldr	r3, [r3, #8]
 1139 04fa 002B     		cmp	r3, #0
 1140 04fc 0ADC     		bgt	.L81
 1141              		.loc 2 381 0
 1142 04fe 019B     		ldr	r3, [sp, #4]
 1143 0500 1846     		mov	r0, r3
 1144 0502 FFF791FD 		bl	fifo_remove
 1145 0506 0346     		mov	r3, r0
 1146 0508 1846     		mov	r0, r3
 1147 050a FFF7FEFF 		bl	chSchReadyI
 1148 050e 0246     		mov	r2, r0
 1149 0510 0023     		movs	r3, #0
 1150 0512 9362     		str	r3, [r2, #40]
 1151              	.L81:
 1152              		.loc 2 382 0
 1153 0514 009B     		ldr	r3, [sp]
 1154 0516 9B68     		ldr	r3, [r3, #8]
 1155 0518 5A1E     		subs	r2, r3, #1
 1156 051a 009B     		ldr	r3, [sp]
 1157 051c 9A60     		str	r2, [r3, #8]
 1158 051e 009B     		ldr	r3, [sp]
 1159 0520 9B68     		ldr	r3, [r3, #8]
 1160 0522 002B     		cmp	r3, #0
 1161 0524 11DA     		bge	.L82
 1162              	.LBB12:
 1163              		.loc 2 383 0
 1164 0526 134B     		ldr	r3, .L85+12
 1165 0528 9B69     		ldr	r3, [r3, #24]
 1166 052a 0293     		str	r3, [sp, #8]
 1167              		.loc 2 384 0
 1168 052c 009B     		ldr	r3, [sp]
 1169 052e 0298     		ldr	r0, [sp, #8]
 1170 0530 1946     		mov	r1, r3
 1171 0532 FFF765FD 		bl	queue_insert
 1172              		.loc 2 385 0
 1173 0536 029B     		ldr	r3, [sp, #8]
 1174 0538 009A     		ldr	r2, [sp]
 1175 053a 9A62     		str	r2, [r3, #40]
 1176              		.loc 2 386 0
 1177 053c 0320     		movs	r0, #3
 1178 053e FFF7FEFF 		bl	chSchGoSleepS
 1179              		.loc 2 387 0
 1180 0542 029B     		ldr	r3, [sp, #8]
 1181 0544 9B6A     		ldr	r3, [r3, #40]
 1182 0546 0393     		str	r3, [sp, #12]
 1183              	.LBE12:
 1184 0548 03E0     		b	.L83
 1185              	.L82:
 1186              		.loc 2 390 0
 1187 054a FFF7FEFF 		bl	chSchRescheduleS
 1188              		.loc 2 391 0
 1189 054e 0023     		movs	r3, #0
 1190 0550 0393     		str	r3, [sp, #12]
 1191              	.L83:
 1192              		.loc 2 393 0
 1193 0552 FFF7FEFF 		bl	dbg_check_unlock
 1194              	.LBB13:
ARM GAS  /tmp/cc94xWmi.s 			page 23


 1195 0556 0023     		movs	r3, #0
 1196              	@ 393 "/opt/R2P/core/ChibiOS_2.6.5/os/kernel/src/chsem.c" 1
 1197 0558 83F31188 		msr     BASEPRI, r3
 1198              	@ 0 "" 2
 1199              		.thumb
 1200              	.LBE13:
 1201              		.loc 2 394 0
 1202 055c 039B     		ldr	r3, [sp, #12]
 1203              		.loc 2 395 0
 1204 055e 1846     		mov	r0, r3
 1205 0560 05B0     		add	sp, sp, #20
 1206              		.cfi_def_cfa_offset 4
 1207              		@ sp needed
 1208 0562 5DF804FB 		ldr	pc, [sp], #4
 1209              	.L86:
 1210 0566 00BF     		.align	2
 1211              	.L85:
 1212 0568 04010000 		.word	.LC13
 1213 056c 18010000 		.word	.LC14
 1214 0570 30010000 		.word	.LC15
 1215 0574 00000000 		.word	rlist
 1216              		.cfi_endproc
 1217              	.LFE17:
 1218              		.size	chSemSignalWait, .-chSemSignalWait
 1219              	.Letext0:
 1220              		.file 3 "/opt/R2P/tools/gcc-arm-none-eabi-4_9-2014q4/arm-none-eabi/include/machine/_default_types.
 1221              		.file 4 "/opt/R2P/tools/gcc-arm-none-eabi-4_9-2014q4/arm-none-eabi/include/stdint.h"
 1222              		.file 5 "/opt/R2P/core/ChibiOS_2.6.5/os/ports/GCC/ARMCMx/chtypes.h"
 1223              		.file 6 "/opt/R2P/core/ChibiOS_2.6.5/os/kernel/include/chlists.h"
 1224              		.file 7 "/opt/R2P/core/ChibiOS_2.6.5/os/kernel/include/chthreads.h"
 1225              		.file 8 "/opt/R2P/core/ChibiOS_2.6.5/os/ports/GCC/ARMCMx/chcore_v7m.h"
 1226              		.file 9 "/opt/R2P/core/ChibiOS_2.6.5/os/kernel/include/chschd.h"
 1227              		.file 10 "/opt/R2P/core/ChibiOS_2.6.5/os/kernel/include/chsem.h"
 1228              		.file 11 "/opt/R2P/core/ChibiOS_2.6.5/os/kernel/include/chmtx.h"