ARM GAS  /tmp/ccWQqAd3.s 			page 1


   1              		.syntax unified
   2              		.cpu cortex-m4
   3              		.fpu softvfp
   4              		.eabi_attribute 20, 1
   5              		.eabi_attribute 21, 1
   6              		.eabi_attribute 23, 3
   7              		.eabi_attribute 24, 1
   8              		.eabi_attribute 25, 1
   9              		.eabi_attribute 26, 1
  10              		.eabi_attribute 30, 6
  11              		.eabi_attribute 34, 1
  12              		.eabi_attribute 18, 4
  13              		.thumb
  14              		.file	"crt0.c"
  15              		.text
  16              	.Ltext0:
  17              		.cfi_sections	.debug_frame
  18              		.align	2
  19              		.weak	__early_init
  20              		.thumb
  21              		.thumb_func
  22              		.type	__early_init, %function
  23              	__early_init:
  24              	.LFB0:
  25              		.file 1 "/opt/R2P/core/ChibiOS_2.6.5/os/ports/GCC/ARMCMx/crt0.c"
  26              		.loc 1 234 0
  27              		.cfi_startproc
  28              		@ args = 0, pretend = 0, frame = 0
  29              		@ frame_needed = 0, uses_anonymous_args = 0
  30              		@ link register save eliminated.
  31              		.loc 1 234 0
  32 0000 7047     		bx	lr
  33              		.cfi_endproc
  34              	.LFE0:
  35              		.size	__early_init, .-__early_init
  36 0002 00BF     		.align	2
  37              		.weak	__late_init
  38              		.thumb
  39              		.thumb_func
  40              		.type	__late_init, %function
  41              	__late_init:
  42              	.LFB1:
  43              		.loc 1 246 0
  44              		.cfi_startproc
  45              		@ args = 0, pretend = 0, frame = 0
  46              		@ frame_needed = 0, uses_anonymous_args = 0
  47              		@ link register save eliminated.
  48              		.loc 1 246 0
  49 0004 7047     		bx	lr
  50              		.cfi_endproc
  51              	.LFE1:
  52              		.size	__late_init, .-__late_init
  53 0006 00BF     		.align	2
  54              		.weak	_default_exit
  55              		.thumb
  56              		.thumb_func
  57              		.type	_default_exit, %function
ARM GAS  /tmp/ccWQqAd3.s 			page 2


  58              	_default_exit:
  59              	.LFB2:
  60              		.loc 1 257 0
  61              		.cfi_startproc
  62              		@ Naked Function: prologue and epilogue provided by programmer.
  63              		@ args = 0, pretend = 0, frame = 0
  64              		@ frame_needed = 0, uses_anonymous_args = 0
  65              	.L4:
  66              		.loc 1 259 0 discriminator 1
  67 0008 FEE7     		b	.L4
  68              		.cfi_endproc
  69              	.LFE2:
  70              		.size	_default_exit, .-_default_exit
  71 000a 00BF     		.align	2
  72              		.global	ResetHandler
  73              		.thumb
  74              		.thumb_func
  75              		.type	ResetHandler, %function
  76              	ResetHandler:
  77              	.LFB3:
  78              		.loc 1 268 0
  79              		.cfi_startproc
  80              		@ Naked Function: prologue and epilogue provided by programmer.
  81              		@ args = 0, pretend = 0, frame = 0
  82              		@ frame_needed = 0, uses_anonymous_args = 0
  83              		.loc 1 274 0
  84              	@ 274 "/opt/R2P/core/ChibiOS_2.6.5/os/ports/GCC/ARMCMx/crt0.c" 1
  85 000c 72B6     		cpsid   i
  86              	@ 0 "" 2
  87              		.loc 1 275 0
  88              		.thumb
  89 000e 244C     		ldr	r4, .L18
  90              		.loc 1 276 0
  91              	@ 276 "/opt/R2P/core/ChibiOS_2.6.5/os/ports/GCC/ARMCMx/crt0.c" 1
  92 0010 84F30988 		msr     PSP, r4
  93              	@ 0 "" 2
  94              		.loc 1 294 0
  95              		.thumb
  96 0014 0224     		movs	r4, #2
  97              		.loc 1 296 0
  98              	@ 296 "/opt/R2P/core/ChibiOS_2.6.5/os/ports/GCC/ARMCMx/crt0.c" 1
  99 0016 84F31488 		msr     CONTROL, r4
 100              	@ 0 "" 2
 101              		.loc 1 297 0
 102              	@ 297 "/opt/R2P/core/ChibiOS_2.6.5/os/ports/GCC/ARMCMx/crt0.c" 1
 103 001a BFF36F8F 		isb
 104              	@ 0 "" 2
 105              		.thumb
 106              	.LBB2:
 107              		.loc 1 301 0
 108 001e 214C     		ldr	r4, .L18+4
 109 0020 214D     		ldr	r5, .L18+8
 110 0022 04E0     		b	.L6
 111              	.L7:
 112              		.loc 1 301 0 is_stmt 0 discriminator 3
 113 0024 2346     		mov	r3, r4
 114 0026 1C1D     		adds	r4, r3, #4
ARM GAS  /tmp/ccWQqAd3.s 			page 3


 115 0028 4FF05532 		mov	r2, #1431655765
 116 002c 1A60     		str	r2, [r3]
 117              	.L6:
 118              		.loc 1 301 0 discriminator 1
 119 002e AC42     		cmp	r4, r5
 120 0030 F8D3     		bcc	.L7
 121              	.LBE2:
 122              	.LBB3:
 123              		.loc 1 304 0 is_stmt 1
 124 0032 1E4C     		ldr	r4, .L18+12
 125 0034 1A4D     		ldr	r5, .L18
 126 0036 04E0     		b	.L8
 127              	.L9:
 128              		.loc 1 304 0 is_stmt 0 discriminator 3
 129 0038 2346     		mov	r3, r4
 130 003a 1C1D     		adds	r4, r3, #4
 131 003c 4FF05532 		mov	r2, #1431655765
 132 0040 1A60     		str	r2, [r3]
 133              	.L8:
 134              		.loc 1 304 0 discriminator 1
 135 0042 AC42     		cmp	r4, r5
 136 0044 F8D3     		bcc	.L9
 137              	.LBE3:
 138              		.loc 1 310 0 is_stmt 1
 139 0046 FFF7FEFF 		bl	__early_init
 140              	.LBB4:
 141              		.loc 1 317 0
 142 004a 194D     		ldr	r5, .L18+16
 143              		.loc 1 318 0
 144 004c 194C     		ldr	r4, .L18+20
 145              		.loc 1 319 0
 146 004e 05E0     		b	.L10
 147              	.L11:
 148              		.loc 1 320 0
 149 0050 2346     		mov	r3, r4
 150 0052 1C1D     		adds	r4, r3, #4
 151 0054 2A46     		mov	r2, r5
 152 0056 151D     		adds	r5, r2, #4
 153 0058 1268     		ldr	r2, [r2]
 154 005a 1A60     		str	r2, [r3]
 155              	.L10:
 156              		.loc 1 319 0
 157 005c 164B     		ldr	r3, .L18+24
 158 005e 9C42     		cmp	r4, r3
 159 0060 F6D3     		bcc	.L11
 160              	.LBE4:
 161              	.LBB5:
 162              		.loc 1 326 0
 163 0062 164C     		ldr	r4, .L18+28
 164 0064 164D     		ldr	r5, .L18+32
 165 0066 03E0     		b	.L12
 166              	.L13:
 167              		.loc 1 326 0 is_stmt 0 discriminator 3
 168 0068 2346     		mov	r3, r4
 169 006a 1C1D     		adds	r4, r3, #4
 170 006c 0022     		movs	r2, #0
 171 006e 1A60     		str	r2, [r3]
ARM GAS  /tmp/ccWQqAd3.s 			page 4


 172              	.L12:
 173              		.loc 1 326 0 discriminator 1
 174 0070 AC42     		cmp	r4, r5
 175 0072 F9D3     		bcc	.L13
 176              	.LBE5:
 177              		.loc 1 330 0 is_stmt 1
 178 0074 FFF7FEFF 		bl	__late_init
 179              	.LBB6:
 180              		.loc 1 335 0
 181 0078 124C     		ldr	r4, .L18+36
 182              		.loc 1 336 0
 183 007a 02E0     		b	.L14
 184              	.L15:
 185              		.loc 1 337 0
 186 007c 2368     		ldr	r3, [r4]
 187 007e 9847     		blx	r3
 188              		.loc 1 338 0
 189 0080 0434     		adds	r4, r4, #4
 190              	.L14:
 191              		.loc 1 336 0
 192 0082 114B     		ldr	r3, .L18+40
 193 0084 9C42     		cmp	r4, r3
 194 0086 F9D3     		bcc	.L15
 195              	.LBE6:
 196              		.loc 1 344 0
 197 0088 FFF7FEFF 		bl	main
 198              	.LBB7:
 199              		.loc 1 349 0
 200 008c 0F4C     		ldr	r4, .L18+44
 201              		.loc 1 350 0
 202 008e 02E0     		b	.L16
 203              	.L17:
 204              		.loc 1 351 0
 205 0090 2368     		ldr	r3, [r4]
 206 0092 9847     		blx	r3
 207              		.loc 1 352 0
 208 0094 0434     		adds	r4, r4, #4
 209              	.L16:
 210              		.loc 1 350 0
 211 0096 0E4B     		ldr	r3, .L18+48
 212 0098 9C42     		cmp	r4, r3
 213 009a F9D3     		bcc	.L17
 214              	.LBE7:
 215              		.loc 1 358 0
 216 009c FFF7FEFF 		bl	_default_exit
 217              		.loc 1 359 0
 218              	.L19:
 219              		.align	2
 220              	.L18:
 221 00a0 00000000 		.word	__process_stack_end__
 222 00a4 00000000 		.word	__main_stack_base__
 223 00a8 00000000 		.word	__main_stack_end__
 224 00ac 00000000 		.word	__process_stack_base__
 225 00b0 00000000 		.word	_textdata
 226 00b4 00000000 		.word	_data
 227 00b8 00000000 		.word	_edata
 228 00bc 00000000 		.word	_bss_start
ARM GAS  /tmp/ccWQqAd3.s 			page 5


 229 00c0 00000000 		.word	_bss_end
 230 00c4 00000000 		.word	__init_array_start
 231 00c8 00000000 		.word	__init_array_end
 232 00cc 00000000 		.word	__fini_array_start
 233 00d0 00000000 		.word	__fini_array_end
 234              		.cfi_endproc
 235              	.LFE3:
 236              		.size	ResetHandler, .-ResetHandler
 237              	.Letext0:
 238              		.file 2 "/opt/R2P/tools/gcc-arm-none-eabi-4_9-2014q4/arm-none-eabi/include/machine/_default_types.
 239              		.file 3 "/opt/R2P/tools/gcc-arm-none-eabi-4_9-2014q4/arm-none-eabi/include/stdint.h"