ARM GAS  /tmp/ccWQqAd3.s 			page 1


   1              		.syntax unified
   2              		.cpu cortex-m4
   3              		.fpu softvfp
   4              		.eabi_attribute 20, 1
   5              		.eabi_attribute 21, 1
   6              		.eabi_attribute 23, 3
   7              		.eabi_attribute 24, 1
   8              		.eabi_attribute 25, 1
   9              		.eabi_attribute 26, 1
  10              		.eabi_attribute 30, 6
  11              		.eabi_attribute 34, 1
  12              		.eabi_attribute 18, 4
  13              		.thumb
  14              		.file	"crt0.c"
  15              		.text
  16              	.Ltext0:
  17              		.cfi_sections	.debug_frame
  18              		.align	2
  19              		.weak	__early_init
  20              		.thumb
  21              		.thumb_func
  22              		.type	__early_init, %function
  23              	__early_init:
  24              	.LFB0:
  25              		.file 1 "/opt/R2P/core/ChibiOS_2.6.5/os/ports/GCC/ARMCMx/crt0.c"
  26              		.loc 1 234 0
  27              		.cfi_startproc
  28              		@ args = 0, pretend = 0, frame = 0
  29              		@ frame_needed = 0, uses_anonymous_args = 0
  30              		@ link register save eliminated.
  31              		.loc 1 234 0
  32 0000 7047     		bx	lr
  33              		.cfi_endproc
  34              	.LFE0:
  35              		.size	__early_init, .-__early_init
  36 0002 00BF     		.align	2
  37              		.weak	__late_init
  38              		.thumb
  39              		.thumb_func
  40              		.type	__late_init, %function
  41              	__late_init:
  42              	.LFB1:
  43              		.loc 1 246 0
  44              		.cfi_startproc
  45              		@ args = 0, pretend = 0, frame = 0
  46              		@ frame_needed = 0, uses_anonymous_args = 0
  47              		@ link register save eliminated.
  48              		.loc 1 246 0
  49 0004 7047     		bx	lr
  50              		.cfi_endproc
  51              	.LFE1:
  52              		.size	__late_init, .-__late_init
  53 0006 00BF     		.align	2
  54              		.weak	_default_exit
  55              		.thumb
  56              		.thumb_func
  57              		.type	_default_exit, %function
ARM GAS  /tmp/ccWQqAd3.s 			page 2


  58              	_default_exit:
  59              	.LFB2:
  60              		.loc 1 257 0
  61              		.cfi_startproc
  62              		@ Naked Function: prologue and epilogue provided by programmer.
  63              		@ args = 0, pretend = 0, frame = 0
  64              		@ frame_needed = 0, uses_anonymous_args = 0
  65              	.L4:
  66              		.loc 1 259 0 discriminator 1
  67 0008 FEE7     		b	.L4
  68              		.cfi_endproc
  69              	.LFE2:
  70              		.size	_default_exit, .-_default_exit
  71 000a 00BF     		.align	2
  72              		.global	ResetHandler
  73              		.thumb
  74              		.thumb_func
  75              		.type	ResetHandler, %function
  76              	ResetHandler:
  77              	.LFB3:
  78              		.loc 1 268 0
  79              		.cfi_startproc
  80              		@ Naked Function: prologue and epilogue provided by programmer.
  81              		@ args = 0, pretend = 0, frame = 0
  82              		@ frame_needed = 0, uses_anonymous_args = 0
  83              		.loc 1 274 0
  84              	@ 274 "/opt/R2P/core/ChibiOS_2.6.5/os/ports/GCC/ARMCMx/crt0.c" 1
  85 000c 72B6     		cpsid   i
  86              	@ 0 "" 2
  87              		.loc 1 275 0
  88              		.thumb
  89 000e 244C     		ldr	r4, .L18
  90              		.loc 1 276 0
  91              	@ 276 "/opt/R2P/core/ChibiOS_2.6.5/os/ports/GCC/ARMCMx/crt0.c" 1
  92 0010 84F30988 		msr     PSP, r4
  93              	@ 0 "" 2
  94              		.loc 1 294 0
  95              		.thumb
  96 0014 0224     		movs	r4, #2
  97              		.loc 1 296 0
  98              	@ 296 "/opt/R2P/core/ChibiOS_2.6.5/os/ports/GCC/ARMCMx/crt0.c" 1
  99 0016 84F31488 		msr     CONTROL, r4
 100              	@ 0 "" 2
 101              		.loc 1 297 0
 102              	@ 297 "/opt/R2P/core/ChibiOS_2.6.5/os/ports/GCC/ARMCMx/crt0.c" 1
 103 001a BFF36F8F 		isb
 104              	@ 0 "" 2
 105              		.thumb
 106              	.LBB2:
 107              		.loc 1 301 0
 108 001e 214C     		ldr	r4, .L18+4
 109 0020 214D     		ldr	r5, .L18+8
 110 0022 04E0     		b	.L6
 111              	.L7:
 112              		.loc 1 301 0 is_stmt 0 discriminator 3
 113 0024 2346     		mov	r3, r4
 114 0026 1C1D     		adds	r4, r3, #4
ARM GAS  /tmp/ccWQqAd3.s 			page 3


 115 0028 4FF05532 		mov	r2, #1431655765
 116 002c 1A60     		str	r2, [r3]
 117              	.L6:
 118              		.loc 1 301 0 discriminator 1
 119 002e AC42     		cmp	r4, r5
 120 0030 F8D3     		bcc	.L7
 121              	.LBE2:
 122              	.LBB3:
 123              		.loc 1 304 0 is_stmt 1
 124 0032 1E4C     		ldr	r4, .L18+12
 125 0034 1A4D     		ldr	r5, .L18
 126 0036 04E0     		b	.L8
 127              	.L9:
 128              		.loc 1 304 0 is_stmt 0 discriminator 3
 129 0038 2346     		mov	r3, r4
 130 003a 1C1D     		adds	r4, r3, #4
 131 003c 4FF05532 		mov	r2, #1431655765
 132 0040 1A60     		str	r2, [r3]
 133              	.L8:
 134              		.loc 1 304 0 discriminator 1
 135 0042 AC42     		cmp	r4, r5
 136 0044 F8D3     		bcc	.L9
 137              	.LBE3:
 138              		.loc 1 310 0 is_stmt 1
 139 0046 FFF7FEFF 		bl	__early_init
 140              	.LBB4:
 141              		.loc 1 317 0
 142 004a 194D     		ldr	r5, .L18+16
 143              		.loc 1 318 0
 144 004c 194C     		ldr	r4, .L18+20
 145              		.loc 1 319 0
 146 004e 05E0     		b	.L10
 147              	.L11:
 148              		.loc 1 320 0
 149 0050 2346     		mov	r3, r4
 150 0052 1C1D     		adds	r4, r3, #4
 151 0054 2A46     		mov	r2, r5
 152 0056 151D     		adds	r5, r2, #4
 153 0058 1268     		ldr	r2, [r2]
 154 005a 1A60     		str	r2, [r3]
 155              	.L10:
 156              		.loc 1 319 0
 157 005c 164B     		ldr	r3, .L18+24
 158 005e 9C42     		cmp	r4, r3
 159 0060 F6D3     		bcc	.L11
 160              	.LBE4:
 161              	.LBB5:
 162              		.loc 1 326 0
 163 0062 164C     		ldr	r4, .L18+28
 164 0064 164D     		ldr	r5, .L18+32
 165 0066 03E0     		b	.L12
 166              	.L13:
 167              		.loc 1 326 0 is_stmt 0 discriminator 3
 168 0068 2346     		mov	r3, r4
 169 006a 1C1D     		adds	r4, r3, #4
 170 006c 0022     		movs	r2, #0
 171 006e 1A60     		str	r2, [r3]
ARM GAS  /tmp/ccWQqAd3.s 			page 4


 172              	.L12:
 173              		.loc 1 326 0 discriminator 1
 174 0070 AC42     		cmp	r4, r5
 175 0072 F9D3     		bcc	.L13
 176              	.LBE5:
 177              		.loc 1 330 0 is_stmt 1
 178 0074 FFF7FEFF 		bl	__late_init
 179              	.LBB6:
 180              		.loc 1 335 0
 181 0078 124C     		ldr	r4, .L18+36
 182              		.loc 1 336 0
 183 007a 02E0     		b	.L14
 184              	.L15:
 185              		.loc 1 337 0
 186 007c 2368     		ldr	r3, [r4]
 187 007e 9847     		blx	r3
 188              		.loc 1 338 0
 189 0080 0434     		adds	r4, r4, #4
 190              	.L14:
 191              		.loc 1 336 0
 192 0082 114B     		ldr	r3, .L18+40
 193 0084 9C42     		cmp	r4, r3
 194 0086 F9D3     		bcc	.L15
 195              	.LBE6:
 196              		.loc 1 344 0
 197 0088 FFF7FEFF 		bl	main
 198              	.LBB7:
 199              		.loc 1 349 0
 200 008c 0F4C     		ldr	r4, .L18+44
 201              		.loc 1 350 0
 202 008e 02E0     		b	.L16
 203              	.L17:
 204              		.loc 1 351 0
 205 0090 2368     		ldr	r3, [r4]
 206 0092 9847     		blx	r3
 207              		.loc 1 352 0
 208 0094 0434     		adds	r4, r4, #4
 209              	.L16:
 210              		.loc 1 350 0
 211 0096 0E4B     		ldr	r3, .L18+48
 212 0098 9C42     		cmp	r4, r3
 213 009a F9D3     		bcc	.L17
 214              	.LBE7:
 215              		.loc 1 358 0
 216 009c FFF7FEFF 		bl	_default_exit
 217              		.loc 1 359 0
 218              	.L19:
 219              		.align	2
 220              	.L18:
 221 00a0 00000000 		.word	__process_stack_end__
 222 00a4 00000000 		.word	__main_stack_base__
 223 00a8 00000000 		.word	__main_stack_end__
 224 00ac 00000000 		.word	__process_stack_base__
 225 00b0 00000000 		.word	_textdata
 226 00b4 00000000 		.word	_data
 227 00b8 00000000 		.word	_edata
 228 00bc 00000000 		.word	_bss_start
ARM GAS  /tmp/ccWQqAd3.s 			page 5


 229 00c0 00000000 		.word	_bss_end
 230 00c4 00000000 		.word	__init_array_start
 231 00c8 00000000 		.word	__init_array_end
 232 00cc 00000000 		.word	__fini_array_start
 233 00d0 00000000 		.word	__fini_array_end
 234              		.cfi_endproc
 235              	.LFE3:
 236              		.size	ResetHandler, .-ResetHandler
 237              	.Letext0:
 238              		.file 2 "/opt/R2P/tools/gcc-arm-none-eabi-4_9-2014q4/arm-none-eabi/include/machine/_default_types.
 239              		.file 3 "/opt/R2P/tools/gcc-arm-none-eabi-4_9-2014q4/arm-none-eabi/include/stdint.h"
 240              		.section	.debug_info,"",%progbits
 241              	.Ldebug_info0:
 242 0000 83020000 		.4byte	0x283
 243 0004 0400     		.2byte	0x4
 244 0006 00000000 		.4byte	.Ldebug_abbrev0
 245 000a 04       		.byte	0x4
 246 000b 01       		.uleb128 0x1
 247 000c E4000000 		.4byte	.LASF31
 248 0010 01       		.byte	0x1
 249 0011 91010000 		.4byte	.LASF32
 250 0015 00000000 		.4byte	.Ltext0
 251 0019 D4000000 		.4byte	.Letext0-.Ltext0
 252 001d 00000000 		.4byte	.Ldebug_line0
 253 0021 02       		.uleb128 0x2
 254 0022 01       		.byte	0x1
 255 0023 06       		.byte	0x6
 256 0024 3A020000 		.4byte	.LASF0
 257 0028 03       		.uleb128 0x3
 258 0029 0B000000 		.4byte	.LASF5
 259 002d 02       		.byte	0x2
 260 002e 1D       		.byte	0x1d
 261 002f 33000000 		.4byte	0x33
 262 0033 02       		.uleb128 0x2
 263 0034 01       		.byte	0x1
 264 0035 08       		.byte	0x8
 265 0036 6B000000 		.4byte	.LASF1
 266 003a 02       		.uleb128 0x2
 267 003b 02       		.byte	0x2
 268 003c 05       		.byte	0x5
 269 003d 10020000 		.4byte	.LASF2
 270 0041 02       		.uleb128 0x2
 271 0042 02       		.byte	0x2
 272 0043 07       		.byte	0x7
 273 0044 A4000000 		.4byte	.LASF3
 274 0048 02       		.uleb128 0x2
 275 0049 04       		.byte	0x4
 276 004a 05       		.byte	0x5
 277 004b 2B020000 		.4byte	.LASF4
 278 004f 03       		.uleb128 0x3
 279 0050 79010000 		.4byte	.LASF6
 280 0054 02       		.byte	0x2
 281 0055 41       		.byte	0x41
 282 0056 5A000000 		.4byte	0x5a
 283 005a 02       		.uleb128 0x2
 284 005b 04       		.byte	0x4
 285 005c 07       		.byte	0x7
ARM GAS  /tmp/ccWQqAd3.s 			page 6


 286 005d 85000000 		.4byte	.LASF7
 287 0061 02       		.uleb128 0x2
 288 0062 08       		.byte	0x8
 289 0063 05       		.byte	0x5
 290 0064 E7010000 		.4byte	.LASF8
 291 0068 02       		.uleb128 0x2
 292 0069 08       		.byte	0x8
 293 006a 07       		.byte	0x7
 294 006b 54000000 		.4byte	.LASF9
 295 006f 04       		.uleb128 0x4
 296 0070 04       		.byte	0x4
 297 0071 05       		.byte	0x5
 298 0072 696E7400 		.ascii	"int\000"
 299 0076 02       		.uleb128 0x2
 300 0077 04       		.byte	0x4
 301 0078 07       		.byte	0x7
 302 0079 84010000 		.4byte	.LASF10
 303 007d 03       		.uleb128 0x3
 304 007e C8010000 		.4byte	.LASF11
 305 0082 03       		.byte	0x3
 306 0083 15       		.byte	0x15
 307 0084 28000000 		.4byte	0x28
 308 0088 03       		.uleb128 0x3
 309 0089 22020000 		.4byte	.LASF12
 310 008d 03       		.byte	0x3
 311 008e 2D       		.byte	0x2d
 312 008f 4F000000 		.4byte	0x4f
 313 0093 03       		.uleb128 0x3
 314 0094 1A020000 		.4byte	.LASF13
 315 0098 01       		.byte	0x1
 316 0099 34       		.byte	0x34
 317 009a 9E000000 		.4byte	0x9e
 318 009e 05       		.uleb128 0x5
 319 009f 04       		.byte	0x4
 320 00a0 A4000000 		.4byte	0xa4
 321 00a4 06       		.uleb128 0x6
 322 00a5 03       		.uleb128 0x3
 323 00a6 3D000000 		.4byte	.LASF14
 324 00aa 01       		.byte	0x1
 325 00ab 35       		.byte	0x35
 326 00ac B0000000 		.4byte	0xb0
 327 00b0 05       		.uleb128 0x5
 328 00b1 04       		.byte	0x4
 329 00b2 93000000 		.4byte	0x93
 330 00b6 07       		.uleb128 0x7
 331 00b7 DA010000 		.4byte	.LASF15
 332 00bb 01       		.byte	0x1
 333 00bc EA       		.byte	0xea
 334 00bd 00000000 		.4byte	.LFB0
 335 00c1 02000000 		.4byte	.LFE0-.LFB0
 336 00c5 01       		.uleb128 0x1
 337 00c6 9C       		.byte	0x9c
 338 00c7 07       		.uleb128 0x7
 339 00c8 79000000 		.4byte	.LASF16
 340 00cc 01       		.byte	0x1
 341 00cd F6       		.byte	0xf6
 342 00ce 04000000 		.4byte	.LFB1
ARM GAS  /tmp/ccWQqAd3.s 			page 7


 343 00d2 02000000 		.4byte	.LFE1-.LFB1
 344 00d6 01       		.uleb128 0x1
 345 00d7 9C       		.byte	0x9c
 346 00d8 08       		.uleb128 0x8
 347 00d9 46000000 		.4byte	.LASF17
 348 00dd 01       		.byte	0x1
 349 00de 0101     		.2byte	0x101
 350 00e0 08000000 		.4byte	.LFB2
 351 00e4 02000000 		.4byte	.LFE2-.LFB2
 352 00e8 01       		.uleb128 0x1
 353 00e9 9C       		.byte	0x9c
 354 00ea 09       		.uleb128 0x9
 355 00eb 97000000 		.4byte	.LASF33
 356 00ef 01       		.byte	0x1
 357 00f0 0C01     		.2byte	0x10c
 358 00f2 0C000000 		.4byte	.LFB3
 359 00f6 C8000000 		.4byte	.LFE3-.LFB3
 360 00fa 01       		.uleb128 0x1
 361 00fb 9C       		.byte	0x9c
 362 00fc F1010000 		.4byte	0x1f1
 363 0100 0A       		.uleb128 0xa
 364 0101 70737000 		.ascii	"psp\000"
 365 0105 01       		.byte	0x1
 366 0106 0D01     		.2byte	0x10d
 367 0108 88000000 		.4byte	0x88
 368 010c 01       		.uleb128 0x1
 369 010d 54       		.byte	0x54
 370 010e 0A       		.uleb128 0xa
 371 010f 72656700 		.ascii	"reg\000"
 372 0113 01       		.byte	0x1
 373 0114 0D01     		.2byte	0x10d
 374 0116 88000000 		.4byte	0x88
 375 011a 01       		.uleb128 0x1
 376 011b 54       		.byte	0x54
 377 011c 0B       		.uleb128 0xb
 378 011d 1E000000 		.4byte	.LBB2
 379 0121 14000000 		.4byte	.LBE2-.LBB2
 380 0125 44010000 		.4byte	0x144
 381 0129 0A       		.uleb128 0xa
 382 012a 703100   		.ascii	"p1\000"
 383 012d 01       		.byte	0x1
 384 012e 2D01     		.2byte	0x12d
 385 0130 F1010000 		.4byte	0x1f1
 386 0134 01       		.uleb128 0x1
 387 0135 54       		.byte	0x54
 388 0136 0A       		.uleb128 0xa
 389 0137 703200   		.ascii	"p2\000"
 390 013a 01       		.byte	0x1
 391 013b 2D01     		.2byte	0x12d
 392 013d F1010000 		.4byte	0x1f1
 393 0141 01       		.uleb128 0x1
 394 0142 55       		.byte	0x55
 395 0143 00       		.byte	0
 396 0144 0B       		.uleb128 0xb
 397 0145 32000000 		.4byte	.LBB3
 398 0149 14000000 		.4byte	.LBE3-.LBB3
 399 014d 6C010000 		.4byte	0x16c
ARM GAS  /tmp/ccWQqAd3.s 			page 8


 400 0151 0A       		.uleb128 0xa
 401 0152 703100   		.ascii	"p1\000"
 402 0155 01       		.byte	0x1
 403 0156 3001     		.2byte	0x130
 404 0158 F1010000 		.4byte	0x1f1
 405 015c 01       		.uleb128 0x1
 406 015d 54       		.byte	0x54
 407 015e 0A       		.uleb128 0xa
 408 015f 703200   		.ascii	"p2\000"
 409 0162 01       		.byte	0x1
 410 0163 3001     		.2byte	0x130
 411 0165 F1010000 		.4byte	0x1f1
 412 0169 01       		.uleb128 0x1
 413 016a 55       		.byte	0x55
 414 016b 00       		.byte	0
 415 016c 0B       		.uleb128 0xb
 416 016d 4A000000 		.4byte	.LBB4
 417 0171 18000000 		.4byte	.LBE4-.LBB4
 418 0175 94010000 		.4byte	0x194
 419 0179 0A       		.uleb128 0xa
 420 017a 747000   		.ascii	"tp\000"
 421 017d 01       		.byte	0x1
 422 017e 3B01     		.2byte	0x13b
 423 0180 F1010000 		.4byte	0x1f1
 424 0184 01       		.uleb128 0x1
 425 0185 55       		.byte	0x55
 426 0186 0A       		.uleb128 0xa
 427 0187 647000   		.ascii	"dp\000"
 428 018a 01       		.byte	0x1
 429 018b 3B01     		.2byte	0x13b
 430 018d F1010000 		.4byte	0x1f1
 431 0191 01       		.uleb128 0x1
 432 0192 54       		.byte	0x54
 433 0193 00       		.byte	0
 434 0194 0B       		.uleb128 0xb
 435 0195 62000000 		.4byte	.LBB5
 436 0199 12000000 		.4byte	.LBE5-.LBB5
 437 019d BC010000 		.4byte	0x1bc
 438 01a1 0A       		.uleb128 0xa
 439 01a2 703100   		.ascii	"p1\000"
 440 01a5 01       		.byte	0x1
 441 01a6 4601     		.2byte	0x146
 442 01a8 F1010000 		.4byte	0x1f1
 443 01ac 01       		.uleb128 0x1
 444 01ad 54       		.byte	0x54
 445 01ae 0A       		.uleb128 0xa
 446 01af 703200   		.ascii	"p2\000"
 447 01b2 01       		.byte	0x1
 448 01b3 4601     		.2byte	0x146
 449 01b5 F1010000 		.4byte	0x1f1
 450 01b9 01       		.uleb128 0x1
 451 01ba 55       		.byte	0x55
 452 01bb 00       		.byte	0
 453 01bc 0B       		.uleb128 0xb
 454 01bd 78000000 		.4byte	.LBB6
 455 01c1 10000000 		.4byte	.LBE6-.LBB6
 456 01c5 D8010000 		.4byte	0x1d8
ARM GAS  /tmp/ccWQqAd3.s 			page 9


 457 01c9 0A       		.uleb128 0xa
 458 01ca 66707000 		.ascii	"fpp\000"
 459 01ce 01       		.byte	0x1
 460 01cf 4F01     		.2byte	0x14f
 461 01d1 A5000000 		.4byte	0xa5
 462 01d5 01       		.uleb128 0x1
 463 01d6 54       		.byte	0x54
 464 01d7 00       		.byte	0
 465 01d8 0C       		.uleb128 0xc
 466 01d9 8C000000 		.4byte	.LBB7
 467 01dd 10000000 		.4byte	.LBE7-.LBB7
 468 01e1 0A       		.uleb128 0xa
 469 01e2 66707000 		.ascii	"fpp\000"
 470 01e6 01       		.byte	0x1
 471 01e7 5D01     		.2byte	0x15d
 472 01e9 A5000000 		.4byte	0xa5
 473 01ed 01       		.uleb128 0x1
 474 01ee 54       		.byte	0x54
 475 01ef 00       		.byte	0
 476 01f0 00       		.byte	0
 477 01f1 05       		.uleb128 0x5
 478 01f2 04       		.byte	0x4
 479 01f3 88000000 		.4byte	0x88
 480 01f7 0D       		.uleb128 0xd
 481 01f8 FC010000 		.4byte	.LASF18
 482 01fc 01       		.byte	0x1
 483 01fd 8B       		.byte	0x8b
 484 01fe 88000000 		.4byte	0x88
 485 0202 0D       		.uleb128 0xd
 486 0203 6F020000 		.4byte	.LASF19
 487 0207 01       		.byte	0x1
 488 0208 93       		.byte	0x93
 489 0209 88000000 		.4byte	0x88
 490 020d 0D       		.uleb128 0xd
 491 020e 26000000 		.4byte	.LASF20
 492 0212 01       		.byte	0x1
 493 0213 9A       		.byte	0x9a
 494 0214 88000000 		.4byte	0x88
 495 0218 0D       		.uleb128 0xd
 496 0219 46020000 		.4byte	.LASF21
 497 021d 01       		.byte	0x1
 498 021e A1       		.byte	0xa1
 499 021f 88000000 		.4byte	0x88
 500 0223 0D       		.uleb128 0xd
 501 0224 D0010000 		.4byte	.LASF22
 502 0228 01       		.byte	0x1
 503 0229 A7       		.byte	0xa7
 504 022a 88000000 		.4byte	0x88
 505 022e 0D       		.uleb128 0xd
 506 022f 34020000 		.4byte	.LASF23
 507 0233 01       		.byte	0x1
 508 0234 AD       		.byte	0xad
 509 0235 88000000 		.4byte	0x88
 510 0239 0D       		.uleb128 0xd
 511 023a F5010000 		.4byte	.LASF24
 512 023e 01       		.byte	0x1
 513 023f B3       		.byte	0xb3
ARM GAS  /tmp/ccWQqAd3.s 			page 10


 514 0240 88000000 		.4byte	0x88
 515 0244 0D       		.uleb128 0xd
 516 0245 00000000 		.4byte	.LASF25
 517 0249 01       		.byte	0x1
 518 024a B9       		.byte	0xb9
 519 024b 88000000 		.4byte	0x88
 520 024f 0D       		.uleb128 0xd
 521 0250 CA000000 		.4byte	.LASF26
 522 0254 01       		.byte	0x1
 523 0255 BF       		.byte	0xbf
 524 0256 88000000 		.4byte	0x88
 525 025a 0D       		.uleb128 0xd
 526 025b 5C020000 		.4byte	.LASF27
 527 025f 01       		.byte	0x1
 528 0260 C5       		.byte	0xc5
 529 0261 93000000 		.4byte	0x93
 530 0265 0D       		.uleb128 0xd
 531 0266 D3000000 		.4byte	.LASF28
 532 026a 01       		.byte	0x1
 533 026b CB       		.byte	0xcb
 534 026c 93000000 		.4byte	0x93
 535 0270 0D       		.uleb128 0xd
 536 0271 B7000000 		.4byte	.LASF29
 537 0275 01       		.byte	0x1
 538 0276 D1       		.byte	0xd1
 539 0277 93000000 		.4byte	0x93
 540 027b 0D       		.uleb128 0xd
 541 027c 15000000 		.4byte	.LASF30
 542 0280 01       		.byte	0x1
 543 0281 D7       		.byte	0xd7
 544 0282 93000000 		.4byte	0x93
 545 0286 00       		.byte	0
 546              		.section	.debug_abbrev,"",%progbits
 547              	.Ldebug_abbrev0:
 548 0000 01       		.uleb128 0x1
 549 0001 11       		.uleb128 0x11
 550 0002 01       		.byte	0x1
 551 0003 25       		.uleb128 0x25
 552 0004 0E       		.uleb128 0xe
 553 0005 13       		.uleb128 0x13
 554 0006 0B       		.uleb128 0xb
 555 0007 03       		.uleb128 0x3
 556 0008 0E       		.uleb128 0xe
 557 0009 11       		.uleb128 0x11
 558 000a 01       		.uleb128 0x1
 559 000b 12       		.uleb128 0x12
 560 000c 06       		.uleb128 0x6
 561 000d 10       		.uleb128 0x10
 562 000e 17       		.uleb128 0x17
 563 000f 00       		.byte	0
 564 0010 00       		.byte	0
 565 0011 02       		.uleb128 0x2
 566 0012 24       		.uleb128 0x24
 567 0013 00       		.byte	0
 568 0014 0B       		.uleb128 0xb
 569 0015 0B       		.uleb128 0xb
 570 0016 3E       		.uleb128 0x3e
ARM GAS  /tmp/ccWQqAd3.s 			page 11


 571 0017 0B       		.uleb128 0xb
 572 0018 03       		.uleb128 0x3
 573 0019 0E       		.uleb128 0xe
 574 001a 00       		.byte	0
 575 001b 00       		.byte	0
 576 001c 03       		.uleb128 0x3
 577 001d 16       		.uleb128 0x16
 578 001e 00       		.byte	0
 579 001f 03       		.uleb128 0x3
 580 0020 0E       		.uleb128 0xe
 581 0021 3A       		.uleb128 0x3a
 582 0022 0B       		.uleb128 0xb
 583 0023 3B       		.uleb128 0x3b
 584 0024 0B       		.uleb128 0xb
 585 0025 49       		.uleb128 0x49
 586 0026 13       		.uleb128 0x13
 587 0027 00       		.byte	0
 588 0028 00       		.byte	0
 589 0029 04       		.uleb128 0x4
 590 002a 24       		.uleb128 0x24
 591 002b 00       		.byte	0
 592 002c 0B       		.uleb128 0xb
 593 002d 0B       		.uleb128 0xb
 594 002e 3E       		.uleb128 0x3e
 595 002f 0B       		.uleb128 0xb
 596 0030 03       		.uleb128 0x3
 597 0031 08       		.uleb128 0x8
 598 0032 00       		.byte	0
 599 0033 00       		.byte	0
 600 0034 05       		.uleb128 0x5
 601 0035 0F       		.uleb128 0xf
 602 0036 00       		.byte	0
 603 0037 0B       		.uleb128 0xb
 604 0038 0B       		.uleb128 0xb
 605 0039 49       		.uleb128 0x49
 606 003a 13       		.uleb128 0x13
 607 003b 00       		.byte	0
 608 003c 00       		.byte	0
 609 003d 06       		.uleb128 0x6
 610 003e 15       		.uleb128 0x15
 611 003f 00       		.byte	0
 612 0040 27       		.uleb128 0x27
 613 0041 19       		.uleb128 0x19
 614 0042 00       		.byte	0
 615 0043 00       		.byte	0
 616 0044 07       		.uleb128 0x7
 617 0045 2E       		.uleb128 0x2e
 618 0046 00       		.byte	0
 619 0047 3F       		.uleb128 0x3f
 620 0048 19       		.uleb128 0x19
 621 0049 03       		.uleb128 0x3
 622 004a 0E       		.uleb128 0xe
 623 004b 3A       		.uleb128 0x3a
 624 004c 0B       		.uleb128 0xb
 625 004d 3B       		.uleb128 0x3b
 626 004e 0B       		.uleb128 0xb
 627 004f 27       		.uleb128 0x27
ARM GAS  /tmp/ccWQqAd3.s 			page 12


 628 0050 19       		.uleb128 0x19
 629 0051 11       		.uleb128 0x11
 630 0052 01       		.uleb128 0x1
 631 0053 12       		.uleb128 0x12
 632 0054 06       		.uleb128 0x6
 633 0055 40       		.uleb128 0x40
 634 0056 18       		.uleb128 0x18
 635 0057 9742     		.uleb128 0x2117
 636 0059 19       		.uleb128 0x19
 637 005a 00       		.byte	0
 638 005b 00       		.byte	0
 639 005c 08       		.uleb128 0x8
 640 005d 2E       		.uleb128 0x2e
 641 005e 00       		.byte	0
 642 005f 3F       		.uleb128 0x3f
 643 0060 19       		.uleb128 0x19
 644 0061 03       		.uleb128 0x3
 645 0062 0E       		.uleb128 0xe
 646 0063 3A       		.uleb128 0x3a
 647 0064 0B       		.uleb128 0xb
 648 0065 3B       		.uleb128 0x3b
 649 0066 05       		.uleb128 0x5
 650 0067 27       		.uleb128 0x27
 651 0068 19       		.uleb128 0x19
 652 0069 11       		.uleb128 0x11
 653 006a 01       		.uleb128 0x1
 654 006b 12       		.uleb128 0x12
 655 006c 06       		.uleb128 0x6
 656 006d 40       		.uleb128 0x40
 657 006e 18       		.uleb128 0x18
 658 006f 9742     		.uleb128 0x2117
 659 0071 19       		.uleb128 0x19
 660 0072 00       		.byte	0
 661 0073 00       		.byte	0
 662 0074 09       		.uleb128 0x9
 663 0075 2E       		.uleb128 0x2e
 664 0076 01       		.byte	0x1
 665 0077 3F       		.uleb128 0x3f
 666 0078 19       		.uleb128 0x19
 667 0079 03       		.uleb128 0x3
 668 007a 0E       		.uleb128 0xe
 669 007b 3A       		.uleb128 0x3a
 670 007c 0B       		.uleb128 0xb
 671 007d 3B       		.uleb128 0x3b
 672 007e 05       		.uleb128 0x5
 673 007f 27       		.uleb128 0x27
 674 0080 19       		.uleb128 0x19
 675 0081 11       		.uleb128 0x11
 676 0082 01       		.uleb128 0x1
 677 0083 12       		.uleb128 0x12
 678 0084 06       		.uleb128 0x6
 679 0085 40       		.uleb128 0x40
 680 0086 18       		.uleb128 0x18
 681 0087 9642     		.uleb128 0x2116
 682 0089 19       		.uleb128 0x19
 683 008a 01       		.uleb128 0x1
 684 008b 13       		.uleb128 0x13
ARM GAS  /tmp/ccWQqAd3.s 			page 13


 685 008c 00       		.byte	0
 686 008d 00       		.byte	0
 687 008e 0A       		.uleb128 0xa
 688 008f 34       		.uleb128 0x34
 689 0090 00       		.byte	0
 690 0091 03       		.uleb128 0x3
 691 0092 08       		.uleb128 0x8
 692 0093 3A       		.uleb128 0x3a
 693 0094 0B       		.uleb128 0xb
 694 0095 3B       		.uleb128 0x3b
 695 0096 05       		.uleb128 0x5
 696 0097 49       		.uleb128 0x49
 697 0098 13       		.uleb128 0x13
 698 0099 02       		.uleb128 0x2
 699 009a 18       		.uleb128 0x18
 700 009b 00       		.byte	0
 701 009c 00       		.byte	0
 702 009d 0B       		.uleb128 0xb
 703 009e 0B       		.uleb128 0xb
 704 009f 01       		.byte	0x1
 705 00a0 11       		.uleb128 0x11
 706 00a1 01       		.uleb128 0x1
 707 00a2 12       		.uleb128 0x12
 708 00a3 06       		.uleb128 0x6
 709 00a4 01       		.uleb128 0x1
 710 00a5 13       		.uleb128 0x13
 711 00a6 00       		.byte	0
 712 00a7 00       		.byte	0
 713 00a8 0C       		.uleb128 0xc
 714 00a9 0B       		.uleb128 0xb
 715 00aa 01       		.byte	0x1
 716 00ab 11       		.uleb128 0x11
 717 00ac 01       		.uleb128 0x1
 718 00ad 12       		.uleb128 0x12
 719 00ae 06       		.uleb128 0x6
 720 00af 00       		.byte	0
 721 00b0 00       		.byte	0
 722 00b1 0D       		.uleb128 0xd
 723 00b2 34       		.uleb128 0x34
 724 00b3 00       		.byte	0
 725 00b4 03       		.uleb128 0x3
 726 00b5 0E       		.uleb128 0xe
 727 00b6 3A       		.uleb128 0x3a
 728 00b7 0B       		.uleb128 0xb
 729 00b8 3B       		.uleb128 0x3b
 730 00b9 0B       		.uleb128 0xb
 731 00ba 49       		.uleb128 0x49
 732 00bb 13       		.uleb128 0x13
 733 00bc 3F       		.uleb128 0x3f
 734 00bd 19       		.uleb128 0x19
 735 00be 3C       		.uleb128 0x3c
 736 00bf 19       		.uleb128 0x19
 737 00c0 00       		.byte	0
 738 00c1 00       		.byte	0
 739 00c2 00       		.byte	0
 740              		.section	.debug_aranges,"",%progbits
 741 0000 1C000000 		.4byte	0x1c
ARM GAS  /tmp/ccWQqAd3.s 			page 14


 742 0004 0200     		.2byte	0x2
 743 0006 00000000 		.4byte	.Ldebug_info0
 744 000a 04       		.byte	0x4
 745 000b 00       		.byte	0
 746 000c 0000     		.2byte	0
 747 000e 0000     		.2byte	0
 748 0010 00000000 		.4byte	.Ltext0
 749 0014 D4000000 		.4byte	.Letext0-.Ltext0
 750 0018 00000000 		.4byte	0
 751 001c 00000000 		.4byte	0
 752              		.section	.debug_line,"",%progbits
 753              	.Ldebug_line0:
 754 0000 61010000 		.section	.debug_str,"MS",%progbits,1
 754      0200F900 
 754      00000201 
 754      FB0E0D00 
 754      01010101 
 755              	.LASF25:
 756 0000 5F627373 		.ascii	"_bss_start\000"
 756      5F737461 
 756      727400
 757              	.LASF5:
 758 000b 5F5F7569 		.ascii	"__uint8_t\000"
 758      6E74385F 
 758      7400
 759              	.LASF30:
 760 0015 5F5F6669 		.ascii	"__fini_array_end\000"
 760      6E695F61 
 760      72726179 
 760      5F656E64 
 760      00
 761              	.LASF20:
 762 0026 5F5F7072 		.ascii	"__process_stack_base__\000"
 762      6F636573 
 762      735F7374 
 762      61636B5F 
 762      62617365 
 763              	.LASF14:
 764 003d 66756E63 		.ascii	"funcpp_t\000"
 764      70705F74 
 764      00
 765              	.LASF17:
 766 0046 5F646566 		.ascii	"_default_exit\000"
 766      61756C74 
 766      5F657869 
 766      7400
 767              	.LASF9:
 768 0054 6C6F6E67 		.ascii	"long long unsigned int\000"
 768      206C6F6E 
 768      6720756E 
 768      7369676E 
 768      65642069 
 769              	.LASF1:
 770 006b 756E7369 		.ascii	"unsigned char\000"
 770      676E6564 
 770      20636861 
 770      7200
ARM GAS  /tmp/ccWQqAd3.s 			page 15


 771              	.LASF16:
 772 0079 5F5F6C61 		.ascii	"__late_init\000"
 772      74655F69 
 772      6E697400 
 773              	.LASF7:
 774 0085 6C6F6E67 		.ascii	"long unsigned int\000"
 774      20756E73 
 774      69676E65 
 774      6420696E 
 774      7400
 775              	.LASF33:
 776 0097 52657365 		.ascii	"ResetHandler\000"
 776      7448616E 
 776      646C6572 
 776      00
 777              	.LASF3:
 778 00a4 73686F72 		.ascii	"short unsigned int\000"
 778      7420756E 
 778      7369676E 
 778      65642069 
 778      6E7400
 779              	.LASF29:
 780 00b7 5F5F6669 		.ascii	"__fini_array_start\000"
 780      6E695F61 
 780      72726179 
 780      5F737461 
 780      727400
 781              	.LASF26:
 782 00ca 5F627373 		.ascii	"_bss_end\000"
 782      5F656E64 
 782      00
 783              	.LASF28:
 784 00d3 5F5F696E 		.ascii	"__init_array_end\000"
 784      69745F61 
 784      72726179 
 784      5F656E64 
 784      00
 785              	.LASF31:
 786 00e4 474E5520 		.ascii	"GNU C 4.9.3 20141119 (release) [ARM/embedded-4_9-br"
 786      4320342E 
 786      392E3320 
 786      32303134 
 786      31313139 
 787 0117 616E6368 		.ascii	"anch revision 218278] -mcpu=cortex-m4 -mno-thumb-in"
 787      20726576 
 787      6973696F 
 787      6E203231 
 787      38323738 
 788 014a 74657277 		.ascii	"terwork -mthumb -ggdb -O0 -fomit-frame-pointer\000"
 788      6F726B20 
 788      2D6D7468 
 788      756D6220 
 788      2D676764 
 789              	.LASF6:
 790 0179 5F5F7569 		.ascii	"__uint32_t\000"
 790      6E743332 
 790      5F7400
ARM GAS  /tmp/ccWQqAd3.s 			page 16


 791              	.LASF10:
 792 0184 756E7369 		.ascii	"unsigned int\000"
 792      676E6564 
 792      20696E74 
 792      00
 793              	.LASF32:
 794 0191 2F6F7074 		.ascii	"/opt/R2P/core/ChibiOS_2.6.5/os/ports/GCC/ARMCMx/crt"
 794      2F523250 
 794      2F636F72 
 794      652F4368 
 794      6962694F 
 795 01c4 302E6300 		.ascii	"0.c\000"
 796              	.LASF11:
 797 01c8 75696E74 		.ascii	"uint8_t\000"
 797      385F7400 
 798              	.LASF22:
 799 01d0 5F746578 		.ascii	"_textdata\000"
 799      74646174 
 799      6100
 800              	.LASF15:
 801 01da 5F5F6561 		.ascii	"__early_init\000"
 801      726C795F 
 801      696E6974 
 801      00
 802              	.LASF8:
 803 01e7 6C6F6E67 		.ascii	"long long int\000"
 803      206C6F6E 
 803      6720696E 
 803      7400
 804              	.LASF24:
 805 01f5 5F656461 		.ascii	"_edata\000"
 805      746100
 806              	.LASF18:
 807 01fc 5F5F6D61 		.ascii	"__main_stack_base__\000"
 807      696E5F73 
 807      7461636B 
 807      5F626173 
 807      655F5F00 
 808              	.LASF2:
 809 0210 73686F72 		.ascii	"short int\000"
 809      7420696E 
 809      7400
 810              	.LASF13:
 811 021a 66756E63 		.ascii	"funcp_t\000"
 811      705F7400 
 812              	.LASF12:
 813 0222 75696E74 		.ascii	"uint32_t\000"
 813      33325F74 
 813      00
 814              	.LASF4:
 815 022b 6C6F6E67 		.ascii	"long int\000"
 815      20696E74 
 815      00
 816              	.LASF23:
 817 0234 5F646174 		.ascii	"_data\000"
 817      6100
 818              	.LASF0:
ARM GAS  /tmp/ccWQqAd3.s 			page 17


 819 023a 7369676E 		.ascii	"signed char\000"
 819      65642063 
 819      68617200 
 820              	.LASF21:
 821 0246 5F5F7072 		.ascii	"__process_stack_end__\000"
 821      6F636573 
 821      735F7374 
 821      61636B5F 
 821      656E645F 
 822              	.LASF27:
 823 025c 5F5F696E 		.ascii	"__init_array_start\000"
 823      69745F61 
 823      72726179 
 823      5F737461 
 823      727400
 824              	.LASF19:
 825 026f 5F5F6D61 		.ascii	"__main_stack_end__\000"
 825      696E5F73 
 825      7461636B 
 825      5F656E64 
 825      5F5F00
 826              		.ident	"GCC: (GNU Tools for ARM Embedded Processors) 4.9.3 20141119 (release) [ARM/embedded-4_9-br
ARM GAS  /tmp/ccWQqAd3.s 			page 18


DEFINED SYMBOLS
                            *ABS*:00000000 crt0.c
     /tmp/ccWQqAd3.s:18     .text:00000000 $t
     /tmp/ccWQqAd3.s:23     .text:00000000 __early_init
     /tmp/ccWQqAd3.s:41     .text:00000004 __late_init
     /tmp/ccWQqAd3.s:58     .text:00000008 _default_exit
     /tmp/ccWQqAd3.s:76     .text:0000000c ResetHandler
     /tmp/ccWQqAd3.s:221    .text:000000a0 $d
                     .debug_frame:00000010 $d

UNDEFINED SYMBOLS
main
__process_stack_end__
__main_stack_base__
__main_stack_end__
__process_stack_base__
_textdata
_data
_edata
_bss_start
_bss_end
__init_array_start
__init_array_end
__fini_array_start
__fini_array_end
