ARM GAS  /tmp/ccVvp2Ur.s 			page 1


   1              		.syntax unified
   2              		.cpu cortex-m4
   3              		.fpu softvfp
   4              		.eabi_attribute 20, 1
   5              		.eabi_attribute 21, 1
   6              		.eabi_attribute 23, 3
   7              		.eabi_attribute 24, 1
   8              		.eabi_attribute 25, 1
   9              		.eabi_attribute 26, 1
  10              		.eabi_attribute 30, 6
  11              		.eabi_attribute 34, 1
  12              		.eabi_attribute 18, 4
  13              		.thumb
  14              		.file	"DebugTransport.cpp"
  15              		.text
  16              	.Ltext0:
  17              		.cfi_sections	.debug_frame
  18              		.section	.text._ZN3r2p10UncopyableC2Ev,"axG",%progbits,_ZN3r2p10UncopyableC5Ev,comdat
  19              		.align	2
  20              		.weak	_ZN3r2p10UncopyableC2Ev
  21              		.thumb
  22              		.thumb_func
  23              		.type	_ZN3r2p10UncopyableC2Ev, %function
  24              	_ZN3r2p10UncopyableC2Ev:
  25              	.LFB6:
  26              		.file 1 "/opt/R2P/core/Middleware/include/r2p/Uncopyable.hpp"
  27              		.loc 1 20 0
  28              		.cfi_startproc
  29              		@ args = 0, pretend = 0, frame = 8
  30              		@ frame_needed = 0, uses_anonymous_args = 0
  31              		@ link register save eliminated.
  32 0000 82B0     		sub	sp, sp, #8
  33              		.cfi_def_cfa_offset 8
  34 0002 0190     		str	r0, [sp, #4]
  35              		.loc 1 20 0
  36 0004 019B     		ldr	r3, [sp, #4]
  37 0006 1846     		mov	r0, r3
  38 0008 02B0     		add	sp, sp, #8
  39              		.cfi_def_cfa_offset 0
  40              		@ sp needed
  41 000a 7047     		bx	lr
  42              		.cfi_endproc
  43              	.LFE6:
  44              		.size	_ZN3r2p10UncopyableC2Ev, .-_ZN3r2p10UncopyableC2Ev
  45              		.weak	_ZN3r2p10UncopyableC1Ev
  46              		.thumb_set _ZN3r2p10UncopyableC1Ev,_ZN3r2p10UncopyableC2Ev
  47              		.section	.text._ZN3r2p10UncopyableD2Ev,"axG",%progbits,_ZN3r2p10UncopyableD5Ev,comdat
  48              		.align	2
  49              		.weak	_ZN3r2p10UncopyableD2Ev
  50              		.thumb
  51              		.thumb_func
  52              		.type	_ZN3r2p10UncopyableD2Ev, %function
  53              	_ZN3r2p10UncopyableD2Ev:
  54              	.LFB9:
  55              		.loc 1 21 0
  56              		.cfi_startproc
  57              		@ args = 0, pretend = 0, frame = 8
ARM GAS  /tmp/ccVvp2Ur.s 			page 2


  58              		@ frame_needed = 0, uses_anonymous_args = 0
  59              		@ link register save eliminated.
  60 0000 82B0     		sub	sp, sp, #8
  61              		.cfi_def_cfa_offset 8
  62 0002 0190     		str	r0, [sp, #4]
  63              		.loc 1 21 0
  64 0004 019B     		ldr	r3, [sp, #4]
  65 0006 1846     		mov	r0, r3
  66 0008 02B0     		add	sp, sp, #8
  67              		.cfi_def_cfa_offset 0
  68              		@ sp needed
  69 000a 7047     		bx	lr
  70              		.cfi_endproc
  71              	.LFE9:
  72              		.size	_ZN3r2p10UncopyableD2Ev, .-_ZN3r2p10UncopyableD2Ev
  73              		.weak	_ZN3r2p10UncopyableD1Ev
  74              		.thumb_set _ZN3r2p10UncopyableD1Ev,_ZN3r2p10UncopyableD2Ev
  75              		.section	.text._ZN3r2p8SysLock_7acquireEv,"axG",%progbits,_ZN3r2p8SysLock_7acquireEv,comdat
  76              		.align	2
  77              		.weak	_ZN3r2p8SysLock_7acquireEv
  78              		.thumb
  79              		.thumb_func
  80              		.type	_ZN3r2p8SysLock_7acquireEv, %function
  81              	_ZN3r2p8SysLock_7acquireEv:
  82              	.LFB18:
  83              		.file 2 "/opt/R2P/core/Middleware/port/chibios/include/r2p/impl/SysLock_.hpp"
  84              		.loc 2 20 0
  85              		.cfi_startproc
  86              		@ args = 0, pretend = 0, frame = 0
  87              		@ frame_needed = 0, uses_anonymous_args = 0
  88 0000 08B5     		push	{r3, lr}
  89              		.cfi_def_cfa_offset 8
  90              		.cfi_offset 3, -8
  91              		.cfi_offset 14, -4
  92              	.LBB8:
  93              	.LBB9:
  94              	.LBB10:
  95              		.loc 2 22 0
  96 0002 2023     		movs	r3, #32
  97              	@ 22 "/opt/R2P/core/Middleware/port/chibios/include/r2p/impl/SysLock_.hpp" 1
  98 0004 83F31188 		msr     BASEPRI, r3
  99              	@ 0 "" 2
 100              		.thumb
 101              	.LBE10:
 102 0008 FFF7FEFF 		bl	dbg_check_lock
 103              	.LBE9:
 104              	.LBE8:
 105              		.loc 2 23 0
 106 000c 08BD     		pop	{r3, pc}
 107              		.cfi_endproc
 108              	.LFE18:
 109              		.size	_ZN3r2p8SysLock_7acquireEv, .-_ZN3r2p8SysLock_7acquireEv
 110 000e 00BF     		.section	.text._ZN3r2p8SysLock_7releaseEv,"axG",%progbits,_ZN3r2p8SysLock_7releaseEv,comdat
 111              		.align	2
 112              		.weak	_ZN3r2p8SysLock_7releaseEv
 113              		.thumb
 114              		.thumb_func
ARM GAS  /tmp/ccVvp2Ur.s 			page 3


 115              		.type	_ZN3r2p8SysLock_7releaseEv, %function
 116              	_ZN3r2p8SysLock_7releaseEv:
 117              	.LFB19:
 118              		.loc 2 27 0
 119              		.cfi_startproc
 120              		@ args = 0, pretend = 0, frame = 0
 121              		@ frame_needed = 0, uses_anonymous_args = 0
 122 0000 08B5     		push	{r3, lr}
 123              		.cfi_def_cfa_offset 8
 124              		.cfi_offset 3, -8
 125              		.cfi_offset 14, -4
 126              	.LBB11:
 127              	.LBB12:
 128              		.loc 2 29 0
 129 0002 FFF7FEFF 		bl	dbg_check_unlock
 130              	.LBB13:
 131 0006 0023     		movs	r3, #0
 132              	@ 29 "/opt/R2P/core/Middleware/port/chibios/include/r2p/impl/SysLock_.hpp" 1
 133 0008 83F31188 		msr     BASEPRI, r3
 134              	@ 0 "" 2
 135              		.thumb
 136              	.LBE13:
 137              	.LBE12:
 138              	.LBE11:
 139              		.loc 2 30 0
 140 000c 08BD     		pop	{r3, pc}
 141              		.cfi_endproc
 142              	.LFE19:
 143              		.size	_ZN3r2p8SysLock_7releaseEv, .-_ZN3r2p8SysLock_7releaseEv
 144 000e 00BF     		.section	.text._ZN3r2p7SysLock7acquireEv,"axG",%progbits,_ZN3r2p7SysLock7acquireEv,comdat
 145              		.align	2
 146              		.weak	_ZN3r2p7SysLock7acquireEv
 147              		.thumb
 148              		.thumb_func
 149              		.type	_ZN3r2p7SysLock7acquireEv, %function
 150              	_ZN3r2p7SysLock7acquireEv:
 151              	.LFB26:
 152              		.file 3 "/opt/R2P/core/Middleware/include/r2p/SysLock.hpp"
 153              		.loc 3 27 0
 154              		.cfi_startproc
 155              		@ args = 0, pretend = 0, frame = 0
 156              		@ frame_needed = 0, uses_anonymous_args = 0
 157 0000 08B5     		push	{r3, lr}
 158              		.cfi_def_cfa_offset 8
 159              		.cfi_offset 3, -8
 160              		.cfi_offset 14, -4
 161              		.loc 3 29 0
 162 0002 FFF7FEFF 		bl	_ZN3r2p8SysLock_7acquireEv
 163              		.loc 3 30 0
 164 0006 08BD     		pop	{r3, pc}
 165              		.cfi_endproc
 166              	.LFE26:
 167              		.size	_ZN3r2p7SysLock7acquireEv, .-_ZN3r2p7SysLock7acquireEv
 168              		.section	.text._ZN3r2p7SysLock7releaseEv,"axG",%progbits,_ZN3r2p7SysLock7releaseEv,comdat
 169              		.align	2
 170              		.weak	_ZN3r2p7SysLock7releaseEv
 171              		.thumb
ARM GAS  /tmp/ccVvp2Ur.s 			page 4


 172              		.thumb_func
 173              		.type	_ZN3r2p7SysLock7releaseEv, %function
 174              	_ZN3r2p7SysLock7releaseEv:
 175              	.LFB27:
 176              		.loc 3 34 0
 177              		.cfi_startproc
 178              		@ args = 0, pretend = 0, frame = 0
 179              		@ frame_needed = 0, uses_anonymous_args = 0
 180 0000 08B5     		push	{r3, lr}
 181              		.cfi_def_cfa_offset 8
 182              		.cfi_offset 3, -8
 183              		.cfi_offset 14, -4
 184              		.loc 3 36 0
 185 0002 FFF7FEFF 		bl	_ZN3r2p8SysLock_7releaseEv
 186              		.loc 3 37 0
 187 0006 08BD     		pop	{r3, pc}
 188              		.cfi_endproc
 189              	.LFE27:
 190              		.size	_ZN3r2p7SysLock7releaseEv, .-_ZN3r2p7SysLock7releaseEv
 191              		.section	.text._ZN3r2p4TimeC2Ev,"axG",%progbits,_ZN3r2p4TimeC5Ev,comdat
 192              		.align	2
 193              		.weak	_ZN3r2p4TimeC2Ev
 194              		.thumb
 195              		.thumb_func
 196              		.type	_ZN3r2p4TimeC2Ev, %function
 197              	_ZN3r2p4TimeC2Ev:
 198              	.LFB144:
 199              		.file 4 "/opt/R2P/core/Middleware/include/r2p/Time.hpp"
 200              		.loc 4 155 0
 201              		.cfi_startproc
 202              		@ args = 0, pretend = 0, frame = 8
 203              		@ frame_needed = 0, uses_anonymous_args = 0
 204              		@ link register save eliminated.
 205 0000 82B0     		sub	sp, sp, #8
 206              		.cfi_def_cfa_offset 8
 207 0002 0190     		str	r0, [sp, #4]
 208              	.LBB14:
 209              		.loc 4 155 0
 210 0004 019B     		ldr	r3, [sp, #4]
 211 0006 0022     		movs	r2, #0
 212 0008 1A60     		str	r2, [r3]
 213              	.LBE14:
 214 000a 019B     		ldr	r3, [sp, #4]
 215 000c 1846     		mov	r0, r3
 216 000e 02B0     		add	sp, sp, #8
 217              		.cfi_def_cfa_offset 0
 218              		@ sp needed
 219 0010 7047     		bx	lr
 220              		.cfi_endproc
 221              	.LFE144:
 222              		.size	_ZN3r2p4TimeC2Ev, .-_ZN3r2p4TimeC2Ev
 223              		.weak	_ZN3r2p4TimeC1Ev
 224              		.thumb_set _ZN3r2p4TimeC1Ev,_ZN3r2p4TimeC2Ev
 225 0012 00BF     		.section	.text._ZN3r2pplERKNS_4TimeES2_,"axG",%progbits,_ZN3r2pplERKNS_4TimeES2_,comdat
 226              		.align	2
 227              		.weak	_ZN3r2pplERKNS_4TimeES2_
 228              		.thumb
ARM GAS  /tmp/ccVvp2Ur.s 			page 5


 229              		.thumb_func
 230              		.type	_ZN3r2pplERKNS_4TimeES2_, %function
 231              	_ZN3r2pplERKNS_4TimeES2_:
 232              	.LFB164:
 233              		.loc 4 256 0
 234              		.cfi_startproc
 235              		@ args = 0, pretend = 0, frame = 16
 236              		@ frame_needed = 0, uses_anonymous_args = 0
 237 0000 00B5     		push	{lr}
 238              		.cfi_def_cfa_offset 4
 239              		.cfi_offset 14, -4
 240 0002 85B0     		sub	sp, sp, #20
 241              		.cfi_def_cfa_offset 24
 242 0004 0390     		str	r0, [sp, #12]
 243 0006 0291     		str	r1, [sp, #8]
 244 0008 0192     		str	r2, [sp, #4]
 245              		.loc 4 258 0
 246 000a 029B     		ldr	r3, [sp, #8]
 247 000c 1A68     		ldr	r2, [r3]
 248 000e 019B     		ldr	r3, [sp, #4]
 249 0010 1B68     		ldr	r3, [r3]
 250 0012 1344     		add	r3, r3, r2
 251 0014 0398     		ldr	r0, [sp, #12]
 252 0016 1946     		mov	r1, r3
 253 0018 FFF7FEFF 		bl	_ZN3r2p4TimeC1IlEET_
 254              		.loc 4 259 0
 255 001c 0398     		ldr	r0, [sp, #12]
 256 001e 05B0     		add	sp, sp, #20
 257              		.cfi_def_cfa_offset 4
 258              		@ sp needed
 259 0020 5DF804FB 		ldr	pc, [sp], #4
 260              		.cfi_endproc
 261              	.LFE164:
 262              		.size	_ZN3r2pplERKNS_4TimeES2_, .-_ZN3r2pplERKNS_4TimeES2_
 263              		.section	.text._ZN3r2p22TimestampedMsgPtrQueue5EntryC2Ev,"axG",%progbits,_ZN3r2p22TimestampedMsgPt
 264              		.align	2
 265              		.weak	_ZN3r2p22TimestampedMsgPtrQueue5EntryC2Ev
 266              		.thumb
 267              		.thumb_func
 268              		.type	_ZN3r2p22TimestampedMsgPtrQueue5EntryC2Ev, %function
 269              	_ZN3r2p22TimestampedMsgPtrQueue5EntryC2Ev:
 270              	.LFB180:
 271              		.file 5 "/opt/R2P/core/Middleware/include/r2p/TimestampedMsgPtrQueue.hpp"
 272              		.loc 5 106 0
 273              		.cfi_startproc
 274              		@ args = 0, pretend = 0, frame = 8
 275              		@ frame_needed = 0, uses_anonymous_args = 0
 276 0000 00B5     		push	{lr}
 277              		.cfi_def_cfa_offset 4
 278              		.cfi_offset 14, -4
 279 0002 83B0     		sub	sp, sp, #12
 280              		.cfi_def_cfa_offset 16
 281 0004 0190     		str	r0, [sp, #4]
 282              	.LBB15:
 283              		.loc 5 108 0
 284 0006 019B     		ldr	r3, [sp, #4]
 285 0008 0022     		movs	r2, #0
ARM GAS  /tmp/ccVvp2Ur.s 			page 6


 286 000a 1A60     		str	r2, [r3]
 287 000c 019B     		ldr	r3, [sp, #4]
 288 000e 0433     		adds	r3, r3, #4
 289 0010 1846     		mov	r0, r3
 290 0012 FFF7FEFF 		bl	_ZN3r2p4TimeC1Ev
 291              	.LBE15:
 292              		.loc 5 109 0
 293 0016 019B     		ldr	r3, [sp, #4]
 294 0018 1846     		mov	r0, r3
 295 001a 03B0     		add	sp, sp, #12
 296              		.cfi_def_cfa_offset 4
 297              		@ sp needed
 298 001c 5DF804FB 		ldr	pc, [sp], #4
 299              		.cfi_endproc
 300              	.LFE180:
 301              		.size	_ZN3r2p22TimestampedMsgPtrQueue5EntryC2Ev, .-_ZN3r2p22TimestampedMsgPtrQueue5EntryC2Ev
 302              		.weak	_ZN3r2p22TimestampedMsgPtrQueue5EntryC1Ev
 303              		.thumb_set _ZN3r2p22TimestampedMsgPtrQueue5EntryC1Ev,_ZN3r2p22TimestampedMsgPtrQueue5EntryC2Ev
 304              		.section	.text._ZN3r2p6Mutex_10initializeEv,"axG",%progbits,_ZN3r2p6Mutex_10initializeEv,comdat
 305              		.align	2
 306              		.weak	_ZN3r2p6Mutex_10initializeEv
 307              		.thumb
 308              		.thumb_func
 309              		.type	_ZN3r2p6Mutex_10initializeEv, %function
 310              	_ZN3r2p6Mutex_10initializeEv:
 311              	.LFB182:
 312              		.file 6 "/opt/R2P/core/Middleware/port/chibios/include/r2p/impl/Mutex_.hpp"
 313              		.loc 6 31 0
 314              		.cfi_startproc
 315              		@ args = 0, pretend = 0, frame = 8
 316              		@ frame_needed = 0, uses_anonymous_args = 0
 317 0000 00B5     		push	{lr}
 318              		.cfi_def_cfa_offset 4
 319              		.cfi_offset 14, -4
 320 0002 83B0     		sub	sp, sp, #12
 321              		.cfi_def_cfa_offset 16
 322 0004 0190     		str	r0, [sp, #4]
 323              		.loc 6 33 0
 324 0006 019B     		ldr	r3, [sp, #4]
 325 0008 1846     		mov	r0, r3
 326 000a FFF7FEFF 		bl	chMtxInit
 327              		.loc 6 34 0
 328 000e 03B0     		add	sp, sp, #12
 329              		.cfi_def_cfa_offset 4
 330              		@ sp needed
 331 0010 5DF804FB 		ldr	pc, [sp], #4
 332              		.cfi_endproc
 333              	.LFE182:
 334              		.size	_ZN3r2p6Mutex_10initializeEv, .-_ZN3r2p6Mutex_10initializeEv
 335              		.section	.text._ZN3r2p6Mutex_7acquireEv,"axG",%progbits,_ZN3r2p6Mutex_7acquireEv,comdat
 336              		.align	2
 337              		.weak	_ZN3r2p6Mutex_7acquireEv
 338              		.thumb
 339              		.thumb_func
 340              		.type	_ZN3r2p6Mutex_7acquireEv, %function
 341              	_ZN3r2p6Mutex_7acquireEv:
 342              	.LFB185:
ARM GAS  /tmp/ccVvp2Ur.s 			page 7


 343              		.loc 6 52 0
 344              		.cfi_startproc
 345              		@ args = 0, pretend = 0, frame = 8
 346              		@ frame_needed = 0, uses_anonymous_args = 0
 347 0000 00B5     		push	{lr}
 348              		.cfi_def_cfa_offset 4
 349              		.cfi_offset 14, -4
 350 0002 83B0     		sub	sp, sp, #12
 351              		.cfi_def_cfa_offset 16
 352 0004 0190     		str	r0, [sp, #4]
 353              		.loc 6 54 0
 354 0006 019B     		ldr	r3, [sp, #4]
 355 0008 1846     		mov	r0, r3
 356 000a FFF7FEFF 		bl	chMtxLock
 357              		.loc 6 55 0
 358 000e 03B0     		add	sp, sp, #12
 359              		.cfi_def_cfa_offset 4
 360              		@ sp needed
 361 0010 5DF804FB 		ldr	pc, [sp], #4
 362              		.cfi_endproc
 363              	.LFE185:
 364              		.size	_ZN3r2p6Mutex_7acquireEv, .-_ZN3r2p6Mutex_7acquireEv
 365              		.section	.text._ZN3r2p6Mutex_7releaseEv,"axG",%progbits,_ZN3r2p6Mutex_7releaseEv,comdat
 366              		.align	2
 367              		.weak	_ZN3r2p6Mutex_7releaseEv
 368              		.thumb
 369              		.thumb_func
 370              		.type	_ZN3r2p6Mutex_7releaseEv, %function
 371              	_ZN3r2p6Mutex_7releaseEv:
 372              	.LFB186:
 373              		.loc 6 59 0
 374              		.cfi_startproc
 375              		@ args = 0, pretend = 0, frame = 8
 376              		@ frame_needed = 0, uses_anonymous_args = 0
 377 0000 00B5     		push	{lr}
 378              		.cfi_def_cfa_offset 4
 379              		.cfi_offset 14, -4
 380 0002 83B0     		sub	sp, sp, #12
 381              		.cfi_def_cfa_offset 16
 382 0004 0190     		str	r0, [sp, #4]
 383              		.loc 6 61 0
 384 0006 FFF7FEFF 		bl	chMtxUnlock
 385              		.loc 6 62 0
 386 000a 03B0     		add	sp, sp, #12
 387              		.cfi_def_cfa_offset 4
 388              		@ sp needed
 389 000c 5DF804FB 		ldr	pc, [sp], #4
 390              		.cfi_endproc
 391              	.LFE186:
 392              		.size	_ZN3r2p6Mutex_7releaseEv, .-_ZN3r2p6Mutex_7releaseEv
 393              		.section	.text._ZN3r2p6Mutex_C2Eb,"axG",%progbits,_ZN3r2p6Mutex_C5Eb,comdat
 394              		.align	2
 395              		.weak	_ZN3r2p6Mutex_C2Eb
 396              		.thumb
 397              		.thumb_func
 398              		.type	_ZN3r2p6Mutex_C2Eb, %function
 399              	_ZN3r2p6Mutex_C2Eb:
ARM GAS  /tmp/ccVvp2Ur.s 			page 8


 400              	.LFB192:
 401              		.loc 6 80 0
 402              		.cfi_startproc
 403              		@ args = 0, pretend = 0, frame = 8
 404              		@ frame_needed = 0, uses_anonymous_args = 0
 405 0000 00B5     		push	{lr}
 406              		.cfi_def_cfa_offset 4
 407              		.cfi_offset 14, -4
 408 0002 83B0     		sub	sp, sp, #12
 409              		.cfi_def_cfa_offset 16
 410 0004 0190     		str	r0, [sp, #4]
 411 0006 0B46     		mov	r3, r1
 412 0008 8DF80330 		strb	r3, [sp, #3]
 413              	.LBB16:
 414              		.loc 6 80 0
 415 000c 0198     		ldr	r0, [sp, #4]
 416 000e FFF7FEFF 		bl	_ZN3r2p10UncopyableC2Ev
 417              		.loc 6 82 0
 418 0012 9DF80330 		ldrb	r3, [sp, #3]	@ zero_extendqisi2
 419 0016 002B     		cmp	r3, #0
 420 0018 02D0     		beq	.L23
 421              		.loc 6 83 0
 422 001a 0198     		ldr	r0, [sp, #4]
 423 001c FFF7FEFF 		bl	_ZN3r2p6Mutex_10initializeEv
 424              	.L23:
 425              	.LBE16:
 426              		.loc 6 85 0
 427 0020 019B     		ldr	r3, [sp, #4]
 428 0022 1846     		mov	r0, r3
 429 0024 03B0     		add	sp, sp, #12
 430              		.cfi_def_cfa_offset 4
 431              		@ sp needed
 432 0026 5DF804FB 		ldr	pc, [sp], #4
 433              		.cfi_endproc
 434              	.LFE192:
 435              		.size	_ZN3r2p6Mutex_C2Eb, .-_ZN3r2p6Mutex_C2Eb
 436              		.weak	_ZN3r2p6Mutex_C1Eb
 437              		.thumb_set _ZN3r2p6Mutex_C1Eb,_ZN3r2p6Mutex_C2Eb
 438 002a 00BF     		.section	.text._ZN3r2p5Mutex10initializeEv,"axG",%progbits,_ZN3r2p5Mutex10initializeEv,comdat
 439              		.align	2
 440              		.weak	_ZN3r2p5Mutex10initializeEv
 441              		.thumb
 442              		.thumb_func
 443              		.type	_ZN3r2p5Mutex10initializeEv, %function
 444              	_ZN3r2p5Mutex10initializeEv:
 445              	.LFB194:
 446              		.file 7 "/opt/R2P/core/Middleware/include/r2p/Mutex.hpp"
 447              		.loc 7 29 0
 448              		.cfi_startproc
 449              		@ args = 0, pretend = 0, frame = 8
 450              		@ frame_needed = 0, uses_anonymous_args = 0
 451 0000 00B5     		push	{lr}
 452              		.cfi_def_cfa_offset 4
 453              		.cfi_offset 14, -4
 454 0002 83B0     		sub	sp, sp, #12
 455              		.cfi_def_cfa_offset 16
 456 0004 0190     		str	r0, [sp, #4]
ARM GAS  /tmp/ccVvp2Ur.s 			page 9


 457              		.loc 7 31 0
 458 0006 019B     		ldr	r3, [sp, #4]
 459 0008 0433     		adds	r3, r3, #4
 460 000a 1846     		mov	r0, r3
 461 000c FFF7FEFF 		bl	_ZN3r2p6Mutex_10initializeEv
 462              		.loc 7 32 0
 463 0010 03B0     		add	sp, sp, #12
 464              		.cfi_def_cfa_offset 4
 465              		@ sp needed
 466 0012 5DF804FB 		ldr	pc, [sp], #4
 467              		.cfi_endproc
 468              	.LFE194:
 469              		.size	_ZN3r2p5Mutex10initializeEv, .-_ZN3r2p5Mutex10initializeEv
 470 0016 00BF     		.section	.text._ZN3r2p5Mutex7acquireEv,"axG",%progbits,_ZN3r2p5Mutex7acquireEv,comdat
 471              		.align	2
 472              		.weak	_ZN3r2p5Mutex7acquireEv
 473              		.thumb
 474              		.thumb_func
 475              		.type	_ZN3r2p5Mutex7acquireEv, %function
 476              	_ZN3r2p5Mutex7acquireEv:
 477              	.LFB197:
 478              		.loc 7 48 0
 479              		.cfi_startproc
 480              		@ args = 0, pretend = 0, frame = 8
 481              		@ frame_needed = 0, uses_anonymous_args = 0
 482 0000 00B5     		push	{lr}
 483              		.cfi_def_cfa_offset 4
 484              		.cfi_offset 14, -4
 485 0002 83B0     		sub	sp, sp, #12
 486              		.cfi_def_cfa_offset 16
 487 0004 0190     		str	r0, [sp, #4]
 488              		.loc 7 49 0
 489 0006 019B     		ldr	r3, [sp, #4]
 490 0008 0433     		adds	r3, r3, #4
 491 000a 1846     		mov	r0, r3
 492 000c FFF7FEFF 		bl	_ZN3r2p6Mutex_7acquireEv
 493              		.loc 7 50 0
 494 0010 03B0     		add	sp, sp, #12
 495              		.cfi_def_cfa_offset 4
 496              		@ sp needed
 497 0012 5DF804FB 		ldr	pc, [sp], #4
 498              		.cfi_endproc
 499              	.LFE197:
 500              		.size	_ZN3r2p5Mutex7acquireEv, .-_ZN3r2p5Mutex7acquireEv
 501 0016 00BF     		.section	.text._ZN3r2p5Mutex7releaseEv,"axG",%progbits,_ZN3r2p5Mutex7releaseEv,comdat
 502              		.align	2
 503              		.weak	_ZN3r2p5Mutex7releaseEv
 504              		.thumb
 505              		.thumb_func
 506              		.type	_ZN3r2p5Mutex7releaseEv, %function
 507              	_ZN3r2p5Mutex7releaseEv:
 508              	.LFB198:
 509              		.loc 7 54 0
 510              		.cfi_startproc
 511              		@ args = 0, pretend = 0, frame = 8
 512              		@ frame_needed = 0, uses_anonymous_args = 0
 513 0000 00B5     		push	{lr}
ARM GAS  /tmp/ccVvp2Ur.s 			page 10


 514              		.cfi_def_cfa_offset 4
 515              		.cfi_offset 14, -4
 516 0002 83B0     		sub	sp, sp, #12
 517              		.cfi_def_cfa_offset 16
 518 0004 0190     		str	r0, [sp, #4]
 519              		.loc 7 55 0
 520 0006 019B     		ldr	r3, [sp, #4]
 521 0008 0433     		adds	r3, r3, #4
 522 000a 1846     		mov	r0, r3
 523 000c FFF7FEFF 		bl	_ZN3r2p6Mutex_7releaseEv
 524              		.loc 7 56 0
 525 0010 03B0     		add	sp, sp, #12
 526              		.cfi_def_cfa_offset 4
 527              		@ sp needed
 528 0012 5DF804FB 		ldr	pc, [sp], #4
 529              		.cfi_endproc
 530              	.LFE198:
 531              		.size	_ZN3r2p5Mutex7releaseEv, .-_ZN3r2p5Mutex7releaseEv
 532 0016 00BF     		.section	.text._ZN3r2p6Mutex_D2Ev,"axG",%progbits,_ZN3r2p6Mutex_D5Ev,comdat
 533              		.align	2
 534              		.weak	_ZN3r2p6Mutex_D2Ev
 535              		.thumb
 536              		.thumb_func
 537              		.type	_ZN3r2p6Mutex_D2Ev, %function
 538              	_ZN3r2p6Mutex_D2Ev:
 539              	.LFB201:
 540              		.loc 6 9 0
 541              		.cfi_startproc
 542              		@ args = 0, pretend = 0, frame = 8
 543              		@ frame_needed = 0, uses_anonymous_args = 0
 544 0000 00B5     		push	{lr}
 545              		.cfi_def_cfa_offset 4
 546              		.cfi_offset 14, -4
 547 0002 83B0     		sub	sp, sp, #12
 548              		.cfi_def_cfa_offset 16
 549 0004 0190     		str	r0, [sp, #4]
 550              	.LBB17:
 551              		.loc 6 9 0
 552 0006 0198     		ldr	r0, [sp, #4]
 553 0008 FFF7FEFF 		bl	_ZN3r2p10UncopyableD2Ev
 554              	.LBE17:
 555 000c 019B     		ldr	r3, [sp, #4]
 556 000e 1846     		mov	r0, r3
 557 0010 03B0     		add	sp, sp, #12
 558              		.cfi_def_cfa_offset 4
 559              		@ sp needed
 560 0012 5DF804FB 		ldr	pc, [sp], #4
 561              		.cfi_endproc
 562              	.LFE201:
 563              		.size	_ZN3r2p6Mutex_D2Ev, .-_ZN3r2p6Mutex_D2Ev
 564              		.weak	_ZN3r2p6Mutex_D1Ev
 565              		.thumb_set _ZN3r2p6Mutex_D1Ev,_ZN3r2p6Mutex_D2Ev
 566 0016 00BF     		.section	.text._ZN3r2p5MutexC2Eb,"axG",%progbits,_ZN3r2p5MutexC5Eb,comdat
 567              		.align	2
 568              		.weak	_ZN3r2p5MutexC2Eb
 569              		.thumb
 570              		.thumb_func
ARM GAS  /tmp/ccVvp2Ur.s 			page 11


 571              		.type	_ZN3r2p5MutexC2Eb, %function
 572              	_ZN3r2p5MutexC2Eb:
 573              	.LFB206:
 574              		.loc 7 67 0
 575              		.cfi_startproc
 576              		@ args = 0, pretend = 0, frame = 8
 577              		@ frame_needed = 0, uses_anonymous_args = 0
 578 0000 00B5     		push	{lr}
 579              		.cfi_def_cfa_offset 4
 580              		.cfi_offset 14, -4
 581 0002 83B0     		sub	sp, sp, #12
 582              		.cfi_def_cfa_offset 16
 583 0004 0190     		str	r0, [sp, #4]
 584 0006 0B46     		mov	r3, r1
 585 0008 8DF80330 		strb	r3, [sp, #3]
 586              	.LBB18:
 587              		.loc 7 69 0
 588 000c 0198     		ldr	r0, [sp, #4]
 589 000e FFF7FEFF 		bl	_ZN3r2p10UncopyableC2Ev
 590 0012 019B     		ldr	r3, [sp, #4]
 591 0014 1A1D     		adds	r2, r3, #4
 592 0016 9DF80330 		ldrb	r3, [sp, #3]	@ zero_extendqisi2
 593 001a 1046     		mov	r0, r2
 594 001c 1946     		mov	r1, r3
 595 001e FFF7FEFF 		bl	_ZN3r2p6Mutex_C1Eb
 596              	.LBE18:
 597              		.loc 7 70 0
 598 0022 019B     		ldr	r3, [sp, #4]
 599 0024 1846     		mov	r0, r3
 600 0026 03B0     		add	sp, sp, #12
 601              		.cfi_def_cfa_offset 4
 602              		@ sp needed
 603 0028 5DF804FB 		ldr	pc, [sp], #4
 604              		.cfi_endproc
 605              	.LFE206:
 606              		.size	_ZN3r2p5MutexC2Eb, .-_ZN3r2p5MutexC2Eb
 607              		.weak	_ZN3r2p5MutexC1Eb
 608              		.thumb_set _ZN3r2p5MutexC1Eb,_ZN3r2p5MutexC2Eb
 609              		.section	.text._ZNK3r2p7Message12get_raw_dataEv,"axG",%progbits,_ZNK3r2p7Message12get_raw_dataEv,c
 610              		.align	2
 611              		.weak	_ZNK3r2p7Message12get_raw_dataEv
 612              		.thumb
 613              		.thumb_func
 614              		.type	_ZNK3r2p7Message12get_raw_dataEv, %function
 615              	_ZNK3r2p7Message12get_raw_dataEv:
 616              	.LFB208:
 617              		.file 8 "/opt/R2P/core/Middleware/include/r2p/Message.hpp"
 618              		.loc 8 67 0
 619              		.cfi_startproc
 620              		@ args = 0, pretend = 0, frame = 8
 621              		@ frame_needed = 0, uses_anonymous_args = 0
 622              		@ link register save eliminated.
 623 0000 82B0     		sub	sp, sp, #8
 624              		.cfi_def_cfa_offset 8
 625 0002 0190     		str	r0, [sp, #4]
 626              		.loc 8 69 0
 627 0004 019B     		ldr	r3, [sp, #4]
ARM GAS  /tmp/ccVvp2Ur.s 			page 12


 628 0006 0233     		adds	r3, r3, #2
 629              		.loc 8 70 0
 630 0008 1846     		mov	r0, r3
 631 000a 02B0     		add	sp, sp, #8
 632              		.cfi_def_cfa_offset 0
 633              		@ sp needed
 634 000c 7047     		bx	lr
 635              		.cfi_endproc
 636              	.LFE208:
 637              		.size	_ZNK3r2p7Message12get_raw_dataEv, .-_ZNK3r2p7Message12get_raw_dataEv
 638 000e 00BF     		.section	.text._ZN3r2p7Message12reset_unsafeEv,"axG",%progbits,_ZN3r2p7Message12reset_unsafeEv,com
 639              		.align	2
 640              		.weak	_ZN3r2p7Message12reset_unsafeEv
 641              		.thumb
 642              		.thumb_func
 643              		.type	_ZN3r2p7Message12reset_unsafeEv, %function
 644              	_ZN3r2p7Message12reset_unsafeEv:
 645              	.LFB212:
 646              		.loc 8 122 0
 647              		.cfi_startproc
 648              		@ args = 0, pretend = 0, frame = 8
 649              		@ frame_needed = 0, uses_anonymous_args = 0
 650              		@ link register save eliminated.
 651 0000 82B0     		sub	sp, sp, #8
 652              		.cfi_def_cfa_offset 8
 653 0002 0190     		str	r0, [sp, #4]
 654              		.loc 8 127 0
 655 0004 019B     		ldr	r3, [sp, #4]
 656 0006 0022     		movs	r2, #0
 657 0008 1A70     		strb	r2, [r3]
 658 000a 0022     		movs	r2, #0
 659 000c 5A70     		strb	r2, [r3, #1]
 660              		.loc 8 128 0
 661 000e 02B0     		add	sp, sp, #8
 662              		.cfi_def_cfa_offset 0
 663              		@ sp needed
 664 0010 7047     		bx	lr
 665              		.cfi_endproc
 666              	.LFE212:
 667              		.size	_ZN3r2p7Message12reset_unsafeEv, .-_ZN3r2p7Message12reset_unsafeEv
 668 0012 00BF     		.section	.text._ZN3r2p7MessageC2Ev,"axG",%progbits,_ZN3r2p7MessageC5Ev,comdat
 669              		.align	2
 670              		.weak	_ZN3r2p7MessageC2Ev
 671              		.thumb
 672              		.thumb_func
 673              		.type	_ZN3r2p7MessageC2Ev, %function
 674              	_ZN3r2p7MessageC2Ev:
 675              	.LFB214:
 676              		.loc 8 132 0
 677              		.cfi_startproc
 678              		@ args = 0, pretend = 0, frame = 8
 679              		@ frame_needed = 0, uses_anonymous_args = 0
 680              		@ link register save eliminated.
 681 0000 82B0     		sub	sp, sp, #8
 682              		.cfi_def_cfa_offset 8
 683 0002 0190     		str	r0, [sp, #4]
 684              	.LBB19:
ARM GAS  /tmp/ccVvp2Ur.s 			page 13


 685              		.loc 8 137 0
 686 0004 019B     		ldr	r3, [sp, #4]
 687 0006 0022     		movs	r2, #0
 688 0008 1A70     		strb	r2, [r3]
 689 000a 0022     		movs	r2, #0
 690 000c 5A70     		strb	r2, [r3, #1]
 691              	.LBE19:
 692              		.loc 8 138 0
 693 000e 019B     		ldr	r3, [sp, #4]
 694 0010 1846     		mov	r0, r3
 695 0012 02B0     		add	sp, sp, #8
 696              		.cfi_def_cfa_offset 0
 697              		@ sp needed
 698 0014 7047     		bx	lr
 699              		.cfi_endproc
 700              	.LFE214:
 701              		.size	_ZN3r2p7MessageC2Ev, .-_ZN3r2p7MessageC2Ev
 702              		.weak	_ZN3r2p7MessageC1Ev
 703              		.thumb_set _ZN3r2p7MessageC1Ev,_ZN3r2p7MessageC2Ev
 704 0016 00BF     		.section	.text._ZN3r2p7Message16get_payload_sizeEj,"axG",%progbits,_ZN3r2p7Message16get_payload_si
 705              		.align	2
 706              		.weak	_ZN3r2p7Message16get_payload_sizeEj
 707              		.thumb
 708              		.thumb_func
 709              		.type	_ZN3r2p7Message16get_payload_sizeEj, %function
 710              	_ZN3r2p7Message16get_payload_sizeEj:
 711              	.LFB216:
 712              		.loc 8 142 0
 713              		.cfi_startproc
 714              		@ args = 0, pretend = 0, frame = 8
 715              		@ frame_needed = 0, uses_anonymous_args = 0
 716              		@ link register save eliminated.
 717 0000 82B0     		sub	sp, sp, #8
 718              		.cfi_def_cfa_offset 8
 719 0002 0190     		str	r0, [sp, #4]
 720              		.loc 8 147 0
 721 0004 019B     		ldr	r3, [sp, #4]
 722 0006 023B     		subs	r3, r3, #2
 723              		.loc 8 149 0
 724 0008 1846     		mov	r0, r3
 725 000a 02B0     		add	sp, sp, #8
 726              		.cfi_def_cfa_offset 0
 727              		@ sp needed
 728 000c 7047     		bx	lr
 729              		.cfi_endproc
 730              	.LFE216:
 731              		.size	_ZN3r2p7Message16get_payload_sizeEj, .-_ZN3r2p7Message16get_payload_sizeEj
 732 000e 00BF     		.section	.text._ZNK3r2p11MemoryPool_13get_item_sizeEv,"axG",%progbits,_ZNK3r2p11MemoryPool_13get_i
 733              		.align	2
 734              		.weak	_ZNK3r2p11MemoryPool_13get_item_sizeEv
 735              		.thumb
 736              		.thumb_func
 737              		.type	_ZNK3r2p11MemoryPool_13get_item_sizeEv, %function
 738              	_ZNK3r2p11MemoryPool_13get_item_sizeEv:
 739              	.LFB311:
 740              		.file 9 "/opt/R2P/core/Middleware/port/chibios/include/r2p/impl/MemoryPool_.hpp"
 741              		.loc 9 39 0
ARM GAS  /tmp/ccVvp2Ur.s 			page 14


 742              		.cfi_startproc
 743              		@ args = 0, pretend = 0, frame = 8
 744              		@ frame_needed = 0, uses_anonymous_args = 0
 745              		@ link register save eliminated.
 746 0000 82B0     		sub	sp, sp, #8
 747              		.cfi_def_cfa_offset 8
 748 0002 0190     		str	r0, [sp, #4]
 749              		.loc 9 41 0
 750 0004 019B     		ldr	r3, [sp, #4]
 751 0006 5B68     		ldr	r3, [r3, #4]
 752              		.loc 9 42 0
 753 0008 1846     		mov	r0, r3
 754 000a 02B0     		add	sp, sp, #8
 755              		.cfi_def_cfa_offset 0
 756              		@ sp needed
 757 000c 7047     		bx	lr
 758              		.cfi_endproc
 759              	.LFE311:
 760              		.size	_ZNK3r2p11MemoryPool_13get_item_sizeEv, .-_ZNK3r2p11MemoryPool_13get_item_sizeEv
 761 000e 00BF     		.section	.text._ZN3r2p11MemoryPool_12alloc_unsafeEv,"axG",%progbits,_ZN3r2p11MemoryPool_12alloc_un
 762              		.align	2
 763              		.weak	_ZN3r2p11MemoryPool_12alloc_unsafeEv
 764              		.thumb
 765              		.thumb_func
 766              		.type	_ZN3r2p11MemoryPool_12alloc_unsafeEv, %function
 767              	_ZN3r2p11MemoryPool_12alloc_unsafeEv:
 768              	.LFB313:
 769              		.loc 9 53 0
 770              		.cfi_startproc
 771              		@ args = 0, pretend = 0, frame = 8
 772              		@ frame_needed = 0, uses_anonymous_args = 0
 773 0000 00B5     		push	{lr}
 774              		.cfi_def_cfa_offset 4
 775              		.cfi_offset 14, -4
 776 0002 83B0     		sub	sp, sp, #12
 777              		.cfi_def_cfa_offset 16
 778 0004 0190     		str	r0, [sp, #4]
 779              		.loc 9 55 0
 780 0006 019B     		ldr	r3, [sp, #4]
 781 0008 1846     		mov	r0, r3
 782 000a FFF7FEFF 		bl	chPoolAllocI
 783 000e 0346     		mov	r3, r0
 784              		.loc 9 56 0
 785 0010 1846     		mov	r0, r3
 786 0012 03B0     		add	sp, sp, #12
 787              		.cfi_def_cfa_offset 4
 788              		@ sp needed
 789 0014 5DF804FB 		ldr	pc, [sp], #4
 790              		.cfi_endproc
 791              	.LFE313:
 792              		.size	_ZN3r2p11MemoryPool_12alloc_unsafeEv, .-_ZN3r2p11MemoryPool_12alloc_unsafeEv
 793              		.section	.text._ZN3r2p7Thread_13create_staticEPvjmPFlS1_ES1_PKc,"axG",%progbits,_ZN3r2p7Thread_13c
 794              		.align	2
 795              		.weak	_ZN3r2p7Thread_13create_staticEPvjmPFlS1_ES1_PKc
 796              		.thumb
 797              		.thumb_func
 798              		.type	_ZN3r2p7Thread_13create_staticEPvjmPFlS1_ES1_PKc, %function
ARM GAS  /tmp/ccVvp2Ur.s 			page 15


 799              	_ZN3r2p7Thread_13create_staticEPvjmPFlS1_ES1_PKc:
 800              	.LFB334:
 801              		.file 10 "/opt/R2P/core/Middleware/port/chibios/include/r2p/impl/Thread_.hpp"
 802              		.loc 10 95 0
 803              		.cfi_startproc
 804              		@ args = 8, pretend = 0, frame = 24
 805              		@ frame_needed = 0, uses_anonymous_args = 0
 806 0000 00B5     		push	{lr}
 807              		.cfi_def_cfa_offset 4
 808              		.cfi_offset 14, -4
 809 0002 89B0     		sub	sp, sp, #36
 810              		.cfi_def_cfa_offset 40
 811 0004 0590     		str	r0, [sp, #20]
 812 0006 0491     		str	r1, [sp, #16]
 813 0008 0392     		str	r2, [sp, #12]
 814 000a 0293     		str	r3, [sp, #8]
 815              	.LBB20:
 816              		.loc 10 100 0
 817 000c 0A9B     		ldr	r3, [sp, #40]
 818 000e 0093     		str	r3, [sp]
 819 0010 0598     		ldr	r0, [sp, #20]
 820 0012 0499     		ldr	r1, [sp, #16]
 821 0014 039A     		ldr	r2, [sp, #12]
 822 0016 029B     		ldr	r3, [sp, #8]
 823 0018 FFF7FEFF 		bl	chThdCreateStatic
 824 001c 0790     		str	r0, [sp, #28]
 825              		.loc 10 102 0
 826 001e 079B     		ldr	r3, [sp, #28]
 827 0020 002B     		cmp	r3, #0
 828 0022 02D0     		beq	.L47
 829              		.loc 10 103 0
 830 0024 079B     		ldr	r3, [sp, #28]
 831 0026 0B9A     		ldr	r2, [sp, #44]
 832 0028 9A61     		str	r2, [r3, #24]
 833              	.L47:
 834              		.loc 10 108 0
 835 002a 079B     		ldr	r3, [sp, #28]
 836              	.LBE20:
 837              		.loc 10 109 0
 838 002c 1846     		mov	r0, r3
 839 002e 09B0     		add	sp, sp, #36
 840              		.cfi_def_cfa_offset 4
 841              		@ sp needed
 842 0030 5DF804FB 		ldr	pc, [sp], #4
 843              		.cfi_endproc
 844              	.LFE334:
 845              		.size	_ZN3r2p7Thread_13create_staticEPvjmPFlS1_ES1_PKc, .-_ZN3r2p7Thread_13create_staticEPvjmPFlS1
 846              		.section	.text._ZN3r2p6Thread13create_staticEPvjmPFlS1_ES1_PKc,"axG",%progbits,_ZN3r2p6Thread13cre
 847              		.align	2
 848              		.weak	_ZN3r2p6Thread13create_staticEPvjmPFlS1_ES1_PKc
 849              		.thumb
 850              		.thumb_func
 851              		.type	_ZN3r2p6Thread13create_staticEPvjmPFlS1_ES1_PKc, %function
 852              	_ZN3r2p6Thread13create_staticEPvjmPFlS1_ES1_PKc:
 853              	.LFB356:
 854              		.file 11 "/opt/R2P/core/Middleware/include/r2p/Thread.hpp"
 855              		.loc 11 81 0
ARM GAS  /tmp/ccVvp2Ur.s 			page 16


 856              		.cfi_startproc
 857              		@ args = 8, pretend = 0, frame = 16
 858              		@ frame_needed = 0, uses_anonymous_args = 0
 859 0000 00B5     		push	{lr}
 860              		.cfi_def_cfa_offset 4
 861              		.cfi_offset 14, -4
 862 0002 87B0     		sub	sp, sp, #28
 863              		.cfi_def_cfa_offset 32
 864 0004 0590     		str	r0, [sp, #20]
 865 0006 0491     		str	r1, [sp, #16]
 866 0008 0392     		str	r2, [sp, #12]
 867 000a 0293     		str	r3, [sp, #8]
 868              		.loc 11 85 0
 869 000c 089B     		ldr	r3, [sp, #32]
 870 000e 0093     		str	r3, [sp]
 871 0010 099B     		ldr	r3, [sp, #36]
 872 0012 0193     		str	r3, [sp, #4]
 873 0014 0598     		ldr	r0, [sp, #20]
 874 0016 0499     		ldr	r1, [sp, #16]
 875 0018 039A     		ldr	r2, [sp, #12]
 876 001a 029B     		ldr	r3, [sp, #8]
 877 001c FFF7FEFF 		bl	_ZN3r2p7Thread_13create_staticEPvjmPFlS1_ES1_PKc
 878 0020 0346     		mov	r3, r0
 879              		.loc 11 86 0
 880 0022 1846     		mov	r0, r3
 881 0024 07B0     		add	sp, sp, #28
 882              		.cfi_def_cfa_offset 4
 883              		@ sp needed
 884 0026 5DF804FB 		ldr	pc, [sp], #4
 885              		.cfi_endproc
 886              	.LFE356:
 887              		.size	_ZN3r2p6Thread13create_staticEPvjmPFlS1_ES1_PKc, .-_ZN3r2p6Thread13create_staticEPvjmPFlS1_E
 888 002a 00BF     		.section	.text._ZN3r2p10Semaphore_10initializeEl,"axG",%progbits,_ZN3r2p10Semaphore_10initializeEl
 889              		.align	2
 890              		.weak	_ZN3r2p10Semaphore_10initializeEl
 891              		.thumb
 892              		.thumb_func
 893              		.type	_ZN3r2p10Semaphore_10initializeEl, %function
 894              	_ZN3r2p10Semaphore_10initializeEl:
 895              	.LFB396:
 896              		.file 12 "/opt/R2P/core/Middleware/port/chibios/include/r2p/impl/Semaphore_.hpp"
 897              		.loc 12 39 0
 898              		.cfi_startproc
 899              		@ args = 0, pretend = 0, frame = 8
 900              		@ frame_needed = 0, uses_anonymous_args = 0
 901 0000 00B5     		push	{lr}
 902              		.cfi_def_cfa_offset 4
 903              		.cfi_offset 14, -4
 904 0002 83B0     		sub	sp, sp, #12
 905              		.cfi_def_cfa_offset 16
 906 0004 0190     		str	r0, [sp, #4]
 907 0006 0091     		str	r1, [sp]
 908              		.loc 12 41 0
 909 0008 019B     		ldr	r3, [sp, #4]
 910 000a 1846     		mov	r0, r3
 911 000c 0099     		ldr	r1, [sp]
 912 000e FFF7FEFF 		bl	chSemInit
ARM GAS  /tmp/ccVvp2Ur.s 			page 17


 913              		.loc 12 42 0
 914 0012 03B0     		add	sp, sp, #12
 915              		.cfi_def_cfa_offset 4
 916              		@ sp needed
 917 0014 5DF804FB 		ldr	pc, [sp], #4
 918              		.cfi_endproc
 919              	.LFE396:
 920              		.size	_ZN3r2p10Semaphore_10initializeEl, .-_ZN3r2p10Semaphore_10initializeEl
 921              		.section	.text._ZN3r2p10Semaphore_13signal_unsafeEv,"axG",%progbits,_ZN3r2p10Semaphore_13signal_un
 922              		.align	2
 923              		.weak	_ZN3r2p10Semaphore_13signal_unsafeEv
 924              		.thumb
 925              		.thumb_func
 926              		.type	_ZN3r2p10Semaphore_13signal_unsafeEv, %function
 927              	_ZN3r2p10Semaphore_13signal_unsafeEv:
 928              	.LFB398:
 929              		.loc 12 53 0
 930              		.cfi_startproc
 931              		@ args = 0, pretend = 0, frame = 8
 932              		@ frame_needed = 0, uses_anonymous_args = 0
 933 0000 00B5     		push	{lr}
 934              		.cfi_def_cfa_offset 4
 935              		.cfi_offset 14, -4
 936 0002 83B0     		sub	sp, sp, #12
 937              		.cfi_def_cfa_offset 16
 938 0004 0190     		str	r0, [sp, #4]
 939              		.loc 12 55 0
 940 0006 019B     		ldr	r3, [sp, #4]
 941 0008 1846     		mov	r0, r3
 942 000a FFF7FEFF 		bl	chSemSignalI
 943              		.loc 12 56 0
 944 000e 03B0     		add	sp, sp, #12
 945              		.cfi_def_cfa_offset 4
 946              		@ sp needed
 947 0010 5DF804FB 		ldr	pc, [sp], #4
 948              		.cfi_endproc
 949              	.LFE398:
 950              		.size	_ZN3r2p10Semaphore_13signal_unsafeEv, .-_ZN3r2p10Semaphore_13signal_unsafeEv
 951              		.section	.text._ZN3r2p10Semaphore_11wait_unsafeEv,"axG",%progbits,_ZN3r2p10Semaphore_11wait_unsafe
 952              		.align	2
 953              		.weak	_ZN3r2p10Semaphore_11wait_unsafeEv
 954              		.thumb
 955              		.thumb_func
 956              		.type	_ZN3r2p10Semaphore_11wait_unsafeEv, %function
 957              	_ZN3r2p10Semaphore_11wait_unsafeEv:
 958              	.LFB399:
 959              		.loc 12 60 0
 960              		.cfi_startproc
 961              		@ args = 0, pretend = 0, frame = 8
 962              		@ frame_needed = 0, uses_anonymous_args = 0
 963 0000 00B5     		push	{lr}
 964              		.cfi_def_cfa_offset 4
 965              		.cfi_offset 14, -4
 966 0002 83B0     		sub	sp, sp, #12
 967              		.cfi_def_cfa_offset 16
 968 0004 0190     		str	r0, [sp, #4]
 969              		.loc 12 62 0
ARM GAS  /tmp/ccVvp2Ur.s 			page 18


 970 0006 019B     		ldr	r3, [sp, #4]
 971 0008 1846     		mov	r0, r3
 972 000a FFF7FEFF 		bl	chSemWaitS
 973              		.loc 12 63 0
 974 000e 03B0     		add	sp, sp, #12
 975              		.cfi_def_cfa_offset 4
 976              		@ sp needed
 977 0010 5DF804FB 		ldr	pc, [sp], #4
 978              		.cfi_endproc
 979              	.LFE399:
 980              		.size	_ZN3r2p10Semaphore_11wait_unsafeEv, .-_ZN3r2p10Semaphore_11wait_unsafeEv
 981              		.section	.text._ZN3r2p10Semaphore_C2Ebl,"axG",%progbits,_ZN3r2p10Semaphore_C5Ebl,comdat
 982              		.align	2
 983              		.weak	_ZN3r2p10Semaphore_C2Ebl
 984              		.thumb
 985              		.thumb_func
 986              		.type	_ZN3r2p10Semaphore_C2Ebl, %function
 987              	_ZN3r2p10Semaphore_C2Ebl:
 988              	.LFB410:
 989              		.loc 12 116 0
 990              		.cfi_startproc
 991              		@ args = 0, pretend = 0, frame = 16
 992              		@ frame_needed = 0, uses_anonymous_args = 0
 993 0000 00B5     		push	{lr}
 994              		.cfi_def_cfa_offset 4
 995              		.cfi_offset 14, -4
 996 0002 85B0     		sub	sp, sp, #20
 997              		.cfi_def_cfa_offset 24
 998 0004 0390     		str	r0, [sp, #12]
 999 0006 0B46     		mov	r3, r1
 1000 0008 0192     		str	r2, [sp, #4]
 1001 000a 8DF80B30 		strb	r3, [sp, #11]
 1002              	.LBB21:
 1003              		.loc 12 116 0
 1004 000e 0398     		ldr	r0, [sp, #12]
 1005 0010 FFF7FEFF 		bl	_ZN3r2p10UncopyableC2Ev
 1006              		.loc 12 118 0
 1007 0014 9DF80B30 		ldrb	r3, [sp, #11]	@ zero_extendqisi2
 1008 0018 002B     		cmp	r3, #0
 1009 001a 03D0     		beq	.L55
 1010              		.loc 12 119 0
 1011 001c 0398     		ldr	r0, [sp, #12]
 1012 001e 0199     		ldr	r1, [sp, #4]
 1013 0020 FFF7FEFF 		bl	_ZN3r2p10Semaphore_10initializeEl
 1014              	.L55:
 1015              	.LBE21:
 1016              		.loc 12 121 0
 1017 0024 039B     		ldr	r3, [sp, #12]
 1018 0026 1846     		mov	r0, r3
 1019 0028 05B0     		add	sp, sp, #20
 1020              		.cfi_def_cfa_offset 4
 1021              		@ sp needed
 1022 002a 5DF804FB 		ldr	pc, [sp], #4
 1023              		.cfi_endproc
 1024              	.LFE410:
 1025              		.size	_ZN3r2p10Semaphore_C2Ebl, .-_ZN3r2p10Semaphore_C2Ebl
 1026              		.weak	_ZN3r2p10Semaphore_C1Ebl
ARM GAS  /tmp/ccVvp2Ur.s 			page 19


 1027              		.thumb_set _ZN3r2p10Semaphore_C1Ebl,_ZN3r2p10Semaphore_C2Ebl
 1028 002e 00BF     		.section	.text._ZN3r2p9Semaphore10initializeEl,"axG",%progbits,_ZN3r2p9Semaphore10initializeEl,com
 1029              		.align	2
 1030              		.weak	_ZN3r2p9Semaphore10initializeEl
 1031              		.thumb
 1032              		.thumb_func
 1033              		.type	_ZN3r2p9Semaphore10initializeEl, %function
 1034              	_ZN3r2p9Semaphore10initializeEl:
 1035              	.LFB412:
 1036              		.file 13 "/opt/R2P/core/Middleware/include/r2p/Semaphore.hpp"
 1037              		.loc 13 36 0
 1038              		.cfi_startproc
 1039              		@ args = 0, pretend = 0, frame = 8
 1040              		@ frame_needed = 0, uses_anonymous_args = 0
 1041 0000 00B5     		push	{lr}
 1042              		.cfi_def_cfa_offset 4
 1043              		.cfi_offset 14, -4
 1044 0002 83B0     		sub	sp, sp, #12
 1045              		.cfi_def_cfa_offset 16
 1046 0004 0190     		str	r0, [sp, #4]
 1047 0006 0091     		str	r1, [sp]
 1048              		.loc 13 38 0
 1049 0008 019B     		ldr	r3, [sp, #4]
 1050 000a 0433     		adds	r3, r3, #4
 1051 000c 1846     		mov	r0, r3
 1052 000e 0099     		ldr	r1, [sp]
 1053 0010 FFF7FEFF 		bl	_ZN3r2p10Semaphore_10initializeEl
 1054              		.loc 13 39 0
 1055 0014 03B0     		add	sp, sp, #12
 1056              		.cfi_def_cfa_offset 4
 1057              		@ sp needed
 1058 0016 5DF804FB 		ldr	pc, [sp], #4
 1059              		.cfi_endproc
 1060              	.LFE412:
 1061              		.size	_ZN3r2p9Semaphore10initializeEl, .-_ZN3r2p9Semaphore10initializeEl
 1062 001a 00BF     		.section	.text._ZN3r2p9Semaphore13signal_unsafeEv,"axG",%progbits,_ZN3r2p9Semaphore13signal_unsafe
 1063              		.align	2
 1064              		.weak	_ZN3r2p9Semaphore13signal_unsafeEv
 1065              		.thumb
 1066              		.thumb_func
 1067              		.type	_ZN3r2p9Semaphore13signal_unsafeEv, %function
 1068              	_ZN3r2p9Semaphore13signal_unsafeEv:
 1069              	.LFB414:
 1070              		.loc 13 50 0
 1071              		.cfi_startproc
 1072              		@ args = 0, pretend = 0, frame = 8
 1073              		@ frame_needed = 0, uses_anonymous_args = 0
 1074 0000 00B5     		push	{lr}
 1075              		.cfi_def_cfa_offset 4
 1076              		.cfi_offset 14, -4
 1077 0002 83B0     		sub	sp, sp, #12
 1078              		.cfi_def_cfa_offset 16
 1079 0004 0190     		str	r0, [sp, #4]
 1080              		.loc 13 52 0
 1081 0006 019B     		ldr	r3, [sp, #4]
 1082 0008 0433     		adds	r3, r3, #4
 1083 000a 1846     		mov	r0, r3
ARM GAS  /tmp/ccVvp2Ur.s 			page 20


 1084 000c FFF7FEFF 		bl	_ZN3r2p10Semaphore_13signal_unsafeEv
 1085              		.loc 13 53 0
 1086 0010 03B0     		add	sp, sp, #12
 1087              		.cfi_def_cfa_offset 4
 1088              		@ sp needed
 1089 0012 5DF804FB 		ldr	pc, [sp], #4
 1090              		.cfi_endproc
 1091              	.LFE414:
 1092              		.size	_ZN3r2p9Semaphore13signal_unsafeEv, .-_ZN3r2p9Semaphore13signal_unsafeEv
 1093 0016 00BF     		.section	.text._ZN3r2p9Semaphore11wait_unsafeEv,"axG",%progbits,_ZN3r2p9Semaphore11wait_unsafeEv,c
 1094              		.align	2
 1095              		.weak	_ZN3r2p9Semaphore11wait_unsafeEv
 1096              		.thumb
 1097              		.thumb_func
 1098              		.type	_ZN3r2p9Semaphore11wait_unsafeEv, %function
 1099              	_ZN3r2p9Semaphore11wait_unsafeEv:
 1100              	.LFB415:
 1101              		.loc 13 57 0
 1102              		.cfi_startproc
 1103              		@ args = 0, pretend = 0, frame = 8
 1104              		@ frame_needed = 0, uses_anonymous_args = 0
 1105 0000 00B5     		push	{lr}
 1106              		.cfi_def_cfa_offset 4
 1107              		.cfi_offset 14, -4
 1108 0002 83B0     		sub	sp, sp, #12
 1109              		.cfi_def_cfa_offset 16
 1110 0004 0190     		str	r0, [sp, #4]
 1111              		.loc 13 59 0
 1112 0006 019B     		ldr	r3, [sp, #4]
 1113 0008 0433     		adds	r3, r3, #4
 1114 000a 1846     		mov	r0, r3
 1115 000c FFF7FEFF 		bl	_ZN3r2p10Semaphore_11wait_unsafeEv
 1116              		.loc 13 60 0
 1117 0010 03B0     		add	sp, sp, #12
 1118              		.cfi_def_cfa_offset 4
 1119              		@ sp needed
 1120 0012 5DF804FB 		ldr	pc, [sp], #4
 1121              		.cfi_endproc
 1122              	.LFE415:
 1123              		.size	_ZN3r2p9Semaphore11wait_unsafeEv, .-_ZN3r2p9Semaphore11wait_unsafeEv
 1124 0016 00BF     		.section	.text._ZN3r2p10Semaphore_D2Ev,"axG",%progbits,_ZN3r2p10Semaphore_D5Ev,comdat
 1125              		.align	2
 1126              		.weak	_ZN3r2p10Semaphore_D2Ev
 1127              		.thumb
 1128              		.thumb_func
 1129              		.type	_ZN3r2p10Semaphore_D2Ev, %function
 1130              	_ZN3r2p10Semaphore_D2Ev:
 1131              	.LFB423:
 1132              		.loc 12 10 0
 1133              		.cfi_startproc
 1134              		@ args = 0, pretend = 0, frame = 8
 1135              		@ frame_needed = 0, uses_anonymous_args = 0
 1136 0000 00B5     		push	{lr}
 1137              		.cfi_def_cfa_offset 4
 1138              		.cfi_offset 14, -4
 1139 0002 83B0     		sub	sp, sp, #12
 1140              		.cfi_def_cfa_offset 16
ARM GAS  /tmp/ccVvp2Ur.s 			page 21


 1141 0004 0190     		str	r0, [sp, #4]
 1142              	.LBB22:
 1143              		.loc 12 10 0
 1144 0006 0198     		ldr	r0, [sp, #4]
 1145 0008 FFF7FEFF 		bl	_ZN3r2p10UncopyableD2Ev
 1146              	.LBE22:
 1147 000c 019B     		ldr	r3, [sp, #4]
 1148 000e 1846     		mov	r0, r3
 1149 0010 03B0     		add	sp, sp, #12
 1150              		.cfi_def_cfa_offset 4
 1151              		@ sp needed
 1152 0012 5DF804FB 		ldr	pc, [sp], #4
 1153              		.cfi_endproc
 1154              	.LFE423:
 1155              		.size	_ZN3r2p10Semaphore_D2Ev, .-_ZN3r2p10Semaphore_D2Ev
 1156              		.weak	_ZN3r2p10Semaphore_D1Ev
 1157              		.thumb_set _ZN3r2p10Semaphore_D1Ev,_ZN3r2p10Semaphore_D2Ev
 1158 0016 00BF     		.section	.text._ZN3r2p9SemaphoreC2Ebl,"axG",%progbits,_ZN3r2p9SemaphoreC5Ebl,comdat
 1159              		.align	2
 1160              		.weak	_ZN3r2p9SemaphoreC2Ebl
 1161              		.thumb
 1162              		.thumb_func
 1163              		.type	_ZN3r2p9SemaphoreC2Ebl, %function
 1164              	_ZN3r2p9SemaphoreC2Ebl:
 1165              	.LFB428:
 1166              		.loc 13 106 0
 1167              		.cfi_startproc
 1168              		@ args = 0, pretend = 0, frame = 16
 1169              		@ frame_needed = 0, uses_anonymous_args = 0
 1170 0000 00B5     		push	{lr}
 1171              		.cfi_def_cfa_offset 4
 1172              		.cfi_offset 14, -4
 1173 0002 85B0     		sub	sp, sp, #20
 1174              		.cfi_def_cfa_offset 24
 1175 0004 0390     		str	r0, [sp, #12]
 1176 0006 0B46     		mov	r3, r1
 1177 0008 0192     		str	r2, [sp, #4]
 1178 000a 8DF80B30 		strb	r3, [sp, #11]
 1179              	.LBB23:
 1180              		.loc 13 108 0
 1181 000e 0398     		ldr	r0, [sp, #12]
 1182 0010 FFF7FEFF 		bl	_ZN3r2p10UncopyableC2Ev
 1183 0014 039B     		ldr	r3, [sp, #12]
 1184 0016 1A1D     		adds	r2, r3, #4
 1185 0018 9DF80B30 		ldrb	r3, [sp, #11]	@ zero_extendqisi2
 1186 001c 1046     		mov	r0, r2
 1187 001e 1946     		mov	r1, r3
 1188 0020 019A     		ldr	r2, [sp, #4]
 1189 0022 FFF7FEFF 		bl	_ZN3r2p10Semaphore_C1Ebl
 1190              	.LBE23:
 1191              		.loc 13 109 0
 1192 0026 039B     		ldr	r3, [sp, #12]
 1193 0028 1846     		mov	r0, r3
 1194 002a 05B0     		add	sp, sp, #20
 1195              		.cfi_def_cfa_offset 4
 1196              		@ sp needed
 1197 002c 5DF804FB 		ldr	pc, [sp], #4
ARM GAS  /tmp/ccVvp2Ur.s 			page 22


 1198              		.cfi_endproc
 1199              	.LFE428:
 1200              		.size	_ZN3r2p9SemaphoreC2Ebl, .-_ZN3r2p9SemaphoreC2Ebl
 1201              		.weak	_ZN3r2p9SemaphoreC1Ebl
 1202              		.thumb_set _ZN3r2p9SemaphoreC1Ebl,_ZN3r2p9SemaphoreC2Ebl
 1203              		.section	.text._ZNK3r2p14BaseSubscriber9get_topicEv,"axG",%progbits,_ZNK3r2p14BaseSubscriber9get_t
 1204              		.align	2
 1205              		.weak	_ZNK3r2p14BaseSubscriber9get_topicEv
 1206              		.thumb
 1207              		.thumb_func
 1208              		.type	_ZNK3r2p14BaseSubscriber9get_topicEv, %function
 1209              	_ZNK3r2p14BaseSubscriber9get_topicEv:
 1210              	.LFB430:
 1211              		.file 14 "/opt/R2P/core/Middleware/include/r2p/BaseSubscriber.hpp"
 1212              		.loc 14 42 0
 1213              		.cfi_startproc
 1214              		@ args = 0, pretend = 0, frame = 8
 1215              		@ frame_needed = 0, uses_anonymous_args = 0
 1216              		@ link register save eliminated.
 1217 0000 82B0     		sub	sp, sp, #8
 1218              		.cfi_def_cfa_offset 8
 1219 0002 0190     		str	r0, [sp, #4]
 1220              		.loc 14 44 0
 1221 0004 019B     		ldr	r3, [sp, #4]
 1222 0006 5B68     		ldr	r3, [r3, #4]
 1223              		.loc 14 45 0
 1224 0008 1846     		mov	r0, r3
 1225 000a 02B0     		add	sp, sp, #8
 1226              		.cfi_def_cfa_offset 0
 1227              		@ sp needed
 1228 000c 7047     		bx	lr
 1229              		.cfi_endproc
 1230              	.LFE430:
 1231              		.size	_ZNK3r2p14BaseSubscriber9get_topicEv, .-_ZNK3r2p14BaseSubscriber9get_topicEv
 1232 000e 00BF     		.section	.text._ZNK3r2p5Topic8get_nameEv,"axG",%progbits,_ZNK3r2p5Topic8get_nameEv,comdat
 1233              		.align	2
 1234              		.weak	_ZNK3r2p5Topic8get_nameEv
 1235              		.thumb
 1236              		.thumb_func
 1237              		.type	_ZNK3r2p5Topic8get_nameEv, %function
 1238              	_ZNK3r2p5Topic8get_nameEv:
 1239              	.LFB474:
 1240              		.file 15 "/opt/R2P/core/Middleware/include/r2p/Topic.hpp"
 1241              		.loc 15 131 0
 1242              		.cfi_startproc
 1243              		@ args = 0, pretend = 0, frame = 8
 1244              		@ frame_needed = 0, uses_anonymous_args = 0
 1245              		@ link register save eliminated.
 1246 0000 82B0     		sub	sp, sp, #8
 1247              		.cfi_def_cfa_offset 8
 1248 0002 0190     		str	r0, [sp, #4]
 1249              		.loc 15 133 0
 1250 0004 019B     		ldr	r3, [sp, #4]
 1251 0006 1B68     		ldr	r3, [r3]
 1252              		.loc 15 134 0
 1253 0008 1846     		mov	r0, r3
 1254 000a 02B0     		add	sp, sp, #8
ARM GAS  /tmp/ccVvp2Ur.s 			page 23


 1255              		.cfi_def_cfa_offset 0
 1256              		@ sp needed
 1257 000c 7047     		bx	lr
 1258              		.cfi_endproc
 1259              	.LFE474:
 1260              		.size	_ZNK3r2p5Topic8get_nameEv, .-_ZNK3r2p5Topic8get_nameEv
 1261 000e 00BF     		.section	.text._ZNK3r2p5Topic19get_publish_timeoutEv,"axG",%progbits,_ZNK3r2p5Topic19get_publish_t
 1262              		.align	2
 1263              		.weak	_ZNK3r2p5Topic19get_publish_timeoutEv
 1264              		.thumb
 1265              		.thumb_func
 1266              		.type	_ZNK3r2p5Topic19get_publish_timeoutEv, %function
 1267              	_ZNK3r2p5Topic19get_publish_timeoutEv:
 1268              	.LFB475:
 1269              		.loc 15 138 0
 1270              		.cfi_startproc
 1271              		@ args = 0, pretend = 0, frame = 8
 1272              		@ frame_needed = 0, uses_anonymous_args = 0
 1273              		@ link register save eliminated.
 1274 0000 82B0     		sub	sp, sp, #8
 1275              		.cfi_def_cfa_offset 8
 1276 0002 0190     		str	r0, [sp, #4]
 1277              		.loc 15 140 0
 1278 0004 019B     		ldr	r3, [sp, #4]
 1279 0006 0433     		adds	r3, r3, #4
 1280              		.loc 15 141 0
 1281 0008 1846     		mov	r0, r3
 1282 000a 02B0     		add	sp, sp, #8
 1283              		.cfi_def_cfa_offset 0
 1284              		@ sp needed
 1285 000c 7047     		bx	lr
 1286              		.cfi_endproc
 1287              	.LFE475:
 1288              		.size	_ZNK3r2p5Topic19get_publish_timeoutEv, .-_ZNK3r2p5Topic19get_publish_timeoutEv
 1289 000e 00BF     		.section	.text._ZNK3r2p5Topic16get_payload_sizeEv,"axG",%progbits,_ZNK3r2p5Topic16get_payload_size
 1290              		.align	2
 1291              		.weak	_ZNK3r2p5Topic16get_payload_sizeEv
 1292              		.thumb
 1293              		.thumb_func
 1294              		.type	_ZNK3r2p5Topic16get_payload_sizeEv, %function
 1295              	_ZNK3r2p5Topic16get_payload_sizeEv:
 1296              	.LFB477:
 1297              		.loc 15 152 0
 1298              		.cfi_startproc
 1299              		@ args = 0, pretend = 0, frame = 8
 1300              		@ frame_needed = 0, uses_anonymous_args = 0
 1301 0000 00B5     		push	{lr}
 1302              		.cfi_def_cfa_offset 4
 1303              		.cfi_offset 14, -4
 1304 0002 83B0     		sub	sp, sp, #12
 1305              		.cfi_def_cfa_offset 16
 1306 0004 0190     		str	r0, [sp, #4]
 1307              		.loc 15 154 0
 1308 0006 019B     		ldr	r3, [sp, #4]
 1309 0008 0833     		adds	r3, r3, #8
 1310 000a 1846     		mov	r0, r3
 1311 000c FFF7FEFF 		bl	_ZNK3r2p11MemoryPool_13get_item_sizeEv
ARM GAS  /tmp/ccVvp2Ur.s 			page 24


 1312 0010 0346     		mov	r3, r0
 1313 0012 1846     		mov	r0, r3
 1314 0014 FFF7FEFF 		bl	_ZN3r2p7Message16get_payload_sizeEj
 1315 0018 0346     		mov	r3, r0
 1316              		.loc 15 155 0
 1317 001a 1846     		mov	r0, r3
 1318 001c 03B0     		add	sp, sp, #12
 1319              		.cfi_def_cfa_offset 4
 1320              		@ sp needed
 1321 001e 5DF804FB 		ldr	pc, [sp], #4
 1322              		.cfi_endproc
 1323              	.LFE477:
 1324              		.size	_ZNK3r2p5Topic16get_payload_sizeEv, .-_ZNK3r2p5Topic16get_payload_sizeEv
 1325 0022 00BF     		.section	.text._ZN3r2p5Topic12alloc_unsafeEv,"axG",%progbits,_ZN3r2p5Topic12alloc_unsafeEv,comdat
 1326              		.align	2
 1327              		.weak	_ZN3r2p5Topic12alloc_unsafeEv
 1328              		.thumb
 1329              		.thumb_func
 1330              		.type	_ZN3r2p5Topic12alloc_unsafeEv, %function
 1331              	_ZN3r2p5Topic12alloc_unsafeEv:
 1332              	.LFB490:
 1333              		.loc 15 250 0
 1334              		.cfi_startproc
 1335              		@ args = 0, pretend = 0, frame = 8
 1336              		@ frame_needed = 0, uses_anonymous_args = 0
 1337 0000 10B5     		push	{r4, lr}
 1338              		.cfi_def_cfa_offset 8
 1339              		.cfi_offset 4, -8
 1340              		.cfi_offset 14, -4
 1341 0002 82B0     		sub	sp, sp, #8
 1342              		.cfi_def_cfa_offset 16
 1343 0004 0190     		str	r0, [sp, #4]
 1344              	.LBB24:
 1345              		.loc 15 252 0
 1346 0006 019B     		ldr	r3, [sp, #4]
 1347 0008 0833     		adds	r3, r3, #8
 1348 000a 1846     		mov	r0, r3
 1349 000c FFF7FEFF 		bl	_ZN3r2p11MemoryPool_12alloc_unsafeEv
 1350 0010 0446     		mov	r4, r0
 1351              		.loc 15 253 0
 1352 0012 002C     		cmp	r4, #0
 1353 0014 04D0     		beq	.L75
 1354              		.loc 15 254 0
 1355 0016 2046     		mov	r0, r4
 1356 0018 FFF7FEFF 		bl	_ZN3r2p7Message12reset_unsafeEv
 1357              		.loc 15 255 0
 1358 001c 2346     		mov	r3, r4
 1359 001e 00E0     		b	.L76
 1360              	.L75:
 1361              		.loc 15 257 0
 1362 0020 0023     		movs	r3, #0
 1363              	.L76:
 1364              	.LBE24:
 1365              		.loc 15 258 0
 1366 0022 1846     		mov	r0, r3
 1367 0024 02B0     		add	sp, sp, #8
 1368              		.cfi_def_cfa_offset 8
ARM GAS  /tmp/ccVvp2Ur.s 			page 25


 1369              		@ sp needed
 1370 0026 10BD     		pop	{r4, pc}
 1371              		.cfi_endproc
 1372              	.LFE490:
 1373              		.size	_ZN3r2p5Topic12alloc_unsafeEv, .-_ZN3r2p5Topic12alloc_unsafeEv
 1374              		.section	.text._ZN3r2p5Topic8has_nameERKS0_PKc,"axG",%progbits,_ZN3r2p5Topic8has_nameERKS0_PKc,com
 1375              		.align	2
 1376              		.weak	_ZN3r2p5Topic8has_nameERKS0_PKc
 1377              		.thumb
 1378              		.thumb_func
 1379              		.type	_ZN3r2p5Topic8has_nameERKS0_PKc, %function
 1380              	_ZN3r2p5Topic8has_nameERKS0_PKc:
 1381              	.LFB500:
 1382              		.loc 15 337 0
 1383              		.cfi_startproc
 1384              		@ args = 0, pretend = 0, frame = 8
 1385              		@ frame_needed = 0, uses_anonymous_args = 0
 1386 0000 00B5     		push	{lr}
 1387              		.cfi_def_cfa_offset 4
 1388              		.cfi_offset 14, -4
 1389 0002 83B0     		sub	sp, sp, #12
 1390              		.cfi_def_cfa_offset 16
 1391 0004 0190     		str	r0, [sp, #4]
 1392 0006 0091     		str	r1, [sp]
 1393              		.loc 15 339 0
 1394 0008 009B     		ldr	r3, [sp]
 1395 000a 002B     		cmp	r3, #0
 1396 000c 0DD0     		beq	.L78
 1397              		.loc 15 340 0 discriminator 1
 1398 000e 0198     		ldr	r0, [sp, #4]
 1399 0010 FFF7FEFF 		bl	_ZNK3r2p5Topic8get_nameEv
 1400 0014 0346     		mov	r3, r0
 1401 0016 1846     		mov	r0, r3
 1402 0018 0099     		ldr	r1, [sp]
 1403 001a 1022     		movs	r2, #16
 1404 001c FFF7FEFF 		bl	strncmp
 1405 0020 0346     		mov	r3, r0
 1406              		.loc 15 339 0 discriminator 1
 1407 0022 002B     		cmp	r3, #0
 1408 0024 01D1     		bne	.L78
 1409              		.loc 15 339 0 is_stmt 0 discriminator 3
 1410 0026 0123     		movs	r3, #1
 1411 0028 00E0     		b	.L79
 1412              	.L78:
 1413              		.loc 15 339 0 discriminator 4
 1414 002a 0023     		movs	r3, #0
 1415              	.L79:
 1416              		.loc 15 341 0 is_stmt 1
 1417 002c 1846     		mov	r0, r3
 1418 002e 03B0     		add	sp, sp, #12
 1419              		.cfi_def_cfa_offset 4
 1420              		@ sp needed
 1421 0030 5DF804FB 		ldr	pc, [sp], #4
 1422              		.cfi_endproc
 1423              	.LFE500:
 1424              		.size	_ZN3r2p5Topic8has_nameERKS0_PKc, .-_ZN3r2p5Topic8has_nameERKS0_PKc
 1425              		.section	.rodata
ARM GAS  /tmp/ccVvp2Ur.s 			page 26


 1426              		.align	2
 1427              	.LC0:
 1428 0000 5232505F 		.ascii	"R2P_ASSERT()\000"
 1428      41535345 
 1428      52542829 
 1428      00
 1429              		.section	.text._ZN3r2p13BasePublisher12alloc_unsafeERPNS_7MessageE,"axG",%progbits,_ZN3r2p13BasePu
 1430              		.align	2
 1431              		.weak	_ZN3r2p13BasePublisher12alloc_unsafeERPNS_7MessageE
 1432              		.thumb
 1433              		.thumb_func
 1434              		.type	_ZN3r2p13BasePublisher12alloc_unsafeERPNS_7MessageE, %function
 1435              	_ZN3r2p13BasePublisher12alloc_unsafeERPNS_7MessageE:
 1436              	.LFB515:
 1437              		.file 16 "/opt/R2P/core/Middleware/include/r2p/BasePublisher.hpp"
 1438              		.loc 16 64 0
 1439              		.cfi_startproc
 1440              		@ args = 0, pretend = 0, frame = 8
 1441              		@ frame_needed = 0, uses_anonymous_args = 0
 1442 0000 00B5     		push	{lr}
 1443              		.cfi_def_cfa_offset 4
 1444              		.cfi_offset 14, -4
 1445 0002 83B0     		sub	sp, sp, #12
 1446              		.cfi_def_cfa_offset 16
 1447 0004 0190     		str	r0, [sp, #4]
 1448 0006 0091     		str	r1, [sp]
 1449              		.loc 16 66 0
 1450 0008 019B     		ldr	r3, [sp, #4]
 1451 000a 5B68     		ldr	r3, [r3, #4]
 1452 000c 002B     		cmp	r3, #0
 1453 000e 02D1     		bne	.L82
 1454              		.loc 16 66 0 is_stmt 0 discriminator 1
 1455 0010 0A48     		ldr	r0, .L84
 1456 0012 FFF7FEFF 		bl	chDbgPanic
 1457              	.L82:
 1458              		.loc 16 68 0 is_stmt 1
 1459 0016 019B     		ldr	r3, [sp, #4]
 1460 0018 5B68     		ldr	r3, [r3, #4]
 1461 001a 1846     		mov	r0, r3
 1462 001c FFF7FEFF 		bl	_ZN3r2p5Topic12alloc_unsafeEv
 1463 0020 0246     		mov	r2, r0
 1464 0022 009B     		ldr	r3, [sp]
 1465 0024 1A60     		str	r2, [r3]
 1466              		.loc 16 69 0
 1467 0026 009B     		ldr	r3, [sp]
 1468 0028 1B68     		ldr	r3, [r3]
 1469 002a 002B     		cmp	r3, #0
 1470 002c 14BF     		ite	ne
 1471 002e 0123     		movne	r3, #1
 1472 0030 0023     		moveq	r3, #0
 1473 0032 DBB2     		uxtb	r3, r3
 1474              		.loc 16 70 0
 1475 0034 1846     		mov	r0, r3
 1476 0036 03B0     		add	sp, sp, #12
 1477              		.cfi_def_cfa_offset 4
 1478              		@ sp needed
 1479 0038 5DF804FB 		ldr	pc, [sp], #4
ARM GAS  /tmp/ccVvp2Ur.s 			page 27


 1480              	.L85:
 1481              		.align	2
 1482              	.L84:
 1483 003c 00000000 		.word	.LC0
 1484              		.cfi_endproc
 1485              	.LFE515:
 1486              		.size	_ZN3r2p13BasePublisher12alloc_unsafeERPNS_7MessageE, .-_ZN3r2p13BasePublisher12alloc_unsafeE
 1487              		.section	.text._ZN3r2p13BasePublisher5allocERPNS_7MessageE,"axG",%progbits,_ZN3r2p13BasePublisher5
 1488              		.align	2
 1489              		.weak	_ZN3r2p13BasePublisher5allocERPNS_7MessageE
 1490              		.thumb
 1491              		.thumb_func
 1492              		.type	_ZN3r2p13BasePublisher5allocERPNS_7MessageE, %function
 1493              	_ZN3r2p13BasePublisher5allocERPNS_7MessageE:
 1494              	.LFB516:
 1495              		.loc 16 74 0
 1496              		.cfi_startproc
 1497              		@ args = 0, pretend = 0, frame = 16
 1498              		@ frame_needed = 0, uses_anonymous_args = 0
 1499 0000 00B5     		push	{lr}
 1500              		.cfi_def_cfa_offset 4
 1501              		.cfi_offset 14, -4
 1502 0002 85B0     		sub	sp, sp, #20
 1503              		.cfi_def_cfa_offset 24
 1504 0004 0190     		str	r0, [sp, #4]
 1505 0006 0091     		str	r1, [sp]
 1506              	.LBB25:
 1507              		.loc 16 76 0
 1508 0008 FFF7FEFF 		bl	_ZN3r2p7SysLock7acquireEv
 1509              		.loc 16 77 0
 1510 000c 0198     		ldr	r0, [sp, #4]
 1511 000e 0099     		ldr	r1, [sp]
 1512 0010 FFF7FEFF 		bl	_ZN3r2p13BasePublisher12alloc_unsafeERPNS_7MessageE
 1513 0014 0346     		mov	r3, r0
 1514 0016 8DF80F30 		strb	r3, [sp, #15]
 1515              		.loc 16 78 0
 1516 001a FFF7FEFF 		bl	_ZN3r2p7SysLock7releaseEv
 1517              		.loc 16 79 0
 1518 001e 9DF80F30 		ldrb	r3, [sp, #15]	@ zero_extendqisi2
 1519              	.LBE25:
 1520              		.loc 16 80 0
 1521 0022 1846     		mov	r0, r3
 1522 0024 05B0     		add	sp, sp, #20
 1523              		.cfi_def_cfa_offset 4
 1524              		@ sp needed
 1525 0026 5DF804FB 		ldr	pc, [sp], #4
 1526              		.cfi_endproc
 1527              	.LFE516:
 1528              		.size	_ZN3r2p13BasePublisher5allocERPNS_7MessageE, .-_ZN3r2p13BasePublisher5allocERPNS_7MessageE
 1529 002a 00BF     		.section	.text._ZN3r2p13BasePublisher15publish_locallyERNS_7MessageE,"axG",%progbits,_ZN3r2p13Base
 1530              		.align	2
 1531              		.weak	_ZN3r2p13BasePublisher15publish_locallyERNS_7MessageE
 1532              		.thumb
 1533              		.thumb_func
 1534              		.type	_ZN3r2p13BasePublisher15publish_locallyERNS_7MessageE, %function
 1535              	_ZN3r2p13BasePublisher15publish_locallyERNS_7MessageE:
 1536              	.LFB517:
ARM GAS  /tmp/ccVvp2Ur.s 			page 28


 1537              		.loc 16 84 0
 1538              		.cfi_startproc
 1539              		@ args = 0, pretend = 0, frame = 16
 1540              		@ frame_needed = 0, uses_anonymous_args = 0
 1541 0000 10B5     		push	{r4, lr}
 1542              		.cfi_def_cfa_offset 8
 1543              		.cfi_offset 4, -8
 1544              		.cfi_offset 14, -4
 1545 0002 84B0     		sub	sp, sp, #16
 1546              		.cfi_def_cfa_offset 24
 1547 0004 0190     		str	r0, [sp, #4]
 1548 0006 0091     		str	r1, [sp]
 1549              		.loc 16 86 0
 1550 0008 019B     		ldr	r3, [sp, #4]
 1551 000a 5B68     		ldr	r3, [r3, #4]
 1552 000c 002B     		cmp	r3, #0
 1553 000e 02D1     		bne	.L89
 1554              		.loc 16 86 0 is_stmt 0 discriminator 1
 1555 0010 0948     		ldr	r0, .L91
 1556 0012 FFF7FEFF 		bl	chDbgPanic
 1557              	.L89:
 1558              		.loc 16 88 0 is_stmt 1
 1559 0016 019B     		ldr	r3, [sp, #4]
 1560 0018 5C68     		ldr	r4, [r3, #4]
 1561 001a 03AB     		add	r3, sp, #12
 1562 001c 1846     		mov	r0, r3
 1563 001e FFF7FEFF 		bl	_ZN3r2p4Time3nowEv
 1564 0022 03AB     		add	r3, sp, #12
 1565 0024 2046     		mov	r0, r4
 1566 0026 0099     		ldr	r1, [sp]
 1567 0028 1A46     		mov	r2, r3
 1568 002a FFF7FEFF 		bl	_ZN3r2p5Topic13notify_localsERNS_7MessageERKNS_4TimeE
 1569 002e 0346     		mov	r3, r0
 1570              		.loc 16 89 0
 1571 0030 1846     		mov	r0, r3
 1572 0032 04B0     		add	sp, sp, #16
 1573              		.cfi_def_cfa_offset 8
 1574              		@ sp needed
 1575 0034 10BD     		pop	{r4, pc}
 1576              	.L92:
 1577 0036 00BF     		.align	2
 1578              	.L91:
 1579 0038 00000000 		.word	.LC0
 1580              		.cfi_endproc
 1581              	.LFE517:
 1582              		.size	_ZN3r2p13BasePublisher15publish_locallyERNS_7MessageE, .-_ZN3r2p13BasePublisher15publish_loc
 1583              		.section	.text._ZN3r2p13BasePublisher9has_topicERKS0_PKc,"axG",%progbits,_ZN3r2p13BasePublisher9ha
 1584              		.align	2
 1585              		.weak	_ZN3r2p13BasePublisher9has_topicERKS0_PKc
 1586              		.thumb
 1587              		.thumb_func
 1588              		.type	_ZN3r2p13BasePublisher9has_topicERKS0_PKc, %function
 1589              	_ZN3r2p13BasePublisher9has_topicERKS0_PKc:
 1590              	.LFB519:
 1591              		.loc 16 102 0
 1592              		.cfi_startproc
 1593              		@ args = 0, pretend = 0, frame = 8
ARM GAS  /tmp/ccVvp2Ur.s 			page 29


 1594              		@ frame_needed = 0, uses_anonymous_args = 0
 1595 0000 00B5     		push	{lr}
 1596              		.cfi_def_cfa_offset 4
 1597              		.cfi_offset 14, -4
 1598 0002 83B0     		sub	sp, sp, #12
 1599              		.cfi_def_cfa_offset 16
 1600 0004 0190     		str	r0, [sp, #4]
 1601 0006 0091     		str	r1, [sp]
 1602              		.loc 16 104 0
 1603 0008 019B     		ldr	r3, [sp, #4]
 1604 000a 5B68     		ldr	r3, [r3, #4]
 1605 000c 002B     		cmp	r3, #0
 1606 000e 0AD0     		beq	.L94
 1607              		.loc 16 104 0 is_stmt 0 discriminator 1
 1608 0010 019B     		ldr	r3, [sp, #4]
 1609 0012 5B68     		ldr	r3, [r3, #4]
 1610 0014 1846     		mov	r0, r3
 1611 0016 0099     		ldr	r1, [sp]
 1612 0018 FFF7FEFF 		bl	_ZN3r2p5Topic8has_nameERKS0_PKc
 1613 001c 0346     		mov	r3, r0
 1614 001e 002B     		cmp	r3, #0
 1615 0020 01D0     		beq	.L94
 1616              		.loc 16 104 0 discriminator 3
 1617 0022 0123     		movs	r3, #1
 1618 0024 00E0     		b	.L95
 1619              	.L94:
 1620              		.loc 16 104 0 discriminator 4
 1621 0026 0023     		movs	r3, #0
 1622              	.L95:
 1623              		.loc 16 105 0 is_stmt 1 discriminator 6
 1624 0028 1846     		mov	r0, r3
 1625 002a 03B0     		add	sp, sp, #12
 1626              		.cfi_def_cfa_offset 4
 1627              		@ sp needed
 1628 002c 5DF804FB 		ldr	pc, [sp], #4
 1629              		.cfi_endproc
 1630              	.LFE519:
 1631              		.size	_ZN3r2p13BasePublisher9has_topicERKS0_PKc, .-_ZN3r2p13BasePublisher9has_topicERKS0_PKc
 1632              		.section	.text._ZN3r2p14DebugTransport23notify_first_sub_unsafeERKNS_15DebugSubscriberE,"axG",%pro
 1633              		.align	2
 1634              		.weak	_ZN3r2p14DebugTransport23notify_first_sub_unsafeERKNS_15DebugSubscriberE
 1635              		.thumb
 1636              		.thumb_func
 1637              		.type	_ZN3r2p14DebugTransport23notify_first_sub_unsafeERKNS_15DebugSubscriberE, %function
 1638              	_ZN3r2p14DebugTransport23notify_first_sub_unsafeERKNS_15DebugSubscriberE:
 1639              	.LFB523:
 1640              		.file 17 "/opt/R2P/core/Middleware/include/r2p/transport/DebugTransport.hpp"
 1641              		.loc 17 114 0
 1642              		.cfi_startproc
 1643              		@ args = 0, pretend = 0, frame = 8
 1644              		@ frame_needed = 0, uses_anonymous_args = 0
 1645 0000 00B5     		push	{lr}
 1646              		.cfi_def_cfa_offset 4
 1647              		.cfi_offset 14, -4
 1648 0002 83B0     		sub	sp, sp, #12
 1649              		.cfi_def_cfa_offset 16
 1650 0004 0190     		str	r0, [sp, #4]
ARM GAS  /tmp/ccVvp2Ur.s 			page 30


 1651 0006 0091     		str	r1, [sp]
 1652              		.loc 17 116 0
 1653 0008 019B     		ldr	r3, [sp, #4]
 1654 000a 03F16002 		add	r2, r3, #96
 1655 000e 009B     		ldr	r3, [sp]
 1656 0010 3033     		adds	r3, r3, #48
 1657 0012 1046     		mov	r0, r2
 1658 0014 1946     		mov	r1, r3
 1659 0016 FFF7FEFF 		bl	_ZN3r2p11StaticQueueINS_14BaseSubscriberEE11post_unsafeERNS2_4LinkE
 1660              		.loc 17 117 0
 1661 001a 019B     		ldr	r3, [sp, #4]
 1662 001c 5033     		adds	r3, r3, #80
 1663 001e 1846     		mov	r0, r3
 1664 0020 FFF7FEFF 		bl	_ZN3r2p9Semaphore13signal_unsafeEv
 1665              		.loc 17 118 0
 1666 0024 03B0     		add	sp, sp, #12
 1667              		.cfi_def_cfa_offset 4
 1668              		@ sp needed
 1669 0026 5DF804FB 		ldr	pc, [sp], #4
 1670              		.cfi_endproc
 1671              	.LFE523:
 1672              		.size	_ZN3r2p14DebugTransport23notify_first_sub_unsafeERKNS_15DebugSubscriberE, .-_ZN3r2p14DebugTr
 1673 002a 00BF     		.section	.text._ZNK3r2p14DebugTransport16create_publisherERNS_5TopicEPKh,"axG",%progbits,_ZNK3r2p1
 1674              		.align	2
 1675              		.weak	_ZNK3r2p14DebugTransport16create_publisherERNS_5TopicEPKh
 1676              		.thumb
 1677              		.thumb_func
 1678              		.type	_ZNK3r2p14DebugTransport16create_publisherERNS_5TopicEPKh, %function
 1679              	_ZNK3r2p14DebugTransport16create_publisherERNS_5TopicEPKh:
 1680              	.LFB524:
 1681              		.loc 17 124 0
 1682              		.cfi_startproc
 1683              		@ args = 0, pretend = 0, frame = 16
 1684              		@ frame_needed = 0, uses_anonymous_args = 0
 1685 0000 10B5     		push	{r4, lr}
 1686              		.cfi_def_cfa_offset 8
 1687              		.cfi_offset 4, -8
 1688              		.cfi_offset 14, -4
 1689 0002 84B0     		sub	sp, sp, #16
 1690              		.cfi_def_cfa_offset 24
 1691 0004 0390     		str	r0, [sp, #12]
 1692 0006 0291     		str	r1, [sp, #8]
 1693 0008 0192     		str	r2, [sp, #4]
 1694              		.loc 17 128 0
 1695 000a 1420     		movs	r0, #20
 1696 000c FFF7FEFF 		bl	_Znwj
 1697 0010 0446     		mov	r4, r0
 1698 0012 039B     		ldr	r3, [sp, #12]
 1699 0014 2046     		mov	r0, r4
 1700 0016 1946     		mov	r1, r3
 1701 0018 FFF7FEFF 		bl	_ZN3r2p14DebugPublisherC1ERNS_9TransportE
 1702 001c 2346     		mov	r3, r4
 1703              		.loc 17 129 0
 1704 001e 1846     		mov	r0, r3
 1705 0020 04B0     		add	sp, sp, #16
 1706              		.cfi_def_cfa_offset 8
 1707              		@ sp needed
ARM GAS  /tmp/ccVvp2Ur.s 			page 31


 1708 0022 10BD     		pop	{r4, pc}
 1709              		.cfi_endproc
 1710              	.LFE524:
 1711              		.size	_ZNK3r2p14DebugTransport16create_publisherERNS_5TopicEPKh, .-_ZNK3r2p14DebugTransport16creat
 1712              		.section	.text._ZNK3r2p14DebugTransport17create_subscriberERNS_5TopicEPNS_22TimestampedMsgPtrQueue
 1713              		.align	2
 1714              		.weak	_ZNK3r2p14DebugTransport17create_subscriberERNS_5TopicEPNS_22TimestampedMsgPtrQueue5EntryEj
 1715              		.thumb
 1716              		.thumb_func
 1717              		.type	_ZNK3r2p14DebugTransport17create_subscriberERNS_5TopicEPNS_22TimestampedMsgPtrQueue5EntryEj,
 1718              	_ZNK3r2p14DebugTransport17create_subscriberERNS_5TopicEPNS_22TimestampedMsgPtrQueue5EntryEj:
 1719              	.LFB525:
 1720              		.loc 17 136 0
 1721              		.cfi_startproc
 1722              		@ args = 0, pretend = 0, frame = 16
 1723              		@ frame_needed = 0, uses_anonymous_args = 0
 1724 0000 10B5     		push	{r4, lr}
 1725              		.cfi_def_cfa_offset 8
 1726              		.cfi_offset 4, -8
 1727              		.cfi_offset 14, -4
 1728 0002 84B0     		sub	sp, sp, #16
 1729              		.cfi_def_cfa_offset 24
 1730 0004 0390     		str	r0, [sp, #12]
 1731 0006 0291     		str	r1, [sp, #8]
 1732 0008 0192     		str	r2, [sp, #4]
 1733 000a 0093     		str	r3, [sp]
 1734              		.loc 17 140 0
 1735 000c 3820     		movs	r0, #56
 1736 000e FFF7FEFF 		bl	_Znwj
 1737 0012 0446     		mov	r4, r0
 1738 0014 2046     		mov	r0, r4
 1739 0016 0399     		ldr	r1, [sp, #12]
 1740 0018 019A     		ldr	r2, [sp, #4]
 1741 001a 009B     		ldr	r3, [sp]
 1742 001c FFF7FEFF 		bl	_ZN3r2p15DebugSubscriberC1ERNS_14DebugTransportEPNS_22TimestampedMsgPtrQueue5EntryEj
 1743 0020 2346     		mov	r3, r4
 1744              		.loc 17 141 0
 1745 0022 1846     		mov	r0, r3
 1746 0024 04B0     		add	sp, sp, #16
 1747              		.cfi_def_cfa_offset 8
 1748              		@ sp needed
 1749 0026 10BD     		pop	{r4, pc}
 1750              		.cfi_endproc
 1751              	.LFE525:
 1752              		.size	_ZNK3r2p14DebugTransport17create_subscriberERNS_5TopicEPNS_22TimestampedMsgPtrQueue5EntryEj,
 1753              		.section	.text._ZN3r2p14DebugTransport9send_charEcm,"axG",%progbits,_ZN3r2p14DebugTransport9send_c
 1754              		.align	2
 1755              		.weak	_ZN3r2p14DebugTransport9send_charEcm
 1756              		.thumb
 1757              		.thumb_func
 1758              		.type	_ZN3r2p14DebugTransport9send_charEcm, %function
 1759              	_ZN3r2p14DebugTransport9send_charEcm:
 1760              	.LFB526:
 1761              		.loc 17 145 0
 1762              		.cfi_startproc
 1763              		@ args = 0, pretend = 0, frame = 16
 1764              		@ frame_needed = 0, uses_anonymous_args = 0
ARM GAS  /tmp/ccVvp2Ur.s 			page 32


 1765 0000 00B5     		push	{lr}
 1766              		.cfi_def_cfa_offset 4
 1767              		.cfi_offset 14, -4
 1768 0002 85B0     		sub	sp, sp, #20
 1769              		.cfi_def_cfa_offset 24
 1770 0004 0390     		str	r0, [sp, #12]
 1771 0006 0B46     		mov	r3, r1
 1772 0008 0192     		str	r2, [sp, #4]
 1773 000a 8DF80B30 		strb	r3, [sp, #11]
 1774              		.loc 17 147 0
 1775 000e 039B     		ldr	r3, [sp, #12]
 1776 0010 9B6C     		ldr	r3, [r3, #72]
 1777 0012 1B68     		ldr	r3, [r3]
 1778 0014 1B69     		ldr	r3, [r3, #16]
 1779 0016 039A     		ldr	r2, [sp, #12]
 1780 0018 916C     		ldr	r1, [r2, #72]
 1781 001a 9DF80B20 		ldrb	r2, [sp, #11]	@ zero_extendqisi2
 1782 001e 0846     		mov	r0, r1
 1783 0020 1146     		mov	r1, r2
 1784 0022 019A     		ldr	r2, [sp, #4]
 1785 0024 9847     		blx	r3
 1786 0026 0346     		mov	r3, r0
 1787 0028 002B     		cmp	r3, #0
 1788 002a 0CBF     		ite	eq
 1789 002c 0123     		moveq	r3, #1
 1790 002e 0023     		movne	r3, #0
 1791 0030 DBB2     		uxtb	r3, r3
 1792              		.loc 17 148 0
 1793 0032 1846     		mov	r0, r3
 1794 0034 05B0     		add	sp, sp, #20
 1795              		.cfi_def_cfa_offset 4
 1796              		@ sp needed
 1797 0036 5DF804FB 		ldr	pc, [sp], #4
 1798              		.cfi_endproc
 1799              	.LFE526:
 1800              		.size	_ZN3r2p14DebugTransport9send_charEcm, .-_ZN3r2p14DebugTransport9send_charEcm
 1801 003a 00BF     		.section	.text._ZN3r2p14DebugTransport11expect_charEcm,"axG",%progbits,_ZN3r2p14DebugTransport11ex
 1802              		.align	2
 1803              		.weak	_ZN3r2p14DebugTransport11expect_charEcm
 1804              		.thumb
 1805              		.thumb_func
 1806              		.type	_ZN3r2p14DebugTransport11expect_charEcm, %function
 1807              	_ZN3r2p14DebugTransport11expect_charEcm:
 1808              	.LFB527:
 1809              		.loc 17 152 0
 1810              		.cfi_startproc
 1811              		@ args = 0, pretend = 0, frame = 16
 1812              		@ frame_needed = 0, uses_anonymous_args = 0
 1813 0000 00B5     		push	{lr}
 1814              		.cfi_def_cfa_offset 4
 1815              		.cfi_offset 14, -4
 1816 0002 85B0     		sub	sp, sp, #20
 1817              		.cfi_def_cfa_offset 24
 1818 0004 0390     		str	r0, [sp, #12]
 1819 0006 0B46     		mov	r3, r1
 1820 0008 0192     		str	r2, [sp, #4]
 1821 000a 8DF80B30 		strb	r3, [sp, #11]
ARM GAS  /tmp/ccVvp2Ur.s 			page 33


 1822              		.loc 17 154 0
 1823 000e 039B     		ldr	r3, [sp, #12]
 1824 0010 9B6C     		ldr	r3, [r3, #72]
 1825 0012 1B68     		ldr	r3, [r3]
 1826 0014 5B69     		ldr	r3, [r3, #20]
 1827 0016 039A     		ldr	r2, [sp, #12]
 1828 0018 926C     		ldr	r2, [r2, #72]
 1829 001a 1046     		mov	r0, r2
 1830 001c 0199     		ldr	r1, [sp, #4]
 1831 001e 9847     		blx	r3
 1832 0020 0246     		mov	r2, r0
 1833 0022 9DF80B30 		ldrb	r3, [sp, #11]	@ zero_extendqisi2
 1834 0026 9A42     		cmp	r2, r3
 1835 0028 0CBF     		ite	eq
 1836 002a 0123     		moveq	r3, #1
 1837 002c 0023     		movne	r3, #0
 1838 002e DBB2     		uxtb	r3, r3
 1839              		.loc 17 155 0
 1840 0030 1846     		mov	r0, r3
 1841 0032 05B0     		add	sp, sp, #20
 1842              		.cfi_def_cfa_offset 4
 1843              		@ sp needed
 1844 0034 5DF804FB 		ldr	pc, [sp], #4
 1845              		.cfi_endproc
 1846              	.LFE527:
 1847              		.size	_ZN3r2p14DebugTransport11expect_charEcm, .-_ZN3r2p14DebugTransport11expect_charEcm
 1848              		.section	.text._ZN3r2p14DebugTransport9recv_charERcm,"axG",%progbits,_ZN3r2p14DebugTransport9recv_
 1849              		.align	2
 1850              		.weak	_ZN3r2p14DebugTransport9recv_charERcm
 1851              		.thumb
 1852              		.thumb_func
 1853              		.type	_ZN3r2p14DebugTransport9recv_charERcm, %function
 1854              	_ZN3r2p14DebugTransport9recv_charERcm:
 1855              	.LFB528:
 1856              		.loc 17 159 0
 1857              		.cfi_startproc
 1858              		@ args = 0, pretend = 0, frame = 16
 1859              		@ frame_needed = 0, uses_anonymous_args = 0
 1860 0000 10B5     		push	{r4, lr}
 1861              		.cfi_def_cfa_offset 8
 1862              		.cfi_offset 4, -8
 1863              		.cfi_offset 14, -4
 1864 0002 84B0     		sub	sp, sp, #16
 1865              		.cfi_def_cfa_offset 24
 1866 0004 0390     		str	r0, [sp, #12]
 1867 0006 0291     		str	r1, [sp, #8]
 1868 0008 0192     		str	r2, [sp, #4]
 1869              	.LBB26:
 1870              		.loc 17 161 0
 1871 000a 039B     		ldr	r3, [sp, #12]
 1872 000c 9B6C     		ldr	r3, [r3, #72]
 1873 000e 1B68     		ldr	r3, [r3]
 1874 0010 5B69     		ldr	r3, [r3, #20]
 1875 0012 039A     		ldr	r2, [sp, #12]
 1876 0014 926C     		ldr	r2, [r2, #72]
 1877 0016 1046     		mov	r0, r2
 1878 0018 0199     		ldr	r1, [sp, #4]
ARM GAS  /tmp/ccVvp2Ur.s 			page 34


 1879 001a 9847     		blx	r3
 1880 001c 0446     		mov	r4, r0
 1881              		.loc 17 162 0
 1882 001e 24F0FF03 		bic	r3, r4, #255
 1883 0022 002B     		cmp	r3, #0
 1884 0024 04D1     		bne	.L107
 1885              		.loc 17 163 0
 1886 0026 E2B2     		uxtb	r2, r4
 1887 0028 029B     		ldr	r3, [sp, #8]
 1888 002a 1A70     		strb	r2, [r3]
 1889              		.loc 17 164 0
 1890 002c 0123     		movs	r3, #1
 1891 002e 00E0     		b	.L108
 1892              	.L107:
 1893              		.loc 17 166 0
 1894 0030 0023     		movs	r3, #0
 1895              	.L108:
 1896              	.LBE26:
 1897              		.loc 17 167 0
 1898 0032 1846     		mov	r0, r3
 1899 0034 04B0     		add	sp, sp, #16
 1900              		.cfi_def_cfa_offset 8
 1901              		@ sp needed
 1902 0036 10BD     		pop	{r4, pc}
 1903              		.cfi_endproc
 1904              	.LFE528:
 1905              		.size	_ZN3r2p14DebugTransport9recv_charERcm, .-_ZN3r2p14DebugTransport9recv_charERcm
 1906              		.section	.text._ZN3r2p14DebugTransport9send_byteEhm,"axG",%progbits,_ZN3r2p14DebugTransport9send_b
 1907              		.align	2
 1908              		.weak	_ZN3r2p14DebugTransport9send_byteEhm
 1909              		.thumb
 1910              		.thumb_func
 1911              		.type	_ZN3r2p14DebugTransport9send_byteEhm, %function
 1912              	_ZN3r2p14DebugTransport9send_byteEhm:
 1913              	.LFB529:
 1914              		.loc 17 171 0
 1915              		.cfi_startproc
 1916              		@ args = 0, pretend = 0, frame = 16
 1917              		@ frame_needed = 0, uses_anonymous_args = 0
 1918 0000 00B5     		push	{lr}
 1919              		.cfi_def_cfa_offset 4
 1920              		.cfi_offset 14, -4
 1921 0002 85B0     		sub	sp, sp, #20
 1922              		.cfi_def_cfa_offset 24
 1923 0004 0390     		str	r0, [sp, #12]
 1924 0006 0B46     		mov	r3, r1
 1925 0008 0192     		str	r2, [sp, #4]
 1926 000a 8DF80B30 		strb	r3, [sp, #11]
 1927              	.LBB27:
 1928              		.loc 17 178 0
 1929 000e 039B     		ldr	r3, [sp, #12]
 1930 0010 9B6C     		ldr	r3, [r3, #72]
 1931 0012 1B68     		ldr	r3, [r3]
 1932 0014 1B69     		ldr	r3, [r3, #16]
 1933 0016 039A     		ldr	r2, [sp, #12]
 1934 0018 906C     		ldr	r0, [r2, #72]
 1935 001a 9DF80B20 		ldrb	r2, [sp, #11]	@ zero_extendqisi2
ARM GAS  /tmp/ccVvp2Ur.s 			page 35


 1936 001e 1211     		asrs	r2, r2, #4
 1937 0020 1649     		ldr	r1, .L113
 1938 0022 8A5C     		ldrb	r2, [r1, r2]	@ zero_extendqisi2
 1939 0024 1146     		mov	r1, r2
 1940 0026 019A     		ldr	r2, [sp, #4]
 1941 0028 9847     		blx	r3
 1942 002a 0346     		mov	r3, r0
 1943 002c 002B     		cmp	r3, #0
 1944 002e 14BF     		ite	ne
 1945 0030 0123     		movne	r3, #1
 1946 0032 0023     		moveq	r3, #0
 1947 0034 DBB2     		uxtb	r3, r3
 1948 0036 002B     		cmp	r3, #0
 1949 0038 01D0     		beq	.L110
 1950              		.loc 17 178 0 is_stmt 0 discriminator 1
 1951 003a 0023     		movs	r3, #0
 1952 003c 19E0     		b	.L111
 1953              	.L110:
 1954              		.loc 17 179 0 is_stmt 1
 1955 003e 039B     		ldr	r3, [sp, #12]
 1956 0040 9B6C     		ldr	r3, [r3, #72]
 1957 0042 1B68     		ldr	r3, [r3]
 1958 0044 1B69     		ldr	r3, [r3, #16]
 1959 0046 039A     		ldr	r2, [sp, #12]
 1960 0048 906C     		ldr	r0, [r2, #72]
 1961 004a 9DF80B20 		ldrb	r2, [sp, #11]	@ zero_extendqisi2
 1962 004e 02F00F02 		and	r2, r2, #15
 1963 0052 0A49     		ldr	r1, .L113
 1964 0054 8A5C     		ldrb	r2, [r1, r2]	@ zero_extendqisi2
 1965 0056 1146     		mov	r1, r2
 1966 0058 019A     		ldr	r2, [sp, #4]
 1967 005a 9847     		blx	r3
 1968 005c 0346     		mov	r3, r0
 1969 005e 002B     		cmp	r3, #0
 1970 0060 14BF     		ite	ne
 1971 0062 0123     		movne	r3, #1
 1972 0064 0023     		moveq	r3, #0
 1973 0066 DBB2     		uxtb	r3, r3
 1974 0068 002B     		cmp	r3, #0
 1975 006a 01D0     		beq	.L112
 1976              		.loc 17 179 0 is_stmt 0 discriminator 1
 1977 006c 0023     		movs	r3, #0
 1978 006e 00E0     		b	.L111
 1979              	.L112:
 1980              		.loc 17 180 0 is_stmt 1
 1981 0070 0123     		movs	r3, #1
 1982              	.L111:
 1983              	.LBE27:
 1984              		.loc 17 181 0
 1985 0072 1846     		mov	r0, r3
 1986 0074 05B0     		add	sp, sp, #20
 1987              		.cfi_def_cfa_offset 4
 1988              		@ sp needed
 1989 0076 5DF804FB 		ldr	pc, [sp], #4
 1990              	.L114:
 1991 007a 00BF     		.align	2
 1992              	.L113:
ARM GAS  /tmp/ccVvp2Ur.s 			page 36


 1993 007c 00000000 		.word	_ZZN3r2p14DebugTransport9send_byteEhmE3hex
 1994              		.cfi_endproc
 1995              	.LFE529:
 1996              		.size	_ZN3r2p14DebugTransport9send_byteEhm, .-_ZN3r2p14DebugTransport9send_byteEhm
 1997              		.section	.text._ZN3r2p14DebugTransport10send_valueIhEEbRKT_m,"axG",%progbits,_ZN3r2p14DebugTranspo
 1998              		.align	2
 1999              		.weak	_ZN3r2p14DebugTransport10send_valueIhEEbRKT_m
 2000              		.thumb
 2001              		.thumb_func
 2002              		.type	_ZN3r2p14DebugTransport10send_valueIhEEbRKT_m, %function
 2003              	_ZN3r2p14DebugTransport10send_valueIhEEbRKT_m:
 2004              	.LFB531:
 2005              		.loc 17 193 0
 2006              		.cfi_startproc
 2007              		@ args = 0, pretend = 0, frame = 16
 2008              		@ frame_needed = 0, uses_anonymous_args = 0
 2009 0000 00B5     		push	{lr}
 2010              		.cfi_def_cfa_offset 4
 2011              		.cfi_offset 14, -4
 2012 0002 85B0     		sub	sp, sp, #20
 2013              		.cfi_def_cfa_offset 24
 2014 0004 0390     		str	r0, [sp, #12]
 2015 0006 0291     		str	r1, [sp, #8]
 2016 0008 0192     		str	r2, [sp, #4]
 2017              		.loc 17 195 0
 2018 000a 029B     		ldr	r3, [sp, #8]
 2019 000c 1B78     		ldrb	r3, [r3]	@ zero_extendqisi2
 2020 000e 0398     		ldr	r0, [sp, #12]
 2021 0010 1946     		mov	r1, r3
 2022 0012 019A     		ldr	r2, [sp, #4]
 2023 0014 FFF7FEFF 		bl	_ZN3r2p14DebugTransport9send_byteEhm
 2024 0018 0346     		mov	r3, r0
 2025              		.loc 17 196 0
 2026 001a 1846     		mov	r0, r3
 2027 001c 05B0     		add	sp, sp, #20
 2028              		.cfi_def_cfa_offset 4
 2029              		@ sp needed
 2030 001e 5DF804FB 		ldr	pc, [sp], #4
 2031              		.cfi_endproc
 2032              	.LFE531:
 2033              		.size	_ZN3r2p14DebugTransport10send_valueIhEEbRKT_m, .-_ZN3r2p14DebugTransport10send_valueIhEEbRKT
 2034 0022 00BF     		.section	.text._ZN3r2p14DebugTransport10recv_valueIhEEbRT_m,"axG",%progbits,_ZN3r2p14DebugTranspor
 2035              		.align	2
 2036              		.weak	_ZN3r2p14DebugTransport10recv_valueIhEEbRT_m
 2037              		.thumb
 2038              		.thumb_func
 2039              		.type	_ZN3r2p14DebugTransport10recv_valueIhEEbRT_m, %function
 2040              	_ZN3r2p14DebugTransport10recv_valueIhEEbRT_m:
 2041              	.LFB534:
 2042              		.loc 17 215 0
 2043              		.cfi_startproc
 2044              		@ args = 0, pretend = 0, frame = 16
 2045              		@ frame_needed = 0, uses_anonymous_args = 0
 2046 0000 00B5     		push	{lr}
 2047              		.cfi_def_cfa_offset 4
 2048              		.cfi_offset 14, -4
 2049 0002 85B0     		sub	sp, sp, #20
ARM GAS  /tmp/ccVvp2Ur.s 			page 37


 2050              		.cfi_def_cfa_offset 24
 2051 0004 0390     		str	r0, [sp, #12]
 2052 0006 0291     		str	r1, [sp, #8]
 2053 0008 0192     		str	r2, [sp, #4]
 2054              		.loc 17 217 0
 2055 000a 0398     		ldr	r0, [sp, #12]
 2056 000c 0299     		ldr	r1, [sp, #8]
 2057 000e 019A     		ldr	r2, [sp, #4]
 2058 0010 FFF7FEFF 		bl	_ZN3r2p14DebugTransport9recv_byteERhm
 2059 0014 0346     		mov	r3, r0
 2060              		.loc 17 218 0
 2061 0016 1846     		mov	r0, r3
 2062 0018 05B0     		add	sp, sp, #20
 2063              		.cfi_def_cfa_offset 4
 2064              		@ sp needed
 2065 001a 5DF804FB 		ldr	pc, [sp], #4
 2066              		.cfi_endproc
 2067              	.LFE534:
 2068              		.size	_ZN3r2p14DebugTransport10recv_valueIhEEbRT_m, .-_ZN3r2p14DebugTransport10recv_valueIhEEbRT_m
 2069 001e 00BF     		.section	.text._ZN3r2p5MutexD2Ev,"axG",%progbits,_ZN3r2p5MutexD5Ev,comdat
 2070              		.align	2
 2071              		.weak	_ZN3r2p5MutexD2Ev
 2072              		.thumb
 2073              		.thumb_func
 2074              		.type	_ZN3r2p5MutexD2Ev, %function
 2075              	_ZN3r2p5MutexD2Ev:
 2076              	.LFB548:
 2077              		.loc 7 9 0
 2078              		.cfi_startproc
 2079              		@ args = 0, pretend = 0, frame = 8
 2080              		@ frame_needed = 0, uses_anonymous_args = 0
 2081 0000 00B5     		push	{lr}
 2082              		.cfi_def_cfa_offset 4
 2083              		.cfi_offset 14, -4
 2084 0002 83B0     		sub	sp, sp, #12
 2085              		.cfi_def_cfa_offset 16
 2086 0004 0190     		str	r0, [sp, #4]
 2087              	.LBB28:
 2088              		.loc 7 9 0
 2089 0006 019B     		ldr	r3, [sp, #4]
 2090 0008 0433     		adds	r3, r3, #4
 2091 000a 1846     		mov	r0, r3
 2092 000c FFF7FEFF 		bl	_ZN3r2p6Mutex_D1Ev
 2093 0010 0198     		ldr	r0, [sp, #4]
 2094 0012 FFF7FEFF 		bl	_ZN3r2p10UncopyableD2Ev
 2095              	.LBE28:
 2096 0016 019B     		ldr	r3, [sp, #4]
 2097 0018 1846     		mov	r0, r3
 2098 001a 03B0     		add	sp, sp, #12
 2099              		.cfi_def_cfa_offset 4
 2100              		@ sp needed
 2101 001c 5DF804FB 		ldr	pc, [sp], #4
 2102              		.cfi_endproc
 2103              	.LFE548:
 2104              		.size	_ZN3r2p5MutexD2Ev, .-_ZN3r2p5MutexD2Ev
 2105              		.weak	_ZN3r2p5MutexD1Ev
 2106              		.thumb_set _ZN3r2p5MutexD1Ev,_ZN3r2p5MutexD2Ev
ARM GAS  /tmp/ccVvp2Ur.s 			page 38


 2107              		.section	.text._ZN3r2p10Middleware14get_boot_topicEv,"axG",%progbits,_ZN3r2p10Middleware14get_boot
 2108              		.align	2
 2109              		.weak	_ZN3r2p10Middleware14get_boot_topicEv
 2110              		.thumb
 2111              		.thumb_func
 2112              		.type	_ZN3r2p10Middleware14get_boot_topicEv, %function
 2113              	_ZN3r2p10Middleware14get_boot_topicEv:
 2114              	.LFB674:
 2115              		.file 18 "/opt/R2P/core/Middleware/include/r2p/Middleware.hpp"
 2116              		.loc 18 213 0
 2117              		.cfi_startproc
 2118              		@ args = 0, pretend = 0, frame = 8
 2119              		@ frame_needed = 0, uses_anonymous_args = 0
 2120              		@ link register save eliminated.
 2121 0000 82B0     		sub	sp, sp, #8
 2122              		.cfi_def_cfa_offset 8
 2123 0002 0190     		str	r0, [sp, #4]
 2124              		.loc 18 215 0
 2125 0004 019B     		ldr	r3, [sp, #4]
 2126 0006 03F51273 		add	r3, r3, #584
 2127              		.loc 18 216 0
 2128 000a 1846     		mov	r0, r3
 2129 000c 02B0     		add	sp, sp, #8
 2130              		.cfi_def_cfa_offset 0
 2131              		@ sp needed
 2132 000e 7047     		bx	lr
 2133              		.cfi_endproc
 2134              	.LFE674:
 2135              		.size	_ZN3r2p10Middleware14get_boot_topicEv, .-_ZN3r2p10Middleware14get_boot_topicEv
 2136              		.section	.text._ZN3r2p10Middleware18is_bootloader_modeEv,"axG",%progbits,_ZN3r2p10Middleware18is_b
 2137              		.align	2
 2138              		.weak	_ZN3r2p10Middleware18is_bootloader_modeEv
 2139              		.thumb
 2140              		.thumb_func
 2141              		.type	_ZN3r2p10Middleware18is_bootloader_modeEv, %function
 2142              	_ZN3r2p10Middleware18is_bootloader_modeEv:
 2143              	.LFB677:
 2144              		.loc 18 234 0
 2145              		.cfi_startproc
 2146              		@ args = 0, pretend = 0, frame = 0
 2147              		@ frame_needed = 0, uses_anonymous_args = 0
 2148              		@ link register save eliminated.
 2149              		.loc 18 236 0
 2150 0000 044B     		ldr	r3, .L126
 2151 0002 1B68     		ldr	r3, [r3]
 2152 0004 044A     		ldr	r2, .L126+4
 2153 0006 9342     		cmp	r3, r2
 2154 0008 0CBF     		ite	eq
 2155 000a 0123     		moveq	r3, #1
 2156 000c 0023     		movne	r3, #0
 2157 000e DBB2     		uxtb	r3, r3
 2158              		.loc 18 237 0
 2159 0010 1846     		mov	r0, r3
 2160 0012 7047     		bx	lr
 2161              	.L127:
 2162              		.align	2
 2163              	.L126:
ARM GAS  /tmp/ccVvp2Ur.s 			page 39


 2164 0014 00000000 		.word	_ZN3r2p10Middleware15boot_mode_magicE
 2165 0018 7A07B051 		.word	1370490746
 2166              		.cfi_endproc
 2167              	.LFE677:
 2168              		.size	_ZN3r2p10Middleware18is_bootloader_modeEv, .-_ZN3r2p10Middleware18is_bootloader_modeEv
 2169              		.section	.text._ZNK3r2p11Checksummer16compute_checksumEv,"axG",%progbits,_ZNK3r2p11Checksummer16co
 2170              		.align	2
 2171              		.weak	_ZNK3r2p11Checksummer16compute_checksumEv
 2172              		.thumb
 2173              		.thumb_func
 2174              		.type	_ZNK3r2p11Checksummer16compute_checksumEv, %function
 2175              	_ZNK3r2p11Checksummer16compute_checksumEv:
 2176              	.LFB682:
 2177              		.file 19 "/opt/R2P/core/Middleware/include/r2p/Checksummer.hpp"
 2178              		.loc 19 75 0
 2179              		.cfi_startproc
 2180              		@ args = 0, pretend = 0, frame = 8
 2181              		@ frame_needed = 0, uses_anonymous_args = 0
 2182              		@ link register save eliminated.
 2183 0000 82B0     		sub	sp, sp, #8
 2184              		.cfi_def_cfa_offset 8
 2185 0002 0190     		str	r0, [sp, #4]
 2186              		.loc 19 77 0
 2187 0004 019B     		ldr	r3, [sp, #4]
 2188 0006 1B78     		ldrb	r3, [r3]	@ zero_extendqisi2
 2189 0008 5B42     		negs	r3, r3
 2190 000a DBB2     		uxtb	r3, r3
 2191              		.loc 19 78 0
 2192 000c 1846     		mov	r0, r3
 2193 000e 02B0     		add	sp, sp, #8
 2194              		.cfi_def_cfa_offset 0
 2195              		@ sp needed
 2196 0010 7047     		bx	lr
 2197              		.cfi_endproc
 2198              	.LFE682:
 2199              		.size	_ZNK3r2p11Checksummer16compute_checksumEv, .-_ZNK3r2p11Checksummer16compute_checksumEv
 2200 0012 00BF     		.section	.text._ZNK3r2p11Checksummer5checkEh,"axG",%progbits,_ZNK3r2p11Checksummer5checkEh,comdat
 2201              		.align	2
 2202              		.weak	_ZNK3r2p11Checksummer5checkEh
 2203              		.thumb
 2204              		.thumb_func
 2205              		.type	_ZNK3r2p11Checksummer5checkEh, %function
 2206              	_ZNK3r2p11Checksummer5checkEh:
 2207              	.LFB683:
 2208              		.loc 19 82 0
 2209              		.cfi_startproc
 2210              		@ args = 0, pretend = 0, frame = 8
 2211              		@ frame_needed = 0, uses_anonymous_args = 0
 2212              		@ link register save eliminated.
 2213 0000 82B0     		sub	sp, sp, #8
 2214              		.cfi_def_cfa_offset 8
 2215 0002 0190     		str	r0, [sp, #4]
 2216 0004 0B46     		mov	r3, r1
 2217 0006 8DF80330 		strb	r3, [sp, #3]
 2218              		.loc 19 85 0
 2219 000a 0123     		movs	r3, #1
 2220              		.loc 19 86 0
ARM GAS  /tmp/ccVvp2Ur.s 			page 40


 2221 000c 1846     		mov	r0, r3
 2222 000e 02B0     		add	sp, sp, #8
 2223              		.cfi_def_cfa_offset 0
 2224              		@ sp needed
 2225 0010 7047     		bx	lr
 2226              		.cfi_endproc
 2227              	.LFE683:
 2228              		.size	_ZNK3r2p11Checksummer5checkEh, .-_ZNK3r2p11Checksummer5checkEh
 2229 0012 00BF     		.section	.text._ZN3r2p11Checksummer3addEh,"axG",%progbits,_ZN3r2p11Checksummer3addEh,comdat
 2230              		.align	2
 2231              		.weak	_ZN3r2p11Checksummer3addEh
 2232              		.thumb
 2233              		.thumb_func
 2234              		.type	_ZN3r2p11Checksummer3addEh, %function
 2235              	_ZN3r2p11Checksummer3addEh:
 2236              	.LFB686:
 2237              		.loc 19 104 0
 2238              		.cfi_startproc
 2239              		@ args = 0, pretend = 0, frame = 8
 2240              		@ frame_needed = 0, uses_anonymous_args = 0
 2241              		@ link register save eliminated.
 2242 0000 82B0     		sub	sp, sp, #8
 2243              		.cfi_def_cfa_offset 8
 2244 0002 0190     		str	r0, [sp, #4]
 2245 0004 0B46     		mov	r3, r1
 2246 0006 8DF80330 		strb	r3, [sp, #3]
 2247              		.loc 19 106 0
 2248 000a 019B     		ldr	r3, [sp, #4]
 2249 000c 1A78     		ldrb	r2, [r3]	@ zero_extendqisi2
 2250 000e 9DF80330 		ldrb	r3, [sp, #3]
 2251 0012 1344     		add	r3, r3, r2
 2252 0014 DAB2     		uxtb	r2, r3
 2253 0016 019B     		ldr	r3, [sp, #4]
 2254 0018 1A70     		strb	r2, [r3]
 2255              		.loc 19 107 0
 2256 001a 02B0     		add	sp, sp, #8
 2257              		.cfi_def_cfa_offset 0
 2258              		@ sp needed
 2259 001c 7047     		bx	lr
 2260              		.cfi_endproc
 2261              	.LFE686:
 2262              		.size	_ZN3r2p11Checksummer3addEh, .-_ZN3r2p11Checksummer3addEh
 2263 001e 00BF     		.section	.text._ZN3r2p11Checksummer3addEPKvj,"axG",%progbits,_ZN3r2p11Checksummer3addEPKvj,comdat
 2264              		.align	2
 2265              		.weak	_ZN3r2p11Checksummer3addEPKvj
 2266              		.thumb
 2267              		.thumb_func
 2268              		.type	_ZN3r2p11Checksummer3addEPKvj, %function
 2269              	_ZN3r2p11Checksummer3addEPKvj:
 2270              	.LFB687:
 2271              		.loc 19 111 0
 2272              		.cfi_startproc
 2273              		@ args = 0, pretend = 0, frame = 16
 2274              		@ frame_needed = 0, uses_anonymous_args = 0
 2275 0000 00B5     		push	{lr}
 2276              		.cfi_def_cfa_offset 4
 2277              		.cfi_offset 14, -4
ARM GAS  /tmp/ccVvp2Ur.s 			page 41


 2278 0002 85B0     		sub	sp, sp, #20
 2279              		.cfi_def_cfa_offset 24
 2280 0004 0390     		str	r0, [sp, #12]
 2281 0006 0291     		str	r1, [sp, #8]
 2282 0008 0192     		str	r2, [sp, #4]
 2283              		.loc 19 113 0
 2284 000a 0398     		ldr	r0, [sp, #12]
 2285 000c 0299     		ldr	r1, [sp, #8]
 2286 000e 019A     		ldr	r2, [sp, #4]
 2287 0010 FFF7FEFF 		bl	_ZN3r2p11Checksummer3addEPKhj
 2288              		.loc 19 114 0
 2289 0014 05B0     		add	sp, sp, #20
 2290              		.cfi_def_cfa_offset 4
 2291              		@ sp needed
 2292 0016 5DF804FB 		ldr	pc, [sp], #4
 2293              		.cfi_endproc
 2294              	.LFE687:
 2295              		.size	_ZN3r2p11Checksummer3addEPKvj, .-_ZN3r2p11Checksummer3addEPKvj
 2296 001a 00BF     		.section	.text._ZN3r2p11ChecksummerC2Ev,"axG",%progbits,_ZN3r2p11ChecksummerC5Ev,comdat
 2297              		.align	2
 2298              		.weak	_ZN3r2p11ChecksummerC2Ev
 2299              		.thumb
 2300              		.thumb_func
 2301              		.type	_ZN3r2p11ChecksummerC2Ev, %function
 2302              	_ZN3r2p11ChecksummerC2Ev:
 2303              	.LFB694:
 2304              		.loc 19 156 0
 2305              		.cfi_startproc
 2306              		@ args = 0, pretend = 0, frame = 8
 2307              		@ frame_needed = 0, uses_anonymous_args = 0
 2308 0000 00B5     		push	{lr}
 2309              		.cfi_def_cfa_offset 4
 2310              		.cfi_offset 14, -4
 2311 0002 83B0     		sub	sp, sp, #12
 2312              		.cfi_def_cfa_offset 16
 2313 0004 0190     		str	r0, [sp, #4]
 2314              	.LBB29:
 2315              		.loc 19 158 0
 2316 0006 0198     		ldr	r0, [sp, #4]
 2317 0008 FFF7FEFF 		bl	_ZN3r2p10UncopyableC2Ev
 2318 000c 019B     		ldr	r3, [sp, #4]
 2319 000e 0022     		movs	r2, #0
 2320 0010 1A70     		strb	r2, [r3]
 2321              	.LBE29:
 2322              		.loc 19 159 0
 2323 0012 019B     		ldr	r3, [sp, #4]
 2324 0014 1846     		mov	r0, r3
 2325 0016 03B0     		add	sp, sp, #12
 2326              		.cfi_def_cfa_offset 4
 2327              		@ sp needed
 2328 0018 5DF804FB 		ldr	pc, [sp], #4
 2329              		.cfi_endproc
 2330              	.LFE694:
 2331              		.size	_ZN3r2p11ChecksummerC2Ev, .-_ZN3r2p11ChecksummerC2Ev
 2332              		.weak	_ZN3r2p11ChecksummerC1Ev
 2333              		.thumb_set _ZN3r2p11ChecksummerC1Ev,_ZN3r2p11ChecksummerC2Ev
 2334              		.text
ARM GAS  /tmp/ccVvp2Ur.s 			page 42


 2335              		.align	2
 2336              		.thumb
 2337              		.thumb_func
 2338              		.type	_ZL20__gthread_key_deletei, %function
 2339              	_ZL20__gthread_key_deletei:
 2340              	.LFB1091:
 2341              		.file 20 "/opt/R2P/tools/gcc-arm-none-eabi-4_9-2014q4/arm-none-eabi/include/c++/4.9.3/arm-none-eab
 2342              		.loc 20 230 0
 2343              		.cfi_startproc
 2344              		@ args = 0, pretend = 0, frame = 8
 2345              		@ frame_needed = 0, uses_anonymous_args = 0
 2346              		@ link register save eliminated.
 2347 0000 82B0     		sub	sp, sp, #8
 2348              		.cfi_def_cfa_offset 8
 2349 0002 0190     		str	r0, [sp, #4]
 2350              		.loc 20 231 0
 2351 0004 0023     		movs	r3, #0
 2352              		.loc 20 232 0
 2353 0006 1846     		mov	r0, r3
 2354 0008 02B0     		add	sp, sp, #8
 2355              		.cfi_def_cfa_offset 0
 2356              		@ sp needed
 2357 000a 7047     		bx	lr
 2358              		.cfi_endproc
 2359              	.LFE1091:
 2360              		.size	_ZL20__gthread_key_deletei, .-_ZL20__gthread_key_deletei
 2361              		.align	2
 2362              		.global	_ZN3r2p14DebugTransport15skip_after_charEcm
 2363              		.thumb
 2364              		.thumb_func
 2365              		.type	_ZN3r2p14DebugTransport15skip_after_charEcm, %function
 2366              	_ZN3r2p14DebugTransport15skip_after_charEcm:
 2367              	.LFB1691:
 2368              		.file 21 "/opt/R2P/core/Middleware/src/transport/DebugTransport.cpp"
 2369              		.loc 21 18 0
 2370              		.cfi_startproc
 2371              		@ args = 0, pretend = 0, frame = 16
 2372              		@ frame_needed = 0, uses_anonymous_args = 0
 2373 000c 10B5     		push	{r4, lr}
 2374              		.cfi_def_cfa_offset 8
 2375              		.cfi_offset 4, -8
 2376              		.cfi_offset 14, -4
 2377 000e 84B0     		sub	sp, sp, #16
 2378              		.cfi_def_cfa_offset 24
 2379 0010 0390     		str	r0, [sp, #12]
 2380 0012 0B46     		mov	r3, r1
 2381 0014 0192     		str	r2, [sp, #4]
 2382 0016 8DF80B30 		strb	r3, [sp, #11]
 2383              	.L142:
 2384              	.LBB30:
 2385              		.loc 21 22 0
 2386 001a 039B     		ldr	r3, [sp, #12]
 2387 001c 9B6C     		ldr	r3, [r3, #72]
 2388 001e 1B68     		ldr	r3, [r3]
 2389 0020 5B69     		ldr	r3, [r3, #20]
 2390 0022 039A     		ldr	r2, [sp, #12]
 2391 0024 926C     		ldr	r2, [r2, #72]
ARM GAS  /tmp/ccVvp2Ur.s 			page 43


 2392 0026 1046     		mov	r0, r2
 2393 0028 0199     		ldr	r1, [sp, #4]
 2394 002a 9847     		blx	r3
 2395 002c 0446     		mov	r4, r0
 2396              		.loc 21 23 0
 2397 002e 24F0FF03 		bic	r3, r4, #255
 2398 0032 002B     		cmp	r3, #0
 2399 0034 01D0     		beq	.L140
 2400              		.loc 21 23 0 is_stmt 0 discriminator 1
 2401 0036 0023     		movs	r3, #0
 2402 0038 05E0     		b	.L141
 2403              	.L140:
 2404              		.loc 21 24 0 is_stmt 1
 2405 003a E3B2     		uxtb	r3, r4
 2406              		.loc 21 21 0
 2407 003c 9DF80B20 		ldrb	r2, [sp, #11]	@ zero_extendqisi2
 2408 0040 9A42     		cmp	r2, r3
 2409 0042 EAD1     		bne	.L142
 2410              		.loc 21 25 0
 2411 0044 0123     		movs	r3, #1
 2412              	.L141:
 2413              	.LBE30:
 2414              		.loc 21 26 0
 2415 0046 1846     		mov	r0, r3
 2416 0048 04B0     		add	sp, sp, #16
 2417              		.cfi_def_cfa_offset 8
 2418              		@ sp needed
 2419 004a 10BD     		pop	{r4, pc}
 2420              		.cfi_endproc
 2421              	.LFE1691:
 2422              		.size	_ZN3r2p14DebugTransport15skip_after_charEcm, .-_ZN3r2p14DebugTransport15skip_after_charEcm
 2423              		.align	2
 2424              		.global	_ZN3r2p14DebugTransport9recv_byteERhm
 2425              		.thumb
 2426              		.thumb_func
 2427              		.type	_ZN3r2p14DebugTransport9recv_byteERhm, %function
 2428              	_ZN3r2p14DebugTransport9recv_byteERhm:
 2429              	.LFB1692:
 2430              		.loc 21 29 0
 2431              		.cfi_startproc
 2432              		@ args = 0, pretend = 0, frame = 24
 2433              		@ frame_needed = 0, uses_anonymous_args = 0
 2434 004c 00B5     		push	{lr}
 2435              		.cfi_def_cfa_offset 4
 2436              		.cfi_offset 14, -4
 2437 004e 87B0     		sub	sp, sp, #28
 2438              		.cfi_def_cfa_offset 32
 2439 0050 0390     		str	r0, [sp, #12]
 2440 0052 0291     		str	r1, [sp, #8]
 2441 0054 0192     		str	r2, [sp, #4]
 2442              	.LBB31:
 2443              		.loc 21 33 0
 2444 0056 039B     		ldr	r3, [sp, #12]
 2445 0058 9B6C     		ldr	r3, [r3, #72]
 2446 005a 1B68     		ldr	r3, [r3]
 2447 005c 5B69     		ldr	r3, [r3, #20]
 2448 005e 039A     		ldr	r2, [sp, #12]
ARM GAS  /tmp/ccVvp2Ur.s 			page 44


 2449 0060 926C     		ldr	r2, [r2, #72]
 2450 0062 1046     		mov	r0, r2
 2451 0064 0199     		ldr	r1, [sp, #4]
 2452 0066 9847     		blx	r3
 2453 0068 0590     		str	r0, [sp, #20]
 2454              		.loc 21 34 0
 2455 006a 059B     		ldr	r3, [sp, #20]
 2456 006c 2F2B     		cmp	r3, #47
 2457 006e 0BDD     		ble	.L144
 2458              		.loc 21 34 0 is_stmt 0 discriminator 1
 2459 0070 059B     		ldr	r3, [sp, #20]
 2460 0072 392B     		cmp	r3, #57
 2461 0074 08DC     		bgt	.L144
 2462              		.loc 21 35 0 is_stmt 1
 2463 0076 059B     		ldr	r3, [sp, #20]
 2464 0078 DBB2     		uxtb	r3, r3
 2465 007a 303B     		subs	r3, r3, #48
 2466 007c DBB2     		uxtb	r3, r3
 2467 007e 1B01     		lsls	r3, r3, #4
 2468 0080 DAB2     		uxtb	r2, r3
 2469 0082 029B     		ldr	r3, [sp, #8]
 2470 0084 1A70     		strb	r2, [r3]
 2471 0086 1FE0     		b	.L145
 2472              	.L144:
 2473              		.loc 21 36 0
 2474 0088 059B     		ldr	r3, [sp, #20]
 2475 008a 402B     		cmp	r3, #64
 2476 008c 0BDD     		ble	.L146
 2477              		.loc 21 36 0 is_stmt 0 discriminator 1
 2478 008e 059B     		ldr	r3, [sp, #20]
 2479 0090 462B     		cmp	r3, #70
 2480 0092 08DC     		bgt	.L146
 2481              		.loc 21 37 0 is_stmt 1
 2482 0094 059B     		ldr	r3, [sp, #20]
 2483 0096 DBB2     		uxtb	r3, r3
 2484 0098 373B     		subs	r3, r3, #55
 2485 009a DBB2     		uxtb	r3, r3
 2486 009c 1B01     		lsls	r3, r3, #4
 2487 009e DAB2     		uxtb	r2, r3
 2488 00a0 029B     		ldr	r3, [sp, #8]
 2489 00a2 1A70     		strb	r2, [r3]
 2490 00a4 10E0     		b	.L145
 2491              	.L146:
 2492              		.loc 21 38 0
 2493 00a6 059B     		ldr	r3, [sp, #20]
 2494 00a8 602B     		cmp	r3, #96
 2495 00aa 0BDD     		ble	.L147
 2496              		.loc 21 38 0 is_stmt 0 discriminator 1
 2497 00ac 059B     		ldr	r3, [sp, #20]
 2498 00ae 662B     		cmp	r3, #102
 2499 00b0 08DC     		bgt	.L147
 2500              		.loc 21 39 0 is_stmt 1
 2501 00b2 059B     		ldr	r3, [sp, #20]
 2502 00b4 DBB2     		uxtb	r3, r3
 2503 00b6 573B     		subs	r3, r3, #87
 2504 00b8 DBB2     		uxtb	r3, r3
 2505 00ba 1B01     		lsls	r3, r3, #4
ARM GAS  /tmp/ccVvp2Ur.s 			page 45


 2506 00bc DAB2     		uxtb	r2, r3
 2507 00be 029B     		ldr	r3, [sp, #8]
 2508 00c0 1A70     		strb	r2, [r3]
 2509 00c2 01E0     		b	.L145
 2510              	.L147:
 2511              		.loc 21 41 0
 2512 00c4 0023     		movs	r3, #0
 2513 00c6 3FE0     		b	.L148
 2514              	.L145:
 2515              		.loc 21 44 0
 2516 00c8 039B     		ldr	r3, [sp, #12]
 2517 00ca 9B6C     		ldr	r3, [r3, #72]
 2518 00cc 1B68     		ldr	r3, [r3]
 2519 00ce 5B69     		ldr	r3, [r3, #20]
 2520 00d0 039A     		ldr	r2, [sp, #12]
 2521 00d2 926C     		ldr	r2, [r2, #72]
 2522 00d4 1046     		mov	r0, r2
 2523 00d6 0199     		ldr	r1, [sp, #4]
 2524 00d8 9847     		blx	r3
 2525 00da 0590     		str	r0, [sp, #20]
 2526              		.loc 21 45 0
 2527 00dc 059B     		ldr	r3, [sp, #20]
 2528 00de 2F2B     		cmp	r3, #47
 2529 00e0 0DDD     		ble	.L149
 2530              		.loc 21 45 0 is_stmt 0 discriminator 1
 2531 00e2 059B     		ldr	r3, [sp, #20]
 2532 00e4 392B     		cmp	r3, #57
 2533 00e6 0ADC     		bgt	.L149
 2534              		.loc 21 46 0 is_stmt 1
 2535 00e8 029B     		ldr	r3, [sp, #8]
 2536 00ea 1A78     		ldrb	r2, [r3]	@ zero_extendqisi2
 2537 00ec 059B     		ldr	r3, [sp, #20]
 2538 00ee DBB2     		uxtb	r3, r3
 2539 00f0 303B     		subs	r3, r3, #48
 2540 00f2 DBB2     		uxtb	r3, r3
 2541 00f4 1343     		orrs	r3, r3, r2
 2542 00f6 DAB2     		uxtb	r2, r3
 2543 00f8 029B     		ldr	r3, [sp, #8]
 2544 00fa 1A70     		strb	r2, [r3]
 2545 00fc 23E0     		b	.L150
 2546              	.L149:
 2547              		.loc 21 47 0
 2548 00fe 059B     		ldr	r3, [sp, #20]
 2549 0100 402B     		cmp	r3, #64
 2550 0102 0DDD     		ble	.L151
 2551              		.loc 21 47 0 is_stmt 0 discriminator 1
 2552 0104 059B     		ldr	r3, [sp, #20]
 2553 0106 462B     		cmp	r3, #70
 2554 0108 0ADC     		bgt	.L151
 2555              		.loc 21 48 0 is_stmt 1
 2556 010a 029B     		ldr	r3, [sp, #8]
 2557 010c 1A78     		ldrb	r2, [r3]	@ zero_extendqisi2
 2558 010e 059B     		ldr	r3, [sp, #20]
 2559 0110 DBB2     		uxtb	r3, r3
 2560 0112 373B     		subs	r3, r3, #55
 2561 0114 DBB2     		uxtb	r3, r3
 2562 0116 1343     		orrs	r3, r3, r2
ARM GAS  /tmp/ccVvp2Ur.s 			page 46


 2563 0118 DAB2     		uxtb	r2, r3
 2564 011a 029B     		ldr	r3, [sp, #8]
 2565 011c 1A70     		strb	r2, [r3]
 2566 011e 12E0     		b	.L150
 2567              	.L151:
 2568              		.loc 21 49 0
 2569 0120 059B     		ldr	r3, [sp, #20]
 2570 0122 602B     		cmp	r3, #96
 2571 0124 0DDD     		ble	.L152
 2572              		.loc 21 49 0 is_stmt 0 discriminator 1
 2573 0126 059B     		ldr	r3, [sp, #20]
 2574 0128 662B     		cmp	r3, #102
 2575 012a 0ADC     		bgt	.L152
 2576              		.loc 21 50 0 is_stmt 1
 2577 012c 029B     		ldr	r3, [sp, #8]
 2578 012e 1A78     		ldrb	r2, [r3]	@ zero_extendqisi2
 2579 0130 059B     		ldr	r3, [sp, #20]
 2580 0132 DBB2     		uxtb	r3, r3
 2581 0134 573B     		subs	r3, r3, #87
 2582 0136 DBB2     		uxtb	r3, r3
 2583 0138 1343     		orrs	r3, r3, r2
 2584 013a DAB2     		uxtb	r2, r3
 2585 013c 029B     		ldr	r3, [sp, #8]
 2586 013e 1A70     		strb	r2, [r3]
 2587 0140 01E0     		b	.L150
 2588              	.L152:
 2589              		.loc 21 52 0
 2590 0142 0023     		movs	r3, #0
 2591 0144 00E0     		b	.L148
 2592              	.L150:
 2593              		.loc 21 55 0
 2594 0146 0123     		movs	r3, #1
 2595              	.L148:
 2596              	.LBE31:
 2597              		.loc 21 56 0
 2598 0148 1846     		mov	r0, r3
 2599 014a 07B0     		add	sp, sp, #28
 2600              		.cfi_def_cfa_offset 4
 2601              		@ sp needed
 2602 014c 5DF804FB 		ldr	pc, [sp], #4
 2603              		.cfi_endproc
 2604              	.LFE1692:
 2605              		.size	_ZN3r2p14DebugTransport9recv_byteERhm, .-_ZN3r2p14DebugTransport9recv_byteERhm
 2606              		.align	2
 2607              		.global	_ZN3r2p14DebugTransport10send_chunkEPKvjm
 2608              		.thumb
 2609              		.thumb_func
 2610              		.type	_ZN3r2p14DebugTransport10send_chunkEPKvjm, %function
 2611              	_ZN3r2p14DebugTransport10send_chunkEPKvjm:
 2612              	.LFB1693:
 2613              		.loc 21 60 0
 2614              		.cfi_startproc
 2615              		@ args = 0, pretend = 0, frame = 24
 2616              		@ frame_needed = 0, uses_anonymous_args = 0
 2617 0150 00B5     		push	{lr}
 2618              		.cfi_def_cfa_offset 4
 2619              		.cfi_offset 14, -4
ARM GAS  /tmp/ccVvp2Ur.s 			page 47


 2620 0152 87B0     		sub	sp, sp, #28
 2621              		.cfi_def_cfa_offset 32
 2622 0154 0390     		str	r0, [sp, #12]
 2623 0156 0291     		str	r1, [sp, #8]
 2624 0158 0192     		str	r2, [sp, #4]
 2625 015a 0093     		str	r3, [sp]
 2626              	.LBB32:
 2627              		.loc 21 62 0
 2628 015c 029B     		ldr	r3, [sp, #8]
 2629 015e 0593     		str	r3, [sp, #20]
 2630              		.loc 21 63 0
 2631 0160 10E0     		b	.L154
 2632              	.L156:
 2633              		.loc 21 64 0
 2634 0162 059B     		ldr	r3, [sp, #20]
 2635 0164 5A1C     		adds	r2, r3, #1
 2636 0166 0592     		str	r2, [sp, #20]
 2637 0168 1B78     		ldrb	r3, [r3]	@ zero_extendqisi2
 2638 016a 0398     		ldr	r0, [sp, #12]
 2639 016c 1946     		mov	r1, r3
 2640 016e 009A     		ldr	r2, [sp]
 2641 0170 FFF7FEFF 		bl	_ZN3r2p14DebugTransport9send_byteEhm
 2642 0174 0346     		mov	r3, r0
 2643 0176 83F00103 		eor	r3, r3, #1
 2644 017a DBB2     		uxtb	r3, r3
 2645 017c 002B     		cmp	r3, #0
 2646 017e 01D0     		beq	.L154
 2647              		.loc 21 64 0 is_stmt 0 discriminator 1
 2648 0180 0023     		movs	r3, #0
 2649 0182 0AE0     		b	.L155
 2650              	.L154:
 2651              		.loc 21 63 0 is_stmt 1
 2652 0184 019B     		ldr	r3, [sp, #4]
 2653 0186 5A1E     		subs	r2, r3, #1
 2654 0188 0192     		str	r2, [sp, #4]
 2655 018a 002B     		cmp	r3, #0
 2656 018c 14BF     		ite	ne
 2657 018e 0123     		movne	r3, #1
 2658 0190 0023     		moveq	r3, #0
 2659 0192 DBB2     		uxtb	r3, r3
 2660 0194 002B     		cmp	r3, #0
 2661 0196 E4D1     		bne	.L156
 2662              		.loc 21 66 0
 2663 0198 0123     		movs	r3, #1
 2664              	.L155:
 2665              	.LBE32:
 2666              		.loc 21 67 0
 2667 019a 1846     		mov	r0, r3
 2668 019c 07B0     		add	sp, sp, #28
 2669              		.cfi_def_cfa_offset 4
 2670              		@ sp needed
 2671 019e 5DF804FB 		ldr	pc, [sp], #4
 2672              		.cfi_endproc
 2673              	.LFE1693:
 2674              		.size	_ZN3r2p14DebugTransport10send_chunkEPKvjm, .-_ZN3r2p14DebugTransport10send_chunkEPKvjm
 2675 01a2 00BF     		.align	2
 2676              		.global	_ZN3r2p14DebugTransport10recv_chunkEPvjm
ARM GAS  /tmp/ccVvp2Ur.s 			page 48


 2677              		.thumb
 2678              		.thumb_func
 2679              		.type	_ZN3r2p14DebugTransport10recv_chunkEPvjm, %function
 2680              	_ZN3r2p14DebugTransport10recv_chunkEPvjm:
 2681              	.LFB1694:
 2682              		.loc 21 71 0
 2683              		.cfi_startproc
 2684              		@ args = 0, pretend = 0, frame = 24
 2685              		@ frame_needed = 0, uses_anonymous_args = 0
 2686 01a4 00B5     		push	{lr}
 2687              		.cfi_def_cfa_offset 4
 2688              		.cfi_offset 14, -4
 2689 01a6 87B0     		sub	sp, sp, #28
 2690              		.cfi_def_cfa_offset 32
 2691 01a8 0390     		str	r0, [sp, #12]
 2692 01aa 0291     		str	r1, [sp, #8]
 2693 01ac 0192     		str	r2, [sp, #4]
 2694 01ae 0093     		str	r3, [sp]
 2695              	.LBB33:
 2696              		.loc 21 73 0
 2697 01b0 029B     		ldr	r3, [sp, #8]
 2698 01b2 0593     		str	r3, [sp, #20]
 2699              		.loc 21 74 0
 2700 01b4 0FE0     		b	.L158
 2701              	.L160:
 2702              		.loc 21 75 0
 2703 01b6 059B     		ldr	r3, [sp, #20]
 2704 01b8 5A1C     		adds	r2, r3, #1
 2705 01ba 0592     		str	r2, [sp, #20]
 2706 01bc 0398     		ldr	r0, [sp, #12]
 2707 01be 1946     		mov	r1, r3
 2708 01c0 009A     		ldr	r2, [sp]
 2709 01c2 FFF7FEFF 		bl	_ZN3r2p14DebugTransport9recv_byteERhm
 2710 01c6 0346     		mov	r3, r0
 2711 01c8 83F00103 		eor	r3, r3, #1
 2712 01cc DBB2     		uxtb	r3, r3
 2713 01ce 002B     		cmp	r3, #0
 2714 01d0 01D0     		beq	.L158
 2715              		.loc 21 75 0 is_stmt 0 discriminator 1
 2716 01d2 0023     		movs	r3, #0
 2717 01d4 0AE0     		b	.L159
 2718              	.L158:
 2719              		.loc 21 74 0 is_stmt 1
 2720 01d6 019B     		ldr	r3, [sp, #4]
 2721 01d8 5A1E     		subs	r2, r3, #1
 2722 01da 0192     		str	r2, [sp, #4]
 2723 01dc 002B     		cmp	r3, #0
 2724 01de 14BF     		ite	ne
 2725 01e0 0123     		movne	r3, #1
 2726 01e2 0023     		moveq	r3, #0
 2727 01e4 DBB2     		uxtb	r3, r3
 2728 01e6 002B     		cmp	r3, #0
 2729 01e8 E5D1     		bne	.L160
 2730              		.loc 21 77 0
 2731 01ea 0123     		movs	r3, #1
 2732              	.L159:
 2733              	.LBE33:
ARM GAS  /tmp/ccVvp2Ur.s 			page 49


 2734              		.loc 21 78 0
 2735 01ec 1846     		mov	r0, r3
 2736 01ee 07B0     		add	sp, sp, #28
 2737              		.cfi_def_cfa_offset 4
 2738              		@ sp needed
 2739 01f0 5DF804FB 		ldr	pc, [sp], #4
 2740              		.cfi_endproc
 2741              	.LFE1694:
 2742              		.size	_ZN3r2p14DebugTransport10recv_chunkEPvjm, .-_ZN3r2p14DebugTransport10recv_chunkEPvjm
 2743              		.align	2
 2744              		.global	_ZN3r2p14DebugTransport14send_chunk_revEPKvjm
 2745              		.thumb
 2746              		.thumb_func
 2747              		.type	_ZN3r2p14DebugTransport14send_chunk_revEPKvjm, %function
 2748              	_ZN3r2p14DebugTransport14send_chunk_revEPKvjm:
 2749              	.LFB1695:
 2750              		.loc 21 82 0
 2751              		.cfi_startproc
 2752              		@ args = 0, pretend = 0, frame = 24
 2753              		@ frame_needed = 0, uses_anonymous_args = 0
 2754 01f4 00B5     		push	{lr}
 2755              		.cfi_def_cfa_offset 4
 2756              		.cfi_offset 14, -4
 2757 01f6 87B0     		sub	sp, sp, #28
 2758              		.cfi_def_cfa_offset 32
 2759 01f8 0390     		str	r0, [sp, #12]
 2760 01fa 0291     		str	r1, [sp, #8]
 2761 01fc 0192     		str	r2, [sp, #4]
 2762 01fe 0093     		str	r3, [sp]
 2763              	.LBB34:
 2764              		.loc 21 84 0
 2765 0200 019B     		ldr	r3, [sp, #4]
 2766 0202 013B     		subs	r3, r3, #1
 2767 0204 029A     		ldr	r2, [sp, #8]
 2768 0206 1344     		add	r3, r3, r2
 2769 0208 0593     		str	r3, [sp, #20]
 2770              		.loc 21 85 0
 2771 020a 10E0     		b	.L162
 2772              	.L164:
 2773              		.loc 21 86 0
 2774 020c 059B     		ldr	r3, [sp, #20]
 2775 020e 5A1E     		subs	r2, r3, #1
 2776 0210 0592     		str	r2, [sp, #20]
 2777 0212 1B78     		ldrb	r3, [r3]	@ zero_extendqisi2
 2778 0214 0398     		ldr	r0, [sp, #12]
 2779 0216 1946     		mov	r1, r3
 2780 0218 009A     		ldr	r2, [sp]
 2781 021a FFF7FEFF 		bl	_ZN3r2p14DebugTransport9send_byteEhm
 2782 021e 0346     		mov	r3, r0
 2783 0220 83F00103 		eor	r3, r3, #1
 2784 0224 DBB2     		uxtb	r3, r3
 2785 0226 002B     		cmp	r3, #0
 2786 0228 01D0     		beq	.L162
 2787              		.loc 21 86 0 is_stmt 0 discriminator 1
 2788 022a 0023     		movs	r3, #0
 2789 022c 0AE0     		b	.L163
 2790              	.L162:
ARM GAS  /tmp/ccVvp2Ur.s 			page 50


 2791              		.loc 21 85 0 is_stmt 1
 2792 022e 019B     		ldr	r3, [sp, #4]
 2793 0230 5A1E     		subs	r2, r3, #1
 2794 0232 0192     		str	r2, [sp, #4]
 2795 0234 002B     		cmp	r3, #0
 2796 0236 14BF     		ite	ne
 2797 0238 0123     		movne	r3, #1
 2798 023a 0023     		moveq	r3, #0
 2799 023c DBB2     		uxtb	r3, r3
 2800 023e 002B     		cmp	r3, #0
 2801 0240 E4D1     		bne	.L164
 2802              		.loc 21 88 0
 2803 0242 0123     		movs	r3, #1
 2804              	.L163:
 2805              	.LBE34:
 2806              		.loc 21 89 0
 2807 0244 1846     		mov	r0, r3
 2808 0246 07B0     		add	sp, sp, #28
 2809              		.cfi_def_cfa_offset 4
 2810              		@ sp needed
 2811 0248 5DF804FB 		ldr	pc, [sp], #4
 2812              		.cfi_endproc
 2813              	.LFE1695:
 2814              		.size	_ZN3r2p14DebugTransport14send_chunk_revEPKvjm, .-_ZN3r2p14DebugTransport14send_chunk_revEPKv
 2815              		.align	2
 2816              		.global	_ZN3r2p14DebugTransport14recv_chunk_revEPvjm
 2817              		.thumb
 2818              		.thumb_func
 2819              		.type	_ZN3r2p14DebugTransport14recv_chunk_revEPvjm, %function
 2820              	_ZN3r2p14DebugTransport14recv_chunk_revEPvjm:
 2821              	.LFB1696:
 2822              		.loc 21 93 0
 2823              		.cfi_startproc
 2824              		@ args = 0, pretend = 0, frame = 24
 2825              		@ frame_needed = 0, uses_anonymous_args = 0
 2826 024c 00B5     		push	{lr}
 2827              		.cfi_def_cfa_offset 4
 2828              		.cfi_offset 14, -4
 2829 024e 87B0     		sub	sp, sp, #28
 2830              		.cfi_def_cfa_offset 32
 2831 0250 0390     		str	r0, [sp, #12]
 2832 0252 0291     		str	r1, [sp, #8]
 2833 0254 0192     		str	r2, [sp, #4]
 2834 0256 0093     		str	r3, [sp]
 2835              	.LBB35:
 2836              		.loc 21 95 0
 2837 0258 019B     		ldr	r3, [sp, #4]
 2838 025a 013B     		subs	r3, r3, #1
 2839 025c 029A     		ldr	r2, [sp, #8]
 2840 025e 1344     		add	r3, r3, r2
 2841 0260 0593     		str	r3, [sp, #20]
 2842              		.loc 21 96 0
 2843 0262 0FE0     		b	.L166
 2844              	.L168:
 2845              		.loc 21 97 0
 2846 0264 059B     		ldr	r3, [sp, #20]
 2847 0266 5A1E     		subs	r2, r3, #1
ARM GAS  /tmp/ccVvp2Ur.s 			page 51


 2848 0268 0592     		str	r2, [sp, #20]
 2849 026a 0398     		ldr	r0, [sp, #12]
 2850 026c 1946     		mov	r1, r3
 2851 026e 009A     		ldr	r2, [sp]
 2852 0270 FFF7FEFF 		bl	_ZN3r2p14DebugTransport9recv_byteERhm
 2853 0274 0346     		mov	r3, r0
 2854 0276 83F00103 		eor	r3, r3, #1
 2855 027a DBB2     		uxtb	r3, r3
 2856 027c 002B     		cmp	r3, #0
 2857 027e 01D0     		beq	.L166
 2858              		.loc 21 97 0 is_stmt 0 discriminator 1
 2859 0280 0023     		movs	r3, #0
 2860 0282 0AE0     		b	.L167
 2861              	.L166:
 2862              		.loc 21 96 0 is_stmt 1
 2863 0284 019B     		ldr	r3, [sp, #4]
 2864 0286 5A1E     		subs	r2, r3, #1
 2865 0288 0192     		str	r2, [sp, #4]
 2866 028a 002B     		cmp	r3, #0
 2867 028c 14BF     		ite	ne
 2868 028e 0123     		movne	r3, #1
 2869 0290 0023     		moveq	r3, #0
 2870 0292 DBB2     		uxtb	r3, r3
 2871 0294 002B     		cmp	r3, #0
 2872 0296 E5D1     		bne	.L168
 2873              		.loc 21 99 0
 2874 0298 0123     		movs	r3, #1
 2875              	.L167:
 2876              	.LBE35:
 2877              		.loc 21 100 0
 2878 029a 1846     		mov	r0, r3
 2879 029c 07B0     		add	sp, sp, #28
 2880              		.cfi_def_cfa_offset 4
 2881              		@ sp needed
 2882 029e 5DF804FB 		ldr	pc, [sp], #4
 2883              		.cfi_endproc
 2884              	.LFE1696:
 2885              		.size	_ZN3r2p14DebugTransport14recv_chunk_revEPvjm, .-_ZN3r2p14DebugTransport14recv_chunk_revEPvjm
 2886 02a2 00BF     		.align	2
 2887              		.global	_ZN3r2p14DebugTransport11send_stringEPKcjm
 2888              		.thumb
 2889              		.thumb_func
 2890              		.type	_ZN3r2p14DebugTransport11send_stringEPKcjm, %function
 2891              	_ZN3r2p14DebugTransport11send_stringEPKcjm:
 2892              	.LFB1697:
 2893              		.loc 21 104 0
 2894              		.cfi_startproc
 2895              		@ args = 0, pretend = 0, frame = 16
 2896              		@ frame_needed = 0, uses_anonymous_args = 0
 2897 02a4 00B5     		push	{lr}
 2898              		.cfi_def_cfa_offset 4
 2899              		.cfi_offset 14, -4
 2900 02a6 85B0     		sub	sp, sp, #20
 2901              		.cfi_def_cfa_offset 24
 2902 02a8 0390     		str	r0, [sp, #12]
 2903 02aa 0291     		str	r1, [sp, #8]
 2904 02ac 0192     		str	r2, [sp, #4]
ARM GAS  /tmp/ccVvp2Ur.s 			page 52


 2905 02ae 0093     		str	r3, [sp]
 2906              		.loc 21 106 0
 2907 02b0 11E0     		b	.L170
 2908              	.L173:
 2909              		.loc 21 107 0
 2910 02b2 029B     		ldr	r3, [sp, #8]
 2911 02b4 1B78     		ldrb	r3, [r3]	@ zero_extendqisi2
 2912 02b6 0398     		ldr	r0, [sp, #12]
 2913 02b8 1946     		mov	r1, r3
 2914 02ba 009A     		ldr	r2, [sp]
 2915 02bc FFF7FEFF 		bl	_ZN3r2p14DebugTransport9send_charEcm
 2916 02c0 0346     		mov	r3, r0
 2917 02c2 83F00103 		eor	r3, r3, #1
 2918 02c6 DBB2     		uxtb	r3, r3
 2919 02c8 002B     		cmp	r3, #0
 2920 02ca 01D0     		beq	.L171
 2921              		.loc 21 107 0 is_stmt 0 discriminator 1
 2922 02cc 0023     		movs	r3, #0
 2923 02ce 0DE0     		b	.L172
 2924              	.L171:
 2925              		.loc 21 106 0 is_stmt 1
 2926 02d0 029B     		ldr	r3, [sp, #8]
 2927 02d2 0133     		adds	r3, r3, #1
 2928 02d4 0293     		str	r3, [sp, #8]
 2929              	.L170:
 2930              		.loc 21 106 0 is_stmt 0 discriminator 1
 2931 02d6 019B     		ldr	r3, [sp, #4]
 2932 02d8 5A1E     		subs	r2, r3, #1
 2933 02da 0192     		str	r2, [sp, #4]
 2934 02dc 002B     		cmp	r3, #0
 2935 02de 14BF     		ite	ne
 2936 02e0 0123     		movne	r3, #1
 2937 02e2 0023     		moveq	r3, #0
 2938 02e4 DBB2     		uxtb	r3, r3
 2939 02e6 002B     		cmp	r3, #0
 2940 02e8 E3D1     		bne	.L173
 2941              		.loc 21 109 0 is_stmt 1
 2942 02ea 0123     		movs	r3, #1
 2943              	.L172:
 2944              		.loc 21 110 0
 2945 02ec 1846     		mov	r0, r3
 2946 02ee 05B0     		add	sp, sp, #20
 2947              		.cfi_def_cfa_offset 4
 2948              		@ sp needed
 2949 02f0 5DF804FB 		ldr	pc, [sp], #4
 2950              		.cfi_endproc
 2951              	.LFE1697:
 2952              		.size	_ZN3r2p14DebugTransport11send_stringEPKcjm, .-_ZN3r2p14DebugTransport11send_stringEPKcjm
 2953              		.align	2
 2954              		.global	_ZN3r2p14DebugTransport11recv_stringEPcjm
 2955              		.thumb
 2956              		.thumb_func
 2957              		.type	_ZN3r2p14DebugTransport11recv_stringEPcjm, %function
 2958              	_ZN3r2p14DebugTransport11recv_stringEPcjm:
 2959              	.LFB1698:
 2960              		.loc 21 114 0
 2961              		.cfi_startproc
ARM GAS  /tmp/ccVvp2Ur.s 			page 53


 2962              		@ args = 0, pretend = 0, frame = 16
 2963              		@ frame_needed = 0, uses_anonymous_args = 0
 2964 02f4 00B5     		push	{lr}
 2965              		.cfi_def_cfa_offset 4
 2966              		.cfi_offset 14, -4
 2967 02f6 85B0     		sub	sp, sp, #20
 2968              		.cfi_def_cfa_offset 24
 2969 02f8 0390     		str	r0, [sp, #12]
 2970 02fa 0291     		str	r1, [sp, #8]
 2971 02fc 0192     		str	r2, [sp, #4]
 2972 02fe 0093     		str	r3, [sp]
 2973              		.loc 21 116 0
 2974 0300 0FE0     		b	.L175
 2975              	.L178:
 2976              		.loc 21 117 0
 2977 0302 0398     		ldr	r0, [sp, #12]
 2978 0304 0299     		ldr	r1, [sp, #8]
 2979 0306 009A     		ldr	r2, [sp]
 2980 0308 FFF7FEFF 		bl	_ZN3r2p14DebugTransport9recv_charERcm
 2981 030c 0346     		mov	r3, r0
 2982 030e 83F00103 		eor	r3, r3, #1
 2983 0312 DBB2     		uxtb	r3, r3
 2984 0314 002B     		cmp	r3, #0
 2985 0316 01D0     		beq	.L176
 2986              		.loc 21 117 0 is_stmt 0 discriminator 1
 2987 0318 0023     		movs	r3, #0
 2988 031a 0DE0     		b	.L177
 2989              	.L176:
 2990              		.loc 21 116 0 is_stmt 1
 2991 031c 029B     		ldr	r3, [sp, #8]
 2992 031e 0133     		adds	r3, r3, #1
 2993 0320 0293     		str	r3, [sp, #8]
 2994              	.L175:
 2995              		.loc 21 116 0 is_stmt 0 discriminator 1
 2996 0322 019B     		ldr	r3, [sp, #4]
 2997 0324 5A1E     		subs	r2, r3, #1
 2998 0326 0192     		str	r2, [sp, #4]
 2999 0328 002B     		cmp	r3, #0
 3000 032a 14BF     		ite	ne
 3001 032c 0123     		movne	r3, #1
 3002 032e 0023     		moveq	r3, #0
 3003 0330 DBB2     		uxtb	r3, r3
 3004 0332 002B     		cmp	r3, #0
 3005 0334 E5D1     		bne	.L178
 3006              		.loc 21 119 0 is_stmt 1
 3007 0336 0123     		movs	r3, #1
 3008              	.L177:
 3009              		.loc 21 120 0
 3010 0338 1846     		mov	r0, r3
 3011 033a 05B0     		add	sp, sp, #20
 3012              		.cfi_def_cfa_offset 4
 3013              		@ sp needed
 3014 033c 5DF804FB 		ldr	pc, [sp], #4
 3015              		.cfi_endproc
 3016              	.LFE1698:
 3017              		.size	_ZN3r2p14DebugTransport11recv_stringEPcjm, .-_ZN3r2p14DebugTransport11recv_stringEPcjm
 3018              		.section	.text._ZN3r2p11ChecksummerD2Ev,"axG",%progbits,_ZN3r2p11ChecksummerD5Ev,comdat
ARM GAS  /tmp/ccVvp2Ur.s 			page 54


 3019              		.align	2
 3020              		.weak	_ZN3r2p11ChecksummerD2Ev
 3021              		.thumb
 3022              		.thumb_func
 3023              		.type	_ZN3r2p11ChecksummerD2Ev, %function
 3024              	_ZN3r2p11ChecksummerD2Ev:
 3025              	.LFB1701:
 3026              		.loc 19 8 0
 3027              		.cfi_startproc
 3028              		@ args = 0, pretend = 0, frame = 8
 3029              		@ frame_needed = 0, uses_anonymous_args = 0
 3030 0000 00B5     		push	{lr}
 3031              		.cfi_def_cfa_offset 4
 3032              		.cfi_offset 14, -4
 3033 0002 83B0     		sub	sp, sp, #12
 3034              		.cfi_def_cfa_offset 16
 3035 0004 0190     		str	r0, [sp, #4]
 3036              	.LBB36:
 3037              		.loc 19 8 0
 3038 0006 0198     		ldr	r0, [sp, #4]
 3039 0008 FFF7FEFF 		bl	_ZN3r2p10UncopyableD2Ev
 3040              	.LBE36:
 3041 000c 019B     		ldr	r3, [sp, #4]
 3042 000e 1846     		mov	r0, r3
 3043 0010 03B0     		add	sp, sp, #12
 3044              		.cfi_def_cfa_offset 4
 3045              		@ sp needed
 3046 0012 5DF804FB 		ldr	pc, [sp], #4
 3047              		.cfi_endproc
 3048              	.LFE1701:
 3049              		.size	_ZN3r2p11ChecksummerD2Ev, .-_ZN3r2p11ChecksummerD2Ev
 3050              		.weak	_ZN3r2p11ChecksummerD1Ev
 3051              		.thumb_set _ZN3r2p11ChecksummerD1Ev,_ZN3r2p11ChecksummerD2Ev
 3052 0016 00BF     		.text
 3053              		.align	2
 3054              		.global	_ZN3r2p14DebugTransport8send_msgERKNS_7MessageEjPKcRKNS_4TimeE
 3055              		.thumb
 3056              		.thumb_func
 3057              		.type	_ZN3r2p14DebugTransport8send_msgERKNS_7MessageEjPKcRKNS_4TimeE, %function
 3058              	_ZN3r2p14DebugTransport8send_msgERKNS_7MessageEjPKcRKNS_4TimeE:
 3059              	.LFB1699:
 3060              		.loc 21 124 0
 3061              		.cfi_startproc
 3062              		@ args = 4, pretend = 0, frame = 24
 3063              		@ frame_needed = 0, uses_anonymous_args = 0
 3064 0340 10B5     		push	{r4, lr}
 3065              		.cfi_def_cfa_offset 8
 3066              		.cfi_offset 4, -8
 3067              		.cfi_offset 14, -4
 3068 0342 86B0     		sub	sp, sp, #24
 3069              		.cfi_def_cfa_offset 32
 3070 0344 0390     		str	r0, [sp, #12]
 3071 0346 0291     		str	r1, [sp, #8]
 3072 0348 0192     		str	r2, [sp, #4]
 3073 034a 0093     		str	r3, [sp]
 3074              	.LBB37:
 3075              		.loc 21 130 0
ARM GAS  /tmp/ccVvp2Ur.s 			page 55


 3076 034c 05AB     		add	r3, sp, #20
 3077 034e 1846     		mov	r0, r3
 3078 0350 FFF7FEFF 		bl	_ZN3r2p11ChecksummerC1Ev
 3079              		.loc 21 133 0
 3080 0354 0398     		ldr	r0, [sp, #12]
 3081 0356 4021     		movs	r1, #64
 3082 0358 4FF0FF32 		mov	r2, #-1
 3083 035c FFF7FEFF 		bl	_ZN3r2p14DebugTransport9send_charEcm
 3084 0360 0346     		mov	r3, r0
 3085 0362 83F00103 		eor	r3, r3, #1
 3086 0366 DBB2     		uxtb	r3, r3
 3087 0368 002B     		cmp	r3, #0
 3088 036a 01D0     		beq	.L183
 3089              		.loc 21 133 0 is_stmt 0 discriminator 1
 3090 036c 0024     		movs	r4, #0
 3091 036e E5E0     		b	.L184
 3092              	.L183:
 3093              		.loc 21 134 0 is_stmt 1
 3094 0370 089B     		ldr	r3, [sp, #32]
 3095 0372 0398     		ldr	r0, [sp, #12]
 3096 0374 1946     		mov	r1, r3
 3097 0376 4FF0FF32 		mov	r2, #-1
 3098 037a FFF7FEFF 		bl	_ZN3r2p14DebugTransport10send_valueIlEEbRKT_m
 3099 037e 0346     		mov	r3, r0
 3100 0380 83F00103 		eor	r3, r3, #1
 3101 0384 DBB2     		uxtb	r3, r3
 3102 0386 002B     		cmp	r3, #0
 3103 0388 01D0     		beq	.L185
 3104              		.loc 21 134 0 is_stmt 0 discriminator 1
 3105 038a 0024     		movs	r4, #0
 3106 038c D6E0     		b	.L184
 3107              	.L185:
 3108              		.loc 21 135 0 is_stmt 1
 3109 038e 0398     		ldr	r0, [sp, #12]
 3110 0390 3A21     		movs	r1, #58
 3111 0392 4FF0FF32 		mov	r2, #-1
 3112 0396 FFF7FEFF 		bl	_ZN3r2p14DebugTransport9send_charEcm
 3113 039a 0346     		mov	r3, r0
 3114 039c 83F00103 		eor	r3, r3, #1
 3115 03a0 DBB2     		uxtb	r3, r3
 3116 03a2 002B     		cmp	r3, #0
 3117 03a4 01D0     		beq	.L186
 3118              		.loc 21 135 0 is_stmt 0 discriminator 1
 3119 03a6 0024     		movs	r4, #0
 3120 03a8 C8E0     		b	.L184
 3121              	.L186:
 3122              		.loc 21 136 0 is_stmt 1
 3123 03aa 089B     		ldr	r3, [sp, #32]
 3124 03ac 05AA     		add	r2, sp, #20
 3125 03ae 1046     		mov	r0, r2
 3126 03b0 1946     		mov	r1, r3
 3127 03b2 FFF7FEFF 		bl	_ZN3r2p11Checksummer3addIlEEvRKT_
 3128              		.loc 21 140 0
 3129 03b6 0098     		ldr	r0, [sp]
 3130 03b8 1021     		movs	r1, #16
 3131 03ba FFF7FEFF 		bl	strnlen
 3132 03be 0346     		mov	r3, r0
ARM GAS  /tmp/ccVvp2Ur.s 			page 56


 3133              		.loc 21 141 0
 3134 03c0 DBB2     		uxtb	r3, r3
 3135 03c2 8DF81330 		strb	r3, [sp, #19]
 3136              		.loc 21 142 0
 3137 03c6 0DF11303 		add	r3, sp, #19
 3138 03ca 0398     		ldr	r0, [sp, #12]
 3139 03cc 1946     		mov	r1, r3
 3140 03ce 4FF0FF32 		mov	r2, #-1
 3141 03d2 FFF7FEFF 		bl	_ZN3r2p14DebugTransport10send_valueIhEEbRKT_m
 3142 03d6 0346     		mov	r3, r0
 3143 03d8 83F00103 		eor	r3, r3, #1
 3144 03dc DBB2     		uxtb	r3, r3
 3145 03de 002B     		cmp	r3, #0
 3146 03e0 01D0     		beq	.L187
 3147              		.loc 21 142 0 is_stmt 0 discriminator 1
 3148 03e2 0024     		movs	r4, #0
 3149 03e4 AAE0     		b	.L184
 3150              	.L187:
 3151              		.loc 21 143 0 is_stmt 1
 3152 03e6 9DF81330 		ldrb	r3, [sp, #19]	@ zero_extendqisi2
 3153 03ea 0398     		ldr	r0, [sp, #12]
 3154 03ec 0099     		ldr	r1, [sp]
 3155 03ee 1A46     		mov	r2, r3
 3156 03f0 4FF0FF33 		mov	r3, #-1
 3157 03f4 FFF7FEFF 		bl	_ZN3r2p14DebugTransport11send_stringEPKcjm
 3158 03f8 0346     		mov	r3, r0
 3159 03fa 83F00103 		eor	r3, r3, #1
 3160 03fe DBB2     		uxtb	r3, r3
 3161 0400 002B     		cmp	r3, #0
 3162 0402 01D0     		beq	.L188
 3163              		.loc 21 143 0 is_stmt 0 discriminator 1
 3164 0404 0024     		movs	r4, #0
 3165 0406 99E0     		b	.L184
 3166              	.L188:
 3167              		.loc 21 144 0 is_stmt 1
 3168 0408 9DF81330 		ldrb	r3, [sp, #19]	@ zero_extendqisi2
 3169 040c 05AA     		add	r2, sp, #20
 3170 040e 1046     		mov	r0, r2
 3171 0410 1946     		mov	r1, r3
 3172 0412 FFF7FEFF 		bl	_ZN3r2p11Checksummer3addEh
 3173              		.loc 21 145 0
 3174 0416 9DF81330 		ldrb	r3, [sp, #19]	@ zero_extendqisi2
 3175 041a 1A46     		mov	r2, r3
 3176 041c 05AB     		add	r3, sp, #20
 3177 041e 1846     		mov	r0, r3
 3178 0420 0099     		ldr	r1, [sp]
 3179 0422 FFF7FEFF 		bl	_ZN3r2p11Checksummer3addEPKvj
 3180              		.loc 21 148 0
 3181 0426 0398     		ldr	r0, [sp, #12]
 3182 0428 3A21     		movs	r1, #58
 3183 042a 4FF0FF32 		mov	r2, #-1
 3184 042e FFF7FEFF 		bl	_ZN3r2p14DebugTransport9send_charEcm
 3185 0432 0346     		mov	r3, r0
 3186 0434 83F00103 		eor	r3, r3, #1
 3187 0438 DBB2     		uxtb	r3, r3
 3188 043a 002B     		cmp	r3, #0
 3189 043c 01D0     		beq	.L189
ARM GAS  /tmp/ccVvp2Ur.s 			page 57


 3190              		.loc 21 148 0 is_stmt 0 discriminator 1
 3191 043e 0024     		movs	r4, #0
 3192 0440 7CE0     		b	.L184
 3193              	.L189:
 3194              		.loc 21 149 0 is_stmt 1
 3195 0442 019B     		ldr	r3, [sp, #4]
 3196 0444 DBB2     		uxtb	r3, r3
 3197 0446 8DF81330 		strb	r3, [sp, #19]
 3198              		.loc 21 150 0
 3199 044a 0DF11303 		add	r3, sp, #19
 3200 044e 0398     		ldr	r0, [sp, #12]
 3201 0450 1946     		mov	r1, r3
 3202 0452 4FF0FF32 		mov	r2, #-1
 3203 0456 FFF7FEFF 		bl	_ZN3r2p14DebugTransport10send_valueIhEEbRKT_m
 3204 045a 0346     		mov	r3, r0
 3205 045c 83F00103 		eor	r3, r3, #1
 3206 0460 DBB2     		uxtb	r3, r3
 3207 0462 002B     		cmp	r3, #0
 3208 0464 01D0     		beq	.L190
 3209              		.loc 21 150 0 is_stmt 0 discriminator 1
 3210 0466 0024     		movs	r4, #0
 3211 0468 68E0     		b	.L184
 3212              	.L190:
 3213              		.loc 21 151 0 is_stmt 1
 3214 046a 0298     		ldr	r0, [sp, #8]
 3215 046c FFF7FEFF 		bl	_ZNK3r2p7Message12get_raw_dataEv
 3216 0470 0346     		mov	r3, r0
 3217 0472 0398     		ldr	r0, [sp, #12]
 3218 0474 1946     		mov	r1, r3
 3219 0476 019A     		ldr	r2, [sp, #4]
 3220 0478 4FF0FF33 		mov	r3, #-1
 3221 047c FFF7FEFF 		bl	_ZN3r2p14DebugTransport10send_chunkEPKvjm
 3222 0480 0346     		mov	r3, r0
 3223 0482 83F00103 		eor	r3, r3, #1
 3224 0486 DBB2     		uxtb	r3, r3
 3225 0488 002B     		cmp	r3, #0
 3226 048a 01D0     		beq	.L191
 3227              		.loc 21 151 0 is_stmt 0 discriminator 1
 3228 048c 0024     		movs	r4, #0
 3229 048e 55E0     		b	.L184
 3230              	.L191:
 3231              		.loc 21 152 0 is_stmt 1
 3232 0490 9DF81330 		ldrb	r3, [sp, #19]	@ zero_extendqisi2
 3233 0494 05AA     		add	r2, sp, #20
 3234 0496 1046     		mov	r0, r2
 3235 0498 1946     		mov	r1, r3
 3236 049a FFF7FEFF 		bl	_ZN3r2p11Checksummer3addEh
 3237              		.loc 21 153 0
 3238 049e 0298     		ldr	r0, [sp, #8]
 3239 04a0 FFF7FEFF 		bl	_ZNK3r2p7Message12get_raw_dataEv
 3240 04a4 0246     		mov	r2, r0
 3241 04a6 05AB     		add	r3, sp, #20
 3242 04a8 1846     		mov	r0, r3
 3243 04aa 1146     		mov	r1, r2
 3244 04ac 019A     		ldr	r2, [sp, #4]
 3245 04ae FFF7FEFF 		bl	_ZN3r2p11Checksummer3addEPKhj
 3246              		.loc 21 156 0
ARM GAS  /tmp/ccVvp2Ur.s 			page 58


 3247 04b2 0398     		ldr	r0, [sp, #12]
 3248 04b4 3A21     		movs	r1, #58
 3249 04b6 4FF0FF32 		mov	r2, #-1
 3250 04ba FFF7FEFF 		bl	_ZN3r2p14DebugTransport9send_charEcm
 3251 04be 0346     		mov	r3, r0
 3252 04c0 83F00103 		eor	r3, r3, #1
 3253 04c4 DBB2     		uxtb	r3, r3
 3254 04c6 002B     		cmp	r3, #0
 3255 04c8 01D0     		beq	.L192
 3256              		.loc 21 156 0 is_stmt 0 discriminator 1
 3257 04ca 0024     		movs	r4, #0
 3258 04cc 36E0     		b	.L184
 3259              	.L192:
 3260              		.loc 21 157 0 is_stmt 1
 3261 04ce 05AB     		add	r3, sp, #20
 3262 04d0 1846     		mov	r0, r3
 3263 04d2 FFF7FEFF 		bl	_ZNK3r2p11Checksummer16compute_checksumEv
 3264 04d6 0346     		mov	r3, r0
 3265 04d8 8DF81730 		strb	r3, [sp, #23]
 3266 04dc 0DF11703 		add	r3, sp, #23
 3267 04e0 0398     		ldr	r0, [sp, #12]
 3268 04e2 1946     		mov	r1, r3
 3269 04e4 4FF0FF32 		mov	r2, #-1
 3270 04e8 FFF7FEFF 		bl	_ZN3r2p14DebugTransport10send_valueIhEEbRKT_m
 3271 04ec 0346     		mov	r3, r0
 3272 04ee 83F00103 		eor	r3, r3, #1
 3273 04f2 DBB2     		uxtb	r3, r3
 3274 04f4 002B     		cmp	r3, #0
 3275 04f6 01D0     		beq	.L193
 3276              		.loc 21 157 0 is_stmt 0 discriminator 1
 3277 04f8 0024     		movs	r4, #0
 3278 04fa 1FE0     		b	.L184
 3279              	.L193:
 3280              		.loc 21 160 0 is_stmt 1
 3281 04fc 0398     		ldr	r0, [sp, #12]
 3282 04fe 0D21     		movs	r1, #13
 3283 0500 4FF0FF32 		mov	r2, #-1
 3284 0504 FFF7FEFF 		bl	_ZN3r2p14DebugTransport9send_charEcm
 3285 0508 0346     		mov	r3, r0
 3286 050a 83F00103 		eor	r3, r3, #1
 3287 050e DBB2     		uxtb	r3, r3
 3288 0510 002B     		cmp	r3, #0
 3289 0512 0BD1     		bne	.L194
 3290              		.loc 21 160 0 is_stmt 0 discriminator 2
 3291 0514 0398     		ldr	r0, [sp, #12]
 3292 0516 0A21     		movs	r1, #10
 3293 0518 4FF0FF32 		mov	r2, #-1
 3294 051c FFF7FEFF 		bl	_ZN3r2p14DebugTransport9send_charEcm
 3295 0520 0346     		mov	r3, r0
 3296 0522 83F00103 		eor	r3, r3, #1
 3297 0526 DBB2     		uxtb	r3, r3
 3298 0528 002B     		cmp	r3, #0
 3299 052a 01D0     		beq	.L195
 3300              	.L194:
 3301              		.loc 21 160 0 discriminator 3
 3302 052c 0123     		movs	r3, #1
 3303 052e 00E0     		b	.L196
ARM GAS  /tmp/ccVvp2Ur.s 			page 59


 3304              	.L195:
 3305              		.loc 21 160 0 discriminator 4
 3306 0530 0023     		movs	r3, #0
 3307              	.L196:
 3308              		.loc 21 160 0 discriminator 6
 3309 0532 002B     		cmp	r3, #0
 3310 0534 01D0     		beq	.L197
 3311              		.loc 21 160 0 discriminator 7
 3312 0536 0024     		movs	r4, #0
 3313 0538 00E0     		b	.L184
 3314              	.L197:
 3315              		.loc 21 161 0 is_stmt 1
 3316 053a 0124     		movs	r4, #1
 3317              	.L184:
 3318              		.loc 21 161 0 is_stmt 0 discriminator 1
 3319 053c 05AB     		add	r3, sp, #20
 3320 053e 1846     		mov	r0, r3
 3321 0540 FFF7FEFF 		bl	_ZN3r2p11ChecksummerD1Ev
 3322 0544 2346     		mov	r3, r4
 3323              	.LBE37:
 3324              		.loc 21 162 0 is_stmt 1 discriminator 1
 3325 0546 1846     		mov	r0, r3
 3326 0548 06B0     		add	sp, sp, #24
 3327              		.cfi_def_cfa_offset 8
 3328              		@ sp needed
 3329 054a 10BD     		pop	{r4, pc}
 3330              		.cfi_endproc
 3331              	.LFE1699:
 3332              		.size	_ZN3r2p14DebugTransport8send_msgERKNS_7MessageEjPKcRKNS_4TimeE, .-_ZN3r2p14DebugTransport8se
 3333              		.section	.rodata
 3334 000d 000000   		.align	2
 3335              	.LC1:
 3336 0010 44454255 		.ascii	"DEBUG_TX\000"
 3336      475F5458 
 3336      00
 3337 0019 000000   		.align	2
 3338              	.LC2:
 3339 001c 44454255 		.ascii	"DEBUG_RX\000"
 3339      475F5258 
 3339      00
 3340 0025 000000   		.align	2
 3341              	.LC3:
 3342 0028 0D0A0D0A 		.ascii	"\015\012\015\012\000"
 3342      00
 3343 002d 000000   		.align	2
 3344              	.LC4:
 3345 0030 52325000 		.ascii	"R2P\000"
 3346              		.text
 3347              		.align	2
 3348              		.global	_ZN3r2p14DebugTransport10initializeEPvjmS1_jm
 3349              		.thumb
 3350              		.thumb_func
 3351              		.type	_ZN3r2p14DebugTransport10initializeEPvjmS1_jm, %function
 3352              	_ZN3r2p14DebugTransport10initializeEPvjmS1_jm:
 3353              	.LFB1703:
 3354              		.loc 21 168 0
 3355              		.cfi_startproc
ARM GAS  /tmp/ccVvp2Ur.s 			page 60


 3356              		@ args = 12, pretend = 0, frame = 24
 3357              		@ frame_needed = 0, uses_anonymous_args = 0
 3358 054c 10B5     		push	{r4, lr}
 3359              		.cfi_def_cfa_offset 8
 3360              		.cfi_offset 4, -8
 3361              		.cfi_offset 14, -4
 3362 054e 88B0     		sub	sp, sp, #32
 3363              		.cfi_def_cfa_offset 40
 3364 0550 0590     		str	r0, [sp, #20]
 3365 0552 0491     		str	r1, [sp, #16]
 3366 0554 0392     		str	r2, [sp, #12]
 3367 0556 0293     		str	r3, [sp, #8]
 3368              	.LBB38:
 3369              		.loc 21 170 0
 3370 0558 059B     		ldr	r3, [sp, #20]
 3371 055a 5033     		adds	r3, r3, #80
 3372 055c 1846     		mov	r0, r3
 3373 055e 0021     		movs	r1, #0
 3374 0560 FFF7FEFF 		bl	_ZN3r2p9Semaphore10initializeEl
 3375              		.loc 21 171 0
 3376 0564 059B     		ldr	r3, [sp, #20]
 3377 0566 6C33     		adds	r3, r3, #108
 3378 0568 1846     		mov	r0, r3
 3379 056a FFF7FEFF 		bl	_ZN3r2p5Mutex10initializeEv
 3380              		.loc 21 175 0
 3381 056e 059B     		ldr	r3, [sp, #20]
 3382 0570 0093     		str	r3, [sp]
 3383 0572 614B     		ldr	r3, .L208
 3384 0574 0193     		str	r3, [sp, #4]
 3385 0576 0A98     		ldr	r0, [sp, #40]
 3386 0578 0B99     		ldr	r1, [sp, #44]
 3387 057a 0C9A     		ldr	r2, [sp, #48]
 3388 057c 5F4B     		ldr	r3, .L208+4
 3389 057e FFF7FEFF 		bl	_ZN3r2p6Thread13create_staticEPvjmPFlS1_ES1_PKc
 3390 0582 0246     		mov	r2, r0
 3391 0584 059B     		ldr	r3, [sp, #20]
 3392 0586 5A64     		str	r2, [r3, #68]
 3393              		.loc 21 176 0
 3394 0588 059B     		ldr	r3, [sp, #20]
 3395 058a 5B6C     		ldr	r3, [r3, #68]
 3396 058c 002B     		cmp	r3, #0
 3397 058e 02D1     		bne	.L200
 3398              		.loc 21 176 0 is_stmt 0 discriminator 1
 3399 0590 5B48     		ldr	r0, .L208+8
 3400 0592 FFF7FEFF 		bl	chDbgPanic
 3401              	.L200:
 3402              		.loc 21 180 0 is_stmt 1
 3403 0596 059B     		ldr	r3, [sp, #20]
 3404 0598 0093     		str	r3, [sp]
 3405 059a 5A4B     		ldr	r3, .L208+12
 3406 059c 0193     		str	r3, [sp, #4]
 3407 059e 0498     		ldr	r0, [sp, #16]
 3408 05a0 0399     		ldr	r1, [sp, #12]
 3409 05a2 029A     		ldr	r2, [sp, #8]
 3410 05a4 584B     		ldr	r3, .L208+16
 3411 05a6 FFF7FEFF 		bl	_ZN3r2p6Thread13create_staticEPvjmPFlS1_ES1_PKc
 3412 05aa 0246     		mov	r2, r0
ARM GAS  /tmp/ccVvp2Ur.s 			page 61


 3413 05ac 059B     		ldr	r3, [sp, #20]
 3414 05ae 1A64     		str	r2, [r3, #64]
 3415              		.loc 21 181 0
 3416 05b0 059B     		ldr	r3, [sp, #20]
 3417 05b2 1B6C     		ldr	r3, [r3, #64]
 3418 05b4 002B     		cmp	r3, #0
 3419 05b6 02D1     		bne	.L201
 3420              		.loc 21 181 0 is_stmt 0 discriminator 1
 3421 05b8 5148     		ldr	r0, .L208+8
 3422 05ba FFF7FEFF 		bl	chDbgPanic
 3423              	.L201:
 3424              		.loc 21 185 0 is_stmt 1
 3425 05be 059B     		ldr	r3, [sp, #20]
 3426 05c0 6C33     		adds	r3, r3, #108
 3427 05c2 1846     		mov	r0, r3
 3428 05c4 FFF7FEFF 		bl	_ZN3r2p5Mutex7acquireEv
 3429              		.loc 21 186 0
 3430 05c8 0598     		ldr	r0, [sp, #20]
 3431 05ca 5049     		ldr	r1, .L208+20
 3432 05cc 0422     		movs	r2, #4
 3433 05ce 4FF0FF33 		mov	r3, #-1
 3434 05d2 FFF7FEFF 		bl	_ZN3r2p14DebugTransport11send_stringEPKcjm
 3435 05d6 0346     		mov	r3, r0
 3436 05d8 8DF81F30 		strb	r3, [sp, #31]
 3437              		.loc 21 187 0
 3438 05dc 9DF81F30 		ldrb	r3, [sp, #31]
 3439 05e0 83F00103 		eor	r3, r3, #1
 3440 05e4 DBB2     		uxtb	r3, r3
 3441 05e6 002B     		cmp	r3, #0
 3442 05e8 02D0     		beq	.L202
 3443              		.loc 21 187 0 is_stmt 0 discriminator 1
 3444 05ea 4548     		ldr	r0, .L208+8
 3445 05ec FFF7FEFF 		bl	chDbgPanic
 3446              	.L202:
 3447              		.loc 21 188 0 is_stmt 1
 3448 05f0 059B     		ldr	r3, [sp, #20]
 3449 05f2 6C33     		adds	r3, r3, #108
 3450 05f4 1846     		mov	r0, r3
 3451 05f6 FFF7FEFF 		bl	_ZN3r2p5Mutex7releaseEv
 3452              	.LBB39:
 3453              		.loc 21 190 0
 3454 05fa FFF7FEFF 		bl	_ZN3r2p10Middleware18is_bootloader_modeEv
 3455 05fe 0346     		mov	r3, r0
 3456 0600 002B     		cmp	r3, #0
 3457 0602 3CD0     		beq	.L203
 3458              	.LBB40:
 3459              		.loc 21 192 0
 3460 0604 4248     		ldr	r0, .L208+24
 3461 0606 FFF7FEFF 		bl	_ZN3r2p10Middleware14get_boot_topicEv
 3462 060a 0346     		mov	r3, r0
 3463 060c 1846     		mov	r0, r3
 3464 060e FFF7FEFF 		bl	_ZNK3r2p5Topic8get_nameEv
 3465 0612 0690     		str	r0, [sp, #24]
 3466              		.loc 21 193 0
 3467 0614 0599     		ldr	r1, [sp, #20]
 3468 0616 059B     		ldr	r3, [sp, #20]
 3469 0618 03F51472 		add	r2, r3, #592
ARM GAS  /tmp/ccVvp2Ur.s 			page 62


 3470 061c 2123     		movs	r3, #33
 3471 061e 0093     		str	r3, [sp]
 3472 0620 0846     		mov	r0, r1
 3473 0622 1146     		mov	r1, r2
 3474 0624 069A     		ldr	r2, [sp, #24]
 3475 0626 3B4B     		ldr	r3, .L208+28
 3476 0628 FFF7FEFF 		bl	_ZN3r2p9Transport9advertiseERNS_15RemotePublisherEPKcRKNS_4TimeEj
 3477 062c 0346     		mov	r3, r0
 3478 062e 8DF81F30 		strb	r3, [sp, #31]
 3479              		.loc 21 194 0
 3480 0632 9DF81F30 		ldrb	r3, [sp, #31]
 3481 0636 83F00103 		eor	r3, r3, #1
 3482 063a DBB2     		uxtb	r3, r3
 3483 063c 002B     		cmp	r3, #0
 3484 063e 02D0     		beq	.L204
 3485              		.loc 21 194 0 is_stmt 0 discriminator 1
 3486 0640 2F48     		ldr	r0, .L208+8
 3487 0642 FFF7FEFF 		bl	chDbgPanic
 3488              	.L204:
 3489              		.loc 21 195 0 is_stmt 1
 3490 0646 0599     		ldr	r1, [sp, #20]
 3491 0648 059B     		ldr	r3, [sp, #20]
 3492 064a 03F50672 		add	r2, r3, #536
 3493 064e 059B     		ldr	r3, [sp, #20]
 3494 0650 03F5CA74 		add	r4, r3, #404
 3495 0654 0423     		movs	r3, #4
 3496 0656 0093     		str	r3, [sp]
 3497 0658 0846     		mov	r0, r1
 3498 065a 1146     		mov	r1, r2
 3499 065c 069A     		ldr	r2, [sp, #24]
 3500 065e 2346     		mov	r3, r4
 3501 0660 FFF7FEFF 		bl	_ZN3r2p9Transport9subscribeINS_7BootMsgEEEbRNS_16RemoteSubscriberEPKcPT_j
 3502 0664 0346     		mov	r3, r0
 3503 0666 8DF81F30 		strb	r3, [sp, #31]
 3504              		.loc 21 196 0
 3505 066a 9DF81F30 		ldrb	r3, [sp, #31]
 3506 066e 83F00103 		eor	r3, r3, #1
 3507 0672 DBB2     		uxtb	r3, r3
 3508 0674 002B     		cmp	r3, #0
 3509 0676 02D0     		beq	.L205
 3510              		.loc 21 196 0 is_stmt 0 discriminator 1
 3511 0678 2148     		ldr	r0, .L208+8
 3512 067a FFF7FEFF 		bl	chDbgPanic
 3513              	.L205:
 3514              	.L203:
 3515              	.LBE40:
 3516              	.LBE39:
 3517              		.loc 21 200 0 is_stmt 1
 3518 067e 0599     		ldr	r1, [sp, #20]
 3519 0680 059B     		ldr	r3, [sp, #20]
 3520 0682 03F5B072 		add	r2, r3, #352
 3521 0686 2223     		movs	r3, #34
 3522 0688 0093     		str	r3, [sp]
 3523 068a 0846     		mov	r0, r1
 3524 068c 1146     		mov	r1, r2
 3525 068e 224A     		ldr	r2, .L208+32
 3526 0690 204B     		ldr	r3, .L208+28
ARM GAS  /tmp/ccVvp2Ur.s 			page 63


 3527 0692 FFF7FEFF 		bl	_ZN3r2p9Transport9advertiseERNS_15RemotePublisherEPKcRKNS_4TimeEj
 3528 0696 0346     		mov	r3, r0
 3529 0698 8DF81F30 		strb	r3, [sp, #31]
 3530              		.loc 21 201 0
 3531 069c 9DF81F30 		ldrb	r3, [sp, #31]
 3532 06a0 83F00103 		eor	r3, r3, #1
 3533 06a4 DBB2     		uxtb	r3, r3
 3534 06a6 002B     		cmp	r3, #0
 3535 06a8 02D0     		beq	.L206
 3536              		.loc 21 201 0 is_stmt 0 discriminator 1
 3537 06aa 1548     		ldr	r0, .L208+8
 3538 06ac FFF7FEFF 		bl	chDbgPanic
 3539              	.L206:
 3540              		.loc 21 202 0 is_stmt 1
 3541 06b0 0599     		ldr	r1, [sp, #20]
 3542 06b2 059B     		ldr	r3, [sp, #20]
 3543 06b4 03F59472 		add	r2, r3, #296
 3544 06b8 059B     		ldr	r3, [sp, #20]
 3545 06ba 03F1A004 		add	r4, r3, #160
 3546 06be 0423     		movs	r3, #4
 3547 06c0 0093     		str	r3, [sp]
 3548 06c2 0846     		mov	r0, r1
 3549 06c4 1146     		mov	r1, r2
 3550 06c6 144A     		ldr	r2, .L208+32
 3551 06c8 2346     		mov	r3, r4
 3552 06ca FFF7FEFF 		bl	_ZN3r2p9Transport9subscribeINS_7MgmtMsgEEEbRNS_16RemoteSubscriberEPKcPT_j
 3553 06ce 0346     		mov	r3, r0
 3554 06d0 8DF81F30 		strb	r3, [sp, #31]
 3555              		.loc 21 203 0
 3556 06d4 9DF81F30 		ldrb	r3, [sp, #31]
 3557 06d8 83F00103 		eor	r3, r3, #1
 3558 06dc DBB2     		uxtb	r3, r3
 3559 06de 002B     		cmp	r3, #0
 3560 06e0 02D0     		beq	.L207
 3561              		.loc 21 203 0 is_stmt 0 discriminator 1
 3562 06e2 0748     		ldr	r0, .L208+8
 3563 06e4 FFF7FEFF 		bl	chDbgPanic
 3564              	.L207:
 3565              		.loc 21 205 0 is_stmt 1
 3566 06e8 059B     		ldr	r3, [sp, #20]
 3567 06ea 0948     		ldr	r0, .L208+24
 3568 06ec 1946     		mov	r1, r3
 3569 06ee FFF7FEFF 		bl	_ZN3r2p10Middleware3addERNS_9TransportE
 3570              	.LBE38:
 3571              		.loc 21 206 0
 3572 06f2 08B0     		add	sp, sp, #32
 3573              		.cfi_def_cfa_offset 8
 3574              		@ sp needed
 3575 06f4 10BD     		pop	{r4, pc}
 3576              	.L209:
 3577 06f6 00BF     		.align	2
 3578              	.L208:
 3579 06f8 10000000 		.word	.LC1
 3580 06fc 00000000 		.word	_ZN3r2p14DebugTransport10tx_threadfEPv
 3581 0700 00000000 		.word	.LC0
 3582 0704 1C000000 		.word	.LC2
 3583 0708 00000000 		.word	_ZN3r2p14DebugTransport10rx_threadfEPv
ARM GAS  /tmp/ccVvp2Ur.s 			page 64


 3584 070c 28000000 		.word	.LC3
 3585 0710 00000000 		.word	_ZN3r2p10Middleware8instanceE
 3586 0714 00000000 		.word	_ZN3r2p4Time8INFINITEE
 3587 0718 30000000 		.word	.LC4
 3588              		.cfi_endproc
 3589              	.LFE1703:
 3590              		.size	_ZN3r2p14DebugTransport10initializeEPvjmS1_jm, .-_ZN3r2p14DebugTransport10initializeEPvjmS1_
 3591              		.align	2
 3592              		.global	_ZN3r2p14DebugTransport7spin_txEv
 3593              		.thumb
 3594              		.thumb_func
 3595              		.type	_ZN3r2p14DebugTransport7spin_txEv, %function
 3596              	_ZN3r2p14DebugTransport7spin_txEv:
 3597              	.LFB1704:
 3598              		.loc 21 209 0
 3599              		.cfi_startproc
 3600              		@ args = 0, pretend = 0, frame = 40
 3601              		@ frame_needed = 0, uses_anonymous_args = 0
 3602 071c F0B5     		push	{r4, r5, r6, r7, lr}
 3603              		.cfi_def_cfa_offset 20
 3604              		.cfi_offset 4, -20
 3605              		.cfi_offset 5, -16
 3606              		.cfi_offset 6, -12
 3607              		.cfi_offset 7, -8
 3608              		.cfi_offset 14, -4
 3609 071e 8DB0     		sub	sp, sp, #52
 3610              		.cfi_def_cfa_offset 72
 3611 0720 0390     		str	r0, [sp, #12]
 3612              	.LBB41:
 3613              		.loc 21 212 0
 3614 0722 05AB     		add	r3, sp, #20
 3615 0724 1846     		mov	r0, r3
 3616 0726 FFF7FEFF 		bl	_ZN3r2p4TimeC1Ev
 3617              		.loc 21 215 0
 3618 072a FFF7FEFF 		bl	_ZN3r2p7SysLock7acquireEv
 3619              		.loc 21 216 0
 3620 072e 039B     		ldr	r3, [sp, #12]
 3621 0730 5033     		adds	r3, r3, #80
 3622 0732 1846     		mov	r0, r3
 3623 0734 FFF7FEFF 		bl	_ZN3r2p9Semaphore11wait_unsafeEv
 3624              		.loc 21 217 0
 3625 0738 039B     		ldr	r3, [sp, #12]
 3626 073a 03F16002 		add	r2, r3, #96
 3627 073e 04AB     		add	r3, sp, #16
 3628 0740 1046     		mov	r0, r2
 3629 0742 1946     		mov	r1, r3
 3630 0744 FFF7FEFF 		bl	_ZNK3r2p11StaticQueueINS_14BaseSubscriberEE11peek_unsafeERPKNS2_4LinkE
 3631              		.loc 21 218 0
 3632 0748 049B     		ldr	r3, [sp, #16]
 3633 074a 5B68     		ldr	r3, [r3, #4]
 3634 074c 002B     		cmp	r3, #0
 3635 074e 02D1     		bne	.L211
 3636              		.loc 21 218 0 is_stmt 0 discriminator 1
 3637 0750 5048     		ldr	r0, .L221
 3638 0752 FFF7FEFF 		bl	chDbgPanic
 3639              	.L211:
 3640              		.loc 21 219 0 is_stmt 1
ARM GAS  /tmp/ccVvp2Ur.s 			page 65


 3641 0756 049B     		ldr	r3, [sp, #16]
 3642 0758 5B68     		ldr	r3, [r3, #4]
 3643 075a 0993     		str	r3, [sp, #36]
 3644              		.loc 21 220 0
 3645 075c 0998     		ldr	r0, [sp, #36]
 3646 075e FFF7FEFF 		bl	_ZNK3r2p15DebugSubscriber15get_queue_countEv
 3647 0762 0B90     		str	r0, [sp, #44]
 3648              		.loc 21 221 0
 3649 0764 0B9B     		ldr	r3, [sp, #44]
 3650 0766 002B     		cmp	r3, #0
 3651 0768 02D1     		bne	.L212
 3652              		.loc 21 221 0 is_stmt 0 discriminator 1
 3653 076a 4A48     		ldr	r0, .L221
 3654 076c FFF7FEFF 		bl	chDbgPanic
 3655              	.L212:
 3656              		.loc 21 222 0 is_stmt 1
 3657 0770 FFF7FEFF 		bl	_ZN3r2p7SysLock7releaseEv
 3658              		.loc 21 224 0
 3659 0774 0023     		movs	r3, #0
 3660 0776 8DF82B30 		strb	r3, [sp, #43]
 3661              		.loc 21 225 0
 3662 077a 7CE0     		b	.L213
 3663              	.L219:
 3664              	.LBB42:
 3665              		.loc 21 226 0
 3666 077c FFF7FEFF 		bl	_ZN3r2p7SysLock7acquireEv
 3667              		.loc 21 227 0
 3668 0780 099B     		ldr	r3, [sp, #36]
 3669 0782 1B68     		ldr	r3, [r3]
 3670 0784 0833     		adds	r3, r3, #8
 3671 0786 1B68     		ldr	r3, [r3]
 3672 0788 06A9     		add	r1, sp, #24
 3673 078a 05AA     		add	r2, sp, #20
 3674 078c 0998     		ldr	r0, [sp, #36]
 3675 078e 9847     		blx	r3
 3676              		.loc 21 228 0
 3677 0790 0B9B     		ldr	r3, [sp, #44]
 3678 0792 002B     		cmp	r3, #0
 3679 0794 1DD1     		bne	.L214
 3680              		.loc 21 229 0
 3681 0796 039B     		ldr	r3, [sp, #12]
 3682 0798 6033     		adds	r3, r3, #96
 3683 079a 1846     		mov	r0, r3
 3684 079c FFF7FEFF 		bl	_ZN3r2p11StaticQueueINS_14BaseSubscriberEE11skip_unsafeEv
 3685              		.loc 21 232 0
 3686 07a0 9DF82B30 		ldrb	r3, [sp, #43]
 3687 07a4 83F00103 		eor	r3, r3, #1
 3688 07a8 DBB2     		uxtb	r3, r3
 3689 07aa 002B     		cmp	r3, #0
 3690 07ac 07D0     		beq	.L215
 3691              		.loc 21 232 0 is_stmt 0 discriminator 1
 3692 07ae 0998     		ldr	r0, [sp, #36]
 3693 07b0 FFF7FEFF 		bl	_ZNK3r2p15DebugSubscriber15get_queue_countEv
 3694 07b4 0346     		mov	r3, r0
 3695 07b6 002B     		cmp	r3, #0
 3696 07b8 01D0     		beq	.L215
 3697              		.loc 21 232 0 discriminator 3
ARM GAS  /tmp/ccVvp2Ur.s 			page 66


 3698 07ba 0123     		movs	r3, #1
 3699 07bc 00E0     		b	.L216
 3700              	.L215:
 3701              		.loc 21 232 0 discriminator 4
 3702 07be 0023     		movs	r3, #0
 3703              	.L216:
 3704              		.loc 21 232 0 discriminator 6
 3705 07c0 002B     		cmp	r3, #0
 3706 07c2 06D0     		beq	.L214
 3707              		.loc 21 233 0 is_stmt 1
 3708 07c4 0123     		movs	r3, #1
 3709 07c6 8DF82B30 		strb	r3, [sp, #43]
 3710              		.loc 21 234 0
 3711 07ca 0398     		ldr	r0, [sp, #12]
 3712 07cc 0999     		ldr	r1, [sp, #36]
 3713 07ce FFF7FEFF 		bl	_ZN3r2p14DebugTransport23notify_first_sub_unsafeERKNS_15DebugSubscriberE
 3714              	.L214:
 3715              		.loc 21 237 0
 3716 07d2 FFF7FEFF 		bl	_ZN3r2p7SysLock7releaseEv
 3717              		.loc 21 239 0
 3718 07d6 039B     		ldr	r3, [sp, #12]
 3719 07d8 6C33     		adds	r3, r3, #108
 3720 07da 1846     		mov	r0, r3
 3721 07dc FFF7FEFF 		bl	_ZN3r2p5Mutex7acquireEv
 3722              		.loc 21 240 0
 3723 07e0 099B     		ldr	r3, [sp, #36]
 3724 07e2 1846     		mov	r0, r3
 3725 07e4 FFF7FEFF 		bl	_ZNK3r2p14BaseSubscriber9get_topicEv
 3726 07e8 0890     		str	r0, [sp, #32]
 3727              		.loc 21 242 0
 3728 07ea 069C     		ldr	r4, [sp, #24]
 3729 07ec 0898     		ldr	r0, [sp, #32]
 3730 07ee FFF7FEFF 		bl	_ZNK3r2p5Topic16get_payload_sizeEv
 3731 07f2 0646     		mov	r6, r0
 3732 07f4 0898     		ldr	r0, [sp, #32]
 3733 07f6 FFF7FEFF 		bl	_ZNK3r2p5Topic8get_nameEv
 3734 07fa 0546     		mov	r5, r0
 3735 07fc 0898     		ldr	r0, [sp, #32]
 3736 07fe FFF7FEFF 		bl	_ZNK3r2p5Topic19get_publish_timeoutEv
 3737 0802 0746     		mov	r7, r0
 3738 0804 07AA     		add	r2, sp, #28
 3739 0806 05AB     		add	r3, sp, #20
 3740 0808 1046     		mov	r0, r2
 3741 080a 1946     		mov	r1, r3
 3742 080c 3A46     		mov	r2, r7
 3743 080e FFF7FEFF 		bl	_ZN3r2pplERKNS_4TimeES2_
 3744 0812 07AB     		add	r3, sp, #28
 3745 0814 0093     		str	r3, [sp]
 3746 0816 0398     		ldr	r0, [sp, #12]
 3747 0818 2146     		mov	r1, r4
 3748 081a 3246     		mov	r2, r6
 3749 081c 2B46     		mov	r3, r5
 3750 081e FFF7FEFF 		bl	_ZN3r2p14DebugTransport8send_msgERKNS_7MessageEjPKcRKNS_4TimeE
 3751 0822 0346     		mov	r3, r0
 3752              		.loc 21 241 0
 3753 0824 83F00103 		eor	r3, r3, #1
 3754 0828 DBB2     		uxtb	r3, r3
ARM GAS  /tmp/ccVvp2Ur.s 			page 67


 3755 082a 002B     		cmp	r3, #0
 3756 082c 18D0     		beq	.L217
 3757              		.loc 21 243 0
 3758 082e 099A     		ldr	r2, [sp, #36]
 3759 0830 069B     		ldr	r3, [sp, #24]
 3760 0832 1046     		mov	r0, r2
 3761 0834 1946     		mov	r1, r3
 3762 0836 FFF7FEFF 		bl	_ZN3r2p14BaseSubscriber7releaseERNS_7MessageE
 3763              		.loc 21 244 0
 3764 083a 0398     		ldr	r0, [sp, #12]
 3765 083c 0D21     		movs	r1, #13
 3766 083e 4FF0FF32 		mov	r2, #-1
 3767 0842 FFF7FEFF 		bl	_ZN3r2p14DebugTransport9send_charEcm
 3768              		.loc 21 245 0
 3769 0846 0398     		ldr	r0, [sp, #12]
 3770 0848 0A21     		movs	r1, #10
 3771 084a 4FF0FF32 		mov	r2, #-1
 3772 084e FFF7FEFF 		bl	_ZN3r2p14DebugTransport9send_charEcm
 3773              		.loc 21 246 0
 3774 0852 039B     		ldr	r3, [sp, #12]
 3775 0854 6C33     		adds	r3, r3, #108
 3776 0856 1846     		mov	r0, r3
 3777 0858 FFF7FEFF 		bl	_ZN3r2p5Mutex7releaseEv
 3778              		.loc 21 247 0
 3779 085c 0023     		movs	r3, #0
 3780 085e 16E0     		b	.L220
 3781              	.L217:
 3782              		.loc 21 249 0
 3783 0860 099A     		ldr	r2, [sp, #36]
 3784 0862 069B     		ldr	r3, [sp, #24]
 3785 0864 1046     		mov	r0, r2
 3786 0866 1946     		mov	r1, r3
 3787 0868 FFF7FEFF 		bl	_ZN3r2p14BaseSubscriber7releaseERNS_7MessageE
 3788              		.loc 21 250 0
 3789 086c 039B     		ldr	r3, [sp, #12]
 3790 086e 6C33     		adds	r3, r3, #108
 3791 0870 1846     		mov	r0, r3
 3792 0872 FFF7FEFF 		bl	_ZN3r2p5Mutex7releaseEv
 3793              	.L213:
 3794              	.LBE42:
 3795              		.loc 21 225 0
 3796 0876 0B9B     		ldr	r3, [sp, #44]
 3797 0878 5A1E     		subs	r2, r3, #1
 3798 087a 0B92     		str	r2, [sp, #44]
 3799 087c 002B     		cmp	r3, #0
 3800 087e 14BF     		ite	ne
 3801 0880 0123     		movne	r3, #1
 3802 0882 0023     		moveq	r3, #0
 3803 0884 DBB2     		uxtb	r3, r3
 3804 0886 002B     		cmp	r3, #0
 3805 0888 7FF478AF 		bne	.L219
 3806              		.loc 21 252 0
 3807 088c 0123     		movs	r3, #1
 3808              	.L220:
 3809              	.LBE41:
 3810              		.loc 21 253 0 discriminator 1
 3811 088e 1846     		mov	r0, r3
ARM GAS  /tmp/ccVvp2Ur.s 			page 68


 3812 0890 0DB0     		add	sp, sp, #52
 3813              		.cfi_def_cfa_offset 20
 3814              		@ sp needed
 3815 0892 F0BD     		pop	{r4, r5, r6, r7, pc}
 3816              	.L222:
 3817              		.align	2
 3818              	.L221:
 3819 0894 00000000 		.word	.LC0
 3820              		.cfi_endproc
 3821              	.LFE1704:
 3822              		.size	_ZN3r2p14DebugTransport7spin_txEv, .-_ZN3r2p14DebugTransport7spin_txEv
 3823              		.align	2
 3824              		.global	_ZN3r2p14DebugTransport7spin_rxEv
 3825              		.thumb
 3826              		.thumb_func
 3827              		.type	_ZN3r2p14DebugTransport7spin_rxEv, %function
 3828              	_ZN3r2p14DebugTransport7spin_rxEv:
 3829              	.LFB1705:
 3830              		.loc 21 256 0
 3831              		.cfi_startproc
 3832              		@ args = 0, pretend = 0, frame = 32
 3833              		@ frame_needed = 0, uses_anonymous_args = 0
 3834 0898 10B5     		push	{r4, lr}
 3835              		.cfi_def_cfa_offset 8
 3836              		.cfi_offset 4, -8
 3837              		.cfi_offset 14, -4
 3838 089a 88B0     		sub	sp, sp, #32
 3839              		.cfi_def_cfa_offset 40
 3840 089c 0190     		str	r0, [sp, #4]
 3841              	.LBB43:
 3842              		.loc 21 258 0
 3843 089e 05AB     		add	r3, sp, #20
 3844 08a0 1846     		mov	r0, r3
 3845 08a2 FFF7FEFF 		bl	_ZN3r2p11ChecksummerC1Ev
 3846              		.loc 21 261 0
 3847 08a6 0198     		ldr	r0, [sp, #4]
 3848 08a8 4021     		movs	r1, #64
 3849 08aa 4FF0FF32 		mov	r2, #-1
 3850 08ae FFF7FEFF 		bl	_ZN3r2p14DebugTransport15skip_after_charEcm
 3851 08b2 0346     		mov	r3, r0
 3852 08b4 83F00103 		eor	r3, r3, #1
 3853 08b8 DBB2     		uxtb	r3, r3
 3854 08ba 002B     		cmp	r3, #0
 3855 08bc 01D0     		beq	.L224
 3856              		.loc 21 261 0 is_stmt 0 discriminator 1
 3857 08be 0024     		movs	r4, #0
 3858 08c0 24E1     		b	.L225
 3859              	.L224:
 3860              	.LBB44:
 3861              		.loc 21 265 0 is_stmt 1
 3862 08c2 02AB     		add	r3, sp, #8
 3863 08c4 1846     		mov	r0, r3
 3864 08c6 FFF7FEFF 		bl	_ZN3r2p4TimeC1Ev
 3865              		.loc 21 266 0
 3866 08ca 02AB     		add	r3, sp, #8
 3867 08cc 0198     		ldr	r0, [sp, #4]
 3868 08ce 1946     		mov	r1, r3
ARM GAS  /tmp/ccVvp2Ur.s 			page 69


 3869 08d0 4FF0FF32 		mov	r2, #-1
 3870 08d4 FFF7FEFF 		bl	_ZN3r2p14DebugTransport10recv_valueIlEEbRT_m
 3871 08d8 0346     		mov	r3, r0
 3872 08da 83F00103 		eor	r3, r3, #1
 3873 08de DBB2     		uxtb	r3, r3
 3874 08e0 002B     		cmp	r3, #0
 3875 08e2 01D0     		beq	.L226
 3876              		.loc 21 266 0 is_stmt 0 discriminator 1
 3877 08e4 0024     		movs	r4, #0
 3878 08e6 11E1     		b	.L225
 3879              	.L226:
 3880              		.loc 21 267 0 is_stmt 1
 3881 08e8 05AA     		add	r2, sp, #20
 3882 08ea 02AB     		add	r3, sp, #8
 3883 08ec 1046     		mov	r0, r2
 3884 08ee 1946     		mov	r1, r3
 3885 08f0 FFF7FEFF 		bl	_ZN3r2p11Checksummer3addIlEEvRKT_
 3886              	.LBE44:
 3887              		.loc 21 270 0
 3888 08f4 0198     		ldr	r0, [sp, #4]
 3889 08f6 3A21     		movs	r1, #58
 3890 08f8 4FF0FF32 		mov	r2, #-1
 3891 08fc FFF7FEFF 		bl	_ZN3r2p14DebugTransport11expect_charEcm
 3892 0900 0346     		mov	r3, r0
 3893 0902 83F00103 		eor	r3, r3, #1
 3894 0906 DBB2     		uxtb	r3, r3
 3895 0908 002B     		cmp	r3, #0
 3896 090a 01D0     		beq	.L227
 3897              		.loc 21 270 0 is_stmt 0 discriminator 1
 3898 090c 0024     		movs	r4, #0
 3899 090e FDE0     		b	.L225
 3900              	.L227:
 3901              		.loc 21 272 0 is_stmt 1
 3902 0910 0DF11303 		add	r3, sp, #19
 3903 0914 0198     		ldr	r0, [sp, #4]
 3904 0916 1946     		mov	r1, r3
 3905 0918 4FF0FF32 		mov	r2, #-1
 3906 091c FFF7FEFF 		bl	_ZN3r2p14DebugTransport10recv_valueIhEEbRT_m
 3907 0920 0346     		mov	r3, r0
 3908 0922 83F00103 		eor	r3, r3, #1
 3909 0926 DBB2     		uxtb	r3, r3
 3910 0928 002B     		cmp	r3, #0
 3911 092a 01D0     		beq	.L228
 3912              		.loc 21 272 0 is_stmt 0 discriminator 1
 3913 092c 0024     		movs	r4, #0
 3914 092e EDE0     		b	.L225
 3915              	.L228:
 3916              		.loc 21 273 0 is_stmt 1
 3917 0930 9DF81330 		ldrb	r3, [sp, #19]	@ zero_extendqisi2
 3918 0934 002B     		cmp	r3, #0
 3919 0936 03D0     		beq	.L229
 3920              		.loc 21 273 0 is_stmt 0 discriminator 2
 3921 0938 9DF81330 		ldrb	r3, [sp, #19]	@ zero_extendqisi2
 3922 093c 102B     		cmp	r3, #16
 3923 093e 01D9     		bls	.L230
 3924              	.L229:
 3925              		.loc 21 273 0 discriminator 3
ARM GAS  /tmp/ccVvp2Ur.s 			page 70


 3926 0940 0024     		movs	r4, #0
 3927 0942 E3E0     		b	.L225
 3928              	.L230:
 3929              		.loc 21 274 0 is_stmt 1
 3930 0944 019B     		ldr	r3, [sp, #4]
 3931 0946 DB6C     		ldr	r3, [r3, #76]
 3932 0948 1846     		mov	r0, r3
 3933 094a 0021     		movs	r1, #0
 3934 094c 1022     		movs	r2, #16
 3935 094e FFF7FEFF 		bl	memset
 3936              		.loc 21 275 0
 3937 0952 019B     		ldr	r3, [sp, #4]
 3938 0954 DB6C     		ldr	r3, [r3, #76]
 3939 0956 9DF81320 		ldrb	r2, [sp, #19]	@ zero_extendqisi2
 3940 095a 0198     		ldr	r0, [sp, #4]
 3941 095c 1946     		mov	r1, r3
 3942 095e 4FF0FF33 		mov	r3, #-1
 3943 0962 FFF7FEFF 		bl	_ZN3r2p14DebugTransport11recv_stringEPcjm
 3944 0966 0346     		mov	r3, r0
 3945 0968 83F00103 		eor	r3, r3, #1
 3946 096c DBB2     		uxtb	r3, r3
 3947 096e 002B     		cmp	r3, #0
 3948 0970 01D0     		beq	.L231
 3949              		.loc 21 275 0 is_stmt 0 discriminator 1
 3950 0972 0024     		movs	r4, #0
 3951 0974 CAE0     		b	.L225
 3952              	.L231:
 3953              		.loc 21 276 0 is_stmt 1
 3954 0976 0198     		ldr	r0, [sp, #4]
 3955 0978 3A21     		movs	r1, #58
 3956 097a 4FF0FF32 		mov	r2, #-1
 3957 097e FFF7FEFF 		bl	_ZN3r2p14DebugTransport11expect_charEcm
 3958 0982 0346     		mov	r3, r0
 3959 0984 83F00103 		eor	r3, r3, #1
 3960 0988 DBB2     		uxtb	r3, r3
 3961 098a 002B     		cmp	r3, #0
 3962 098c 01D0     		beq	.L232
 3963              		.loc 21 276 0 is_stmt 0 discriminator 1
 3964 098e 0024     		movs	r4, #0
 3965 0990 BCE0     		b	.L225
 3966              	.L232:
 3967              		.loc 21 277 0 is_stmt 1
 3968 0992 9DF81330 		ldrb	r3, [sp, #19]	@ zero_extendqisi2
 3969 0996 05AA     		add	r2, sp, #20
 3970 0998 1046     		mov	r0, r2
 3971 099a 1946     		mov	r1, r3
 3972 099c FFF7FEFF 		bl	_ZN3r2p11Checksummer3addEh
 3973              		.loc 21 278 0
 3974 09a0 019B     		ldr	r3, [sp, #4]
 3975 09a2 DB6C     		ldr	r3, [r3, #76]
 3976 09a4 9DF81320 		ldrb	r2, [sp, #19]	@ zero_extendqisi2
 3977 09a8 1446     		mov	r4, r2
 3978 09aa 05AA     		add	r2, sp, #20
 3979 09ac 1046     		mov	r0, r2
 3980 09ae 1946     		mov	r1, r3
 3981 09b0 2246     		mov	r2, r4
 3982 09b2 FFF7FEFF 		bl	_ZN3r2p11Checksummer3addEPKvj
ARM GAS  /tmp/ccVvp2Ur.s 			page 71


 3983              		.loc 21 281 0
 3984 09b6 019B     		ldr	r3, [sp, #4]
 3985 09b8 DB6C     		ldr	r3, [r3, #76]
 3986 09ba 5848     		ldr	r0, .L244
 3987 09bc 1946     		mov	r1, r3
 3988 09be FFF7FEFF 		bl	_ZN3r2p10Middleware10find_topicEPKc
 3989 09c2 0790     		str	r0, [sp, #28]
 3990              		.loc 21 282 0
 3991 09c4 079B     		ldr	r3, [sp, #28]
 3992 09c6 002B     		cmp	r3, #0
 3993 09c8 01D1     		bne	.L233
 3994              		.loc 21 282 0 is_stmt 0 discriminator 1
 3995 09ca 0024     		movs	r4, #0
 3996 09cc 9EE0     		b	.L225
 3997              	.L233:
 3998              		.loc 21 284 0 is_stmt 1
 3999 09ce 019B     		ldr	r3, [sp, #4]
 4000 09d0 03F10804 		add	r4, r3, #8
 4001 09d4 0798     		ldr	r0, [sp, #28]
 4002 09d6 FFF7FEFF 		bl	_ZNK3r2p5Topic8get_nameEv
 4003 09da 0346     		mov	r3, r0
 4004 09dc 2046     		mov	r0, r4
 4005 09de 5049     		ldr	r1, .L244+4
 4006 09e0 1A46     		mov	r2, r3
 4007 09e2 FFF7FEFF 		bl	_ZNK3r2p10StaticListINS_15RemotePublisherEE10find_firstIPFbRKNS_13BasePublisherEPKcEcEEPS1_T_PK
 4008 09e6 0690     		str	r0, [sp, #24]
 4009              		.loc 21 285 0
 4010 09e8 069B     		ldr	r3, [sp, #24]
 4011 09ea 002B     		cmp	r3, #0
 4012 09ec 01D1     		bne	.L234
 4013              		.loc 21 285 0 is_stmt 0 discriminator 1
 4014 09ee 0024     		movs	r4, #0
 4015 09f0 8CE0     		b	.L225
 4016              	.L234:
 4017              		.loc 21 288 0 is_stmt 1
 4018 09f2 0DF11303 		add	r3, sp, #19
 4019 09f6 0198     		ldr	r0, [sp, #4]
 4020 09f8 1946     		mov	r1, r3
 4021 09fa 4FF0FF32 		mov	r2, #-1
 4022 09fe FFF7FEFF 		bl	_ZN3r2p14DebugTransport10recv_valueIhEEbRT_m
 4023 0a02 0346     		mov	r3, r0
 4024 0a04 83F00103 		eor	r3, r3, #1
 4025 0a08 DBB2     		uxtb	r3, r3
 4026 0a0a 002B     		cmp	r3, #0
 4027 0a0c 01D0     		beq	.L235
 4028              		.loc 21 288 0 is_stmt 0 discriminator 1
 4029 0a0e 0024     		movs	r4, #0
 4030 0a10 7CE0     		b	.L225
 4031              	.L235:
 4032              		.loc 21 289 0 is_stmt 1
 4033 0a12 9DF81330 		ldrb	r3, [sp, #19]	@ zero_extendqisi2
 4034 0a16 1C46     		mov	r4, r3
 4035 0a18 0798     		ldr	r0, [sp, #28]
 4036 0a1a FFF7FEFF 		bl	_ZNK3r2p5Topic16get_payload_sizeEv
 4037 0a1e 0346     		mov	r3, r0
 4038 0a20 9C42     		cmp	r4, r3
 4039 0a22 14BF     		ite	ne
ARM GAS  /tmp/ccVvp2Ur.s 			page 72


 4040 0a24 0123     		movne	r3, #1
 4041 0a26 0023     		moveq	r3, #0
 4042 0a28 DBB2     		uxtb	r3, r3
 4043 0a2a 002B     		cmp	r3, #0
 4044 0a2c 01D0     		beq	.L236
 4045              		.loc 21 289 0 is_stmt 0 discriminator 1
 4046 0a2e 0024     		movs	r4, #0
 4047 0a30 6CE0     		b	.L225
 4048              	.L236:
 4049              		.loc 21 290 0 is_stmt 1
 4050 0a32 9DF81330 		ldrb	r3, [sp, #19]	@ zero_extendqisi2
 4051 0a36 05AA     		add	r2, sp, #20
 4052 0a38 1046     		mov	r0, r2
 4053 0a3a 1946     		mov	r1, r3
 4054 0a3c FFF7FEFF 		bl	_ZN3r2p11Checksummer3addEh
 4055              		.loc 21 294 0
 4056 0a40 069A     		ldr	r2, [sp, #24]
 4057 0a42 03AB     		add	r3, sp, #12
 4058 0a44 1046     		mov	r0, r2
 4059 0a46 1946     		mov	r1, r3
 4060 0a48 FFF7FEFF 		bl	_ZN3r2p13BasePublisher5allocERPNS_7MessageE
 4061 0a4c 0346     		mov	r3, r0
 4062 0a4e 83F00103 		eor	r3, r3, #1
 4063 0a52 DBB2     		uxtb	r3, r3
 4064 0a54 002B     		cmp	r3, #0
 4065 0a56 01D0     		beq	.L237
 4066              		.loc 21 294 0 is_stmt 0 discriminator 1
 4067 0a58 0024     		movs	r4, #0
 4068 0a5a 57E0     		b	.L225
 4069              	.L237:
 4070              		.loc 21 299 0 is_stmt 1
 4071 0a5c 039B     		ldr	r3, [sp, #12]
 4072 0a5e 1846     		mov	r0, r3
 4073 0a60 FFF7FEFF 		bl	_ZNK3r2p7Message12get_raw_dataEv
 4074 0a64 0246     		mov	r2, r0
 4075 0a66 9DF81330 		ldrb	r3, [sp, #19]	@ zero_extendqisi2
 4076 0a6a 0198     		ldr	r0, [sp, #4]
 4077 0a6c 1146     		mov	r1, r2
 4078 0a6e 1A46     		mov	r2, r3
 4079 0a70 4FF0FF33 		mov	r3, #-1
 4080 0a74 FFF7FEFF 		bl	_ZN3r2p14DebugTransport10recv_chunkEPvjm
 4081 0a78 0346     		mov	r3, r0
 4082 0a7a 83F00103 		eor	r3, r3, #1
 4083 0a7e DBB2     		uxtb	r3, r3
 4084 0a80 002B     		cmp	r3, #0
 4085 0a82 01D0     		beq	.L238
 4086              		.loc 21 300 0
 4087 0a84 0024     		movs	r4, #0
 4088 0a86 41E0     		b	.L225
 4089              	.L238:
 4090              		.loc 21 302 0
 4091 0a88 039B     		ldr	r3, [sp, #12]
 4092 0a8a 1846     		mov	r0, r3
 4093 0a8c FFF7FEFF 		bl	_ZNK3r2p7Message12get_raw_dataEv
 4094 0a90 0146     		mov	r1, r0
 4095 0a92 9DF81330 		ldrb	r3, [sp, #19]	@ zero_extendqisi2
 4096 0a96 1A46     		mov	r2, r3
ARM GAS  /tmp/ccVvp2Ur.s 			page 73


 4097 0a98 05AB     		add	r3, sp, #20
 4098 0a9a 1846     		mov	r0, r3
 4099 0a9c FFF7FEFF 		bl	_ZN3r2p11Checksummer3addEPKhj
 4100              		.loc 21 305 0
 4101 0aa0 0198     		ldr	r0, [sp, #4]
 4102 0aa2 3A21     		movs	r1, #58
 4103 0aa4 4FF0FF32 		mov	r2, #-1
 4104 0aa8 FFF7FEFF 		bl	_ZN3r2p14DebugTransport11expect_charEcm
 4105 0aac 0346     		mov	r3, r0
 4106 0aae 83F00103 		eor	r3, r3, #1
 4107 0ab2 DBB2     		uxtb	r3, r3
 4108 0ab4 002B     		cmp	r3, #0
 4109 0ab6 1AD1     		bne	.L239
 4110              		.loc 21 305 0 is_stmt 0 discriminator 2
 4111 0ab8 0DF11303 		add	r3, sp, #19
 4112 0abc 0198     		ldr	r0, [sp, #4]
 4113 0abe 1946     		mov	r1, r3
 4114 0ac0 4FF0FF32 		mov	r2, #-1
 4115 0ac4 FFF7FEFF 		bl	_ZN3r2p14DebugTransport10recv_valueIhEEbRT_m
 4116 0ac8 0346     		mov	r3, r0
 4117 0aca 83F00103 		eor	r3, r3, #1
 4118 0ace DBB2     		uxtb	r3, r3
 4119 0ad0 002B     		cmp	r3, #0
 4120 0ad2 0CD1     		bne	.L239
 4121              		.loc 21 305 0 discriminator 4
 4122 0ad4 9DF81330 		ldrb	r3, [sp, #19]	@ zero_extendqisi2
 4123 0ad8 05AA     		add	r2, sp, #20
 4124 0ada 1046     		mov	r0, r2
 4125 0adc 1946     		mov	r1, r3
 4126 0ade FFF7FEFF 		bl	_ZNK3r2p11Checksummer5checkEh
 4127 0ae2 0346     		mov	r3, r0
 4128 0ae4 83F00103 		eor	r3, r3, #1
 4129 0ae8 DBB2     		uxtb	r3, r3
 4130 0aea 002B     		cmp	r3, #0
 4131 0aec 01D0     		beq	.L240
 4132              	.L239:
 4133              		.loc 21 305 0 discriminator 5
 4134 0aee 0123     		movs	r3, #1
 4135 0af0 00E0     		b	.L241
 4136              	.L240:
 4137              		.loc 21 305 0 discriminator 6
 4138 0af2 0023     		movs	r3, #0
 4139              	.L241:
 4140              		.loc 21 305 0 discriminator 8
 4141 0af4 002B     		cmp	r3, #0
 4142 0af6 01D0     		beq	.L242
 4143              		.loc 21 306 0 is_stmt 1
 4144 0af8 0024     		movs	r4, #0
 4145 0afa 07E0     		b	.L225
 4146              	.L242:
 4147              		.loc 21 317 0
 4148 0afc 069A     		ldr	r2, [sp, #24]
 4149 0afe 039B     		ldr	r3, [sp, #12]
 4150 0b00 1046     		mov	r0, r2
 4151 0b02 1946     		mov	r1, r3
 4152 0b04 FFF7FEFF 		bl	_ZN3r2p13BasePublisher15publish_locallyERNS_7MessageE
 4153 0b08 0346     		mov	r3, r0
ARM GAS  /tmp/ccVvp2Ur.s 			page 74


 4154 0b0a 1C46     		mov	r4, r3
 4155              	.L225:
 4156              		.loc 21 317 0 is_stmt 0 discriminator 1
 4157 0b0c 05AB     		add	r3, sp, #20
 4158 0b0e 1846     		mov	r0, r3
 4159 0b10 FFF7FEFF 		bl	_ZN3r2p11ChecksummerD1Ev
 4160 0b14 2346     		mov	r3, r4
 4161              	.LBE43:
 4162              		.loc 21 319 0 is_stmt 1 discriminator 1
 4163 0b16 1846     		mov	r0, r3
 4164 0b18 08B0     		add	sp, sp, #32
 4165              		.cfi_def_cfa_offset 8
 4166              		@ sp needed
 4167 0b1a 10BD     		pop	{r4, pc}
 4168              	.L245:
 4169              		.align	2
 4170              	.L244:
 4171 0b1c 00000000 		.word	_ZN3r2p10Middleware8instanceE
 4172 0b20 00000000 		.word	_ZN3r2p13BasePublisher9has_topicERKS0_PKc
 4173              		.cfi_endproc
 4174              	.LFE1705:
 4175              		.size	_ZN3r2p14DebugTransport7spin_rxEv, .-_ZN3r2p14DebugTransport7spin_rxEv
 4176              		.align	2
 4177              		.global	_ZN3r2p14DebugTransport10rx_threadfEPv
 4178              		.thumb
 4179              		.thumb_func
 4180              		.type	_ZN3r2p14DebugTransport10rx_threadfEPv, %function
 4181              	_ZN3r2p14DebugTransport10rx_threadfEPv:
 4182              	.LFB1706:
 4183              		.loc 21 322 0
 4184              		.cfi_startproc
 4185              		@ args = 0, pretend = 0, frame = 8
 4186              		@ frame_needed = 0, uses_anonymous_args = 0
 4187 0b24 00B5     		push	{lr}
 4188              		.cfi_def_cfa_offset 4
 4189              		.cfi_offset 14, -4
 4190 0b26 83B0     		sub	sp, sp, #12
 4191              		.cfi_def_cfa_offset 16
 4192 0b28 0190     		str	r0, [sp, #4]
 4193              	.LBB45:
 4194              		.loc 21 324 0
 4195 0b2a 019B     		ldr	r3, [sp, #4]
 4196 0b2c 002B     		cmp	r3, #0
 4197 0b2e 02D1     		bne	.L247
 4198              		.loc 21 324 0 is_stmt 0 discriminator 1
 4199 0b30 0348     		ldr	r0, .L248
 4200 0b32 FFF7FEFF 		bl	chDbgPanic
 4201              	.L247:
 4202              	.LBB46:
 4203              	.LBB47:
 4204              		.loc 21 329 0 is_stmt 1 discriminator 1
 4205 0b36 0198     		ldr	r0, [sp, #4]
 4206 0b38 FFF7FEFF 		bl	_ZN3r2p14DebugTransport7spin_rxEv
 4207              	.LBE47:
 4208              		.loc 21 331 0 discriminator 1
 4209 0b3c FBE7     		b	.L247
 4210              	.L249:
ARM GAS  /tmp/ccVvp2Ur.s 			page 75


 4211 0b3e 00BF     		.align	2
 4212              	.L248:
 4213 0b40 00000000 		.word	.LC0
 4214              	.LBE46:
 4215              	.LBE45:
 4216              		.cfi_endproc
 4217              	.LFE1706:
 4218              		.size	_ZN3r2p14DebugTransport10rx_threadfEPv, .-_ZN3r2p14DebugTransport10rx_threadfEPv
 4219              		.align	2
 4220              		.global	_ZN3r2p14DebugTransport10tx_threadfEPv
 4221              		.thumb
 4222              		.thumb_func
 4223              		.type	_ZN3r2p14DebugTransport10tx_threadfEPv, %function
 4224              	_ZN3r2p14DebugTransport10tx_threadfEPv:
 4225              	.LFB1707:
 4226              		.loc 21 336 0
 4227              		.cfi_startproc
 4228              		@ args = 0, pretend = 0, frame = 8
 4229              		@ frame_needed = 0, uses_anonymous_args = 0
 4230 0b44 00B5     		push	{lr}
 4231              		.cfi_def_cfa_offset 4
 4232              		.cfi_offset 14, -4
 4233 0b46 83B0     		sub	sp, sp, #12
 4234              		.cfi_def_cfa_offset 16
 4235 0b48 0190     		str	r0, [sp, #4]
 4236              		.loc 21 338 0
 4237 0b4a 019B     		ldr	r3, [sp, #4]
 4238 0b4c 002B     		cmp	r3, #0
 4239 0b4e 02D1     		bne	.L251
 4240              		.loc 21 338 0 is_stmt 0 discriminator 1
 4241 0b50 0348     		ldr	r0, .L252
 4242 0b52 FFF7FEFF 		bl	chDbgPanic
 4243              	.L251:
 4244              		.loc 21 342 0 is_stmt 1 discriminator 1
 4245 0b56 0198     		ldr	r0, [sp, #4]
 4246 0b58 FFF7FEFF 		bl	_ZN3r2p14DebugTransport7spin_txEv
 4247              		.loc 21 336 0 discriminator 1
 4248 0b5c FBE7     		b	.L251
 4249              	.L253:
 4250 0b5e 00BF     		.align	2
 4251              	.L252:
 4252 0b60 00000000 		.word	.LC0
 4253              		.cfi_endproc
 4254              	.LFE1707:
 4255              		.size	_ZN3r2p14DebugTransport10tx_threadfEPv, .-_ZN3r2p14DebugTransport10tx_threadfEPv
 4256              		.section	.text._ZN3r2p9SemaphoreD2Ev,"axG",%progbits,_ZN3r2p9SemaphoreD5Ev,comdat
 4257              		.align	2
 4258              		.weak	_ZN3r2p9SemaphoreD2Ev
 4259              		.thumb
 4260              		.thumb_func
 4261              		.type	_ZN3r2p9SemaphoreD2Ev, %function
 4262              	_ZN3r2p9SemaphoreD2Ev:
 4263              	.LFB1710:
 4264              		.loc 13 9 0
 4265              		.cfi_startproc
 4266              		@ args = 0, pretend = 0, frame = 8
 4267              		@ frame_needed = 0, uses_anonymous_args = 0
ARM GAS  /tmp/ccVvp2Ur.s 			page 76


 4268 0000 00B5     		push	{lr}
 4269              		.cfi_def_cfa_offset 4
 4270              		.cfi_offset 14, -4
 4271 0002 83B0     		sub	sp, sp, #12
 4272              		.cfi_def_cfa_offset 16
 4273 0004 0190     		str	r0, [sp, #4]
 4274              	.LBB48:
 4275              		.loc 13 9 0
 4276 0006 019B     		ldr	r3, [sp, #4]
 4277 0008 0433     		adds	r3, r3, #4
 4278 000a 1846     		mov	r0, r3
 4279 000c FFF7FEFF 		bl	_ZN3r2p10Semaphore_D1Ev
 4280 0010 0198     		ldr	r0, [sp, #4]
 4281 0012 FFF7FEFF 		bl	_ZN3r2p10UncopyableD2Ev
 4282              	.LBE48:
 4283 0016 019B     		ldr	r3, [sp, #4]
 4284 0018 1846     		mov	r0, r3
 4285 001a 03B0     		add	sp, sp, #12
 4286              		.cfi_def_cfa_offset 4
 4287              		@ sp needed
 4288 001c 5DF804FB 		ldr	pc, [sp], #4
 4289              		.cfi_endproc
 4290              	.LFE1710:
 4291              		.size	_ZN3r2p9SemaphoreD2Ev, .-_ZN3r2p9SemaphoreD2Ev
 4292              		.weak	_ZN3r2p9SemaphoreD1Ev
 4293              		.thumb_set _ZN3r2p9SemaphoreD1Ev,_ZN3r2p9SemaphoreD2Ev
 4294              		.section	.text._ZN3r2p12StaticQueue_D2Ev,"axG",%progbits,_ZN3r2p12StaticQueue_D5Ev,comdat
 4295              		.align	2
 4296              		.weak	_ZN3r2p12StaticQueue_D2Ev
 4297              		.thumb
 4298              		.thumb_func
 4299              		.type	_ZN3r2p12StaticQueue_D2Ev, %function
 4300              	_ZN3r2p12StaticQueue_D2Ev:
 4301              	.LFB1715:
 4302              		.file 22 "/opt/R2P/core/Middleware/include/r2p/impl/StaticQueue_.hpp"
 4303              		.loc 22 10 0
 4304              		.cfi_startproc
 4305              		@ args = 0, pretend = 0, frame = 8
 4306              		@ frame_needed = 0, uses_anonymous_args = 0
 4307 0000 00B5     		push	{lr}
 4308              		.cfi_def_cfa_offset 4
 4309              		.cfi_offset 14, -4
 4310 0002 83B0     		sub	sp, sp, #12
 4311              		.cfi_def_cfa_offset 16
 4312 0004 0190     		str	r0, [sp, #4]
 4313              	.LBB49:
 4314              		.loc 22 10 0
 4315 0006 0198     		ldr	r0, [sp, #4]
 4316 0008 FFF7FEFF 		bl	_ZN3r2p10UncopyableD2Ev
 4317              	.LBE49:
 4318 000c 019B     		ldr	r3, [sp, #4]
 4319 000e 1846     		mov	r0, r3
 4320 0010 03B0     		add	sp, sp, #12
 4321              		.cfi_def_cfa_offset 4
 4322              		@ sp needed
 4323 0012 5DF804FB 		ldr	pc, [sp], #4
 4324              		.cfi_endproc
ARM GAS  /tmp/ccVvp2Ur.s 			page 77


 4325              	.LFE1715:
 4326              		.size	_ZN3r2p12StaticQueue_D2Ev, .-_ZN3r2p12StaticQueue_D2Ev
 4327              		.weak	_ZN3r2p12StaticQueue_D1Ev
 4328              		.thumb_set _ZN3r2p12StaticQueue_D1Ev,_ZN3r2p12StaticQueue_D2Ev
 4329 0016 00BF     		.section	.text._ZN3r2p11StaticQueueINS_14BaseSubscriberEED2Ev,"axG",%progbits,_ZN3r2p11StaticQueue
 4330              		.align	2
 4331              		.weak	_ZN3r2p11StaticQueueINS_14BaseSubscriberEED2Ev
 4332              		.thumb
 4333              		.thumb_func
 4334              		.type	_ZN3r2p11StaticQueueINS_14BaseSubscriberEED2Ev, %function
 4335              	_ZN3r2p11StaticQueueINS_14BaseSubscriberEED2Ev:
 4336              	.LFB1717:
 4337              		.file 23 "/opt/R2P/core/Middleware/include/r2p/StaticQueue.hpp"
 4338              		.loc 23 10 0
 4339              		.cfi_startproc
 4340              		@ args = 0, pretend = 0, frame = 8
 4341              		@ frame_needed = 0, uses_anonymous_args = 0
 4342 0000 00B5     		push	{lr}
 4343              		.cfi_def_cfa_offset 4
 4344              		.cfi_offset 14, -4
 4345 0002 83B0     		sub	sp, sp, #12
 4346              		.cfi_def_cfa_offset 16
 4347 0004 0190     		str	r0, [sp, #4]
 4348              	.LBB50:
 4349              		.loc 23 10 0
 4350 0006 019B     		ldr	r3, [sp, #4]
 4351 0008 0433     		adds	r3, r3, #4
 4352 000a 1846     		mov	r0, r3
 4353 000c FFF7FEFF 		bl	_ZN3r2p12StaticQueue_D1Ev
 4354 0010 0198     		ldr	r0, [sp, #4]
 4355 0012 FFF7FEFF 		bl	_ZN3r2p10UncopyableD2Ev
 4356              	.LBE50:
 4357 0016 019B     		ldr	r3, [sp, #4]
 4358 0018 1846     		mov	r0, r3
 4359 001a 03B0     		add	sp, sp, #12
 4360              		.cfi_def_cfa_offset 4
 4361              		@ sp needed
 4362 001c 5DF804FB 		ldr	pc, [sp], #4
 4363              		.cfi_endproc
 4364              	.LFE1717:
 4365              		.size	_ZN3r2p11StaticQueueINS_14BaseSubscriberEED2Ev, .-_ZN3r2p11StaticQueueINS_14BaseSubscriberEE
 4366              		.weak	_ZN3r2p11StaticQueueINS_14BaseSubscriberEED1Ev
 4367              		.thumb_set _ZN3r2p11StaticQueueINS_14BaseSubscriberEED1Ev,_ZN3r2p11StaticQueueINS_14BaseSubscriber
 4368              		.section	.text._ZN3r2p19BaseSubscriberQueueD2Ev,"axG",%progbits,_ZN3r2p19BaseSubscriberQueueD5Ev,c
 4369              		.align	2
 4370              		.weak	_ZN3r2p19BaseSubscriberQueueD2Ev
 4371              		.thumb
 4372              		.thumb_func
 4373              		.type	_ZN3r2p19BaseSubscriberQueueD2Ev, %function
 4374              	_ZN3r2p19BaseSubscriberQueueD2Ev:
 4375              	.LFB1719:
 4376              		.file 24 "/opt/R2P/core/Middleware/include/r2p/BaseSubscriberQueue.hpp"
 4377              		.loc 24 11 0
 4378              		.cfi_startproc
 4379              		@ args = 0, pretend = 0, frame = 8
 4380              		@ frame_needed = 0, uses_anonymous_args = 0
 4381 0000 00B5     		push	{lr}
ARM GAS  /tmp/ccVvp2Ur.s 			page 78


 4382              		.cfi_def_cfa_offset 4
 4383              		.cfi_offset 14, -4
 4384 0002 83B0     		sub	sp, sp, #12
 4385              		.cfi_def_cfa_offset 16
 4386 0004 0190     		str	r0, [sp, #4]
 4387              	.LBB51:
 4388              		.loc 24 11 0
 4389 0006 019B     		ldr	r3, [sp, #4]
 4390 0008 1846     		mov	r0, r3
 4391 000a FFF7FEFF 		bl	_ZN3r2p11StaticQueueINS_14BaseSubscriberEED2Ev
 4392              	.LBE51:
 4393 000e 019B     		ldr	r3, [sp, #4]
 4394 0010 1846     		mov	r0, r3
 4395 0012 03B0     		add	sp, sp, #12
 4396              		.cfi_def_cfa_offset 4
 4397              		@ sp needed
 4398 0014 5DF804FB 		ldr	pc, [sp], #4
 4399              		.cfi_endproc
 4400              	.LFE1719:
 4401              		.size	_ZN3r2p19BaseSubscriberQueueD2Ev, .-_ZN3r2p19BaseSubscriberQueueD2Ev
 4402              		.weak	_ZN3r2p19BaseSubscriberQueueD1Ev
 4403              		.thumb_set _ZN3r2p19BaseSubscriberQueueD1Ev,_ZN3r2p19BaseSubscriberQueueD2Ev
 4404              		.section	.text._ZN3r2p7MgmtMsgC2Ev,"axG",%progbits,_ZN3r2p7MgmtMsgC5Ev,comdat
 4405              		.align	2
 4406              		.weak	_ZN3r2p7MgmtMsgC2Ev
 4407              		.thumb
 4408              		.thumb_func
 4409              		.type	_ZN3r2p7MgmtMsgC2Ev, %function
 4410              	_ZN3r2p7MgmtMsgC2Ev:
 4411              	.LFB1722:
 4412              		.file 25 "/opt/R2P/core/Middleware/include/r2p/MgmtMsg.hpp"
 4413              		.loc 25 12 0
 4414              		.cfi_startproc
 4415              		@ args = 0, pretend = 0, frame = 8
 4416              		@ frame_needed = 0, uses_anonymous_args = 0
 4417 0000 00B5     		push	{lr}
 4418              		.cfi_def_cfa_offset 4
 4419              		.cfi_offset 14, -4
 4420 0002 83B0     		sub	sp, sp, #12
 4421              		.cfi_def_cfa_offset 16
 4422 0004 0190     		str	r0, [sp, #4]
 4423              	.LBB52:
 4424              		.loc 25 12 0
 4425 0006 019B     		ldr	r3, [sp, #4]
 4426 0008 1846     		mov	r0, r3
 4427 000a FFF7FEFF 		bl	_ZN3r2p7MessageC2Ev
 4428              	.LBE52:
 4429 000e 019B     		ldr	r3, [sp, #4]
 4430 0010 1846     		mov	r0, r3
 4431 0012 03B0     		add	sp, sp, #12
 4432              		.cfi_def_cfa_offset 4
 4433              		@ sp needed
 4434 0014 5DF804FB 		ldr	pc, [sp], #4
 4435              		.cfi_endproc
 4436              	.LFE1722:
 4437              		.size	_ZN3r2p7MgmtMsgC2Ev, .-_ZN3r2p7MgmtMsgC2Ev
 4438              		.weak	_ZN3r2p7MgmtMsgC1Ev
ARM GAS  /tmp/ccVvp2Ur.s 			page 79


 4439              		.thumb_set _ZN3r2p7MgmtMsgC1Ev,_ZN3r2p7MgmtMsgC2Ev
 4440              		.section	.text._ZN3r2p7BootMsgC2Ev,"axG",%progbits,_ZN3r2p7BootMsgC5Ev,comdat
 4441              		.align	2
 4442              		.weak	_ZN3r2p7BootMsgC2Ev
 4443              		.thumb
 4444              		.thumb_func
 4445              		.type	_ZN3r2p7BootMsgC2Ev, %function
 4446              	_ZN3r2p7BootMsgC2Ev:
 4447              	.LFB1725:
 4448              		.file 26 "/opt/R2P/core/Middleware/include/r2p/BootMsg.hpp"
 4449              		.loc 26 32 0
 4450              		.cfi_startproc
 4451              		@ args = 0, pretend = 0, frame = 8
 4452              		@ frame_needed = 0, uses_anonymous_args = 0
 4453 0000 00B5     		push	{lr}
 4454              		.cfi_def_cfa_offset 4
 4455              		.cfi_offset 14, -4
 4456 0002 83B0     		sub	sp, sp, #12
 4457              		.cfi_def_cfa_offset 16
 4458 0004 0190     		str	r0, [sp, #4]
 4459              	.LBB53:
 4460              		.loc 26 32 0
 4461 0006 019B     		ldr	r3, [sp, #4]
 4462 0008 1846     		mov	r0, r3
 4463 000a FFF7FEFF 		bl	_ZN3r2p7MessageC2Ev
 4464              	.LBE53:
 4465 000e 019B     		ldr	r3, [sp, #4]
 4466 0010 1846     		mov	r0, r3
 4467 0012 03B0     		add	sp, sp, #12
 4468              		.cfi_def_cfa_offset 4
 4469              		@ sp needed
 4470 0014 5DF804FB 		ldr	pc, [sp], #4
 4471              		.cfi_endproc
 4472              	.LFE1725:
 4473              		.size	_ZN3r2p7BootMsgC2Ev, .-_ZN3r2p7BootMsgC2Ev
 4474              		.weak	_ZN3r2p7BootMsgC1Ev
 4475              		.thumb_set _ZN3r2p7BootMsgC1Ev,_ZN3r2p7BootMsgC2Ev
 4476              		.text
 4477              		.align	2
 4478              		.global	_ZN3r2p14DebugTransportC2EPKcP11BaseChannelPc
 4479              		.thumb
 4480              		.thumb_func
 4481              		.type	_ZN3r2p14DebugTransportC2EPKcP11BaseChannelPc, %function
 4482              	_ZN3r2p14DebugTransportC2EPKcP11BaseChannelPc:
 4483              	.LFB1727:
 4484              		.loc 21 348 0
 4485              		.cfi_startproc
 4486              		@ args = 0, pretend = 0, frame = 16
 4487              		@ frame_needed = 0, uses_anonymous_args = 0
 4488 0b64 30B5     		push	{r4, r5, lr}
 4489              		.cfi_def_cfa_offset 12
 4490              		.cfi_offset 4, -12
 4491              		.cfi_offset 5, -8
 4492              		.cfi_offset 14, -4
 4493 0b66 85B0     		sub	sp, sp, #20
 4494              		.cfi_def_cfa_offset 32
 4495 0b68 0390     		str	r0, [sp, #12]
ARM GAS  /tmp/ccVvp2Ur.s 			page 80


 4496 0b6a 0291     		str	r1, [sp, #8]
 4497 0b6c 0192     		str	r2, [sp, #4]
 4498 0b6e 0093     		str	r3, [sp]
 4499              	.LBB54:
 4500              		.loc 21 361 0
 4501 0b70 039B     		ldr	r3, [sp, #12]
 4502 0b72 1846     		mov	r0, r3
 4503 0b74 0299     		ldr	r1, [sp, #8]
 4504 0b76 FFF7FEFF 		bl	_ZN3r2p9TransportC2EPKc
 4505 0b7a 039B     		ldr	r3, [sp, #12]
 4506 0b7c 464A     		ldr	r2, .L284
 4507 0b7e 1A60     		str	r2, [r3]
 4508 0b80 039B     		ldr	r3, [sp, #12]
 4509 0b82 0022     		movs	r2, #0
 4510 0b84 1A64     		str	r2, [r3, #64]
 4511 0b86 039B     		ldr	r3, [sp, #12]
 4512 0b88 0022     		movs	r2, #0
 4513 0b8a 5A64     		str	r2, [r3, #68]
 4514 0b8c 039B     		ldr	r3, [sp, #12]
 4515 0b8e 019A     		ldr	r2, [sp, #4]
 4516 0b90 9A64     		str	r2, [r3, #72]
 4517 0b92 039B     		ldr	r3, [sp, #12]
 4518 0b94 009A     		ldr	r2, [sp]
 4519 0b96 DA64     		str	r2, [r3, #76]
 4520 0b98 039B     		ldr	r3, [sp, #12]
 4521 0b9a 5033     		adds	r3, r3, #80
 4522 0b9c 1846     		mov	r0, r3
 4523 0b9e 0021     		movs	r1, #0
 4524 0ba0 0022     		movs	r2, #0
 4525 0ba2 FFF7FEFF 		bl	_ZN3r2p9SemaphoreC1Ebl
 4526 0ba6 039B     		ldr	r3, [sp, #12]
 4527 0ba8 6033     		adds	r3, r3, #96
 4528 0baa 1846     		mov	r0, r3
 4529 0bac FFF7FEFF 		bl	_ZN3r2p19BaseSubscriberQueueC1Ev
 4530 0bb0 039B     		ldr	r3, [sp, #12]
 4531 0bb2 6C33     		adds	r3, r3, #108
 4532 0bb4 1846     		mov	r0, r3
 4533 0bb6 0021     		movs	r1, #0
 4534 0bb8 FFF7FEFF 		bl	_ZN3r2p5MutexC1Eb
 4535 0bbc 039B     		ldr	r3, [sp, #12]
 4536 0bbe 8033     		adds	r3, r3, #128
 4537 0bc0 0324     		movs	r4, #3
 4538 0bc2 1D46     		mov	r5, r3
 4539 0bc4 04E0     		b	.L273
 4540              	.L274:
 4541              		.loc 21 361 0 is_stmt 0 discriminator 3
 4542 0bc6 2846     		mov	r0, r5
 4543 0bc8 FFF7FEFF 		bl	_ZN3r2p22TimestampedMsgPtrQueue5EntryC1Ev
 4544 0bcc 0835     		adds	r5, r5, #8
 4545 0bce 013C     		subs	r4, r4, #1
 4546              	.L273:
 4547              		.loc 21 361 0 discriminator 1
 4548 0bd0 B4F1FF3F 		cmp	r4, #-1
 4549 0bd4 F7D1     		bne	.L274
 4550              		.loc 21 361 0 discriminator 4
 4551 0bd6 039B     		ldr	r3, [sp, #12]
 4552 0bd8 A033     		adds	r3, r3, #160
ARM GAS  /tmp/ccVvp2Ur.s 			page 81


 4553 0bda 0324     		movs	r4, #3
 4554 0bdc 1D46     		mov	r5, r3
 4555 0bde 04E0     		b	.L275
 4556              	.L276:
 4557              		.loc 21 361 0 discriminator 7
 4558 0be0 2846     		mov	r0, r5
 4559 0be2 FFF7FEFF 		bl	_ZN3r2p7MgmtMsgC1Ev
 4560 0be6 2235     		adds	r5, r5, #34
 4561 0be8 013C     		subs	r4, r4, #1
 4562              	.L275:
 4563              		.loc 21 361 0 discriminator 5
 4564 0bea B4F1FF3F 		cmp	r4, #-1
 4565 0bee F7D1     		bne	.L276
 4566              		.loc 21 361 0 discriminator 8
 4567 0bf0 039B     		ldr	r3, [sp, #12]
 4568 0bf2 03F59472 		add	r2, r3, #296
 4569 0bf6 039B     		ldr	r3, [sp, #12]
 4570 0bf8 8033     		adds	r3, r3, #128
 4571 0bfa 1046     		mov	r0, r2
 4572 0bfc 0399     		ldr	r1, [sp, #12]
 4573 0bfe 1A46     		mov	r2, r3
 4574 0c00 0423     		movs	r3, #4
 4575 0c02 FFF7FEFF 		bl	_ZN3r2p15DebugSubscriberC1ERNS_14DebugTransportEPNS_22TimestampedMsgPtrQueue5EntryEj
 4576 0c06 039B     		ldr	r3, [sp, #12]
 4577 0c08 03F5B072 		add	r2, r3, #352
 4578 0c0c 039B     		ldr	r3, [sp, #12]
 4579 0c0e 1046     		mov	r0, r2
 4580 0c10 1946     		mov	r1, r3
 4581 0c12 FFF7FEFF 		bl	_ZN3r2p14DebugPublisherC1ERNS_9TransportE
 4582 0c16 039B     		ldr	r3, [sp, #12]
 4583 0c18 03F5BA73 		add	r3, r3, #372
 4584 0c1c 0324     		movs	r4, #3
 4585 0c1e 1D46     		mov	r5, r3
 4586 0c20 04E0     		b	.L277
 4587              	.L278:
 4588              		.loc 21 361 0 discriminator 11
 4589 0c22 2846     		mov	r0, r5
 4590 0c24 FFF7FEFF 		bl	_ZN3r2p22TimestampedMsgPtrQueue5EntryC1Ev
 4591 0c28 0835     		adds	r5, r5, #8
 4592 0c2a 013C     		subs	r4, r4, #1
 4593              	.L277:
 4594              		.loc 21 361 0 discriminator 9
 4595 0c2c B4F1FF3F 		cmp	r4, #-1
 4596 0c30 F7D1     		bne	.L278
 4597              		.loc 21 361 0 discriminator 12
 4598 0c32 039B     		ldr	r3, [sp, #12]
 4599 0c34 03F5CA73 		add	r3, r3, #404
 4600 0c38 0324     		movs	r4, #3
 4601 0c3a 1D46     		mov	r5, r3
 4602 0c3c 04E0     		b	.L279
 4603              	.L280:
 4604              		.loc 21 361 0 discriminator 15
 4605 0c3e 2846     		mov	r0, r5
 4606 0c40 FFF7FEFF 		bl	_ZN3r2p7BootMsgC1Ev
 4607 0c44 2135     		adds	r5, r5, #33
 4608 0c46 013C     		subs	r4, r4, #1
 4609              	.L279:
ARM GAS  /tmp/ccVvp2Ur.s 			page 82


 4610              		.loc 21 361 0 discriminator 13
 4611 0c48 B4F1FF3F 		cmp	r4, #-1
 4612 0c4c F7D1     		bne	.L280
 4613              		.loc 21 361 0 discriminator 16
 4614 0c4e 039B     		ldr	r3, [sp, #12]
 4615 0c50 03F50672 		add	r2, r3, #536
 4616 0c54 039B     		ldr	r3, [sp, #12]
 4617 0c56 03F5BA73 		add	r3, r3, #372
 4618 0c5a 1046     		mov	r0, r2
 4619 0c5c 0399     		ldr	r1, [sp, #12]
 4620 0c5e 1A46     		mov	r2, r3
 4621 0c60 0423     		movs	r3, #4
 4622 0c62 FFF7FEFF 		bl	_ZN3r2p15DebugSubscriberC1ERNS_14DebugTransportEPNS_22TimestampedMsgPtrQueue5EntryEj
 4623 0c66 039B     		ldr	r3, [sp, #12]
 4624 0c68 03F51472 		add	r2, r3, #592
 4625 0c6c 039B     		ldr	r3, [sp, #12]
 4626 0c6e 1046     		mov	r0, r2
 4627 0c70 1946     		mov	r1, r3
 4628 0c72 FFF7FEFF 		bl	_ZN3r2p14DebugPublisherC1ERNS_9TransportE
 4629              		.loc 21 363 0 is_stmt 1 discriminator 16
 4630 0c76 019B     		ldr	r3, [sp, #4]
 4631 0c78 002B     		cmp	r3, #0
 4632 0c7a 02D1     		bne	.L281
 4633              		.loc 21 363 0 is_stmt 0 discriminator 1
 4634 0c7c 0748     		ldr	r0, .L284+4
 4635 0c7e FFF7FEFF 		bl	chDbgPanic
 4636              	.L281:
 4637              		.loc 21 364 0 is_stmt 1
 4638 0c82 009B     		ldr	r3, [sp]
 4639 0c84 002B     		cmp	r3, #0
 4640 0c86 02D1     		bne	.L282
 4641              		.loc 21 364 0 is_stmt 0 discriminator 1
 4642 0c88 0448     		ldr	r0, .L284+4
 4643 0c8a FFF7FEFF 		bl	chDbgPanic
 4644              	.L282:
 4645              	.LBE54:
 4646              		.loc 21 365 0 is_stmt 1
 4647 0c8e 039B     		ldr	r3, [sp, #12]
 4648 0c90 1846     		mov	r0, r3
 4649 0c92 05B0     		add	sp, sp, #20
 4650              		.cfi_def_cfa_offset 12
 4651              		@ sp needed
 4652 0c94 30BD     		pop	{r4, r5, pc}
 4653              	.L285:
 4654 0c96 00BF     		.align	2
 4655              	.L284:
 4656 0c98 08000000 		.word	_ZTVN3r2p14DebugTransportE+8
 4657 0c9c 00000000 		.word	.LC0
 4658              		.cfi_endproc
 4659              	.LFE1727:
 4660              		.size	_ZN3r2p14DebugTransportC2EPKcP11BaseChannelPc, .-_ZN3r2p14DebugTransportC2EPKcP11BaseChannel
 4661              		.global	_ZN3r2p14DebugTransportC1EPKcP11BaseChannelPc
 4662              		.thumb_set _ZN3r2p14DebugTransportC1EPKcP11BaseChannelPc,_ZN3r2p14DebugTransportC2EPKcP11BaseChann
 4663              		.align	2
 4664              		.global	_ZN3r2p14DebugTransportD2Ev
 4665              		.thumb
 4666              		.thumb_func
ARM GAS  /tmp/ccVvp2Ur.s 			page 83


 4667              		.type	_ZN3r2p14DebugTransportD2Ev, %function
 4668              	_ZN3r2p14DebugTransportD2Ev:
 4669              	.LFB1730:
 4670              		.loc 21 368 0
 4671              		.cfi_startproc
 4672              		@ args = 0, pretend = 0, frame = 8
 4673              		@ frame_needed = 0, uses_anonymous_args = 0
 4674 0ca0 00B5     		push	{lr}
 4675              		.cfi_def_cfa_offset 4
 4676              		.cfi_offset 14, -4
 4677 0ca2 83B0     		sub	sp, sp, #12
 4678              		.cfi_def_cfa_offset 16
 4679 0ca4 0190     		str	r0, [sp, #4]
 4680              	.LBB55:
 4681              		.loc 21 368 0
 4682 0ca6 019B     		ldr	r3, [sp, #4]
 4683 0ca8 1B4A     		ldr	r2, .L290
 4684 0caa 1A60     		str	r2, [r3]
 4685 0cac 019B     		ldr	r3, [sp, #4]
 4686 0cae 03F51473 		add	r3, r3, #592
 4687 0cb2 1846     		mov	r0, r3
 4688 0cb4 FFF7FEFF 		bl	_ZN3r2p14DebugPublisherD1Ev
 4689 0cb8 019B     		ldr	r3, [sp, #4]
 4690 0cba 03F50673 		add	r3, r3, #536
 4691 0cbe 1846     		mov	r0, r3
 4692 0cc0 FFF7FEFF 		bl	_ZN3r2p15DebugSubscriberD1Ev
 4693 0cc4 019B     		ldr	r3, [sp, #4]
 4694 0cc6 03F5B073 		add	r3, r3, #352
 4695 0cca 1846     		mov	r0, r3
 4696 0ccc FFF7FEFF 		bl	_ZN3r2p14DebugPublisherD1Ev
 4697 0cd0 019B     		ldr	r3, [sp, #4]
 4698 0cd2 03F59473 		add	r3, r3, #296
 4699 0cd6 1846     		mov	r0, r3
 4700 0cd8 FFF7FEFF 		bl	_ZN3r2p15DebugSubscriberD1Ev
 4701 0cdc 019B     		ldr	r3, [sp, #4]
 4702 0cde 6C33     		adds	r3, r3, #108
 4703 0ce0 1846     		mov	r0, r3
 4704 0ce2 FFF7FEFF 		bl	_ZN3r2p5MutexD1Ev
 4705 0ce6 019B     		ldr	r3, [sp, #4]
 4706 0ce8 6033     		adds	r3, r3, #96
 4707 0cea 1846     		mov	r0, r3
 4708 0cec FFF7FEFF 		bl	_ZN3r2p19BaseSubscriberQueueD1Ev
 4709 0cf0 019B     		ldr	r3, [sp, #4]
 4710 0cf2 5033     		adds	r3, r3, #80
 4711 0cf4 1846     		mov	r0, r3
 4712 0cf6 FFF7FEFF 		bl	_ZN3r2p9SemaphoreD1Ev
 4713 0cfa 019B     		ldr	r3, [sp, #4]
 4714 0cfc 1846     		mov	r0, r3
 4715 0cfe FFF7FEFF 		bl	_ZN3r2p9TransportD2Ev
 4716              	.LBE55:
 4717 0d02 0023     		movs	r3, #0
 4718 0d04 002B     		cmp	r3, #0
 4719 0d06 02D0     		beq	.L288
 4720              		.loc 21 368 0 is_stmt 0 discriminator 2
 4721 0d08 0198     		ldr	r0, [sp, #4]
 4722 0d0a FFF7FEFF 		bl	_ZdlPv
 4723              	.L288:
ARM GAS  /tmp/ccVvp2Ur.s 			page 84


 4724              		.loc 21 368 0 discriminator 4
 4725 0d0e 019B     		ldr	r3, [sp, #4]
 4726 0d10 1846     		mov	r0, r3
 4727 0d12 03B0     		add	sp, sp, #12
 4728              		.cfi_def_cfa_offset 4
 4729              		@ sp needed
 4730 0d14 5DF804FB 		ldr	pc, [sp], #4
 4731              	.L291:
 4732              		.align	2
 4733              	.L290:
 4734 0d18 08000000 		.word	_ZTVN3r2p14DebugTransportE+8
 4735              		.cfi_endproc
 4736              	.LFE1730:
 4737              		.size	_ZN3r2p14DebugTransportD2Ev, .-_ZN3r2p14DebugTransportD2Ev
 4738              		.global	_ZN3r2p14DebugTransportD1Ev
 4739              		.thumb_set _ZN3r2p14DebugTransportD1Ev,_ZN3r2p14DebugTransportD2Ev
 4740              		.align	2
 4741              		.global	_ZN3r2p14DebugTransportD0Ev
 4742              		.thumb
 4743              		.thumb_func
 4744              		.type	_ZN3r2p14DebugTransportD0Ev, %function
 4745              	_ZN3r2p14DebugTransportD0Ev:
 4746              	.LFB1732:
 4747              		.loc 21 368 0 is_stmt 1
 4748              		.cfi_startproc
 4749              		@ args = 0, pretend = 0, frame = 8
 4750              		@ frame_needed = 0, uses_anonymous_args = 0
 4751 0d1c 00B5     		push	{lr}
 4752              		.cfi_def_cfa_offset 4
 4753              		.cfi_offset 14, -4
 4754 0d1e 83B0     		sub	sp, sp, #12
 4755              		.cfi_def_cfa_offset 16
 4756 0d20 0190     		str	r0, [sp, #4]
 4757              		.loc 21 368 0
 4758 0d22 0198     		ldr	r0, [sp, #4]
 4759 0d24 FFF7FEFF 		bl	_ZN3r2p14DebugTransportD2Ev
 4760 0d28 0198     		ldr	r0, [sp, #4]
 4761 0d2a FFF7FEFF 		bl	_ZdlPv
 4762 0d2e 019B     		ldr	r3, [sp, #4]
 4763 0d30 1846     		mov	r0, r3
 4764 0d32 03B0     		add	sp, sp, #12
 4765              		.cfi_def_cfa_offset 4
 4766              		@ sp needed
 4767 0d34 5DF804FB 		ldr	pc, [sp], #4
 4768              		.cfi_endproc
 4769              	.LFE1732:
 4770              		.size	_ZN3r2p14DebugTransportD0Ev, .-_ZN3r2p14DebugTransportD0Ev
 4771              		.section	.text._ZN3r2p4TimeC2IlEET_,"axG",%progbits,_ZN3r2p4TimeC5IlEET_,comdat
 4772              		.align	2
 4773              		.weak	_ZN3r2p4TimeC2IlEET_
 4774              		.thumb
 4775              		.thumb_func
 4776              		.type	_ZN3r2p4TimeC2IlEET_, %function
 4777              	_ZN3r2p4TimeC2IlEET_:
 4778              	.LFB1734:
 4779              		.loc 4 159 0
 4780              		.cfi_startproc
ARM GAS  /tmp/ccVvp2Ur.s 			page 85


 4781              		@ args = 0, pretend = 0, frame = 8
 4782              		@ frame_needed = 0, uses_anonymous_args = 0
 4783              		@ link register save eliminated.
 4784 0000 82B0     		sub	sp, sp, #8
 4785              		.cfi_def_cfa_offset 8
 4786 0002 0190     		str	r0, [sp, #4]
 4787 0004 0091     		str	r1, [sp]
 4788              	.LBB56:
 4789              		.loc 4 161 0
 4790 0006 019B     		ldr	r3, [sp, #4]
 4791 0008 009A     		ldr	r2, [sp]
 4792 000a 1A60     		str	r2, [r3]
 4793              	.LBE56:
 4794              		.loc 4 162 0
 4795 000c 019B     		ldr	r3, [sp, #4]
 4796 000e 1846     		mov	r0, r3
 4797 0010 02B0     		add	sp, sp, #8
 4798              		.cfi_def_cfa_offset 0
 4799              		@ sp needed
 4800 0012 7047     		bx	lr
 4801              		.cfi_endproc
 4802              	.LFE1734:
 4803              		.size	_ZN3r2p4TimeC2IlEET_, .-_ZN3r2p4TimeC2IlEET_
 4804              		.weak	_ZN3r2p4TimeC1IlEET_
 4805              		.thumb_set _ZN3r2p4TimeC1IlEET_,_ZN3r2p4TimeC2IlEET_
 4806              		.section	.text._ZN3r2p11StaticQueueINS_14BaseSubscriberEE11post_unsafeERNS2_4LinkE,"axG",%progbits
 4807              		.align	2
 4808              		.weak	_ZN3r2p11StaticQueueINS_14BaseSubscriberEE11post_unsafeERNS2_4LinkE
 4809              		.thumb
 4810              		.thumb_func
 4811              		.type	_ZN3r2p11StaticQueueINS_14BaseSubscriberEE11post_unsafeERNS2_4LinkE, %function
 4812              	_ZN3r2p11StaticQueueINS_14BaseSubscriberEE11post_unsafeERNS2_4LinkE:
 4813              	.LFB1754:
 4814              		.loc 23 121 0
 4815              		.cfi_startproc
 4816              		@ args = 0, pretend = 0, frame = 8
 4817              		@ frame_needed = 0, uses_anonymous_args = 0
 4818 0000 00B5     		push	{lr}
 4819              		.cfi_def_cfa_offset 4
 4820              		.cfi_offset 14, -4
 4821 0002 83B0     		sub	sp, sp, #12
 4822              		.cfi_def_cfa_offset 16
 4823 0004 0190     		str	r0, [sp, #4]
 4824 0006 0091     		str	r1, [sp]
 4825              		.loc 23 122 0
 4826 0008 019B     		ldr	r3, [sp, #4]
 4827 000a 0433     		adds	r3, r3, #4
 4828 000c 1846     		mov	r0, r3
 4829 000e 0099     		ldr	r1, [sp]
 4830 0010 FFF7FEFF 		bl	_ZN3r2p12StaticQueue_11post_unsafeERNS0_4LinkE
 4831              		.loc 23 123 0
 4832 0014 03B0     		add	sp, sp, #12
 4833              		.cfi_def_cfa_offset 4
 4834              		@ sp needed
 4835 0016 5DF804FB 		ldr	pc, [sp], #4
 4836              		.cfi_endproc
 4837              	.LFE1754:
ARM GAS  /tmp/ccVvp2Ur.s 			page 86


 4838              		.size	_ZN3r2p11StaticQueueINS_14BaseSubscriberEE11post_unsafeERNS2_4LinkE, .-_ZN3r2p11StaticQueueI
 4839 001a 00BF     		.section	.text._ZN3r2p14DebugTransport10send_valueIlEEbRKT_m,"axG",%progbits,_ZN3r2p14DebugTranspo
 4840              		.align	2
 4841              		.weak	_ZN3r2p14DebugTransport10send_valueIlEEbRKT_m
 4842              		.thumb
 4843              		.thumb_func
 4844              		.type	_ZN3r2p14DebugTransport10send_valueIlEEbRKT_m, %function
 4845              	_ZN3r2p14DebugTransport10send_valueIlEEbRKT_m:
 4846              	.LFB1755:
 4847              		.loc 17 185 0
 4848              		.cfi_startproc
 4849              		@ args = 0, pretend = 0, frame = 16
 4850              		@ frame_needed = 0, uses_anonymous_args = 0
 4851 0000 00B5     		push	{lr}
 4852              		.cfi_def_cfa_offset 4
 4853              		.cfi_offset 14, -4
 4854 0002 85B0     		sub	sp, sp, #20
 4855              		.cfi_def_cfa_offset 24
 4856 0004 0390     		str	r0, [sp, #12]
 4857 0006 0291     		str	r1, [sp, #8]
 4858 0008 0192     		str	r2, [sp, #4]
 4859              		.loc 17 188 0
 4860 000a 0398     		ldr	r0, [sp, #12]
 4861 000c 0299     		ldr	r1, [sp, #8]
 4862 000e 0422     		movs	r2, #4
 4863 0010 019B     		ldr	r3, [sp, #4]
 4864 0012 FFF7FEFF 		bl	_ZN3r2p14DebugTransport14send_chunk_revEPKvjm
 4865 0016 0346     		mov	r3, r0
 4866              		.loc 17 189 0
 4867 0018 1846     		mov	r0, r3
 4868 001a 05B0     		add	sp, sp, #20
 4869              		.cfi_def_cfa_offset 4
 4870              		@ sp needed
 4871 001c 5DF804FB 		ldr	pc, [sp], #4
 4872              		.cfi_endproc
 4873              	.LFE1755:
 4874              		.size	_ZN3r2p14DebugTransport10send_valueIlEEbRKT_m, .-_ZN3r2p14DebugTransport10send_valueIlEEbRKT
 4875              		.section	.text._ZN3r2p11Checksummer3addIlEEvRKT_,"axG",%progbits,_ZN3r2p11Checksummer3addIlEEvRKT_
 4876              		.align	2
 4877              		.weak	_ZN3r2p11Checksummer3addIlEEvRKT_
 4878              		.thumb
 4879              		.thumb_func
 4880              		.type	_ZN3r2p11Checksummer3addIlEEvRKT_, %function
 4881              	_ZN3r2p11Checksummer3addIlEEvRKT_:
 4882              	.LFB1756:
 4883              		.loc 19 118 0
 4884              		.cfi_startproc
 4885              		@ args = 0, pretend = 0, frame = 8
 4886              		@ frame_needed = 0, uses_anonymous_args = 0
 4887 0000 00B5     		push	{lr}
 4888              		.cfi_def_cfa_offset 4
 4889              		.cfi_offset 14, -4
 4890 0002 83B0     		sub	sp, sp, #12
 4891              		.cfi_def_cfa_offset 16
 4892 0004 0190     		str	r0, [sp, #4]
 4893 0006 0091     		str	r1, [sp]
 4894              		.loc 19 120 0
ARM GAS  /tmp/ccVvp2Ur.s 			page 87


 4895 0008 0198     		ldr	r0, [sp, #4]
 4896 000a 0099     		ldr	r1, [sp]
 4897 000c 0422     		movs	r2, #4
 4898 000e FFF7FEFF 		bl	_ZN3r2p11Checksummer3addEPKhj
 4899              		.loc 19 121 0
 4900 0012 03B0     		add	sp, sp, #12
 4901              		.cfi_def_cfa_offset 4
 4902              		@ sp needed
 4903 0014 5DF804FB 		ldr	pc, [sp], #4
 4904              		.cfi_endproc
 4905              	.LFE1756:
 4906              		.size	_ZN3r2p11Checksummer3addIlEEvRKT_, .-_ZN3r2p11Checksummer3addIlEEvRKT_
 4907              		.section	.text._ZN3r2p9Transport9subscribeINS_7BootMsgEEEbRNS_16RemoteSubscriberEPKcPT_j,"axG",%pr
 4908              		.align	2
 4909              		.weak	_ZN3r2p9Transport9subscribeINS_7BootMsgEEEbRNS_16RemoteSubscriberEPKcPT_j
 4910              		.thumb
 4911              		.thumb_func
 4912              		.type	_ZN3r2p9Transport9subscribeINS_7BootMsgEEEbRNS_16RemoteSubscriberEPKcPT_j, %function
 4913              	_ZN3r2p9Transport9subscribeINS_7BootMsgEEEbRNS_16RemoteSubscriberEPKcPT_j:
 4914              	.LFB1757:
 4915              		.file 27 "/opt/R2P/core/Middleware/include/r2p/Transport.hpp"
 4916              		.loc 27 117 0
 4917              		.cfi_startproc
 4918              		@ args = 4, pretend = 0, frame = 16
 4919              		@ frame_needed = 0, uses_anonymous_args = 0
 4920 0000 00B5     		push	{lr}
 4921              		.cfi_def_cfa_offset 4
 4922              		.cfi_offset 14, -4
 4923 0002 87B0     		sub	sp, sp, #28
 4924              		.cfi_def_cfa_offset 32
 4925 0004 0590     		str	r0, [sp, #20]
 4926 0006 0491     		str	r1, [sp, #16]
 4927 0008 0392     		str	r2, [sp, #12]
 4928 000a 0293     		str	r3, [sp, #8]
 4929              		.loc 27 122 0
 4930 000c 089B     		ldr	r3, [sp, #32]
 4931 000e 0093     		str	r3, [sp]
 4932 0010 2123     		movs	r3, #33
 4933 0012 0193     		str	r3, [sp, #4]
 4934 0014 0598     		ldr	r0, [sp, #20]
 4935 0016 0499     		ldr	r1, [sp, #16]
 4936 0018 039A     		ldr	r2, [sp, #12]
 4937 001a 029B     		ldr	r3, [sp, #8]
 4938 001c FFF7FEFF 		bl	_ZN3r2p9Transport9subscribeERNS_16RemoteSubscriberEPKcPNS_7MessageEjj
 4939 0020 0346     		mov	r3, r0
 4940              		.loc 27 123 0
 4941 0022 1846     		mov	r0, r3
 4942 0024 07B0     		add	sp, sp, #28
 4943              		.cfi_def_cfa_offset 4
 4944              		@ sp needed
 4945 0026 5DF804FB 		ldr	pc, [sp], #4
 4946              		.cfi_endproc
 4947              	.LFE1757:
 4948              		.size	_ZN3r2p9Transport9subscribeINS_7BootMsgEEEbRNS_16RemoteSubscriberEPKcPT_j, .-_ZN3r2p9Transpo
 4949 002a 00BF     		.section	.text._ZN3r2p9Transport9subscribeINS_7MgmtMsgEEEbRNS_16RemoteSubscriberEPKcPT_j,"axG",%pr
 4950              		.align	2
 4951              		.weak	_ZN3r2p9Transport9subscribeINS_7MgmtMsgEEEbRNS_16RemoteSubscriberEPKcPT_j
ARM GAS  /tmp/ccVvp2Ur.s 			page 88


 4952              		.thumb
 4953              		.thumb_func
 4954              		.type	_ZN3r2p9Transport9subscribeINS_7MgmtMsgEEEbRNS_16RemoteSubscriberEPKcPT_j, %function
 4955              	_ZN3r2p9Transport9subscribeINS_7MgmtMsgEEEbRNS_16RemoteSubscriberEPKcPT_j:
 4956              	.LFB1758:
 4957              		.loc 27 117 0
 4958              		.cfi_startproc
 4959              		@ args = 4, pretend = 0, frame = 16
 4960              		@ frame_needed = 0, uses_anonymous_args = 0
 4961 0000 00B5     		push	{lr}
 4962              		.cfi_def_cfa_offset 4
 4963              		.cfi_offset 14, -4
 4964 0002 87B0     		sub	sp, sp, #28
 4965              		.cfi_def_cfa_offset 32
 4966 0004 0590     		str	r0, [sp, #20]
 4967 0006 0491     		str	r1, [sp, #16]
 4968 0008 0392     		str	r2, [sp, #12]
 4969 000a 0293     		str	r3, [sp, #8]
 4970              		.loc 27 122 0
 4971 000c 089B     		ldr	r3, [sp, #32]
 4972 000e 0093     		str	r3, [sp]
 4973 0010 2223     		movs	r3, #34
 4974 0012 0193     		str	r3, [sp, #4]
 4975 0014 0598     		ldr	r0, [sp, #20]
 4976 0016 0499     		ldr	r1, [sp, #16]
 4977 0018 039A     		ldr	r2, [sp, #12]
 4978 001a 029B     		ldr	r3, [sp, #8]
 4979 001c FFF7FEFF 		bl	_ZN3r2p9Transport9subscribeERNS_16RemoteSubscriberEPKcPNS_7MessageEjj
 4980 0020 0346     		mov	r3, r0
 4981              		.loc 27 123 0
 4982 0022 1846     		mov	r0, r3
 4983 0024 07B0     		add	sp, sp, #28
 4984              		.cfi_def_cfa_offset 4
 4985              		@ sp needed
 4986 0026 5DF804FB 		ldr	pc, [sp], #4
 4987              		.cfi_endproc
 4988              	.LFE1758:
 4989              		.size	_ZN3r2p9Transport9subscribeINS_7MgmtMsgEEEbRNS_16RemoteSubscriberEPKcPT_j, .-_ZN3r2p9Transpo
 4990 002a 00BF     		.section	.text._ZNK3r2p11StaticQueueINS_14BaseSubscriberEE11peek_unsafeERPKNS2_4LinkE,"axG",%progb
 4991              		.align	2
 4992              		.weak	_ZNK3r2p11StaticQueueINS_14BaseSubscriberEE11peek_unsafeERPKNS2_4LinkE
 4993              		.thumb
 4994              		.thumb_func
 4995              		.type	_ZNK3r2p11StaticQueueINS_14BaseSubscriberEE11peek_unsafeERPKNS2_4LinkE, %function
 4996              	_ZNK3r2p11StaticQueueINS_14BaseSubscriberEE11peek_unsafeERPKNS2_4LinkE:
 4997              	.LFB1759:
 4998              		.loc 23 125 0
 4999              		.cfi_startproc
 5000              		@ args = 0, pretend = 0, frame = 8
 5001              		@ frame_needed = 0, uses_anonymous_args = 0
 5002 0000 00B5     		push	{lr}
 5003              		.cfi_def_cfa_offset 4
 5004              		.cfi_offset 14, -4
 5005 0002 83B0     		sub	sp, sp, #12
 5006              		.cfi_def_cfa_offset 16
 5007 0004 0190     		str	r0, [sp, #4]
 5008 0006 0091     		str	r1, [sp]
ARM GAS  /tmp/ccVvp2Ur.s 			page 89


 5009              		.loc 23 128 0
 5010 0008 019B     		ldr	r3, [sp, #4]
 5011 000a 0433     		adds	r3, r3, #4
 5012 000c 1846     		mov	r0, r3
 5013 000e 0099     		ldr	r1, [sp]
 5014 0010 FFF7FEFF 		bl	_ZNK3r2p12StaticQueue_11peek_unsafeERPKNS0_4LinkE
 5015 0014 0346     		mov	r3, r0
 5016              		.loc 23 129 0
 5017 0016 1846     		mov	r0, r3
 5018 0018 03B0     		add	sp, sp, #12
 5019              		.cfi_def_cfa_offset 4
 5020              		@ sp needed
 5021 001a 5DF804FB 		ldr	pc, [sp], #4
 5022              		.cfi_endproc
 5023              	.LFE1759:
 5024              		.size	_ZNK3r2p11StaticQueueINS_14BaseSubscriberEE11peek_unsafeERPKNS2_4LinkE, .-_ZNK3r2p11StaticQu
 5025 001e 00BF     		.section	.text._ZN3r2p11StaticQueueINS_14BaseSubscriberEE11skip_unsafeEv,"axG",%progbits,_ZN3r2p11
 5026              		.align	2
 5027              		.weak	_ZN3r2p11StaticQueueINS_14BaseSubscriberEE11skip_unsafeEv
 5028              		.thumb
 5029              		.thumb_func
 5030              		.type	_ZN3r2p11StaticQueueINS_14BaseSubscriberEE11skip_unsafeEv, %function
 5031              	_ZN3r2p11StaticQueueINS_14BaseSubscriberEE11skip_unsafeEv:
 5032              	.LFB1760:
 5033              		.loc 23 135 0
 5034              		.cfi_startproc
 5035              		@ args = 0, pretend = 0, frame = 8
 5036              		@ frame_needed = 0, uses_anonymous_args = 0
 5037 0000 00B5     		push	{lr}
 5038              		.cfi_def_cfa_offset 4
 5039              		.cfi_offset 14, -4
 5040 0002 83B0     		sub	sp, sp, #12
 5041              		.cfi_def_cfa_offset 16
 5042 0004 0190     		str	r0, [sp, #4]
 5043              		.loc 23 136 0
 5044 0006 019B     		ldr	r3, [sp, #4]
 5045 0008 0433     		adds	r3, r3, #4
 5046 000a 1846     		mov	r0, r3
 5047 000c FFF7FEFF 		bl	_ZN3r2p12StaticQueue_11skip_unsafeEv
 5048 0010 0346     		mov	r3, r0
 5049              		.loc 23 137 0
 5050 0012 1846     		mov	r0, r3
 5051 0014 03B0     		add	sp, sp, #12
 5052              		.cfi_def_cfa_offset 4
 5053              		@ sp needed
 5054 0016 5DF804FB 		ldr	pc, [sp], #4
 5055              		.cfi_endproc
 5056              	.LFE1760:
 5057              		.size	_ZN3r2p11StaticQueueINS_14BaseSubscriberEE11skip_unsafeEv, .-_ZN3r2p11StaticQueueINS_14BaseS
 5058 001a 00BF     		.section	.text._ZN3r2p14DebugTransport10recv_valueIlEEbRT_m,"axG",%progbits,_ZN3r2p14DebugTranspor
 5059              		.align	2
 5060              		.weak	_ZN3r2p14DebugTransport10recv_valueIlEEbRT_m
 5061              		.thumb
 5062              		.thumb_func
 5063              		.type	_ZN3r2p14DebugTransport10recv_valueIlEEbRT_m, %function
 5064              	_ZN3r2p14DebugTransport10recv_valueIlEEbRT_m:
 5065              	.LFB1761:
ARM GAS  /tmp/ccVvp2Ur.s 			page 90


 5066              		.loc 17 207 0
 5067              		.cfi_startproc
 5068              		@ args = 0, pretend = 0, frame = 16
 5069              		@ frame_needed = 0, uses_anonymous_args = 0
 5070 0000 00B5     		push	{lr}
 5071              		.cfi_def_cfa_offset 4
 5072              		.cfi_offset 14, -4
 5073 0002 85B0     		sub	sp, sp, #20
 5074              		.cfi_def_cfa_offset 24
 5075 0004 0390     		str	r0, [sp, #12]
 5076 0006 0291     		str	r1, [sp, #8]
 5077 0008 0192     		str	r2, [sp, #4]
 5078              		.loc 17 210 0
 5079 000a 0398     		ldr	r0, [sp, #12]
 5080 000c 0299     		ldr	r1, [sp, #8]
 5081 000e 0422     		movs	r2, #4
 5082 0010 019B     		ldr	r3, [sp, #4]
 5083 0012 FFF7FEFF 		bl	_ZN3r2p14DebugTransport14recv_chunk_revEPvjm
 5084 0016 0346     		mov	r3, r0
 5085              		.loc 17 211 0
 5086 0018 1846     		mov	r0, r3
 5087 001a 05B0     		add	sp, sp, #20
 5088              		.cfi_def_cfa_offset 4
 5089              		@ sp needed
 5090 001c 5DF804FB 		ldr	pc, [sp], #4
 5091              		.cfi_endproc
 5092              	.LFE1761:
 5093              		.size	_ZN3r2p14DebugTransport10recv_valueIlEEbRT_m, .-_ZN3r2p14DebugTransport10recv_valueIlEEbRT_m
 5094              		.section	.text._ZNK3r2p10StaticListINS_15RemotePublisherEE10find_firstIPFbRKNS_13BasePublisherEPKc
 5095              		.align	2
 5096              		.weak	_ZNK3r2p10StaticListINS_15RemotePublisherEE10find_firstIPFbRKNS_13BasePublisherEPKcEcEEPS1_T
 5097              		.thumb
 5098              		.thumb_func
 5099              		.type	_ZNK3r2p10StaticListINS_15RemotePublisherEE10find_firstIPFbRKNS_13BasePublisherEPKcEcEEPS1_T
 5100              	_ZNK3r2p10StaticListINS_15RemotePublisherEE10find_firstIPFbRKNS_13BasePublisherEPKcEcEEPS1_T_PKT0_:
 5101              	.LFB1762:
 5102              		.file 28 "/opt/R2P/core/Middleware/include/r2p/StaticList.hpp"
 5103              		.loc 28 475 0
 5104              		.cfi_startproc
 5105              		@ args = 0, pretend = 0, frame = 16
 5106              		@ frame_needed = 0, uses_anonymous_args = 0
 5107 0000 00B5     		push	{lr}
 5108              		.cfi_def_cfa_offset 4
 5109              		.cfi_offset 14, -4
 5110 0002 85B0     		sub	sp, sp, #20
 5111              		.cfi_def_cfa_offset 24
 5112 0004 0390     		str	r0, [sp, #12]
 5113 0006 0291     		str	r1, [sp, #8]
 5114 0008 0192     		str	r2, [sp, #4]
 5115              		.loc 28 477 0
 5116 000a 0398     		ldr	r0, [sp, #12]
 5117 000c 0299     		ldr	r1, [sp, #8]
 5118 000e 019A     		ldr	r2, [sp, #4]
 5119 0010 FFF7FEFF 		bl	_ZNK3r2p10StaticListINS_15RemotePublisherEE10find_firstEPFbRKS1_PKvES6_
 5120 0014 0346     		mov	r3, r0
 5121              		.loc 28 478 0
 5122 0016 1846     		mov	r0, r3
ARM GAS  /tmp/ccVvp2Ur.s 			page 91


 5123 0018 05B0     		add	sp, sp, #20
 5124              		.cfi_def_cfa_offset 4
 5125              		@ sp needed
 5126 001a 5DF804FB 		ldr	pc, [sp], #4
 5127              		.cfi_endproc
 5128              	.LFE1762:
 5129              		.size	_ZNK3r2p10StaticListINS_15RemotePublisherEE10find_firstIPFbRKNS_13BasePublisherEPKcEcEEPS1_T
 5130 001e 00BF     		.section	.text._ZNK3r2p10StaticListINS_15RemotePublisherEE10find_firstEPFbRKS1_PKvES6_,"axG",%prog
 5131              		.align	2
 5132              		.weak	_ZNK3r2p10StaticListINS_15RemotePublisherEE10find_firstEPFbRKS1_PKvES6_
 5133              		.thumb
 5134              		.thumb_func
 5135              		.type	_ZNK3r2p10StaticListINS_15RemotePublisherEE10find_firstEPFbRKS1_PKvES6_, %function
 5136              	_ZNK3r2p10StaticListINS_15RemotePublisherEE10find_firstEPFbRKS1_PKvES6_:
 5137              	.LFB1765:
 5138              		.loc 28 700 0
 5139              		.cfi_startproc
 5140              		@ args = 0, pretend = 0, frame = 24
 5141              		@ frame_needed = 0, uses_anonymous_args = 0
 5142 0000 00B5     		push	{lr}
 5143              		.cfi_def_cfa_offset 4
 5144              		.cfi_offset 14, -4
 5145 0002 87B0     		sub	sp, sp, #28
 5146              		.cfi_def_cfa_offset 32
 5147 0004 0390     		str	r0, [sp, #12]
 5148 0006 0291     		str	r1, [sp, #8]
 5149 0008 0192     		str	r2, [sp, #4]
 5150              	.LBB57:
 5151              		.loc 28 703 0
 5152 000a 019B     		ldr	r3, [sp, #4]
 5153 000c 002B     		cmp	r3, #0
 5154 000e 02D1     		bne	.L315
 5155              		.loc 28 703 0 is_stmt 0 discriminator 1
 5156 0010 1248     		ldr	r0, .L320
 5157 0012 FFF7FEFF 		bl	chDbgPanic
 5158              	.L315:
 5159              		.loc 28 705 0 is_stmt 1
 5160 0016 FFF7FEFF 		bl	_ZN3r2p7SysLock7acquireEv
 5161              	.LBB58:
 5162              		.loc 28 706 0
 5163 001a 039B     		ldr	r3, [sp, #12]
 5164 001c 1B68     		ldr	r3, [r3]
 5165 001e 0593     		str	r3, [sp, #20]
 5166 0020 12E0     		b	.L316
 5167              	.L319:
 5168              		.loc 28 707 0
 5169 0022 FFF7FEFF 		bl	_ZN3r2p7SysLock7releaseEv
 5170              		.loc 28 708 0
 5171 0026 059B     		ldr	r3, [sp, #20]
 5172 0028 5A68     		ldr	r2, [r3, #4]
 5173 002a 029B     		ldr	r3, [sp, #8]
 5174 002c 1046     		mov	r0, r2
 5175 002e 0199     		ldr	r1, [sp, #4]
 5176 0030 9847     		blx	r3
 5177 0032 0346     		mov	r3, r0
 5178 0034 002B     		cmp	r3, #0
 5179 0036 02D0     		beq	.L317
ARM GAS  /tmp/ccVvp2Ur.s 			page 92


 5180              		.loc 28 709 0
 5181 0038 059B     		ldr	r3, [sp, #20]
 5182 003a 5B68     		ldr	r3, [r3, #4]
 5183 003c 0AE0     		b	.L318
 5184              	.L317:
 5185              		.loc 28 711 0 discriminator 2
 5186 003e FFF7FEFF 		bl	_ZN3r2p7SysLock7acquireEv
 5187              		.loc 28 706 0 discriminator 2
 5188 0042 059B     		ldr	r3, [sp, #20]
 5189 0044 1B68     		ldr	r3, [r3]
 5190 0046 0593     		str	r3, [sp, #20]
 5191              	.L316:
 5192              		.loc 28 706 0 is_stmt 0 discriminator 1
 5193 0048 059B     		ldr	r3, [sp, #20]
 5194 004a 002B     		cmp	r3, #0
 5195 004c E9D1     		bne	.L319
 5196              	.LBE58:
 5197              		.loc 28 713 0 is_stmt 1
 5198 004e FFF7FEFF 		bl	_ZN3r2p7SysLock7releaseEv
 5199              		.loc 28 714 0
 5200 0052 0023     		movs	r3, #0
 5201              	.L318:
 5202              	.LBE57:
 5203              		.loc 28 715 0
 5204 0054 1846     		mov	r0, r3
 5205 0056 07B0     		add	sp, sp, #28
 5206              		.cfi_def_cfa_offset 4
 5207              		@ sp needed
 5208 0058 5DF804FB 		ldr	pc, [sp], #4
 5209              	.L321:
 5210              		.align	2
 5211              	.L320:
 5212 005c 00000000 		.word	.LC0
 5213              		.cfi_endproc
 5214              	.LFE1765:
 5215              		.size	_ZNK3r2p10StaticListINS_15RemotePublisherEE10find_firstEPFbRKS1_PKvES6_, .-_ZNK3r2p10StaticL
 5216              		.global	_ZTVN3r2p14DebugTransportE
 5217              		.section	.rodata
 5218 0034 00000000 		.align	3
 5219              		.type	_ZTVN3r2p14DebugTransportE, %object
 5220              		.size	_ZTVN3r2p14DebugTransportE, 28
 5221              	_ZTVN3r2p14DebugTransportE:
 5222 0038 00000000 		.word	0
 5223 003c 00000000 		.word	0
 5224 0040 00000000 		.word	_ZN3r2p9Transport15fill_raw_paramsERKNS_5TopicEPh
 5225 0044 00000000 		.word	_ZNK3r2p14DebugTransport16create_publisherERNS_5TopicEPKh
 5226 0048 00000000 		.word	_ZNK3r2p14DebugTransport17create_subscriberERNS_5TopicEPNS_22TimestampedMsgPtrQueue5EntryEj
 5227 004c 00000000 		.word	_ZN3r2p14DebugTransportD1Ev
 5228 0050 00000000 		.word	_ZN3r2p14DebugTransportD0Ev
 5229              		.weak	_ZZN3r2p14DebugTransport9send_byteEhmE3hex
 5230 0054 00000000 		.section	.rodata._ZZN3r2p14DebugTransport9send_byteEhmE3hex,"aG",%progbits,_ZZN3r2p14DebugTranspor
 5231              		.align	2
 5232              		.type	_ZZN3r2p14DebugTransport9send_byteEhmE3hex, %object
 5233              		.size	_ZZN3r2p14DebugTransport9send_byteEhmE3hex, 16
 5234              	_ZZN3r2p14DebugTransport9send_byteEhmE3hex:
 5235 0000 30       		.byte	48
 5236 0001 31       		.byte	49
ARM GAS  /tmp/ccVvp2Ur.s 			page 93


 5237 0002 32       		.byte	50
 5238 0003 33       		.byte	51
 5239 0004 34       		.byte	52
 5240 0005 35       		.byte	53
 5241 0006 36       		.byte	54
 5242 0007 37       		.byte	55
 5243 0008 38       		.byte	56
 5244 0009 39       		.byte	57
 5245 000a 41       		.byte	65
 5246 000b 42       		.byte	66
 5247 000c 43       		.byte	67
 5248 000d 44       		.byte	68
 5249 000e 45       		.byte	69
 5250 000f 46       		.byte	70
 5251              		.text
 5252              	.Letext0:
 5253              		.file 29 "/opt/R2P/tools/gcc-arm-none-eabi-4_9-2014q4/lib/gcc/arm-none-eabi/4.9.3/include/stddef.h
 5254              		.file 30 "/opt/R2P/tools/gcc-arm-none-eabi-4_9-2014q4/arm-none-eabi/include/machine/_default_types
 5255              		.file 31 "/opt/R2P/tools/gcc-arm-none-eabi-4_9-2014q4/arm-none-eabi/include/sys/lock.h"
 5256              		.file 32 "/opt/R2P/tools/gcc-arm-none-eabi-4_9-2014q4/arm-none-eabi/include/sys/_types.h"
 5257              		.file 33 "/opt/R2P/tools/gcc-arm-none-eabi-4_9-2014q4/arm-none-eabi/include/sys/reent.h"
 5258              		.file 34 "/opt/R2P/tools/gcc-arm-none-eabi-4_9-2014q4/arm-none-eabi/include/c++/4.9.3/cstring"
 5259              		.file 35 "/opt/R2P/tools/gcc-arm-none-eabi-4_9-2014q4/arm-none-eabi/include/c++/4.9.3/clocale"
 5260              		.file 36 "/opt/R2P/tools/gcc-arm-none-eabi-4_9-2014q4/arm-none-eabi/include/c++/4.9.3/cwchar"
 5261              		.file 37 "/opt/R2P/tools/gcc-arm-none-eabi-4_9-2014q4/arm-none-eabi/include/c++/4.9.3/arm-none-eab
 5262              		.file 38 "/opt/R2P/tools/gcc-arm-none-eabi-4_9-2014q4/arm-none-eabi/include/c++/4.9.3/cwctype"
 5263              		.file 39 "/opt/R2P/tools/gcc-arm-none-eabi-4_9-2014q4/arm-none-eabi/include/c++/4.9.3/ctime"
 5264              		.file 40 "/opt/R2P/tools/gcc-arm-none-eabi-4_9-2014q4/arm-none-eabi/include/string.h"
 5265              		.file 41 "<built-in>"
 5266              		.file 42 "/opt/R2P/core/Middleware/include/r2p/ArrayQueue.hpp"
 5267              		.file 43 "/opt/R2P/core/Middleware/port/chibios/include/r2p/impl/SpinEvent_.hpp"
 5268              		.file 44 "/opt/R2P/core/Middleware/include/r2p/SpinEvent.hpp"
 5269              		.file 45 "/opt/R2P/core/Middleware/include/r2p/Node.hpp"
 5270              		.file 46 "/opt/R2P/core/Middleware/include/r2p/ReMutex.hpp"
 5271              		.file 47 "/opt/R2P/core/Middleware/include/r2p/common.hpp"
 5272              		.file 48 "/opt/R2P/tools/gcc-arm-none-eabi-4_9-2014q4/arm-none-eabi/include/stdint.h"
 5273              		.file 49 "/opt/R2P/core/ChibiOS_2.6.5/os/ports/GCC/ARMCMx/chtypes.h"
 5274              		.file 50 "/opt/R2P/core/ChibiOS_2.6.5/os/kernel/include/chlists.h"
 5275              		.file 51 "/opt/R2P/core/ChibiOS_2.6.5/os/kernel/include/chthreads.h"
 5276              		.file 52 "/opt/R2P/core/ChibiOS_2.6.5/os/ports/GCC/ARMCMx/chcore_v7m.h"
 5277              		.file 53 "/opt/R2P/core/ChibiOS_2.6.5/os/kernel/include/chschd.h"
 5278              		.file 54 "/opt/R2P/core/ChibiOS_2.6.5/os/kernel/include/chsem.h"
 5279              		.file 55 "/opt/R2P/core/ChibiOS_2.6.5/os/kernel/include/chmtx.h"
 5280              		.file 56 "/opt/R2P/core/ChibiOS_2.6.5/os/kernel/include/chmemcore.h"
 5281              		.file 57 "/opt/R2P/core/ChibiOS_2.6.5/os/kernel/include/chmempools.h"
 5282              		.file 58 "/opt/R2P/core/ChibiOS_2.6.5/os/hal/include/io_channel.h"
 5283              		.file 59 "/opt/R2P/tools/gcc-arm-none-eabi-4_9-2014q4/arm-none-eabi/include/locale.h"
 5284              		.file 60 "/opt/R2P/tools/gcc-arm-none-eabi-4_9-2014q4/lib/gcc/arm-none-eabi/4.9.3/include/stdarg.h
 5285              		.file 61 "/opt/R2P/tools/gcc-arm-none-eabi-4_9-2014q4/arm-none-eabi/include/wchar.h"
 5286              		.file 62 "/opt/R2P/tools/gcc-arm-none-eabi-4_9-2014q4/arm-none-eabi/include/time.h"
 5287              		.file 63 "/opt/R2P/tools/gcc-arm-none-eabi-4_9-2014q4/arm-none-eabi/include/c++/4.9.3/debug/debug.
 5288              		.file 64 "/opt/R2P/tools/gcc-arm-none-eabi-4_9-2014q4/arm-none-eabi/include/c++/4.9.3/bits/predefi
 5289              		.file 65 "/opt/R2P/tools/gcc-arm-none-eabi-4_9-2014q4/arm-none-eabi/include/c++/4.9.3/ext/new_allo
 5290              		.file 66 "/opt/R2P/tools/gcc-arm-none-eabi-4_9-2014q4/arm-none-eabi/include/c++/4.9.3/ext/numeric_
 5291              		.file 67 "/opt/R2P/tools/gcc-arm-none-eabi-4_9-2014q4/arm-none-eabi/include/c++/4.9.3/bits/cpp_typ
 5292              		.file 68 "/opt/R2P/tools/gcc-arm-none-eabi-4_9-2014q4/arm-none-eabi/include/wctype.h"
 5293              		.file 69 "/opt/R2P/tools/gcc-arm-none-eabi-4_9-2014q4/arm-none-eabi/include/sys/types.h"
ARM GAS  /tmp/ccVvp2Ur.s 			page 94


 5294              		.file 70 "/opt/R2P/core/Middleware/port/chibios/include/r2p/impl/Flasher_.hpp"
 5295              		.file 71 "/opt/R2P/core/ChibiOS_2.6.5/os/ports/common/ARMCMx/CMSIS/include/core_cm4.h"