ARM GAS  /tmp/cc7tOBLQ.s 			page 1


   1              		.syntax unified
   2              		.cpu cortex-m4
   3              		.fpu softvfp
   4              		.eabi_attribute 20, 1
   5              		.eabi_attribute 21, 1
   6              		.eabi_attribute 23, 3
   7              		.eabi_attribute 24, 1
   8              		.eabi_attribute 25, 1
   9              		.eabi_attribute 26, 1
  10              		.eabi_attribute 30, 6
  11              		.eabi_attribute 34, 1
  12              		.eabi_attribute 18, 4
  13              		.thumb
  14              		.file	"i2c.c"
  15              		.text
  16              	.Ltext0:
  17              		.cfi_sections	.debug_frame
  18              		.align	2
  19              		.global	i2cInit
  20              		.thumb
  21              		.thumb_func
  22              		.type	i2cInit, %function
  23              	i2cInit:
  24              	.LFB118:
  25              		.file 1 "/opt/R2P/core/ChibiOS_2.6.5/os/hal/src/i2c.c"
  26              		.loc 1 71 0
  27              		.cfi_startproc
  28              		@ args = 0, pretend = 0, frame = 0
  29              		@ frame_needed = 0, uses_anonymous_args = 0
  30 0000 08B5     		push	{r3, lr}
  31              		.cfi_def_cfa_offset 8
  32              		.cfi_offset 3, -8
  33              		.cfi_offset 14, -4
  34              		.loc 1 72 0
  35 0002 FFF7FEFF 		bl	i2c_lld_init
  36              		.loc 1 73 0
  37 0006 08BD     		pop	{r3, pc}
  38              		.cfi_endproc
  39              	.LFE118:
  40              		.size	i2cInit, .-i2cInit
  41              		.align	2
  42              		.global	i2cObjectInit
  43              		.thumb
  44              		.thumb_func
  45              		.type	i2cObjectInit, %function
  46              	i2cObjectInit:
  47              	.LFB119:
  48              		.loc 1 82 0
  49              		.cfi_startproc
  50              		@ args = 0, pretend = 0, frame = 8
  51              		@ frame_needed = 0, uses_anonymous_args = 0
  52 0008 00B5     		push	{lr}
  53              		.cfi_def_cfa_offset 4
  54              		.cfi_offset 14, -4
  55 000a 83B0     		sub	sp, sp, #12
  56              		.cfi_def_cfa_offset 16
  57 000c 0190     		str	r0, [sp, #4]
ARM GAS  /tmp/cc7tOBLQ.s 			page 2


  58              		.loc 1 84 0
  59 000e 019B     		ldr	r3, [sp, #4]
  60 0010 0122     		movs	r2, #1
  61 0012 1A70     		strb	r2, [r3]
  62              		.loc 1 85 0
  63 0014 019B     		ldr	r3, [sp, #4]
  64 0016 0022     		movs	r2, #0
  65 0018 5A60     		str	r2, [r3, #4]
  66              		.loc 1 89 0
  67 001a 019B     		ldr	r3, [sp, #4]
  68 001c 0C33     		adds	r3, r3, #12
  69 001e 1846     		mov	r0, r3
  70 0020 FFF7FEFF 		bl	chMtxInit
  71              		.loc 1 98 0
  72 0024 03B0     		add	sp, sp, #12
  73              		.cfi_def_cfa_offset 4
  74              		@ sp needed
  75 0026 5DF804FB 		ldr	pc, [sp], #4
  76              		.cfi_endproc
  77              	.LFE119:
  78              		.size	i2cObjectInit, .-i2cObjectInit
  79              		.section	.rodata
  80              		.align	2
  81              	.LC0:
  82 0000 22693263 		.ascii	"\"i2cStart\"()\000"
  82      53746172 
  82      74222829 
  82      00
  83 000d 000000   		.align	2
  84              	.LC1:
  85 0010 69326353 		.ascii	"i2cStart(), #1\000"
  85      74617274 
  85      28292C20 
  85      233100
  86              		.text
  87 002a 00BF     		.align	2
  88              		.global	i2cStart
  89              		.thumb
  90              		.thumb_func
  91              		.type	i2cStart, %function
  92              	i2cStart:
  93              	.LFB120:
  94              		.loc 1 108 0
  95              		.cfi_startproc
  96              		@ args = 0, pretend = 0, frame = 8
  97              		@ frame_needed = 0, uses_anonymous_args = 0
  98 002c 00B5     		push	{lr}
  99              		.cfi_def_cfa_offset 4
 100              		.cfi_offset 14, -4
 101 002e 83B0     		sub	sp, sp, #12
 102              		.cfi_def_cfa_offset 16
 103 0030 0190     		str	r0, [sp, #4]
 104 0032 0091     		str	r1, [sp]
 105              		.loc 1 110 0
 106 0034 019B     		ldr	r3, [sp, #4]
 107 0036 002B     		cmp	r3, #0
 108 0038 02D0     		beq	.L4
ARM GAS  /tmp/cc7tOBLQ.s 			page 3


 109              		.loc 1 110 0 is_stmt 0 discriminator 2
 110 003a 009B     		ldr	r3, [sp]
 111 003c 002B     		cmp	r3, #0
 112 003e 02D1     		bne	.L5
 113              	.L4:
 114              		.loc 1 110 0 discriminator 3
 115 0040 1348     		ldr	r0, .L7
 116 0042 FFF7FEFF 		bl	chDbgPanic
 117              	.L5:
 118              		.loc 1 111 0 is_stmt 1
 119 0046 019B     		ldr	r3, [sp, #4]
 120 0048 1B78     		ldrb	r3, [r3]	@ zero_extendqisi2
 121 004a 012B     		cmp	r3, #1
 122 004c 0AD0     		beq	.L6
 123              		.loc 1 111 0 is_stmt 0 discriminator 1
 124 004e 019B     		ldr	r3, [sp, #4]
 125 0050 1B78     		ldrb	r3, [r3]	@ zero_extendqisi2
 126 0052 022B     		cmp	r3, #2
 127 0054 06D0     		beq	.L6
 128              		.loc 1 111 0 discriminator 2
 129 0056 019B     		ldr	r3, [sp, #4]
 130 0058 1B78     		ldrb	r3, [r3]	@ zero_extendqisi2
 131 005a 052B     		cmp	r3, #5
 132 005c 02D0     		beq	.L6
 133              		.loc 1 111 0 discriminator 3
 134 005e 0D48     		ldr	r0, .L7+4
 135 0060 FFF7FEFF 		bl	chDbgPanic
 136              	.L6:
 137              	.LBB2:
 138              		.loc 1 116 0 is_stmt 1
 139 0064 2023     		movs	r3, #32
 140              	@ 116 "/opt/R2P/core/ChibiOS_2.6.5/os/hal/src/i2c.c" 1
 141 0066 83F31188 		msr     BASEPRI, r3
 142              	@ 0 "" 2
 143              		.thumb
 144              	.LBE2:
 145 006a FFF7FEFF 		bl	dbg_check_lock
 146              		.loc 1 117 0
 147 006e 019B     		ldr	r3, [sp, #4]
 148 0070 009A     		ldr	r2, [sp]
 149 0072 5A60     		str	r2, [r3, #4]
 150              		.loc 1 118 0
 151 0074 0198     		ldr	r0, [sp, #4]
 152 0076 FFF7FEFF 		bl	i2c_lld_start
 153              		.loc 1 119 0
 154 007a 019B     		ldr	r3, [sp, #4]
 155 007c 0222     		movs	r2, #2
 156 007e 1A70     		strb	r2, [r3]
 157              		.loc 1 120 0
 158 0080 FFF7FEFF 		bl	dbg_check_unlock
 159              	.LBB3:
 160 0084 0023     		movs	r3, #0
 161              	@ 120 "/opt/R2P/core/ChibiOS_2.6.5/os/hal/src/i2c.c" 1
 162 0086 83F31188 		msr     BASEPRI, r3
 163              	@ 0 "" 2
 164              		.thumb
 165              	.LBE3:
ARM GAS  /tmp/cc7tOBLQ.s 			page 4


 166              		.loc 1 121 0
 167 008a 03B0     		add	sp, sp, #12
 168              		.cfi_def_cfa_offset 4
 169              		@ sp needed
 170 008c 5DF804FB 		ldr	pc, [sp], #4
 171              	.L8:
 172              		.align	2
 173              	.L7:
 174 0090 00000000 		.word	.LC0
 175 0094 10000000 		.word	.LC1
 176              		.cfi_endproc
 177              	.LFE120:
 178              		.size	i2cStart, .-i2cStart
 179              		.section	.rodata
 180 001f 00       		.align	2
 181              	.LC2:
 182 0020 22693263 		.ascii	"\"i2cStop\"()\000"
 182      53746F70 
 182      22282900 
 183              		.align	2
 184              	.LC3:
 185 002c 69326353 		.ascii	"i2cStop(), #1\000"
 185      746F7028 
 185      292C2023 
 185      3100
 186              		.text
 187              		.align	2
 188              		.global	i2cStop
 189              		.thumb
 190              		.thumb_func
 191              		.type	i2cStop, %function
 192              	i2cStop:
 193              	.LFB121:
 194              		.loc 1 130 0
 195              		.cfi_startproc
 196              		@ args = 0, pretend = 0, frame = 8
 197              		@ frame_needed = 0, uses_anonymous_args = 0
 198 0098 00B5     		push	{lr}
 199              		.cfi_def_cfa_offset 4
 200              		.cfi_offset 14, -4
 201 009a 83B0     		sub	sp, sp, #12
 202              		.cfi_def_cfa_offset 16
 203 009c 0190     		str	r0, [sp, #4]
 204              		.loc 1 132 0
 205 009e 019B     		ldr	r3, [sp, #4]
 206 00a0 002B     		cmp	r3, #0
 207 00a2 02D1     		bne	.L10
 208              		.loc 1 132 0 is_stmt 0 discriminator 1
 209 00a4 1248     		ldr	r0, .L12
 210 00a6 FFF7FEFF 		bl	chDbgPanic
 211              	.L10:
 212              		.loc 1 133 0 is_stmt 1
 213 00aa 019B     		ldr	r3, [sp, #4]
 214 00ac 1B78     		ldrb	r3, [r3]	@ zero_extendqisi2
 215 00ae 012B     		cmp	r3, #1
 216 00b0 0AD0     		beq	.L11
 217              		.loc 1 133 0 is_stmt 0 discriminator 1
ARM GAS  /tmp/cc7tOBLQ.s 			page 5


 218 00b2 019B     		ldr	r3, [sp, #4]
 219 00b4 1B78     		ldrb	r3, [r3]	@ zero_extendqisi2
 220 00b6 022B     		cmp	r3, #2
 221 00b8 06D0     		beq	.L11
 222              		.loc 1 133 0 discriminator 2
 223 00ba 019B     		ldr	r3, [sp, #4]
 224 00bc 1B78     		ldrb	r3, [r3]	@ zero_extendqisi2
 225 00be 052B     		cmp	r3, #5
 226 00c0 02D0     		beq	.L11
 227              		.loc 1 133 0 discriminator 3
 228 00c2 0C48     		ldr	r0, .L12+4
 229 00c4 FFF7FEFF 		bl	chDbgPanic
 230              	.L11:
 231              	.LBB4:
 232              		.loc 1 138 0 is_stmt 1
 233 00c8 2023     		movs	r3, #32
 234              	@ 138 "/opt/R2P/core/ChibiOS_2.6.5/os/hal/src/i2c.c" 1
 235 00ca 83F31188 		msr     BASEPRI, r3
 236              	@ 0 "" 2
 237              		.thumb
 238              	.LBE4:
 239 00ce FFF7FEFF 		bl	dbg_check_lock
 240              		.loc 1 139 0
 241 00d2 0198     		ldr	r0, [sp, #4]
 242 00d4 FFF7FEFF 		bl	i2c_lld_stop
 243              		.loc 1 140 0
 244 00d8 019B     		ldr	r3, [sp, #4]
 245 00da 0122     		movs	r2, #1
 246 00dc 1A70     		strb	r2, [r3]
 247              		.loc 1 141 0
 248 00de FFF7FEFF 		bl	dbg_check_unlock
 249              	.LBB5:
 250 00e2 0023     		movs	r3, #0
 251              	@ 141 "/opt/R2P/core/ChibiOS_2.6.5/os/hal/src/i2c.c" 1
 252 00e4 83F31188 		msr     BASEPRI, r3
 253              	@ 0 "" 2
 254              		.thumb
 255              	.LBE5:
 256              		.loc 1 142 0
 257 00e8 03B0     		add	sp, sp, #12
 258              		.cfi_def_cfa_offset 4
 259              		@ sp needed
 260 00ea 5DF804FB 		ldr	pc, [sp], #4
 261              	.L13:
 262 00ee 00BF     		.align	2
 263              	.L12:
 264 00f0 20000000 		.word	.LC2
 265 00f4 2C000000 		.word	.LC3
 266              		.cfi_endproc
 267              	.LFE121:
 268              		.size	i2cStop, .-i2cStop
 269              		.section	.rodata
 270 003a 0000     		.align	2
 271              	.LC4:
 272 003c 22693263 		.ascii	"\"i2cGetErrors\"()\000"
 272      47657445 
 272      72726F72 
ARM GAS  /tmp/cc7tOBLQ.s 			page 6


 272      73222829 
 272      00
 273              		.text
 274              		.align	2
 275              		.global	i2cGetErrors
 276              		.thumb
 277              		.thumb_func
 278              		.type	i2cGetErrors, %function
 279              	i2cGetErrors:
 280              	.LFB122:
 281              		.loc 1 152 0
 282              		.cfi_startproc
 283              		@ args = 0, pretend = 0, frame = 8
 284              		@ frame_needed = 0, uses_anonymous_args = 0
 285 00f8 00B5     		push	{lr}
 286              		.cfi_def_cfa_offset 4
 287              		.cfi_offset 14, -4
 288 00fa 83B0     		sub	sp, sp, #12
 289              		.cfi_def_cfa_offset 16
 290 00fc 0190     		str	r0, [sp, #4]
 291              		.loc 1 154 0
 292 00fe 019B     		ldr	r3, [sp, #4]
 293 0100 002B     		cmp	r3, #0
 294 0102 02D1     		bne	.L15
 295              		.loc 1 154 0 is_stmt 0 discriminator 1
 296 0104 0448     		ldr	r0, .L17
 297 0106 FFF7FEFF 		bl	chDbgPanic
 298              	.L15:
 299              		.loc 1 156 0 is_stmt 1
 300 010a 019B     		ldr	r3, [sp, #4]
 301 010c 9B68     		ldr	r3, [r3, #8]
 302              		.loc 1 157 0
 303 010e 1846     		mov	r0, r3
 304 0110 03B0     		add	sp, sp, #12
 305              		.cfi_def_cfa_offset 4
 306              		@ sp needed
 307 0112 5DF804FB 		ldr	pc, [sp], #4
 308              	.L18:
 309 0116 00BF     		.align	2
 310              	.L17:
 311 0118 3C000000 		.word	.LC4
 312              		.cfi_endproc
 313              	.LFE122:
 314              		.size	i2cGetErrors, .-i2cGetErrors
 315              		.section	.rodata
 316 004d 000000   		.align	2
 317              	.LC5:
 318 0050 22693263 		.ascii	"\"i2cMasterTransmitTimeout\"()\000"
 318      4D617374 
 318      65725472 
 318      616E736D 
 318      69745469 
 319 006d 000000   		.align	2
 320              	.LC6:
 321 0070 6932634D 		.ascii	"i2cMasterTransmitTimeout(), #1\000"
 321      61737465 
 321      72547261 
ARM GAS  /tmp/cc7tOBLQ.s 			page 7


 321      6E736D69 
 321      7454696D 
 322              		.text
 323              		.align	2
 324              		.global	i2cMasterTransmitTimeout
 325              		.thumb
 326              		.thumb_func
 327              		.type	i2cMasterTransmitTimeout, %function
 328              	i2cMasterTransmitTimeout:
 329              	.LFB123:
 330              		.loc 1 191 0
 331              		.cfi_startproc
 332              		@ args = 12, pretend = 0, frame = 24
 333              		@ frame_needed = 0, uses_anonymous_args = 0
 334 011c 00B5     		push	{lr}
 335              		.cfi_def_cfa_offset 4
 336              		.cfi_offset 14, -4
 337 011e 8BB0     		sub	sp, sp, #44
 338              		.cfi_def_cfa_offset 48
 339 0120 0790     		str	r0, [sp, #28]
 340 0122 0592     		str	r2, [sp, #20]
 341 0124 0493     		str	r3, [sp, #16]
 342 0126 0B46     		mov	r3, r1	@ movhi
 343 0128 ADF81A30 		strh	r3, [sp, #26]	@ movhi
 344              		.loc 1 194 0
 345 012c 079B     		ldr	r3, [sp, #28]
 346 012e 002B     		cmp	r3, #0
 347 0130 15D0     		beq	.L20
 348              		.loc 1 194 0 is_stmt 0 discriminator 2
 349 0132 BDF81A30 		ldrh	r3, [sp, #26]
 350 0136 002B     		cmp	r3, #0
 351 0138 11D0     		beq	.L20
 352              		.loc 1 194 0 discriminator 4
 353 013a 049B     		ldr	r3, [sp, #16]
 354 013c 002B     		cmp	r3, #0
 355 013e 0ED0     		beq	.L20
 356              		.loc 1 194 0 discriminator 6
 357 0140 059B     		ldr	r3, [sp, #20]
 358 0142 002B     		cmp	r3, #0
 359 0144 0BD0     		beq	.L20
 360              		.loc 1 194 0 discriminator 8
 361 0146 0D9B     		ldr	r3, [sp, #52]
 362 0148 002B     		cmp	r3, #0
 363 014a 05D0     		beq	.L21
 364              		.loc 1 194 0 discriminator 9
 365 014c 0D9B     		ldr	r3, [sp, #52]
 366 014e 002B     		cmp	r3, #0
 367 0150 05D0     		beq	.L20
 368              		.loc 1 194 0 discriminator 12
 369 0152 0C9B     		ldr	r3, [sp, #48]
 370 0154 002B     		cmp	r3, #0
 371 0156 02D0     		beq	.L20
 372              	.L21:
 373              		.loc 1 194 0 discriminator 14
 374 0158 0E9B     		ldr	r3, [sp, #56]
 375 015a 002B     		cmp	r3, #0
 376 015c 02D1     		bne	.L22
ARM GAS  /tmp/cc7tOBLQ.s 			page 8


 377              	.L20:
 378              		.loc 1 194 0 discriminator 15
 379 015e 1C48     		ldr	r0, .L27
 380 0160 FFF7FEFF 		bl	chDbgPanic
 381              	.L22:
 382              		.loc 1 200 0 is_stmt 1
 383 0164 079B     		ldr	r3, [sp, #28]
 384 0166 1B78     		ldrb	r3, [r3]	@ zero_extendqisi2
 385 0168 022B     		cmp	r3, #2
 386 016a 02D0     		beq	.L23
 387              		.loc 1 200 0 is_stmt 0 discriminator 1
 388 016c 1948     		ldr	r0, .L27+4
 389 016e FFF7FEFF 		bl	chDbgPanic
 390              	.L23:
 391              	.LBB6:
 392              		.loc 1 203 0 is_stmt 1
 393 0172 2023     		movs	r3, #32
 394              	@ 203 "/opt/R2P/core/ChibiOS_2.6.5/os/hal/src/i2c.c" 1
 395 0174 83F31188 		msr     BASEPRI, r3
 396              	@ 0 "" 2
 397              		.thumb
 398              	.LBE6:
 399 0178 FFF7FEFF 		bl	dbg_check_lock
 400              		.loc 1 204 0
 401 017c 079B     		ldr	r3, [sp, #28]
 402 017e 0022     		movs	r2, #0
 403 0180 9A60     		str	r2, [r3, #8]
 404              		.loc 1 205 0
 405 0182 079B     		ldr	r3, [sp, #28]
 406 0184 0322     		movs	r2, #3
 407 0186 1A70     		strb	r2, [r3]
 408              		.loc 1 206 0
 409 0188 BDF81A20 		ldrh	r2, [sp, #26]
 410 018c 0C9B     		ldr	r3, [sp, #48]
 411 018e 0093     		str	r3, [sp]
 412 0190 0D9B     		ldr	r3, [sp, #52]
 413 0192 0193     		str	r3, [sp, #4]
 414 0194 0E9B     		ldr	r3, [sp, #56]
 415 0196 0293     		str	r3, [sp, #8]
 416 0198 0798     		ldr	r0, [sp, #28]
 417 019a 1146     		mov	r1, r2
 418 019c 059A     		ldr	r2, [sp, #20]
 419 019e 049B     		ldr	r3, [sp, #16]
 420 01a0 FFF7FEFF 		bl	i2c_lld_master_transmit_timeout
 421 01a4 0990     		str	r0, [sp, #36]
 422              		.loc 1 208 0
 423 01a6 099B     		ldr	r3, [sp, #36]
 424 01a8 B3F1FF3F 		cmp	r3, #-1
 425 01ac 03D1     		bne	.L24
 426              		.loc 1 209 0
 427 01ae 079B     		ldr	r3, [sp, #28]
 428 01b0 0522     		movs	r2, #5
 429 01b2 1A70     		strb	r2, [r3]
 430 01b4 02E0     		b	.L25
 431              	.L24:
 432              		.loc 1 211 0
 433 01b6 079B     		ldr	r3, [sp, #28]
ARM GAS  /tmp/cc7tOBLQ.s 			page 9


 434 01b8 0222     		movs	r2, #2
 435 01ba 1A70     		strb	r2, [r3]
 436              	.L25:
 437              		.loc 1 212 0
 438 01bc FFF7FEFF 		bl	dbg_check_unlock
 439              	.LBB7:
 440 01c0 0023     		movs	r3, #0
 441              	@ 212 "/opt/R2P/core/ChibiOS_2.6.5/os/hal/src/i2c.c" 1
 442 01c2 83F31188 		msr     BASEPRI, r3
 443              	@ 0 "" 2
 444              		.thumb
 445              	.LBE7:
 446              		.loc 1 213 0
 447 01c6 099B     		ldr	r3, [sp, #36]
 448              		.loc 1 214 0
 449 01c8 1846     		mov	r0, r3
 450 01ca 0BB0     		add	sp, sp, #44
 451              		.cfi_def_cfa_offset 4
 452              		@ sp needed
 453 01cc 5DF804FB 		ldr	pc, [sp], #4
 454              	.L28:
 455              		.align	2
 456              	.L27:
 457 01d0 50000000 		.word	.LC5
 458 01d4 70000000 		.word	.LC6
 459              		.cfi_endproc
 460              	.LFE123:
 461              		.size	i2cMasterTransmitTimeout, .-i2cMasterTransmitTimeout
 462              		.section	.rodata
 463 008f 00       		.align	2
 464              	.LC7:
 465 0090 22693263 		.ascii	"\"i2cMasterReceiveTimeout\"()\000"
 465      4D617374 
 465      65725265 
 465      63656976 
 465      6554696D 
 466              		.align	2
 467              	.LC8:
 468 00ac 6932634D 		.ascii	"i2cMasterReceive(), #1\000"
 468      61737465 
 468      72526563 
 468      65697665 
 468      28292C20 
 469              		.text
 470              		.align	2
 471              		.global	i2cMasterReceiveTimeout
 472              		.thumb
 473              		.thumb_func
 474              		.type	i2cMasterReceiveTimeout, %function
 475              	i2cMasterReceiveTimeout:
 476              	.LFB124:
 477              		.loc 1 240 0
 478              		.cfi_startproc
 479              		@ args = 4, pretend = 0, frame = 24
 480              		@ frame_needed = 0, uses_anonymous_args = 0
 481 01d8 00B5     		push	{lr}
 482              		.cfi_def_cfa_offset 4
ARM GAS  /tmp/cc7tOBLQ.s 			page 10


 483              		.cfi_offset 14, -4
 484 01da 89B0     		sub	sp, sp, #36
 485              		.cfi_def_cfa_offset 40
 486 01dc 0590     		str	r0, [sp, #20]
 487 01de 0392     		str	r2, [sp, #12]
 488 01e0 0293     		str	r3, [sp, #8]
 489 01e2 0B46     		mov	r3, r1	@ movhi
 490 01e4 ADF81230 		strh	r3, [sp, #18]	@ movhi
 491              		.loc 1 244 0
 492 01e8 059B     		ldr	r3, [sp, #20]
 493 01ea 002B     		cmp	r3, #0
 494 01ec 0CD0     		beq	.L30
 495              		.loc 1 244 0 is_stmt 0 discriminator 2
 496 01ee BDF81230 		ldrh	r3, [sp, #18]
 497 01f2 002B     		cmp	r3, #0
 498 01f4 08D0     		beq	.L30
 499              		.loc 1 244 0 discriminator 4
 500 01f6 029B     		ldr	r3, [sp, #8]
 501 01f8 002B     		cmp	r3, #0
 502 01fa 05D0     		beq	.L30
 503              		.loc 1 244 0 discriminator 6
 504 01fc 039B     		ldr	r3, [sp, #12]
 505 01fe 002B     		cmp	r3, #0
 506 0200 02D0     		beq	.L30
 507              		.loc 1 244 0 discriminator 8
 508 0202 0A9B     		ldr	r3, [sp, #40]
 509 0204 002B     		cmp	r3, #0
 510 0206 02D1     		bne	.L31
 511              	.L30:
 512              		.loc 1 244 0 discriminator 9
 513 0208 1A48     		ldr	r0, .L36
 514 020a FFF7FEFF 		bl	chDbgPanic
 515              	.L31:
 516              		.loc 1 249 0 is_stmt 1
 517 020e 059B     		ldr	r3, [sp, #20]
 518 0210 1B78     		ldrb	r3, [r3]	@ zero_extendqisi2
 519 0212 022B     		cmp	r3, #2
 520 0214 02D0     		beq	.L32
 521              		.loc 1 249 0 is_stmt 0 discriminator 1
 522 0216 1848     		ldr	r0, .L36+4
 523 0218 FFF7FEFF 		bl	chDbgPanic
 524              	.L32:
 525              	.LBB8:
 526              		.loc 1 252 0 is_stmt 1
 527 021c 2023     		movs	r3, #32
 528              	@ 252 "/opt/R2P/core/ChibiOS_2.6.5/os/hal/src/i2c.c" 1
 529 021e 83F31188 		msr     BASEPRI, r3
 530              	@ 0 "" 2
 531              		.thumb
 532              	.LBE8:
 533 0222 FFF7FEFF 		bl	dbg_check_lock
 534              		.loc 1 253 0
 535 0226 059B     		ldr	r3, [sp, #20]
 536 0228 0022     		movs	r2, #0
 537 022a 9A60     		str	r2, [r3, #8]
 538              		.loc 1 254 0
 539 022c 059B     		ldr	r3, [sp, #20]
ARM GAS  /tmp/cc7tOBLQ.s 			page 11


 540 022e 0422     		movs	r2, #4
 541 0230 1A70     		strb	r2, [r3]
 542              		.loc 1 255 0
 543 0232 BDF81220 		ldrh	r2, [sp, #18]
 544 0236 0A9B     		ldr	r3, [sp, #40]
 545 0238 0093     		str	r3, [sp]
 546 023a 0598     		ldr	r0, [sp, #20]
 547 023c 1146     		mov	r1, r2
 548 023e 039A     		ldr	r2, [sp, #12]
 549 0240 029B     		ldr	r3, [sp, #8]
 550 0242 FFF7FEFF 		bl	i2c_lld_master_receive_timeout
 551 0246 0790     		str	r0, [sp, #28]
 552              		.loc 1 256 0
 553 0248 079B     		ldr	r3, [sp, #28]
 554 024a B3F1FF3F 		cmp	r3, #-1
 555 024e 03D1     		bne	.L33
 556              		.loc 1 257 0
 557 0250 059B     		ldr	r3, [sp, #20]
 558 0252 0522     		movs	r2, #5
 559 0254 1A70     		strb	r2, [r3]
 560 0256 02E0     		b	.L34
 561              	.L33:
 562              		.loc 1 259 0
 563 0258 059B     		ldr	r3, [sp, #20]
 564 025a 0222     		movs	r2, #2
 565 025c 1A70     		strb	r2, [r3]
 566              	.L34:
 567              		.loc 1 260 0
 568 025e FFF7FEFF 		bl	dbg_check_unlock
 569              	.LBB9:
 570 0262 0023     		movs	r3, #0
 571              	@ 260 "/opt/R2P/core/ChibiOS_2.6.5/os/hal/src/i2c.c" 1
 572 0264 83F31188 		msr     BASEPRI, r3
 573              	@ 0 "" 2
 574              		.thumb
 575              	.LBE9:
 576              		.loc 1 261 0
 577 0268 079B     		ldr	r3, [sp, #28]
 578              		.loc 1 262 0
 579 026a 1846     		mov	r0, r3
 580 026c 09B0     		add	sp, sp, #36
 581              		.cfi_def_cfa_offset 4
 582              		@ sp needed
 583 026e 5DF804FB 		ldr	pc, [sp], #4
 584              	.L37:
 585 0272 00BF     		.align	2
 586              	.L36:
 587 0274 90000000 		.word	.LC7
 588 0278 AC000000 		.word	.LC8
 589              		.cfi_endproc
 590              	.LFE124:
 591              		.size	i2cMasterReceiveTimeout, .-i2cMasterReceiveTimeout
 592              		.section	.rodata
 593 00c3 00       		.align	2
 594              	.LC9:
 595 00c4 22693263 		.ascii	"\"i2cAcquireBus\"()\000"
 595      41637175 
ARM GAS  /tmp/cc7tOBLQ.s 			page 12


 595      69726542 
 595      75732228 
 595      2900
 596              		.text
 597              		.align	2
 598              		.global	i2cAcquireBus
 599              		.thumb
 600              		.thumb_func
 601              		.type	i2cAcquireBus, %function
 602              	i2cAcquireBus:
 603              	.LFB125:
 604              		.loc 1 276 0
 605              		.cfi_startproc
 606              		@ args = 0, pretend = 0, frame = 8
 607              		@ frame_needed = 0, uses_anonymous_args = 0
 608 027c 00B5     		push	{lr}
 609              		.cfi_def_cfa_offset 4
 610              		.cfi_offset 14, -4
 611 027e 83B0     		sub	sp, sp, #12
 612              		.cfi_def_cfa_offset 16
 613 0280 0190     		str	r0, [sp, #4]
 614              		.loc 1 278 0
 615 0282 019B     		ldr	r3, [sp, #4]
 616 0284 002B     		cmp	r3, #0
 617 0286 02D1     		bne	.L39
 618              		.loc 1 278 0 is_stmt 0 discriminator 1
 619 0288 0548     		ldr	r0, .L40
 620 028a FFF7FEFF 		bl	chDbgPanic
 621              	.L39:
 622              		.loc 1 281 0 is_stmt 1
 623 028e 019B     		ldr	r3, [sp, #4]
 624 0290 0C33     		adds	r3, r3, #12
 625 0292 1846     		mov	r0, r3
 626 0294 FFF7FEFF 		bl	chMtxLock
 627              		.loc 1 285 0
 628 0298 03B0     		add	sp, sp, #12
 629              		.cfi_def_cfa_offset 4
 630              		@ sp needed
 631 029a 5DF804FB 		ldr	pc, [sp], #4
 632              	.L41:
 633 029e 00BF     		.align	2
 634              	.L40:
 635 02a0 C4000000 		.word	.LC9
 636              		.cfi_endproc
 637              	.LFE125:
 638              		.size	i2cAcquireBus, .-i2cAcquireBus
 639              		.section	.rodata
 640 00d6 0000     		.align	2
 641              	.LC10:
 642 00d8 22693263 		.ascii	"\"i2cReleaseBus\"()\000"
 642      52656C65 
 642      61736542 
 642      75732228 
 642      2900
 643 00ea 0000     		.text
 644              		.align	2
 645              		.global	i2cReleaseBus
ARM GAS  /tmp/cc7tOBLQ.s 			page 13


 646              		.thumb
 647              		.thumb_func
 648              		.type	i2cReleaseBus, %function
 649              	i2cReleaseBus:
 650              	.LFB126:
 651              		.loc 1 296 0
 652              		.cfi_startproc
 653              		@ args = 0, pretend = 0, frame = 8
 654              		@ frame_needed = 0, uses_anonymous_args = 0
 655 02a4 00B5     		push	{lr}
 656              		.cfi_def_cfa_offset 4
 657              		.cfi_offset 14, -4
 658 02a6 83B0     		sub	sp, sp, #12
 659              		.cfi_def_cfa_offset 16
 660 02a8 0190     		str	r0, [sp, #4]
 661              		.loc 1 298 0
 662 02aa 019B     		ldr	r3, [sp, #4]
 663 02ac 002B     		cmp	r3, #0
 664 02ae 02D1     		bne	.L43
 665              		.loc 1 298 0 is_stmt 0 discriminator 1
 666 02b0 0348     		ldr	r0, .L44
 667 02b2 FFF7FEFF 		bl	chDbgPanic
 668              	.L43:
 669              		.loc 1 301 0 is_stmt 1
 670 02b6 FFF7FEFF 		bl	chMtxUnlock
 671              		.loc 1 305 0
 672 02ba 03B0     		add	sp, sp, #12
 673              		.cfi_def_cfa_offset 4
 674              		@ sp needed
 675 02bc 5DF804FB 		ldr	pc, [sp], #4
 676              	.L45:
 677              		.align	2
 678              	.L44:
 679 02c0 D8000000 		.word	.LC10
 680              		.cfi_endproc
 681              	.LFE126:
 682              		.size	i2cReleaseBus, .-i2cReleaseBus
 683              	.Letext0:
 684              		.file 2 "/opt/R2P/tools/gcc-arm-none-eabi-4_9-2014q4/lib/gcc/arm-none-eabi/4.9.3/include/stddef.h"
 685              		.file 3 "/opt/R2P/tools/gcc-arm-none-eabi-4_9-2014q4/arm-none-eabi/include/machine/_default_types.
 686              		.file 4 "/opt/R2P/tools/gcc-arm-none-eabi-4_9-2014q4/arm-none-eabi/include/stdint.h"
 687              		.file 5 "/opt/R2P/core/ChibiOS_2.6.5/os/ports/GCC/ARMCMx/chtypes.h"
 688              		.file 6 "/opt/R2P/core/ChibiOS_2.6.5/os/kernel/include/chlists.h"
 689              		.file 7 "/opt/R2P/core/ChibiOS_2.6.5/os/kernel/include/chthreads.h"
 690              		.file 8 "/opt/R2P/core/ChibiOS_2.6.5/os/ports/GCC/ARMCMx/chcore_v7m.h"
 691              		.file 9 "/opt/R2P/core/ChibiOS_2.6.5/os/kernel/include/chmtx.h"
 692              		.file 10 "/opt/R2P/core/ChibiOS_2.6.5/os/hal/platforms/STM32F30x/stm32f30x.h"
 693              		.file 11 "/opt/R2P/core/ChibiOS_2.6.5/os/hal/platforms/STM32F30x/stm32_dma.h"
 694              		.file 12 "/opt/R2P/core/ChibiOS_2.6.5/os/hal/include/i2c.h"
 695              		.file 13 "/opt/R2P/core/ChibiOS_2.6.5/os/hal/platforms/STM32/I2Cv2/i2c_lld.h"
 696              		.file 14 "/opt/R2P/core/ChibiOS_2.6.5/os/ports/common/ARMCMx/CMSIS/include/core_cm4.h"