ARM GAS  /tmp/cc7tOBLQ.s 			page 1


   1              		.syntax unified
   2              		.cpu cortex-m4
   3              		.fpu softvfp
   4              		.eabi_attribute 20, 1
   5              		.eabi_attribute 21, 1
   6              		.eabi_attribute 23, 3
   7              		.eabi_attribute 24, 1
   8              		.eabi_attribute 25, 1
   9              		.eabi_attribute 26, 1
  10              		.eabi_attribute 30, 6
  11              		.eabi_attribute 34, 1
  12              		.eabi_attribute 18, 4
  13              		.thumb
  14              		.file	"i2c.c"
  15              		.text
  16              	.Ltext0:
  17              		.cfi_sections	.debug_frame
  18              		.align	2
  19              		.global	i2cInit
  20              		.thumb
  21              		.thumb_func
  22              		.type	i2cInit, %function
  23              	i2cInit:
  24              	.LFB118:
  25              		.file 1 "/opt/R2P/core/ChibiOS_2.6.5/os/hal/src/i2c.c"
  26              		.loc 1 71 0
  27              		.cfi_startproc
  28              		@ args = 0, pretend = 0, frame = 0
  29              		@ frame_needed = 0, uses_anonymous_args = 0
  30 0000 08B5     		push	{r3, lr}
  31              		.cfi_def_cfa_offset 8
  32              		.cfi_offset 3, -8
  33              		.cfi_offset 14, -4
  34              		.loc 1 72 0
  35 0002 FFF7FEFF 		bl	i2c_lld_init
  36              		.loc 1 73 0
  37 0006 08BD     		pop	{r3, pc}
  38              		.cfi_endproc
  39              	.LFE118:
  40              		.size	i2cInit, .-i2cInit
  41              		.align	2
  42              		.global	i2cObjectInit
  43              		.thumb
  44              		.thumb_func
  45              		.type	i2cObjectInit, %function
  46              	i2cObjectInit:
  47              	.LFB119:
  48              		.loc 1 82 0
  49              		.cfi_startproc
  50              		@ args = 0, pretend = 0, frame = 8
  51              		@ frame_needed = 0, uses_anonymous_args = 0
  52 0008 00B5     		push	{lr}
  53              		.cfi_def_cfa_offset 4
  54              		.cfi_offset 14, -4
  55 000a 83B0     		sub	sp, sp, #12
  56              		.cfi_def_cfa_offset 16
  57 000c 0190     		str	r0, [sp, #4]
ARM GAS  /tmp/cc7tOBLQ.s 			page 2


  58              		.loc 1 84 0
  59 000e 019B     		ldr	r3, [sp, #4]
  60 0010 0122     		movs	r2, #1
  61 0012 1A70     		strb	r2, [r3]
  62              		.loc 1 85 0
  63 0014 019B     		ldr	r3, [sp, #4]
  64 0016 0022     		movs	r2, #0
  65 0018 5A60     		str	r2, [r3, #4]
  66              		.loc 1 89 0
  67 001a 019B     		ldr	r3, [sp, #4]
  68 001c 0C33     		adds	r3, r3, #12
  69 001e 1846     		mov	r0, r3
  70 0020 FFF7FEFF 		bl	chMtxInit
  71              		.loc 1 98 0
  72 0024 03B0     		add	sp, sp, #12
  73              		.cfi_def_cfa_offset 4
  74              		@ sp needed
  75 0026 5DF804FB 		ldr	pc, [sp], #4
  76              		.cfi_endproc
  77              	.LFE119:
  78              		.size	i2cObjectInit, .-i2cObjectInit
  79              		.section	.rodata
  80              		.align	2
  81              	.LC0:
  82 0000 22693263 		.ascii	"\"i2cStart\"()\000"
  82      53746172 
  82      74222829 
  82      00
  83 000d 000000   		.align	2
  84              	.LC1:
  85 0010 69326353 		.ascii	"i2cStart(), #1\000"
  85      74617274 
  85      28292C20 
  85      233100
  86              		.text
  87 002a 00BF     		.align	2
  88              		.global	i2cStart
  89              		.thumb
  90              		.thumb_func
  91              		.type	i2cStart, %function
  92              	i2cStart:
  93              	.LFB120:
  94              		.loc 1 108 0
  95              		.cfi_startproc
  96              		@ args = 0, pretend = 0, frame = 8
  97              		@ frame_needed = 0, uses_anonymous_args = 0
  98 002c 00B5     		push	{lr}
  99              		.cfi_def_cfa_offset 4
 100              		.cfi_offset 14, -4
 101 002e 83B0     		sub	sp, sp, #12
 102              		.cfi_def_cfa_offset 16
 103 0030 0190     		str	r0, [sp, #4]
 104 0032 0091     		str	r1, [sp]
 105              		.loc 1 110 0
 106 0034 019B     		ldr	r3, [sp, #4]
 107 0036 002B     		cmp	r3, #0
 108 0038 02D0     		beq	.L4
ARM GAS  /tmp/cc7tOBLQ.s 			page 3


 109              		.loc 1 110 0 is_stmt 0 discriminator 2
 110 003a 009B     		ldr	r3, [sp]
 111 003c 002B     		cmp	r3, #0
 112 003e 02D1     		bne	.L5
 113              	.L4:
 114              		.loc 1 110 0 discriminator 3
 115 0040 1348     		ldr	r0, .L7
 116 0042 FFF7FEFF 		bl	chDbgPanic
 117              	.L5:
 118              		.loc 1 111 0 is_stmt 1
 119 0046 019B     		ldr	r3, [sp, #4]
 120 0048 1B78     		ldrb	r3, [r3]	@ zero_extendqisi2
 121 004a 012B     		cmp	r3, #1
 122 004c 0AD0     		beq	.L6
 123              		.loc 1 111 0 is_stmt 0 discriminator 1
 124 004e 019B     		ldr	r3, [sp, #4]
 125 0050 1B78     		ldrb	r3, [r3]	@ zero_extendqisi2
 126 0052 022B     		cmp	r3, #2
 127 0054 06D0     		beq	.L6
 128              		.loc 1 111 0 discriminator 2
 129 0056 019B     		ldr	r3, [sp, #4]
 130 0058 1B78     		ldrb	r3, [r3]	@ zero_extendqisi2
 131 005a 052B     		cmp	r3, #5
 132 005c 02D0     		beq	.L6
 133              		.loc 1 111 0 discriminator 3
 134 005e 0D48     		ldr	r0, .L7+4
 135 0060 FFF7FEFF 		bl	chDbgPanic
 136              	.L6:
 137              	.LBB2:
 138              		.loc 1 116 0 is_stmt 1
 139 0064 2023     		movs	r3, #32
 140              	@ 116 "/opt/R2P/core/ChibiOS_2.6.5/os/hal/src/i2c.c" 1
 141 0066 83F31188 		msr     BASEPRI, r3
 142              	@ 0 "" 2
 143              		.thumb
 144              	.LBE2:
 145 006a FFF7FEFF 		bl	dbg_check_lock
 146              		.loc 1 117 0
 147 006e 019B     		ldr	r3, [sp, #4]
 148 0070 009A     		ldr	r2, [sp]
 149 0072 5A60     		str	r2, [r3, #4]
 150              		.loc 1 118 0
 151 0074 0198     		ldr	r0, [sp, #4]
 152 0076 FFF7FEFF 		bl	i2c_lld_start
 153              		.loc 1 119 0
 154 007a 019B     		ldr	r3, [sp, #4]
 155 007c 0222     		movs	r2, #2
 156 007e 1A70     		strb	r2, [r3]
 157              		.loc 1 120 0
 158 0080 FFF7FEFF 		bl	dbg_check_unlock
 159              	.LBB3:
 160 0084 0023     		movs	r3, #0
 161              	@ 120 "/opt/R2P/core/ChibiOS_2.6.5/os/hal/src/i2c.c" 1
 162 0086 83F31188 		msr     BASEPRI, r3
 163              	@ 0 "" 2
 164              		.thumb
 165              	.LBE3:
ARM GAS  /tmp/cc7tOBLQ.s 			page 4


 166              		.loc 1 121 0
 167 008a 03B0     		add	sp, sp, #12
 168              		.cfi_def_cfa_offset 4
 169              		@ sp needed
 170 008c 5DF804FB 		ldr	pc, [sp], #4
 171              	.L8:
 172              		.align	2
 173              	.L7:
 174 0090 00000000 		.word	.LC0
 175 0094 10000000 		.word	.LC1
 176              		.cfi_endproc
 177              	.LFE120:
 178              		.size	i2cStart, .-i2cStart
 179              		.section	.rodata
 180 001f 00       		.align	2
 181              	.LC2:
 182 0020 22693263 		.ascii	"\"i2cStop\"()\000"
 182      53746F70 
 182      22282900 
 183              		.align	2
 184              	.LC3:
 185 002c 69326353 		.ascii	"i2cStop(), #1\000"
 185      746F7028 
 185      292C2023 
 185      3100
 186              		.text
 187              		.align	2
 188              		.global	i2cStop
 189              		.thumb
 190              		.thumb_func
 191              		.type	i2cStop, %function
 192              	i2cStop:
 193              	.LFB121:
 194              		.loc 1 130 0
 195              		.cfi_startproc
 196              		@ args = 0, pretend = 0, frame = 8
 197              		@ frame_needed = 0, uses_anonymous_args = 0
 198 0098 00B5     		push	{lr}
 199              		.cfi_def_cfa_offset 4
 200              		.cfi_offset 14, -4
 201 009a 83B0     		sub	sp, sp, #12
 202              		.cfi_def_cfa_offset 16
 203 009c 0190     		str	r0, [sp, #4]
 204              		.loc 1 132 0
 205 009e 019B     		ldr	r3, [sp, #4]
 206 00a0 002B     		cmp	r3, #0
 207 00a2 02D1     		bne	.L10
 208              		.loc 1 132 0 is_stmt 0 discriminator 1
 209 00a4 1248     		ldr	r0, .L12
 210 00a6 FFF7FEFF 		bl	chDbgPanic
 211              	.L10:
 212              		.loc 1 133 0 is_stmt 1
 213 00aa 019B     		ldr	r3, [sp, #4]
 214 00ac 1B78     		ldrb	r3, [r3]	@ zero_extendqisi2
 215 00ae 012B     		cmp	r3, #1
 216 00b0 0AD0     		beq	.L11
 217              		.loc 1 133 0 is_stmt 0 discriminator 1
ARM GAS  /tmp/cc7tOBLQ.s 			page 5


 218 00b2 019B     		ldr	r3, [sp, #4]
 219 00b4 1B78     		ldrb	r3, [r3]	@ zero_extendqisi2
 220 00b6 022B     		cmp	r3, #2
 221 00b8 06D0     		beq	.L11
 222              		.loc 1 133 0 discriminator 2
 223 00ba 019B     		ldr	r3, [sp, #4]
 224 00bc 1B78     		ldrb	r3, [r3]	@ zero_extendqisi2
 225 00be 052B     		cmp	r3, #5
 226 00c0 02D0     		beq	.L11
 227              		.loc 1 133 0 discriminator 3
 228 00c2 0C48     		ldr	r0, .L12+4
 229 00c4 FFF7FEFF 		bl	chDbgPanic
 230              	.L11:
 231              	.LBB4:
 232              		.loc 1 138 0 is_stmt 1
 233 00c8 2023     		movs	r3, #32
 234              	@ 138 "/opt/R2P/core/ChibiOS_2.6.5/os/hal/src/i2c.c" 1
 235 00ca 83F31188 		msr     BASEPRI, r3
 236              	@ 0 "" 2
 237              		.thumb
 238              	.LBE4:
 239 00ce FFF7FEFF 		bl	dbg_check_lock
 240              		.loc 1 139 0
 241 00d2 0198     		ldr	r0, [sp, #4]
 242 00d4 FFF7FEFF 		bl	i2c_lld_stop
 243              		.loc 1 140 0
 244 00d8 019B     		ldr	r3, [sp, #4]
 245 00da 0122     		movs	r2, #1
 246 00dc 1A70     		strb	r2, [r3]
 247              		.loc 1 141 0
 248 00de FFF7FEFF 		bl	dbg_check_unlock
 249              	.LBB5:
 250 00e2 0023     		movs	r3, #0
 251              	@ 141 "/opt/R2P/core/ChibiOS_2.6.5/os/hal/src/i2c.c" 1
 252 00e4 83F31188 		msr     BASEPRI, r3
 253              	@ 0 "" 2
 254              		.thumb
 255              	.LBE5:
 256              		.loc 1 142 0
 257 00e8 03B0     		add	sp, sp, #12
 258              		.cfi_def_cfa_offset 4
 259              		@ sp needed
 260 00ea 5DF804FB 		ldr	pc, [sp], #4
 261              	.L13:
 262 00ee 00BF     		.align	2
 263              	.L12:
 264 00f0 20000000 		.word	.LC2
 265 00f4 2C000000 		.word	.LC3
 266              		.cfi_endproc
 267              	.LFE121:
 268              		.size	i2cStop, .-i2cStop
 269              		.section	.rodata
 270 003a 0000     		.align	2
 271              	.LC4:
 272 003c 22693263 		.ascii	"\"i2cGetErrors\"()\000"
 272      47657445 
 272      72726F72 
ARM GAS  /tmp/cc7tOBLQ.s 			page 6


 272      73222829 
 272      00
 273              		.text
 274              		.align	2
 275              		.global	i2cGetErrors
 276              		.thumb
 277              		.thumb_func
 278              		.type	i2cGetErrors, %function
 279              	i2cGetErrors:
 280              	.LFB122:
 281              		.loc 1 152 0
 282              		.cfi_startproc
 283              		@ args = 0, pretend = 0, frame = 8
 284              		@ frame_needed = 0, uses_anonymous_args = 0
 285 00f8 00B5     		push	{lr}
 286              		.cfi_def_cfa_offset 4
 287              		.cfi_offset 14, -4
 288 00fa 83B0     		sub	sp, sp, #12
 289              		.cfi_def_cfa_offset 16
 290 00fc 0190     		str	r0, [sp, #4]
 291              		.loc 1 154 0
 292 00fe 019B     		ldr	r3, [sp, #4]
 293 0100 002B     		cmp	r3, #0
 294 0102 02D1     		bne	.L15
 295              		.loc 1 154 0 is_stmt 0 discriminator 1
 296 0104 0448     		ldr	r0, .L17
 297 0106 FFF7FEFF 		bl	chDbgPanic
 298              	.L15:
 299              		.loc 1 156 0 is_stmt 1
 300 010a 019B     		ldr	r3, [sp, #4]
 301 010c 9B68     		ldr	r3, [r3, #8]
 302              		.loc 1 157 0
 303 010e 1846     		mov	r0, r3
 304 0110 03B0     		add	sp, sp, #12
 305              		.cfi_def_cfa_offset 4
 306              		@ sp needed
 307 0112 5DF804FB 		ldr	pc, [sp], #4
 308              	.L18:
 309 0116 00BF     		.align	2
 310              	.L17:
 311 0118 3C000000 		.word	.LC4
 312              		.cfi_endproc
 313              	.LFE122:
 314              		.size	i2cGetErrors, .-i2cGetErrors
 315              		.section	.rodata
 316 004d 000000   		.align	2
 317              	.LC5:
 318 0050 22693263 		.ascii	"\"i2cMasterTransmitTimeout\"()\000"
 318      4D617374 
 318      65725472 
 318      616E736D 
 318      69745469 
 319 006d 000000   		.align	2
 320              	.LC6:
 321 0070 6932634D 		.ascii	"i2cMasterTransmitTimeout(), #1\000"
 321      61737465 
 321      72547261 
ARM GAS  /tmp/cc7tOBLQ.s 			page 7


 321      6E736D69 
 321      7454696D 
 322              		.text
 323              		.align	2
 324              		.global	i2cMasterTransmitTimeout
 325              		.thumb
 326              		.thumb_func
 327              		.type	i2cMasterTransmitTimeout, %function
 328              	i2cMasterTransmitTimeout:
 329              	.LFB123:
 330              		.loc 1 191 0
 331              		.cfi_startproc
 332              		@ args = 12, pretend = 0, frame = 24
 333              		@ frame_needed = 0, uses_anonymous_args = 0
 334 011c 00B5     		push	{lr}
 335              		.cfi_def_cfa_offset 4
 336              		.cfi_offset 14, -4
 337 011e 8BB0     		sub	sp, sp, #44
 338              		.cfi_def_cfa_offset 48
 339 0120 0790     		str	r0, [sp, #28]
 340 0122 0592     		str	r2, [sp, #20]
 341 0124 0493     		str	r3, [sp, #16]
 342 0126 0B46     		mov	r3, r1	@ movhi
 343 0128 ADF81A30 		strh	r3, [sp, #26]	@ movhi
 344              		.loc 1 194 0
 345 012c 079B     		ldr	r3, [sp, #28]
 346 012e 002B     		cmp	r3, #0
 347 0130 15D0     		beq	.L20
 348              		.loc 1 194 0 is_stmt 0 discriminator 2
 349 0132 BDF81A30 		ldrh	r3, [sp, #26]
 350 0136 002B     		cmp	r3, #0
 351 0138 11D0     		beq	.L20
 352              		.loc 1 194 0 discriminator 4
 353 013a 049B     		ldr	r3, [sp, #16]
 354 013c 002B     		cmp	r3, #0
 355 013e 0ED0     		beq	.L20
 356              		.loc 1 194 0 discriminator 6
 357 0140 059B     		ldr	r3, [sp, #20]
 358 0142 002B     		cmp	r3, #0
 359 0144 0BD0     		beq	.L20
 360              		.loc 1 194 0 discriminator 8
 361 0146 0D9B     		ldr	r3, [sp, #52]
 362 0148 002B     		cmp	r3, #0
 363 014a 05D0     		beq	.L21
 364              		.loc 1 194 0 discriminator 9
 365 014c 0D9B     		ldr	r3, [sp, #52]
 366 014e 002B     		cmp	r3, #0
 367 0150 05D0     		beq	.L20
 368              		.loc 1 194 0 discriminator 12
 369 0152 0C9B     		ldr	r3, [sp, #48]
 370 0154 002B     		cmp	r3, #0
 371 0156 02D0     		beq	.L20
 372              	.L21:
 373              		.loc 1 194 0 discriminator 14
 374 0158 0E9B     		ldr	r3, [sp, #56]
 375 015a 002B     		cmp	r3, #0
 376 015c 02D1     		bne	.L22
ARM GAS  /tmp/cc7tOBLQ.s 			page 8


 377              	.L20:
 378              		.loc 1 194 0 discriminator 15
 379 015e 1C48     		ldr	r0, .L27
 380 0160 FFF7FEFF 		bl	chDbgPanic
 381              	.L22:
 382              		.loc 1 200 0 is_stmt 1
 383 0164 079B     		ldr	r3, [sp, #28]
 384 0166 1B78     		ldrb	r3, [r3]	@ zero_extendqisi2
 385 0168 022B     		cmp	r3, #2
 386 016a 02D0     		beq	.L23
 387              		.loc 1 200 0 is_stmt 0 discriminator 1
 388 016c 1948     		ldr	r0, .L27+4
 389 016e FFF7FEFF 		bl	chDbgPanic
 390              	.L23:
 391              	.LBB6:
 392              		.loc 1 203 0 is_stmt 1
 393 0172 2023     		movs	r3, #32
 394              	@ 203 "/opt/R2P/core/ChibiOS_2.6.5/os/hal/src/i2c.c" 1
 395 0174 83F31188 		msr     BASEPRI, r3
 396              	@ 0 "" 2
 397              		.thumb
 398              	.LBE6:
 399 0178 FFF7FEFF 		bl	dbg_check_lock
 400              		.loc 1 204 0
 401 017c 079B     		ldr	r3, [sp, #28]
 402 017e 0022     		movs	r2, #0
 403 0180 9A60     		str	r2, [r3, #8]
 404              		.loc 1 205 0
 405 0182 079B     		ldr	r3, [sp, #28]
 406 0184 0322     		movs	r2, #3
 407 0186 1A70     		strb	r2, [r3]
 408              		.loc 1 206 0
 409 0188 BDF81A20 		ldrh	r2, [sp, #26]
 410 018c 0C9B     		ldr	r3, [sp, #48]
 411 018e 0093     		str	r3, [sp]
 412 0190 0D9B     		ldr	r3, [sp, #52]
 413 0192 0193     		str	r3, [sp, #4]
 414 0194 0E9B     		ldr	r3, [sp, #56]
 415 0196 0293     		str	r3, [sp, #8]
 416 0198 0798     		ldr	r0, [sp, #28]
 417 019a 1146     		mov	r1, r2
 418 019c 059A     		ldr	r2, [sp, #20]
 419 019e 049B     		ldr	r3, [sp, #16]
 420 01a0 FFF7FEFF 		bl	i2c_lld_master_transmit_timeout
 421 01a4 0990     		str	r0, [sp, #36]
 422              		.loc 1 208 0
 423 01a6 099B     		ldr	r3, [sp, #36]
 424 01a8 B3F1FF3F 		cmp	r3, #-1
 425 01ac 03D1     		bne	.L24
 426              		.loc 1 209 0
 427 01ae 079B     		ldr	r3, [sp, #28]
 428 01b0 0522     		movs	r2, #5
 429 01b2 1A70     		strb	r2, [r3]
 430 01b4 02E0     		b	.L25
 431              	.L24:
 432              		.loc 1 211 0
 433 01b6 079B     		ldr	r3, [sp, #28]
ARM GAS  /tmp/cc7tOBLQ.s 			page 9


 434 01b8 0222     		movs	r2, #2
 435 01ba 1A70     		strb	r2, [r3]
 436              	.L25:
 437              		.loc 1 212 0
 438 01bc FFF7FEFF 		bl	dbg_check_unlock
 439              	.LBB7:
 440 01c0 0023     		movs	r3, #0
 441              	@ 212 "/opt/R2P/core/ChibiOS_2.6.5/os/hal/src/i2c.c" 1
 442 01c2 83F31188 		msr     BASEPRI, r3
 443              	@ 0 "" 2
 444              		.thumb
 445              	.LBE7:
 446              		.loc 1 213 0
 447 01c6 099B     		ldr	r3, [sp, #36]
 448              		.loc 1 214 0
 449 01c8 1846     		mov	r0, r3
 450 01ca 0BB0     		add	sp, sp, #44
 451              		.cfi_def_cfa_offset 4
 452              		@ sp needed
 453 01cc 5DF804FB 		ldr	pc, [sp], #4
 454              	.L28:
 455              		.align	2
 456              	.L27:
 457 01d0 50000000 		.word	.LC5
 458 01d4 70000000 		.word	.LC6
 459              		.cfi_endproc
 460              	.LFE123:
 461              		.size	i2cMasterTransmitTimeout, .-i2cMasterTransmitTimeout
 462              		.section	.rodata
 463 008f 00       		.align	2
 464              	.LC7:
 465 0090 22693263 		.ascii	"\"i2cMasterReceiveTimeout\"()\000"
 465      4D617374 
 465      65725265 
 465      63656976 
 465      6554696D 
 466              		.align	2
 467              	.LC8:
 468 00ac 6932634D 		.ascii	"i2cMasterReceive(), #1\000"
 468      61737465 
 468      72526563 
 468      65697665 
 468      28292C20 
 469              		.text
 470              		.align	2
 471              		.global	i2cMasterReceiveTimeout
 472              		.thumb
 473              		.thumb_func
 474              		.type	i2cMasterReceiveTimeout, %function
 475              	i2cMasterReceiveTimeout:
 476              	.LFB124:
 477              		.loc 1 240 0
 478              		.cfi_startproc
 479              		@ args = 4, pretend = 0, frame = 24
 480              		@ frame_needed = 0, uses_anonymous_args = 0
 481 01d8 00B5     		push	{lr}
 482              		.cfi_def_cfa_offset 4
ARM GAS  /tmp/cc7tOBLQ.s 			page 10


 483              		.cfi_offset 14, -4
 484 01da 89B0     		sub	sp, sp, #36
 485              		.cfi_def_cfa_offset 40
 486 01dc 0590     		str	r0, [sp, #20]
 487 01de 0392     		str	r2, [sp, #12]
 488 01e0 0293     		str	r3, [sp, #8]
 489 01e2 0B46     		mov	r3, r1	@ movhi
 490 01e4 ADF81230 		strh	r3, [sp, #18]	@ movhi
 491              		.loc 1 244 0
 492 01e8 059B     		ldr	r3, [sp, #20]
 493 01ea 002B     		cmp	r3, #0
 494 01ec 0CD0     		beq	.L30
 495              		.loc 1 244 0 is_stmt 0 discriminator 2
 496 01ee BDF81230 		ldrh	r3, [sp, #18]
 497 01f2 002B     		cmp	r3, #0
 498 01f4 08D0     		beq	.L30
 499              		.loc 1 244 0 discriminator 4
 500 01f6 029B     		ldr	r3, [sp, #8]
 501 01f8 002B     		cmp	r3, #0
 502 01fa 05D0     		beq	.L30
 503              		.loc 1 244 0 discriminator 6
 504 01fc 039B     		ldr	r3, [sp, #12]
 505 01fe 002B     		cmp	r3, #0
 506 0200 02D0     		beq	.L30
 507              		.loc 1 244 0 discriminator 8
 508 0202 0A9B     		ldr	r3, [sp, #40]
 509 0204 002B     		cmp	r3, #0
 510 0206 02D1     		bne	.L31
 511              	.L30:
 512              		.loc 1 244 0 discriminator 9
 513 0208 1A48     		ldr	r0, .L36
 514 020a FFF7FEFF 		bl	chDbgPanic
 515              	.L31:
 516              		.loc 1 249 0 is_stmt 1
 517 020e 059B     		ldr	r3, [sp, #20]
 518 0210 1B78     		ldrb	r3, [r3]	@ zero_extendqisi2
 519 0212 022B     		cmp	r3, #2
 520 0214 02D0     		beq	.L32
 521              		.loc 1 249 0 is_stmt 0 discriminator 1
 522 0216 1848     		ldr	r0, .L36+4
 523 0218 FFF7FEFF 		bl	chDbgPanic
 524              	.L32:
 525              	.LBB8:
 526              		.loc 1 252 0 is_stmt 1
 527 021c 2023     		movs	r3, #32
 528              	@ 252 "/opt/R2P/core/ChibiOS_2.6.5/os/hal/src/i2c.c" 1
 529 021e 83F31188 		msr     BASEPRI, r3
 530              	@ 0 "" 2
 531              		.thumb
 532              	.LBE8:
 533 0222 FFF7FEFF 		bl	dbg_check_lock
 534              		.loc 1 253 0
 535 0226 059B     		ldr	r3, [sp, #20]
 536 0228 0022     		movs	r2, #0
 537 022a 9A60     		str	r2, [r3, #8]
 538              		.loc 1 254 0
 539 022c 059B     		ldr	r3, [sp, #20]
ARM GAS  /tmp/cc7tOBLQ.s 			page 11


 540 022e 0422     		movs	r2, #4
 541 0230 1A70     		strb	r2, [r3]
 542              		.loc 1 255 0
 543 0232 BDF81220 		ldrh	r2, [sp, #18]
 544 0236 0A9B     		ldr	r3, [sp, #40]
 545 0238 0093     		str	r3, [sp]
 546 023a 0598     		ldr	r0, [sp, #20]
 547 023c 1146     		mov	r1, r2
 548 023e 039A     		ldr	r2, [sp, #12]
 549 0240 029B     		ldr	r3, [sp, #8]
 550 0242 FFF7FEFF 		bl	i2c_lld_master_receive_timeout
 551 0246 0790     		str	r0, [sp, #28]
 552              		.loc 1 256 0
 553 0248 079B     		ldr	r3, [sp, #28]
 554 024a B3F1FF3F 		cmp	r3, #-1
 555 024e 03D1     		bne	.L33
 556              		.loc 1 257 0
 557 0250 059B     		ldr	r3, [sp, #20]
 558 0252 0522     		movs	r2, #5
 559 0254 1A70     		strb	r2, [r3]
 560 0256 02E0     		b	.L34
 561              	.L33:
 562              		.loc 1 259 0
 563 0258 059B     		ldr	r3, [sp, #20]
 564 025a 0222     		movs	r2, #2
 565 025c 1A70     		strb	r2, [r3]
 566              	.L34:
 567              		.loc 1 260 0
 568 025e FFF7FEFF 		bl	dbg_check_unlock
 569              	.LBB9:
 570 0262 0023     		movs	r3, #0
 571              	@ 260 "/opt/R2P/core/ChibiOS_2.6.5/os/hal/src/i2c.c" 1
 572 0264 83F31188 		msr     BASEPRI, r3
 573              	@ 0 "" 2
 574              		.thumb
 575              	.LBE9:
 576              		.loc 1 261 0
 577 0268 079B     		ldr	r3, [sp, #28]
 578              		.loc 1 262 0
 579 026a 1846     		mov	r0, r3
 580 026c 09B0     		add	sp, sp, #36
 581              		.cfi_def_cfa_offset 4
 582              		@ sp needed
 583 026e 5DF804FB 		ldr	pc, [sp], #4
 584              	.L37:
 585 0272 00BF     		.align	2
 586              	.L36:
 587 0274 90000000 		.word	.LC7
 588 0278 AC000000 		.word	.LC8
 589              		.cfi_endproc
 590              	.LFE124:
 591              		.size	i2cMasterReceiveTimeout, .-i2cMasterReceiveTimeout
 592              		.section	.rodata
 593 00c3 00       		.align	2
 594              	.LC9:
 595 00c4 22693263 		.ascii	"\"i2cAcquireBus\"()\000"
 595      41637175 
ARM GAS  /tmp/cc7tOBLQ.s 			page 12


 595      69726542 
 595      75732228 
 595      2900
 596              		.text
 597              		.align	2
 598              		.global	i2cAcquireBus
 599              		.thumb
 600              		.thumb_func
 601              		.type	i2cAcquireBus, %function
 602              	i2cAcquireBus:
 603              	.LFB125:
 604              		.loc 1 276 0
 605              		.cfi_startproc
 606              		@ args = 0, pretend = 0, frame = 8
 607              		@ frame_needed = 0, uses_anonymous_args = 0
 608 027c 00B5     		push	{lr}
 609              		.cfi_def_cfa_offset 4
 610              		.cfi_offset 14, -4
 611 027e 83B0     		sub	sp, sp, #12
 612              		.cfi_def_cfa_offset 16
 613 0280 0190     		str	r0, [sp, #4]
 614              		.loc 1 278 0
 615 0282 019B     		ldr	r3, [sp, #4]
 616 0284 002B     		cmp	r3, #0
 617 0286 02D1     		bne	.L39
 618              		.loc 1 278 0 is_stmt 0 discriminator 1
 619 0288 0548     		ldr	r0, .L40
 620 028a FFF7FEFF 		bl	chDbgPanic
 621              	.L39:
 622              		.loc 1 281 0 is_stmt 1
 623 028e 019B     		ldr	r3, [sp, #4]
 624 0290 0C33     		adds	r3, r3, #12
 625 0292 1846     		mov	r0, r3
 626 0294 FFF7FEFF 		bl	chMtxLock
 627              		.loc 1 285 0
 628 0298 03B0     		add	sp, sp, #12
 629              		.cfi_def_cfa_offset 4
 630              		@ sp needed
 631 029a 5DF804FB 		ldr	pc, [sp], #4
 632              	.L41:
 633 029e 00BF     		.align	2
 634              	.L40:
 635 02a0 C4000000 		.word	.LC9
 636              		.cfi_endproc
 637              	.LFE125:
 638              		.size	i2cAcquireBus, .-i2cAcquireBus
 639              		.section	.rodata
 640 00d6 0000     		.align	2
 641              	.LC10:
 642 00d8 22693263 		.ascii	"\"i2cReleaseBus\"()\000"
 642      52656C65 
 642      61736542 
 642      75732228 
 642      2900
 643 00ea 0000     		.text
 644              		.align	2
 645              		.global	i2cReleaseBus
ARM GAS  /tmp/cc7tOBLQ.s 			page 13


 646              		.thumb
 647              		.thumb_func
 648              		.type	i2cReleaseBus, %function
 649              	i2cReleaseBus:
 650              	.LFB126:
 651              		.loc 1 296 0
 652              		.cfi_startproc
 653              		@ args = 0, pretend = 0, frame = 8
 654              		@ frame_needed = 0, uses_anonymous_args = 0
 655 02a4 00B5     		push	{lr}
 656              		.cfi_def_cfa_offset 4
 657              		.cfi_offset 14, -4
 658 02a6 83B0     		sub	sp, sp, #12
 659              		.cfi_def_cfa_offset 16
 660 02a8 0190     		str	r0, [sp, #4]
 661              		.loc 1 298 0
 662 02aa 019B     		ldr	r3, [sp, #4]
 663 02ac 002B     		cmp	r3, #0
 664 02ae 02D1     		bne	.L43
 665              		.loc 1 298 0 is_stmt 0 discriminator 1
 666 02b0 0348     		ldr	r0, .L44
 667 02b2 FFF7FEFF 		bl	chDbgPanic
 668              	.L43:
 669              		.loc 1 301 0 is_stmt 1
 670 02b6 FFF7FEFF 		bl	chMtxUnlock
 671              		.loc 1 305 0
 672 02ba 03B0     		add	sp, sp, #12
 673              		.cfi_def_cfa_offset 4
 674              		@ sp needed
 675 02bc 5DF804FB 		ldr	pc, [sp], #4
 676              	.L45:
 677              		.align	2
 678              	.L44:
 679 02c0 D8000000 		.word	.LC10
 680              		.cfi_endproc
 681              	.LFE126:
 682              		.size	i2cReleaseBus, .-i2cReleaseBus
 683              	.Letext0:
 684              		.file 2 "/opt/R2P/tools/gcc-arm-none-eabi-4_9-2014q4/lib/gcc/arm-none-eabi/4.9.3/include/stddef.h"
 685              		.file 3 "/opt/R2P/tools/gcc-arm-none-eabi-4_9-2014q4/arm-none-eabi/include/machine/_default_types.
 686              		.file 4 "/opt/R2P/tools/gcc-arm-none-eabi-4_9-2014q4/arm-none-eabi/include/stdint.h"
 687              		.file 5 "/opt/R2P/core/ChibiOS_2.6.5/os/ports/GCC/ARMCMx/chtypes.h"
 688              		.file 6 "/opt/R2P/core/ChibiOS_2.6.5/os/kernel/include/chlists.h"
 689              		.file 7 "/opt/R2P/core/ChibiOS_2.6.5/os/kernel/include/chthreads.h"
 690              		.file 8 "/opt/R2P/core/ChibiOS_2.6.5/os/ports/GCC/ARMCMx/chcore_v7m.h"
 691              		.file 9 "/opt/R2P/core/ChibiOS_2.6.5/os/kernel/include/chmtx.h"
 692              		.file 10 "/opt/R2P/core/ChibiOS_2.6.5/os/hal/platforms/STM32F30x/stm32f30x.h"
 693              		.file 11 "/opt/R2P/core/ChibiOS_2.6.5/os/hal/platforms/STM32F30x/stm32_dma.h"
 694              		.file 12 "/opt/R2P/core/ChibiOS_2.6.5/os/hal/include/i2c.h"
 695              		.file 13 "/opt/R2P/core/ChibiOS_2.6.5/os/hal/platforms/STM32/I2Cv2/i2c_lld.h"
 696              		.file 14 "/opt/R2P/core/ChibiOS_2.6.5/os/ports/common/ARMCMx/CMSIS/include/core_cm4.h"
 697              		.section	.debug_info,"",%progbits
 698              	.Ldebug_info0:
 699 0000 5E090000 		.4byte	0x95e
 700 0004 0400     		.2byte	0x4
 701 0006 00000000 		.4byte	.Ldebug_abbrev0
 702 000a 04       		.byte	0x4
ARM GAS  /tmp/cc7tOBLQ.s 			page 14


 703 000b 01       		.uleb128 0x1
 704 000c 9F030000 		.4byte	.LASF118
 705 0010 01       		.byte	0x1
 706 0011 A2020000 		.4byte	.LASF119
 707 0015 00000000 		.4byte	.Ltext0
 708 0019 C4020000 		.4byte	.Letext0-.Ltext0
 709 001d 00000000 		.4byte	.Ldebug_line0
 710 0021 02       		.uleb128 0x2
 711 0022 04       		.byte	0x4
 712 0023 05       		.byte	0x5
 713 0024 696E7400 		.ascii	"int\000"
 714 0028 03       		.uleb128 0x3
 715 0029 06000000 		.4byte	.LASF2
 716 002d 02       		.byte	0x2
 717 002e D4       		.byte	0xd4
 718 002f 33000000 		.4byte	0x33
 719 0033 04       		.uleb128 0x4
 720 0034 04       		.byte	0x4
 721 0035 07       		.byte	0x7
 722 0036 5D010000 		.4byte	.LASF0
 723 003a 04       		.uleb128 0x4
 724 003b 01       		.byte	0x1
 725 003c 06       		.byte	0x6
 726 003d BD000000 		.4byte	.LASF1
 727 0041 03       		.uleb128 0x3
 728 0042 2A000000 		.4byte	.LASF3
 729 0046 03       		.byte	0x3
 730 0047 1D       		.byte	0x1d
 731 0048 4C000000 		.4byte	0x4c
 732 004c 04       		.uleb128 0x4
 733 004d 01       		.byte	0x1
 734 004e 08       		.byte	0x8
 735 004f 25030000 		.4byte	.LASF4
 736 0053 04       		.uleb128 0x4
 737 0054 02       		.byte	0x2
 738 0055 05       		.byte	0x5
 739 0056 F4010000 		.4byte	.LASF5
 740 005a 03       		.uleb128 0x3
 741 005b 60040000 		.4byte	.LASF6
 742 005f 03       		.byte	0x3
 743 0060 2B       		.byte	0x2b
 744 0061 65000000 		.4byte	0x65
 745 0065 04       		.uleb128 0x4
 746 0066 02       		.byte	0x2
 747 0067 07       		.byte	0x7
 748 0068 A3010000 		.4byte	.LASF7
 749 006c 03       		.uleb128 0x3
 750 006d 87040000 		.4byte	.LASF8
 751 0071 03       		.byte	0x3
 752 0072 3F       		.byte	0x3f
 753 0073 77000000 		.4byte	0x77
 754 0077 04       		.uleb128 0x4
 755 0078 04       		.byte	0x4
 756 0079 05       		.byte	0x5
 757 007a F1000000 		.4byte	.LASF9
 758 007e 03       		.uleb128 0x3
 759 007f 33010000 		.4byte	.LASF10
ARM GAS  /tmp/cc7tOBLQ.s 			page 15


 760 0083 03       		.byte	0x3
 761 0084 41       		.byte	0x41
 762 0085 89000000 		.4byte	0x89
 763 0089 04       		.uleb128 0x4
 764 008a 04       		.byte	0x4
 765 008b 07       		.byte	0x7
 766 008c 42040000 		.4byte	.LASF11
 767 0090 04       		.uleb128 0x4
 768 0091 08       		.byte	0x8
 769 0092 05       		.byte	0x5
 770 0093 AF000000 		.4byte	.LASF12
 771 0097 03       		.uleb128 0x3
 772 0098 74020000 		.4byte	.LASF13
 773 009c 03       		.byte	0x3
 774 009d 5B       		.byte	0x5b
 775 009e A2000000 		.4byte	0xa2
 776 00a2 04       		.uleb128 0x4
 777 00a3 08       		.byte	0x8
 778 00a4 07       		.byte	0x7
 779 00a5 3A000000 		.4byte	.LASF14
 780 00a9 03       		.uleb128 0x3
 781 00aa B2040000 		.4byte	.LASF15
 782 00ae 04       		.byte	0x4
 783 00af 15       		.byte	0x15
 784 00b0 41000000 		.4byte	0x41
 785 00b4 03       		.uleb128 0x3
 786 00b5 D3010000 		.4byte	.LASF16
 787 00b9 04       		.byte	0x4
 788 00ba 21       		.byte	0x21
 789 00bb 5A000000 		.4byte	0x5a
 790 00bf 03       		.uleb128 0x3
 791 00c0 1D030000 		.4byte	.LASF17
 792 00c4 04       		.byte	0x4
 793 00c5 2C       		.byte	0x2c
 794 00c6 6C000000 		.4byte	0x6c
 795 00ca 03       		.uleb128 0x3
 796 00cb 96030000 		.4byte	.LASF18
 797 00cf 04       		.byte	0x4
 798 00d0 2D       		.byte	0x2d
 799 00d1 7E000000 		.4byte	0x7e
 800 00d5 03       		.uleb128 0x3
 801 00d6 1C000000 		.4byte	.LASF19
 802 00da 04       		.byte	0x4
 803 00db 39       		.byte	0x39
 804 00dc 97000000 		.4byte	0x97
 805 00e0 04       		.uleb128 0x4
 806 00e1 01       		.byte	0x1
 807 00e2 02       		.byte	0x2
 808 00e3 17030000 		.4byte	.LASF20
 809 00e7 03       		.uleb128 0x3
 810 00e8 CB010000 		.4byte	.LASF21
 811 00ec 05       		.byte	0x5
 812 00ed 2C       		.byte	0x2c
 813 00ee A9000000 		.4byte	0xa9
 814 00f2 03       		.uleb128 0x3
 815 00f3 FA000000 		.4byte	.LASF22
 816 00f7 05       		.byte	0x5
ARM GAS  /tmp/cc7tOBLQ.s 			page 16


 817 00f8 2D       		.byte	0x2d
 818 00f9 A9000000 		.4byte	0xa9
 819 00fd 03       		.uleb128 0x3
 820 00fe 7F020000 		.4byte	.LASF23
 821 0102 05       		.byte	0x5
 822 0103 2E       		.byte	0x2e
 823 0104 A9000000 		.4byte	0xa9
 824 0108 03       		.uleb128 0x3
 825 0109 F0020000 		.4byte	.LASF24
 826 010d 05       		.byte	0x5
 827 010e 30       		.byte	0x30
 828 010f CA000000 		.4byte	0xca
 829 0113 03       		.uleb128 0x3
 830 0114 C0010000 		.4byte	.LASF25
 831 0118 05       		.byte	0x5
 832 0119 31       		.byte	0x31
 833 011a BF000000 		.4byte	0xbf
 834 011e 03       		.uleb128 0x3
 835 011f E8010000 		.4byte	.LASF26
 836 0123 05       		.byte	0x5
 837 0124 33       		.byte	0x33
 838 0125 CA000000 		.4byte	0xca
 839 0129 03       		.uleb128 0x3
 840 012a 72040000 		.4byte	.LASF27
 841 012e 05       		.byte	0x5
 842 012f 35       		.byte	0x35
 843 0130 CA000000 		.4byte	0xca
 844 0134 03       		.uleb128 0x3
 845 0135 51010000 		.4byte	.LASF28
 846 0139 06       		.byte	0x6
 847 013a 2A       		.byte	0x2a
 848 013b 3F010000 		.4byte	0x13f
 849 013f 05       		.uleb128 0x5
 850 0140 51010000 		.4byte	.LASF28
 851 0144 4C       		.byte	0x4c
 852 0145 07       		.byte	0x7
 853 0146 5E       		.byte	0x5e
 854 0147 3C020000 		.4byte	0x23c
 855 014b 06       		.uleb128 0x6
 856 014c 64030000 		.4byte	.LASF29
 857 0150 07       		.byte	0x7
 858 0151 5F       		.byte	0x5f
 859 0152 5D020000 		.4byte	0x25d
 860 0156 00       		.byte	0
 861 0157 06       		.uleb128 0x6
 862 0158 9B020000 		.4byte	.LASF30
 863 015c 07       		.byte	0x7
 864 015d 61       		.byte	0x61
 865 015e 5D020000 		.4byte	0x25d
 866 0162 04       		.byte	0x4
 867 0163 06       		.uleb128 0x6
 868 0164 8F000000 		.4byte	.LASF31
 869 0168 07       		.byte	0x7
 870 0169 63       		.byte	0x63
 871 016a 08010000 		.4byte	0x108
 872 016e 08       		.byte	0x8
 873 016f 06       		.uleb128 0x6
ARM GAS  /tmp/cc7tOBLQ.s 			page 17


 874 0170 1A050000 		.4byte	.LASF32
 875 0174 07       		.byte	0x7
 876 0175 64       		.byte	0x64
 877 0176 22030000 		.4byte	0x322
 878 017a 0C       		.byte	0xc
 879 017b 06       		.uleb128 0x6
 880 017c 1B010000 		.4byte	.LASF33
 881 0180 07       		.byte	0x7
 882 0181 66       		.byte	0x66
 883 0182 5D020000 		.4byte	0x25d
 884 0186 10       		.byte	0x10
 885 0187 06       		.uleb128 0x6
 886 0188 32020000 		.4byte	.LASF34
 887 018c 07       		.byte	0x7
 888 018d 67       		.byte	0x67
 889 018e 5D020000 		.4byte	0x25d
 890 0192 14       		.byte	0x14
 891 0193 06       		.uleb128 0x6
 892 0194 E3040000 		.4byte	.LASF35
 893 0198 07       		.byte	0x7
 894 0199 6E       		.byte	0x6e
 895 019a CB030000 		.4byte	0x3cb
 896 019e 18       		.byte	0x18
 897 019f 06       		.uleb128 0x6
 898 01a0 61020000 		.4byte	.LASF36
 899 01a4 07       		.byte	0x7
 900 01a5 74       		.byte	0x74
 901 01a6 DD030000 		.4byte	0x3dd
 902 01aa 1C       		.byte	0x1c
 903 01ab 06       		.uleb128 0x6
 904 01ac 48030000 		.4byte	.LASF37
 905 01b0 07       		.byte	0x7
 906 01b1 79       		.byte	0x79
 907 01b2 F2000000 		.4byte	0xf2
 908 01b6 20       		.byte	0x20
 909 01b7 06       		.uleb128 0x6
 910 01b8 6B030000 		.4byte	.LASF38
 911 01bc 07       		.byte	0x7
 912 01bd 7D       		.byte	0x7d
 913 01be E7000000 		.4byte	0xe7
 914 01c2 21       		.byte	0x21
 915 01c3 06       		.uleb128 0x6
 916 01c4 A0040000 		.4byte	.LASF39
 917 01c8 07       		.byte	0x7
 918 01c9 82       		.byte	0x82
 919 01ca FD000000 		.4byte	0xfd
 920 01ce 22       		.byte	0x22
 921 01cf 06       		.uleb128 0x6
 922 01d0 14010000 		.4byte	.LASF40
 923 01d4 07       		.byte	0x7
 924 01d5 8F       		.byte	0x8f
 925 01d6 4F030000 		.4byte	0x34f
 926 01da 24       		.byte	0x24
 927 01db 07       		.uleb128 0x7
 928 01dc 705F7500 		.ascii	"p_u\000"
 929 01e0 07       		.byte	0x7
 930 01e1 B4       		.byte	0xb4
ARM GAS  /tmp/cc7tOBLQ.s 			page 18


 931 01e2 96030000 		.4byte	0x396
 932 01e6 28       		.byte	0x28
 933 01e7 06       		.uleb128 0x6
 934 01e8 20050000 		.4byte	.LASF41
 935 01ec 07       		.byte	0x7
 936 01ed B9       		.byte	0xb9
 937 01ee 83020000 		.4byte	0x283
 938 01f2 2C       		.byte	0x2c
 939 01f3 06       		.uleb128 0x6
 940 01f4 75010000 		.4byte	.LASF42
 941 01f8 07       		.byte	0x7
 942 01f9 BF       		.byte	0xbf
 943 01fa 63020000 		.4byte	0x263
 944 01fe 30       		.byte	0x30
 945 01ff 06       		.uleb128 0x6
 946 0200 F2040000 		.4byte	.LASF43
 947 0204 07       		.byte	0x7
 948 0205 C3       		.byte	0xc3
 949 0206 13010000 		.4byte	0x113
 950 020a 38       		.byte	0x38
 951 020b 06       		.uleb128 0x6
 952 020c 86030000 		.4byte	.LASF44
 953 0210 07       		.byte	0x7
 954 0211 C9       		.byte	0xc9
 955 0212 1E010000 		.4byte	0x11e
 956 0216 3C       		.byte	0x3c
 957 0217 06       		.uleb128 0x6
 958 0218 33030000 		.4byte	.LASF45
 959 021c 07       		.byte	0x7
 960 021d D0       		.byte	0xd0
 961 021e E3030000 		.4byte	0x3e3
 962 0222 40       		.byte	0x40
 963 0223 06       		.uleb128 0x6
 964 0224 7C040000 		.4byte	.LASF46
 965 0228 07       		.byte	0x7
 966 0229 D4       		.byte	0xd4
 967 022a 08010000 		.4byte	0x108
 968 022e 44       		.byte	0x44
 969 022f 06       		.uleb128 0x6
 970 0230 C9000000 		.4byte	.LASF47
 971 0234 07       		.byte	0x7
 972 0235 DA       		.byte	0xda
 973 0236 99020000 		.4byte	0x299
 974 023a 48       		.byte	0x48
 975 023b 00       		.byte	0
 976 023c 08       		.uleb128 0x8
 977 023d 08       		.byte	0x8
 978 023e 06       		.byte	0x6
 979 023f 61       		.byte	0x61
 980 0240 5D020000 		.4byte	0x25d
 981 0244 06       		.uleb128 0x6
 982 0245 64030000 		.4byte	.LASF29
 983 0249 06       		.byte	0x6
 984 024a 62       		.byte	0x62
 985 024b 5D020000 		.4byte	0x25d
 986 024f 00       		.byte	0
 987 0250 06       		.uleb128 0x6
ARM GAS  /tmp/cc7tOBLQ.s 			page 19


 988 0251 9B020000 		.4byte	.LASF30
 989 0255 06       		.byte	0x6
 990 0256 64       		.byte	0x64
 991 0257 5D020000 		.4byte	0x25d
 992 025b 04       		.byte	0x4
 993 025c 00       		.byte	0
 994 025d 09       		.uleb128 0x9
 995 025e 04       		.byte	0x4
 996 025f 34010000 		.4byte	0x134
 997 0263 03       		.uleb128 0x3
 998 0264 4A020000 		.4byte	.LASF48
 999 0268 06       		.byte	0x6
 1000 0269 66       		.byte	0x66
 1001 026a 3C020000 		.4byte	0x23c
 1002 026e 08       		.uleb128 0x8
 1003 026f 04       		.byte	0x4
 1004 0270 06       		.byte	0x6
 1005 0271 6B       		.byte	0x6b
 1006 0272 83020000 		.4byte	0x283
 1007 0276 06       		.uleb128 0x6
 1008 0277 64030000 		.4byte	.LASF29
 1009 027b 06       		.byte	0x6
 1010 027c 6D       		.byte	0x6d
 1011 027d 5D020000 		.4byte	0x25d
 1012 0281 00       		.byte	0
 1013 0282 00       		.byte	0
 1014 0283 03       		.uleb128 0x3
 1015 0284 DC010000 		.4byte	.LASF49
 1016 0288 06       		.byte	0x6
 1017 0289 70       		.byte	0x70
 1018 028a 6E020000 		.4byte	0x26e
 1019 028e 03       		.uleb128 0x3
 1020 028f 3E010000 		.4byte	.LASF50
 1021 0293 08       		.byte	0x8
 1022 0294 E5       		.byte	0xe5
 1023 0295 99020000 		.4byte	0x299
 1024 0299 0A       		.uleb128 0xa
 1025 029a 04       		.byte	0x4
 1026 029b 03       		.uleb128 0x3
 1027 029c FE010000 		.4byte	.LASF51
 1028 02a0 08       		.byte	0x8
 1029 02a1 EB       		.byte	0xeb
 1030 02a2 D5000000 		.4byte	0xd5
 1031 02a6 0B       		.uleb128 0xb
 1032 02a7 99040000 		.4byte	.LASF52
 1033 02ab 24       		.byte	0x24
 1034 02ac 08       		.byte	0x8
 1035 02ad 0C01     		.2byte	0x10c
 1036 02af 22030000 		.4byte	0x322
 1037 02b3 0C       		.uleb128 0xc
 1038 02b4 723400   		.ascii	"r4\000"
 1039 02b7 08       		.byte	0x8
 1040 02b8 1F01     		.2byte	0x11f
 1041 02ba 8E020000 		.4byte	0x28e
 1042 02be 00       		.byte	0
 1043 02bf 0C       		.uleb128 0xc
 1044 02c0 723500   		.ascii	"r5\000"
ARM GAS  /tmp/cc7tOBLQ.s 			page 20


 1045 02c3 08       		.byte	0x8
 1046 02c4 2001     		.2byte	0x120
 1047 02c6 8E020000 		.4byte	0x28e
 1048 02ca 04       		.byte	0x4
 1049 02cb 0C       		.uleb128 0xc
 1050 02cc 723600   		.ascii	"r6\000"
 1051 02cf 08       		.byte	0x8
 1052 02d0 2101     		.2byte	0x121
 1053 02d2 8E020000 		.4byte	0x28e
 1054 02d6 08       		.byte	0x8
 1055 02d7 0C       		.uleb128 0xc
 1056 02d8 723700   		.ascii	"r7\000"
 1057 02db 08       		.byte	0x8
 1058 02dc 2201     		.2byte	0x122
 1059 02de 8E020000 		.4byte	0x28e
 1060 02e2 0C       		.byte	0xc
 1061 02e3 0C       		.uleb128 0xc
 1062 02e4 723800   		.ascii	"r8\000"
 1063 02e7 08       		.byte	0x8
 1064 02e8 2301     		.2byte	0x123
 1065 02ea 8E020000 		.4byte	0x28e
 1066 02ee 10       		.byte	0x10
 1067 02ef 0C       		.uleb128 0xc
 1068 02f0 723900   		.ascii	"r9\000"
 1069 02f3 08       		.byte	0x8
 1070 02f4 2401     		.2byte	0x124
 1071 02f6 8E020000 		.4byte	0x28e
 1072 02fa 14       		.byte	0x14
 1073 02fb 0C       		.uleb128 0xc
 1074 02fc 72313000 		.ascii	"r10\000"
 1075 0300 08       		.byte	0x8
 1076 0301 2501     		.2byte	0x125
 1077 0303 8E020000 		.4byte	0x28e
 1078 0307 18       		.byte	0x18
 1079 0308 0C       		.uleb128 0xc
 1080 0309 72313100 		.ascii	"r11\000"
 1081 030d 08       		.byte	0x8
 1082 030e 2601     		.2byte	0x126
 1083 0310 8E020000 		.4byte	0x28e
 1084 0314 1C       		.byte	0x1c
 1085 0315 0C       		.uleb128 0xc
 1086 0316 6C7200   		.ascii	"lr\000"
 1087 0319 08       		.byte	0x8
 1088 031a 2701     		.2byte	0x127
 1089 031c 8E020000 		.4byte	0x28e
 1090 0320 20       		.byte	0x20
 1091 0321 00       		.byte	0
 1092 0322 0B       		.uleb128 0xb
 1093 0323 91040000 		.4byte	.LASF53
 1094 0327 04       		.byte	0x4
 1095 0328 08       		.byte	0x8
 1096 0329 3101     		.2byte	0x131
 1097 032b 3D030000 		.4byte	0x33d
 1098 032f 0C       		.uleb128 0xc
 1099 0330 72313300 		.ascii	"r13\000"
 1100 0334 08       		.byte	0x8
 1101 0335 3201     		.2byte	0x132
ARM GAS  /tmp/cc7tOBLQ.s 			page 21


 1102 0337 3D030000 		.4byte	0x33d
 1103 033b 00       		.byte	0
 1104 033c 00       		.byte	0
 1105 033d 09       		.uleb128 0x9
 1106 033e 04       		.byte	0x4
 1107 033f A6020000 		.4byte	0x2a6
 1108 0343 0D       		.uleb128 0xd
 1109 0344 CA000000 		.4byte	0xca
 1110 0348 04       		.uleb128 0x4
 1111 0349 04       		.byte	0x4
 1112 034a 07       		.byte	0x7
 1113 034b 1C020000 		.4byte	.LASF54
 1114 034f 0D       		.uleb128 0xd
 1115 0350 29010000 		.4byte	0x129
 1116 0354 05       		.uleb128 0x5
 1117 0355 25020000 		.4byte	.LASF55
 1118 0359 10       		.byte	0x10
 1119 035a 09       		.byte	0x9
 1120 035b 2C       		.byte	0x2c
 1121 035c 85030000 		.4byte	0x385
 1122 0360 06       		.uleb128 0x6
 1123 0361 D1000000 		.4byte	.LASF56
 1124 0365 09       		.byte	0x9
 1125 0366 2D       		.byte	0x2d
 1126 0367 63020000 		.4byte	0x263
 1127 036b 00       		.byte	0
 1128 036c 06       		.uleb128 0x6
 1129 036d 12050000 		.4byte	.LASF57
 1130 0371 09       		.byte	0x9
 1131 0372 2F       		.byte	0x2f
 1132 0373 5D020000 		.4byte	0x25d
 1133 0377 08       		.byte	0x8
 1134 0378 06       		.uleb128 0x6
 1135 0379 6B040000 		.4byte	.LASF58
 1136 037d 09       		.byte	0x9
 1137 037e 31       		.byte	0x31
 1138 037f 85030000 		.4byte	0x385
 1139 0383 0C       		.byte	0xc
 1140 0384 00       		.byte	0
 1141 0385 09       		.uleb128 0x9
 1142 0386 04       		.byte	0x4
 1143 0387 54030000 		.4byte	0x354
 1144 038b 03       		.uleb128 0x3
 1145 038c 25020000 		.4byte	.LASF55
 1146 0390 09       		.byte	0x9
 1147 0391 33       		.byte	0x33
 1148 0392 54030000 		.4byte	0x354
 1149 0396 0E       		.uleb128 0xe
 1150 0397 04       		.byte	0x4
 1151 0398 07       		.byte	0x7
 1152 0399 96       		.byte	0x96
 1153 039a CB030000 		.4byte	0x3cb
 1154 039e 0F       		.uleb128 0xf
 1155 039f 15000000 		.4byte	.LASF59
 1156 03a3 07       		.byte	0x7
 1157 03a4 9D       		.byte	0x9d
 1158 03a5 13010000 		.4byte	0x113
ARM GAS  /tmp/cc7tOBLQ.s 			page 22


 1159 03a9 0F       		.uleb128 0xf
 1160 03aa 5F000000 		.4byte	.LASF60
 1161 03ae 07       		.byte	0x7
 1162 03af A4       		.byte	0xa4
 1163 03b0 13010000 		.4byte	0x113
 1164 03b4 0F       		.uleb128 0xf
 1165 03b5 DC040000 		.4byte	.LASF61
 1166 03b9 07       		.byte	0x7
 1167 03ba AB       		.byte	0xab
 1168 03bb 99020000 		.4byte	0x299
 1169 03bf 0F       		.uleb128 0xf
 1170 03c0 5D030000 		.4byte	.LASF62
 1171 03c4 07       		.byte	0x7
 1172 03c5 B2       		.byte	0xb2
 1173 03c6 1E010000 		.4byte	0x11e
 1174 03ca 00       		.byte	0
 1175 03cb 09       		.uleb128 0x9
 1176 03cc 04       		.byte	0x4
 1177 03cd D1030000 		.4byte	0x3d1
 1178 03d1 10       		.uleb128 0x10
 1179 03d2 D6030000 		.4byte	0x3d6
 1180 03d6 04       		.uleb128 0x4
 1181 03d7 01       		.byte	0x1
 1182 03d8 08       		.byte	0x8
 1183 03d9 54040000 		.4byte	.LASF63
 1184 03dd 09       		.uleb128 0x9
 1185 03de 04       		.byte	0x4
 1186 03df 9B020000 		.4byte	0x29b
 1187 03e3 09       		.uleb128 0x9
 1188 03e4 04       		.byte	0x4
 1189 03e5 8B030000 		.4byte	0x38b
 1190 03e9 09       		.uleb128 0x9
 1191 03ea 04       		.byte	0x4
 1192 03eb A9000000 		.4byte	0xa9
 1193 03ef 09       		.uleb128 0x9
 1194 03f0 04       		.byte	0x4
 1195 03f1 F5030000 		.4byte	0x3f5
 1196 03f5 10       		.uleb128 0x10
 1197 03f6 A9000000 		.4byte	0xa9
 1198 03fa 0D       		.uleb128 0xd
 1199 03fb BF000000 		.4byte	0xbf
 1200 03ff 11       		.uleb128 0x11
 1201 0400 10       		.byte	0x10
 1202 0401 0A       		.byte	0xa
 1203 0402 E501     		.2byte	0x1e5
 1204 0404 3D040000 		.4byte	0x43d
 1205 0408 0C       		.uleb128 0xc
 1206 0409 43435200 		.ascii	"CCR\000"
 1207 040d 0A       		.byte	0xa
 1208 040e E701     		.2byte	0x1e7
 1209 0410 43030000 		.4byte	0x343
 1210 0414 00       		.byte	0
 1211 0415 12       		.uleb128 0x12
 1212 0416 A7040000 		.4byte	.LASF64
 1213 041a 0A       		.byte	0xa
 1214 041b E801     		.2byte	0x1e8
 1215 041d 43030000 		.4byte	0x343
ARM GAS  /tmp/cc7tOBLQ.s 			page 23


 1216 0421 04       		.byte	0x4
 1217 0422 12       		.uleb128 0x12
 1218 0423 70010000 		.4byte	.LASF65
 1219 0427 0A       		.byte	0xa
 1220 0428 E901     		.2byte	0x1e9
 1221 042a 43030000 		.4byte	0x343
 1222 042e 08       		.byte	0x8
 1223 042f 12       		.uleb128 0x12
 1224 0430 AD040000 		.4byte	.LASF66
 1225 0434 0A       		.byte	0xa
 1226 0435 EA01     		.2byte	0x1ea
 1227 0437 43030000 		.4byte	0x343
 1228 043b 0C       		.byte	0xc
 1229 043c 00       		.byte	0
 1230 043d 13       		.uleb128 0x13
 1231 043e 88010000 		.4byte	.LASF67
 1232 0442 0A       		.byte	0xa
 1233 0443 EB01     		.2byte	0x1eb
 1234 0445 FF030000 		.4byte	0x3ff
 1235 0449 11       		.uleb128 0x11
 1236 044a 2C       		.byte	0x2c
 1237 044b 0A       		.byte	0xa
 1238 044c 5C02     		.2byte	0x25c
 1239 044e E2040000 		.4byte	0x4e2
 1240 0452 0C       		.uleb128 0xc
 1241 0453 43523100 		.ascii	"CR1\000"
 1242 0457 0A       		.byte	0xa
 1243 0458 5E02     		.2byte	0x25e
 1244 045a 43030000 		.4byte	0x343
 1245 045e 00       		.byte	0
 1246 045f 0C       		.uleb128 0xc
 1247 0460 43523200 		.ascii	"CR2\000"
 1248 0464 0A       		.byte	0xa
 1249 0465 5F02     		.2byte	0x25f
 1250 0467 43030000 		.4byte	0x343
 1251 046b 04       		.byte	0x4
 1252 046c 12       		.uleb128 0x12
 1253 046d BA040000 		.4byte	.LASF68
 1254 0471 0A       		.byte	0xa
 1255 0472 6002     		.2byte	0x260
 1256 0474 43030000 		.4byte	0x343
 1257 0478 08       		.byte	0x8
 1258 0479 12       		.uleb128 0x12
 1259 047a BF040000 		.4byte	.LASF69
 1260 047e 0A       		.byte	0xa
 1261 047f 6102     		.2byte	0x261
 1262 0481 43030000 		.4byte	0x343
 1263 0485 0C       		.byte	0xc
 1264 0486 12       		.uleb128 0x12
 1265 0487 D9000000 		.4byte	.LASF70
 1266 048b 0A       		.byte	0xa
 1267 048c 6202     		.2byte	0x262
 1268 048e 43030000 		.4byte	0x343
 1269 0492 10       		.byte	0x10
 1270 0493 12       		.uleb128 0x12
 1271 0494 92020000 		.4byte	.LASF71
 1272 0498 0A       		.byte	0xa
ARM GAS  /tmp/cc7tOBLQ.s 			page 24


 1273 0499 6302     		.2byte	0x263
 1274 049b 43030000 		.4byte	0x343
 1275 049f 14       		.byte	0x14
 1276 04a0 0C       		.uleb128 0xc
 1277 04a1 49535200 		.ascii	"ISR\000"
 1278 04a5 0A       		.byte	0xa
 1279 04a6 6402     		.2byte	0x264
 1280 04a8 43030000 		.4byte	0x343
 1281 04ac 18       		.byte	0x18
 1282 04ad 0C       		.uleb128 0xc
 1283 04ae 49435200 		.ascii	"ICR\000"
 1284 04b2 0A       		.byte	0xa
 1285 04b3 6502     		.2byte	0x265
 1286 04b5 43030000 		.4byte	0x343
 1287 04b9 1C       		.byte	0x1c
 1288 04ba 12       		.uleb128 0x12
 1289 04bb 25000000 		.4byte	.LASF72
 1290 04bf 0A       		.byte	0xa
 1291 04c0 6602     		.2byte	0x266
 1292 04c2 43030000 		.4byte	0x343
 1293 04c6 20       		.byte	0x20
 1294 04c7 12       		.uleb128 0x12
 1295 04c8 58010000 		.4byte	.LASF73
 1296 04cc 0A       		.byte	0xa
 1297 04cd 6702     		.2byte	0x267
 1298 04cf 43030000 		.4byte	0x343
 1299 04d3 24       		.byte	0x24
 1300 04d4 12       		.uleb128 0x12
 1301 04d5 C6010000 		.4byte	.LASF74
 1302 04d9 0A       		.byte	0xa
 1303 04da 6802     		.2byte	0x268
 1304 04dc 43030000 		.4byte	0x343
 1305 04e0 28       		.byte	0x28
 1306 04e1 00       		.byte	0
 1307 04e2 13       		.uleb128 0x13
 1308 04e3 F8040000 		.4byte	.LASF75
 1309 04e7 0A       		.byte	0xa
 1310 04e8 6902     		.2byte	0x269
 1311 04ea 49040000 		.4byte	0x449
 1312 04ee 08       		.uleb128 0x8
 1313 04ef 0C       		.byte	0xc
 1314 04f0 0B       		.byte	0xb
 1315 04f1 C1       		.byte	0xc1
 1316 04f2 33050000 		.4byte	0x533
 1317 04f6 06       		.uleb128 0x6
 1318 04f7 73030000 		.4byte	.LASF76
 1319 04fb 0B       		.byte	0xb
 1320 04fc C2       		.byte	0xc2
 1321 04fd 33050000 		.4byte	0x533
 1322 0501 00       		.byte	0
 1323 0502 06       		.uleb128 0x6
 1324 0503 91030000 		.4byte	.LASF77
 1325 0507 0B       		.byte	0xb
 1326 0508 C3       		.byte	0xc3
 1327 0509 39050000 		.4byte	0x539
 1328 050d 04       		.byte	0x4
 1329 050e 06       		.uleb128 0x6
ARM GAS  /tmp/cc7tOBLQ.s 			page 25


 1330 050f 9C010000 		.4byte	.LASF78
 1331 0513 0B       		.byte	0xb
 1332 0514 C4       		.byte	0xc4
 1333 0515 A9000000 		.4byte	0xa9
 1334 0519 08       		.byte	0x8
 1335 051a 06       		.uleb128 0x6
 1336 051b 47010000 		.4byte	.LASF79
 1337 051f 0B       		.byte	0xb
 1338 0520 C6       		.byte	0xc6
 1339 0521 A9000000 		.4byte	0xa9
 1340 0525 09       		.byte	0x9
 1341 0526 06       		.uleb128 0x6
 1342 0527 68000000 		.4byte	.LASF80
 1343 052b 0B       		.byte	0xb
 1344 052c C7       		.byte	0xc7
 1345 052d A9000000 		.4byte	0xa9
 1346 0531 0A       		.byte	0xa
 1347 0532 00       		.byte	0
 1348 0533 09       		.uleb128 0x9
 1349 0534 04       		.byte	0x4
 1350 0535 3D040000 		.4byte	0x43d
 1351 0539 09       		.uleb128 0x9
 1352 053a 04       		.byte	0x4
 1353 053b 43030000 		.4byte	0x343
 1354 053f 03       		.uleb128 0x3
 1355 0540 CF020000 		.4byte	.LASF81
 1356 0544 0B       		.byte	0xb
 1357 0545 C8       		.byte	0xc8
 1358 0546 EE040000 		.4byte	0x4ee
 1359 054a 14       		.uleb128 0x14
 1360 054b 01       		.byte	0x1
 1361 054c 0C       		.byte	0xc
 1362 054d 5A       		.byte	0x5a
 1363 054e 77050000 		.4byte	0x577
 1364 0552 15       		.uleb128 0x15
 1365 0553 3D030000 		.4byte	.LASF82
 1366 0557 00       		.sleb128 0
 1367 0558 15       		.uleb128 0x15
 1368 0559 13020000 		.4byte	.LASF83
 1369 055d 01       		.sleb128 1
 1370 055e 15       		.uleb128 0x15
 1371 055f 09020000 		.4byte	.LASF84
 1372 0563 02       		.sleb128 2
 1373 0564 15       		.uleb128 0x15
 1374 0565 F8020000 		.4byte	.LASF85
 1375 0569 03       		.sleb128 3
 1376 056a 15       		.uleb128 0x15
 1377 056b 34040000 		.4byte	.LASF86
 1378 056f 04       		.sleb128 4
 1379 0570 15       		.uleb128 0x15
 1380 0571 7B030000 		.4byte	.LASF87
 1381 0575 05       		.sleb128 5
 1382 0576 00       		.byte	0
 1383 0577 03       		.uleb128 0x3
 1384 0578 87020000 		.4byte	.LASF88
 1385 057c 0C       		.byte	0xc
 1386 057d 61       		.byte	0x61
ARM GAS  /tmp/cc7tOBLQ.s 			page 26


 1387 057e 4A050000 		.4byte	0x54a
 1388 0582 03       		.uleb128 0x3
 1389 0583 E1000000 		.4byte	.LASF89
 1390 0587 0D       		.byte	0xd
 1391 0588 C3       		.byte	0xc3
 1392 0589 B4000000 		.4byte	0xb4
 1393 058d 03       		.uleb128 0x3
 1394 058e 06030000 		.4byte	.LASF90
 1395 0592 0D       		.byte	0xd
 1396 0593 C8       		.byte	0xc8
 1397 0594 CA000000 		.4byte	0xca
 1398 0598 08       		.uleb128 0x8
 1399 0599 0C       		.byte	0xc
 1400 059a 0D       		.byte	0xd
 1401 059b CD       		.byte	0xcd
 1402 059c C5050000 		.4byte	0x5c5
 1403 05a0 06       		.uleb128 0x6
 1404 05a1 0D000000 		.4byte	.LASF91
 1405 05a5 0D       		.byte	0xd
 1406 05a6 D3       		.byte	0xd3
 1407 05a7 CA000000 		.4byte	0xca
 1408 05ab 00       		.byte	0
 1409 05ac 07       		.uleb128 0x7
 1410 05ad 63723100 		.ascii	"cr1\000"
 1411 05b1 0D       		.byte	0xd
 1412 05b2 D8       		.byte	0xd8
 1413 05b3 CA000000 		.4byte	0xca
 1414 05b7 04       		.byte	0x4
 1415 05b8 07       		.uleb128 0x7
 1416 05b9 63723200 		.ascii	"cr2\000"
 1417 05bd 0D       		.byte	0xd
 1418 05be DD       		.byte	0xdd
 1419 05bf CA000000 		.4byte	0xca
 1420 05c3 08       		.byte	0x8
 1421 05c4 00       		.byte	0
 1422 05c5 03       		.uleb128 0x3
 1423 05c6 0A010000 		.4byte	.LASF92
 1424 05ca 0D       		.byte	0xd
 1425 05cb DE       		.byte	0xde
 1426 05cc 98050000 		.4byte	0x598
 1427 05d0 03       		.uleb128 0x3
 1428 05d1 B6010000 		.4byte	.LASF93
 1429 05d5 0D       		.byte	0xd
 1430 05d6 E3       		.byte	0xe3
 1431 05d7 DB050000 		.4byte	0x5db
 1432 05db 05       		.uleb128 0x5
 1433 05dc B6010000 		.4byte	.LASF93
 1434 05e0 38       		.byte	0x38
 1435 05e1 0D       		.byte	0xd
 1436 05e2 E8       		.byte	0xe8
 1437 05e3 73060000 		.4byte	0x673
 1438 05e7 06       		.uleb128 0x6
 1439 05e8 EB000000 		.4byte	.LASF94
 1440 05ec 0D       		.byte	0xd
 1441 05ed EC       		.byte	0xec
 1442 05ee 77050000 		.4byte	0x577
 1443 05f2 00       		.byte	0
ARM GAS  /tmp/cc7tOBLQ.s 			page 27


 1444 05f3 06       		.uleb128 0x6
 1445 05f4 59040000 		.4byte	.LASF95
 1446 05f8 0D       		.byte	0xd
 1447 05f9 F0       		.byte	0xf0
 1448 05fa 73060000 		.4byte	0x673
 1449 05fe 04       		.byte	0x4
 1450 05ff 06       		.uleb128 0x6
 1451 0600 2B020000 		.4byte	.LASF96
 1452 0604 0D       		.byte	0xd
 1453 0605 F4       		.byte	0xf4
 1454 0606 8D050000 		.4byte	0x58d
 1455 060a 08       		.byte	0x8
 1456 060b 06       		.uleb128 0x6
 1457 060c 11030000 		.4byte	.LASF97
 1458 0610 0D       		.byte	0xd
 1459 0611 FA       		.byte	0xfa
 1460 0612 8B030000 		.4byte	0x38b
 1461 0616 0C       		.byte	0xc
 1462 0617 12       		.uleb128 0x12
 1463 0618 03010000 		.4byte	.LASF98
 1464 061c 0D       		.byte	0xd
 1465 061d 0601     		.2byte	0x106
 1466 061f 5D020000 		.4byte	0x25d
 1467 0623 1C       		.byte	0x1c
 1468 0624 12       		.uleb128 0x12
 1469 0625 51000000 		.4byte	.LASF99
 1470 0629 0D       		.byte	0xd
 1471 062a 0A01     		.2byte	0x10a
 1472 062c 82050000 		.4byte	0x582
 1473 0630 20       		.byte	0x20
 1474 0631 12       		.uleb128 0x12
 1475 0632 23010000 		.4byte	.LASF100
 1476 0636 0D       		.byte	0xd
 1477 0637 0E01     		.2byte	0x10e
 1478 0639 CA000000 		.4byte	0xca
 1479 063d 24       		.byte	0x24
 1480 063e 12       		.uleb128 0x12
 1481 063f 57020000 		.4byte	.LASF101
 1482 0643 0D       		.byte	0xd
 1483 0644 1201     		.2byte	0x112
 1484 0646 CA000000 		.4byte	0xca
 1485 064a 28       		.byte	0x28
 1486 064b 12       		.uleb128 0x12
 1487 064c 00000000 		.4byte	.LASF102
 1488 0650 0D       		.byte	0xd
 1489 0651 1601     		.2byte	0x116
 1490 0653 7E060000 		.4byte	0x67e
 1491 0657 2C       		.byte	0x2c
 1492 0658 12       		.uleb128 0x12
 1493 0659 2D010000 		.4byte	.LASF103
 1494 065d 0D       		.byte	0xd
 1495 065e 1A01     		.2byte	0x11a
 1496 0660 7E060000 		.4byte	0x67e
 1497 0664 30       		.byte	0x30
 1498 0665 0C       		.uleb128 0xc
 1499 0666 69326300 		.ascii	"i2c\000"
 1500 066a 0D       		.byte	0xd
ARM GAS  /tmp/cc7tOBLQ.s 			page 28


 1501 066b 1E01     		.2byte	0x11e
 1502 066d 89060000 		.4byte	0x689
 1503 0671 34       		.byte	0x34
 1504 0672 00       		.byte	0
 1505 0673 09       		.uleb128 0x9
 1506 0674 04       		.byte	0x4
 1507 0675 79060000 		.4byte	0x679
 1508 0679 10       		.uleb128 0x10
 1509 067a C5050000 		.4byte	0x5c5
 1510 067e 09       		.uleb128 0x9
 1511 067f 04       		.byte	0x4
 1512 0680 84060000 		.4byte	0x684
 1513 0684 10       		.uleb128 0x10
 1514 0685 3F050000 		.4byte	0x53f
 1515 0689 09       		.uleb128 0x9
 1516 068a 04       		.byte	0x4
 1517 068b E2040000 		.4byte	0x4e2
 1518 068f 16       		.uleb128 0x16
 1519 0690 EA040000 		.4byte	.LASF120
 1520 0694 01       		.byte	0x1
 1521 0695 47       		.byte	0x47
 1522 0696 00000000 		.4byte	.LFB118
 1523 069a 08000000 		.4byte	.LFE118-.LFB118
 1524 069e 01       		.uleb128 0x1
 1525 069f 9C       		.byte	0x9c
 1526 06a0 17       		.uleb128 0x17
 1527 06a1 04050000 		.4byte	.LASF104
 1528 06a5 01       		.byte	0x1
 1529 06a6 52       		.byte	0x52
 1530 06a7 08000000 		.4byte	.LFB119
 1531 06ab 22000000 		.4byte	.LFE119-.LFB119
 1532 06af 01       		.uleb128 0x1
 1533 06b0 9C       		.byte	0x9c
 1534 06b1 C4060000 		.4byte	0x6c4
 1535 06b5 18       		.uleb128 0x18
 1536 06b6 8A000000 		.4byte	.LASF106
 1537 06ba 01       		.byte	0x1
 1538 06bb 52       		.byte	0x52
 1539 06bc C4060000 		.4byte	0x6c4
 1540 06c0 02       		.uleb128 0x2
 1541 06c1 91       		.byte	0x91
 1542 06c2 74       		.sleb128 -12
 1543 06c3 00       		.byte	0
 1544 06c4 09       		.uleb128 0x9
 1545 06c5 04       		.byte	0x4
 1546 06c6 D0050000 		.4byte	0x5d0
 1547 06ca 17       		.uleb128 0x17
 1548 06cb 56000000 		.4byte	.LASF105
 1549 06cf 01       		.byte	0x1
 1550 06d0 6C       		.byte	0x6c
 1551 06d1 2C000000 		.4byte	.LFB120
 1552 06d5 6C000000 		.4byte	.LFE120-.LFB120
 1553 06d9 01       		.uleb128 0x1
 1554 06da 9C       		.byte	0x9c
 1555 06db 2E070000 		.4byte	0x72e
 1556 06df 18       		.uleb128 0x18
 1557 06e0 8A000000 		.4byte	.LASF106
ARM GAS  /tmp/cc7tOBLQ.s 			page 29


 1558 06e4 01       		.byte	0x1
 1559 06e5 6C       		.byte	0x6c
 1560 06e6 C4060000 		.4byte	0x6c4
 1561 06ea 02       		.uleb128 0x2
 1562 06eb 91       		.byte	0x91
 1563 06ec 74       		.sleb128 -12
 1564 06ed 18       		.uleb128 0x18
 1565 06ee 59040000 		.4byte	.LASF95
 1566 06f2 01       		.byte	0x1
 1567 06f3 6C       		.byte	0x6c
 1568 06f4 73060000 		.4byte	0x673
 1569 06f8 02       		.uleb128 0x2
 1570 06f9 91       		.byte	0x91
 1571 06fa 70       		.sleb128 -16
 1572 06fb 19       		.uleb128 0x19
 1573 06fc 64000000 		.4byte	.LBB2
 1574 0700 06000000 		.4byte	.LBE2-.LBB2
 1575 0704 16070000 		.4byte	0x716
 1576 0708 1A       		.uleb128 0x1a
 1577 0709 746D7000 		.ascii	"tmp\000"
 1578 070d 01       		.byte	0x1
 1579 070e 74       		.byte	0x74
 1580 070f CA000000 		.4byte	0xca
 1581 0713 01       		.uleb128 0x1
 1582 0714 53       		.byte	0x53
 1583 0715 00       		.byte	0
 1584 0716 1B       		.uleb128 0x1b
 1585 0717 84000000 		.4byte	.LBB3
 1586 071b 06000000 		.4byte	.LBE3-.LBB3
 1587 071f 1A       		.uleb128 0x1a
 1588 0720 746D7000 		.ascii	"tmp\000"
 1589 0724 01       		.byte	0x1
 1590 0725 78       		.byte	0x78
 1591 0726 CA000000 		.4byte	0xca
 1592 072a 01       		.uleb128 0x1
 1593 072b 53       		.byte	0x53
 1594 072c 00       		.byte	0
 1595 072d 00       		.byte	0
 1596 072e 17       		.uleb128 0x17
 1597 072f 42020000 		.4byte	.LASF107
 1598 0733 01       		.byte	0x1
 1599 0734 82       		.byte	0x82
 1600 0735 98000000 		.4byte	.LFB121
 1601 0739 60000000 		.4byte	.LFE121-.LFB121
 1602 073d 01       		.uleb128 0x1
 1603 073e 9C       		.byte	0x9c
 1604 073f 84070000 		.4byte	0x784
 1605 0743 18       		.uleb128 0x18
 1606 0744 8A000000 		.4byte	.LASF106
 1607 0748 01       		.byte	0x1
 1608 0749 82       		.byte	0x82
 1609 074a C4060000 		.4byte	0x6c4
 1610 074e 02       		.uleb128 0x2
 1611 074f 91       		.byte	0x91
 1612 0750 74       		.sleb128 -12
 1613 0751 19       		.uleb128 0x19
 1614 0752 C8000000 		.4byte	.LBB4
ARM GAS  /tmp/cc7tOBLQ.s 			page 30


 1615 0756 06000000 		.4byte	.LBE4-.LBB4
 1616 075a 6C070000 		.4byte	0x76c
 1617 075e 1A       		.uleb128 0x1a
 1618 075f 746D7000 		.ascii	"tmp\000"
 1619 0763 01       		.byte	0x1
 1620 0764 8A       		.byte	0x8a
 1621 0765 CA000000 		.4byte	0xca
 1622 0769 01       		.uleb128 0x1
 1623 076a 53       		.byte	0x53
 1624 076b 00       		.byte	0
 1625 076c 1B       		.uleb128 0x1b
 1626 076d E2000000 		.4byte	.LBB5
 1627 0771 06000000 		.4byte	.LBE5-.LBB5
 1628 0775 1A       		.uleb128 0x1a
 1629 0776 746D7000 		.ascii	"tmp\000"
 1630 077a 01       		.byte	0x1
 1631 077b 8D       		.byte	0x8d
 1632 077c CA000000 		.4byte	0xca
 1633 0780 01       		.uleb128 0x1
 1634 0781 53       		.byte	0x53
 1635 0782 00       		.byte	0
 1636 0783 00       		.byte	0
 1637 0784 1C       		.uleb128 0x1c
 1638 0785 50030000 		.4byte	.LASF108
 1639 0789 01       		.byte	0x1
 1640 078a 98       		.byte	0x98
 1641 078b 8D050000 		.4byte	0x58d
 1642 078f F8000000 		.4byte	.LFB122
 1643 0793 24000000 		.4byte	.LFE122-.LFB122
 1644 0797 01       		.uleb128 0x1
 1645 0798 9C       		.byte	0x9c
 1646 0799 AC070000 		.4byte	0x7ac
 1647 079d 18       		.uleb128 0x18
 1648 079e 8A000000 		.4byte	.LASF106
 1649 07a2 01       		.byte	0x1
 1650 07a3 98       		.byte	0x98
 1651 07a4 C4060000 		.4byte	0x6c4
 1652 07a8 02       		.uleb128 0x2
 1653 07a9 91       		.byte	0x91
 1654 07aa 74       		.sleb128 -12
 1655 07ab 00       		.byte	0
 1656 07ac 1C       		.uleb128 0x1c
 1657 07ad 96000000 		.4byte	.LASF109
 1658 07b1 01       		.byte	0x1
 1659 07b2 B9       		.byte	0xb9
 1660 07b3 13010000 		.4byte	0x113
 1661 07b7 1C010000 		.4byte	.LFB123
 1662 07bb BC000000 		.4byte	.LFE123-.LFB123
 1663 07bf 01       		.uleb128 0x1
 1664 07c0 9C       		.byte	0x9c
 1665 07c1 68080000 		.4byte	0x868
 1666 07c5 18       		.uleb128 0x18
 1667 07c6 8A000000 		.4byte	.LASF106
 1668 07ca 01       		.byte	0x1
 1669 07cb B9       		.byte	0xb9
 1670 07cc C4060000 		.4byte	0x6c4
 1671 07d0 02       		.uleb128 0x2
ARM GAS  /tmp/cc7tOBLQ.s 			page 31


 1672 07d1 91       		.byte	0x91
 1673 07d2 6C       		.sleb128 -20
 1674 07d3 18       		.uleb128 0x18
 1675 07d4 51000000 		.4byte	.LASF99
 1676 07d8 01       		.byte	0x1
 1677 07d9 BA       		.byte	0xba
 1678 07da 82050000 		.4byte	0x582
 1679 07de 02       		.uleb128 0x2
 1680 07df 91       		.byte	0x91
 1681 07e0 6A       		.sleb128 -22
 1682 07e1 18       		.uleb128 0x18
 1683 07e2 6A010000 		.4byte	.LASF110
 1684 07e6 01       		.byte	0x1
 1685 07e7 BB       		.byte	0xbb
 1686 07e8 EF030000 		.4byte	0x3ef
 1687 07ec 02       		.uleb128 0x2
 1688 07ed 91       		.byte	0x91
 1689 07ee 64       		.sleb128 -28
 1690 07ef 18       		.uleb128 0x18
 1691 07f0 6C020000 		.4byte	.LASF111
 1692 07f4 01       		.byte	0x1
 1693 07f5 BC       		.byte	0xbc
 1694 07f6 28000000 		.4byte	0x28
 1695 07fa 02       		.uleb128 0x2
 1696 07fb 91       		.byte	0x91
 1697 07fc 60       		.sleb128 -32
 1698 07fd 18       		.uleb128 0x18
 1699 07fe 34000000 		.4byte	.LASF112
 1700 0802 01       		.byte	0x1
 1701 0803 BD       		.byte	0xbd
 1702 0804 E9030000 		.4byte	0x3e9
 1703 0808 02       		.uleb128 0x2
 1704 0809 91       		.byte	0x91
 1705 080a 00       		.sleb128 0
 1706 080b 18       		.uleb128 0x18
 1707 080c 3A020000 		.4byte	.LASF113
 1708 0810 01       		.byte	0x1
 1709 0811 BE       		.byte	0xbe
 1710 0812 28000000 		.4byte	0x28
 1711 0816 02       		.uleb128 0x2
 1712 0817 91       		.byte	0x91
 1713 0818 04       		.sleb128 4
 1714 0819 18       		.uleb128 0x18
 1715 081a 80010000 		.4byte	.LASF114
 1716 081e 01       		.byte	0x1
 1717 081f BF       		.byte	0xbf
 1718 0820 29010000 		.4byte	0x129
 1719 0824 02       		.uleb128 0x2
 1720 0825 91       		.byte	0x91
 1721 0826 08       		.sleb128 8
 1722 0827 1D       		.uleb128 0x1d
 1723 0828 15000000 		.4byte	.LASF59
 1724 082c 01       		.byte	0x1
 1725 082d C0       		.byte	0xc0
 1726 082e 13010000 		.4byte	0x113
 1727 0832 02       		.uleb128 0x2
 1728 0833 91       		.byte	0x91
ARM GAS  /tmp/cc7tOBLQ.s 			page 32


 1729 0834 74       		.sleb128 -12
 1730 0835 19       		.uleb128 0x19
 1731 0836 72010000 		.4byte	.LBB6
 1732 083a 06000000 		.4byte	.LBE6-.LBB6
 1733 083e 50080000 		.4byte	0x850
 1734 0842 1A       		.uleb128 0x1a
 1735 0843 746D7000 		.ascii	"tmp\000"
 1736 0847 01       		.byte	0x1
 1737 0848 CB       		.byte	0xcb
 1738 0849 CA000000 		.4byte	0xca
 1739 084d 01       		.uleb128 0x1
 1740 084e 53       		.byte	0x53
 1741 084f 00       		.byte	0
 1742 0850 1B       		.uleb128 0x1b
 1743 0851 C0010000 		.4byte	.LBB7
 1744 0855 06000000 		.4byte	.LBE7-.LBB7
 1745 0859 1A       		.uleb128 0x1a
 1746 085a 746D7000 		.ascii	"tmp\000"
 1747 085e 01       		.byte	0x1
 1748 085f D4       		.byte	0xd4
 1749 0860 CA000000 		.4byte	0xca
 1750 0864 01       		.uleb128 0x1
 1751 0865 53       		.byte	0x53
 1752 0866 00       		.byte	0
 1753 0867 00       		.byte	0
 1754 0868 1C       		.uleb128 0x1c
 1755 0869 C4040000 		.4byte	.LASF115
 1756 086d 01       		.byte	0x1
 1757 086e EC       		.byte	0xec
 1758 086f 13010000 		.4byte	0x113
 1759 0873 D8010000 		.4byte	.LFB124
 1760 0877 A4000000 		.4byte	.LFE124-.LFB124
 1761 087b 01       		.uleb128 0x1
 1762 087c 9C       		.byte	0x9c
 1763 087d 09090000 		.4byte	0x909
 1764 0881 18       		.uleb128 0x18
 1765 0882 8A000000 		.4byte	.LASF106
 1766 0886 01       		.byte	0x1
 1767 0887 EC       		.byte	0xec
 1768 0888 C4060000 		.4byte	0x6c4
 1769 088c 02       		.uleb128 0x2
 1770 088d 91       		.byte	0x91
 1771 088e 6C       		.sleb128 -20
 1772 088f 18       		.uleb128 0x18
 1773 0890 51000000 		.4byte	.LASF99
 1774 0894 01       		.byte	0x1
 1775 0895 ED       		.byte	0xed
 1776 0896 82050000 		.4byte	0x582
 1777 089a 02       		.uleb128 0x2
 1778 089b 91       		.byte	0x91
 1779 089c 6A       		.sleb128 -22
 1780 089d 18       		.uleb128 0x18
 1781 089e 34000000 		.4byte	.LASF112
 1782 08a2 01       		.byte	0x1
 1783 08a3 EE       		.byte	0xee
 1784 08a4 E9030000 		.4byte	0x3e9
 1785 08a8 02       		.uleb128 0x2
ARM GAS  /tmp/cc7tOBLQ.s 			page 33


 1786 08a9 91       		.byte	0x91
 1787 08aa 64       		.sleb128 -28
 1788 08ab 18       		.uleb128 0x18
 1789 08ac 3A020000 		.4byte	.LASF113
 1790 08b0 01       		.byte	0x1
 1791 08b1 EF       		.byte	0xef
 1792 08b2 28000000 		.4byte	0x28
 1793 08b6 02       		.uleb128 0x2
 1794 08b7 91       		.byte	0x91
 1795 08b8 60       		.sleb128 -32
 1796 08b9 18       		.uleb128 0x18
 1797 08ba 80010000 		.4byte	.LASF114
 1798 08be 01       		.byte	0x1
 1799 08bf F0       		.byte	0xf0
 1800 08c0 29010000 		.4byte	0x129
 1801 08c4 02       		.uleb128 0x2
 1802 08c5 91       		.byte	0x91
 1803 08c6 00       		.sleb128 0
 1804 08c7 1D       		.uleb128 0x1d
 1805 08c8 15000000 		.4byte	.LASF59
 1806 08cc 01       		.byte	0x1
 1807 08cd F2       		.byte	0xf2
 1808 08ce 13010000 		.4byte	0x113
 1809 08d2 02       		.uleb128 0x2
 1810 08d3 91       		.byte	0x91
 1811 08d4 74       		.sleb128 -12
 1812 08d5 19       		.uleb128 0x19
 1813 08d6 1C020000 		.4byte	.LBB8
 1814 08da 06000000 		.4byte	.LBE8-.LBB8
 1815 08de F0080000 		.4byte	0x8f0
 1816 08e2 1A       		.uleb128 0x1a
 1817 08e3 746D7000 		.ascii	"tmp\000"
 1818 08e7 01       		.byte	0x1
 1819 08e8 FC       		.byte	0xfc
 1820 08e9 CA000000 		.4byte	0xca
 1821 08ed 01       		.uleb128 0x1
 1822 08ee 53       		.byte	0x53
 1823 08ef 00       		.byte	0
 1824 08f0 1B       		.uleb128 0x1b
 1825 08f1 62020000 		.4byte	.LBB9
 1826 08f5 06000000 		.4byte	.LBE9-.LBB9
 1827 08f9 1E       		.uleb128 0x1e
 1828 08fa 746D7000 		.ascii	"tmp\000"
 1829 08fe 01       		.byte	0x1
 1830 08ff 0401     		.2byte	0x104
 1831 0901 CA000000 		.4byte	0xca
 1832 0905 01       		.uleb128 0x1
 1833 0906 53       		.byte	0x53
 1834 0907 00       		.byte	0
 1835 0908 00       		.byte	0
 1836 0909 1F       		.uleb128 0x1f
 1837 090a E2020000 		.4byte	.LASF116
 1838 090e 01       		.byte	0x1
 1839 090f 1401     		.2byte	0x114
 1840 0911 7C020000 		.4byte	.LFB125
 1841 0915 28000000 		.4byte	.LFE125-.LFB125
 1842 0919 01       		.uleb128 0x1
ARM GAS  /tmp/cc7tOBLQ.s 			page 34


 1843 091a 9C       		.byte	0x9c
 1844 091b 2F090000 		.4byte	0x92f
 1845 091f 20       		.uleb128 0x20
 1846 0920 8A000000 		.4byte	.LASF106
 1847 0924 01       		.byte	0x1
 1848 0925 1401     		.2byte	0x114
 1849 0927 C4060000 		.4byte	0x6c4
 1850 092b 02       		.uleb128 0x2
 1851 092c 91       		.byte	0x91
 1852 092d 74       		.sleb128 -12
 1853 092e 00       		.byte	0
 1854 092f 1F       		.uleb128 0x1f
 1855 0930 6F000000 		.4byte	.LASF117
 1856 0934 01       		.byte	0x1
 1857 0935 2801     		.2byte	0x128
 1858 0937 A4020000 		.4byte	.LFB126
 1859 093b 20000000 		.4byte	.LFE126-.LFB126
 1860 093f 01       		.uleb128 0x1
 1861 0940 9C       		.byte	0x9c
 1862 0941 55090000 		.4byte	0x955
 1863 0945 20       		.uleb128 0x20
 1864 0946 8A000000 		.4byte	.LASF106
 1865 094a 01       		.byte	0x1
 1866 094b 2801     		.2byte	0x128
 1867 094d C4060000 		.4byte	0x6c4
 1868 0951 02       		.uleb128 0x2
 1869 0952 91       		.byte	0x91
 1870 0953 74       		.sleb128 -12
 1871 0954 00       		.byte	0
 1872 0955 21       		.uleb128 0x21
 1873 0956 7D000000 		.4byte	.LASF121
 1874 095a 0E       		.byte	0xe
 1875 095b 9806     		.2byte	0x698
 1876 095d FA030000 		.4byte	0x3fa
 1877 0961 00       		.byte	0
 1878              		.section	.debug_abbrev,"",%progbits
 1879              	.Ldebug_abbrev0:
 1880 0000 01       		.uleb128 0x1
 1881 0001 11       		.uleb128 0x11
 1882 0002 01       		.byte	0x1
 1883 0003 25       		.uleb128 0x25
 1884 0004 0E       		.uleb128 0xe
 1885 0005 13       		.uleb128 0x13
 1886 0006 0B       		.uleb128 0xb
 1887 0007 03       		.uleb128 0x3
 1888 0008 0E       		.uleb128 0xe
 1889 0009 11       		.uleb128 0x11
 1890 000a 01       		.uleb128 0x1
 1891 000b 12       		.uleb128 0x12
 1892 000c 06       		.uleb128 0x6
 1893 000d 10       		.uleb128 0x10
 1894 000e 17       		.uleb128 0x17
 1895 000f 00       		.byte	0
 1896 0010 00       		.byte	0
 1897 0011 02       		.uleb128 0x2
 1898 0012 24       		.uleb128 0x24
 1899 0013 00       		.byte	0
ARM GAS  /tmp/cc7tOBLQ.s 			page 35


 1900 0014 0B       		.uleb128 0xb
 1901 0015 0B       		.uleb128 0xb
 1902 0016 3E       		.uleb128 0x3e
 1903 0017 0B       		.uleb128 0xb
 1904 0018 03       		.uleb128 0x3
 1905 0019 08       		.uleb128 0x8
 1906 001a 00       		.byte	0
 1907 001b 00       		.byte	0
 1908 001c 03       		.uleb128 0x3
 1909 001d 16       		.uleb128 0x16
 1910 001e 00       		.byte	0
 1911 001f 03       		.uleb128 0x3
 1912 0020 0E       		.uleb128 0xe
 1913 0021 3A       		.uleb128 0x3a
 1914 0022 0B       		.uleb128 0xb
 1915 0023 3B       		.uleb128 0x3b
 1916 0024 0B       		.uleb128 0xb
 1917 0025 49       		.uleb128 0x49
 1918 0026 13       		.uleb128 0x13
 1919 0027 00       		.byte	0
 1920 0028 00       		.byte	0
 1921 0029 04       		.uleb128 0x4
 1922 002a 24       		.uleb128 0x24
 1923 002b 00       		.byte	0
 1924 002c 0B       		.uleb128 0xb
 1925 002d 0B       		.uleb128 0xb
 1926 002e 3E       		.uleb128 0x3e
 1927 002f 0B       		.uleb128 0xb
 1928 0030 03       		.uleb128 0x3
 1929 0031 0E       		.uleb128 0xe
 1930 0032 00       		.byte	0
 1931 0033 00       		.byte	0
 1932 0034 05       		.uleb128 0x5
 1933 0035 13       		.uleb128 0x13
 1934 0036 01       		.byte	0x1
 1935 0037 03       		.uleb128 0x3
 1936 0038 0E       		.uleb128 0xe
 1937 0039 0B       		.uleb128 0xb
 1938 003a 0B       		.uleb128 0xb
 1939 003b 3A       		.uleb128 0x3a
 1940 003c 0B       		.uleb128 0xb
 1941 003d 3B       		.uleb128 0x3b
 1942 003e 0B       		.uleb128 0xb
 1943 003f 01       		.uleb128 0x1
 1944 0040 13       		.uleb128 0x13
 1945 0041 00       		.byte	0
 1946 0042 00       		.byte	0
 1947 0043 06       		.uleb128 0x6
 1948 0044 0D       		.uleb128 0xd
 1949 0045 00       		.byte	0
 1950 0046 03       		.uleb128 0x3
 1951 0047 0E       		.uleb128 0xe
 1952 0048 3A       		.uleb128 0x3a
 1953 0049 0B       		.uleb128 0xb
 1954 004a 3B       		.uleb128 0x3b
 1955 004b 0B       		.uleb128 0xb
 1956 004c 49       		.uleb128 0x49
ARM GAS  /tmp/cc7tOBLQ.s 			page 36


 1957 004d 13       		.uleb128 0x13
 1958 004e 38       		.uleb128 0x38
 1959 004f 0B       		.uleb128 0xb
 1960 0050 00       		.byte	0
 1961 0051 00       		.byte	0
 1962 0052 07       		.uleb128 0x7
 1963 0053 0D       		.uleb128 0xd
 1964 0054 00       		.byte	0
 1965 0055 03       		.uleb128 0x3
 1966 0056 08       		.uleb128 0x8
 1967 0057 3A       		.uleb128 0x3a
 1968 0058 0B       		.uleb128 0xb
 1969 0059 3B       		.uleb128 0x3b
 1970 005a 0B       		.uleb128 0xb
 1971 005b 49       		.uleb128 0x49
 1972 005c 13       		.uleb128 0x13
 1973 005d 38       		.uleb128 0x38
 1974 005e 0B       		.uleb128 0xb
 1975 005f 00       		.byte	0
 1976 0060 00       		.byte	0
 1977 0061 08       		.uleb128 0x8
 1978 0062 13       		.uleb128 0x13
 1979 0063 01       		.byte	0x1
 1980 0064 0B       		.uleb128 0xb
 1981 0065 0B       		.uleb128 0xb
 1982 0066 3A       		.uleb128 0x3a
 1983 0067 0B       		.uleb128 0xb
 1984 0068 3B       		.uleb128 0x3b
 1985 0069 0B       		.uleb128 0xb
 1986 006a 01       		.uleb128 0x1
 1987 006b 13       		.uleb128 0x13
 1988 006c 00       		.byte	0
 1989 006d 00       		.byte	0
 1990 006e 09       		.uleb128 0x9
 1991 006f 0F       		.uleb128 0xf
 1992 0070 00       		.byte	0
 1993 0071 0B       		.uleb128 0xb
 1994 0072 0B       		.uleb128 0xb
 1995 0073 49       		.uleb128 0x49
 1996 0074 13       		.uleb128 0x13
 1997 0075 00       		.byte	0
 1998 0076 00       		.byte	0
 1999 0077 0A       		.uleb128 0xa
 2000 0078 0F       		.uleb128 0xf
 2001 0079 00       		.byte	0
 2002 007a 0B       		.uleb128 0xb
 2003 007b 0B       		.uleb128 0xb
 2004 007c 00       		.byte	0
 2005 007d 00       		.byte	0
 2006 007e 0B       		.uleb128 0xb
 2007 007f 13       		.uleb128 0x13
 2008 0080 01       		.byte	0x1
 2009 0081 03       		.uleb128 0x3
 2010 0082 0E       		.uleb128 0xe
 2011 0083 0B       		.uleb128 0xb
 2012 0084 0B       		.uleb128 0xb
 2013 0085 3A       		.uleb128 0x3a
ARM GAS  /tmp/cc7tOBLQ.s 			page 37


 2014 0086 0B       		.uleb128 0xb
 2015 0087 3B       		.uleb128 0x3b
 2016 0088 05       		.uleb128 0x5
 2017 0089 01       		.uleb128 0x1
 2018 008a 13       		.uleb128 0x13
 2019 008b 00       		.byte	0
 2020 008c 00       		.byte	0
 2021 008d 0C       		.uleb128 0xc
 2022 008e 0D       		.uleb128 0xd
 2023 008f 00       		.byte	0
 2024 0090 03       		.uleb128 0x3
 2025 0091 08       		.uleb128 0x8
 2026 0092 3A       		.uleb128 0x3a
 2027 0093 0B       		.uleb128 0xb
 2028 0094 3B       		.uleb128 0x3b
 2029 0095 05       		.uleb128 0x5
 2030 0096 49       		.uleb128 0x49
 2031 0097 13       		.uleb128 0x13
 2032 0098 38       		.uleb128 0x38
 2033 0099 0B       		.uleb128 0xb
 2034 009a 00       		.byte	0
 2035 009b 00       		.byte	0
 2036 009c 0D       		.uleb128 0xd
 2037 009d 35       		.uleb128 0x35
 2038 009e 00       		.byte	0
 2039 009f 49       		.uleb128 0x49
 2040 00a0 13       		.uleb128 0x13
 2041 00a1 00       		.byte	0
 2042 00a2 00       		.byte	0
 2043 00a3 0E       		.uleb128 0xe
 2044 00a4 17       		.uleb128 0x17
 2045 00a5 01       		.byte	0x1
 2046 00a6 0B       		.uleb128 0xb
 2047 00a7 0B       		.uleb128 0xb
 2048 00a8 3A       		.uleb128 0x3a
 2049 00a9 0B       		.uleb128 0xb
 2050 00aa 3B       		.uleb128 0x3b
 2051 00ab 0B       		.uleb128 0xb
 2052 00ac 01       		.uleb128 0x1
 2053 00ad 13       		.uleb128 0x13
 2054 00ae 00       		.byte	0
 2055 00af 00       		.byte	0
 2056 00b0 0F       		.uleb128 0xf
 2057 00b1 0D       		.uleb128 0xd
 2058 00b2 00       		.byte	0
 2059 00b3 03       		.uleb128 0x3
 2060 00b4 0E       		.uleb128 0xe
 2061 00b5 3A       		.uleb128 0x3a
 2062 00b6 0B       		.uleb128 0xb
 2063 00b7 3B       		.uleb128 0x3b
 2064 00b8 0B       		.uleb128 0xb
 2065 00b9 49       		.uleb128 0x49
 2066 00ba 13       		.uleb128 0x13
 2067 00bb 00       		.byte	0
 2068 00bc 00       		.byte	0
 2069 00bd 10       		.uleb128 0x10
 2070 00be 26       		.uleb128 0x26
ARM GAS  /tmp/cc7tOBLQ.s 			page 38


 2071 00bf 00       		.byte	0
 2072 00c0 49       		.uleb128 0x49
 2073 00c1 13       		.uleb128 0x13
 2074 00c2 00       		.byte	0
 2075 00c3 00       		.byte	0
 2076 00c4 11       		.uleb128 0x11
 2077 00c5 13       		.uleb128 0x13
 2078 00c6 01       		.byte	0x1
 2079 00c7 0B       		.uleb128 0xb
 2080 00c8 0B       		.uleb128 0xb
 2081 00c9 3A       		.uleb128 0x3a
 2082 00ca 0B       		.uleb128 0xb
 2083 00cb 3B       		.uleb128 0x3b
 2084 00cc 05       		.uleb128 0x5
 2085 00cd 01       		.uleb128 0x1
 2086 00ce 13       		.uleb128 0x13
 2087 00cf 00       		.byte	0
 2088 00d0 00       		.byte	0
 2089 00d1 12       		.uleb128 0x12
 2090 00d2 0D       		.uleb128 0xd
 2091 00d3 00       		.byte	0
 2092 00d4 03       		.uleb128 0x3
 2093 00d5 0E       		.uleb128 0xe
 2094 00d6 3A       		.uleb128 0x3a
 2095 00d7 0B       		.uleb128 0xb
 2096 00d8 3B       		.uleb128 0x3b
 2097 00d9 05       		.uleb128 0x5
 2098 00da 49       		.uleb128 0x49
 2099 00db 13       		.uleb128 0x13
 2100 00dc 38       		.uleb128 0x38
 2101 00dd 0B       		.uleb128 0xb
 2102 00de 00       		.byte	0
 2103 00df 00       		.byte	0
 2104 00e0 13       		.uleb128 0x13
 2105 00e1 16       		.uleb128 0x16
 2106 00e2 00       		.byte	0
 2107 00e3 03       		.uleb128 0x3
 2108 00e4 0E       		.uleb128 0xe
 2109 00e5 3A       		.uleb128 0x3a
 2110 00e6 0B       		.uleb128 0xb
 2111 00e7 3B       		.uleb128 0x3b
 2112 00e8 05       		.uleb128 0x5
 2113 00e9 49       		.uleb128 0x49
 2114 00ea 13       		.uleb128 0x13
 2115 00eb 00       		.byte	0
 2116 00ec 00       		.byte	0
 2117 00ed 14       		.uleb128 0x14
 2118 00ee 04       		.uleb128 0x4
 2119 00ef 01       		.byte	0x1
 2120 00f0 0B       		.uleb128 0xb
 2121 00f1 0B       		.uleb128 0xb
 2122 00f2 3A       		.uleb128 0x3a
 2123 00f3 0B       		.uleb128 0xb
 2124 00f4 3B       		.uleb128 0x3b
 2125 00f5 0B       		.uleb128 0xb
 2126 00f6 01       		.uleb128 0x1
 2127 00f7 13       		.uleb128 0x13
ARM GAS  /tmp/cc7tOBLQ.s 			page 39


 2128 00f8 00       		.byte	0
 2129 00f9 00       		.byte	0
 2130 00fa 15       		.uleb128 0x15
 2131 00fb 28       		.uleb128 0x28
 2132 00fc 00       		.byte	0
 2133 00fd 03       		.uleb128 0x3
 2134 00fe 0E       		.uleb128 0xe
 2135 00ff 1C       		.uleb128 0x1c
 2136 0100 0D       		.uleb128 0xd
 2137 0101 00       		.byte	0
 2138 0102 00       		.byte	0
 2139 0103 16       		.uleb128 0x16
 2140 0104 2E       		.uleb128 0x2e
 2141 0105 00       		.byte	0
 2142 0106 3F       		.uleb128 0x3f
 2143 0107 19       		.uleb128 0x19
 2144 0108 03       		.uleb128 0x3
 2145 0109 0E       		.uleb128 0xe
 2146 010a 3A       		.uleb128 0x3a
 2147 010b 0B       		.uleb128 0xb
 2148 010c 3B       		.uleb128 0x3b
 2149 010d 0B       		.uleb128 0xb
 2150 010e 27       		.uleb128 0x27
 2151 010f 19       		.uleb128 0x19
 2152 0110 11       		.uleb128 0x11
 2153 0111 01       		.uleb128 0x1
 2154 0112 12       		.uleb128 0x12
 2155 0113 06       		.uleb128 0x6
 2156 0114 40       		.uleb128 0x40
 2157 0115 18       		.uleb128 0x18
 2158 0116 9642     		.uleb128 0x2116
 2159 0118 19       		.uleb128 0x19
 2160 0119 00       		.byte	0
 2161 011a 00       		.byte	0
 2162 011b 17       		.uleb128 0x17
 2163 011c 2E       		.uleb128 0x2e
 2164 011d 01       		.byte	0x1
 2165 011e 3F       		.uleb128 0x3f
 2166 011f 19       		.uleb128 0x19
 2167 0120 03       		.uleb128 0x3
 2168 0121 0E       		.uleb128 0xe
 2169 0122 3A       		.uleb128 0x3a
 2170 0123 0B       		.uleb128 0xb
 2171 0124 3B       		.uleb128 0x3b
 2172 0125 0B       		.uleb128 0xb
 2173 0126 27       		.uleb128 0x27
 2174 0127 19       		.uleb128 0x19
 2175 0128 11       		.uleb128 0x11
 2176 0129 01       		.uleb128 0x1
 2177 012a 12       		.uleb128 0x12
 2178 012b 06       		.uleb128 0x6
 2179 012c 40       		.uleb128 0x40
 2180 012d 18       		.uleb128 0x18
 2181 012e 9642     		.uleb128 0x2116
 2182 0130 19       		.uleb128 0x19
 2183 0131 01       		.uleb128 0x1
 2184 0132 13       		.uleb128 0x13
ARM GAS  /tmp/cc7tOBLQ.s 			page 40


 2185 0133 00       		.byte	0
 2186 0134 00       		.byte	0
 2187 0135 18       		.uleb128 0x18
 2188 0136 05       		.uleb128 0x5
 2189 0137 00       		.byte	0
 2190 0138 03       		.uleb128 0x3
 2191 0139 0E       		.uleb128 0xe
 2192 013a 3A       		.uleb128 0x3a
 2193 013b 0B       		.uleb128 0xb
 2194 013c 3B       		.uleb128 0x3b
 2195 013d 0B       		.uleb128 0xb
 2196 013e 49       		.uleb128 0x49
 2197 013f 13       		.uleb128 0x13
 2198 0140 02       		.uleb128 0x2
 2199 0141 18       		.uleb128 0x18
 2200 0142 00       		.byte	0
 2201 0143 00       		.byte	0
 2202 0144 19       		.uleb128 0x19
 2203 0145 0B       		.uleb128 0xb
 2204 0146 01       		.byte	0x1
 2205 0147 11       		.uleb128 0x11
 2206 0148 01       		.uleb128 0x1
 2207 0149 12       		.uleb128 0x12
 2208 014a 06       		.uleb128 0x6
 2209 014b 01       		.uleb128 0x1
 2210 014c 13       		.uleb128 0x13
 2211 014d 00       		.byte	0
 2212 014e 00       		.byte	0
 2213 014f 1A       		.uleb128 0x1a
 2214 0150 34       		.uleb128 0x34
 2215 0151 00       		.byte	0
 2216 0152 03       		.uleb128 0x3
 2217 0153 08       		.uleb128 0x8
 2218 0154 3A       		.uleb128 0x3a
 2219 0155 0B       		.uleb128 0xb
 2220 0156 3B       		.uleb128 0x3b
 2221 0157 0B       		.uleb128 0xb
 2222 0158 49       		.uleb128 0x49
 2223 0159 13       		.uleb128 0x13
 2224 015a 02       		.uleb128 0x2
 2225 015b 18       		.uleb128 0x18
 2226 015c 00       		.byte	0
 2227 015d 00       		.byte	0
 2228 015e 1B       		.uleb128 0x1b
 2229 015f 0B       		.uleb128 0xb
 2230 0160 01       		.byte	0x1
 2231 0161 11       		.uleb128 0x11
 2232 0162 01       		.uleb128 0x1
 2233 0163 12       		.uleb128 0x12
 2234 0164 06       		.uleb128 0x6
 2235 0165 00       		.byte	0
 2236 0166 00       		.byte	0
 2237 0167 1C       		.uleb128 0x1c
 2238 0168 2E       		.uleb128 0x2e
 2239 0169 01       		.byte	0x1
 2240 016a 3F       		.uleb128 0x3f
 2241 016b 19       		.uleb128 0x19
ARM GAS  /tmp/cc7tOBLQ.s 			page 41


 2242 016c 03       		.uleb128 0x3
 2243 016d 0E       		.uleb128 0xe
 2244 016e 3A       		.uleb128 0x3a
 2245 016f 0B       		.uleb128 0xb
 2246 0170 3B       		.uleb128 0x3b
 2247 0171 0B       		.uleb128 0xb
 2248 0172 27       		.uleb128 0x27
 2249 0173 19       		.uleb128 0x19
 2250 0174 49       		.uleb128 0x49
 2251 0175 13       		.uleb128 0x13
 2252 0176 11       		.uleb128 0x11
 2253 0177 01       		.uleb128 0x1
 2254 0178 12       		.uleb128 0x12
 2255 0179 06       		.uleb128 0x6
 2256 017a 40       		.uleb128 0x40
 2257 017b 18       		.uleb128 0x18
 2258 017c 9642     		.uleb128 0x2116
 2259 017e 19       		.uleb128 0x19
 2260 017f 01       		.uleb128 0x1
 2261 0180 13       		.uleb128 0x13
 2262 0181 00       		.byte	0
 2263 0182 00       		.byte	0
 2264 0183 1D       		.uleb128 0x1d
 2265 0184 34       		.uleb128 0x34
 2266 0185 00       		.byte	0
 2267 0186 03       		.uleb128 0x3
 2268 0187 0E       		.uleb128 0xe
 2269 0188 3A       		.uleb128 0x3a
 2270 0189 0B       		.uleb128 0xb
 2271 018a 3B       		.uleb128 0x3b
 2272 018b 0B       		.uleb128 0xb
 2273 018c 49       		.uleb128 0x49
 2274 018d 13       		.uleb128 0x13
 2275 018e 02       		.uleb128 0x2
 2276 018f 18       		.uleb128 0x18
 2277 0190 00       		.byte	0
 2278 0191 00       		.byte	0
 2279 0192 1E       		.uleb128 0x1e
 2280 0193 34       		.uleb128 0x34
 2281 0194 00       		.byte	0
 2282 0195 03       		.uleb128 0x3
 2283 0196 08       		.uleb128 0x8
 2284 0197 3A       		.uleb128 0x3a
 2285 0198 0B       		.uleb128 0xb
 2286 0199 3B       		.uleb128 0x3b
 2287 019a 05       		.uleb128 0x5
 2288 019b 49       		.uleb128 0x49
 2289 019c 13       		.uleb128 0x13
 2290 019d 02       		.uleb128 0x2
 2291 019e 18       		.uleb128 0x18
 2292 019f 00       		.byte	0
 2293 01a0 00       		.byte	0
 2294 01a1 1F       		.uleb128 0x1f
 2295 01a2 2E       		.uleb128 0x2e
 2296 01a3 01       		.byte	0x1
 2297 01a4 3F       		.uleb128 0x3f
 2298 01a5 19       		.uleb128 0x19
ARM GAS  /tmp/cc7tOBLQ.s 			page 42


 2299 01a6 03       		.uleb128 0x3
 2300 01a7 0E       		.uleb128 0xe
 2301 01a8 3A       		.uleb128 0x3a
 2302 01a9 0B       		.uleb128 0xb
 2303 01aa 3B       		.uleb128 0x3b
 2304 01ab 05       		.uleb128 0x5
 2305 01ac 27       		.uleb128 0x27
 2306 01ad 19       		.uleb128 0x19
 2307 01ae 11       		.uleb128 0x11
 2308 01af 01       		.uleb128 0x1
 2309 01b0 12       		.uleb128 0x12
 2310 01b1 06       		.uleb128 0x6
 2311 01b2 40       		.uleb128 0x40
 2312 01b3 18       		.uleb128 0x18
 2313 01b4 9642     		.uleb128 0x2116
 2314 01b6 19       		.uleb128 0x19
 2315 01b7 01       		.uleb128 0x1
 2316 01b8 13       		.uleb128 0x13
 2317 01b9 00       		.byte	0
 2318 01ba 00       		.byte	0
 2319 01bb 20       		.uleb128 0x20
 2320 01bc 05       		.uleb128 0x5
 2321 01bd 00       		.byte	0
 2322 01be 03       		.uleb128 0x3
 2323 01bf 0E       		.uleb128 0xe
 2324 01c0 3A       		.uleb128 0x3a
 2325 01c1 0B       		.uleb128 0xb
 2326 01c2 3B       		.uleb128 0x3b
 2327 01c3 05       		.uleb128 0x5
 2328 01c4 49       		.uleb128 0x49
 2329 01c5 13       		.uleb128 0x13
 2330 01c6 02       		.uleb128 0x2
 2331 01c7 18       		.uleb128 0x18
 2332 01c8 00       		.byte	0
 2333 01c9 00       		.byte	0
 2334 01ca 21       		.uleb128 0x21
 2335 01cb 34       		.uleb128 0x34
 2336 01cc 00       		.byte	0
 2337 01cd 03       		.uleb128 0x3
 2338 01ce 0E       		.uleb128 0xe
 2339 01cf 3A       		.uleb128 0x3a
 2340 01d0 0B       		.uleb128 0xb
 2341 01d1 3B       		.uleb128 0x3b
 2342 01d2 05       		.uleb128 0x5
 2343 01d3 49       		.uleb128 0x49
 2344 01d4 13       		.uleb128 0x13
 2345 01d5 3F       		.uleb128 0x3f
 2346 01d6 19       		.uleb128 0x19
 2347 01d7 3C       		.uleb128 0x3c
 2348 01d8 19       		.uleb128 0x19
 2349 01d9 00       		.byte	0
 2350 01da 00       		.byte	0
 2351 01db 00       		.byte	0
 2352              		.section	.debug_aranges,"",%progbits
 2353 0000 1C000000 		.4byte	0x1c
 2354 0004 0200     		.2byte	0x2
 2355 0006 00000000 		.4byte	.Ldebug_info0
ARM GAS  /tmp/cc7tOBLQ.s 			page 43


 2356 000a 04       		.byte	0x4
 2357 000b 00       		.byte	0
 2358 000c 0000     		.2byte	0
 2359 000e 0000     		.2byte	0
 2360 0010 00000000 		.4byte	.Ltext0
 2361 0014 C4020000 		.4byte	.Letext0-.Ltext0
 2362 0018 00000000 		.4byte	0
 2363 001c 00000000 		.4byte	0
 2364              		.section	.debug_line,"",%progbits
 2365              	.Ldebug_line0:
 2366 0000 0E040000 		.section	.debug_str,"MS",%progbits,1
 2366      02000B03 
 2366      00000201 
 2366      FB0E0D00 
 2366      01010101 
 2367              	.LASF102:
 2368 0000 646D6172 		.ascii	"dmarx\000"
 2368      7800
 2369              	.LASF2:
 2370 0006 73697A65 		.ascii	"size_t\000"
 2370      5F7400
 2371              	.LASF91:
 2372 000d 74696D69 		.ascii	"timingr\000"
 2372      6E677200 
 2373              	.LASF59:
 2374 0015 7264796D 		.ascii	"rdymsg\000"
 2374      736700
 2375              	.LASF19:
 2376 001c 75696E74 		.ascii	"uint64_t\000"
 2376      36345F74 
 2376      00
 2377              	.LASF72:
 2378 0025 50454352 		.ascii	"PECR\000"
 2378      00
 2379              	.LASF3:
 2380 002a 5F5F7569 		.ascii	"__uint8_t\000"
 2380      6E74385F 
 2380      7400
 2381              	.LASF112:
 2382 0034 72786275 		.ascii	"rxbuf\000"
 2382      6600
 2383              	.LASF14:
 2384 003a 6C6F6E67 		.ascii	"long long unsigned int\000"
 2384      206C6F6E 
 2384      6720756E 
 2384      7369676E 
 2384      65642069 
 2385              	.LASF99:
 2386 0051 61646472 		.ascii	"addr\000"
 2386      00
 2387              	.LASF105:
 2388 0056 69326353 		.ascii	"i2cStart\000"
 2388      74617274 
 2388      00
 2389              	.LASF60:
 2390 005f 65786974 		.ascii	"exitcode\000"
 2390      636F6465 
ARM GAS  /tmp/cc7tOBLQ.s 			page 44


 2390      00
 2391              	.LASF80:
 2392 0068 76656374 		.ascii	"vector\000"
 2392      6F7200
 2393              	.LASF117:
 2394 006f 69326352 		.ascii	"i2cReleaseBus\000"
 2394      656C6561 
 2394      73654275 
 2394      7300
 2395              	.LASF121:
 2396 007d 49544D5F 		.ascii	"ITM_RxBuffer\000"
 2396      52784275 
 2396      66666572 
 2396      00
 2397              	.LASF106:
 2398 008a 69326370 		.ascii	"i2cp\000"
 2398      00
 2399              	.LASF31:
 2400 008f 705F7072 		.ascii	"p_prio\000"
 2400      696F00
 2401              	.LASF109:
 2402 0096 6932634D 		.ascii	"i2cMasterTransmitTimeout\000"
 2402      61737465 
 2402      72547261 
 2402      6E736D69 
 2402      7454696D 
 2403              	.LASF12:
 2404 00af 6C6F6E67 		.ascii	"long long int\000"
 2404      206C6F6E 
 2404      6720696E 
 2404      7400
 2405              	.LASF1:
 2406 00bd 7369676E 		.ascii	"signed char\000"
 2406      65642063 
 2406      68617200 
 2407              	.LASF47:
 2408 00c9 705F6D70 		.ascii	"p_mpool\000"
 2408      6F6F6C00 
 2409              	.LASF56:
 2410 00d1 6D5F7175 		.ascii	"m_queue\000"
 2410      65756500 
 2411              	.LASF70:
 2412 00d9 54494D49 		.ascii	"TIMINGR\000"
 2412      4E475200 
 2413              	.LASF89:
 2414 00e1 69326361 		.ascii	"i2caddr_t\000"
 2414      6464725F 
 2414      7400
 2415              	.LASF94:
 2416 00eb 73746174 		.ascii	"state\000"
 2416      6500
 2417              	.LASF9:
 2418 00f1 6C6F6E67 		.ascii	"long int\000"
 2418      20696E74 
 2418      00
 2419              	.LASF22:
 2420 00fa 74737461 		.ascii	"tstate_t\000"
ARM GAS  /tmp/cc7tOBLQ.s 			page 45


 2420      74655F74 
 2420      00
 2421              	.LASF98:
 2422 0103 74687265 		.ascii	"thread\000"
 2422      616400
 2423              	.LASF92:
 2424 010a 49324343 		.ascii	"I2CConfig\000"
 2424      6F6E6669 
 2424      6700
 2425              	.LASF40:
 2426 0114 705F7469 		.ascii	"p_time\000"
 2426      6D6500
 2427              	.LASF33:
 2428 011b 705F6E65 		.ascii	"p_newer\000"
 2428      77657200 
 2429              	.LASF100:
 2430 0123 7278646D 		.ascii	"rxdmamode\000"
 2430      616D6F64 
 2430      6500
 2431              	.LASF103:
 2432 012d 646D6174 		.ascii	"dmatx\000"
 2432      7800
 2433              	.LASF10:
 2434 0133 5F5F7569 		.ascii	"__uint32_t\000"
 2434      6E743332 
 2434      5F7400
 2435              	.LASF50:
 2436 013e 72656761 		.ascii	"regarm_t\000"
 2436      726D5F74 
 2436      00
 2437              	.LASF79:
 2438 0147 73656C66 		.ascii	"selfindex\000"
 2438      696E6465 
 2438      7800
 2439              	.LASF28:
 2440 0151 54687265 		.ascii	"Thread\000"
 2440      616400
 2441              	.LASF73:
 2442 0158 52584452 		.ascii	"RXDR\000"
 2442      00
 2443              	.LASF0:
 2444 015d 756E7369 		.ascii	"unsigned int\000"
 2444      676E6564 
 2444      20696E74 
 2444      00
 2445              	.LASF110:
 2446 016a 74786275 		.ascii	"txbuf\000"
 2446      6600
 2447              	.LASF65:
 2448 0170 43504152 		.ascii	"CPAR\000"
 2448      00
 2449              	.LASF42:
 2450 0175 705F6D73 		.ascii	"p_msgqueue\000"
 2450      67717565 
 2450      756500
 2451              	.LASF114:
 2452 0180 74696D65 		.ascii	"timeout\000"
ARM GAS  /tmp/cc7tOBLQ.s 			page 46


 2452      6F757400 
 2453              	.LASF67:
 2454 0188 444D415F 		.ascii	"DMA_Channel_TypeDef\000"
 2454      4368616E 
 2454      6E656C5F 
 2454      54797065 
 2454      44656600 
 2455              	.LASF78:
 2456 019c 69736869 		.ascii	"ishift\000"
 2456      667400
 2457              	.LASF7:
 2458 01a3 73686F72 		.ascii	"short unsigned int\000"
 2458      7420756E 
 2458      7369676E 
 2458      65642069 
 2458      6E7400
 2459              	.LASF93:
 2460 01b6 49324344 		.ascii	"I2CDriver\000"
 2460      72697665 
 2460      7200
 2461              	.LASF25:
 2462 01c0 6D73675F 		.ascii	"msg_t\000"
 2462      7400
 2463              	.LASF74:
 2464 01c6 54584452 		.ascii	"TXDR\000"
 2464      00
 2465              	.LASF21:
 2466 01cb 746D6F64 		.ascii	"tmode_t\000"
 2466      655F7400 
 2467              	.LASF16:
 2468 01d3 75696E74 		.ascii	"uint16_t\000"
 2468      31365F74 
 2468      00
 2469              	.LASF49:
 2470 01dc 54687265 		.ascii	"ThreadsList\000"
 2470      6164734C 
 2470      69737400 
 2471              	.LASF26:
 2472 01e8 6576656E 		.ascii	"eventmask_t\000"
 2472      746D6173 
 2472      6B5F7400 
 2473              	.LASF5:
 2474 01f4 73686F72 		.ascii	"short int\000"
 2474      7420696E 
 2474      7400
 2475              	.LASF51:
 2476 01fe 73746B61 		.ascii	"stkalign_t\000"
 2476      6C69676E 
 2476      5F7400
 2477              	.LASF84:
 2478 0209 4932435F 		.ascii	"I2C_READY\000"
 2478      52454144 
 2478      5900
 2479              	.LASF83:
 2480 0213 4932435F 		.ascii	"I2C_STOP\000"
 2480      53544F50 
 2480      00
ARM GAS  /tmp/cc7tOBLQ.s 			page 47


 2481              	.LASF54:
 2482 021c 73697A65 		.ascii	"sizetype\000"
 2482      74797065 
 2482      00
 2483              	.LASF55:
 2484 0225 4D757465 		.ascii	"Mutex\000"
 2484      7800
 2485              	.LASF96:
 2486 022b 6572726F 		.ascii	"errors\000"
 2486      727300
 2487              	.LASF34:
 2488 0232 705F6F6C 		.ascii	"p_older\000"
 2488      64657200 
 2489              	.LASF113:
 2490 023a 72786279 		.ascii	"rxbytes\000"
 2490      74657300 
 2491              	.LASF107:
 2492 0242 69326353 		.ascii	"i2cStop\000"
 2492      746F7000 
 2493              	.LASF48:
 2494 024a 54687265 		.ascii	"ThreadsQueue\000"
 2494      61647351 
 2494      75657565 
 2494      00
 2495              	.LASF101:
 2496 0257 7478646D 		.ascii	"txdmamode\000"
 2496      616D6F64 
 2496      6500
 2497              	.LASF36:
 2498 0261 705F7374 		.ascii	"p_stklimit\000"
 2498      6B6C696D 
 2498      697400
 2499              	.LASF111:
 2500 026c 74786279 		.ascii	"txbytes\000"
 2500      74657300 
 2501              	.LASF13:
 2502 0274 5F5F7569 		.ascii	"__uint64_t\000"
 2502      6E743634 
 2502      5F7400
 2503              	.LASF23:
 2504 027f 74726566 		.ascii	"trefs_t\000"
 2504      735F7400 
 2505              	.LASF88:
 2506 0287 69326373 		.ascii	"i2cstate_t\000"
 2506      74617465 
 2506      5F7400
 2507              	.LASF71:
 2508 0292 54494D45 		.ascii	"TIMEOUTR\000"
 2508      4F555452 
 2508      00
 2509              	.LASF30:
 2510 029b 705F7072 		.ascii	"p_prev\000"
 2510      657600
 2511              	.LASF119:
 2512 02a2 2F6F7074 		.ascii	"/opt/R2P/core/ChibiOS_2.6.5/os/hal/src/i2c.c\000"
 2512      2F523250 
 2512      2F636F72 
ARM GAS  /tmp/cc7tOBLQ.s 			page 48


 2512      652F4368 
 2512      6962694F 
 2513              	.LASF81:
 2514 02cf 73746D33 		.ascii	"stm32_dma_stream_t\000"
 2514      325F646D 
 2514      615F7374 
 2514      7265616D 
 2514      5F7400
 2515              	.LASF116:
 2516 02e2 69326341 		.ascii	"i2cAcquireBus\000"
 2516      63717569 
 2516      72654275 
 2516      7300
 2517              	.LASF24:
 2518 02f0 74707269 		.ascii	"tprio_t\000"
 2518      6F5F7400 
 2519              	.LASF85:
 2520 02f8 4932435F 		.ascii	"I2C_ACTIVE_TX\000"
 2520      41435449 
 2520      56455F54 
 2520      5800
 2521              	.LASF90:
 2522 0306 69326366 		.ascii	"i2cflags_t\000"
 2522      6C616773 
 2522      5F7400
 2523              	.LASF97:
 2524 0311 6D757465 		.ascii	"mutex\000"
 2524      7800
 2525              	.LASF20:
 2526 0317 5F426F6F 		.ascii	"_Bool\000"
 2526      6C00
 2527              	.LASF17:
 2528 031d 696E7433 		.ascii	"int32_t\000"
 2528      325F7400 
 2529              	.LASF4:
 2530 0325 756E7369 		.ascii	"unsigned char\000"
 2530      676E6564 
 2530      20636861 
 2530      7200
 2531              	.LASF45:
 2532 0333 705F6D74 		.ascii	"p_mtxlist\000"
 2532      786C6973 
 2532      7400
 2533              	.LASF82:
 2534 033d 4932435F 		.ascii	"I2C_UNINIT\000"
 2534      554E494E 
 2534      495400
 2535              	.LASF37:
 2536 0348 705F7374 		.ascii	"p_state\000"
 2536      61746500 
 2537              	.LASF108:
 2538 0350 69326347 		.ascii	"i2cGetErrors\000"
 2538      65744572 
 2538      726F7273 
 2538      00
 2539              	.LASF62:
 2540 035d 65776D61 		.ascii	"ewmask\000"
ARM GAS  /tmp/cc7tOBLQ.s 			page 49


 2540      736B00
 2541              	.LASF29:
 2542 0364 705F6E65 		.ascii	"p_next\000"
 2542      787400
 2543              	.LASF38:
 2544 036b 705F666C 		.ascii	"p_flags\000"
 2544      61677300 
 2545              	.LASF76:
 2546 0373 6368616E 		.ascii	"channel\000"
 2546      6E656C00 
 2547              	.LASF87:
 2548 037b 4932435F 		.ascii	"I2C_LOCKED\000"
 2548      4C4F434B 
 2548      454400
 2549              	.LASF44:
 2550 0386 705F6570 		.ascii	"p_epending\000"
 2550      656E6469 
 2550      6E6700
 2551              	.LASF77:
 2552 0391 69666372 		.ascii	"ifcr\000"
 2552      00
 2553              	.LASF18:
 2554 0396 75696E74 		.ascii	"uint32_t\000"
 2554      33325F74 
 2554      00
 2555              	.LASF118:
 2556 039f 474E5520 		.ascii	"GNU C 4.9.3 20141119 (release) [ARM/embedded-4_9-br"
 2556      4320342E 
 2556      392E3320 
 2556      32303134 
 2556      31313139 
 2557 03d2 616E6368 		.ascii	"anch revision 218278] -mcpu=cortex-m4 -mno-thumb-in"
 2557      20726576 
 2557      6973696F 
 2557      6E203231 
 2557      38323738 
 2558 0405 74657277 		.ascii	"terwork -mthumb -ggdb -O0 -fomit-frame-pointer\000"
 2558      6F726B20 
 2558      2D6D7468 
 2558      756D6220 
 2558      2D676764 
 2559              	.LASF86:
 2560 0434 4932435F 		.ascii	"I2C_ACTIVE_RX\000"
 2560      41435449 
 2560      56455F52 
 2560      5800
 2561              	.LASF11:
 2562 0442 6C6F6E67 		.ascii	"long unsigned int\000"
 2562      20756E73 
 2562      69676E65 
 2562      6420696E 
 2562      7400
 2563              	.LASF63:
 2564 0454 63686172 		.ascii	"char\000"
 2564      00
 2565              	.LASF95:
 2566 0459 636F6E66 		.ascii	"config\000"
ARM GAS  /tmp/cc7tOBLQ.s 			page 50


 2566      696700
 2567              	.LASF6:
 2568 0460 5F5F7569 		.ascii	"__uint16_t\000"
 2568      6E743136 
 2568      5F7400
 2569              	.LASF58:
 2570 046b 6D5F6E65 		.ascii	"m_next\000"
 2570      787400
 2571              	.LASF27:
 2572 0472 73797374 		.ascii	"systime_t\000"
 2572      696D655F 
 2572      7400
 2573              	.LASF46:
 2574 047c 705F7265 		.ascii	"p_realprio\000"
 2574      616C7072 
 2574      696F00
 2575              	.LASF8:
 2576 0487 5F5F696E 		.ascii	"__int32_t\000"
 2576      7433325F 
 2576      7400
 2577              	.LASF53:
 2578 0491 636F6E74 		.ascii	"context\000"
 2578      65787400 
 2579              	.LASF52:
 2580 0499 696E7463 		.ascii	"intctx\000"
 2580      747800
 2581              	.LASF39:
 2582 04a0 705F7265 		.ascii	"p_refs\000"
 2582      667300
 2583              	.LASF64:
 2584 04a7 434E4454 		.ascii	"CNDTR\000"
 2584      5200
 2585              	.LASF66:
 2586 04ad 434D4152 		.ascii	"CMAR\000"
 2586      00
 2587              	.LASF15:
 2588 04b2 75696E74 		.ascii	"uint8_t\000"
 2588      385F7400 
 2589              	.LASF68:
 2590 04ba 4F415231 		.ascii	"OAR1\000"
 2590      00
 2591              	.LASF69:
 2592 04bf 4F415232 		.ascii	"OAR2\000"
 2592      00
 2593              	.LASF115:
 2594 04c4 6932634D 		.ascii	"i2cMasterReceiveTimeout\000"
 2594      61737465 
 2594      72526563 
 2594      65697665 
 2594      54696D65 
 2595              	.LASF61:
 2596 04dc 77746F62 		.ascii	"wtobjp\000"
 2596      6A7000
 2597              	.LASF35:
 2598 04e3 705F6E61 		.ascii	"p_name\000"
 2598      6D6500
 2599              	.LASF120:
ARM GAS  /tmp/cc7tOBLQ.s 			page 51


 2600 04ea 69326349 		.ascii	"i2cInit\000"
 2600      6E697400 
 2601              	.LASF43:
 2602 04f2 705F6D73 		.ascii	"p_msg\000"
 2602      6700
 2603              	.LASF75:
 2604 04f8 4932435F 		.ascii	"I2C_TypeDef\000"
 2604      54797065 
 2604      44656600 
 2605              	.LASF104:
 2606 0504 6932634F 		.ascii	"i2cObjectInit\000"
 2606      626A6563 
 2606      74496E69 
 2606      7400
 2607              	.LASF57:
 2608 0512 6D5F6F77 		.ascii	"m_owner\000"
 2608      6E657200 
 2609              	.LASF32:
 2610 051a 705F6374 		.ascii	"p_ctx\000"
 2610      7800
 2611              	.LASF41:
 2612 0520 705F7761 		.ascii	"p_waiting\000"
 2612      6974696E 
 2612      6700
 2613              		.ident	"GCC: (GNU Tools for ARM Embedded Processors) 4.9.3 20141119 (release) [ARM/embedded-4_9-br
ARM GAS  /tmp/cc7tOBLQ.s 			page 52


DEFINED SYMBOLS
                            *ABS*:00000000 i2c.c
     /tmp/cc7tOBLQ.s:18     .text:00000000 $t
     /tmp/cc7tOBLQ.s:23     .text:00000000 i2cInit
     /tmp/cc7tOBLQ.s:46     .text:00000008 i2cObjectInit
     /tmp/cc7tOBLQ.s:80     .rodata:00000000 $d
     /tmp/cc7tOBLQ.s:92     .text:0000002c i2cStart
     /tmp/cc7tOBLQ.s:174    .text:00000090 $d
     /tmp/cc7tOBLQ.s:187    .text:00000098 $t
     /tmp/cc7tOBLQ.s:192    .text:00000098 i2cStop
     /tmp/cc7tOBLQ.s:264    .text:000000f0 $d
     /tmp/cc7tOBLQ.s:274    .text:000000f8 $t
     /tmp/cc7tOBLQ.s:279    .text:000000f8 i2cGetErrors
     /tmp/cc7tOBLQ.s:311    .text:00000118 $d
     /tmp/cc7tOBLQ.s:323    .text:0000011c $t
     /tmp/cc7tOBLQ.s:328    .text:0000011c i2cMasterTransmitTimeout
     /tmp/cc7tOBLQ.s:457    .text:000001d0 $d
     /tmp/cc7tOBLQ.s:470    .text:000001d8 $t
     /tmp/cc7tOBLQ.s:475    .text:000001d8 i2cMasterReceiveTimeout
     /tmp/cc7tOBLQ.s:587    .text:00000274 $d
     /tmp/cc7tOBLQ.s:597    .text:0000027c $t
     /tmp/cc7tOBLQ.s:602    .text:0000027c i2cAcquireBus
     /tmp/cc7tOBLQ.s:635    .text:000002a0 $d
     /tmp/cc7tOBLQ.s:644    .text:000002a4 $t
     /tmp/cc7tOBLQ.s:649    .text:000002a4 i2cReleaseBus
     /tmp/cc7tOBLQ.s:679    .text:000002c0 $d
                     .debug_frame:00000010 $d

UNDEFINED SYMBOLS
i2c_lld_init
chMtxInit
chDbgPanic
dbg_check_lock
i2c_lld_start
dbg_check_unlock
i2c_lld_stop
i2c_lld_master_transmit_timeout
i2c_lld_master_receive_timeout
chMtxLock
chMtxUnlock
