ARM GAS  /tmp/ccmrze6z.s 			page 1


   1              		.syntax unified
   2              		.cpu cortex-m4
   3              		.fpu softvfp
   4              		.eabi_attribute 20, 1
   5              		.eabi_attribute 21, 1
   6              		.eabi_attribute 23, 3
   7              		.eabi_attribute 24, 1
   8              		.eabi_attribute 25, 1
   9              		.eabi_attribute 26, 1
  10              		.eabi_attribute 30, 6
  11              		.eabi_attribute 34, 1
  12              		.eabi_attribute 18, 4
  13              		.thumb
  14              		.file	"led.cpp"
  15              		.text
  16              	.Ltext0:
  17              		.cfi_sections	.debug_frame
  18              		.section	.text._ZN3r2p8SysLock_7acquireEv,"axG",%progbits,_ZN3r2p8SysLock_7acquireEv,comdat
  19              		.align	2
  20              		.weak	_ZN3r2p8SysLock_7acquireEv
  21              		.thumb
  22              		.thumb_func
  23              		.type	_ZN3r2p8SysLock_7acquireEv, %function
  24              	_ZN3r2p8SysLock_7acquireEv:
  25              	.LFB129:
  26              		.file 1 "/opt/R2P/core/Middleware/port/chibios/include/r2p/impl/SysLock_.hpp"
  27              		.loc 1 20 0
  28              		.cfi_startproc
  29              		@ args = 0, pretend = 0, frame = 0
  30              		@ frame_needed = 0, uses_anonymous_args = 0
  31 0000 08B5     		push	{r3, lr}
  32              		.cfi_def_cfa_offset 8
  33              		.cfi_offset 3, -8
  34              		.cfi_offset 14, -4
  35              	.LBB24:
  36              	.LBB25:
  37              	.LBB26:
  38              		.loc 1 22 0
  39 0002 2023     		movs	r3, #32
  40              	@ 22 "/opt/R2P/core/Middleware/port/chibios/include/r2p/impl/SysLock_.hpp" 1
  41 0004 83F31188 		msr     BASEPRI, r3
  42              	@ 0 "" 2
  43              		.thumb
  44              	.LBE26:
  45 0008 FFF7FEFF 		bl	dbg_check_lock
  46              	.LBE25:
  47              	.LBE24:
  48              		.loc 1 23 0
  49 000c 08BD     		pop	{r3, pc}
  50              		.cfi_endproc
  51              	.LFE129:
  52              		.size	_ZN3r2p8SysLock_7acquireEv, .-_ZN3r2p8SysLock_7acquireEv
  53 000e 00BF     		.section	.text._ZN3r2p8SysLock_7releaseEv,"axG",%progbits,_ZN3r2p8SysLock_7releaseEv,comdat
  54              		.align	2
  55              		.weak	_ZN3r2p8SysLock_7releaseEv
  56              		.thumb
  57              		.thumb_func
ARM GAS  /tmp/ccmrze6z.s 			page 2


  58              		.type	_ZN3r2p8SysLock_7releaseEv, %function
  59              	_ZN3r2p8SysLock_7releaseEv:
  60              	.LFB130:
  61              		.loc 1 27 0
  62              		.cfi_startproc
  63              		@ args = 0, pretend = 0, frame = 0
  64              		@ frame_needed = 0, uses_anonymous_args = 0
  65 0000 08B5     		push	{r3, lr}
  66              		.cfi_def_cfa_offset 8
  67              		.cfi_offset 3, -8
  68              		.cfi_offset 14, -4
  69              	.LBB27:
  70              	.LBB28:
  71              		.loc 1 29 0
  72 0002 FFF7FEFF 		bl	dbg_check_unlock
  73              	.LBB29:
  74 0006 0023     		movs	r3, #0
  75              	@ 29 "/opt/R2P/core/Middleware/port/chibios/include/r2p/impl/SysLock_.hpp" 1
  76 0008 83F31188 		msr     BASEPRI, r3
  77              	@ 0 "" 2
  78              		.thumb
  79              	.LBE29:
  80              	.LBE28:
  81              	.LBE27:
  82              		.loc 1 30 0
  83 000c 08BD     		pop	{r3, pc}
  84              		.cfi_endproc
  85              	.LFE130:
  86              		.size	_ZN3r2p8SysLock_7releaseEv, .-_ZN3r2p8SysLock_7releaseEv
  87 000e 00BF     		.section	.text._ZN3r2p7SysLock7acquireEv,"axG",%progbits,_ZN3r2p7SysLock7acquireEv,comdat
  88              		.align	2
  89              		.weak	_ZN3r2p7SysLock7acquireEv
  90              		.thumb
  91              		.thumb_func
  92              		.type	_ZN3r2p7SysLock7acquireEv, %function
  93              	_ZN3r2p7SysLock7acquireEv:
  94              	.LFB137:
  95              		.file 2 "/opt/R2P/core/Middleware/include/r2p/SysLock.hpp"
  96              		.loc 2 27 0
  97              		.cfi_startproc
  98              		@ args = 0, pretend = 0, frame = 0
  99              		@ frame_needed = 0, uses_anonymous_args = 0
 100 0000 08B5     		push	{r3, lr}
 101              		.cfi_def_cfa_offset 8
 102              		.cfi_offset 3, -8
 103              		.cfi_offset 14, -4
 104              		.loc 2 29 0
 105 0002 FFF7FEFF 		bl	_ZN3r2p8SysLock_7acquireEv
 106              		.loc 2 30 0
 107 0006 08BD     		pop	{r3, pc}
 108              		.cfi_endproc
 109              	.LFE137:
 110              		.size	_ZN3r2p7SysLock7acquireEv, .-_ZN3r2p7SysLock7acquireEv
 111              		.section	.text._ZN3r2p7SysLock7releaseEv,"axG",%progbits,_ZN3r2p7SysLock7releaseEv,comdat
 112              		.align	2
 113              		.weak	_ZN3r2p7SysLock7releaseEv
 114              		.thumb
ARM GAS  /tmp/ccmrze6z.s 			page 3


 115              		.thumb_func
 116              		.type	_ZN3r2p7SysLock7releaseEv, %function
 117              	_ZN3r2p7SysLock7releaseEv:
 118              	.LFB138:
 119              		.loc 2 34 0
 120              		.cfi_startproc
 121              		@ args = 0, pretend = 0, frame = 0
 122              		@ frame_needed = 0, uses_anonymous_args = 0
 123 0000 08B5     		push	{r3, lr}
 124              		.cfi_def_cfa_offset 8
 125              		.cfi_offset 3, -8
 126              		.cfi_offset 14, -4
 127              		.loc 2 36 0
 128 0002 FFF7FEFF 		bl	_ZN3r2p8SysLock_7releaseEv
 129              		.loc 2 37 0
 130 0006 08BD     		pop	{r3, pc}
 131              		.cfi_endproc
 132              	.LFE138:
 133              		.size	_ZN3r2p7SysLock7releaseEv, .-_ZN3r2p7SysLock7releaseEv
 134              		.section	.text._ZN3r2p11MemoryPool_12alloc_unsafeEv,"axG",%progbits,_ZN3r2p11MemoryPool_12alloc_un
 135              		.align	2
 136              		.weak	_ZN3r2p11MemoryPool_12alloc_unsafeEv
 137              		.thumb
 138              		.thumb_func
 139              		.type	_ZN3r2p11MemoryPool_12alloc_unsafeEv, %function
 140              	_ZN3r2p11MemoryPool_12alloc_unsafeEv:
 141              	.LFB236:
 142              		.file 3 "/opt/R2P/core/Middleware/port/chibios/include/r2p/impl/MemoryPool_.hpp"
 143              		.loc 3 53 0
 144              		.cfi_startproc
 145              		@ args = 0, pretend = 0, frame = 8
 146              		@ frame_needed = 0, uses_anonymous_args = 0
 147 0000 00B5     		push	{lr}
 148              		.cfi_def_cfa_offset 4
 149              		.cfi_offset 14, -4
 150 0002 83B0     		sub	sp, sp, #12
 151              		.cfi_def_cfa_offset 16
 152 0004 0190     		str	r0, [sp, #4]
 153              		.loc 3 55 0
 154 0006 019B     		ldr	r3, [sp, #4]
 155 0008 1846     		mov	r0, r3
 156 000a FFF7FEFF 		bl	chPoolAllocI
 157 000e 0346     		mov	r3, r0
 158              		.loc 3 56 0
 159 0010 1846     		mov	r0, r3
 160 0012 03B0     		add	sp, sp, #12
 161              		.cfi_def_cfa_offset 4
 162              		@ sp needed
 163 0014 5DF804FB 		ldr	pc, [sp], #4
 164              		.cfi_endproc
 165              	.LFE236:
 166              		.size	_ZN3r2p11MemoryPool_12alloc_unsafeEv, .-_ZN3r2p11MemoryPool_12alloc_unsafeEv
 167              		.section	.text._ZN3r2p4TimeaSERKS0_,"axG",%progbits,_ZN3r2p4TimeaSERKS0_,comdat
 168              		.align	2
 169              		.weak	_ZN3r2p4TimeaSERKS0_
 170              		.thumb
 171              		.thumb_func
ARM GAS  /tmp/ccmrze6z.s 			page 4


 172              		.type	_ZN3r2p4TimeaSERKS0_, %function
 173              	_ZN3r2p4TimeaSERKS0_:
 174              	.LFB262:
 175              		.file 4 "/opt/R2P/core/Middleware/include/r2p/Time.hpp"
 176              		.loc 4 131 0
 177              		.cfi_startproc
 178              		@ args = 0, pretend = 0, frame = 8
 179              		@ frame_needed = 0, uses_anonymous_args = 0
 180              		@ link register save eliminated.
 181 0000 82B0     		sub	sp, sp, #8
 182              		.cfi_def_cfa_offset 8
 183 0002 0190     		str	r0, [sp, #4]
 184 0004 0091     		str	r1, [sp]
 185              		.loc 4 133 0
 186 0006 009B     		ldr	r3, [sp]
 187 0008 1A68     		ldr	r2, [r3]
 188 000a 019B     		ldr	r3, [sp, #4]
 189 000c 1A60     		str	r2, [r3]
 190              		.loc 4 134 0
 191 000e 019B     		ldr	r3, [sp, #4]
 192              		.loc 4 135 0
 193 0010 1846     		mov	r0, r3
 194 0012 02B0     		add	sp, sp, #8
 195              		.cfi_def_cfa_offset 0
 196              		@ sp needed
 197 0014 7047     		bx	lr
 198              		.cfi_endproc
 199              	.LFE262:
 200              		.size	_ZN3r2p4TimeaSERKS0_, .-_ZN3r2p4TimeaSERKS0_
 201 0016 00BF     		.section	.text._ZN3r2p4Time2msEl,"axG",%progbits,_ZN3r2p4Time2msEl,comdat
 202              		.align	2
 203              		.weak	_ZN3r2p4Time2msEl
 204              		.thumb
 205              		.thumb_func
 206              		.type	_ZN3r2p4Time2msEl, %function
 207              	_ZN3r2p4Time2msEl:
 208              	.LFB276:
 209              		.loc 4 184 0
 210              		.cfi_startproc
 211              		@ args = 0, pretend = 0, frame = 8
 212              		@ frame_needed = 0, uses_anonymous_args = 0
 213 0000 00B5     		push	{lr}
 214              		.cfi_def_cfa_offset 4
 215              		.cfi_offset 14, -4
 216 0002 83B0     		sub	sp, sp, #12
 217              		.cfi_def_cfa_offset 16
 218 0004 0190     		str	r0, [sp, #4]
 219 0006 0091     		str	r1, [sp]
 220              		.loc 4 186 0
 221 0008 009B     		ldr	r3, [sp]
 222 000a 4FF47A72 		mov	r2, #1000
 223 000e 02FB03F3 		mul	r3, r2, r3
 224 0012 0198     		ldr	r0, [sp, #4]
 225 0014 1946     		mov	r1, r3
 226 0016 FFF7FEFF 		bl	_ZN3r2p4TimeC1IlEET_
 227              		.loc 4 187 0
 228 001a 0198     		ldr	r0, [sp, #4]
ARM GAS  /tmp/ccmrze6z.s 			page 5


 229 001c 03B0     		add	sp, sp, #12
 230              		.cfi_def_cfa_offset 4
 231              		@ sp needed
 232 001e 5DF804FB 		ldr	pc, [sp], #4
 233              		.cfi_endproc
 234              	.LFE276:
 235              		.size	_ZN3r2p4Time2msEl, .-_ZN3r2p4Time2msEl
 236 0022 00BF     		.section	.text._ZN3r2p7Message12reset_unsafeEv,"axG",%progbits,_ZN3r2p7Message12reset_unsafeEv,com
 237              		.align	2
 238              		.weak	_ZN3r2p7Message12reset_unsafeEv
 239              		.thumb
 240              		.thumb_func
 241              		.type	_ZN3r2p7Message12reset_unsafeEv, %function
 242              	_ZN3r2p7Message12reset_unsafeEv:
 243              	.LFB292:
 244              		.file 5 "/opt/R2P/core/Middleware/include/r2p/Message.hpp"
 245              		.loc 5 122 0
 246              		.cfi_startproc
 247              		@ args = 0, pretend = 0, frame = 8
 248              		@ frame_needed = 0, uses_anonymous_args = 0
 249              		@ link register save eliminated.
 250 0000 82B0     		sub	sp, sp, #8
 251              		.cfi_def_cfa_offset 8
 252 0002 0190     		str	r0, [sp, #4]
 253              		.loc 5 127 0
 254 0004 019B     		ldr	r3, [sp, #4]
 255 0006 0022     		movs	r2, #0
 256 0008 1A70     		strb	r2, [r3]
 257 000a 0022     		movs	r2, #0
 258 000c 5A70     		strb	r2, [r3, #1]
 259              		.loc 5 128 0
 260 000e 02B0     		add	sp, sp, #8
 261              		.cfi_def_cfa_offset 0
 262              		@ sp needed
 263 0010 7047     		bx	lr
 264              		.cfi_endproc
 265              	.LFE292:
 266              		.size	_ZN3r2p7Message12reset_unsafeEv, .-_ZN3r2p7Message12reset_unsafeEv
 267 0012 00BF     		.section	.text._ZN3r2p7MessageC2Ev,"axG",%progbits,_ZN3r2p7MessageC5Ev,comdat
 268              		.align	2
 269              		.weak	_ZN3r2p7MessageC2Ev
 270              		.thumb
 271              		.thumb_func
 272              		.type	_ZN3r2p7MessageC2Ev, %function
 273              	_ZN3r2p7MessageC2Ev:
 274              	.LFB294:
 275              		.loc 5 132 0
 276              		.cfi_startproc
 277              		@ args = 0, pretend = 0, frame = 8
 278              		@ frame_needed = 0, uses_anonymous_args = 0
 279              		@ link register save eliminated.
 280 0000 82B0     		sub	sp, sp, #8
 281              		.cfi_def_cfa_offset 8
 282 0002 0190     		str	r0, [sp, #4]
 283              	.LBB30:
 284              		.loc 5 137 0
 285 0004 019B     		ldr	r3, [sp, #4]
ARM GAS  /tmp/ccmrze6z.s 			page 6


 286 0006 0022     		movs	r2, #0
 287 0008 1A70     		strb	r2, [r3]
 288 000a 0022     		movs	r2, #0
 289 000c 5A70     		strb	r2, [r3, #1]
 290              	.LBE30:
 291              		.loc 5 138 0
 292 000e 019B     		ldr	r3, [sp, #4]
 293 0010 1846     		mov	r0, r3
 294 0012 02B0     		add	sp, sp, #8
 295              		.cfi_def_cfa_offset 0
 296              		@ sp needed
 297 0014 7047     		bx	lr
 298              		.cfi_endproc
 299              	.LFE294:
 300              		.size	_ZN3r2p7MessageC2Ev, .-_ZN3r2p7MessageC2Ev
 301              		.weak	_ZN3r2p7MessageC1Ev
 302              		.thumb_set _ZN3r2p7MessageC1Ev,_ZN3r2p7MessageC2Ev
 303 0016 00BF     		.section	.rodata
 304              		.align	2
 305              	.LC0:
 306 0000 5232505F 		.ascii	"R2P_ASSERT()\000"
 306      41535345 
 306      52542829 
 306      00
 307              		.section	.text._ZN3r2p13BasePublisher12alloc_unsafeERPNS_7MessageE,"axG",%progbits,_ZN3r2p13BasePu
 308              		.align	2
 309              		.weak	_ZN3r2p13BasePublisher12alloc_unsafeERPNS_7MessageE
 310              		.thumb
 311              		.thumb_func
 312              		.type	_ZN3r2p13BasePublisher12alloc_unsafeERPNS_7MessageE, %function
 313              	_ZN3r2p13BasePublisher12alloc_unsafeERPNS_7MessageE:
 314              	.LFB303:
 315              		.file 6 "/opt/R2P/core/Middleware/include/r2p/BasePublisher.hpp"
 316              		.loc 6 64 0
 317              		.cfi_startproc
 318              		@ args = 0, pretend = 0, frame = 8
 319              		@ frame_needed = 0, uses_anonymous_args = 0
 320 0000 00B5     		push	{lr}
 321              		.cfi_def_cfa_offset 4
 322              		.cfi_offset 14, -4
 323 0002 83B0     		sub	sp, sp, #12
 324              		.cfi_def_cfa_offset 16
 325 0004 0190     		str	r0, [sp, #4]
 326 0006 0091     		str	r1, [sp]
 327              		.loc 6 66 0
 328 0008 019B     		ldr	r3, [sp, #4]
 329 000a 5B68     		ldr	r3, [r3, #4]
 330 000c 002B     		cmp	r3, #0
 331 000e 02D1     		bne	.L16
 332              		.loc 6 66 0 is_stmt 0 discriminator 1
 333 0010 0A48     		ldr	r0, .L18
 334 0012 FFF7FEFF 		bl	chDbgPanic
 335              	.L16:
 336              		.loc 6 68 0 is_stmt 1
 337 0016 019B     		ldr	r3, [sp, #4]
 338 0018 5B68     		ldr	r3, [r3, #4]
 339 001a 1846     		mov	r0, r3
ARM GAS  /tmp/ccmrze6z.s 			page 7


 340 001c FFF7FEFF 		bl	_ZN3r2p5Topic12alloc_unsafeEv
 341 0020 0246     		mov	r2, r0
 342 0022 009B     		ldr	r3, [sp]
 343 0024 1A60     		str	r2, [r3]
 344              		.loc 6 69 0
 345 0026 009B     		ldr	r3, [sp]
 346 0028 1B68     		ldr	r3, [r3]
 347 002a 002B     		cmp	r3, #0
 348 002c 14BF     		ite	ne
 349 002e 0123     		movne	r3, #1
 350 0030 0023     		moveq	r3, #0
 351 0032 DBB2     		uxtb	r3, r3
 352              		.loc 6 70 0
 353 0034 1846     		mov	r0, r3
 354 0036 03B0     		add	sp, sp, #12
 355              		.cfi_def_cfa_offset 4
 356              		@ sp needed
 357 0038 5DF804FB 		ldr	pc, [sp], #4
 358              	.L19:
 359              		.align	2
 360              	.L18:
 361 003c 00000000 		.word	.LC0
 362              		.cfi_endproc
 363              	.LFE303:
 364              		.size	_ZN3r2p13BasePublisher12alloc_unsafeERPNS_7MessageE, .-_ZN3r2p13BasePublisher12alloc_unsafeE
 365              		.section	.text._ZN3r2p13BasePublisher5allocERPNS_7MessageE,"axG",%progbits,_ZN3r2p13BasePublisher5
 366              		.align	2
 367              		.weak	_ZN3r2p13BasePublisher5allocERPNS_7MessageE
 368              		.thumb
 369              		.thumb_func
 370              		.type	_ZN3r2p13BasePublisher5allocERPNS_7MessageE, %function
 371              	_ZN3r2p13BasePublisher5allocERPNS_7MessageE:
 372              	.LFB304:
 373              		.loc 6 74 0
 374              		.cfi_startproc
 375              		@ args = 0, pretend = 0, frame = 16
 376              		@ frame_needed = 0, uses_anonymous_args = 0
 377 0000 00B5     		push	{lr}
 378              		.cfi_def_cfa_offset 4
 379              		.cfi_offset 14, -4
 380 0002 85B0     		sub	sp, sp, #20
 381              		.cfi_def_cfa_offset 24
 382 0004 0190     		str	r0, [sp, #4]
 383 0006 0091     		str	r1, [sp]
 384              	.LBB31:
 385              		.loc 6 76 0
 386 0008 FFF7FEFF 		bl	_ZN3r2p7SysLock7acquireEv
 387              		.loc 6 77 0
 388 000c 0198     		ldr	r0, [sp, #4]
 389 000e 0099     		ldr	r1, [sp]
 390 0010 FFF7FEFF 		bl	_ZN3r2p13BasePublisher12alloc_unsafeERPNS_7MessageE
 391 0014 0346     		mov	r3, r0
 392 0016 8DF80F30 		strb	r3, [sp, #15]
 393              		.loc 6 78 0
 394 001a FFF7FEFF 		bl	_ZN3r2p7SysLock7releaseEv
 395              		.loc 6 79 0
 396 001e 9DF80F30 		ldrb	r3, [sp, #15]	@ zero_extendqisi2
ARM GAS  /tmp/ccmrze6z.s 			page 8


 397              	.LBE31:
 398              		.loc 6 80 0
 399 0022 1846     		mov	r0, r3
 400 0024 05B0     		add	sp, sp, #20
 401              		.cfi_def_cfa_offset 4
 402              		@ sp needed
 403 0026 5DF804FB 		ldr	pc, [sp], #4
 404              		.cfi_endproc
 405              	.LFE304:
 406              		.size	_ZN3r2p13BasePublisher5allocERPNS_7MessageE, .-_ZN3r2p13BasePublisher5allocERPNS_7MessageE
 407 002a 00BF     		.section	.text._ZNK3r2p10SpinEvent_10get_threadEv,"axG",%progbits,_ZNK3r2p10SpinEvent_10get_thread
 408              		.align	2
 409              		.weak	_ZNK3r2p10SpinEvent_10get_threadEv
 410              		.thumb
 411              		.thumb_func
 412              		.type	_ZNK3r2p10SpinEvent_10get_threadEv, %function
 413              	_ZNK3r2p10SpinEvent_10get_threadEv:
 414              	.LFB353:
 415              		.file 7 "/opt/R2P/core/Middleware/port/chibios/include/r2p/impl/SpinEvent_.hpp"
 416              		.loc 7 36 0
 417              		.cfi_startproc
 418              		@ args = 0, pretend = 0, frame = 8
 419              		@ frame_needed = 0, uses_anonymous_args = 0
 420              		@ link register save eliminated.
 421 0000 82B0     		sub	sp, sp, #8
 422              		.cfi_def_cfa_offset 8
 423 0002 0190     		str	r0, [sp, #4]
 424              		.loc 7 38 0
 425 0004 019B     		ldr	r3, [sp, #4]
 426 0006 1B68     		ldr	r3, [r3]
 427              		.loc 7 39 0
 428 0008 1846     		mov	r0, r3
 429 000a 02B0     		add	sp, sp, #8
 430              		.cfi_def_cfa_offset 0
 431              		@ sp needed
 432 000c 7047     		bx	lr
 433              		.cfi_endproc
 434              	.LFE353:
 435              		.size	_ZNK3r2p10SpinEvent_10get_threadEv, .-_ZNK3r2p10SpinEvent_10get_threadEv
 436 000e 00BF     		.section	.text._ZN3r2p10SpinEvent_13signal_unsafeEj,"axG",%progbits,_ZN3r2p10SpinEvent_13signal_un
 437              		.align	2
 438              		.weak	_ZN3r2p10SpinEvent_13signal_unsafeEj
 439              		.thumb
 440              		.thumb_func
 441              		.type	_ZN3r2p10SpinEvent_13signal_unsafeEj, %function
 442              	_ZN3r2p10SpinEvent_13signal_unsafeEj:
 443              	.LFB355:
 444              		.loc 7 50 0
 445              		.cfi_startproc
 446              		@ args = 0, pretend = 0, frame = 8
 447              		@ frame_needed = 0, uses_anonymous_args = 0
 448 0000 00B5     		push	{lr}
 449              		.cfi_def_cfa_offset 4
 450              		.cfi_offset 14, -4
 451 0002 83B0     		sub	sp, sp, #12
 452              		.cfi_def_cfa_offset 16
 453 0004 0190     		str	r0, [sp, #4]
ARM GAS  /tmp/ccmrze6z.s 			page 9


 454 0006 0091     		str	r1, [sp]
 455              		.loc 7 52 0
 456 0008 019B     		ldr	r3, [sp, #4]
 457 000a 1B68     		ldr	r3, [r3]
 458 000c 002B     		cmp	r3, #0
 459 000e 10D0     		beq	.L24
 460              		.loc 7 53 0
 461 0010 2022     		movs	r2, #32
 462 0012 009B     		ldr	r3, [sp]
 463 0014 9A42     		cmp	r2, r3
 464 0016 02D8     		bhi	.L26
 465              		.loc 7 53 0 is_stmt 0 discriminator 1
 466 0018 0748     		ldr	r0, .L27
 467 001a FFF7FEFF 		bl	chDbgPanic
 468              	.L26:
 469              		.loc 7 54 0 is_stmt 1
 470 001e 019B     		ldr	r3, [sp, #4]
 471 0020 1968     		ldr	r1, [r3]
 472 0022 009B     		ldr	r3, [sp]
 473 0024 0122     		movs	r2, #1
 474 0026 02FA03F3 		lsl	r3, r2, r3
 475 002a 0846     		mov	r0, r1
 476 002c 1946     		mov	r1, r3
 477 002e FFF7FEFF 		bl	chEvtSignalI
 478              	.L24:
 479              		.loc 7 56 0
 480 0032 03B0     		add	sp, sp, #12
 481              		.cfi_def_cfa_offset 4
 482              		@ sp needed
 483 0034 5DF804FB 		ldr	pc, [sp], #4
 484              	.L28:
 485              		.align	2
 486              	.L27:
 487 0038 00000000 		.word	.LC0
 488              		.cfi_endproc
 489              	.LFE355:
 490              		.size	_ZN3r2p10SpinEvent_13signal_unsafeEj, .-_ZN3r2p10SpinEvent_13signal_unsafeEj
 491              		.section	.text._ZNK3r2p9SpinEvent10get_threadEv,"axG",%progbits,_ZNK3r2p9SpinEvent10get_threadEv,c
 492              		.align	2
 493              		.weak	_ZNK3r2p9SpinEvent10get_threadEv
 494              		.thumb
 495              		.thumb_func
 496              		.type	_ZNK3r2p9SpinEvent10get_threadEv, %function
 497              	_ZNK3r2p9SpinEvent10get_threadEv:
 498              	.LFB361:
 499              		.file 8 "/opt/R2P/core/Middleware/include/r2p/SpinEvent.hpp"
 500              		.loc 8 35 0
 501              		.cfi_startproc
 502              		@ args = 0, pretend = 0, frame = 8
 503              		@ frame_needed = 0, uses_anonymous_args = 0
 504 0000 00B5     		push	{lr}
 505              		.cfi_def_cfa_offset 4
 506              		.cfi_offset 14, -4
 507 0002 83B0     		sub	sp, sp, #12
 508              		.cfi_def_cfa_offset 16
 509 0004 0190     		str	r0, [sp, #4]
 510              		.loc 8 37 0
ARM GAS  /tmp/ccmrze6z.s 			page 10


 511 0006 019B     		ldr	r3, [sp, #4]
 512 0008 1846     		mov	r0, r3
 513 000a FFF7FEFF 		bl	_ZNK3r2p10SpinEvent_10get_threadEv
 514 000e 0346     		mov	r3, r0
 515              		.loc 8 38 0
 516 0010 1846     		mov	r0, r3
 517 0012 03B0     		add	sp, sp, #12
 518              		.cfi_def_cfa_offset 4
 519              		@ sp needed
 520 0014 5DF804FB 		ldr	pc, [sp], #4
 521              		.cfi_endproc
 522              	.LFE361:
 523              		.size	_ZNK3r2p9SpinEvent10get_threadEv, .-_ZNK3r2p9SpinEvent10get_threadEv
 524              		.section	.text._ZN3r2p9SpinEvent13signal_unsafeEj,"axG",%progbits,_ZN3r2p9SpinEvent13signal_unsafe
 525              		.align	2
 526              		.weak	_ZN3r2p9SpinEvent13signal_unsafeEj
 527              		.thumb
 528              		.thumb_func
 529              		.type	_ZN3r2p9SpinEvent13signal_unsafeEj, %function
 530              	_ZN3r2p9SpinEvent13signal_unsafeEj:
 531              	.LFB363:
 532              		.loc 8 49 0
 533              		.cfi_startproc
 534              		@ args = 0, pretend = 0, frame = 8
 535              		@ frame_needed = 0, uses_anonymous_args = 0
 536 0000 00B5     		push	{lr}
 537              		.cfi_def_cfa_offset 4
 538              		.cfi_offset 14, -4
 539 0002 83B0     		sub	sp, sp, #12
 540              		.cfi_def_cfa_offset 16
 541 0004 0190     		str	r0, [sp, #4]
 542 0006 0091     		str	r1, [sp]
 543              		.loc 8 51 0
 544 0008 019B     		ldr	r3, [sp, #4]
 545 000a 1846     		mov	r0, r3
 546 000c 0099     		ldr	r1, [sp]
 547 000e FFF7FEFF 		bl	_ZN3r2p10SpinEvent_13signal_unsafeEj
 548              		.loc 8 52 0
 549 0012 03B0     		add	sp, sp, #12
 550              		.cfi_def_cfa_offset 4
 551              		@ sp needed
 552 0014 5DF804FB 		ldr	pc, [sp], #4
 553              		.cfi_endproc
 554              	.LFE363:
 555              		.size	_ZN3r2p9SpinEvent13signal_unsafeEj, .-_ZN3r2p9SpinEvent13signal_unsafeEj
 556              		.section	.text._ZNK3r2p4Node11get_enabledEv,"axG",%progbits,_ZNK3r2p4Node11get_enabledEv,comdat
 557              		.align	2
 558              		.weak	_ZNK3r2p4Node11get_enabledEv
 559              		.thumb
 560              		.thumb_func
 561              		.type	_ZNK3r2p4Node11get_enabledEv, %function
 562              	_ZNK3r2p4Node11get_enabledEv:
 563              	.LFB380:
 564              		.file 9 "/opt/R2P/core/Middleware/include/r2p/Node.hpp"
 565              		.loc 9 103 0
 566              		.cfi_startproc
 567              		@ args = 0, pretend = 0, frame = 8
ARM GAS  /tmp/ccmrze6z.s 			page 11


 568              		@ frame_needed = 0, uses_anonymous_args = 0
 569 0000 00B5     		push	{lr}
 570              		.cfi_def_cfa_offset 4
 571              		.cfi_offset 14, -4
 572 0002 83B0     		sub	sp, sp, #12
 573              		.cfi_def_cfa_offset 16
 574 0004 0190     		str	r0, [sp, #4]
 575              		.loc 9 105 0
 576 0006 019B     		ldr	r3, [sp, #4]
 577 0008 0C33     		adds	r3, r3, #12
 578 000a 1846     		mov	r0, r3
 579 000c FFF7FEFF 		bl	_ZNK3r2p9SpinEvent10get_threadEv
 580 0010 0346     		mov	r3, r0
 581 0012 002B     		cmp	r3, #0
 582 0014 14BF     		ite	ne
 583 0016 0123     		movne	r3, #1
 584 0018 0023     		moveq	r3, #0
 585 001a DBB2     		uxtb	r3, r3
 586              		.loc 9 106 0
 587 001c 1846     		mov	r0, r3
 588 001e 03B0     		add	sp, sp, #12
 589              		.cfi_def_cfa_offset 4
 590              		@ sp needed
 591 0020 5DF804FB 		ldr	pc, [sp], #4
 592              		.cfi_endproc
 593              	.LFE380:
 594              		.size	_ZNK3r2p4Node11get_enabledEv, .-_ZNK3r2p4Node11get_enabledEv
 595              		.section	.text._ZN3r2p4Node13notify_unsafeEj,"axG",%progbits,_ZN3r2p4Node13notify_unsafeEj,comdat
 596              		.align	2
 597              		.weak	_ZN3r2p4Node13notify_unsafeEj
 598              		.thumb
 599              		.thumb_func
 600              		.type	_ZN3r2p4Node13notify_unsafeEj, %function
 601              	_ZN3r2p4Node13notify_unsafeEj:
 602              	.LFB385:
 603              		.loc 9 140 0
 604              		.cfi_startproc
 605              		@ args = 0, pretend = 0, frame = 8
 606              		@ frame_needed = 0, uses_anonymous_args = 0
 607 0000 00B5     		push	{lr}
 608              		.cfi_def_cfa_offset 4
 609              		.cfi_offset 14, -4
 610 0002 83B0     		sub	sp, sp, #12
 611              		.cfi_def_cfa_offset 16
 612 0004 0190     		str	r0, [sp, #4]
 613 0006 0091     		str	r1, [sp]
 614              		.loc 9 142 0
 615 0008 019B     		ldr	r3, [sp, #4]
 616 000a 0C33     		adds	r3, r3, #12
 617 000c 1846     		mov	r0, r3
 618 000e 0099     		ldr	r1, [sp]
 619 0010 FFF7FEFF 		bl	_ZN3r2p9SpinEvent13signal_unsafeEj
 620              		.loc 9 143 0
 621 0014 03B0     		add	sp, sp, #12
 622              		.cfi_def_cfa_offset 4
 623              		@ sp needed
 624 0016 5DF804FB 		ldr	pc, [sp], #4
ARM GAS  /tmp/ccmrze6z.s 			page 12


 625              		.cfi_endproc
 626              	.LFE385:
 627              		.size	_ZN3r2p4Node13notify_unsafeEj, .-_ZN3r2p4Node13notify_unsafeEj
 628 001a 00BF     		.section	.text._ZNK3r2p15LocalSubscriber16get_queue_lengthEv,"axG",%progbits,_ZNK3r2p15LocalSubscr
 629              		.align	2
 630              		.weak	_ZNK3r2p15LocalSubscriber16get_queue_lengthEv
 631              		.thumb
 632              		.thumb_func
 633              		.type	_ZNK3r2p15LocalSubscriber16get_queue_lengthEv, %function
 634              	_ZNK3r2p15LocalSubscriber16get_queue_lengthEv:
 635              	.LFB391:
 636              		.file 10 "/opt/R2P/core/Middleware/include/r2p/LocalSubscriber.hpp"
 637              		.loc 10 64 0
 638              		.cfi_startproc
 639              		@ args = 0, pretend = 0, frame = 8
 640              		@ frame_needed = 0, uses_anonymous_args = 0
 641 0000 00B5     		push	{lr}
 642              		.cfi_def_cfa_offset 4
 643              		.cfi_offset 14, -4
 644 0002 83B0     		sub	sp, sp, #12
 645              		.cfi_def_cfa_offset 16
 646 0004 0190     		str	r0, [sp, #4]
 647              		.loc 10 66 0
 648 0006 019B     		ldr	r3, [sp, #4]
 649 0008 1033     		adds	r3, r3, #16
 650 000a 1846     		mov	r0, r3
 651 000c FFF7FEFF 		bl	_ZNK3r2p10ArrayQueueIPNS_7MessageEE10get_lengthEv
 652 0010 0346     		mov	r3, r0
 653              		.loc 10 67 0
 654 0012 1846     		mov	r0, r3
 655 0014 03B0     		add	sp, sp, #12
 656              		.cfi_def_cfa_offset 4
 657              		@ sp needed
 658 0016 5DF804FB 		ldr	pc, [sp], #4
 659              		.cfi_endproc
 660              	.LFE391:
 661              		.size	_ZNK3r2p15LocalSubscriber16get_queue_lengthEv, .-_ZNK3r2p15LocalSubscriber16get_queue_length
 662 001a 00BF     		.section	.text._ZN3r2p15LocalSubscriber12fetch_unsafeERPNS_7MessageERNS_4TimeE,"axG",%progbits,_ZN
 663              		.align	2
 664              		.weak	_ZN3r2p15LocalSubscriber12fetch_unsafeERPNS_7MessageERNS_4TimeE
 665              		.thumb
 666              		.thumb_func
 667              		.type	_ZN3r2p15LocalSubscriber12fetch_unsafeERPNS_7MessageERNS_4TimeE, %function
 668              	_ZN3r2p15LocalSubscriber12fetch_unsafeERPNS_7MessageERNS_4TimeE:
 669              	.LFB392:
 670              		.loc 10 71 0
 671              		.cfi_startproc
 672              		@ args = 0, pretend = 0, frame = 24
 673              		@ frame_needed = 0, uses_anonymous_args = 0
 674 0000 00B5     		push	{lr}
 675              		.cfi_def_cfa_offset 4
 676              		.cfi_offset 14, -4
 677 0002 87B0     		sub	sp, sp, #28
 678              		.cfi_def_cfa_offset 32
 679 0004 0390     		str	r0, [sp, #12]
 680 0006 0291     		str	r1, [sp, #8]
 681 0008 0192     		str	r2, [sp, #4]
ARM GAS  /tmp/ccmrze6z.s 			page 13


 682              		.loc 10 73 0
 683 000a 039B     		ldr	r3, [sp, #12]
 684 000c 1033     		adds	r3, r3, #16
 685 000e 1846     		mov	r0, r3
 686 0010 0299     		ldr	r1, [sp, #8]
 687 0012 FFF7FEFF 		bl	_ZN3r2p10ArrayQueueIPNS_7MessageEE12fetch_unsafeERS2_
 688 0016 0346     		mov	r3, r0
 689 0018 002B     		cmp	r3, #0
 690 001a 0AD0     		beq	.L38
 691              		.loc 10 74 0
 692 001c 05AB     		add	r3, sp, #20
 693 001e 1846     		mov	r0, r3
 694 0020 FFF7FEFF 		bl	_ZN3r2p4Time3nowEv
 695 0024 05AB     		add	r3, sp, #20
 696 0026 0198     		ldr	r0, [sp, #4]
 697 0028 1946     		mov	r1, r3
 698 002a FFF7FEFF 		bl	_ZN3r2p4TimeaSERKS0_
 699              		.loc 10 75 0
 700 002e 0123     		movs	r3, #1
 701 0030 00E0     		b	.L39
 702              	.L38:
 703              		.loc 10 77 0
 704 0032 0023     		movs	r3, #0
 705              	.L39:
 706              		.loc 10 78 0
 707 0034 1846     		mov	r0, r3
 708 0036 07B0     		add	sp, sp, #28
 709              		.cfi_def_cfa_offset 4
 710              		@ sp needed
 711 0038 5DF804FB 		ldr	pc, [sp], #4
 712              		.cfi_endproc
 713              	.LFE392:
 714              		.size	_ZN3r2p15LocalSubscriber12fetch_unsafeERPNS_7MessageERNS_4TimeE, .-_ZN3r2p15LocalSubscriber1
 715              		.section	.text._ZN3r2p15LocalSubscriber13notify_unsafeERNS_7MessageERKNS_4TimeE,"axG",%progbits,_Z
 716              		.align	2
 717              		.weak	_ZN3r2p15LocalSubscriber13notify_unsafeERNS_7MessageERKNS_4TimeE
 718              		.thumb
 719              		.thumb_func
 720              		.type	_ZN3r2p15LocalSubscriber13notify_unsafeERNS_7MessageERKNS_4TimeE, %function
 721              	_ZN3r2p15LocalSubscriber13notify_unsafeERNS_7MessageERKNS_4TimeE:
 722              	.LFB393:
 723              		.loc 10 82 0
 724              		.cfi_startproc
 725              		@ args = 0, pretend = 0, frame = 16
 726              		@ frame_needed = 0, uses_anonymous_args = 0
 727 0000 00B5     		push	{lr}
 728              		.cfi_def_cfa_offset 4
 729              		.cfi_offset 14, -4
 730 0002 85B0     		sub	sp, sp, #20
 731              		.cfi_def_cfa_offset 24
 732 0004 0390     		str	r0, [sp, #12]
 733 0006 0291     		str	r1, [sp, #8]
 734 0008 0192     		str	r2, [sp, #4]
 735              		.loc 10 86 0
 736 000a 039B     		ldr	r3, [sp, #12]
 737 000c 9B68     		ldr	r3, [r3, #8]
 738 000e 1846     		mov	r0, r3
ARM GAS  /tmp/ccmrze6z.s 			page 14


 739 0010 FFF7FEFF 		bl	_ZNK3r2p4Node11get_enabledEv
 740 0014 0346     		mov	r3, r0
 741 0016 002B     		cmp	r3, #0
 742 0018 0AD0     		beq	.L41
 743              		.loc 10 86 0 is_stmt 0 discriminator 1
 744 001a 039B     		ldr	r3, [sp, #12]
 745 001c 1033     		adds	r3, r3, #16
 746 001e 1846     		mov	r0, r3
 747 0020 0299     		ldr	r1, [sp, #8]
 748 0022 FFF7FEFF 		bl	_ZN3r2p10ArrayQueueIPNS_7MessageEE11post_unsafeES2_
 749 0026 0346     		mov	r3, r0
 750 0028 002B     		cmp	r3, #0
 751 002a 01D0     		beq	.L41
 752              		.loc 10 86 0 discriminator 3
 753 002c 0123     		movs	r3, #1
 754 002e 00E0     		b	.L42
 755              	.L41:
 756              		.loc 10 86 0 discriminator 4
 757 0030 0023     		movs	r3, #0
 758              	.L42:
 759              		.loc 10 86 0 discriminator 6
 760 0032 002B     		cmp	r3, #0
 761 0034 0AD0     		beq	.L43
 762              		.loc 10 87 0 is_stmt 1
 763 0036 039B     		ldr	r3, [sp, #12]
 764 0038 9A68     		ldr	r2, [r3, #8]
 765 003a 039B     		ldr	r3, [sp, #12]
 766 003c 93F82430 		ldrb	r3, [r3, #36]	@ zero_extendqisi2
 767 0040 1046     		mov	r0, r2
 768 0042 1946     		mov	r1, r3
 769 0044 FFF7FEFF 		bl	_ZN3r2p4Node13notify_unsafeEj
 770              		.loc 10 88 0
 771 0048 0123     		movs	r3, #1
 772 004a 00E0     		b	.L44
 773              	.L43:
 774              		.loc 10 90 0
 775 004c 0023     		movs	r3, #0
 776              	.L44:
 777              		.loc 10 91 0
 778 004e 1846     		mov	r0, r3
 779 0050 05B0     		add	sp, sp, #20
 780              		.cfi_def_cfa_offset 4
 781              		@ sp needed
 782 0052 5DF804FB 		ldr	pc, [sp], #4
 783              		.cfi_endproc
 784              	.LFE393:
 785              		.size	_ZN3r2p15LocalSubscriber13notify_unsafeERNS_7MessageERKNS_4TimeE, .-_ZN3r2p15LocalSubscriber
 786 0056 00BF     		.section	.text._ZN3r2p5Topic12alloc_unsafeEv,"axG",%progbits,_ZN3r2p5Topic12alloc_unsafeEv,comdat
 787              		.align	2
 788              		.weak	_ZN3r2p5Topic12alloc_unsafeEv
 789              		.thumb
 790              		.thumb_func
 791              		.type	_ZN3r2p5Topic12alloc_unsafeEv, %function
 792              	_ZN3r2p5Topic12alloc_unsafeEv:
 793              	.LFB412:
 794              		.file 11 "/opt/R2P/core/Middleware/include/r2p/Topic.hpp"
 795              		.loc 11 250 0
ARM GAS  /tmp/ccmrze6z.s 			page 15


 796              		.cfi_startproc
 797              		@ args = 0, pretend = 0, frame = 8
 798              		@ frame_needed = 0, uses_anonymous_args = 0
 799 0000 10B5     		push	{r4, lr}
 800              		.cfi_def_cfa_offset 8
 801              		.cfi_offset 4, -8
 802              		.cfi_offset 14, -4
 803 0002 82B0     		sub	sp, sp, #8
 804              		.cfi_def_cfa_offset 16
 805 0004 0190     		str	r0, [sp, #4]
 806              	.LBB32:
 807              		.loc 11 252 0
 808 0006 019B     		ldr	r3, [sp, #4]
 809 0008 0833     		adds	r3, r3, #8
 810 000a 1846     		mov	r0, r3
 811 000c FFF7FEFF 		bl	_ZN3r2p11MemoryPool_12alloc_unsafeEv
 812 0010 0446     		mov	r4, r0
 813              		.loc 11 253 0
 814 0012 002C     		cmp	r4, #0
 815 0014 04D0     		beq	.L46
 816              		.loc 11 254 0
 817 0016 2046     		mov	r0, r4
 818 0018 FFF7FEFF 		bl	_ZN3r2p7Message12reset_unsafeEv
 819              		.loc 11 255 0
 820 001c 2346     		mov	r3, r4
 821 001e 00E0     		b	.L47
 822              	.L46:
 823              		.loc 11 257 0
 824 0020 0023     		movs	r3, #0
 825              	.L47:
 826              	.LBE32:
 827              		.loc 11 258 0
 828 0022 1846     		mov	r0, r3
 829 0024 02B0     		add	sp, sp, #8
 830              		.cfi_def_cfa_offset 8
 831              		@ sp needed
 832 0026 10BD     		pop	{r4, pc}
 833              		.cfi_endproc
 834              	.LFE412:
 835              		.size	_ZN3r2p5Topic12alloc_unsafeEv, .-_ZN3r2p5Topic12alloc_unsafeEv
 836              		.global	_ZN3r2p19default_ledpub_confE
 837              		.section	.rodata
 838 000d 000000   		.align	2
 839              	.LC1:
 840 0010 6C656432 		.ascii	"led2\000"
 840      00
 841              		.data
 842              		.align	2
 843              		.type	_ZN3r2p19default_ledpub_confE, %object
 844              		.size	_ZN3r2p19default_ledpub_confE, 8
 845              	_ZN3r2p19default_ledpub_confE:
 846 0000 10000000 		.word	.LC1
 847 0004 02       		.byte	2
 848 0005 000000   		.space	3
 849              		.global	_ZN3r2p19default_ledsub_confE
 850              		.align	2
 851              		.type	_ZN3r2p19default_ledsub_confE, %object
ARM GAS  /tmp/ccmrze6z.s 			page 16


 852              		.size	_ZN3r2p19default_ledsub_confE, 4
 853              	_ZN3r2p19default_ledsub_confE:
 854 0008 10000000 		.word	.LC1
 855              		.text
 856              		.align	2
 857              		.global	_ZN3r2p8led2gpioEj
 858              		.thumb
 859              		.thumb_func
 860              		.type	_ZN3r2p8led2gpioEj, %function
 861              	_ZN3r2p8led2gpioEj:
 862              	.LFB679:
 863              		.file 12 "/opt/R2P/core/Middleware/src/node/led.cpp"
 864              		.loc 12 21 0
 865              		.cfi_startproc
 866              		@ args = 0, pretend = 0, frame = 8
 867              		@ frame_needed = 0, uses_anonymous_args = 0
 868 0000 00B5     		push	{lr}
 869              		.cfi_def_cfa_offset 4
 870              		.cfi_offset 14, -4
 871 0002 83B0     		sub	sp, sp, #12
 872              		.cfi_def_cfa_offset 16
 873 0004 0190     		str	r0, [sp, #4]
 874              		.loc 12 23 0
 875 0006 019B     		ldr	r3, [sp, #4]
 876 0008 013B     		subs	r3, r3, #1
 877 000a 032B     		cmp	r3, #3
 878 000c 12D8     		bhi	.L49
 879 000e 01A2     		adr	r2, .L51
 880 0010 52F823F0 		ldr	pc, [r2, r3, lsl #2]
 881              		.p2align 2
 882              	.L51:
 883 0014 25000000 		.word	.L50+1
 884 0018 29000000 		.word	.L52+1
 885 001c 2D000000 		.word	.L53+1
 886 0020 31000000 		.word	.L54+1
 887              		.p2align 1
 888              	.L50:
 889              		.loc 12 25 0
 890 0024 074B     		ldr	r3, .L56
 891 0026 08E0     		b	.L55
 892              	.L52:
 893              		.loc 12 27 0
 894 0028 064B     		ldr	r3, .L56
 895 002a 06E0     		b	.L55
 896              	.L53:
 897              		.loc 12 29 0
 898 002c 054B     		ldr	r3, .L56
 899 002e 04E0     		b	.L55
 900              	.L54:
 901              		.loc 12 31 0
 902 0030 044B     		ldr	r3, .L56
 903 0032 02E0     		b	.L55
 904              	.L49:
 905              		.loc 12 33 0
 906 0034 FFF7FEFF 		bl	port_halt
 907              		.loc 12 34 0
 908 0038 0023     		movs	r3, #0
ARM GAS  /tmp/ccmrze6z.s 			page 17


 909              	.L55:
 910              		.loc 12 36 0
 911 003a 1846     		mov	r0, r3
 912 003c 03B0     		add	sp, sp, #12
 913              		.cfi_def_cfa_offset 4
 914              		@ sp needed
 915 003e 5DF804FB 		ldr	pc, [sp], #4
 916              	.L57:
 917 0042 00BF     		.align	2
 918              	.L56:
 919 0044 00080048 		.word	1207961600
 920              		.cfi_endproc
 921              	.LFE679:
 922              		.size	_ZN3r2p8led2gpioEj, .-_ZN3r2p8led2gpioEj
 923              		.align	2
 924              		.global	_ZN3r2p7led2pinEj
 925              		.thumb
 926              		.thumb_func
 927              		.type	_ZN3r2p7led2pinEj, %function
 928              	_ZN3r2p7led2pinEj:
 929              	.LFB680:
 930              		.loc 12 38 0
 931              		.cfi_startproc
 932              		@ args = 0, pretend = 0, frame = 8
 933              		@ frame_needed = 0, uses_anonymous_args = 0
 934 0048 00B5     		push	{lr}
 935              		.cfi_def_cfa_offset 4
 936              		.cfi_offset 14, -4
 937 004a 83B0     		sub	sp, sp, #12
 938              		.cfi_def_cfa_offset 16
 939 004c 0190     		str	r0, [sp, #4]
 940              		.loc 12 40 0
 941 004e 019B     		ldr	r3, [sp, #4]
 942 0050 013B     		subs	r3, r3, #1
 943 0052 032B     		cmp	r3, #3
 944 0054 12D8     		bhi	.L59
 945 0056 01A2     		adr	r2, .L61
 946 0058 52F823F0 		ldr	pc, [r2, r3, lsl #2]
 947              		.p2align 2
 948              	.L61:
 949 005c 6D000000 		.word	.L60+1
 950 0060 71000000 		.word	.L62+1
 951 0064 75000000 		.word	.L63+1
 952 0068 79000000 		.word	.L64+1
 953              		.p2align 1
 954              	.L60:
 955              		.loc 12 42 0
 956 006c 0D23     		movs	r3, #13
 957 006e 08E0     		b	.L65
 958              	.L62:
 959              		.loc 12 44 0
 960 0070 0D23     		movs	r3, #13
 961 0072 06E0     		b	.L65
 962              	.L63:
 963              		.loc 12 46 0
 964 0074 0D23     		movs	r3, #13
 965 0076 04E0     		b	.L65
ARM GAS  /tmp/ccmrze6z.s 			page 18


 966              	.L64:
 967              		.loc 12 48 0
 968 0078 0D23     		movs	r3, #13
 969 007a 02E0     		b	.L65
 970              	.L59:
 971              		.loc 12 50 0
 972 007c FFF7FEFF 		bl	port_halt
 973              		.loc 12 51 0
 974 0080 0023     		movs	r3, #0
 975              	.L65:
 976              		.loc 12 53 0
 977 0082 1846     		mov	r0, r3
 978 0084 03B0     		add	sp, sp, #12
 979              		.cfi_def_cfa_offset 4
 980              		@ sp needed
 981 0086 5DF804FB 		ldr	pc, [sp], #4
 982              		.cfi_endproc
 983              	.LFE680:
 984              		.size	_ZN3r2p7led2pinEj, .-_ZN3r2p7led2pinEj
 985              		.section	.rodata
 986 0015 000000   		.align	2
 987              	.LC2:
 988 0018 6C656470 		.ascii	"ledpub\000"
 988      756200
 989              		.text
 990 008a 00BF     		.align	2
 991              		.global	_ZN3r2p11ledpub_nodeEPv
 992              		.thumb
 993              		.thumb_func
 994              		.type	_ZN3r2p11ledpub_nodeEPv, %function
 995              	_ZN3r2p11ledpub_nodeEPv:
 996              	.LFB681:
 997              		.loc 12 58 0
 998              		.cfi_startproc
 999              		@ args = 0, pretend = 0, frame = 72
 1000              		@ frame_needed = 0, uses_anonymous_args = 0
 1001 008c 00B5     		push	{lr}
 1002              		.cfi_def_cfa_offset 4
 1003              		.cfi_offset 14, -4
 1004 008e 93B0     		sub	sp, sp, #76
 1005              		.cfi_def_cfa_offset 80
 1006 0090 0190     		str	r0, [sp, #4]
 1007              	.LBB33:
 1008              		.loc 12 59 0
 1009 0092 019B     		ldr	r3, [sp, #4]
 1010 0094 1193     		str	r3, [sp, #68]
 1011              		.loc 12 60 0
 1012 0096 08AB     		add	r3, sp, #32
 1013 0098 1846     		mov	r0, r3
 1014 009a 2349     		ldr	r1, .L70
 1015 009c 0122     		movs	r2, #1
 1016 009e FFF7FEFF 		bl	_ZN3r2p4NodeC1EPKcb
 1017              		.loc 12 61 0
 1018 00a2 04AB     		add	r3, sp, #16
 1019 00a4 1846     		mov	r0, r3
 1020 00a6 FFF7FEFF 		bl	_ZN3r2p9PublisherINS_6LedMsgEEC1Ev
 1021              		.loc 12 63 0
ARM GAS  /tmp/ccmrze6z.s 			page 19


 1022 00aa 0023     		movs	r3, #0
 1023 00ac 1093     		str	r3, [sp, #64]
 1024              		.loc 12 65 0
 1025 00ae 119B     		ldr	r3, [sp, #68]
 1026 00b0 002B     		cmp	r3, #0
 1027 00b2 01D1     		bne	.L67
 1028              		.loc 12 65 0 is_stmt 0 discriminator 1
 1029 00b4 1D4B     		ldr	r3, .L70+4
 1030 00b6 1193     		str	r3, [sp, #68]
 1031              	.L67:
 1032              		.loc 12 67 0 is_stmt 1
 1033 00b8 119B     		ldr	r3, [sp, #68]
 1034 00ba 1B79     		ldrb	r3, [r3, #4]
 1035 00bc 8DF83F30 		strb	r3, [sp, #63]
 1036              		.loc 12 69 0
 1037 00c0 119B     		ldr	r3, [sp, #68]
 1038 00c2 1B68     		ldr	r3, [r3]
 1039 00c4 08A9     		add	r1, sp, #32
 1040 00c6 04AA     		add	r2, sp, #16
 1041 00c8 0846     		mov	r0, r1
 1042 00ca 1146     		mov	r1, r2
 1043 00cc 1A46     		mov	r2, r3
 1044 00ce 184B     		ldr	r3, .L70+8
 1045 00d0 FFF7FEFF 		bl	_ZN3r2p4Node9advertiseINS_6LedMsgEEEbRNS_9PublisherIT_EEPKcRKNS_4TimeE
 1046              	.L69:
 1047              	.LBB34:
 1048              	.LBB35:
 1049              		.loc 12 73 0
 1050 00d4 04AA     		add	r2, sp, #16
 1051 00d6 03AB     		add	r3, sp, #12
 1052 00d8 1046     		mov	r0, r2
 1053 00da 1946     		mov	r1, r3
 1054 00dc FFF7FEFF 		bl	_ZN3r2p9PublisherINS_6LedMsgEE5allocERPS1_
 1055 00e0 0346     		mov	r3, r0
 1056 00e2 002B     		cmp	r3, #0
 1057 00e4 1BD0     		beq	.L68
 1058              		.loc 12 74 0
 1059 00e6 039B     		ldr	r3, [sp, #12]
 1060 00e8 9DF83F20 		ldrb	r2, [sp, #63]	@ zero_extendqisi2
 1061 00ec C3F80220 		str	r2, [r3, #2]	@ unaligned
 1062              		.loc 12 75 0
 1063 00f0 039B     		ldr	r3, [sp, #12]
 1064 00f2 109A     		ldr	r2, [sp, #64]
 1065 00f4 D2B2     		uxtb	r2, r2
 1066 00f6 9A71     		strb	r2, [r3, #6]
 1067              		.loc 12 76 0
 1068 00f8 109B     		ldr	r3, [sp, #64]
 1069 00fa 83F00103 		eor	r3, r3, #1
 1070 00fe 1093     		str	r3, [sp, #64]
 1071              		.loc 12 77 0
 1072 0100 039B     		ldr	r3, [sp, #12]
 1073 0102 04AA     		add	r2, sp, #16
 1074 0104 1046     		mov	r0, r2
 1075 0106 1946     		mov	r1, r3
 1076 0108 FFF7FEFF 		bl	_ZN3r2p9PublisherINS_6LedMsgEE7publishERS1_
 1077 010c 0346     		mov	r3, r0
 1078 010e 83F00103 		eor	r3, r3, #1
ARM GAS  /tmp/ccmrze6z.s 			page 20


 1079 0112 DBB2     		uxtb	r3, r3
 1080 0114 002B     		cmp	r3, #0
 1081 0116 02D0     		beq	.L68
 1082              		.loc 12 78 0
 1083 0118 0648     		ldr	r0, .L70+12
 1084 011a FFF7FEFF 		bl	chDbgPanic
 1085              	.L68:
 1086              		.loc 12 83 0 discriminator 1
 1087 011e 4FF4FA70 		mov	r0, #500
 1088 0122 FFF7FEFF 		bl	chThdSleep
 1089              	.LBE35:
 1090              		.loc 12 84 0 discriminator 1
 1091 0126 D5E7     		b	.L69
 1092              	.L71:
 1093              		.align	2
 1094              	.L70:
 1095 0128 18000000 		.word	.LC2
 1096 012c 00000000 		.word	_ZN3r2p19default_ledpub_confE
 1097 0130 00000000 		.word	_ZN3r2p4Time8INFINITEE
 1098 0134 00000000 		.word	.LC0
 1099              	.LBE34:
 1100              	.LBE33:
 1101              		.cfi_endproc
 1102              	.LFE681:
 1103              		.size	_ZN3r2p11ledpub_nodeEPv, .-_ZN3r2p11ledpub_nodeEPv
 1104              		.align	2
 1105              		.global	_ZN3r2p8callbackERKNS_6LedMsgE
 1106              		.thumb
 1107              		.thumb_func
 1108              		.type	_ZN3r2p8callbackERKNS_6LedMsgE, %function
 1109              	_ZN3r2p8callbackERKNS_6LedMsgE:
 1110              	.LFB682:
 1111              		.loc 12 92 0
 1112              		.cfi_startproc
 1113              		@ args = 0, pretend = 0, frame = 8
 1114              		@ frame_needed = 0, uses_anonymous_args = 0
 1115 0138 70B5     		push	{r4, r5, r6, lr}
 1116              		.cfi_def_cfa_offset 16
 1117              		.cfi_offset 4, -16
 1118              		.cfi_offset 5, -12
 1119              		.cfi_offset 6, -8
 1120              		.cfi_offset 14, -4
 1121 013a 82B0     		sub	sp, sp, #8
 1122              		.cfi_def_cfa_offset 24
 1123 013c 0190     		str	r0, [sp, #4]
 1124              		.loc 12 94 0
 1125 013e 019B     		ldr	r3, [sp, #4]
 1126 0140 D3F80230 		ldr	r3, [r3, #2]	@ unaligned
 1127 0144 1846     		mov	r0, r3
 1128 0146 FFF7FEFF 		bl	_ZN3r2p8led2gpioEj
 1129 014a 0646     		mov	r6, r0
 1130 014c 019B     		ldr	r3, [sp, #4]
 1131 014e 9B79     		ldrb	r3, [r3, #6]	@ zero_extendqisi2
 1132 0150 03F00103 		and	r3, r3, #1
 1133 0154 002B     		cmp	r3, #0
 1134 0156 0CBF     		ite	eq
 1135 0158 0123     		moveq	r3, #1
ARM GAS  /tmp/ccmrze6z.s 			page 21


 1136 015a 0023     		movne	r3, #0
 1137 015c DBB2     		uxtb	r3, r3
 1138 015e 1C46     		mov	r4, r3
 1139 0160 019B     		ldr	r3, [sp, #4]
 1140 0162 D3F80230 		ldr	r3, [r3, #2]	@ unaligned
 1141 0166 1846     		mov	r0, r3
 1142 0168 FFF7FEFF 		bl	_ZN3r2p7led2pinEj
 1143 016c 0346     		mov	r3, r0
 1144 016e 1033     		adds	r3, r3, #16
 1145 0170 9C40     		lsls	r4, r4, r3
 1146 0172 019B     		ldr	r3, [sp, #4]
 1147 0174 9B79     		ldrb	r3, [r3, #6]	@ zero_extendqisi2
 1148 0176 03F00105 		and	r5, r3, #1
 1149 017a 019B     		ldr	r3, [sp, #4]
 1150 017c D3F80230 		ldr	r3, [r3, #2]	@ unaligned
 1151 0180 1846     		mov	r0, r3
 1152 0182 FFF7FEFF 		bl	_ZN3r2p7led2pinEj
 1153 0186 0346     		mov	r3, r0
 1154 0188 05FA03F3 		lsl	r3, r5, r3
 1155 018c 2343     		orrs	r3, r3, r4
 1156 018e B361     		str	r3, [r6, #24]
 1157              		.loc 12 96 0
 1158 0190 0123     		movs	r3, #1
 1159              		.loc 12 97 0
 1160 0192 1846     		mov	r0, r3
 1161 0194 02B0     		add	sp, sp, #8
 1162              		.cfi_def_cfa_offset 16
 1163              		@ sp needed
 1164 0196 70BD     		pop	{r4, r5, r6, pc}
 1165              		.cfi_endproc
 1166              	.LFE682:
 1167              		.size	_ZN3r2p8callbackERKNS_6LedMsgE, .-_ZN3r2p8callbackERKNS_6LedMsgE
 1168              		.section	.rodata
 1169 001f 00       		.align	2
 1170              	.LC3:
 1171 0020 6C656473 		.ascii	"ledsub\000"
 1171      756200
 1172 0027 00       		.text
 1173              		.align	2
 1174              		.global	_ZN3r2p11ledsub_nodeEPv
 1175              		.thumb
 1176              		.thumb_func
 1177              		.type	_ZN3r2p11ledsub_nodeEPv, %function
 1178              	_ZN3r2p11ledsub_nodeEPv:
 1179              	.LFB683:
 1180              		.loc 12 99 0
 1181              		.cfi_startproc
 1182              		@ args = 0, pretend = 0, frame = 160
 1183              		@ frame_needed = 0, uses_anonymous_args = 0
 1184 0198 30B5     		push	{r4, r5, lr}
 1185              		.cfi_def_cfa_offset 12
 1186              		.cfi_offset 4, -12
 1187              		.cfi_offset 5, -8
 1188              		.cfi_offset 14, -4
 1189 019a A9B0     		sub	sp, sp, #164
 1190              		.cfi_def_cfa_offset 176
 1191 019c 0190     		str	r0, [sp, #4]
ARM GAS  /tmp/ccmrze6z.s 			page 22


 1192              	.LBB36:
 1193              		.loc 12 100 0
 1194 019e 019B     		ldr	r3, [sp, #4]
 1195 01a0 2793     		str	r3, [sp, #156]
 1196              		.loc 12 101 0
 1197 01a2 1FAB     		add	r3, sp, #124
 1198 01a4 1846     		mov	r0, r3
 1199 01a6 1E49     		ldr	r1, .L77
 1200 01a8 0122     		movs	r2, #1
 1201 01aa FFF7FEFF 		bl	_ZN3r2p4NodeC1EPKcb
 1202              		.loc 12 102 0
 1203 01ae 03AB     		add	r3, sp, #12
 1204 01b0 1846     		mov	r0, r3
 1205 01b2 1C49     		ldr	r1, .L77+4
 1206 01b4 FFF7FEFF 		bl	_ZN3r2p10SubscriberINS_6LedMsgELj5EEC1EPFbRKS1_E
 1207              		.loc 12 104 0
 1208 01b8 279B     		ldr	r3, [sp, #156]
 1209 01ba 002B     		cmp	r3, #0
 1210 01bc 01D1     		bne	.L75
 1211              		.loc 12 104 0 is_stmt 0 discriminator 1
 1212 01be 1A4B     		ldr	r3, .L77+8
 1213 01c0 2793     		str	r3, [sp, #156]
 1214              	.L75:
 1215              		.loc 12 106 0 is_stmt 1
 1216 01c2 279B     		ldr	r3, [sp, #156]
 1217 01c4 1B68     		ldr	r3, [r3]
 1218 01c6 1FA9     		add	r1, sp, #124
 1219 01c8 03AA     		add	r2, sp, #12
 1220 01ca 0846     		mov	r0, r1
 1221 01cc 1146     		mov	r1, r2
 1222 01ce 1A46     		mov	r2, r3
 1223 01d0 FFF7FEFF 		bl	_ZN3r2p4Node9subscribeINS_6LedMsgELj5EEEbRNS_10SubscriberIT_XT0_EEEPKc
 1224              	.L76:
 1225              		.loc 12 109 0
 1226 01d4 26AB     		add	r3, sp, #152
 1227 01d6 1846     		mov	r0, r3
 1228 01d8 4FF4FA61 		mov	r1, #2000
 1229 01dc FFF7FEFF 		bl	_ZN3r2p4Time2msEl
 1230 01e0 1FAA     		add	r2, sp, #124
 1231 01e2 26AB     		add	r3, sp, #152
 1232 01e4 1046     		mov	r0, r2
 1233 01e6 1946     		mov	r1, r3
 1234 01e8 FFF7FEFF 		bl	_ZN3r2p4Node4spinERKNS_4TimeE
 1235 01ec 0346     		mov	r3, r0
 1236 01ee 83F00103 		eor	r3, r3, #1
 1237 01f2 DBB2     		uxtb	r3, r3
 1238 01f4 002B     		cmp	r3, #0
 1239 01f6 EDD0     		beq	.L76
 1240              		.loc 12 110 0
 1241 01f8 0420     		movs	r0, #4
 1242 01fa FFF7FEFF 		bl	_ZN3r2p8led2gpioEj
 1243 01fe 0546     		mov	r5, r0
 1244 0200 0420     		movs	r0, #4
 1245 0202 FFF7FEFF 		bl	_ZN3r2p8led2gpioEj
 1246 0206 0346     		mov	r3, r0
 1247 0208 5C69     		ldr	r4, [r3, #20]
 1248 020a 0420     		movs	r0, #4
ARM GAS  /tmp/ccmrze6z.s 			page 23


 1249 020c FFF7FEFF 		bl	_ZN3r2p7led2pinEj
 1250 0210 0346     		mov	r3, r0
 1251 0212 1A46     		mov	r2, r3
 1252 0214 0123     		movs	r3, #1
 1253 0216 9340     		lsls	r3, r3, r2
 1254 0218 6340     		eors	r3, r3, r4
 1255 021a 6B61     		str	r3, [r5, #20]
 1256 021c DAE7     		b	.L76
 1257              	.L78:
 1258 021e 00BF     		.align	2
 1259              	.L77:
 1260 0220 20000000 		.word	.LC3
 1261 0224 00000000 		.word	_ZN3r2p8callbackERKNS_6LedMsgE
 1262 0228 00000000 		.word	_ZN3r2p19default_ledsub_confE
 1263              	.LBE36:
 1264              		.cfi_endproc
 1265              	.LFE683:
 1266              		.size	_ZN3r2p11ledsub_nodeEPv, .-_ZN3r2p11ledsub_nodeEPv
 1267              		.section	.text._ZN3r2p4TimeC2IlEET_,"axG",%progbits,_ZN3r2p4TimeC5IlEET_,comdat
 1268              		.align	2
 1269              		.weak	_ZN3r2p4TimeC2IlEET_
 1270              		.thumb
 1271              		.thumb_func
 1272              		.type	_ZN3r2p4TimeC2IlEET_, %function
 1273              	_ZN3r2p4TimeC2IlEET_:
 1274              	.LFB685:
 1275              		.loc 4 159 0
 1276              		.cfi_startproc
 1277              		@ args = 0, pretend = 0, frame = 8
 1278              		@ frame_needed = 0, uses_anonymous_args = 0
 1279              		@ link register save eliminated.
 1280 0000 82B0     		sub	sp, sp, #8
 1281              		.cfi_def_cfa_offset 8
 1282 0002 0190     		str	r0, [sp, #4]
 1283 0004 0091     		str	r1, [sp]
 1284              	.LBB37:
 1285              		.loc 4 161 0
 1286 0006 019B     		ldr	r3, [sp, #4]
 1287 0008 009A     		ldr	r2, [sp]
 1288 000a 1A60     		str	r2, [r3]
 1289              	.LBE37:
 1290              		.loc 4 162 0
 1291 000c 019B     		ldr	r3, [sp, #4]
 1292 000e 1846     		mov	r0, r3
 1293 0010 02B0     		add	sp, sp, #8
 1294              		.cfi_def_cfa_offset 0
 1295              		@ sp needed
 1296 0012 7047     		bx	lr
 1297              		.cfi_endproc
 1298              	.LFE685:
 1299              		.size	_ZN3r2p4TimeC2IlEET_, .-_ZN3r2p4TimeC2IlEET_
 1300              		.weak	_ZN3r2p4TimeC1IlEET_
 1301              		.thumb_set _ZN3r2p4TimeC1IlEET_,_ZN3r2p4TimeC2IlEET_
 1302              		.section	.text._ZNK3r2p10ArrayQueueIPNS_7MessageEE10get_lengthEv,"axG",%progbits,_ZNK3r2p10ArrayQu
 1303              		.align	2
 1304              		.weak	_ZNK3r2p10ArrayQueueIPNS_7MessageEE10get_lengthEv
 1305              		.thumb
ARM GAS  /tmp/ccmrze6z.s 			page 24


 1306              		.thumb_func
 1307              		.type	_ZNK3r2p10ArrayQueueIPNS_7MessageEE10get_lengthEv, %function
 1308              	_ZNK3r2p10ArrayQueueIPNS_7MessageEE10get_lengthEv:
 1309              	.LFB693:
 1310              		.file 13 "/opt/R2P/core/Middleware/include/r2p/ArrayQueue.hpp"
 1311              		.loc 13 81 0
 1312              		.cfi_startproc
 1313              		@ args = 0, pretend = 0, frame = 8
 1314              		@ frame_needed = 0, uses_anonymous_args = 0
 1315              		@ link register save eliminated.
 1316 0000 82B0     		sub	sp, sp, #8
 1317              		.cfi_def_cfa_offset 8
 1318 0002 0190     		str	r0, [sp, #4]
 1319              		.loc 13 83 0
 1320 0004 019B     		ldr	r3, [sp, #4]
 1321 0006 5B68     		ldr	r3, [r3, #4]
 1322              		.loc 13 84 0
 1323 0008 1846     		mov	r0, r3
 1324 000a 02B0     		add	sp, sp, #8
 1325              		.cfi_def_cfa_offset 0
 1326              		@ sp needed
 1327 000c 7047     		bx	lr
 1328              		.cfi_endproc
 1329              	.LFE693:
 1330              		.size	_ZNK3r2p10ArrayQueueIPNS_7MessageEE10get_lengthEv, .-_ZNK3r2p10ArrayQueueIPNS_7MessageEE10ge
 1331 000e 00BF     		.section	.text._ZN3r2p10ArrayQueueIPNS_7MessageEE12fetch_unsafeERS2_,"axG",%progbits,_ZN3r2p10Arra
 1332              		.align	2
 1333              		.weak	_ZN3r2p10ArrayQueueIPNS_7MessageEE12fetch_unsafeERS2_
 1334              		.thumb
 1335              		.thumb_func
 1336              		.type	_ZN3r2p10ArrayQueueIPNS_7MessageEE12fetch_unsafeERS2_, %function
 1337              	_ZN3r2p10ArrayQueueIPNS_7MessageEE12fetch_unsafeERS2_:
 1338              	.LFB694:
 1339              		.loc 13 52 0
 1340              		.cfi_startproc
 1341              		@ args = 0, pretend = 0, frame = 8
 1342              		@ frame_needed = 0, uses_anonymous_args = 0
 1343              		@ link register save eliminated.
 1344 0000 82B0     		sub	sp, sp, #8
 1345              		.cfi_def_cfa_offset 8
 1346 0002 0190     		str	r0, [sp, #4]
 1347 0004 0091     		str	r1, [sp]
 1348              		.loc 13 54 0
 1349 0006 019B     		ldr	r3, [sp, #4]
 1350 0008 9B68     		ldr	r3, [r3, #8]
 1351 000a 002B     		cmp	r3, #0
 1352 000c 23D0     		beq	.L85
 1353              		.loc 13 55 0
 1354 000e 019B     		ldr	r3, [sp, #4]
 1355 0010 9B68     		ldr	r3, [r3, #8]
 1356 0012 5A1E     		subs	r2, r3, #1
 1357 0014 019B     		ldr	r3, [sp, #4]
 1358 0016 9A60     		str	r2, [r3, #8]
 1359              		.loc 13 56 0
 1360 0018 019B     		ldr	r3, [sp, #4]
 1361 001a DB68     		ldr	r3, [r3, #12]
 1362 001c 1A68     		ldr	r2, [r3]
ARM GAS  /tmp/ccmrze6z.s 			page 25


 1363 001e 009B     		ldr	r3, [sp]
 1364 0020 1A60     		str	r2, [r3]
 1365              		.loc 13 57 0
 1366 0022 019B     		ldr	r3, [sp, #4]
 1367 0024 DB68     		ldr	r3, [r3, #12]
 1368 0026 1A1D     		adds	r2, r3, #4
 1369 0028 019B     		ldr	r3, [sp, #4]
 1370 002a DA60     		str	r2, [r3, #12]
 1371 002c 019B     		ldr	r3, [sp, #4]
 1372 002e DA68     		ldr	r2, [r3, #12]
 1373 0030 019B     		ldr	r3, [sp, #4]
 1374 0032 1968     		ldr	r1, [r3]
 1375 0034 019B     		ldr	r3, [sp, #4]
 1376 0036 5B68     		ldr	r3, [r3, #4]
 1377 0038 9B00     		lsls	r3, r3, #2
 1378 003a 0B44     		add	r3, r3, r1
 1379 003c 9A42     		cmp	r2, r3
 1380 003e 2CBF     		ite	cs
 1381 0040 0123     		movcs	r3, #1
 1382 0042 0023     		movcc	r3, #0
 1383 0044 DBB2     		uxtb	r3, r3
 1384 0046 002B     		cmp	r3, #0
 1385 0048 03D0     		beq	.L86
 1386              		.loc 13 58 0
 1387 004a 019B     		ldr	r3, [sp, #4]
 1388 004c 1A68     		ldr	r2, [r3]
 1389 004e 019B     		ldr	r3, [sp, #4]
 1390 0050 DA60     		str	r2, [r3, #12]
 1391              	.L86:
 1392              		.loc 13 60 0
 1393 0052 0123     		movs	r3, #1
 1394 0054 00E0     		b	.L87
 1395              	.L85:
 1396              		.loc 13 62 0
 1397 0056 0023     		movs	r3, #0
 1398              	.L87:
 1399              		.loc 13 63 0
 1400 0058 1846     		mov	r0, r3
 1401 005a 02B0     		add	sp, sp, #8
 1402              		.cfi_def_cfa_offset 0
 1403              		@ sp needed
 1404 005c 7047     		bx	lr
 1405              		.cfi_endproc
 1406              	.LFE694:
 1407              		.size	_ZN3r2p10ArrayQueueIPNS_7MessageEE12fetch_unsafeERS2_, .-_ZN3r2p10ArrayQueueIPNS_7MessageEE1
 1408 005e 00BF     		.section	.text._ZN3r2p10ArrayQueueIPNS_7MessageEE11post_unsafeES2_,"axG",%progbits,_ZN3r2p10ArrayQ
 1409              		.align	2
 1410              		.weak	_ZN3r2p10ArrayQueueIPNS_7MessageEE11post_unsafeES2_
 1411              		.thumb
 1412              		.thumb_func
 1413              		.type	_ZN3r2p10ArrayQueueIPNS_7MessageEE11post_unsafeES2_, %function
 1414              	_ZN3r2p10ArrayQueueIPNS_7MessageEE11post_unsafeES2_:
 1415              	.LFB695:
 1416              		.loc 13 37 0
 1417              		.cfi_startproc
 1418              		@ args = 0, pretend = 0, frame = 8
 1419              		@ frame_needed = 0, uses_anonymous_args = 0
ARM GAS  /tmp/ccmrze6z.s 			page 26


 1420              		@ link register save eliminated.
 1421 0000 82B0     		sub	sp, sp, #8
 1422              		.cfi_def_cfa_offset 8
 1423 0002 0190     		str	r0, [sp, #4]
 1424 0004 0091     		str	r1, [sp]
 1425              		.loc 13 39 0
 1426 0006 019B     		ldr	r3, [sp, #4]
 1427 0008 9A68     		ldr	r2, [r3, #8]
 1428 000a 019B     		ldr	r3, [sp, #4]
 1429 000c 5B68     		ldr	r3, [r3, #4]
 1430 000e 9A42     		cmp	r2, r3
 1431 0010 22D2     		bcs	.L89
 1432              		.loc 13 40 0
 1433 0012 019B     		ldr	r3, [sp, #4]
 1434 0014 9B68     		ldr	r3, [r3, #8]
 1435 0016 5A1C     		adds	r2, r3, #1
 1436 0018 019B     		ldr	r3, [sp, #4]
 1437 001a 9A60     		str	r2, [r3, #8]
 1438              		.loc 13 41 0
 1439 001c 019B     		ldr	r3, [sp, #4]
 1440 001e 1B69     		ldr	r3, [r3, #16]
 1441 0020 009A     		ldr	r2, [sp]
 1442 0022 1A60     		str	r2, [r3]
 1443              		.loc 13 42 0
 1444 0024 019B     		ldr	r3, [sp, #4]
 1445 0026 1B69     		ldr	r3, [r3, #16]
 1446 0028 1A1D     		adds	r2, r3, #4
 1447 002a 019B     		ldr	r3, [sp, #4]
 1448 002c 1A61     		str	r2, [r3, #16]
 1449 002e 019B     		ldr	r3, [sp, #4]
 1450 0030 1A69     		ldr	r2, [r3, #16]
 1451 0032 019B     		ldr	r3, [sp, #4]
 1452 0034 1968     		ldr	r1, [r3]
 1453 0036 019B     		ldr	r3, [sp, #4]
 1454 0038 5B68     		ldr	r3, [r3, #4]
 1455 003a 9B00     		lsls	r3, r3, #2
 1456 003c 0B44     		add	r3, r3, r1
 1457 003e 9A42     		cmp	r2, r3
 1458 0040 2CBF     		ite	cs
 1459 0042 0123     		movcs	r3, #1
 1460 0044 0023     		movcc	r3, #0
 1461 0046 DBB2     		uxtb	r3, r3
 1462 0048 002B     		cmp	r3, #0
 1463 004a 03D0     		beq	.L90
 1464              		.loc 13 43 0
 1465 004c 019B     		ldr	r3, [sp, #4]
 1466 004e 1A68     		ldr	r2, [r3]
 1467 0050 019B     		ldr	r3, [sp, #4]
 1468 0052 1A61     		str	r2, [r3, #16]
 1469              	.L90:
 1470              		.loc 13 45 0
 1471 0054 0123     		movs	r3, #1
 1472 0056 00E0     		b	.L91
 1473              	.L89:
 1474              		.loc 13 47 0
 1475 0058 0023     		movs	r3, #0
 1476              	.L91:
ARM GAS  /tmp/ccmrze6z.s 			page 27


 1477              		.loc 13 48 0
 1478 005a 1846     		mov	r0, r3
 1479 005c 02B0     		add	sp, sp, #8
 1480              		.cfi_def_cfa_offset 0
 1481              		@ sp needed
 1482 005e 7047     		bx	lr
 1483              		.cfi_endproc
 1484              	.LFE695:
 1485              		.size	_ZN3r2p10ArrayQueueIPNS_7MessageEE11post_unsafeES2_, .-_ZN3r2p10ArrayQueueIPNS_7MessageEE11p
 1486              		.section	.text._ZN3r2p9PublisherINS_6LedMsgEEC2Ev,"axG",%progbits,_ZN3r2p9PublisherINS_6LedMsgEEC5
 1487              		.align	2
 1488              		.weak	_ZN3r2p9PublisherINS_6LedMsgEEC2Ev
 1489              		.thumb
 1490              		.thumb_func
 1491              		.type	_ZN3r2p9PublisherINS_6LedMsgEEC2Ev, %function
 1492              	_ZN3r2p9PublisherINS_6LedMsgEEC2Ev:
 1493              	.LFB707:
 1494              		.file 14 "/opt/R2P/core/Middleware/include/r2p/Publisher.hpp"
 1495              		.loc 14 47 0
 1496              		.cfi_startproc
 1497              		@ args = 0, pretend = 0, frame = 8
 1498              		@ frame_needed = 0, uses_anonymous_args = 0
 1499 0000 00B5     		push	{lr}
 1500              		.cfi_def_cfa_offset 4
 1501              		.cfi_offset 14, -4
 1502 0002 83B0     		sub	sp, sp, #12
 1503              		.cfi_def_cfa_offset 16
 1504 0004 0190     		str	r0, [sp, #4]
 1505              	.LBB38:
 1506              		.loc 14 47 0
 1507 0006 019B     		ldr	r3, [sp, #4]
 1508 0008 1846     		mov	r0, r3
 1509 000a FFF7FEFF 		bl	_ZN3r2p14LocalPublisherC2Ev
 1510 000e 019B     		ldr	r3, [sp, #4]
 1511 0010 034A     		ldr	r2, .L95
 1512 0012 1A60     		str	r2, [r3]
 1513              	.LBE38:
 1514              		.loc 14 50 0
 1515 0014 019B     		ldr	r3, [sp, #4]
 1516 0016 1846     		mov	r0, r3
 1517 0018 03B0     		add	sp, sp, #12
 1518              		.cfi_def_cfa_offset 4
 1519              		@ sp needed
 1520 001a 5DF804FB 		ldr	pc, [sp], #4
 1521              	.L96:
 1522 001e 00BF     		.align	2
 1523              	.L95:
 1524 0020 08000000 		.word	_ZTVN3r2p9PublisherINS_6LedMsgEEE+8
 1525              		.cfi_endproc
 1526              	.LFE707:
 1527              		.size	_ZN3r2p9PublisherINS_6LedMsgEEC2Ev, .-_ZN3r2p9PublisherINS_6LedMsgEEC2Ev
 1528              		.weak	_ZN3r2p9PublisherINS_6LedMsgEEC1Ev
 1529              		.thumb_set _ZN3r2p9PublisherINS_6LedMsgEEC1Ev,_ZN3r2p9PublisherINS_6LedMsgEEC2Ev
 1530              		.section	.text._ZN3r2p9PublisherINS_6LedMsgEED2Ev,"axG",%progbits,_ZN3r2p9PublisherINS_6LedMsgEED5
 1531              		.align	2
 1532              		.weak	_ZN3r2p9PublisherINS_6LedMsgEED2Ev
 1533              		.thumb
ARM GAS  /tmp/ccmrze6z.s 			page 28


 1534              		.thumb_func
 1535              		.type	_ZN3r2p9PublisherINS_6LedMsgEED2Ev, %function
 1536              	_ZN3r2p9PublisherINS_6LedMsgEED2Ev:
 1537              	.LFB710:
 1538              		.loc 14 54 0
 1539              		.cfi_startproc
 1540              		@ args = 0, pretend = 0, frame = 8
 1541              		@ frame_needed = 0, uses_anonymous_args = 0
 1542 0000 00B5     		push	{lr}
 1543              		.cfi_def_cfa_offset 4
 1544              		.cfi_offset 14, -4
 1545 0002 83B0     		sub	sp, sp, #12
 1546              		.cfi_def_cfa_offset 16
 1547 0004 0190     		str	r0, [sp, #4]
 1548              	.LBB39:
 1549              		.loc 14 57 0
 1550 0006 019B     		ldr	r3, [sp, #4]
 1551 0008 084A     		ldr	r2, .L101
 1552 000a 1A60     		str	r2, [r3]
 1553 000c 019B     		ldr	r3, [sp, #4]
 1554 000e 1846     		mov	r0, r3
 1555 0010 FFF7FEFF 		bl	_ZN3r2p14LocalPublisherD2Ev
 1556              	.LBE39:
 1557 0014 0023     		movs	r3, #0
 1558 0016 002B     		cmp	r3, #0
 1559 0018 02D0     		beq	.L99
 1560              		.loc 14 57 0 is_stmt 0 discriminator 2
 1561 001a 0198     		ldr	r0, [sp, #4]
 1562 001c FFF7FEFF 		bl	_ZdlPv
 1563              	.L99:
 1564              		.loc 14 57 0 discriminator 4
 1565 0020 019B     		ldr	r3, [sp, #4]
 1566 0022 1846     		mov	r0, r3
 1567 0024 03B0     		add	sp, sp, #12
 1568              		.cfi_def_cfa_offset 4
 1569              		@ sp needed
 1570 0026 5DF804FB 		ldr	pc, [sp], #4
 1571              	.L102:
 1572 002a 00BF     		.align	2
 1573              	.L101:
 1574 002c 08000000 		.word	_ZTVN3r2p9PublisherINS_6LedMsgEEE+8
 1575              		.cfi_endproc
 1576              	.LFE710:
 1577              		.size	_ZN3r2p9PublisherINS_6LedMsgEED2Ev, .-_ZN3r2p9PublisherINS_6LedMsgEED2Ev
 1578              		.weak	_ZN3r2p9PublisherINS_6LedMsgEED1Ev
 1579              		.thumb_set _ZN3r2p9PublisherINS_6LedMsgEED1Ev,_ZN3r2p9PublisherINS_6LedMsgEED2Ev
 1580              		.section	.text._ZN3r2p9PublisherINS_6LedMsgEED0Ev,"axG",%progbits,_ZN3r2p9PublisherINS_6LedMsgEED5
 1581              		.align	2
 1582              		.weak	_ZN3r2p9PublisherINS_6LedMsgEED0Ev
 1583              		.thumb
 1584              		.thumb_func
 1585              		.type	_ZN3r2p9PublisherINS_6LedMsgEED0Ev, %function
 1586              	_ZN3r2p9PublisherINS_6LedMsgEED0Ev:
 1587              	.LFB712:
 1588              		.loc 14 54 0 is_stmt 1
 1589              		.cfi_startproc
 1590              		@ args = 0, pretend = 0, frame = 8
ARM GAS  /tmp/ccmrze6z.s 			page 29


 1591              		@ frame_needed = 0, uses_anonymous_args = 0
 1592 0000 00B5     		push	{lr}
 1593              		.cfi_def_cfa_offset 4
 1594              		.cfi_offset 14, -4
 1595 0002 83B0     		sub	sp, sp, #12
 1596              		.cfi_def_cfa_offset 16
 1597 0004 0190     		str	r0, [sp, #4]
 1598              		.loc 14 57 0
 1599 0006 0198     		ldr	r0, [sp, #4]
 1600 0008 FFF7FEFF 		bl	_ZN3r2p9PublisherINS_6LedMsgEED1Ev
 1601 000c 0198     		ldr	r0, [sp, #4]
 1602 000e FFF7FEFF 		bl	_ZdlPv
 1603 0012 019B     		ldr	r3, [sp, #4]
 1604 0014 1846     		mov	r0, r3
 1605 0016 03B0     		add	sp, sp, #12
 1606              		.cfi_def_cfa_offset 4
 1607              		@ sp needed
 1608 0018 5DF804FB 		ldr	pc, [sp], #4
 1609              		.cfi_endproc
 1610              	.LFE712:
 1611              		.size	_ZN3r2p9PublisherINS_6LedMsgEED0Ev, .-_ZN3r2p9PublisherINS_6LedMsgEED0Ev
 1612              		.section	.text._ZN3r2p4Node9advertiseINS_6LedMsgEEEbRNS_9PublisherIT_EEPKcRKNS_4TimeE,"axG",%progb
 1613              		.align	2
 1614              		.weak	_ZN3r2p4Node9advertiseINS_6LedMsgEEEbRNS_9PublisherIT_EEPKcRKNS_4TimeE
 1615              		.thumb
 1616              		.thumb_func
 1617              		.type	_ZN3r2p4Node9advertiseINS_6LedMsgEEEbRNS_9PublisherIT_EEPKcRKNS_4TimeE, %function
 1618              	_ZN3r2p4Node9advertiseINS_6LedMsgEEEbRNS_9PublisherIT_EEPKcRKNS_4TimeE:
 1619              	.LFB713:
 1620              		.loc 9 117 0
 1621              		.cfi_startproc
 1622              		@ args = 0, pretend = 0, frame = 16
 1623              		@ frame_needed = 0, uses_anonymous_args = 0
 1624 0000 00B5     		push	{lr}
 1625              		.cfi_def_cfa_offset 4
 1626              		.cfi_offset 14, -4
 1627 0002 87B0     		sub	sp, sp, #28
 1628              		.cfi_def_cfa_offset 32
 1629 0004 0590     		str	r0, [sp, #20]
 1630 0006 0491     		str	r1, [sp, #16]
 1631 0008 0392     		str	r2, [sp, #12]
 1632 000a 0293     		str	r3, [sp, #8]
 1633              		.loc 9 120 0
 1634 000c 049A     		ldr	r2, [sp, #16]
 1635 000e 0723     		movs	r3, #7
 1636 0010 0093     		str	r3, [sp]
 1637 0012 0598     		ldr	r0, [sp, #20]
 1638 0014 1146     		mov	r1, r2
 1639 0016 039A     		ldr	r2, [sp, #12]
 1640 0018 029B     		ldr	r3, [sp, #8]
 1641 001a FFF7FEFF 		bl	_ZN3r2p4Node9advertiseERNS_14LocalPublisherEPKcRKNS_4TimeEj
 1642 001e 0346     		mov	r3, r0
 1643              		.loc 9 121 0
 1644 0020 1846     		mov	r0, r3
 1645 0022 07B0     		add	sp, sp, #28
 1646              		.cfi_def_cfa_offset 4
 1647              		@ sp needed
ARM GAS  /tmp/ccmrze6z.s 			page 30


 1648 0024 5DF804FB 		ldr	pc, [sp], #4
 1649              		.cfi_endproc
 1650              	.LFE713:
 1651              		.size	_ZN3r2p4Node9advertiseINS_6LedMsgEEEbRNS_9PublisherIT_EEPKcRKNS_4TimeE, .-_ZN3r2p4Node9adver
 1652              		.section	.text._ZN3r2p9PublisherINS_6LedMsgEE5allocERPS1_,"axG",%progbits,_ZN3r2p9PublisherINS_6Le
 1653              		.align	2
 1654              		.weak	_ZN3r2p9PublisherINS_6LedMsgEE5allocERPS1_
 1655              		.thumb
 1656              		.thumb_func
 1657              		.type	_ZN3r2p9PublisherINS_6LedMsgEE5allocERPS1_, %function
 1658              	_ZN3r2p9PublisherINS_6LedMsgEE5allocERPS1_:
 1659              	.LFB714:
 1660              		.loc 14 25 0
 1661              		.cfi_startproc
 1662              		@ args = 0, pretend = 0, frame = 8
 1663              		@ frame_needed = 0, uses_anonymous_args = 0
 1664 0000 00B5     		push	{lr}
 1665              		.cfi_def_cfa_offset 4
 1666              		.cfi_offset 14, -4
 1667 0002 83B0     		sub	sp, sp, #12
 1668              		.cfi_def_cfa_offset 16
 1669 0004 0190     		str	r0, [sp, #4]
 1670 0006 0091     		str	r1, [sp]
 1671              		.loc 14 28 0
 1672 0008 019B     		ldr	r3, [sp, #4]
 1673 000a 1846     		mov	r0, r3
 1674 000c 0099     		ldr	r1, [sp]
 1675 000e FFF7FEFF 		bl	_ZN3r2p13BasePublisher5allocERPNS_7MessageE
 1676 0012 0346     		mov	r3, r0
 1677              		.loc 14 29 0
 1678 0014 1846     		mov	r0, r3
 1679 0016 03B0     		add	sp, sp, #12
 1680              		.cfi_def_cfa_offset 4
 1681              		@ sp needed
 1682 0018 5DF804FB 		ldr	pc, [sp], #4
 1683              		.cfi_endproc
 1684              	.LFE714:
 1685              		.size	_ZN3r2p9PublisherINS_6LedMsgEE5allocERPS1_, .-_ZN3r2p9PublisherINS_6LedMsgEE5allocERPS1_
 1686              		.section	.text._ZN3r2p9PublisherINS_6LedMsgEE7publishERS1_,"axG",%progbits,_ZN3r2p9PublisherINS_6L
 1687              		.align	2
 1688              		.weak	_ZN3r2p9PublisherINS_6LedMsgEE7publishERS1_
 1689              		.thumb
 1690              		.thumb_func
 1691              		.type	_ZN3r2p9PublisherINS_6LedMsgEE7publishERS1_, %function
 1692              	_ZN3r2p9PublisherINS_6LedMsgEE7publishERS1_:
 1693              	.LFB715:
 1694              		.loc 14 33 0
 1695              		.cfi_startproc
 1696              		@ args = 0, pretend = 0, frame = 8
 1697              		@ frame_needed = 0, uses_anonymous_args = 0
 1698 0000 00B5     		push	{lr}
 1699              		.cfi_def_cfa_offset 4
 1700              		.cfi_offset 14, -4
 1701 0002 83B0     		sub	sp, sp, #12
 1702              		.cfi_def_cfa_offset 16
 1703 0004 0190     		str	r0, [sp, #4]
 1704 0006 0091     		str	r1, [sp]
ARM GAS  /tmp/ccmrze6z.s 			page 31


 1705              		.loc 14 36 0
 1706 0008 019A     		ldr	r2, [sp, #4]
 1707 000a 009B     		ldr	r3, [sp]
 1708 000c 1046     		mov	r0, r2
 1709 000e 1946     		mov	r1, r3
 1710 0010 FFF7FEFF 		bl	_ZN3r2p13BasePublisher7publishERNS_7MessageE
 1711 0014 0346     		mov	r3, r0
 1712              		.loc 14 37 0
 1713 0016 1846     		mov	r0, r3
 1714 0018 03B0     		add	sp, sp, #12
 1715              		.cfi_def_cfa_offset 4
 1716              		@ sp needed
 1717 001a 5DF804FB 		ldr	pc, [sp], #4
 1718              		.cfi_endproc
 1719              	.LFE715:
 1720              		.size	_ZN3r2p9PublisherINS_6LedMsgEE7publishERS1_, .-_ZN3r2p9PublisherINS_6LedMsgEE7publishERS1_
 1721 001e 00BF     		.section	.text._ZN3r2p6LedMsgC2Ev,"axG",%progbits,_ZN3r2p6LedMsgC5Ev,comdat
 1722              		.align	2
 1723              		.weak	_ZN3r2p6LedMsgC2Ev
 1724              		.thumb
 1725              		.thumb_func
 1726              		.type	_ZN3r2p6LedMsgC2Ev, %function
 1727              	_ZN3r2p6LedMsgC2Ev:
 1728              	.LFB718:
 1729              		.file 15 "/opt/R2P/core/Middleware/include/r2p/msg/led.hpp"
 1730              		.loc 15 5 0
 1731              		.cfi_startproc
 1732              		@ args = 0, pretend = 0, frame = 8
 1733              		@ frame_needed = 0, uses_anonymous_args = 0
 1734 0000 00B5     		push	{lr}
 1735              		.cfi_def_cfa_offset 4
 1736              		.cfi_offset 14, -4
 1737 0002 83B0     		sub	sp, sp, #12
 1738              		.cfi_def_cfa_offset 16
 1739 0004 0190     		str	r0, [sp, #4]
 1740              	.LBB40:
 1741              		.loc 15 5 0
 1742 0006 019B     		ldr	r3, [sp, #4]
 1743 0008 1846     		mov	r0, r3
 1744 000a FFF7FEFF 		bl	_ZN3r2p7MessageC2Ev
 1745              	.LBE40:
 1746 000e 019B     		ldr	r3, [sp, #4]
 1747 0010 1846     		mov	r0, r3
 1748 0012 03B0     		add	sp, sp, #12
 1749              		.cfi_def_cfa_offset 4
 1750              		@ sp needed
 1751 0014 5DF804FB 		ldr	pc, [sp], #4
 1752              		.cfi_endproc
 1753              	.LFE718:
 1754              		.size	_ZN3r2p6LedMsgC2Ev, .-_ZN3r2p6LedMsgC2Ev
 1755              		.weak	_ZN3r2p6LedMsgC1Ev
 1756              		.thumb_set _ZN3r2p6LedMsgC1Ev,_ZN3r2p6LedMsgC2Ev
 1757              		.section	.text._ZN3r2p10SubscriberINS_6LedMsgELj5EEC2EPFbRKS1_E,"axG",%progbits,_ZN3r2p10Subscribe
 1758              		.align	2
 1759              		.weak	_ZN3r2p10SubscriberINS_6LedMsgELj5EEC2EPFbRKS1_E
 1760              		.thumb
 1761              		.thumb_func
ARM GAS  /tmp/ccmrze6z.s 			page 32


 1762              		.type	_ZN3r2p10SubscriberINS_6LedMsgELj5EEC2EPFbRKS1_E, %function
 1763              	_ZN3r2p10SubscriberINS_6LedMsgELj5EEC2EPFbRKS1_E:
 1764              	.LFB720:
 1765              		.file 16 "/opt/R2P/core/Middleware/include/r2p/Subscriber.hpp"
 1766              		.loc 16 31 0
 1767              		.cfi_startproc
 1768              		@ args = 0, pretend = 0, frame = 8
 1769              		@ frame_needed = 0, uses_anonymous_args = 0
 1770 0000 30B5     		push	{r4, r5, lr}
 1771              		.cfi_def_cfa_offset 12
 1772              		.cfi_offset 4, -12
 1773              		.cfi_offset 5, -8
 1774              		.cfi_offset 14, -4
 1775 0002 83B0     		sub	sp, sp, #12
 1776              		.cfi_def_cfa_offset 24
 1777 0004 0190     		str	r0, [sp, #4]
 1778 0006 0091     		str	r1, [sp]
 1779              	.LBB41:
 1780              		.loc 16 33 0
 1781 0008 019A     		ldr	r2, [sp, #4]
 1782 000a 019B     		ldr	r3, [sp, #4]
 1783 000c 5C33     		adds	r3, r3, #92
 1784 000e 1046     		mov	r0, r2
 1785 0010 1946     		mov	r1, r3
 1786 0012 0522     		movs	r2, #5
 1787 0014 009B     		ldr	r3, [sp]
 1788 0016 FFF7FEFF 		bl	_ZN3r2p16SubscriberExtBufINS_6LedMsgEEC2EPPS1_jPFbRKS1_E
 1789 001a 019B     		ldr	r3, [sp, #4]
 1790 001c 094A     		ldr	r2, .L120
 1791 001e 1A60     		str	r2, [r3]
 1792 0020 019B     		ldr	r3, [sp, #4]
 1793 0022 3833     		adds	r3, r3, #56
 1794 0024 0424     		movs	r4, #4
 1795 0026 1D46     		mov	r5, r3
 1796 0028 04E0     		b	.L116
 1797              	.L117:
 1798              		.loc 16 33 0 is_stmt 0 discriminator 3
 1799 002a 2846     		mov	r0, r5
 1800 002c FFF7FEFF 		bl	_ZN3r2p6LedMsgC1Ev
 1801 0030 0735     		adds	r5, r5, #7
 1802 0032 013C     		subs	r4, r4, #1
 1803              	.L116:
 1804              		.loc 16 33 0 discriminator 1
 1805 0034 B4F1FF3F 		cmp	r4, #-1
 1806 0038 F7D1     		bne	.L117
 1807              	.LBE41:
 1808              		.loc 16 34 0 is_stmt 1 discriminator 4
 1809 003a 019B     		ldr	r3, [sp, #4]
 1810 003c 1846     		mov	r0, r3
 1811 003e 03B0     		add	sp, sp, #12
 1812              		.cfi_def_cfa_offset 12
 1813              		@ sp needed
 1814 0040 30BD     		pop	{r4, r5, pc}
 1815              	.L121:
 1816 0042 00BF     		.align	2
 1817              	.L120:
 1818 0044 08000000 		.word	_ZTVN3r2p10SubscriberINS_6LedMsgELj5EEE+8
ARM GAS  /tmp/ccmrze6z.s 			page 33


 1819              		.cfi_endproc
 1820              	.LFE720:
 1821              		.size	_ZN3r2p10SubscriberINS_6LedMsgELj5EEC2EPFbRKS1_E, .-_ZN3r2p10SubscriberINS_6LedMsgELj5EEC2EP
 1822              		.weak	_ZN3r2p10SubscriberINS_6LedMsgELj5EEC1EPFbRKS1_E
 1823              		.thumb_set _ZN3r2p10SubscriberINS_6LedMsgELj5EEC1EPFbRKS1_E,_ZN3r2p10SubscriberINS_6LedMsgELj5EEC2
 1824              		.section	.text._ZN3r2p10SubscriberINS_6LedMsgELj5EED2Ev,"axG",%progbits,_ZN3r2p10SubscriberINS_6Le
 1825              		.align	2
 1826              		.weak	_ZN3r2p10SubscriberINS_6LedMsgELj5EED2Ev
 1827              		.thumb
 1828              		.thumb_func
 1829              		.type	_ZN3r2p10SubscriberINS_6LedMsgELj5EED2Ev, %function
 1830              	_ZN3r2p10SubscriberINS_6LedMsgELj5EED2Ev:
 1831              	.LFB723:
 1832              		.loc 16 38 0
 1833              		.cfi_startproc
 1834              		@ args = 0, pretend = 0, frame = 8
 1835              		@ frame_needed = 0, uses_anonymous_args = 0
 1836 0000 00B5     		push	{lr}
 1837              		.cfi_def_cfa_offset 4
 1838              		.cfi_offset 14, -4
 1839 0002 83B0     		sub	sp, sp, #12
 1840              		.cfi_def_cfa_offset 16
 1841 0004 0190     		str	r0, [sp, #4]
 1842              	.LBB42:
 1843              		.loc 16 38 0
 1844 0006 019B     		ldr	r3, [sp, #4]
 1845 0008 084A     		ldr	r2, .L126
 1846 000a 1A60     		str	r2, [r3]
 1847 000c 019B     		ldr	r3, [sp, #4]
 1848 000e 1846     		mov	r0, r3
 1849 0010 FFF7FEFF 		bl	_ZN3r2p16SubscriberExtBufINS_6LedMsgEED2Ev
 1850              	.LBE42:
 1851 0014 0023     		movs	r3, #0
 1852 0016 002B     		cmp	r3, #0
 1853 0018 02D0     		beq	.L124
 1854              		.loc 16 38 0 is_stmt 0 discriminator 2
 1855 001a 0198     		ldr	r0, [sp, #4]
 1856 001c FFF7FEFF 		bl	_ZdlPv
 1857              	.L124:
 1858              		.loc 16 38 0 discriminator 4
 1859 0020 019B     		ldr	r3, [sp, #4]
 1860 0022 1846     		mov	r0, r3
 1861 0024 03B0     		add	sp, sp, #12
 1862              		.cfi_def_cfa_offset 4
 1863              		@ sp needed
 1864 0026 5DF804FB 		ldr	pc, [sp], #4
 1865              	.L127:
 1866 002a 00BF     		.align	2
 1867              	.L126:
 1868 002c 08000000 		.word	_ZTVN3r2p10SubscriberINS_6LedMsgELj5EEE+8
 1869              		.cfi_endproc
 1870              	.LFE723:
 1871              		.size	_ZN3r2p10SubscriberINS_6LedMsgELj5EED2Ev, .-_ZN3r2p10SubscriberINS_6LedMsgELj5EED2Ev
 1872              		.weak	_ZN3r2p10SubscriberINS_6LedMsgELj5EED1Ev
 1873              		.thumb_set _ZN3r2p10SubscriberINS_6LedMsgELj5EED1Ev,_ZN3r2p10SubscriberINS_6LedMsgELj5EED2Ev
 1874              		.section	.text._ZN3r2p10SubscriberINS_6LedMsgELj5EED0Ev,"axG",%progbits,_ZN3r2p10SubscriberINS_6Le
 1875              		.align	2
ARM GAS  /tmp/ccmrze6z.s 			page 34


 1876              		.weak	_ZN3r2p10SubscriberINS_6LedMsgELj5EED0Ev
 1877              		.thumb
 1878              		.thumb_func
 1879              		.type	_ZN3r2p10SubscriberINS_6LedMsgELj5EED0Ev, %function
 1880              	_ZN3r2p10SubscriberINS_6LedMsgELj5EED0Ev:
 1881              	.LFB725:
 1882              		.loc 16 38 0 is_stmt 1
 1883              		.cfi_startproc
 1884              		@ args = 0, pretend = 0, frame = 8
 1885              		@ frame_needed = 0, uses_anonymous_args = 0
 1886 0000 00B5     		push	{lr}
 1887              		.cfi_def_cfa_offset 4
 1888              		.cfi_offset 14, -4
 1889 0002 83B0     		sub	sp, sp, #12
 1890              		.cfi_def_cfa_offset 16
 1891 0004 0190     		str	r0, [sp, #4]
 1892              		.loc 16 38 0
 1893 0006 0198     		ldr	r0, [sp, #4]
 1894 0008 FFF7FEFF 		bl	_ZN3r2p10SubscriberINS_6LedMsgELj5EED1Ev
 1895 000c 0198     		ldr	r0, [sp, #4]
 1896 000e FFF7FEFF 		bl	_ZdlPv
 1897 0012 019B     		ldr	r3, [sp, #4]
 1898 0014 1846     		mov	r0, r3
 1899 0016 03B0     		add	sp, sp, #12
 1900              		.cfi_def_cfa_offset 4
 1901              		@ sp needed
 1902 0018 5DF804FB 		ldr	pc, [sp], #4
 1903              		.cfi_endproc
 1904              	.LFE725:
 1905              		.size	_ZN3r2p10SubscriberINS_6LedMsgELj5EED0Ev, .-_ZN3r2p10SubscriberINS_6LedMsgELj5EED0Ev
 1906              		.section	.text._ZN3r2p4Node9subscribeINS_6LedMsgELj5EEEbRNS_10SubscriberIT_XT0_EEEPKc,"axG",%progb
 1907              		.align	2
 1908              		.weak	_ZN3r2p4Node9subscribeINS_6LedMsgELj5EEEbRNS_10SubscriberIT_XT0_EEEPKc
 1909              		.thumb
 1910              		.thumb_func
 1911              		.type	_ZN3r2p4Node9subscribeINS_6LedMsgELj5EEEbRNS_10SubscriberIT_XT0_EEEPKc, %function
 1912              	_ZN3r2p4Node9subscribeINS_6LedMsgELj5EEEbRNS_10SubscriberIT_XT0_EEEPKc:
 1913              	.LFB726:
 1914              		.loc 9 133 0
 1915              		.cfi_startproc
 1916              		@ args = 0, pretend = 0, frame = 16
 1917              		@ frame_needed = 0, uses_anonymous_args = 0
 1918 0000 10B5     		push	{r4, lr}
 1919              		.cfi_def_cfa_offset 8
 1920              		.cfi_offset 4, -8
 1921              		.cfi_offset 14, -4
 1922 0002 86B0     		sub	sp, sp, #24
 1923              		.cfi_def_cfa_offset 32
 1924 0004 0590     		str	r0, [sp, #20]
 1925 0006 0491     		str	r1, [sp, #16]
 1926 0008 0392     		str	r2, [sp, #12]
 1927              		.loc 9 135 0
 1928 000a 049A     		ldr	r2, [sp, #16]
 1929 000c 049B     		ldr	r3, [sp, #16]
 1930 000e 03F13804 		add	r4, r3, #56
 1931 0012 0723     		movs	r3, #7
 1932 0014 0093     		str	r3, [sp]
ARM GAS  /tmp/ccmrze6z.s 			page 35


 1933 0016 0598     		ldr	r0, [sp, #20]
 1934 0018 1146     		mov	r1, r2
 1935 001a 039A     		ldr	r2, [sp, #12]
 1936 001c 2346     		mov	r3, r4
 1937 001e FFF7FEFF 		bl	_ZN3r2p4Node9subscribeERNS_15LocalSubscriberEPKcPNS_7MessageEj
 1938 0022 0346     		mov	r3, r0
 1939              		.loc 9 136 0
 1940 0024 1846     		mov	r0, r3
 1941 0026 06B0     		add	sp, sp, #24
 1942              		.cfi_def_cfa_offset 8
 1943              		@ sp needed
 1944 0028 10BD     		pop	{r4, pc}
 1945              		.cfi_endproc
 1946              	.LFE726:
 1947              		.size	_ZN3r2p4Node9subscribeINS_6LedMsgELj5EEEbRNS_10SubscriberIT_XT0_EEEPKc, .-_ZN3r2p4Node9subsc
 1948 002a 00BF     		.section	.text._ZN3r2p16SubscriberExtBufINS_6LedMsgEEC2EPPS1_jPFbRKS1_E,"axG",%progbits,_ZN3r2p16S
 1949              		.align	2
 1950              		.weak	_ZN3r2p16SubscriberExtBufINS_6LedMsgEEC2EPPS1_jPFbRKS1_E
 1951              		.thumb
 1952              		.thumb_func
 1953              		.type	_ZN3r2p16SubscriberExtBufINS_6LedMsgEEC2EPPS1_jPFbRKS1_E, %function
 1954              	_ZN3r2p16SubscriberExtBufINS_6LedMsgEEC2EPPS1_jPFbRKS1_E:
 1955              	.LFB729:
 1956              		.file 17 "/opt/R2P/core/Middleware/include/r2p/SubscriberExtBuf.hpp"
 1957              		.loc 17 65 0
 1958              		.cfi_startproc
 1959              		@ args = 0, pretend = 0, frame = 16
 1960              		@ frame_needed = 0, uses_anonymous_args = 0
 1961 0000 00B5     		push	{lr}
 1962              		.cfi_def_cfa_offset 4
 1963              		.cfi_offset 14, -4
 1964 0002 85B0     		sub	sp, sp, #20
 1965              		.cfi_def_cfa_offset 24
 1966 0004 0390     		str	r0, [sp, #12]
 1967 0006 0291     		str	r1, [sp, #8]
 1968 0008 0192     		str	r2, [sp, #4]
 1969 000a 0093     		str	r3, [sp]
 1970              	.LBB43:
 1971              		.loc 17 69 0
 1972 000c 039B     		ldr	r3, [sp, #12]
 1973 000e 1846     		mov	r0, r3
 1974 0010 0299     		ldr	r1, [sp, #8]
 1975 0012 019A     		ldr	r2, [sp, #4]
 1976 0014 009B     		ldr	r3, [sp]
 1977 0016 FFF7FEFF 		bl	_ZN3r2p15LocalSubscriberC2EPPNS_7MessageEjPFbRKS1_E
 1978 001a 039B     		ldr	r3, [sp, #12]
 1979 001c 034A     		ldr	r2, .L136
 1980 001e 1A60     		str	r2, [r3]
 1981              	.LBE43:
 1982              		.loc 17 72 0
 1983 0020 039B     		ldr	r3, [sp, #12]
 1984 0022 1846     		mov	r0, r3
 1985 0024 05B0     		add	sp, sp, #20
 1986              		.cfi_def_cfa_offset 4
 1987              		@ sp needed
 1988 0026 5DF804FB 		ldr	pc, [sp], #4
 1989              	.L137:
ARM GAS  /tmp/ccmrze6z.s 			page 36


 1990 002a 00BF     		.align	2
 1991              	.L136:
 1992 002c 08000000 		.word	_ZTVN3r2p16SubscriberExtBufINS_6LedMsgEEE+8
 1993              		.cfi_endproc
 1994              	.LFE729:
 1995              		.size	_ZN3r2p16SubscriberExtBufINS_6LedMsgEEC2EPPS1_jPFbRKS1_E, .-_ZN3r2p16SubscriberExtBufINS_6Le
 1996              		.weak	_ZN3r2p16SubscriberExtBufINS_6LedMsgEEC1EPPS1_jPFbRKS1_E
 1997              		.thumb_set _ZN3r2p16SubscriberExtBufINS_6LedMsgEEC1EPPS1_jPFbRKS1_E,_ZN3r2p16SubscriberExtBufINS_6
 1998              		.section	.text._ZN3r2p16SubscriberExtBufINS_6LedMsgEED2Ev,"axG",%progbits,_ZN3r2p16SubscriberExtBu
 1999              		.align	2
 2000              		.weak	_ZN3r2p16SubscriberExtBufINS_6LedMsgEED2Ev
 2001              		.thumb
 2002              		.thumb_func
 2003              		.type	_ZN3r2p16SubscriberExtBufINS_6LedMsgEED2Ev, %function
 2004              	_ZN3r2p16SubscriberExtBufINS_6LedMsgEED2Ev:
 2005              	.LFB732:
 2006              		.loc 17 76 0
 2007              		.cfi_startproc
 2008              		@ args = 0, pretend = 0, frame = 8
 2009              		@ frame_needed = 0, uses_anonymous_args = 0
 2010 0000 00B5     		push	{lr}
 2011              		.cfi_def_cfa_offset 4
 2012              		.cfi_offset 14, -4
 2013 0002 83B0     		sub	sp, sp, #12
 2014              		.cfi_def_cfa_offset 16
 2015 0004 0190     		str	r0, [sp, #4]
 2016              	.LBB44:
 2017              		.loc 17 79 0
 2018 0006 019B     		ldr	r3, [sp, #4]
 2019 0008 084A     		ldr	r2, .L142
 2020 000a 1A60     		str	r2, [r3]
 2021 000c 019B     		ldr	r3, [sp, #4]
 2022 000e 1846     		mov	r0, r3
 2023 0010 FFF7FEFF 		bl	_ZN3r2p15LocalSubscriberD2Ev
 2024              	.LBE44:
 2025 0014 0023     		movs	r3, #0
 2026 0016 002B     		cmp	r3, #0
 2027 0018 02D0     		beq	.L140
 2028              		.loc 17 79 0 is_stmt 0 discriminator 2
 2029 001a 0198     		ldr	r0, [sp, #4]
 2030 001c FFF7FEFF 		bl	_ZdlPv
 2031              	.L140:
 2032              		.loc 17 79 0 discriminator 4
 2033 0020 019B     		ldr	r3, [sp, #4]
 2034 0022 1846     		mov	r0, r3
 2035 0024 03B0     		add	sp, sp, #12
 2036              		.cfi_def_cfa_offset 4
 2037              		@ sp needed
 2038 0026 5DF804FB 		ldr	pc, [sp], #4
 2039              	.L143:
 2040 002a 00BF     		.align	2
 2041              	.L142:
 2042 002c 08000000 		.word	_ZTVN3r2p16SubscriberExtBufINS_6LedMsgEEE+8
 2043              		.cfi_endproc
 2044              	.LFE732:
 2045              		.size	_ZN3r2p16SubscriberExtBufINS_6LedMsgEED2Ev, .-_ZN3r2p16SubscriberExtBufINS_6LedMsgEED2Ev
 2046              		.weak	_ZN3r2p16SubscriberExtBufINS_6LedMsgEED1Ev
ARM GAS  /tmp/ccmrze6z.s 			page 37


 2047              		.thumb_set _ZN3r2p16SubscriberExtBufINS_6LedMsgEED1Ev,_ZN3r2p16SubscriberExtBufINS_6LedMsgEED2Ev
 2048              		.section	.text._ZN3r2p16SubscriberExtBufINS_6LedMsgEED0Ev,"axG",%progbits,_ZN3r2p16SubscriberExtBu
 2049              		.align	2
 2050              		.weak	_ZN3r2p16SubscriberExtBufINS_6LedMsgEED0Ev
 2051              		.thumb
 2052              		.thumb_func
 2053              		.type	_ZN3r2p16SubscriberExtBufINS_6LedMsgEED0Ev, %function
 2054              	_ZN3r2p16SubscriberExtBufINS_6LedMsgEED0Ev:
 2055              	.LFB734:
 2056              		.loc 17 76 0 is_stmt 1
 2057              		.cfi_startproc
 2058              		@ args = 0, pretend = 0, frame = 8
 2059              		@ frame_needed = 0, uses_anonymous_args = 0
 2060 0000 00B5     		push	{lr}
 2061              		.cfi_def_cfa_offset 4
 2062              		.cfi_offset 14, -4
 2063 0002 83B0     		sub	sp, sp, #12
 2064              		.cfi_def_cfa_offset 16
 2065 0004 0190     		str	r0, [sp, #4]
 2066              		.loc 17 79 0
 2067 0006 0198     		ldr	r0, [sp, #4]
 2068 0008 FFF7FEFF 		bl	_ZN3r2p16SubscriberExtBufINS_6LedMsgEED1Ev
 2069 000c 0198     		ldr	r0, [sp, #4]
 2070 000e FFF7FEFF 		bl	_ZdlPv
 2071 0012 019B     		ldr	r3, [sp, #4]
 2072 0014 1846     		mov	r0, r3
 2073 0016 03B0     		add	sp, sp, #12
 2074              		.cfi_def_cfa_offset 4
 2075              		@ sp needed
 2076 0018 5DF804FB 		ldr	pc, [sp], #4
 2077              		.cfi_endproc
 2078              	.LFE734:
 2079              		.size	_ZN3r2p16SubscriberExtBufINS_6LedMsgEED0Ev, .-_ZN3r2p16SubscriberExtBufINS_6LedMsgEED0Ev
 2080              		.weak	_ZTVN3r2p10SubscriberINS_6LedMsgELj5EEE
 2081              		.section	.rodata._ZTVN3r2p10SubscriberINS_6LedMsgELj5EEE,"aG",%progbits,_ZTVN3r2p10SubscriberINS_6
 2082              		.align	3
 2083              		.type	_ZTVN3r2p10SubscriberINS_6LedMsgELj5EEE, %object
 2084              		.size	_ZTVN3r2p10SubscriberINS_6LedMsgELj5EEE, 36
 2085              	_ZTVN3r2p10SubscriberINS_6LedMsgELj5EEE:
 2086 0000 00000000 		.word	0
 2087 0004 00000000 		.word	0
 2088 0008 00000000 		.word	_ZNK3r2p15LocalSubscriber16get_queue_lengthEv
 2089 000c 00000000 		.word	_ZN3r2p15LocalSubscriber13notify_unsafeERNS_7MessageERKNS_4TimeE
 2090 0010 00000000 		.word	_ZN3r2p15LocalSubscriber12fetch_unsafeERPNS_7MessageERNS_4TimeE
 2091 0014 00000000 		.word	_ZN3r2p15LocalSubscriber6notifyERNS_7MessageERKNS_4TimeE
 2092 0018 00000000 		.word	_ZN3r2p15LocalSubscriber5fetchERPNS_7MessageERNS_4TimeE
 2093 001c 00000000 		.word	_ZN3r2p10SubscriberINS_6LedMsgELj5EED1Ev
 2094 0020 00000000 		.word	_ZN3r2p10SubscriberINS_6LedMsgELj5EED0Ev
 2095              		.weak	_ZTVN3r2p16SubscriberExtBufINS_6LedMsgEEE
 2096 0024 00000000 		.section	.rodata._ZTVN3r2p16SubscriberExtBufINS_6LedMsgEEE,"aG",%progbits,_ZTVN3r2p16SubscriberExt
 2097              		.align	3
 2098              		.type	_ZTVN3r2p16SubscriberExtBufINS_6LedMsgEEE, %object
 2099              		.size	_ZTVN3r2p16SubscriberExtBufINS_6LedMsgEEE, 36
 2100              	_ZTVN3r2p16SubscriberExtBufINS_6LedMsgEEE:
 2101 0000 00000000 		.word	0
 2102 0004 00000000 		.word	0
 2103 0008 00000000 		.word	_ZNK3r2p15LocalSubscriber16get_queue_lengthEv
ARM GAS  /tmp/ccmrze6z.s 			page 38


 2104 000c 00000000 		.word	_ZN3r2p15LocalSubscriber13notify_unsafeERNS_7MessageERKNS_4TimeE
 2105 0010 00000000 		.word	_ZN3r2p15LocalSubscriber12fetch_unsafeERPNS_7MessageERNS_4TimeE
 2106 0014 00000000 		.word	_ZN3r2p15LocalSubscriber6notifyERNS_7MessageERKNS_4TimeE
 2107 0018 00000000 		.word	_ZN3r2p15LocalSubscriber5fetchERPNS_7MessageERNS_4TimeE
 2108 001c 00000000 		.word	_ZN3r2p16SubscriberExtBufINS_6LedMsgEED1Ev
 2109 0020 00000000 		.word	_ZN3r2p16SubscriberExtBufINS_6LedMsgEED0Ev
 2110              		.weak	_ZTVN3r2p9PublisherINS_6LedMsgEEE
 2111 0024 00000000 		.section	.rodata._ZTVN3r2p9PublisherINS_6LedMsgEEE,"aG",%progbits,_ZTVN3r2p9PublisherINS_6LedMsgEE
 2112              		.align	3
 2113              		.type	_ZTVN3r2p9PublisherINS_6LedMsgEEE, %object
 2114              		.size	_ZTVN3r2p9PublisherINS_6LedMsgEEE, 16
 2115              	_ZTVN3r2p9PublisherINS_6LedMsgEEE:
 2116 0000 00000000 		.word	0
 2117 0004 00000000 		.word	0
 2118 0008 00000000 		.word	_ZN3r2p9PublisherINS_6LedMsgEED1Ev
 2119 000c 00000000 		.word	_ZN3r2p9PublisherINS_6LedMsgEED0Ev
 2120              		.text
 2121              	.Letext0:
 2122              		.file 18 "/opt/R2P/tools/gcc-arm-none-eabi-4_9-2014q4/lib/gcc/arm-none-eabi/4.9.3/include/stddef.h
 2123              		.file 19 "/opt/R2P/tools/gcc-arm-none-eabi-4_9-2014q4/arm-none-eabi/include/machine/_default_types
 2124              		.file 20 "/opt/R2P/tools/gcc-arm-none-eabi-4_9-2014q4/arm-none-eabi/include/stdint.h"
 2125              		.file 21 "/opt/R2P/core/ChibiOS_2.6.5/os/ports/GCC/ARMCMx/chtypes.h"
 2126              		.file 22 "/opt/R2P/core/ChibiOS_2.6.5/os/kernel/include/chlists.h"
 2127              		.file 23 "/opt/R2P/core/ChibiOS_2.6.5/os/kernel/include/chthreads.h"
 2128              		.file 24 "/opt/R2P/core/ChibiOS_2.6.5/os/ports/GCC/ARMCMx/chcore_v7m.h"
 2129              		.file 25 "/opt/R2P/core/ChibiOS_2.6.5/os/kernel/include/chschd.h"
 2130              		.file 26 "/opt/R2P/core/ChibiOS_2.6.5/os/kernel/include/chmtx.h"
 2131              		.file 27 "/opt/R2P/core/ChibiOS_2.6.5/os/kernel/include/chmemcore.h"
 2132              		.file 28 "/opt/R2P/core/ChibiOS_2.6.5/os/kernel/include/chmempools.h"
 2133              		.file 29 "/opt/R2P/core/ChibiOS_2.6.5/os/hal/platforms/STM32/GPIOv2/pal_lld.h"
 2134              		.file 30 "/opt/R2P/tools/gcc-arm-none-eabi-4_9-2014q4/arm-none-eabi/include/c++/4.9.3/cstring"
 2135              		.file 31 "/opt/R2P/tools/gcc-arm-none-eabi-4_9-2014q4/arm-none-eabi/include/string.h"
 2136              		.file 32 "<built-in>"
 2137              		.file 33 "/opt/R2P/core/Middleware/include/r2p/Uncopyable.hpp"
 2138              		.file 34 "/opt/R2P/core/Middleware/include/r2p/StaticList.hpp"
 2139              		.file 35 "/opt/R2P/core/Middleware/include/r2p/LocalPublisher.hpp"
 2140              		.file 36 "/opt/R2P/core/Middleware/port/chibios/include/r2p/impl/Thread_.hpp"
 2141              		.file 37 "/opt/R2P/core/Middleware/include/r2p/Thread.hpp"
 2142              		.file 38 "/opt/R2P/core/Middleware/include/r2p/BaseSubscriber.hpp"
 2143              		.file 39 "/opt/R2P/core/Middleware/include/r2p/node/led.hpp"
 2144              		.file 40 "/opt/R2P/core/Middleware/include/r2p/common.hpp"
 2145              		.file 41 "/opt/R2P/core/ChibiOS_2.6.5/os/ports/common/ARMCMx/CMSIS/include/core_cm4.h"
 2146              		.file 42 "/opt/R2P/core/Middleware/port/chibios/include/r2p/impl/Flasher_.hpp"