ARM GAS  /tmp/ccLnJlre.s 			page 1


   1              		.syntax unified
   2              		.cpu cortex-m4
   3              		.fpu softvfp
   4              		.eabi_attribute 20, 1
   5              		.eabi_attribute 21, 1
   6              		.eabi_attribute 23, 3
   7              		.eabi_attribute 24, 1
   8              		.eabi_attribute 25, 1
   9              		.eabi_attribute 26, 1
  10              		.eabi_attribute 30, 6
  11              		.eabi_attribute 34, 1
  12              		.eabi_attribute 18, 4
  13              		.thumb
  14              		.file	"LocalSubscriber.cpp"
  15              		.text
  16              	.Ltext0:
  17              		.cfi_sections	.debug_frame
  18              		.section	.text._ZN3r2p10UncopyableD2Ev,"axG",%progbits,_ZN3r2p10UncopyableD5Ev,comdat
  19              		.align	2
  20              		.weak	_ZN3r2p10UncopyableD2Ev
  21              		.thumb
  22              		.thumb_func
  23              		.type	_ZN3r2p10UncopyableD2Ev, %function
  24              	_ZN3r2p10UncopyableD2Ev:
  25              	.LFB9:
  26              		.file 1 "/opt/R2P/core/Middleware/include/r2p/Uncopyable.hpp"
  27              		.loc 1 21 0
  28              		.cfi_startproc
  29              		@ args = 0, pretend = 0, frame = 8
  30              		@ frame_needed = 0, uses_anonymous_args = 0
  31              		@ link register save eliminated.
  32 0000 82B0     		sub	sp, sp, #8
  33              		.cfi_def_cfa_offset 8
  34 0002 0190     		str	r0, [sp, #4]
  35              		.loc 1 21 0
  36 0004 019B     		ldr	r3, [sp, #4]
  37 0006 1846     		mov	r0, r3
  38 0008 02B0     		add	sp, sp, #8
  39              		.cfi_def_cfa_offset 0
  40              		@ sp needed
  41 000a 7047     		bx	lr
  42              		.cfi_endproc
  43              	.LFE9:
  44              		.size	_ZN3r2p10UncopyableD2Ev, .-_ZN3r2p10UncopyableD2Ev
  45              		.weak	_ZN3r2p10UncopyableD1Ev
  46              		.thumb_set _ZN3r2p10UncopyableD1Ev,_ZN3r2p10UncopyableD2Ev
  47              		.section	.text._ZN3r2p8SysLock_7acquireEv,"axG",%progbits,_ZN3r2p8SysLock_7acquireEv,comdat
  48              		.align	2
  49              		.weak	_ZN3r2p8SysLock_7acquireEv
  50              		.thumb
  51              		.thumb_func
  52              		.type	_ZN3r2p8SysLock_7acquireEv, %function
  53              	_ZN3r2p8SysLock_7acquireEv:
  54              	.LFB18:
  55              		.file 2 "/opt/R2P/core/Middleware/port/chibios/include/r2p/impl/SysLock_.hpp"
  56              		.loc 2 20 0
  57              		.cfi_startproc
ARM GAS  /tmp/ccLnJlre.s 			page 2


  58              		@ args = 0, pretend = 0, frame = 0
  59              		@ frame_needed = 0, uses_anonymous_args = 0
  60 0000 08B5     		push	{r3, lr}
  61              		.cfi_def_cfa_offset 8
  62              		.cfi_offset 3, -8
  63              		.cfi_offset 14, -4
  64              	.LBB2:
  65              	.LBB3:
  66              	.LBB4:
  67              		.loc 2 22 0
  68 0002 2023     		movs	r3, #32
  69              	@ 22 "/opt/R2P/core/Middleware/port/chibios/include/r2p/impl/SysLock_.hpp" 1
  70 0004 83F31188 		msr     BASEPRI, r3
  71              	@ 0 "" 2
  72              		.thumb
  73              	.LBE4:
  74 0008 FFF7FEFF 		bl	dbg_check_lock
  75              	.LBE3:
  76              	.LBE2:
  77              		.loc 2 23 0
  78 000c 08BD     		pop	{r3, pc}
  79              		.cfi_endproc
  80              	.LFE18:
  81              		.size	_ZN3r2p8SysLock_7acquireEv, .-_ZN3r2p8SysLock_7acquireEv
  82 000e 00BF     		.section	.text._ZN3r2p8SysLock_7releaseEv,"axG",%progbits,_ZN3r2p8SysLock_7releaseEv,comdat
  83              		.align	2
  84              		.weak	_ZN3r2p8SysLock_7releaseEv
  85              		.thumb
  86              		.thumb_func
  87              		.type	_ZN3r2p8SysLock_7releaseEv, %function
  88              	_ZN3r2p8SysLock_7releaseEv:
  89              	.LFB19:
  90              		.loc 2 27 0
  91              		.cfi_startproc
  92              		@ args = 0, pretend = 0, frame = 0
  93              		@ frame_needed = 0, uses_anonymous_args = 0
  94 0000 08B5     		push	{r3, lr}
  95              		.cfi_def_cfa_offset 8
  96              		.cfi_offset 3, -8
  97              		.cfi_offset 14, -4
  98              	.LBB5:
  99              	.LBB6:
 100              		.loc 2 29 0
 101 0002 FFF7FEFF 		bl	dbg_check_unlock
 102              	.LBB7:
 103 0006 0023     		movs	r3, #0
 104              	@ 29 "/opt/R2P/core/Middleware/port/chibios/include/r2p/impl/SysLock_.hpp" 1
 105 0008 83F31188 		msr     BASEPRI, r3
 106              	@ 0 "" 2
 107              		.thumb
 108              	.LBE7:
 109              	.LBE6:
 110              	.LBE5:
 111              		.loc 2 30 0
 112 000c 08BD     		pop	{r3, pc}
 113              		.cfi_endproc
 114              	.LFE19:
ARM GAS  /tmp/ccLnJlre.s 			page 3


 115              		.size	_ZN3r2p8SysLock_7releaseEv, .-_ZN3r2p8SysLock_7releaseEv
 116 000e 00BF     		.section	.text._ZN3r2p7SysLock7acquireEv,"axG",%progbits,_ZN3r2p7SysLock7acquireEv,comdat
 117              		.align	2
 118              		.weak	_ZN3r2p7SysLock7acquireEv
 119              		.thumb
 120              		.thumb_func
 121              		.type	_ZN3r2p7SysLock7acquireEv, %function
 122              	_ZN3r2p7SysLock7acquireEv:
 123              	.LFB26:
 124              		.file 3 "/opt/R2P/core/Middleware/include/r2p/SysLock.hpp"
 125              		.loc 3 27 0
 126              		.cfi_startproc
 127              		@ args = 0, pretend = 0, frame = 0
 128              		@ frame_needed = 0, uses_anonymous_args = 0
 129 0000 08B5     		push	{r3, lr}
 130              		.cfi_def_cfa_offset 8
 131              		.cfi_offset 3, -8
 132              		.cfi_offset 14, -4
 133              		.loc 3 29 0
 134 0002 FFF7FEFF 		bl	_ZN3r2p8SysLock_7acquireEv
 135              		.loc 3 30 0
 136 0006 08BD     		pop	{r3, pc}
 137              		.cfi_endproc
 138              	.LFE26:
 139              		.size	_ZN3r2p7SysLock7acquireEv, .-_ZN3r2p7SysLock7acquireEv
 140              		.section	.text._ZN3r2p7SysLock7releaseEv,"axG",%progbits,_ZN3r2p7SysLock7releaseEv,comdat
 141              		.align	2
 142              		.weak	_ZN3r2p7SysLock7releaseEv
 143              		.thumb
 144              		.thumb_func
 145              		.type	_ZN3r2p7SysLock7releaseEv, %function
 146              	_ZN3r2p7SysLock7releaseEv:
 147              	.LFB27:
 148              		.loc 3 34 0
 149              		.cfi_startproc
 150              		@ args = 0, pretend = 0, frame = 0
 151              		@ frame_needed = 0, uses_anonymous_args = 0
 152 0000 08B5     		push	{r3, lr}
 153              		.cfi_def_cfa_offset 8
 154              		.cfi_offset 3, -8
 155              		.cfi_offset 14, -4
 156              		.loc 3 36 0
 157 0002 FFF7FEFF 		bl	_ZN3r2p8SysLock_7releaseEv
 158              		.loc 3 37 0
 159 0006 08BD     		pop	{r3, pc}
 160              		.cfi_endproc
 161              	.LFE27:
 162              		.size	_ZN3r2p7SysLock7releaseEv, .-_ZN3r2p7SysLock7releaseEv
 163              		.section	.text._ZN3r2p4TimeaSERKS0_,"axG",%progbits,_ZN3r2p4TimeaSERKS0_,comdat
 164              		.align	2
 165              		.weak	_ZN3r2p4TimeaSERKS0_
 166              		.thumb
 167              		.thumb_func
 168              		.type	_ZN3r2p4TimeaSERKS0_, %function
 169              	_ZN3r2p4TimeaSERKS0_:
 170              	.LFB173:
 171              		.file 4 "/opt/R2P/core/Middleware/include/r2p/Time.hpp"
ARM GAS  /tmp/ccLnJlre.s 			page 4


 172              		.loc 4 131 0
 173              		.cfi_startproc
 174              		@ args = 0, pretend = 0, frame = 8
 175              		@ frame_needed = 0, uses_anonymous_args = 0
 176              		@ link register save eliminated.
 177 0000 82B0     		sub	sp, sp, #8
 178              		.cfi_def_cfa_offset 8
 179 0002 0190     		str	r0, [sp, #4]
 180 0004 0091     		str	r1, [sp]
 181              		.loc 4 133 0
 182 0006 009B     		ldr	r3, [sp]
 183 0008 1A68     		ldr	r2, [r3]
 184 000a 019B     		ldr	r3, [sp, #4]
 185 000c 1A60     		str	r2, [r3]
 186              		.loc 4 134 0
 187 000e 019B     		ldr	r3, [sp, #4]
 188              		.loc 4 135 0
 189 0010 1846     		mov	r0, r3
 190 0012 02B0     		add	sp, sp, #8
 191              		.cfi_def_cfa_offset 0
 192              		@ sp needed
 193 0014 7047     		bx	lr
 194              		.cfi_endproc
 195              	.LFE173:
 196              		.size	_ZN3r2p4TimeaSERKS0_, .-_ZN3r2p4TimeaSERKS0_
 197 0016 00BF     		.section	.text._ZNK3r2p10SpinEvent_10get_threadEv,"axG",%progbits,_ZNK3r2p10SpinEvent_10get_thread
 198              		.align	2
 199              		.weak	_ZNK3r2p10SpinEvent_10get_threadEv
 200              		.thumb
 201              		.thumb_func
 202              		.type	_ZNK3r2p10SpinEvent_10get_threadEv, %function
 203              	_ZNK3r2p10SpinEvent_10get_threadEv:
 204              	.LFB222:
 205              		.file 5 "/opt/R2P/core/Middleware/port/chibios/include/r2p/impl/SpinEvent_.hpp"
 206              		.loc 5 36 0
 207              		.cfi_startproc
 208              		@ args = 0, pretend = 0, frame = 8
 209              		@ frame_needed = 0, uses_anonymous_args = 0
 210              		@ link register save eliminated.
 211 0000 82B0     		sub	sp, sp, #8
 212              		.cfi_def_cfa_offset 8
 213 0002 0190     		str	r0, [sp, #4]
 214              		.loc 5 38 0
 215 0004 019B     		ldr	r3, [sp, #4]
 216 0006 1B68     		ldr	r3, [r3]
 217              		.loc 5 39 0
 218 0008 1846     		mov	r0, r3
 219 000a 02B0     		add	sp, sp, #8
 220              		.cfi_def_cfa_offset 0
 221              		@ sp needed
 222 000c 7047     		bx	lr
 223              		.cfi_endproc
 224              	.LFE222:
 225              		.size	_ZNK3r2p10SpinEvent_10get_threadEv, .-_ZNK3r2p10SpinEvent_10get_threadEv
 226 000e 00BF     		.section	.rodata
 227              		.align	2
 228              	.LC0:
ARM GAS  /tmp/ccLnJlre.s 			page 5


 229 0000 5232505F 		.ascii	"R2P_ASSERT()\000"
 229      41535345 
 229      52542829 
 229      00
 230              		.section	.text._ZN3r2p10SpinEvent_13signal_unsafeEj,"axG",%progbits,_ZN3r2p10SpinEvent_13signal_un
 231              		.align	2
 232              		.weak	_ZN3r2p10SpinEvent_13signal_unsafeEj
 233              		.thumb
 234              		.thumb_func
 235              		.type	_ZN3r2p10SpinEvent_13signal_unsafeEj, %function
 236              	_ZN3r2p10SpinEvent_13signal_unsafeEj:
 237              	.LFB224:
 238              		.loc 5 50 0
 239              		.cfi_startproc
 240              		@ args = 0, pretend = 0, frame = 8
 241              		@ frame_needed = 0, uses_anonymous_args = 0
 242 0000 00B5     		push	{lr}
 243              		.cfi_def_cfa_offset 4
 244              		.cfi_offset 14, -4
 245 0002 83B0     		sub	sp, sp, #12
 246              		.cfi_def_cfa_offset 16
 247 0004 0190     		str	r0, [sp, #4]
 248 0006 0091     		str	r1, [sp]
 249              		.loc 5 52 0
 250 0008 019B     		ldr	r3, [sp, #4]
 251 000a 1B68     		ldr	r3, [r3]
 252 000c 002B     		cmp	r3, #0
 253 000e 10D0     		beq	.L12
 254              		.loc 5 53 0
 255 0010 2022     		movs	r2, #32
 256 0012 009B     		ldr	r3, [sp]
 257 0014 9A42     		cmp	r2, r3
 258 0016 02D8     		bhi	.L14
 259              		.loc 5 53 0 is_stmt 0 discriminator 1
 260 0018 0748     		ldr	r0, .L15
 261 001a FFF7FEFF 		bl	chDbgPanic
 262              	.L14:
 263              		.loc 5 54 0 is_stmt 1
 264 001e 019B     		ldr	r3, [sp, #4]
 265 0020 1968     		ldr	r1, [r3]
 266 0022 009B     		ldr	r3, [sp]
 267 0024 0122     		movs	r2, #1
 268 0026 02FA03F3 		lsl	r3, r2, r3
 269 002a 0846     		mov	r0, r1
 270 002c 1946     		mov	r1, r3
 271 002e FFF7FEFF 		bl	chEvtSignalI
 272              	.L12:
 273              		.loc 5 56 0
 274 0032 03B0     		add	sp, sp, #12
 275              		.cfi_def_cfa_offset 4
 276              		@ sp needed
 277 0034 5DF804FB 		ldr	pc, [sp], #4
 278              	.L16:
 279              		.align	2
 280              	.L15:
 281 0038 00000000 		.word	.LC0
 282              		.cfi_endproc
ARM GAS  /tmp/ccLnJlre.s 			page 6


 283              	.LFE224:
 284              		.size	_ZN3r2p10SpinEvent_13signal_unsafeEj, .-_ZN3r2p10SpinEvent_13signal_unsafeEj
 285              		.section	.text._ZNK3r2p9SpinEvent10get_threadEv,"axG",%progbits,_ZNK3r2p9SpinEvent10get_threadEv,c
 286              		.align	2
 287              		.weak	_ZNK3r2p9SpinEvent10get_threadEv
 288              		.thumb
 289              		.thumb_func
 290              		.type	_ZNK3r2p9SpinEvent10get_threadEv, %function
 291              	_ZNK3r2p9SpinEvent10get_threadEv:
 292              	.LFB230:
 293              		.file 6 "/opt/R2P/core/Middleware/include/r2p/SpinEvent.hpp"
 294              		.loc 6 35 0
 295              		.cfi_startproc
 296              		@ args = 0, pretend = 0, frame = 8
 297              		@ frame_needed = 0, uses_anonymous_args = 0
 298 0000 00B5     		push	{lr}
 299              		.cfi_def_cfa_offset 4
 300              		.cfi_offset 14, -4
 301 0002 83B0     		sub	sp, sp, #12
 302              		.cfi_def_cfa_offset 16
 303 0004 0190     		str	r0, [sp, #4]
 304              		.loc 6 37 0
 305 0006 019B     		ldr	r3, [sp, #4]
 306 0008 1846     		mov	r0, r3
 307 000a FFF7FEFF 		bl	_ZNK3r2p10SpinEvent_10get_threadEv
 308 000e 0346     		mov	r3, r0
 309              		.loc 6 38 0
 310 0010 1846     		mov	r0, r3
 311 0012 03B0     		add	sp, sp, #12
 312              		.cfi_def_cfa_offset 4
 313              		@ sp needed
 314 0014 5DF804FB 		ldr	pc, [sp], #4
 315              		.cfi_endproc
 316              	.LFE230:
 317              		.size	_ZNK3r2p9SpinEvent10get_threadEv, .-_ZNK3r2p9SpinEvent10get_threadEv
 318              		.section	.text._ZN3r2p9SpinEvent13signal_unsafeEj,"axG",%progbits,_ZN3r2p9SpinEvent13signal_unsafe
 319              		.align	2
 320              		.weak	_ZN3r2p9SpinEvent13signal_unsafeEj
 321              		.thumb
 322              		.thumb_func
 323              		.type	_ZN3r2p9SpinEvent13signal_unsafeEj, %function
 324              	_ZN3r2p9SpinEvent13signal_unsafeEj:
 325              	.LFB232:
 326              		.loc 6 49 0
 327              		.cfi_startproc
 328              		@ args = 0, pretend = 0, frame = 8
 329              		@ frame_needed = 0, uses_anonymous_args = 0
 330 0000 00B5     		push	{lr}
 331              		.cfi_def_cfa_offset 4
 332              		.cfi_offset 14, -4
 333 0002 83B0     		sub	sp, sp, #12
 334              		.cfi_def_cfa_offset 16
 335 0004 0190     		str	r0, [sp, #4]
 336 0006 0091     		str	r1, [sp]
 337              		.loc 6 51 0
 338 0008 019B     		ldr	r3, [sp, #4]
 339 000a 1846     		mov	r0, r3
ARM GAS  /tmp/ccLnJlre.s 			page 7


 340 000c 0099     		ldr	r1, [sp]
 341 000e FFF7FEFF 		bl	_ZN3r2p10SpinEvent_13signal_unsafeEj
 342              		.loc 6 52 0
 343 0012 03B0     		add	sp, sp, #12
 344              		.cfi_def_cfa_offset 4
 345              		@ sp needed
 346 0014 5DF804FB 		ldr	pc, [sp], #4
 347              		.cfi_endproc
 348              	.LFE232:
 349              		.size	_ZN3r2p9SpinEvent13signal_unsafeEj, .-_ZN3r2p9SpinEvent13signal_unsafeEj
 350              		.section	.text._ZNK3r2p4Node11get_enabledEv,"axG",%progbits,_ZNK3r2p4Node11get_enabledEv,comdat
 351              		.align	2
 352              		.weak	_ZNK3r2p4Node11get_enabledEv
 353              		.thumb
 354              		.thumb_func
 355              		.type	_ZNK3r2p4Node11get_enabledEv, %function
 356              	_ZNK3r2p4Node11get_enabledEv:
 357              	.LFB262:
 358              		.file 7 "/opt/R2P/core/Middleware/include/r2p/Node.hpp"
 359              		.loc 7 103 0
 360              		.cfi_startproc
 361              		@ args = 0, pretend = 0, frame = 8
 362              		@ frame_needed = 0, uses_anonymous_args = 0
 363 0000 00B5     		push	{lr}
 364              		.cfi_def_cfa_offset 4
 365              		.cfi_offset 14, -4
 366 0002 83B0     		sub	sp, sp, #12
 367              		.cfi_def_cfa_offset 16
 368 0004 0190     		str	r0, [sp, #4]
 369              		.loc 7 105 0
 370 0006 019B     		ldr	r3, [sp, #4]
 371 0008 0C33     		adds	r3, r3, #12
 372 000a 1846     		mov	r0, r3
 373 000c FFF7FEFF 		bl	_ZNK3r2p9SpinEvent10get_threadEv
 374 0010 0346     		mov	r3, r0
 375 0012 002B     		cmp	r3, #0
 376 0014 14BF     		ite	ne
 377 0016 0123     		movne	r3, #1
 378 0018 0023     		moveq	r3, #0
 379 001a DBB2     		uxtb	r3, r3
 380              		.loc 7 106 0
 381 001c 1846     		mov	r0, r3
 382 001e 03B0     		add	sp, sp, #12
 383              		.cfi_def_cfa_offset 4
 384              		@ sp needed
 385 0020 5DF804FB 		ldr	pc, [sp], #4
 386              		.cfi_endproc
 387              	.LFE262:
 388              		.size	_ZNK3r2p4Node11get_enabledEv, .-_ZNK3r2p4Node11get_enabledEv
 389              		.section	.text._ZN3r2p4Node13notify_unsafeEj,"axG",%progbits,_ZN3r2p4Node13notify_unsafeEj,comdat
 390              		.align	2
 391              		.weak	_ZN3r2p4Node13notify_unsafeEj
 392              		.thumb
 393              		.thumb_func
 394              		.type	_ZN3r2p4Node13notify_unsafeEj, %function
 395              	_ZN3r2p4Node13notify_unsafeEj:
 396              	.LFB267:
ARM GAS  /tmp/ccLnJlre.s 			page 8


 397              		.loc 7 140 0
 398              		.cfi_startproc
 399              		@ args = 0, pretend = 0, frame = 8
 400              		@ frame_needed = 0, uses_anonymous_args = 0
 401 0000 00B5     		push	{lr}
 402              		.cfi_def_cfa_offset 4
 403              		.cfi_offset 14, -4
 404 0002 83B0     		sub	sp, sp, #12
 405              		.cfi_def_cfa_offset 16
 406 0004 0190     		str	r0, [sp, #4]
 407 0006 0091     		str	r1, [sp]
 408              		.loc 7 142 0
 409 0008 019B     		ldr	r3, [sp, #4]
 410 000a 0C33     		adds	r3, r3, #12
 411 000c 1846     		mov	r0, r3
 412 000e 0099     		ldr	r1, [sp]
 413 0010 FFF7FEFF 		bl	_ZN3r2p9SpinEvent13signal_unsafeEj
 414              		.loc 7 143 0
 415 0014 03B0     		add	sp, sp, #12
 416              		.cfi_def_cfa_offset 4
 417              		@ sp needed
 418 0016 5DF804FB 		ldr	pc, [sp], #4
 419              		.cfi_endproc
 420              	.LFE267:
 421              		.size	_ZN3r2p4Node13notify_unsafeEj, .-_ZN3r2p4Node13notify_unsafeEj
 422 001a 00BF     		.section	.text._ZNK3r2p15LocalSubscriber16get_queue_lengthEv,"axG",%progbits,_ZNK3r2p15LocalSubscr
 423              		.align	2
 424              		.weak	_ZNK3r2p15LocalSubscriber16get_queue_lengthEv
 425              		.thumb
 426              		.thumb_func
 427              		.type	_ZNK3r2p15LocalSubscriber16get_queue_lengthEv, %function
 428              	_ZNK3r2p15LocalSubscriber16get_queue_lengthEv:
 429              	.LFB273:
 430              		.file 8 "/opt/R2P/core/Middleware/include/r2p/LocalSubscriber.hpp"
 431              		.loc 8 64 0
 432              		.cfi_startproc
 433              		@ args = 0, pretend = 0, frame = 8
 434              		@ frame_needed = 0, uses_anonymous_args = 0
 435 0000 00B5     		push	{lr}
 436              		.cfi_def_cfa_offset 4
 437              		.cfi_offset 14, -4
 438 0002 83B0     		sub	sp, sp, #12
 439              		.cfi_def_cfa_offset 16
 440 0004 0190     		str	r0, [sp, #4]
 441              		.loc 8 66 0
 442 0006 019B     		ldr	r3, [sp, #4]
 443 0008 1033     		adds	r3, r3, #16
 444 000a 1846     		mov	r0, r3
 445 000c FFF7FEFF 		bl	_ZNK3r2p10ArrayQueueIPNS_7MessageEE10get_lengthEv
 446 0010 0346     		mov	r3, r0
 447              		.loc 8 67 0
 448 0012 1846     		mov	r0, r3
 449 0014 03B0     		add	sp, sp, #12
 450              		.cfi_def_cfa_offset 4
 451              		@ sp needed
 452 0016 5DF804FB 		ldr	pc, [sp], #4
 453              		.cfi_endproc
ARM GAS  /tmp/ccLnJlre.s 			page 9


 454              	.LFE273:
 455              		.size	_ZNK3r2p15LocalSubscriber16get_queue_lengthEv, .-_ZNK3r2p15LocalSubscriber16get_queue_length
 456 001a 00BF     		.section	.text._ZN3r2p15LocalSubscriber12fetch_unsafeERPNS_7MessageERNS_4TimeE,"axG",%progbits,_ZN
 457              		.align	2
 458              		.weak	_ZN3r2p15LocalSubscriber12fetch_unsafeERPNS_7MessageERNS_4TimeE
 459              		.thumb
 460              		.thumb_func
 461              		.type	_ZN3r2p15LocalSubscriber12fetch_unsafeERPNS_7MessageERNS_4TimeE, %function
 462              	_ZN3r2p15LocalSubscriber12fetch_unsafeERPNS_7MessageERNS_4TimeE:
 463              	.LFB274:
 464              		.loc 8 71 0
 465              		.cfi_startproc
 466              		@ args = 0, pretend = 0, frame = 24
 467              		@ frame_needed = 0, uses_anonymous_args = 0
 468 0000 00B5     		push	{lr}
 469              		.cfi_def_cfa_offset 4
 470              		.cfi_offset 14, -4
 471 0002 87B0     		sub	sp, sp, #28
 472              		.cfi_def_cfa_offset 32
 473 0004 0390     		str	r0, [sp, #12]
 474 0006 0291     		str	r1, [sp, #8]
 475 0008 0192     		str	r2, [sp, #4]
 476              		.loc 8 73 0
 477 000a 039B     		ldr	r3, [sp, #12]
 478 000c 1033     		adds	r3, r3, #16
 479 000e 1846     		mov	r0, r3
 480 0010 0299     		ldr	r1, [sp, #8]
 481 0012 FFF7FEFF 		bl	_ZN3r2p10ArrayQueueIPNS_7MessageEE12fetch_unsafeERS2_
 482 0016 0346     		mov	r3, r0
 483 0018 002B     		cmp	r3, #0
 484 001a 0AD0     		beq	.L26
 485              		.loc 8 74 0
 486 001c 05AB     		add	r3, sp, #20
 487 001e 1846     		mov	r0, r3
 488 0020 FFF7FEFF 		bl	_ZN3r2p4Time3nowEv
 489 0024 05AB     		add	r3, sp, #20
 490 0026 0198     		ldr	r0, [sp, #4]
 491 0028 1946     		mov	r1, r3
 492 002a FFF7FEFF 		bl	_ZN3r2p4TimeaSERKS0_
 493              		.loc 8 75 0
 494 002e 0123     		movs	r3, #1
 495 0030 00E0     		b	.L27
 496              	.L26:
 497              		.loc 8 77 0
 498 0032 0023     		movs	r3, #0
 499              	.L27:
 500              		.loc 8 78 0
 501 0034 1846     		mov	r0, r3
 502 0036 07B0     		add	sp, sp, #28
 503              		.cfi_def_cfa_offset 4
 504              		@ sp needed
 505 0038 5DF804FB 		ldr	pc, [sp], #4
 506              		.cfi_endproc
 507              	.LFE274:
 508              		.size	_ZN3r2p15LocalSubscriber12fetch_unsafeERPNS_7MessageERNS_4TimeE, .-_ZN3r2p15LocalSubscriber1
 509              		.section	.text._ZN3r2p15LocalSubscriber13notify_unsafeERNS_7MessageERKNS_4TimeE,"axG",%progbits,_Z
 510              		.align	2
ARM GAS  /tmp/ccLnJlre.s 			page 10


 511              		.weak	_ZN3r2p15LocalSubscriber13notify_unsafeERNS_7MessageERKNS_4TimeE
 512              		.thumb
 513              		.thumb_func
 514              		.type	_ZN3r2p15LocalSubscriber13notify_unsafeERNS_7MessageERKNS_4TimeE, %function
 515              	_ZN3r2p15LocalSubscriber13notify_unsafeERNS_7MessageERKNS_4TimeE:
 516              	.LFB275:
 517              		.loc 8 82 0
 518              		.cfi_startproc
 519              		@ args = 0, pretend = 0, frame = 16
 520              		@ frame_needed = 0, uses_anonymous_args = 0
 521 0000 00B5     		push	{lr}
 522              		.cfi_def_cfa_offset 4
 523              		.cfi_offset 14, -4
 524 0002 85B0     		sub	sp, sp, #20
 525              		.cfi_def_cfa_offset 24
 526 0004 0390     		str	r0, [sp, #12]
 527 0006 0291     		str	r1, [sp, #8]
 528 0008 0192     		str	r2, [sp, #4]
 529              		.loc 8 86 0
 530 000a 039B     		ldr	r3, [sp, #12]
 531 000c 9B68     		ldr	r3, [r3, #8]
 532 000e 1846     		mov	r0, r3
 533 0010 FFF7FEFF 		bl	_ZNK3r2p4Node11get_enabledEv
 534 0014 0346     		mov	r3, r0
 535 0016 002B     		cmp	r3, #0
 536 0018 0AD0     		beq	.L29
 537              		.loc 8 86 0 is_stmt 0 discriminator 1
 538 001a 039B     		ldr	r3, [sp, #12]
 539 001c 1033     		adds	r3, r3, #16
 540 001e 1846     		mov	r0, r3
 541 0020 0299     		ldr	r1, [sp, #8]
 542 0022 FFF7FEFF 		bl	_ZN3r2p10ArrayQueueIPNS_7MessageEE11post_unsafeES2_
 543 0026 0346     		mov	r3, r0
 544 0028 002B     		cmp	r3, #0
 545 002a 01D0     		beq	.L29
 546              		.loc 8 86 0 discriminator 3
 547 002c 0123     		movs	r3, #1
 548 002e 00E0     		b	.L30
 549              	.L29:
 550              		.loc 8 86 0 discriminator 4
 551 0030 0023     		movs	r3, #0
 552              	.L30:
 553              		.loc 8 86 0 discriminator 6
 554 0032 002B     		cmp	r3, #0
 555 0034 0AD0     		beq	.L31
 556              		.loc 8 87 0 is_stmt 1
 557 0036 039B     		ldr	r3, [sp, #12]
 558 0038 9A68     		ldr	r2, [r3, #8]
 559 003a 039B     		ldr	r3, [sp, #12]
 560 003c 93F82430 		ldrb	r3, [r3, #36]	@ zero_extendqisi2
 561 0040 1046     		mov	r0, r2
 562 0042 1946     		mov	r1, r3
 563 0044 FFF7FEFF 		bl	_ZN3r2p4Node13notify_unsafeEj
 564              		.loc 8 88 0
 565 0048 0123     		movs	r3, #1
 566 004a 00E0     		b	.L32
 567              	.L31:
ARM GAS  /tmp/ccLnJlre.s 			page 11


 568              		.loc 8 90 0
 569 004c 0023     		movs	r3, #0
 570              	.L32:
 571              		.loc 8 91 0
 572 004e 1846     		mov	r0, r3
 573 0050 05B0     		add	sp, sp, #20
 574              		.cfi_def_cfa_offset 4
 575              		@ sp needed
 576 0052 5DF804FB 		ldr	pc, [sp], #4
 577              		.cfi_endproc
 578              	.LFE275:
 579              		.size	_ZN3r2p15LocalSubscriber13notify_unsafeERNS_7MessageERKNS_4TimeE, .-_ZN3r2p15LocalSubscriber
 580 0056 00BF     		.text
 581              		.align	2
 582              		.global	_ZN3r2p15LocalSubscriber5fetchERPNS_7MessageE
 583              		.thumb
 584              		.thumb_func
 585              		.type	_ZN3r2p15LocalSubscriber5fetchERPNS_7MessageE, %function
 586              	_ZN3r2p15LocalSubscriber5fetchERPNS_7MessageE:
 587              	.LFB276:
 588              		.file 9 "/opt/R2P/core/Middleware/src/LocalSubscriber.cpp"
 589              		.loc 9 7 0
 590              		.cfi_startproc
 591              		@ args = 0, pretend = 0, frame = 8
 592              		@ frame_needed = 0, uses_anonymous_args = 0
 593 0000 00B5     		push	{lr}
 594              		.cfi_def_cfa_offset 4
 595              		.cfi_offset 14, -4
 596 0002 83B0     		sub	sp, sp, #12
 597              		.cfi_def_cfa_offset 16
 598 0004 0190     		str	r0, [sp, #4]
 599 0006 0091     		str	r1, [sp]
 600              		.loc 9 9 0
 601 0008 FFF7FEFF 		bl	_ZN3r2p7SysLock7acquireEv
 602              		.loc 9 10 0
 603 000c 019B     		ldr	r3, [sp, #4]
 604 000e 1033     		adds	r3, r3, #16
 605 0010 1846     		mov	r0, r3
 606 0012 0099     		ldr	r1, [sp]
 607 0014 FFF7FEFF 		bl	_ZN3r2p10ArrayQueueIPNS_7MessageEE12fetch_unsafeERS2_
 608 0018 0346     		mov	r3, r0
 609 001a 002B     		cmp	r3, #0
 610 001c 03D0     		beq	.L34
 611              		.loc 9 11 0
 612 001e FFF7FEFF 		bl	_ZN3r2p7SysLock7releaseEv
 613              		.loc 9 12 0
 614 0022 0123     		movs	r3, #1
 615 0024 02E0     		b	.L35
 616              	.L34:
 617              		.loc 9 14 0
 618 0026 FFF7FEFF 		bl	_ZN3r2p7SysLock7releaseEv
 619              		.loc 9 15 0
 620 002a 0023     		movs	r3, #0
 621              	.L35:
 622              		.loc 9 17 0
 623 002c 1846     		mov	r0, r3
 624 002e 03B0     		add	sp, sp, #12
ARM GAS  /tmp/ccLnJlre.s 			page 12


 625              		.cfi_def_cfa_offset 4
 626              		@ sp needed
 627 0030 5DF804FB 		ldr	pc, [sp], #4
 628              		.cfi_endproc
 629              	.LFE276:
 630              		.size	_ZN3r2p15LocalSubscriber5fetchERPNS_7MessageE, .-_ZN3r2p15LocalSubscriber5fetchERPNS_7Messag
 631              		.align	2
 632              		.global	_ZN3r2p15LocalSubscriber5fetchERPNS_7MessageERNS_4TimeE
 633              		.thumb
 634              		.thumb_func
 635              		.type	_ZN3r2p15LocalSubscriber5fetchERPNS_7MessageERNS_4TimeE, %function
 636              	_ZN3r2p15LocalSubscriber5fetchERPNS_7MessageERNS_4TimeE:
 637              	.LFB277:
 638              		.loc 9 20 0
 639              		.cfi_startproc
 640              		@ args = 0, pretend = 0, frame = 24
 641              		@ frame_needed = 0, uses_anonymous_args = 0
 642 0034 00B5     		push	{lr}
 643              		.cfi_def_cfa_offset 4
 644              		.cfi_offset 14, -4
 645 0036 87B0     		sub	sp, sp, #28
 646              		.cfi_def_cfa_offset 32
 647 0038 0390     		str	r0, [sp, #12]
 648 003a 0291     		str	r1, [sp, #8]
 649 003c 0192     		str	r2, [sp, #4]
 650              		.loc 9 22 0
 651 003e FFF7FEFF 		bl	_ZN3r2p7SysLock7acquireEv
 652              		.loc 9 23 0
 653 0042 039B     		ldr	r3, [sp, #12]
 654 0044 1033     		adds	r3, r3, #16
 655 0046 1846     		mov	r0, r3
 656 0048 0299     		ldr	r1, [sp, #8]
 657 004a FFF7FEFF 		bl	_ZN3r2p10ArrayQueueIPNS_7MessageEE12fetch_unsafeERS2_
 658 004e 0346     		mov	r3, r0
 659 0050 002B     		cmp	r3, #0
 660 0052 0CD0     		beq	.L37
 661              		.loc 9 24 0
 662 0054 FFF7FEFF 		bl	_ZN3r2p7SysLock7releaseEv
 663              		.loc 9 25 0
 664 0058 05AB     		add	r3, sp, #20
 665 005a 1846     		mov	r0, r3
 666 005c FFF7FEFF 		bl	_ZN3r2p4Time3nowEv
 667 0060 05AB     		add	r3, sp, #20
 668 0062 0198     		ldr	r0, [sp, #4]
 669 0064 1946     		mov	r1, r3
 670 0066 FFF7FEFF 		bl	_ZN3r2p4TimeaSERKS0_
 671              		.loc 9 26 0
 672 006a 0123     		movs	r3, #1
 673 006c 02E0     		b	.L38
 674              	.L37:
 675              		.loc 9 28 0
 676 006e FFF7FEFF 		bl	_ZN3r2p7SysLock7releaseEv
 677              		.loc 9 29 0
 678 0072 0023     		movs	r3, #0
 679              	.L38:
 680              		.loc 9 31 0
 681 0074 1846     		mov	r0, r3
ARM GAS  /tmp/ccLnJlre.s 			page 13


 682 0076 07B0     		add	sp, sp, #28
 683              		.cfi_def_cfa_offset 4
 684              		@ sp needed
 685 0078 5DF804FB 		ldr	pc, [sp], #4
 686              		.cfi_endproc
 687              	.LFE277:
 688              		.size	_ZN3r2p15LocalSubscriber5fetchERPNS_7MessageERNS_4TimeE, .-_ZN3r2p15LocalSubscriber5fetchERP
 689              		.align	2
 690              		.global	_ZN3r2p15LocalSubscriber6notifyERNS_7MessageERKNS_4TimeE
 691              		.thumb
 692              		.thumb_func
 693              		.type	_ZN3r2p15LocalSubscriber6notifyERNS_7MessageERKNS_4TimeE, %function
 694              	_ZN3r2p15LocalSubscriber6notifyERNS_7MessageERKNS_4TimeE:
 695              	.LFB278:
 696              		.loc 9 34 0
 697              		.cfi_startproc
 698              		@ args = 0, pretend = 0, frame = 16
 699              		@ frame_needed = 0, uses_anonymous_args = 0
 700 007c 00B5     		push	{lr}
 701              		.cfi_def_cfa_offset 4
 702              		.cfi_offset 14, -4
 703 007e 85B0     		sub	sp, sp, #20
 704              		.cfi_def_cfa_offset 24
 705 0080 0390     		str	r0, [sp, #12]
 706 0082 0291     		str	r1, [sp, #8]
 707 0084 0192     		str	r2, [sp, #4]
 708              		.loc 9 37 0
 709 0086 FFF7FEFF 		bl	_ZN3r2p7SysLock7acquireEv
 710              		.loc 9 38 0
 711 008a 039B     		ldr	r3, [sp, #12]
 712 008c 1033     		adds	r3, r3, #16
 713 008e 1846     		mov	r0, r3
 714 0090 0299     		ldr	r1, [sp, #8]
 715 0092 FFF7FEFF 		bl	_ZN3r2p10ArrayQueueIPNS_7MessageEE11post_unsafeES2_
 716 0096 0346     		mov	r3, r0
 717 0098 002B     		cmp	r3, #0
 718 009a 0CD0     		beq	.L40
 719              		.loc 9 39 0
 720 009c 039B     		ldr	r3, [sp, #12]
 721 009e 9A68     		ldr	r2, [r3, #8]
 722 00a0 039B     		ldr	r3, [sp, #12]
 723 00a2 93F82430 		ldrb	r3, [r3, #36]	@ zero_extendqisi2
 724 00a6 1046     		mov	r0, r2
 725 00a8 1946     		mov	r1, r3
 726 00aa FFF7FEFF 		bl	_ZN3r2p4Node13notify_unsafeEj
 727              		.loc 9 40 0
 728 00ae FFF7FEFF 		bl	_ZN3r2p7SysLock7releaseEv
 729              		.loc 9 41 0
 730 00b2 0123     		movs	r3, #1
 731 00b4 02E0     		b	.L41
 732              	.L40:
 733              		.loc 9 43 0
 734 00b6 FFF7FEFF 		bl	_ZN3r2p7SysLock7releaseEv
 735              		.loc 9 44 0
 736 00ba 0023     		movs	r3, #0
 737              	.L41:
 738              		.loc 9 46 0
ARM GAS  /tmp/ccLnJlre.s 			page 14


 739 00bc 1846     		mov	r0, r3
 740 00be 05B0     		add	sp, sp, #20
 741              		.cfi_def_cfa_offset 4
 742              		@ sp needed
 743 00c0 5DF804FB 		ldr	pc, [sp], #4
 744              		.cfi_endproc
 745              	.LFE278:
 746              		.size	_ZN3r2p15LocalSubscriber6notifyERNS_7MessageERKNS_4TimeE, .-_ZN3r2p15LocalSubscriber6notifyE
 747              		.section	.text._ZN3r2p10ArrayQueueIPNS_7MessageEED2Ev,"axG",%progbits,_ZN3r2p10ArrayQueueIPNS_7Mes
 748              		.align	2
 749              		.weak	_ZN3r2p10ArrayQueueIPNS_7MessageEED2Ev
 750              		.thumb
 751              		.thumb_func
 752              		.type	_ZN3r2p10ArrayQueueIPNS_7MessageEED2Ev, %function
 753              	_ZN3r2p10ArrayQueueIPNS_7MessageEED2Ev:
 754              	.LFB282:
 755              		.file 10 "/opt/R2P/core/Middleware/include/r2p/ArrayQueue.hpp"
 756              		.loc 10 9 0
 757              		.cfi_startproc
 758              		@ args = 0, pretend = 0, frame = 8
 759              		@ frame_needed = 0, uses_anonymous_args = 0
 760 0000 00B5     		push	{lr}
 761              		.cfi_def_cfa_offset 4
 762              		.cfi_offset 14, -4
 763 0002 83B0     		sub	sp, sp, #12
 764              		.cfi_def_cfa_offset 16
 765 0004 0190     		str	r0, [sp, #4]
 766              	.LBB8:
 767              		.loc 10 9 0
 768 0006 0198     		ldr	r0, [sp, #4]
 769 0008 FFF7FEFF 		bl	_ZN3r2p10UncopyableD2Ev
 770              	.LBE8:
 771 000c 019B     		ldr	r3, [sp, #4]
 772 000e 1846     		mov	r0, r3
 773 0010 03B0     		add	sp, sp, #12
 774              		.cfi_def_cfa_offset 4
 775              		@ sp needed
 776 0012 5DF804FB 		ldr	pc, [sp], #4
 777              		.cfi_endproc
 778              	.LFE282:
 779              		.size	_ZN3r2p10ArrayQueueIPNS_7MessageEED2Ev, .-_ZN3r2p10ArrayQueueIPNS_7MessageEED2Ev
 780              		.weak	_ZN3r2p10ArrayQueueIPNS_7MessageEED1Ev
 781              		.thumb_set _ZN3r2p10ArrayQueueIPNS_7MessageEED1Ev,_ZN3r2p10ArrayQueueIPNS_7MessageEED2Ev
 782 0016 00BF     		.section	.text._ZN3r2p15MessagePtrQueueD2Ev,"axG",%progbits,_ZN3r2p15MessagePtrQueueD5Ev,comdat
 783              		.align	2
 784              		.weak	_ZN3r2p15MessagePtrQueueD2Ev
 785              		.thumb
 786              		.thumb_func
 787              		.type	_ZN3r2p15MessagePtrQueueD2Ev, %function
 788              	_ZN3r2p15MessagePtrQueueD2Ev:
 789              	.LFB284:
 790              		.file 11 "/opt/R2P/core/Middleware/include/r2p/MessagePtrQueue.hpp"
 791              		.loc 11 11 0
 792              		.cfi_startproc
 793              		@ args = 0, pretend = 0, frame = 8
 794              		@ frame_needed = 0, uses_anonymous_args = 0
 795 0000 00B5     		push	{lr}
ARM GAS  /tmp/ccLnJlre.s 			page 15


 796              		.cfi_def_cfa_offset 4
 797              		.cfi_offset 14, -4
 798 0002 83B0     		sub	sp, sp, #12
 799              		.cfi_def_cfa_offset 16
 800 0004 0190     		str	r0, [sp, #4]
 801              	.LBB9:
 802              		.loc 11 11 0
 803 0006 019B     		ldr	r3, [sp, #4]
 804 0008 1846     		mov	r0, r3
 805 000a FFF7FEFF 		bl	_ZN3r2p10ArrayQueueIPNS_7MessageEED2Ev
 806              	.LBE9:
 807 000e 019B     		ldr	r3, [sp, #4]
 808 0010 1846     		mov	r0, r3
 809 0012 03B0     		add	sp, sp, #12
 810              		.cfi_def_cfa_offset 4
 811              		@ sp needed
 812 0014 5DF804FB 		ldr	pc, [sp], #4
 813              		.cfi_endproc
 814              	.LFE284:
 815              		.size	_ZN3r2p15MessagePtrQueueD2Ev, .-_ZN3r2p15MessagePtrQueueD2Ev
 816              		.weak	_ZN3r2p15MessagePtrQueueD1Ev
 817              		.thumb_set _ZN3r2p15MessagePtrQueueD1Ev,_ZN3r2p15MessagePtrQueueD2Ev
 818              		.text
 819              		.align	2
 820              		.global	_ZN3r2p15LocalSubscriberC2EPPNS_7MessageEjPFbRKS1_E
 821              		.thumb
 822              		.thumb_func
 823              		.type	_ZN3r2p15LocalSubscriberC2EPPNS_7MessageEjPFbRKS1_E, %function
 824              	_ZN3r2p15LocalSubscriberC2EPPNS_7MessageEjPFbRKS1_E:
 825              	.LFB286:
 826              		.loc 9 49 0
 827              		.cfi_startproc
 828              		@ args = 0, pretend = 0, frame = 16
 829              		@ frame_needed = 0, uses_anonymous_args = 0
 830 00c4 00B5     		push	{lr}
 831              		.cfi_def_cfa_offset 4
 832              		.cfi_offset 14, -4
 833 00c6 85B0     		sub	sp, sp, #20
 834              		.cfi_def_cfa_offset 24
 835 00c8 0390     		str	r0, [sp, #12]
 836 00ca 0291     		str	r1, [sp, #8]
 837 00cc 0192     		str	r2, [sp, #4]
 838 00ce 0093     		str	r3, [sp]
 839              	.LBB10:
 840              		.loc 9 58 0
 841 00d0 039B     		ldr	r3, [sp, #12]
 842 00d2 1846     		mov	r0, r3
 843 00d4 FFF7FEFF 		bl	_ZN3r2p14BaseSubscriberC2Ev
 844 00d8 039B     		ldr	r3, [sp, #12]
 845 00da 184A     		ldr	r2, .L52
 846 00dc 1A60     		str	r2, [r3]
 847 00de 039B     		ldr	r3, [sp, #12]
 848 00e0 0022     		movs	r2, #0
 849 00e2 9A60     		str	r2, [r3, #8]
 850 00e4 039B     		ldr	r3, [sp, #12]
 851 00e6 009A     		ldr	r2, [sp]
 852 00e8 DA60     		str	r2, [r3, #12]
ARM GAS  /tmp/ccLnJlre.s 			page 16


 853 00ea 039B     		ldr	r3, [sp, #12]
 854 00ec 1033     		adds	r3, r3, #16
 855 00ee 1846     		mov	r0, r3
 856 00f0 0299     		ldr	r1, [sp, #8]
 857 00f2 019A     		ldr	r2, [sp, #4]
 858 00f4 FFF7FEFF 		bl	_ZN3r2p15MessagePtrQueueC1EPPNS_7MessageEj
 859 00f8 039B     		ldr	r3, [sp, #12]
 860 00fa FF22     		movs	r2, #255
 861 00fc 83F82420 		strb	r2, [r3, #36]
 862 0100 039B     		ldr	r3, [sp, #12]
 863 0102 2833     		adds	r3, r3, #40
 864 0104 1846     		mov	r0, r3
 865 0106 0399     		ldr	r1, [sp, #12]
 866 0108 FFF7FEFF 		bl	_ZN3r2p10StaticListINS_15LocalSubscriberEE4LinkC1ERS1_
 867 010c 039B     		ldr	r3, [sp, #12]
 868 010e 3033     		adds	r3, r3, #48
 869 0110 1846     		mov	r0, r3
 870 0112 0399     		ldr	r1, [sp, #12]
 871 0114 FFF7FEFF 		bl	_ZN3r2p10StaticListINS_15LocalSubscriberEE4LinkC1ERS1_
 872              		.loc 9 60 0
 873 0118 029B     		ldr	r3, [sp, #8]
 874 011a 002B     		cmp	r3, #0
 875 011c 02D1     		bne	.L49
 876              		.loc 9 60 0 is_stmt 0 discriminator 1
 877 011e 0848     		ldr	r0, .L52+4
 878 0120 FFF7FEFF 		bl	chDbgPanic
 879              	.L49:
 880              		.loc 9 61 0 is_stmt 1
 881 0124 019B     		ldr	r3, [sp, #4]
 882 0126 002B     		cmp	r3, #0
 883 0128 02D1     		bne	.L50
 884              		.loc 9 61 0 is_stmt 0 discriminator 1
 885 012a 0548     		ldr	r0, .L52+4
 886 012c FFF7FEFF 		bl	chDbgPanic
 887              	.L50:
 888              	.LBE10:
 889              		.loc 9 62 0 is_stmt 1
 890 0130 039B     		ldr	r3, [sp, #12]
 891 0132 1846     		mov	r0, r3
 892 0134 05B0     		add	sp, sp, #20
 893              		.cfi_def_cfa_offset 4
 894              		@ sp needed
 895 0136 5DF804FB 		ldr	pc, [sp], #4
 896              	.L53:
 897 013a 00BF     		.align	2
 898              	.L52:
 899 013c 08000000 		.word	_ZTVN3r2p15LocalSubscriberE+8
 900 0140 00000000 		.word	.LC0
 901              		.cfi_endproc
 902              	.LFE286:
 903              		.size	_ZN3r2p15LocalSubscriberC2EPPNS_7MessageEjPFbRKS1_E, .-_ZN3r2p15LocalSubscriberC2EPPNS_7Mess
 904              		.global	_ZN3r2p15LocalSubscriberC1EPPNS_7MessageEjPFbRKS1_E
 905              		.thumb_set _ZN3r2p15LocalSubscriberC1EPPNS_7MessageEjPFbRKS1_E,_ZN3r2p15LocalSubscriberC2EPPNS_7Me
 906              		.align	2
 907              		.global	_ZN3r2p15LocalSubscriberD2Ev
 908              		.thumb
 909              		.thumb_func
ARM GAS  /tmp/ccLnJlre.s 			page 17


 910              		.type	_ZN3r2p15LocalSubscriberD2Ev, %function
 911              	_ZN3r2p15LocalSubscriberD2Ev:
 912              	.LFB289:
 913              		.loc 9 65 0
 914              		.cfi_startproc
 915              		@ args = 0, pretend = 0, frame = 8
 916              		@ frame_needed = 0, uses_anonymous_args = 0
 917 0144 00B5     		push	{lr}
 918              		.cfi_def_cfa_offset 4
 919              		.cfi_offset 14, -4
 920 0146 83B0     		sub	sp, sp, #12
 921              		.cfi_def_cfa_offset 16
 922 0148 0190     		str	r0, [sp, #4]
 923              	.LBB11:
 924              		.loc 9 65 0
 925 014a 019B     		ldr	r3, [sp, #4]
 926 014c 0A4A     		ldr	r2, .L58
 927 014e 1A60     		str	r2, [r3]
 928 0150 019B     		ldr	r3, [sp, #4]
 929 0152 1033     		adds	r3, r3, #16
 930 0154 1846     		mov	r0, r3
 931 0156 FFF7FEFF 		bl	_ZN3r2p15MessagePtrQueueD1Ev
 932 015a 019B     		ldr	r3, [sp, #4]
 933 015c 1846     		mov	r0, r3
 934 015e FFF7FEFF 		bl	_ZN3r2p14BaseSubscriberD2Ev
 935              	.LBE11:
 936 0162 0023     		movs	r3, #0
 937 0164 002B     		cmp	r3, #0
 938 0166 02D0     		beq	.L56
 939              		.loc 9 65 0 is_stmt 0 discriminator 2
 940 0168 0198     		ldr	r0, [sp, #4]
 941 016a FFF7FEFF 		bl	_ZdlPv
 942              	.L56:
 943              		.loc 9 65 0 discriminator 4
 944 016e 019B     		ldr	r3, [sp, #4]
 945 0170 1846     		mov	r0, r3
 946 0172 03B0     		add	sp, sp, #12
 947              		.cfi_def_cfa_offset 4
 948              		@ sp needed
 949 0174 5DF804FB 		ldr	pc, [sp], #4
 950              	.L59:
 951              		.align	2
 952              	.L58:
 953 0178 08000000 		.word	_ZTVN3r2p15LocalSubscriberE+8
 954              		.cfi_endproc
 955              	.LFE289:
 956              		.size	_ZN3r2p15LocalSubscriberD2Ev, .-_ZN3r2p15LocalSubscriberD2Ev
 957              		.global	_ZN3r2p15LocalSubscriberD1Ev
 958              		.thumb_set _ZN3r2p15LocalSubscriberD1Ev,_ZN3r2p15LocalSubscriberD2Ev
 959              		.align	2
 960              		.global	_ZN3r2p15LocalSubscriberD0Ev
 961              		.thumb
 962              		.thumb_func
 963              		.type	_ZN3r2p15LocalSubscriberD0Ev, %function
 964              	_ZN3r2p15LocalSubscriberD0Ev:
 965              	.LFB291:
 966              		.loc 9 65 0 is_stmt 1
ARM GAS  /tmp/ccLnJlre.s 			page 18


 967              		.cfi_startproc
 968              		@ args = 0, pretend = 0, frame = 8
 969              		@ frame_needed = 0, uses_anonymous_args = 0
 970 017c 00B5     		push	{lr}
 971              		.cfi_def_cfa_offset 4
 972              		.cfi_offset 14, -4
 973 017e 83B0     		sub	sp, sp, #12
 974              		.cfi_def_cfa_offset 16
 975 0180 0190     		str	r0, [sp, #4]
 976              		.loc 9 65 0
 977 0182 0198     		ldr	r0, [sp, #4]
 978 0184 FFF7FEFF 		bl	_ZN3r2p15LocalSubscriberD2Ev
 979 0188 0198     		ldr	r0, [sp, #4]
 980 018a FFF7FEFF 		bl	_ZdlPv
 981 018e 019B     		ldr	r3, [sp, #4]
 982 0190 1846     		mov	r0, r3
 983 0192 03B0     		add	sp, sp, #12
 984              		.cfi_def_cfa_offset 4
 985              		@ sp needed
 986 0194 5DF804FB 		ldr	pc, [sp], #4
 987              		.cfi_endproc
 988              	.LFE291:
 989              		.size	_ZN3r2p15LocalSubscriberD0Ev, .-_ZN3r2p15LocalSubscriberD0Ev
 990              		.section	.text._ZNK3r2p10ArrayQueueIPNS_7MessageEE10get_lengthEv,"axG",%progbits,_ZNK3r2p10ArrayQu
 991              		.align	2
 992              		.weak	_ZNK3r2p10ArrayQueueIPNS_7MessageEE10get_lengthEv
 993              		.thumb
 994              		.thumb_func
 995              		.type	_ZNK3r2p10ArrayQueueIPNS_7MessageEE10get_lengthEv, %function
 996              	_ZNK3r2p10ArrayQueueIPNS_7MessageEE10get_lengthEv:
 997              	.LFB301:
 998              		.loc 10 81 0
 999              		.cfi_startproc
 1000              		@ args = 0, pretend = 0, frame = 8
 1001              		@ frame_needed = 0, uses_anonymous_args = 0
 1002              		@ link register save eliminated.
 1003 0000 82B0     		sub	sp, sp, #8
 1004              		.cfi_def_cfa_offset 8
 1005 0002 0190     		str	r0, [sp, #4]
 1006              		.loc 10 83 0
 1007 0004 019B     		ldr	r3, [sp, #4]
 1008 0006 5B68     		ldr	r3, [r3, #4]
 1009              		.loc 10 84 0
 1010 0008 1846     		mov	r0, r3
 1011 000a 02B0     		add	sp, sp, #8
 1012              		.cfi_def_cfa_offset 0
 1013              		@ sp needed
 1014 000c 7047     		bx	lr
 1015              		.cfi_endproc
 1016              	.LFE301:
 1017              		.size	_ZNK3r2p10ArrayQueueIPNS_7MessageEE10get_lengthEv, .-_ZNK3r2p10ArrayQueueIPNS_7MessageEE10ge
 1018 000e 00BF     		.section	.text._ZN3r2p10ArrayQueueIPNS_7MessageEE12fetch_unsafeERS2_,"axG",%progbits,_ZN3r2p10Arra
 1019              		.align	2
 1020              		.weak	_ZN3r2p10ArrayQueueIPNS_7MessageEE12fetch_unsafeERS2_
 1021              		.thumb
 1022              		.thumb_func
 1023              		.type	_ZN3r2p10ArrayQueueIPNS_7MessageEE12fetch_unsafeERS2_, %function
ARM GAS  /tmp/ccLnJlre.s 			page 19


 1024              	_ZN3r2p10ArrayQueueIPNS_7MessageEE12fetch_unsafeERS2_:
 1025              	.LFB302:
 1026              		.loc 10 52 0
 1027              		.cfi_startproc
 1028              		@ args = 0, pretend = 0, frame = 8
 1029              		@ frame_needed = 0, uses_anonymous_args = 0
 1030              		@ link register save eliminated.
 1031 0000 82B0     		sub	sp, sp, #8
 1032              		.cfi_def_cfa_offset 8
 1033 0002 0190     		str	r0, [sp, #4]
 1034 0004 0091     		str	r1, [sp]
 1035              		.loc 10 54 0
 1036 0006 019B     		ldr	r3, [sp, #4]
 1037 0008 9B68     		ldr	r3, [r3, #8]
 1038 000a 002B     		cmp	r3, #0
 1039 000c 23D0     		beq	.L66
 1040              		.loc 10 55 0
 1041 000e 019B     		ldr	r3, [sp, #4]
 1042 0010 9B68     		ldr	r3, [r3, #8]
 1043 0012 5A1E     		subs	r2, r3, #1
 1044 0014 019B     		ldr	r3, [sp, #4]
 1045 0016 9A60     		str	r2, [r3, #8]
 1046              		.loc 10 56 0
 1047 0018 019B     		ldr	r3, [sp, #4]
 1048 001a DB68     		ldr	r3, [r3, #12]
 1049 001c 1A68     		ldr	r2, [r3]
 1050 001e 009B     		ldr	r3, [sp]
 1051 0020 1A60     		str	r2, [r3]
 1052              		.loc 10 57 0
 1053 0022 019B     		ldr	r3, [sp, #4]
 1054 0024 DB68     		ldr	r3, [r3, #12]
 1055 0026 1A1D     		adds	r2, r3, #4
 1056 0028 019B     		ldr	r3, [sp, #4]
 1057 002a DA60     		str	r2, [r3, #12]
 1058 002c 019B     		ldr	r3, [sp, #4]
 1059 002e DA68     		ldr	r2, [r3, #12]
 1060 0030 019B     		ldr	r3, [sp, #4]
 1061 0032 1968     		ldr	r1, [r3]
 1062 0034 019B     		ldr	r3, [sp, #4]
 1063 0036 5B68     		ldr	r3, [r3, #4]
 1064 0038 9B00     		lsls	r3, r3, #2
 1065 003a 0B44     		add	r3, r3, r1
 1066 003c 9A42     		cmp	r2, r3
 1067 003e 2CBF     		ite	cs
 1068 0040 0123     		movcs	r3, #1
 1069 0042 0023     		movcc	r3, #0
 1070 0044 DBB2     		uxtb	r3, r3
 1071 0046 002B     		cmp	r3, #0
 1072 0048 03D0     		beq	.L67
 1073              		.loc 10 58 0
 1074 004a 019B     		ldr	r3, [sp, #4]
 1075 004c 1A68     		ldr	r2, [r3]
 1076 004e 019B     		ldr	r3, [sp, #4]
 1077 0050 DA60     		str	r2, [r3, #12]
 1078              	.L67:
 1079              		.loc 10 60 0
 1080 0052 0123     		movs	r3, #1
ARM GAS  /tmp/ccLnJlre.s 			page 20


 1081 0054 00E0     		b	.L68
 1082              	.L66:
 1083              		.loc 10 62 0
 1084 0056 0023     		movs	r3, #0
 1085              	.L68:
 1086              		.loc 10 63 0
 1087 0058 1846     		mov	r0, r3
 1088 005a 02B0     		add	sp, sp, #8
 1089              		.cfi_def_cfa_offset 0
 1090              		@ sp needed
 1091 005c 7047     		bx	lr
 1092              		.cfi_endproc
 1093              	.LFE302:
 1094              		.size	_ZN3r2p10ArrayQueueIPNS_7MessageEE12fetch_unsafeERS2_, .-_ZN3r2p10ArrayQueueIPNS_7MessageEE1
 1095 005e 00BF     		.section	.text._ZN3r2p10ArrayQueueIPNS_7MessageEE11post_unsafeES2_,"axG",%progbits,_ZN3r2p10ArrayQ
 1096              		.align	2
 1097              		.weak	_ZN3r2p10ArrayQueueIPNS_7MessageEE11post_unsafeES2_
 1098              		.thumb
 1099              		.thumb_func
 1100              		.type	_ZN3r2p10ArrayQueueIPNS_7MessageEE11post_unsafeES2_, %function
 1101              	_ZN3r2p10ArrayQueueIPNS_7MessageEE11post_unsafeES2_:
 1102              	.LFB303:
 1103              		.loc 10 37 0
 1104              		.cfi_startproc
 1105              		@ args = 0, pretend = 0, frame = 8
 1106              		@ frame_needed = 0, uses_anonymous_args = 0
 1107              		@ link register save eliminated.
 1108 0000 82B0     		sub	sp, sp, #8
 1109              		.cfi_def_cfa_offset 8
 1110 0002 0190     		str	r0, [sp, #4]
 1111 0004 0091     		str	r1, [sp]
 1112              		.loc 10 39 0
 1113 0006 019B     		ldr	r3, [sp, #4]
 1114 0008 9A68     		ldr	r2, [r3, #8]
 1115 000a 019B     		ldr	r3, [sp, #4]
 1116 000c 5B68     		ldr	r3, [r3, #4]
 1117 000e 9A42     		cmp	r2, r3
 1118 0010 22D2     		bcs	.L70
 1119              		.loc 10 40 0
 1120 0012 019B     		ldr	r3, [sp, #4]
 1121 0014 9B68     		ldr	r3, [r3, #8]
 1122 0016 5A1C     		adds	r2, r3, #1
 1123 0018 019B     		ldr	r3, [sp, #4]
 1124 001a 9A60     		str	r2, [r3, #8]
 1125              		.loc 10 41 0
 1126 001c 019B     		ldr	r3, [sp, #4]
 1127 001e 1B69     		ldr	r3, [r3, #16]
 1128 0020 009A     		ldr	r2, [sp]
 1129 0022 1A60     		str	r2, [r3]
 1130              		.loc 10 42 0
 1131 0024 019B     		ldr	r3, [sp, #4]
 1132 0026 1B69     		ldr	r3, [r3, #16]
 1133 0028 1A1D     		adds	r2, r3, #4
 1134 002a 019B     		ldr	r3, [sp, #4]
 1135 002c 1A61     		str	r2, [r3, #16]
 1136 002e 019B     		ldr	r3, [sp, #4]
 1137 0030 1A69     		ldr	r2, [r3, #16]
ARM GAS  /tmp/ccLnJlre.s 			page 21


 1138 0032 019B     		ldr	r3, [sp, #4]
 1139 0034 1968     		ldr	r1, [r3]
 1140 0036 019B     		ldr	r3, [sp, #4]
 1141 0038 5B68     		ldr	r3, [r3, #4]
 1142 003a 9B00     		lsls	r3, r3, #2
 1143 003c 0B44     		add	r3, r3, r1
 1144 003e 9A42     		cmp	r2, r3
 1145 0040 2CBF     		ite	cs
 1146 0042 0123     		movcs	r3, #1
 1147 0044 0023     		movcc	r3, #0
 1148 0046 DBB2     		uxtb	r3, r3
 1149 0048 002B     		cmp	r3, #0
 1150 004a 03D0     		beq	.L71
 1151              		.loc 10 43 0
 1152 004c 019B     		ldr	r3, [sp, #4]
 1153 004e 1A68     		ldr	r2, [r3]
 1154 0050 019B     		ldr	r3, [sp, #4]
 1155 0052 1A61     		str	r2, [r3, #16]
 1156              	.L71:
 1157              		.loc 10 45 0
 1158 0054 0123     		movs	r3, #1
 1159 0056 00E0     		b	.L72
 1160              	.L70:
 1161              		.loc 10 47 0
 1162 0058 0023     		movs	r3, #0
 1163              	.L72:
 1164              		.loc 10 48 0
 1165 005a 1846     		mov	r0, r3
 1166 005c 02B0     		add	sp, sp, #8
 1167              		.cfi_def_cfa_offset 0
 1168              		@ sp needed
 1169 005e 7047     		bx	lr
 1170              		.cfi_endproc
 1171              	.LFE303:
 1172              		.size	_ZN3r2p10ArrayQueueIPNS_7MessageEE11post_unsafeES2_, .-_ZN3r2p10ArrayQueueIPNS_7MessageEE11p
 1173              		.section	.text._ZN3r2p10StaticListINS_15LocalSubscriberEE4LinkC2ERS1_,"axG",%progbits,_ZN3r2p10Sta
 1174              		.align	2
 1175              		.weak	_ZN3r2p10StaticListINS_15LocalSubscriberEE4LinkC2ERS1_
 1176              		.thumb
 1177              		.thumb_func
 1178              		.type	_ZN3r2p10StaticListINS_15LocalSubscriberEE4LinkC2ERS1_, %function
 1179              	_ZN3r2p10StaticListINS_15LocalSubscriberEE4LinkC2ERS1_:
 1180              	.LFB305:
 1181              		.file 12 "/opt/R2P/core/Middleware/include/r2p/StaticList.hpp"
 1182              		.loc 12 21 0
 1183              		.cfi_startproc
 1184              		@ args = 0, pretend = 0, frame = 8
 1185              		@ frame_needed = 0, uses_anonymous_args = 0
 1186              		@ link register save eliminated.
 1187 0000 82B0     		sub	sp, sp, #8
 1188              		.cfi_def_cfa_offset 8
 1189 0002 0190     		str	r0, [sp, #4]
 1190 0004 0091     		str	r1, [sp]
 1191              	.LBB12:
 1192              		.loc 12 21 0
 1193 0006 019B     		ldr	r3, [sp, #4]
 1194 0008 0022     		movs	r2, #0
ARM GAS  /tmp/ccLnJlre.s 			page 22


 1195 000a 1A60     		str	r2, [r3]
 1196 000c 019B     		ldr	r3, [sp, #4]
 1197 000e 009A     		ldr	r2, [sp]
 1198 0010 5A60     		str	r2, [r3, #4]
 1199              	.LBE12:
 1200 0012 019B     		ldr	r3, [sp, #4]
 1201 0014 1846     		mov	r0, r3
 1202 0016 02B0     		add	sp, sp, #8
 1203              		.cfi_def_cfa_offset 0
 1204              		@ sp needed
 1205 0018 7047     		bx	lr
 1206              		.cfi_endproc
 1207              	.LFE305:
 1208              		.size	_ZN3r2p10StaticListINS_15LocalSubscriberEE4LinkC2ERS1_, .-_ZN3r2p10StaticListINS_15LocalSubs
 1209              		.weak	_ZN3r2p10StaticListINS_15LocalSubscriberEE4LinkC1ERS1_
 1210              		.thumb_set _ZN3r2p10StaticListINS_15LocalSubscriberEE4LinkC1ERS1_,_ZN3r2p10StaticListINS_15LocalSu
 1211              		.global	_ZTVN3r2p15LocalSubscriberE
 1212 001a 00BF     		.section	.rodata
 1213 000d 000000   		.align	3
 1214              		.type	_ZTVN3r2p15LocalSubscriberE, %object
 1215              		.size	_ZTVN3r2p15LocalSubscriberE, 36
 1216              	_ZTVN3r2p15LocalSubscriberE:
 1217 0010 00000000 		.word	0
 1218 0014 00000000 		.word	0
 1219 0018 00000000 		.word	_ZNK3r2p15LocalSubscriber16get_queue_lengthEv
 1220 001c 00000000 		.word	_ZN3r2p15LocalSubscriber13notify_unsafeERNS_7MessageERKNS_4TimeE
 1221 0020 00000000 		.word	_ZN3r2p15LocalSubscriber12fetch_unsafeERPNS_7MessageERNS_4TimeE
 1222 0024 00000000 		.word	_ZN3r2p15LocalSubscriber6notifyERNS_7MessageERKNS_4TimeE
 1223 0028 00000000 		.word	_ZN3r2p15LocalSubscriber5fetchERPNS_7MessageERNS_4TimeE
 1224 002c 00000000 		.word	__cxa_pure_virtual
 1225 0030 00000000 		.word	__cxa_pure_virtual
 1226 0034 00000000 		.text
 1227              	.Letext0:
 1228              		.file 13 "/opt/R2P/tools/gcc-arm-none-eabi-4_9-2014q4/lib/gcc/arm-none-eabi/4.9.3/include/stddef.h
 1229              		.file 14 "/opt/R2P/tools/gcc-arm-none-eabi-4_9-2014q4/arm-none-eabi/include/machine/_default_types
 1230              		.file 15 "/opt/R2P/tools/gcc-arm-none-eabi-4_9-2014q4/arm-none-eabi/include/c++/4.9.3/cstring"
 1231              		.file 16 "/opt/R2P/tools/gcc-arm-none-eabi-4_9-2014q4/arm-none-eabi/include/string.h"
 1232              		.file 17 "<built-in>"
 1233              		.file 18 "/opt/R2P/core/Middleware/include/r2p/Message.hpp"
 1234              		.file 19 "/opt/R2P/core/Middleware/port/chibios/include/r2p/impl/MemoryPool_.hpp"
 1235              		.file 20 "/opt/R2P/core/Middleware/port/chibios/include/r2p/impl/Thread_.hpp"
 1236              		.file 21 "/opt/R2P/core/Middleware/include/r2p/Thread.hpp"
 1237              		.file 22 "/opt/R2P/core/Middleware/include/r2p/BaseSubscriber.hpp"
 1238              		.file 23 "/opt/R2P/tools/gcc-arm-none-eabi-4_9-2014q4/arm-none-eabi/include/stdint.h"
 1239              		.file 24 "/opt/R2P/core/ChibiOS_2.6.5/os/ports/GCC/ARMCMx/chtypes.h"
 1240              		.file 25 "/opt/R2P/core/ChibiOS_2.6.5/os/kernel/include/chlists.h"
 1241              		.file 26 "/opt/R2P/core/ChibiOS_2.6.5/os/kernel/include/chthreads.h"
 1242              		.file 27 "/opt/R2P/core/ChibiOS_2.6.5/os/ports/GCC/ARMCMx/chcore_v7m.h"
 1243              		.file 28 "/opt/R2P/core/ChibiOS_2.6.5/os/kernel/include/chschd.h"
 1244              		.file 29 "/opt/R2P/core/ChibiOS_2.6.5/os/kernel/include/chmtx.h"
 1245              		.file 30 "/opt/R2P/core/ChibiOS_2.6.5/os/kernel/include/chmemcore.h"
 1246              		.file 31 "/opt/R2P/core/ChibiOS_2.6.5/os/kernel/include/chmempools.h"