ARM GAS  /tmp/ccytVDiP.s 			page 1


   1              		.syntax unified
   2              		.cpu cortex-m4
   3              		.fpu softvfp
   4              		.eabi_attribute 20, 1
   5              		.eabi_attribute 21, 1
   6              		.eabi_attribute 23, 3
   7              		.eabi_attribute 24, 1
   8              		.eabi_attribute 25, 1
   9              		.eabi_attribute 26, 1
  10              		.eabi_attribute 30, 6
  11              		.eabi_attribute 34, 1
  12              		.eabi_attribute 18, 4
  13              		.thumb
  14              		.file	"main.cpp"
  15              		.text
  16              	.Ltext0:
  17              		.cfi_sections	.debug_frame
  18              		.section	.text._ZN3r2p10UncopyableD2Ev,"axG",%progbits,_ZN3r2p10UncopyableD5Ev,comdat
  19              		.align	2
  20              		.weak	_ZN3r2p10UncopyableD2Ev
  21              		.thumb
  22              		.thumb_func
  23              		.type	_ZN3r2p10UncopyableD2Ev, %function
  24              	_ZN3r2p10UncopyableD2Ev:
  25              	.LFB127:
  26              		.file 1 "/opt/R2P/core/Middleware/include/r2p/Uncopyable.hpp"
  27              		.loc 1 21 0
  28              		.cfi_startproc
  29              		@ args = 0, pretend = 0, frame = 8
  30              		@ frame_needed = 0, uses_anonymous_args = 0
  31              		@ link register save eliminated.
  32 0000 82B0     		sub	sp, sp, #8
  33              		.cfi_def_cfa_offset 8
  34 0002 0190     		str	r0, [sp, #4]
  35              		.loc 1 21 0
  36 0004 019B     		ldr	r3, [sp, #4]
  37 0006 1846     		mov	r0, r3
  38 0008 02B0     		add	sp, sp, #8
  39              		.cfi_def_cfa_offset 0
  40              		@ sp needed
  41 000a 7047     		bx	lr
  42              		.cfi_endproc
  43              	.LFE127:
  44              		.size	_ZN3r2p10UncopyableD2Ev, .-_ZN3r2p10UncopyableD2Ev
  45              		.weak	_ZN3r2p10UncopyableD1Ev
  46              		.thumb_set _ZN3r2p10UncopyableD1Ev,_ZN3r2p10UncopyableD2Ev
  47              		.section	.text._ZN3r2p8SysLock_7acquireEv,"axG",%progbits,_ZN3r2p8SysLock_7acquireEv,comdat
  48              		.align	2
  49              		.weak	_ZN3r2p8SysLock_7acquireEv
  50              		.thumb
  51              		.thumb_func
  52              		.type	_ZN3r2p8SysLock_7acquireEv, %function
  53              	_ZN3r2p8SysLock_7acquireEv:
  54              	.LFB129:
  55              		.file 2 "/opt/R2P/core/Middleware/port/chibios/include/r2p/impl/SysLock_.hpp"
  56              		.loc 2 20 0
  57              		.cfi_startproc
ARM GAS  /tmp/ccytVDiP.s 			page 2


  58              		@ args = 0, pretend = 0, frame = 0
  59              		@ frame_needed = 0, uses_anonymous_args = 0
  60 0000 08B5     		push	{r3, lr}
  61              		.cfi_def_cfa_offset 8
  62              		.cfi_offset 3, -8
  63              		.cfi_offset 14, -4
  64              	.LBB24:
  65              	.LBB25:
  66              	.LBB26:
  67              		.loc 2 22 0
  68 0002 2023     		movs	r3, #32
  69              	@ 22 "/opt/R2P/core/Middleware/port/chibios/include/r2p/impl/SysLock_.hpp" 1
  70 0004 83F31188 		msr     BASEPRI, r3
  71              	@ 0 "" 2
  72              		.thumb
  73              	.LBE26:
  74 0008 FFF7FEFF 		bl	dbg_check_lock
  75              	.LBE25:
  76              	.LBE24:
  77              		.loc 2 23 0
  78 000c 08BD     		pop	{r3, pc}
  79              		.cfi_endproc
  80              	.LFE129:
  81              		.size	_ZN3r2p8SysLock_7acquireEv, .-_ZN3r2p8SysLock_7acquireEv
  82 000e 00BF     		.section	.text._ZN3r2p8SysLock_7releaseEv,"axG",%progbits,_ZN3r2p8SysLock_7releaseEv,comdat
  83              		.align	2
  84              		.weak	_ZN3r2p8SysLock_7releaseEv
  85              		.thumb
  86              		.thumb_func
  87              		.type	_ZN3r2p8SysLock_7releaseEv, %function
  88              	_ZN3r2p8SysLock_7releaseEv:
  89              	.LFB130:
  90              		.loc 2 27 0
  91              		.cfi_startproc
  92              		@ args = 0, pretend = 0, frame = 0
  93              		@ frame_needed = 0, uses_anonymous_args = 0
  94 0000 08B5     		push	{r3, lr}
  95              		.cfi_def_cfa_offset 8
  96              		.cfi_offset 3, -8
  97              		.cfi_offset 14, -4
  98              	.LBB27:
  99              	.LBB28:
 100              		.loc 2 29 0
 101 0002 FFF7FEFF 		bl	dbg_check_unlock
 102              	.LBB29:
 103 0006 0023     		movs	r3, #0
 104              	@ 29 "/opt/R2P/core/Middleware/port/chibios/include/r2p/impl/SysLock_.hpp" 1
 105 0008 83F31188 		msr     BASEPRI, r3
 106              	@ 0 "" 2
 107              		.thumb
 108              	.LBE29:
 109              	.LBE28:
 110              	.LBE27:
 111              		.loc 2 30 0
 112 000c 08BD     		pop	{r3, pc}
 113              		.cfi_endproc
 114              	.LFE130:
ARM GAS  /tmp/ccytVDiP.s 			page 3


 115              		.size	_ZN3r2p8SysLock_7releaseEv, .-_ZN3r2p8SysLock_7releaseEv
 116 000e 00BF     		.section	.text._ZN3r2p7SysLock7acquireEv,"axG",%progbits,_ZN3r2p7SysLock7acquireEv,comdat
 117              		.align	2
 118              		.weak	_ZN3r2p7SysLock7acquireEv
 119              		.thumb
 120              		.thumb_func
 121              		.type	_ZN3r2p7SysLock7acquireEv, %function
 122              	_ZN3r2p7SysLock7acquireEv:
 123              	.LFB137:
 124              		.file 3 "/opt/R2P/core/Middleware/include/r2p/SysLock.hpp"
 125              		.loc 3 27 0
 126              		.cfi_startproc
 127              		@ args = 0, pretend = 0, frame = 0
 128              		@ frame_needed = 0, uses_anonymous_args = 0
 129 0000 08B5     		push	{r3, lr}
 130              		.cfi_def_cfa_offset 8
 131              		.cfi_offset 3, -8
 132              		.cfi_offset 14, -4
 133              		.loc 3 29 0
 134 0002 FFF7FEFF 		bl	_ZN3r2p8SysLock_7acquireEv
 135              		.loc 3 30 0
 136 0006 08BD     		pop	{r3, pc}
 137              		.cfi_endproc
 138              	.LFE137:
 139              		.size	_ZN3r2p7SysLock7acquireEv, .-_ZN3r2p7SysLock7acquireEv
 140              		.section	.text._ZN3r2p7SysLock7releaseEv,"axG",%progbits,_ZN3r2p7SysLock7releaseEv,comdat
 141              		.align	2
 142              		.weak	_ZN3r2p7SysLock7releaseEv
 143              		.thumb
 144              		.thumb_func
 145              		.type	_ZN3r2p7SysLock7releaseEv, %function
 146              	_ZN3r2p7SysLock7releaseEv:
 147              	.LFB138:
 148              		.loc 3 34 0
 149              		.cfi_startproc
 150              		@ args = 0, pretend = 0, frame = 0
 151              		@ frame_needed = 0, uses_anonymous_args = 0
 152 0000 08B5     		push	{r3, lr}
 153              		.cfi_def_cfa_offset 8
 154              		.cfi_offset 3, -8
 155              		.cfi_offset 14, -4
 156              		.loc 3 36 0
 157 0002 FFF7FEFF 		bl	_ZN3r2p8SysLock_7releaseEv
 158              		.loc 3 37 0
 159 0006 08BD     		pop	{r3, pc}
 160              		.cfi_endproc
 161              	.LFE138:
 162              		.size	_ZN3r2p7SysLock7releaseEv, .-_ZN3r2p7SysLock7releaseEv
 163              		.section	.text._ZN3r2p11MemoryPool_12alloc_unsafeEv,"axG",%progbits,_ZN3r2p11MemoryPool_12alloc_un
 164              		.align	2
 165              		.weak	_ZN3r2p11MemoryPool_12alloc_unsafeEv
 166              		.thumb
 167              		.thumb_func
 168              		.type	_ZN3r2p11MemoryPool_12alloc_unsafeEv, %function
 169              	_ZN3r2p11MemoryPool_12alloc_unsafeEv:
 170              	.LFB236:
 171              		.file 4 "/opt/R2P/core/Middleware/port/chibios/include/r2p/impl/MemoryPool_.hpp"
ARM GAS  /tmp/ccytVDiP.s 			page 4


 172              		.loc 4 53 0
 173              		.cfi_startproc
 174              		@ args = 0, pretend = 0, frame = 8
 175              		@ frame_needed = 0, uses_anonymous_args = 0
 176 0000 00B5     		push	{lr}
 177              		.cfi_def_cfa_offset 4
 178              		.cfi_offset 14, -4
 179 0002 83B0     		sub	sp, sp, #12
 180              		.cfi_def_cfa_offset 16
 181 0004 0190     		str	r0, [sp, #4]
 182              		.loc 4 55 0
 183 0006 019B     		ldr	r3, [sp, #4]
 184 0008 1846     		mov	r0, r3
 185 000a FFF7FEFF 		bl	chPoolAllocI
 186 000e 0346     		mov	r3, r0
 187              		.loc 4 56 0
 188 0010 1846     		mov	r0, r3
 189 0012 03B0     		add	sp, sp, #12
 190              		.cfi_def_cfa_offset 4
 191              		@ sp needed
 192 0014 5DF804FB 		ldr	pc, [sp], #4
 193              		.cfi_endproc
 194              	.LFE236:
 195              		.size	_ZN3r2p11MemoryPool_12alloc_unsafeEv, .-_ZN3r2p11MemoryPool_12alloc_unsafeEv
 196              		.section	.text._ZNK3r2p4Time8to_s_rawEv,"axG",%progbits,_ZNK3r2p4Time8to_s_rawEv,comdat
 197              		.align	2
 198              		.weak	_ZNK3r2p4Time8to_s_rawEv
 199              		.thumb
 200              		.thumb_func
 201              		.type	_ZNK3r2p4Time8to_s_rawEv, %function
 202              	_ZNK3r2p4Time8to_s_rawEv:
 203              	.LFB256:
 204              		.file 5 "/opt/R2P/core/Middleware/include/r2p/Time.hpp"
 205              		.loc 5 89 0
 206              		.cfi_startproc
 207              		@ args = 0, pretend = 0, frame = 8
 208              		@ frame_needed = 0, uses_anonymous_args = 0
 209              		@ link register save eliminated.
 210 0000 82B0     		sub	sp, sp, #8
 211              		.cfi_def_cfa_offset 8
 212 0002 0190     		str	r0, [sp, #4]
 213              		.loc 5 91 0
 214 0004 019B     		ldr	r3, [sp, #4]
 215 0006 1B68     		ldr	r3, [r3]
 216 0008 044A     		ldr	r2, .L12
 217 000a 82FB0312 		smull	r1, r2, r2, r3
 218 000e 9214     		asrs	r2, r2, #18
 219 0010 DB17     		asrs	r3, r3, #31
 220 0012 D31A     		subs	r3, r2, r3
 221              		.loc 5 92 0
 222 0014 1846     		mov	r0, r3
 223 0016 02B0     		add	sp, sp, #8
 224              		.cfi_def_cfa_offset 0
 225              		@ sp needed
 226 0018 7047     		bx	lr
 227              	.L13:
 228 001a 00BF     		.align	2
ARM GAS  /tmp/ccytVDiP.s 			page 5


 229              	.L12:
 230 001c 83DE1B43 		.word	1125899907
 231              		.cfi_endproc
 232              	.LFE256:
 233              		.size	_ZNK3r2p4Time8to_s_rawEv, .-_ZNK3r2p4Time8to_s_rawEv
 234              		.section	.text._ZN3r2p4TimeaSERKS0_,"axG",%progbits,_ZN3r2p4TimeaSERKS0_,comdat
 235              		.align	2
 236              		.weak	_ZN3r2p4TimeaSERKS0_
 237              		.thumb
 238              		.thumb_func
 239              		.type	_ZN3r2p4TimeaSERKS0_, %function
 240              	_ZN3r2p4TimeaSERKS0_:
 241              	.LFB262:
 242              		.loc 5 131 0
 243              		.cfi_startproc
 244              		@ args = 0, pretend = 0, frame = 8
 245              		@ frame_needed = 0, uses_anonymous_args = 0
 246              		@ link register save eliminated.
 247 0000 82B0     		sub	sp, sp, #8
 248              		.cfi_def_cfa_offset 8
 249 0002 0190     		str	r0, [sp, #4]
 250 0004 0091     		str	r1, [sp]
 251              		.loc 5 133 0
 252 0006 009B     		ldr	r3, [sp]
 253 0008 1A68     		ldr	r2, [r3]
 254 000a 019B     		ldr	r3, [sp, #4]
 255 000c 1A60     		str	r2, [r3]
 256              		.loc 5 134 0
 257 000e 019B     		ldr	r3, [sp, #4]
 258              		.loc 5 135 0
 259 0010 1846     		mov	r0, r3
 260 0012 02B0     		add	sp, sp, #8
 261              		.cfi_def_cfa_offset 0
 262              		@ sp needed
 263 0014 7047     		bx	lr
 264              		.cfi_endproc
 265              	.LFE262:
 266              		.size	_ZN3r2p4TimeaSERKS0_, .-_ZN3r2p4TimeaSERKS0_
 267 0016 00BF     		.section	.text._ZN3r2p4Time2msEl,"axG",%progbits,_ZN3r2p4Time2msEl,comdat
 268              		.align	2
 269              		.weak	_ZN3r2p4Time2msEl
 270              		.thumb
 271              		.thumb_func
 272              		.type	_ZN3r2p4Time2msEl, %function
 273              	_ZN3r2p4Time2msEl:
 274              	.LFB276:
 275              		.loc 5 184 0
 276              		.cfi_startproc
 277              		@ args = 0, pretend = 0, frame = 8
 278              		@ frame_needed = 0, uses_anonymous_args = 0
 279 0000 00B5     		push	{lr}
 280              		.cfi_def_cfa_offset 4
 281              		.cfi_offset 14, -4
 282 0002 83B0     		sub	sp, sp, #12
 283              		.cfi_def_cfa_offset 16
 284 0004 0190     		str	r0, [sp, #4]
 285 0006 0091     		str	r1, [sp]
ARM GAS  /tmp/ccytVDiP.s 			page 6


 286              		.loc 5 186 0
 287 0008 009B     		ldr	r3, [sp]
 288 000a 4FF47A72 		mov	r2, #1000
 289 000e 02FB03F3 		mul	r3, r2, r3
 290 0012 0198     		ldr	r0, [sp, #4]
 291 0014 1946     		mov	r1, r3
 292 0016 FFF7FEFF 		bl	_ZN3r2p4TimeC1IlEET_
 293              		.loc 5 187 0
 294 001a 0198     		ldr	r0, [sp, #4]
 295 001c 03B0     		add	sp, sp, #12
 296              		.cfi_def_cfa_offset 4
 297              		@ sp needed
 298 001e 5DF804FB 		ldr	pc, [sp], #4
 299              		.cfi_endproc
 300              	.LFE276:
 301              		.size	_ZN3r2p4Time2msEl, .-_ZN3r2p4Time2msEl
 302 0022 00BF     		.section	.text._ZN3r2p7Message12reset_unsafeEv,"axG",%progbits,_ZN3r2p7Message12reset_unsafeEv,com
 303              		.align	2
 304              		.weak	_ZN3r2p7Message12reset_unsafeEv
 305              		.thumb
 306              		.thumb_func
 307              		.type	_ZN3r2p7Message12reset_unsafeEv, %function
 308              	_ZN3r2p7Message12reset_unsafeEv:
 309              	.LFB292:
 310              		.file 6 "/opt/R2P/core/Middleware/include/r2p/Message.hpp"
 311              		.loc 6 122 0
 312              		.cfi_startproc
 313              		@ args = 0, pretend = 0, frame = 8
 314              		@ frame_needed = 0, uses_anonymous_args = 0
 315              		@ link register save eliminated.
 316 0000 82B0     		sub	sp, sp, #8
 317              		.cfi_def_cfa_offset 8
 318 0002 0190     		str	r0, [sp, #4]
 319              		.loc 6 127 0
 320 0004 019B     		ldr	r3, [sp, #4]
 321 0006 0022     		movs	r2, #0
 322 0008 1A70     		strb	r2, [r3]
 323 000a 0022     		movs	r2, #0
 324 000c 5A70     		strb	r2, [r3, #1]
 325              		.loc 6 128 0
 326 000e 02B0     		add	sp, sp, #8
 327              		.cfi_def_cfa_offset 0
 328              		@ sp needed
 329 0010 7047     		bx	lr
 330              		.cfi_endproc
 331              	.LFE292:
 332              		.size	_ZN3r2p7Message12reset_unsafeEv, .-_ZN3r2p7Message12reset_unsafeEv
 333 0012 00BF     		.section	.rodata
 334              		.align	2
 335              	.LC0:
 336 0000 5232505F 		.ascii	"R2P_ASSERT()\000"
 336      41535345 
 336      52542829 
 336      00
 337              		.section	.text._ZN3r2p13BasePublisher12alloc_unsafeERPNS_7MessageE,"axG",%progbits,_ZN3r2p13BasePu
 338              		.align	2
 339              		.weak	_ZN3r2p13BasePublisher12alloc_unsafeERPNS_7MessageE
ARM GAS  /tmp/ccytVDiP.s 			page 7


 340              		.thumb
 341              		.thumb_func
 342              		.type	_ZN3r2p13BasePublisher12alloc_unsafeERPNS_7MessageE, %function
 343              	_ZN3r2p13BasePublisher12alloc_unsafeERPNS_7MessageE:
 344              	.LFB303:
 345              		.file 7 "/opt/R2P/core/Middleware/include/r2p/BasePublisher.hpp"
 346              		.loc 7 64 0
 347              		.cfi_startproc
 348              		@ args = 0, pretend = 0, frame = 8
 349              		@ frame_needed = 0, uses_anonymous_args = 0
 350 0000 00B5     		push	{lr}
 351              		.cfi_def_cfa_offset 4
 352              		.cfi_offset 14, -4
 353 0002 83B0     		sub	sp, sp, #12
 354              		.cfi_def_cfa_offset 16
 355 0004 0190     		str	r0, [sp, #4]
 356 0006 0091     		str	r1, [sp]
 357              		.loc 7 66 0
 358 0008 019B     		ldr	r3, [sp, #4]
 359 000a 5B68     		ldr	r3, [r3, #4]
 360 000c 002B     		cmp	r3, #0
 361 000e 02D1     		bne	.L20
 362              		.loc 7 66 0 is_stmt 0 discriminator 1
 363 0010 0A48     		ldr	r0, .L22
 364 0012 FFF7FEFF 		bl	chDbgPanic
 365              	.L20:
 366              		.loc 7 68 0 is_stmt 1
 367 0016 019B     		ldr	r3, [sp, #4]
 368 0018 5B68     		ldr	r3, [r3, #4]
 369 001a 1846     		mov	r0, r3
 370 001c FFF7FEFF 		bl	_ZN3r2p5Topic12alloc_unsafeEv
 371 0020 0246     		mov	r2, r0
 372 0022 009B     		ldr	r3, [sp]
 373 0024 1A60     		str	r2, [r3]
 374              		.loc 7 69 0
 375 0026 009B     		ldr	r3, [sp]
 376 0028 1B68     		ldr	r3, [r3]
 377 002a 002B     		cmp	r3, #0
 378 002c 14BF     		ite	ne
 379 002e 0123     		movne	r3, #1
 380 0030 0023     		moveq	r3, #0
 381 0032 DBB2     		uxtb	r3, r3
 382              		.loc 7 70 0
 383 0034 1846     		mov	r0, r3
 384 0036 03B0     		add	sp, sp, #12
 385              		.cfi_def_cfa_offset 4
 386              		@ sp needed
 387 0038 5DF804FB 		ldr	pc, [sp], #4
 388              	.L23:
 389              		.align	2
 390              	.L22:
 391 003c 00000000 		.word	.LC0
 392              		.cfi_endproc
 393              	.LFE303:
 394              		.size	_ZN3r2p13BasePublisher12alloc_unsafeERPNS_7MessageE, .-_ZN3r2p13BasePublisher12alloc_unsafeE
 395              		.section	.text._ZN3r2p13BasePublisher5allocERPNS_7MessageE,"axG",%progbits,_ZN3r2p13BasePublisher5
 396              		.align	2
ARM GAS  /tmp/ccytVDiP.s 			page 8


 397              		.weak	_ZN3r2p13BasePublisher5allocERPNS_7MessageE
 398              		.thumb
 399              		.thumb_func
 400              		.type	_ZN3r2p13BasePublisher5allocERPNS_7MessageE, %function
 401              	_ZN3r2p13BasePublisher5allocERPNS_7MessageE:
 402              	.LFB304:
 403              		.loc 7 74 0
 404              		.cfi_startproc
 405              		@ args = 0, pretend = 0, frame = 16
 406              		@ frame_needed = 0, uses_anonymous_args = 0
 407 0000 00B5     		push	{lr}
 408              		.cfi_def_cfa_offset 4
 409              		.cfi_offset 14, -4
 410 0002 85B0     		sub	sp, sp, #20
 411              		.cfi_def_cfa_offset 24
 412 0004 0190     		str	r0, [sp, #4]
 413 0006 0091     		str	r1, [sp]
 414              	.LBB30:
 415              		.loc 7 76 0
 416 0008 FFF7FEFF 		bl	_ZN3r2p7SysLock7acquireEv
 417              		.loc 7 77 0
 418 000c 0198     		ldr	r0, [sp, #4]
 419 000e 0099     		ldr	r1, [sp]
 420 0010 FFF7FEFF 		bl	_ZN3r2p13BasePublisher12alloc_unsafeERPNS_7MessageE
 421 0014 0346     		mov	r3, r0
 422 0016 8DF80F30 		strb	r3, [sp, #15]
 423              		.loc 7 78 0
 424 001a FFF7FEFF 		bl	_ZN3r2p7SysLock7releaseEv
 425              		.loc 7 79 0
 426 001e 9DF80F30 		ldrb	r3, [sp, #15]	@ zero_extendqisi2
 427              	.LBE30:
 428              		.loc 7 80 0
 429 0022 1846     		mov	r0, r3
 430 0024 05B0     		add	sp, sp, #20
 431              		.cfi_def_cfa_offset 4
 432              		@ sp needed
 433 0026 5DF804FB 		ldr	pc, [sp], #4
 434              		.cfi_endproc
 435              	.LFE304:
 436              		.size	_ZN3r2p13BasePublisher5allocERPNS_7MessageE, .-_ZN3r2p13BasePublisher5allocERPNS_7MessageE
 437 002a 00BF     		.section	.text._ZN3r2p7Thread_11create_heapEPvjmPFlS1_ES1_PKc,"axG",%progbits,_ZN3r2p7Thread_11cre
 438              		.align	2
 439              		.weak	_ZN3r2p7Thread_11create_heapEPvjmPFlS1_ES1_PKc
 440              		.thumb
 441              		.thumb_func
 442              		.type	_ZN3r2p7Thread_11create_heapEPvjmPFlS1_ES1_PKc, %function
 443              	_ZN3r2p7Thread_11create_heapEPvjmPFlS1_ES1_PKc:
 444              	.LFB334:
 445              		.file 8 "/opt/R2P/core/Middleware/port/chibios/include/r2p/impl/Thread_.hpp"
 446              		.loc 8 115 0
 447              		.cfi_startproc
 448              		@ args = 8, pretend = 0, frame = 24
 449              		@ frame_needed = 0, uses_anonymous_args = 0
 450 0000 00B5     		push	{lr}
 451              		.cfi_def_cfa_offset 4
 452              		.cfi_offset 14, -4
 453 0002 89B0     		sub	sp, sp, #36
ARM GAS  /tmp/ccytVDiP.s 			page 9


 454              		.cfi_def_cfa_offset 40
 455 0004 0590     		str	r0, [sp, #20]
 456 0006 0491     		str	r1, [sp, #16]
 457 0008 0392     		str	r2, [sp, #12]
 458 000a 0293     		str	r3, [sp, #8]
 459              	.LBB31:
 460              		.loc 8 120 0
 461 000c 0A9B     		ldr	r3, [sp, #40]
 462 000e 0093     		str	r3, [sp]
 463 0010 0598     		ldr	r0, [sp, #20]
 464 0012 0499     		ldr	r1, [sp, #16]
 465 0014 039A     		ldr	r2, [sp, #12]
 466 0016 029B     		ldr	r3, [sp, #8]
 467 0018 FFF7FEFF 		bl	chThdCreateFromHeap
 468 001c 0790     		str	r0, [sp, #28]
 469              		.loc 8 122 0
 470 001e 079B     		ldr	r3, [sp, #28]
 471 0020 002B     		cmp	r3, #0
 472 0022 02D0     		beq	.L27
 473              		.loc 8 123 0
 474 0024 079B     		ldr	r3, [sp, #28]
 475 0026 0B9A     		ldr	r2, [sp, #44]
 476 0028 9A61     		str	r2, [r3, #24]
 477              	.L27:
 478              		.loc 8 128 0
 479 002a 079B     		ldr	r3, [sp, #28]
 480              	.LBE31:
 481              		.loc 8 129 0
 482 002c 1846     		mov	r0, r3
 483 002e 09B0     		add	sp, sp, #36
 484              		.cfi_def_cfa_offset 4
 485              		@ sp needed
 486 0030 5DF804FB 		ldr	pc, [sp], #4
 487              		.cfi_endproc
 488              	.LFE334:
 489              		.size	_ZN3r2p7Thread_11create_heapEPvjmPFlS1_ES1_PKc, .-_ZN3r2p7Thread_11create_heapEPvjmPFlS1_ES1
 490              		.section	.text._ZN3r2p7Thread_5sleepERKNS_4TimeE,"axG",%progbits,_ZN3r2p7Thread_5sleepERKNS_4TimeE
 491              		.align	2
 492              		.weak	_ZN3r2p7Thread_5sleepERKNS_4TimeE
 493              		.thumb
 494              		.thumb_func
 495              		.type	_ZN3r2p7Thread_5sleepERKNS_4TimeE, %function
 496              	_ZN3r2p7Thread_5sleepERKNS_4TimeE:
 497              	.LFB340:
 498              		.loc 8 180 0
 499              		.cfi_startproc
 500              		@ args = 0, pretend = 0, frame = 8
 501              		@ frame_needed = 0, uses_anonymous_args = 0
 502 0000 00B5     		push	{lr}
 503              		.cfi_def_cfa_offset 4
 504              		.cfi_offset 14, -4
 505 0002 83B0     		sub	sp, sp, #12
 506              		.cfi_def_cfa_offset 16
 507 0004 0190     		str	r0, [sp, #4]
 508              		.loc 8 182 0
 509 0006 019B     		ldr	r3, [sp, #4]
 510 0008 1B68     		ldr	r3, [r3]
ARM GAS  /tmp/ccytVDiP.s 			page 10


 511 000a 002B     		cmp	r3, #0
 512 000c 21DD     		ble	.L30
 513              		.loc 8 183 0
 514 000e 019B     		ldr	r3, [sp, #4]
 515 0010 1B68     		ldr	r3, [r3]
 516 0012 124A     		ldr	r2, .L34
 517 0014 9342     		cmp	r3, r2
 518 0016 10DC     		bgt	.L31
 519              		.loc 8 184 0
 520 0018 019B     		ldr	r3, [sp, #4]
 521 001a 1B68     		ldr	r3, [r3]
 522 001c 1A46     		mov	r2, r3
 523 001e 4FF47A73 		mov	r3, #1000
 524 0022 03FB02F3 		mul	r3, r3, r2
 525 0026 013B     		subs	r3, r3, #1
 526 0028 0D4A     		ldr	r2, .L34+4
 527 002a A2FB0323 		umull	r2, r3, r2, r3
 528 002e 9B0C     		lsrs	r3, r3, #18
 529 0030 0133     		adds	r3, r3, #1
 530 0032 1846     		mov	r0, r3
 531 0034 FFF7FEFF 		bl	chThdSleep
 532 0038 0DE0     		b	.L29
 533              	.L31:
 534              		.loc 8 186 0
 535 003a 0198     		ldr	r0, [sp, #4]
 536 003c FFF7FEFF 		bl	_ZNK3r2p4Time8to_s_rawEv
 537 0040 0246     		mov	r2, r0
 538 0042 4FF47A73 		mov	r3, #1000
 539 0046 03FB02F3 		mul	r3, r3, r2
 540 004a 1846     		mov	r0, r3
 541 004c FFF7FEFF 		bl	chThdSleep
 542 0050 01E0     		b	.L29
 543              	.L30:
 544              		.loc 8 189 0
 545 0052 FFF7FEFF 		bl	chThdYield
 546              	.L29:
 547              		.loc 8 191 0
 548 0056 03B0     		add	sp, sp, #12
 549              		.cfi_def_cfa_offset 4
 550              		@ sp needed
 551 0058 5DF804FB 		ldr	pc, [sp], #4
 552              	.L35:
 553              		.align	2
 554              	.L34:
 555 005c 3F420F00 		.word	999999
 556 0060 83DE1B43 		.word	1125899907
 557              		.cfi_endproc
 558              	.LFE340:
 559              		.size	_ZN3r2p7Thread_5sleepERKNS_4TimeE, .-_ZN3r2p7Thread_5sleepERKNS_4TimeE
 560              		.section	.text._ZN3r2p6Thread11create_heapEPvjmPFlS1_ES1_PKc,"axG",%progbits,_ZN3r2p6Thread11creat
 561              		.align	2
 562              		.weak	_ZN3r2p6Thread11create_heapEPvjmPFlS1_ES1_PKc
 563              		.thumb
 564              		.thumb_func
 565              		.type	_ZN3r2p6Thread11create_heapEPvjmPFlS1_ES1_PKc, %function
 566              	_ZN3r2p6Thread11create_heapEPvjmPFlS1_ES1_PKc:
 567              	.LFB345:
ARM GAS  /tmp/ccytVDiP.s 			page 11


 568              		.file 9 "/opt/R2P/core/Middleware/include/r2p/Thread.hpp"
 569              		.loc 9 92 0
 570              		.cfi_startproc
 571              		@ args = 8, pretend = 0, frame = 16
 572              		@ frame_needed = 0, uses_anonymous_args = 0
 573 0000 00B5     		push	{lr}
 574              		.cfi_def_cfa_offset 4
 575              		.cfi_offset 14, -4
 576 0002 87B0     		sub	sp, sp, #28
 577              		.cfi_def_cfa_offset 32
 578 0004 0590     		str	r0, [sp, #20]
 579 0006 0491     		str	r1, [sp, #16]
 580 0008 0392     		str	r2, [sp, #12]
 581 000a 0293     		str	r3, [sp, #8]
 582              		.loc 9 96 0
 583 000c 089B     		ldr	r3, [sp, #32]
 584 000e 0093     		str	r3, [sp]
 585 0010 099B     		ldr	r3, [sp, #36]
 586 0012 0193     		str	r3, [sp, #4]
 587 0014 0598     		ldr	r0, [sp, #20]
 588 0016 0499     		ldr	r1, [sp, #16]
 589 0018 039A     		ldr	r2, [sp, #12]
 590 001a 029B     		ldr	r3, [sp, #8]
 591 001c FFF7FEFF 		bl	_ZN3r2p7Thread_11create_heapEPvjmPFlS1_ES1_PKc
 592 0020 0346     		mov	r3, r0
 593              		.loc 9 97 0
 594 0022 1846     		mov	r0, r3
 595 0024 07B0     		add	sp, sp, #28
 596              		.cfi_def_cfa_offset 4
 597              		@ sp needed
 598 0026 5DF804FB 		ldr	pc, [sp], #4
 599              		.cfi_endproc
 600              	.LFE345:
 601              		.size	_ZN3r2p6Thread11create_heapEPvjmPFlS1_ES1_PKc, .-_ZN3r2p6Thread11create_heapEPvjmPFlS1_ES1_P
 602 002a 00BF     		.section	.text._ZN3r2p6Thread5sleepERKNS_4TimeE,"axG",%progbits,_ZN3r2p6Thread5sleepERKNS_4TimeE,c
 603              		.align	2
 604              		.weak	_ZN3r2p6Thread5sleepERKNS_4TimeE
 605              		.thumb
 606              		.thumb_func
 607              		.type	_ZN3r2p6Thread5sleepERKNS_4TimeE, %function
 608              	_ZN3r2p6Thread5sleepERKNS_4TimeE:
 609              	.LFB351:
 610              		.loc 9 140 0
 611              		.cfi_startproc
 612              		@ args = 0, pretend = 0, frame = 8
 613              		@ frame_needed = 0, uses_anonymous_args = 0
 614 0000 00B5     		push	{lr}
 615              		.cfi_def_cfa_offset 4
 616              		.cfi_offset 14, -4
 617 0002 83B0     		sub	sp, sp, #12
 618              		.cfi_def_cfa_offset 16
 619 0004 0190     		str	r0, [sp, #4]
 620              		.loc 9 142 0
 621 0006 0198     		ldr	r0, [sp, #4]
 622 0008 FFF7FEFF 		bl	_ZN3r2p7Thread_5sleepERKNS_4TimeE
 623              		.loc 9 143 0
 624 000c 03B0     		add	sp, sp, #12
ARM GAS  /tmp/ccytVDiP.s 			page 12


 625              		.cfi_def_cfa_offset 4
 626              		@ sp needed
 627 000e 5DF804FB 		ldr	pc, [sp], #4
 628              		.cfi_endproc
 629              	.LFE351:
 630              		.size	_ZN3r2p6Thread5sleepERKNS_4TimeE, .-_ZN3r2p6Thread5sleepERKNS_4TimeE
 631 0012 00BF     		.section	.text._ZNK3r2p10SpinEvent_10get_threadEv,"axG",%progbits,_ZNK3r2p10SpinEvent_10get_thread
 632              		.align	2
 633              		.weak	_ZNK3r2p10SpinEvent_10get_threadEv
 634              		.thumb
 635              		.thumb_func
 636              		.type	_ZNK3r2p10SpinEvent_10get_threadEv, %function
 637              	_ZNK3r2p10SpinEvent_10get_threadEv:
 638              	.LFB353:
 639              		.file 10 "/opt/R2P/core/Middleware/port/chibios/include/r2p/impl/SpinEvent_.hpp"
 640              		.loc 10 36 0
 641              		.cfi_startproc
 642              		@ args = 0, pretend = 0, frame = 8
 643              		@ frame_needed = 0, uses_anonymous_args = 0
 644              		@ link register save eliminated.
 645 0000 82B0     		sub	sp, sp, #8
 646              		.cfi_def_cfa_offset 8
 647 0002 0190     		str	r0, [sp, #4]
 648              		.loc 10 38 0
 649 0004 019B     		ldr	r3, [sp, #4]
 650 0006 1B68     		ldr	r3, [r3]
 651              		.loc 10 39 0
 652 0008 1846     		mov	r0, r3
 653 000a 02B0     		add	sp, sp, #8
 654              		.cfi_def_cfa_offset 0
 655              		@ sp needed
 656 000c 7047     		bx	lr
 657              		.cfi_endproc
 658              	.LFE353:
 659              		.size	_ZNK3r2p10SpinEvent_10get_threadEv, .-_ZNK3r2p10SpinEvent_10get_threadEv
 660 000e 00BF     		.section	.text._ZN3r2p10SpinEvent_13signal_unsafeEj,"axG",%progbits,_ZN3r2p10SpinEvent_13signal_un
 661              		.align	2
 662              		.weak	_ZN3r2p10SpinEvent_13signal_unsafeEj
 663              		.thumb
 664              		.thumb_func
 665              		.type	_ZN3r2p10SpinEvent_13signal_unsafeEj, %function
 666              	_ZN3r2p10SpinEvent_13signal_unsafeEj:
 667              	.LFB355:
 668              		.loc 10 50 0
 669              		.cfi_startproc
 670              		@ args = 0, pretend = 0, frame = 8
 671              		@ frame_needed = 0, uses_anonymous_args = 0
 672 0000 00B5     		push	{lr}
 673              		.cfi_def_cfa_offset 4
 674              		.cfi_offset 14, -4
 675 0002 83B0     		sub	sp, sp, #12
 676              		.cfi_def_cfa_offset 16
 677 0004 0190     		str	r0, [sp, #4]
 678 0006 0091     		str	r1, [sp]
 679              		.loc 10 52 0
 680 0008 019B     		ldr	r3, [sp, #4]
 681 000a 1B68     		ldr	r3, [r3]
ARM GAS  /tmp/ccytVDiP.s 			page 13


 682 000c 002B     		cmp	r3, #0
 683 000e 10D0     		beq	.L41
 684              		.loc 10 53 0
 685 0010 2022     		movs	r2, #32
 686 0012 009B     		ldr	r3, [sp]
 687 0014 9A42     		cmp	r2, r3
 688 0016 02D8     		bhi	.L43
 689              		.loc 10 53 0 is_stmt 0 discriminator 1
 690 0018 0748     		ldr	r0, .L44
 691 001a FFF7FEFF 		bl	chDbgPanic
 692              	.L43:
 693              		.loc 10 54 0 is_stmt 1
 694 001e 019B     		ldr	r3, [sp, #4]
 695 0020 1968     		ldr	r1, [r3]
 696 0022 009B     		ldr	r3, [sp]
 697 0024 0122     		movs	r2, #1
 698 0026 02FA03F3 		lsl	r3, r2, r3
 699 002a 0846     		mov	r0, r1
 700 002c 1946     		mov	r1, r3
 701 002e FFF7FEFF 		bl	chEvtSignalI
 702              	.L41:
 703              		.loc 10 56 0
 704 0032 03B0     		add	sp, sp, #12
 705              		.cfi_def_cfa_offset 4
 706              		@ sp needed
 707 0034 5DF804FB 		ldr	pc, [sp], #4
 708              	.L45:
 709              		.align	2
 710              	.L44:
 711 0038 00000000 		.word	.LC0
 712              		.cfi_endproc
 713              	.LFE355:
 714              		.size	_ZN3r2p10SpinEvent_13signal_unsafeEj, .-_ZN3r2p10SpinEvent_13signal_unsafeEj
 715              		.section	.text._ZNK3r2p9SpinEvent10get_threadEv,"axG",%progbits,_ZNK3r2p9SpinEvent10get_threadEv,c
 716              		.align	2
 717              		.weak	_ZNK3r2p9SpinEvent10get_threadEv
 718              		.thumb
 719              		.thumb_func
 720              		.type	_ZNK3r2p9SpinEvent10get_threadEv, %function
 721              	_ZNK3r2p9SpinEvent10get_threadEv:
 722              	.LFB361:
 723              		.file 11 "/opt/R2P/core/Middleware/include/r2p/SpinEvent.hpp"
 724              		.loc 11 35 0
 725              		.cfi_startproc
 726              		@ args = 0, pretend = 0, frame = 8
 727              		@ frame_needed = 0, uses_anonymous_args = 0
 728 0000 00B5     		push	{lr}
 729              		.cfi_def_cfa_offset 4
 730              		.cfi_offset 14, -4
 731 0002 83B0     		sub	sp, sp, #12
 732              		.cfi_def_cfa_offset 16
 733 0004 0190     		str	r0, [sp, #4]
 734              		.loc 11 37 0
 735 0006 019B     		ldr	r3, [sp, #4]
 736 0008 1846     		mov	r0, r3
 737 000a FFF7FEFF 		bl	_ZNK3r2p10SpinEvent_10get_threadEv
 738 000e 0346     		mov	r3, r0
ARM GAS  /tmp/ccytVDiP.s 			page 14


 739              		.loc 11 38 0
 740 0010 1846     		mov	r0, r3
 741 0012 03B0     		add	sp, sp, #12
 742              		.cfi_def_cfa_offset 4
 743              		@ sp needed
 744 0014 5DF804FB 		ldr	pc, [sp], #4
 745              		.cfi_endproc
 746              	.LFE361:
 747              		.size	_ZNK3r2p9SpinEvent10get_threadEv, .-_ZNK3r2p9SpinEvent10get_threadEv
 748              		.section	.text._ZN3r2p9SpinEvent13signal_unsafeEj,"axG",%progbits,_ZN3r2p9SpinEvent13signal_unsafe
 749              		.align	2
 750              		.weak	_ZN3r2p9SpinEvent13signal_unsafeEj
 751              		.thumb
 752              		.thumb_func
 753              		.type	_ZN3r2p9SpinEvent13signal_unsafeEj, %function
 754              	_ZN3r2p9SpinEvent13signal_unsafeEj:
 755              	.LFB363:
 756              		.loc 11 49 0
 757              		.cfi_startproc
 758              		@ args = 0, pretend = 0, frame = 8
 759              		@ frame_needed = 0, uses_anonymous_args = 0
 760 0000 00B5     		push	{lr}
 761              		.cfi_def_cfa_offset 4
 762              		.cfi_offset 14, -4
 763 0002 83B0     		sub	sp, sp, #12
 764              		.cfi_def_cfa_offset 16
 765 0004 0190     		str	r0, [sp, #4]
 766 0006 0091     		str	r1, [sp]
 767              		.loc 11 51 0
 768 0008 019B     		ldr	r3, [sp, #4]
 769 000a 1846     		mov	r0, r3
 770 000c 0099     		ldr	r1, [sp]
 771 000e FFF7FEFF 		bl	_ZN3r2p10SpinEvent_13signal_unsafeEj
 772              		.loc 11 52 0
 773 0012 03B0     		add	sp, sp, #12
 774              		.cfi_def_cfa_offset 4
 775              		@ sp needed
 776 0014 5DF804FB 		ldr	pc, [sp], #4
 777              		.cfi_endproc
 778              	.LFE363:
 779              		.size	_ZN3r2p9SpinEvent13signal_unsafeEj, .-_ZN3r2p9SpinEvent13signal_unsafeEj
 780              		.section	.text._ZNK3r2p4Node11get_enabledEv,"axG",%progbits,_ZNK3r2p4Node11get_enabledEv,comdat
 781              		.align	2
 782              		.weak	_ZNK3r2p4Node11get_enabledEv
 783              		.thumb
 784              		.thumb_func
 785              		.type	_ZNK3r2p4Node11get_enabledEv, %function
 786              	_ZNK3r2p4Node11get_enabledEv:
 787              	.LFB380:
 788              		.file 12 "/opt/R2P/core/Middleware/include/r2p/Node.hpp"
 789              		.loc 12 103 0
 790              		.cfi_startproc
 791              		@ args = 0, pretend = 0, frame = 8
 792              		@ frame_needed = 0, uses_anonymous_args = 0
 793 0000 00B5     		push	{lr}
 794              		.cfi_def_cfa_offset 4
 795              		.cfi_offset 14, -4
ARM GAS  /tmp/ccytVDiP.s 			page 15


 796 0002 83B0     		sub	sp, sp, #12
 797              		.cfi_def_cfa_offset 16
 798 0004 0190     		str	r0, [sp, #4]
 799              		.loc 12 105 0
 800 0006 019B     		ldr	r3, [sp, #4]
 801 0008 0C33     		adds	r3, r3, #12
 802 000a 1846     		mov	r0, r3
 803 000c FFF7FEFF 		bl	_ZNK3r2p9SpinEvent10get_threadEv
 804 0010 0346     		mov	r3, r0
 805 0012 002B     		cmp	r3, #0
 806 0014 14BF     		ite	ne
 807 0016 0123     		movne	r3, #1
 808 0018 0023     		moveq	r3, #0
 809 001a DBB2     		uxtb	r3, r3
 810              		.loc 12 106 0
 811 001c 1846     		mov	r0, r3
 812 001e 03B0     		add	sp, sp, #12
 813              		.cfi_def_cfa_offset 4
 814              		@ sp needed
 815 0020 5DF804FB 		ldr	pc, [sp], #4
 816              		.cfi_endproc
 817              	.LFE380:
 818              		.size	_ZNK3r2p4Node11get_enabledEv, .-_ZNK3r2p4Node11get_enabledEv
 819              		.section	.text._ZN3r2p4Node13notify_unsafeEj,"axG",%progbits,_ZN3r2p4Node13notify_unsafeEj,comdat
 820              		.align	2
 821              		.weak	_ZN3r2p4Node13notify_unsafeEj
 822              		.thumb
 823              		.thumb_func
 824              		.type	_ZN3r2p4Node13notify_unsafeEj, %function
 825              	_ZN3r2p4Node13notify_unsafeEj:
 826              	.LFB385:
 827              		.loc 12 140 0
 828              		.cfi_startproc
 829              		@ args = 0, pretend = 0, frame = 8
 830              		@ frame_needed = 0, uses_anonymous_args = 0
 831 0000 00B5     		push	{lr}
 832              		.cfi_def_cfa_offset 4
 833              		.cfi_offset 14, -4
 834 0002 83B0     		sub	sp, sp, #12
 835              		.cfi_def_cfa_offset 16
 836 0004 0190     		str	r0, [sp, #4]
 837 0006 0091     		str	r1, [sp]
 838              		.loc 12 142 0
 839 0008 019B     		ldr	r3, [sp, #4]
 840 000a 0C33     		adds	r3, r3, #12
 841 000c 1846     		mov	r0, r3
 842 000e 0099     		ldr	r1, [sp]
 843 0010 FFF7FEFF 		bl	_ZN3r2p9SpinEvent13signal_unsafeEj
 844              		.loc 12 143 0
 845 0014 03B0     		add	sp, sp, #12
 846              		.cfi_def_cfa_offset 4
 847              		@ sp needed
 848 0016 5DF804FB 		ldr	pc, [sp], #4
 849              		.cfi_endproc
 850              	.LFE385:
 851              		.size	_ZN3r2p4Node13notify_unsafeEj, .-_ZN3r2p4Node13notify_unsafeEj
 852 001a 00BF     		.section	.text._ZNK3r2p15LocalSubscriber16get_queue_lengthEv,"axG",%progbits,_ZNK3r2p15LocalSubscr
ARM GAS  /tmp/ccytVDiP.s 			page 16


 853              		.align	2
 854              		.weak	_ZNK3r2p15LocalSubscriber16get_queue_lengthEv
 855              		.thumb
 856              		.thumb_func
 857              		.type	_ZNK3r2p15LocalSubscriber16get_queue_lengthEv, %function
 858              	_ZNK3r2p15LocalSubscriber16get_queue_lengthEv:
 859              	.LFB391:
 860              		.file 13 "/opt/R2P/core/Middleware/include/r2p/LocalSubscriber.hpp"
 861              		.loc 13 64 0
 862              		.cfi_startproc
 863              		@ args = 0, pretend = 0, frame = 8
 864              		@ frame_needed = 0, uses_anonymous_args = 0
 865 0000 00B5     		push	{lr}
 866              		.cfi_def_cfa_offset 4
 867              		.cfi_offset 14, -4
 868 0002 83B0     		sub	sp, sp, #12
 869              		.cfi_def_cfa_offset 16
 870 0004 0190     		str	r0, [sp, #4]
 871              		.loc 13 66 0
 872 0006 019B     		ldr	r3, [sp, #4]
 873 0008 1033     		adds	r3, r3, #16
 874 000a 1846     		mov	r0, r3
 875 000c FFF7FEFF 		bl	_ZNK3r2p10ArrayQueueIPNS_7MessageEE10get_lengthEv
 876 0010 0346     		mov	r3, r0
 877              		.loc 13 67 0
 878 0012 1846     		mov	r0, r3
 879 0014 03B0     		add	sp, sp, #12
 880              		.cfi_def_cfa_offset 4
 881              		@ sp needed
 882 0016 5DF804FB 		ldr	pc, [sp], #4
 883              		.cfi_endproc
 884              	.LFE391:
 885              		.size	_ZNK3r2p15LocalSubscriber16get_queue_lengthEv, .-_ZNK3r2p15LocalSubscriber16get_queue_length
 886 001a 00BF     		.section	.text._ZN3r2p15LocalSubscriber12fetch_unsafeERPNS_7MessageERNS_4TimeE,"axG",%progbits,_ZN
 887              		.align	2
 888              		.weak	_ZN3r2p15LocalSubscriber12fetch_unsafeERPNS_7MessageERNS_4TimeE
 889              		.thumb
 890              		.thumb_func
 891              		.type	_ZN3r2p15LocalSubscriber12fetch_unsafeERPNS_7MessageERNS_4TimeE, %function
 892              	_ZN3r2p15LocalSubscriber12fetch_unsafeERPNS_7MessageERNS_4TimeE:
 893              	.LFB392:
 894              		.loc 13 71 0
 895              		.cfi_startproc
 896              		@ args = 0, pretend = 0, frame = 24
 897              		@ frame_needed = 0, uses_anonymous_args = 0
 898 0000 00B5     		push	{lr}
 899              		.cfi_def_cfa_offset 4
 900              		.cfi_offset 14, -4
 901 0002 87B0     		sub	sp, sp, #28
 902              		.cfi_def_cfa_offset 32
 903 0004 0390     		str	r0, [sp, #12]
 904 0006 0291     		str	r1, [sp, #8]
 905 0008 0192     		str	r2, [sp, #4]
 906              		.loc 13 73 0
 907 000a 039B     		ldr	r3, [sp, #12]
 908 000c 1033     		adds	r3, r3, #16
 909 000e 1846     		mov	r0, r3
ARM GAS  /tmp/ccytVDiP.s 			page 17


 910 0010 0299     		ldr	r1, [sp, #8]
 911 0012 FFF7FEFF 		bl	_ZN3r2p10ArrayQueueIPNS_7MessageEE12fetch_unsafeERS2_
 912 0016 0346     		mov	r3, r0
 913 0018 002B     		cmp	r3, #0
 914 001a 0AD0     		beq	.L55
 915              		.loc 13 74 0
 916 001c 05AB     		add	r3, sp, #20
 917 001e 1846     		mov	r0, r3
 918 0020 FFF7FEFF 		bl	_ZN3r2p4Time3nowEv
 919 0024 05AB     		add	r3, sp, #20
 920 0026 0198     		ldr	r0, [sp, #4]
 921 0028 1946     		mov	r1, r3
 922 002a FFF7FEFF 		bl	_ZN3r2p4TimeaSERKS0_
 923              		.loc 13 75 0
 924 002e 0123     		movs	r3, #1
 925 0030 00E0     		b	.L56
 926              	.L55:
 927              		.loc 13 77 0
 928 0032 0023     		movs	r3, #0
 929              	.L56:
 930              		.loc 13 78 0
 931 0034 1846     		mov	r0, r3
 932 0036 07B0     		add	sp, sp, #28
 933              		.cfi_def_cfa_offset 4
 934              		@ sp needed
 935 0038 5DF804FB 		ldr	pc, [sp], #4
 936              		.cfi_endproc
 937              	.LFE392:
 938              		.size	_ZN3r2p15LocalSubscriber12fetch_unsafeERPNS_7MessageERNS_4TimeE, .-_ZN3r2p15LocalSubscriber1
 939              		.section	.text._ZN3r2p15LocalSubscriber13notify_unsafeERNS_7MessageERKNS_4TimeE,"axG",%progbits,_Z
 940              		.align	2
 941              		.weak	_ZN3r2p15LocalSubscriber13notify_unsafeERNS_7MessageERKNS_4TimeE
 942              		.thumb
 943              		.thumb_func
 944              		.type	_ZN3r2p15LocalSubscriber13notify_unsafeERNS_7MessageERKNS_4TimeE, %function
 945              	_ZN3r2p15LocalSubscriber13notify_unsafeERNS_7MessageERKNS_4TimeE:
 946              	.LFB393:
 947              		.loc 13 82 0
 948              		.cfi_startproc
 949              		@ args = 0, pretend = 0, frame = 16
 950              		@ frame_needed = 0, uses_anonymous_args = 0
 951 0000 00B5     		push	{lr}
 952              		.cfi_def_cfa_offset 4
 953              		.cfi_offset 14, -4
 954 0002 85B0     		sub	sp, sp, #20
 955              		.cfi_def_cfa_offset 24
 956 0004 0390     		str	r0, [sp, #12]
 957 0006 0291     		str	r1, [sp, #8]
 958 0008 0192     		str	r2, [sp, #4]
 959              		.loc 13 86 0
 960 000a 039B     		ldr	r3, [sp, #12]
 961 000c 9B68     		ldr	r3, [r3, #8]
 962 000e 1846     		mov	r0, r3
 963 0010 FFF7FEFF 		bl	_ZNK3r2p4Node11get_enabledEv
 964 0014 0346     		mov	r3, r0
 965 0016 002B     		cmp	r3, #0
 966 0018 0AD0     		beq	.L58
ARM GAS  /tmp/ccytVDiP.s 			page 18


 967              		.loc 13 86 0 is_stmt 0 discriminator 1
 968 001a 039B     		ldr	r3, [sp, #12]
 969 001c 1033     		adds	r3, r3, #16
 970 001e 1846     		mov	r0, r3
 971 0020 0299     		ldr	r1, [sp, #8]
 972 0022 FFF7FEFF 		bl	_ZN3r2p10ArrayQueueIPNS_7MessageEE11post_unsafeES2_
 973 0026 0346     		mov	r3, r0
 974 0028 002B     		cmp	r3, #0
 975 002a 01D0     		beq	.L58
 976              		.loc 13 86 0 discriminator 3
 977 002c 0123     		movs	r3, #1
 978 002e 00E0     		b	.L59
 979              	.L58:
 980              		.loc 13 86 0 discriminator 4
 981 0030 0023     		movs	r3, #0
 982              	.L59:
 983              		.loc 13 86 0 discriminator 6
 984 0032 002B     		cmp	r3, #0
 985 0034 0AD0     		beq	.L60
 986              		.loc 13 87 0 is_stmt 1
 987 0036 039B     		ldr	r3, [sp, #12]
 988 0038 9A68     		ldr	r2, [r3, #8]
 989 003a 039B     		ldr	r3, [sp, #12]
 990 003c 93F82430 		ldrb	r3, [r3, #36]	@ zero_extendqisi2
 991 0040 1046     		mov	r0, r2
 992 0042 1946     		mov	r1, r3
 993 0044 FFF7FEFF 		bl	_ZN3r2p4Node13notify_unsafeEj
 994              		.loc 13 88 0
 995 0048 0123     		movs	r3, #1
 996 004a 00E0     		b	.L61
 997              	.L60:
 998              		.loc 13 90 0
 999 004c 0023     		movs	r3, #0
 1000              	.L61:
 1001              		.loc 13 91 0
 1002 004e 1846     		mov	r0, r3
 1003 0050 05B0     		add	sp, sp, #20
 1004              		.cfi_def_cfa_offset 4
 1005              		@ sp needed
 1006 0052 5DF804FB 		ldr	pc, [sp], #4
 1007              		.cfi_endproc
 1008              	.LFE393:
 1009              		.size	_ZN3r2p15LocalSubscriber13notify_unsafeERNS_7MessageERKNS_4TimeE, .-_ZN3r2p15LocalSubscriber
 1010 0056 00BF     		.section	.text._ZN3r2p5Topic12alloc_unsafeEv,"axG",%progbits,_ZN3r2p5Topic12alloc_unsafeEv,comdat
 1011              		.align	2
 1012              		.weak	_ZN3r2p5Topic12alloc_unsafeEv
 1013              		.thumb
 1014              		.thumb_func
 1015              		.type	_ZN3r2p5Topic12alloc_unsafeEv, %function
 1016              	_ZN3r2p5Topic12alloc_unsafeEv:
 1017              	.LFB412:
 1018              		.file 14 "/opt/R2P/core/Middleware/include/r2p/Topic.hpp"
 1019              		.loc 14 250 0
 1020              		.cfi_startproc
 1021              		@ args = 0, pretend = 0, frame = 8
 1022              		@ frame_needed = 0, uses_anonymous_args = 0
 1023 0000 10B5     		push	{r4, lr}
ARM GAS  /tmp/ccytVDiP.s 			page 19


 1024              		.cfi_def_cfa_offset 8
 1025              		.cfi_offset 4, -8
 1026              		.cfi_offset 14, -4
 1027 0002 82B0     		sub	sp, sp, #8
 1028              		.cfi_def_cfa_offset 16
 1029 0004 0190     		str	r0, [sp, #4]
 1030              	.LBB32:
 1031              		.loc 14 252 0
 1032 0006 019B     		ldr	r3, [sp, #4]
 1033 0008 0833     		adds	r3, r3, #8
 1034 000a 1846     		mov	r0, r3
 1035 000c FFF7FEFF 		bl	_ZN3r2p11MemoryPool_12alloc_unsafeEv
 1036 0010 0446     		mov	r4, r0
 1037              		.loc 14 253 0
 1038 0012 002C     		cmp	r4, #0
 1039 0014 04D0     		beq	.L63
 1040              		.loc 14 254 0
 1041 0016 2046     		mov	r0, r4
 1042 0018 FFF7FEFF 		bl	_ZN3r2p7Message12reset_unsafeEv
 1043              		.loc 14 255 0
 1044 001c 2346     		mov	r3, r4
 1045 001e 00E0     		b	.L64
 1046              	.L63:
 1047              		.loc 14 257 0
 1048 0020 0023     		movs	r3, #0
 1049              	.L64:
 1050              	.LBE32:
 1051              		.loc 14 258 0
 1052 0022 1846     		mov	r0, r3
 1053 0024 02B0     		add	sp, sp, #8
 1054              		.cfi_def_cfa_offset 8
 1055              		@ sp needed
 1056 0026 10BD     		pop	{r4, pc}
 1057              		.cfi_endproc
 1058              	.LFE412:
 1059              		.size	_ZN3r2p5Topic12alloc_unsafeEv, .-_ZN3r2p5Topic12alloc_unsafeEv
 1060              		.section	.text._ZN3r2p6Mutex_D2Ev,"axG",%progbits,_ZN3r2p6Mutex_D5Ev,comdat
 1061              		.align	2
 1062              		.weak	_ZN3r2p6Mutex_D2Ev
 1063              		.thumb
 1064              		.thumb_func
 1065              		.type	_ZN3r2p6Mutex_D2Ev, %function
 1066              	_ZN3r2p6Mutex_D2Ev:
 1067              	.LFB538:
 1068              		.file 15 "/opt/R2P/core/Middleware/port/chibios/include/r2p/impl/Mutex_.hpp"
 1069              		.loc 15 9 0
 1070              		.cfi_startproc
 1071              		@ args = 0, pretend = 0, frame = 8
 1072              		@ frame_needed = 0, uses_anonymous_args = 0
 1073 0000 00B5     		push	{lr}
 1074              		.cfi_def_cfa_offset 4
 1075              		.cfi_offset 14, -4
 1076 0002 83B0     		sub	sp, sp, #12
 1077              		.cfi_def_cfa_offset 16
 1078 0004 0190     		str	r0, [sp, #4]
 1079              	.LBB33:
 1080              		.loc 15 9 0
ARM GAS  /tmp/ccytVDiP.s 			page 20


 1081 0006 0198     		ldr	r0, [sp, #4]
 1082 0008 FFF7FEFF 		bl	_ZN3r2p10UncopyableD2Ev
 1083              	.LBE33:
 1084 000c 019B     		ldr	r3, [sp, #4]
 1085 000e 1846     		mov	r0, r3
 1086 0010 03B0     		add	sp, sp, #12
 1087              		.cfi_def_cfa_offset 4
 1088              		@ sp needed
 1089 0012 5DF804FB 		ldr	pc, [sp], #4
 1090              		.cfi_endproc
 1091              	.LFE538:
 1092              		.size	_ZN3r2p6Mutex_D2Ev, .-_ZN3r2p6Mutex_D2Ev
 1093              		.weak	_ZN3r2p6Mutex_D1Ev
 1094              		.thumb_set _ZN3r2p6Mutex_D1Ev,_ZN3r2p6Mutex_D2Ev
 1095 0016 00BF     		.section	.text._ZN3r2p5MutexD2Ev,"axG",%progbits,_ZN3r2p5MutexD5Ev,comdat
 1096              		.align	2
 1097              		.weak	_ZN3r2p5MutexD2Ev
 1098              		.thumb
 1099              		.thumb_func
 1100              		.type	_ZN3r2p5MutexD2Ev, %function
 1101              	_ZN3r2p5MutexD2Ev:
 1102              	.LFB552:
 1103              		.file 16 "/opt/R2P/core/Middleware/include/r2p/Mutex.hpp"
 1104              		.loc 16 9 0
 1105              		.cfi_startproc
 1106              		@ args = 0, pretend = 0, frame = 8
 1107              		@ frame_needed = 0, uses_anonymous_args = 0
 1108 0000 00B5     		push	{lr}
 1109              		.cfi_def_cfa_offset 4
 1110              		.cfi_offset 14, -4
 1111 0002 83B0     		sub	sp, sp, #12
 1112              		.cfi_def_cfa_offset 16
 1113 0004 0190     		str	r0, [sp, #4]
 1114              	.LBB34:
 1115              		.loc 16 9 0
 1116 0006 019B     		ldr	r3, [sp, #4]
 1117 0008 0433     		adds	r3, r3, #4
 1118 000a 1846     		mov	r0, r3
 1119 000c FFF7FEFF 		bl	_ZN3r2p6Mutex_D1Ev
 1120 0010 0198     		ldr	r0, [sp, #4]
 1121 0012 FFF7FEFF 		bl	_ZN3r2p10UncopyableD2Ev
 1122              	.LBE34:
 1123 0016 019B     		ldr	r3, [sp, #4]
 1124 0018 1846     		mov	r0, r3
 1125 001a 03B0     		add	sp, sp, #12
 1126              		.cfi_def_cfa_offset 4
 1127              		@ sp needed
 1128 001c 5DF804FB 		ldr	pc, [sp], #4
 1129              		.cfi_endproc
 1130              	.LFE552:
 1131              		.size	_ZN3r2p5MutexD2Ev, .-_ZN3r2p5MutexD2Ev
 1132              		.weak	_ZN3r2p5MutexD1Ev
 1133              		.thumb_set _ZN3r2p5MutexD1Ev,_ZN3r2p5MutexD2Ev
 1134              		.section	.text._ZN3r2p10Middleware18is_bootloader_modeEv,"axG",%progbits,_ZN3r2p10Middleware18is_b
 1135              		.align	2
 1136              		.weak	_ZN3r2p10Middleware18is_bootloader_modeEv
 1137              		.thumb
ARM GAS  /tmp/ccytVDiP.s 			page 21


 1138              		.thumb_func
 1139              		.type	_ZN3r2p10Middleware18is_bootloader_modeEv, %function
 1140              	_ZN3r2p10Middleware18is_bootloader_modeEv:
 1141              	.LFB677:
 1142              		.file 17 "/opt/R2P/core/Middleware/include/r2p/Middleware.hpp"
 1143              		.loc 17 234 0
 1144              		.cfi_startproc
 1145              		@ args = 0, pretend = 0, frame = 0
 1146              		@ frame_needed = 0, uses_anonymous_args = 0
 1147              		@ link register save eliminated.
 1148              		.loc 17 236 0
 1149 0000 044B     		ldr	r3, .L73
 1150 0002 1B68     		ldr	r3, [r3]
 1151 0004 044A     		ldr	r2, .L73+4
 1152 0006 9342     		cmp	r3, r2
 1153 0008 0CBF     		ite	eq
 1154 000a 0123     		moveq	r3, #1
 1155 000c 0023     		movne	r3, #0
 1156 000e DBB2     		uxtb	r3, r3
 1157              		.loc 17 237 0
 1158 0010 1846     		mov	r0, r3
 1159 0012 7047     		bx	lr
 1160              	.L74:
 1161              		.align	2
 1162              	.L73:
 1163 0014 00000000 		.word	_ZN3r2p10Middleware15boot_mode_magicE
 1164 0018 7A07B051 		.word	1370490746
 1165              		.cfi_endproc
 1166              	.LFE677:
 1167              		.size	_ZN3r2p10Middleware18is_bootloader_modeEv, .-_ZN3r2p10Middleware18is_bootloader_modeEv
 1168              		.bss
 1169              		.align	3
 1170              	_ZL7wa_info:
 1171 0000 00000000 		.space	1424
 1171      00000000 
 1171      00000000 
 1171      00000000 
 1171      00000000 
 1172              		.align	2
 1173              	_ZL14dbgtra_namebuf:
 1174 0590 00000000 		.space	64
 1174      00000000 
 1174      00000000 
 1174      00000000 
 1174      00000000 
 1175              		.align	2
 1176              	_ZL6dbgtra:
 1177 05d0 00000000 		.space	612
 1177      00000000 
 1177      00000000 
 1177      00000000 
 1177      00000000 
 1178 0834 00000000 		.align	3
 1179              	_ZL12wa_rx_dbgtra:
 1180 0838 00000000 		.space	1424
 1180      00000000 
 1180      00000000 
ARM GAS  /tmp/ccytVDiP.s 			page 22


 1180      00000000 
 1180      00000000 
 1181              		.align	3
 1182              	_ZL12wa_tx_dbgtra:
 1183 0dc8 00000000 		.space	1424
 1183      00000000 
 1183      00000000 
 1183      00000000 
 1183      00000000 
 1184              		.global	_ZN3r2p10Middleware8instanceE
 1185              		.align	2
 1186              		.type	_ZN3r2p10Middleware8instanceE, %object
 1187              		.size	_ZN3r2p10Middleware8instanceE, 672
 1188              	_ZN3r2p10Middleware8instanceE:
 1189 1358 00000000 		.space	672
 1189      00000000 
 1189      00000000 
 1189      00000000 
 1189      00000000 
 1190              		.text
 1191              		.align	2
 1192              		.global	_Z22usb_lld_disconnect_busP9USBDriver
 1193              		.thumb
 1194              		.thumb_func
 1195              		.type	_Z22usb_lld_disconnect_busP9USBDriver, %function
 1196              	_Z22usb_lld_disconnect_busP9USBDriver:
 1197              	.LFB679:
 1198              		.file 18 "main.cpp"
 1199              		.loc 18 57 0
 1200              		.cfi_startproc
 1201              		@ args = 0, pretend = 0, frame = 8
 1202              		@ frame_needed = 0, uses_anonymous_args = 0
 1203 0000 00B5     		push	{lr}
 1204              		.cfi_def_cfa_offset 4
 1205              		.cfi_offset 14, -4
 1206 0002 83B0     		sub	sp, sp, #12
 1207              		.cfi_def_cfa_offset 16
 1208 0004 0190     		str	r0, [sp, #4]
 1209              		.loc 18 60 0
 1210 0006 4FF09043 		mov	r3, #1207959552
 1211 000a 4FF4C052 		mov	r2, #6144
 1212 000e 5A83     		strh	r2, [r3, #26]	@ movhi
 1213              		.loc 18 61 0
 1214 0010 4FF09040 		mov	r0, #1207959552
 1215 0014 4FF40061 		mov	r1, #2048
 1216 0018 0122     		movs	r2, #1
 1217 001a FFF7FEFF 		bl	_pal_lld_setgroupmode
 1218              		.loc 18 62 0
 1219 001e 4FF09040 		mov	r0, #1207959552
 1220 0022 4FF48051 		mov	r1, #4096
 1221 0026 0122     		movs	r2, #1
 1222 0028 FFF7FEFF 		bl	_pal_lld_setgroupmode
 1223              		.loc 18 63 0
 1224 002c 03B0     		add	sp, sp, #12
 1225              		.cfi_def_cfa_offset 4
 1226              		@ sp needed
 1227 002e 5DF804FB 		ldr	pc, [sp], #4
ARM GAS  /tmp/ccytVDiP.s 			page 23


 1228              		.cfi_endproc
 1229              	.LFE679:
 1230              		.size	_Z22usb_lld_disconnect_busP9USBDriver, .-_Z22usb_lld_disconnect_busP9USBDriver
 1231 0032 00BF     		.align	2
 1232              		.global	_Z19usb_lld_connect_busP9USBDriver
 1233              		.thumb
 1234              		.thumb_func
 1235              		.type	_Z19usb_lld_connect_busP9USBDriver, %function
 1236              	_Z19usb_lld_connect_busP9USBDriver:
 1237              	.LFB680:
 1238              		.loc 18 65 0
 1239              		.cfi_startproc
 1240              		@ args = 0, pretend = 0, frame = 8
 1241              		@ frame_needed = 0, uses_anonymous_args = 0
 1242 0034 00B5     		push	{lr}
 1243              		.cfi_def_cfa_offset 4
 1244              		.cfi_offset 14, -4
 1245 0036 83B0     		sub	sp, sp, #12
 1246              		.cfi_def_cfa_offset 16
 1247 0038 0190     		str	r0, [sp, #4]
 1248              		.loc 18 68 0
 1249 003a 4FF09043 		mov	r3, #1207959552
 1250 003e 4FF4C052 		mov	r2, #6144
 1251 0042 5A83     		strh	r2, [r3, #26]	@ movhi
 1252              		.loc 18 69 0
 1253 0044 4FF09040 		mov	r0, #1207959552
 1254 0048 4FF40061 		mov	r1, #2048
 1255 004c 40F20272 		movw	r2, #1794
 1256 0050 FFF7FEFF 		bl	_pal_lld_setgroupmode
 1257              		.loc 18 70 0
 1258 0054 4FF09040 		mov	r0, #1207959552
 1259 0058 4FF48051 		mov	r1, #4096
 1260 005c 40F20272 		movw	r2, #1794
 1261 0060 FFF7FEFF 		bl	_pal_lld_setgroupmode
 1262              		.loc 18 71 0
 1263 0064 03B0     		add	sp, sp, #12
 1264              		.cfi_def_cfa_offset 4
 1265              		@ sp needed
 1266 0066 5DF804FB 		ldr	pc, [sp], #4
 1267              		.cfi_endproc
 1268              	.LFE680:
 1269              		.size	_Z19usb_lld_connect_busP9USBDriver, .-_Z19usb_lld_connect_busP9USBDriver
 1270              		.section	.rodata
 1271 000d 000000   		.align	2
 1272              	.LC1:
 1273 0010 74657374 		.ascii	"test_pub\000"
 1273      5F707562 
 1273      00
 1274 0019 000000   		.align	2
 1275              	.LC2:
 1276 001c 74657374 		.ascii	"test\000"
 1276      00
 1277 0021 000000   		.align	2
 1278              	.LC3:
 1279 0024 0A0A5553 		.ascii	"\012\012USB module [0x%x 0x%x 0x%x 0x%x 0x%x 0x%x]\000"
 1279      42206D6F 
 1279      64756C65 
ARM GAS  /tmp/ccytVDiP.s 			page 24


 1279      205B3078 
 1279      25782030 
 1280              		.text
 1281 006a 00BF     		.align	2
 1282              		.global	_Z13test_pub_nodePv
 1283              		.thumb
 1284              		.thumb_func
 1285              		.type	_Z13test_pub_nodePv, %function
 1286              	_Z13test_pub_nodePv:
 1287              	.LFB681:
 1288              		.loc 18 77 0
 1289              		.cfi_startproc
 1290              		@ args = 0, pretend = 0, frame = 64
 1291              		@ frame_needed = 0, uses_anonymous_args = 0
 1292 006c 70B5     		push	{r4, r5, r6, lr}
 1293              		.cfi_def_cfa_offset 16
 1294              		.cfi_offset 4, -16
 1295              		.cfi_offset 5, -12
 1296              		.cfi_offset 6, -8
 1297              		.cfi_offset 14, -4
 1298 006e 94B0     		sub	sp, sp, #80
 1299              		.cfi_def_cfa_offset 96
 1300 0070 0590     		str	r0, [sp, #20]
 1301              	.LBB35:
 1302              		.loc 18 78 0
 1303 0072 0CAB     		add	r3, sp, #48
 1304 0074 1846     		mov	r0, r3
 1305 0076 2F49     		ldr	r1, .L81
 1306 0078 0122     		movs	r2, #1
 1307 007a FFF7FEFF 		bl	_ZN3r2p4NodeC1EPKcb
 1308              		.loc 18 79 0
 1309 007e 08AB     		add	r3, sp, #32
 1310 0080 1846     		mov	r0, r3
 1311 0082 FFF7FEFF 		bl	_ZN3r2p9PublisherINS_11String64MsgEEC1Ev
 1312              		.loc 18 81 0
 1313 0086 2C4B     		ldr	r3, .L81+4
 1314 0088 1393     		str	r3, [sp, #76]
 1315              		.loc 18 84 0
 1316 008a 2C4B     		ldr	r3, .L81+8
 1317 008c 9B69     		ldr	r3, [r3, #24]
 1318 008e 294A     		ldr	r2, .L81
 1319 0090 9A61     		str	r2, [r3, #24]
 1320              		.loc 18 86 0
 1321 0092 0CAA     		add	r2, sp, #48
 1322 0094 08AB     		add	r3, sp, #32
 1323 0096 1046     		mov	r0, r2
 1324 0098 1946     		mov	r1, r3
 1325 009a 294A     		ldr	r2, .L81+12
 1326 009c 294B     		ldr	r3, .L81+16
 1327 009e FFF7FEFF 		bl	_ZN3r2p4Node9advertiseINS_11String64MsgEEEbRNS_9PublisherIT_EEPKcRKNS_4TimeE
 1328              		.loc 18 88 0
 1329 00a2 03E0     		b	.L78
 1330              	.L79:
 1331              		.loc 18 88 0 is_stmt 0 discriminator 2
 1332 00a4 4FF47A70 		mov	r0, #1000
 1333 00a8 FFF7FEFF 		bl	chThdSleep
 1334              	.L78:
ARM GAS  /tmp/ccytVDiP.s 			page 25


 1335              		.loc 18 88 0 discriminator 1
 1336 00ac 08AA     		add	r2, sp, #32
 1337 00ae 07AB     		add	r3, sp, #28
 1338 00b0 1046     		mov	r0, r2
 1339 00b2 1946     		mov	r1, r3
 1340 00b4 FFF7FEFF 		bl	_ZN3r2p9PublisherINS_11String64MsgEE5allocERPS1_
 1341 00b8 0346     		mov	r3, r0
 1342 00ba 83F00103 		eor	r3, r3, #1
 1343 00be DBB2     		uxtb	r3, r3
 1344 00c0 002B     		cmp	r3, #0
 1345 00c2 EFD1     		bne	.L79
 1346              		.loc 18 90 0 is_stmt 1
 1347 00c4 079B     		ldr	r3, [sp, #28]
 1348 00c6 9A1C     		adds	r2, r3, #2
 1349 00c8 139B     		ldr	r3, [sp, #76]
 1350 00ca 1B88     		ldrh	r3, [r3]
 1351 00cc 1E46     		mov	r6, r3
 1352 00ce 139B     		ldr	r3, [sp, #76]
 1353 00d0 0233     		adds	r3, r3, #2
 1354 00d2 1B88     		ldrh	r3, [r3]
 1355 00d4 1D46     		mov	r5, r3
 1356 00d6 139B     		ldr	r3, [sp, #76]
 1357 00d8 0433     		adds	r3, r3, #4
 1358 00da 1B88     		ldrh	r3, [r3]
 1359 00dc 1C46     		mov	r4, r3
 1360 00de 139B     		ldr	r3, [sp, #76]
 1361 00e0 0633     		adds	r3, r3, #6
 1362 00e2 1B88     		ldrh	r3, [r3]
 1363 00e4 1846     		mov	r0, r3
 1364 00e6 139B     		ldr	r3, [sp, #76]
 1365 00e8 0833     		adds	r3, r3, #8
 1366 00ea 1B88     		ldrh	r3, [r3]
 1367 00ec 1946     		mov	r1, r3
 1368 00ee 139B     		ldr	r3, [sp, #76]
 1369 00f0 0A33     		adds	r3, r3, #10
 1370 00f2 1B88     		ldrh	r3, [r3]
 1371 00f4 0094     		str	r4, [sp]
 1372 00f6 0190     		str	r0, [sp, #4]
 1373 00f8 0291     		str	r1, [sp, #8]
 1374 00fa 0393     		str	r3, [sp, #12]
 1375 00fc 1046     		mov	r0, r2
 1376 00fe 1249     		ldr	r1, .L81+20
 1377 0100 3246     		mov	r2, r6
 1378 0102 2B46     		mov	r3, r5
 1379 0104 FFF7FEFF 		bl	sprintf
 1380              		.loc 18 91 0
 1381 0108 079B     		ldr	r3, [sp, #28]
 1382 010a 08AA     		add	r2, sp, #32
 1383 010c 1046     		mov	r0, r2
 1384 010e 1946     		mov	r1, r3
 1385 0110 FFF7FEFF 		bl	_ZN3r2p9PublisherINS_11String64MsgEE7publishEPS1_
 1386              		.loc 18 92 0
 1387 0114 6420     		movs	r0, #100
 1388 0116 FFF7FEFF 		bl	chThdSleep
 1389              		.loc 18 94 0
 1390 011a 0024     		movs	r4, #0
 1391              		.loc 18 79 0
ARM GAS  /tmp/ccytVDiP.s 			page 26


 1392 011c 08AB     		add	r3, sp, #32
 1393 011e 1846     		mov	r0, r3
 1394 0120 FFF7FEFF 		bl	_ZN3r2p9PublisherINS_11String64MsgEED1Ev
 1395              		.loc 18 94 0
 1396 0124 0CAB     		add	r3, sp, #48
 1397 0126 1846     		mov	r0, r3
 1398 0128 FFF7FEFF 		bl	_ZN3r2p4NodeD1Ev
 1399 012c 2346     		mov	r3, r4
 1400              	.LBE35:
 1401              		.loc 18 95 0
 1402 012e 1846     		mov	r0, r3
 1403 0130 14B0     		add	sp, sp, #80
 1404              		.cfi_def_cfa_offset 16
 1405              		@ sp needed
 1406 0132 70BD     		pop	{r4, r5, r6, pc}
 1407              	.L82:
 1408              		.align	2
 1409              	.L81:
 1410 0134 10000000 		.word	.LC1
 1411 0138 ACF7FF1F 		.word	536868780
 1412 013c 00000000 		.word	rlist
 1413 0140 1C000000 		.word	.LC2
 1414 0144 00000000 		.word	_ZN3r2p4Time8INFINITEE
 1415 0148 24000000 		.word	.LC3
 1416              		.cfi_endproc
 1417              	.LFE681:
 1418              		.size	_Z13test_pub_nodePv, .-_Z13test_pub_nodePv
 1419              		.section	.rodata
 1420 0051 000000   		.align	2
 1421              	.LC4:
 1422 0054 6C656400 		.ascii	"led\000"
 1423              		.text
 1424              		.align	2
 1425              		.global	main
 1426              		.thumb
 1427              		.thumb_func
 1428              		.type	main, %function
 1429              	main:
 1430              	.LFB682:
 1431              		.loc 18 102 0
 1432              		.cfi_startproc
 1433              		@ args = 0, pretend = 0, frame = 24
 1434              		@ frame_needed = 0, uses_anonymous_args = 0
 1435 014c 00B5     		push	{lr}
 1436              		.cfi_def_cfa_offset 4
 1437              		.cfi_offset 14, -4
 1438 014e 8BB0     		sub	sp, sp, #44
 1439              		.cfi_def_cfa_offset 48
 1440              	.LBB36:
 1441              		.loc 18 104 0
 1442 0150 FFF7FEFF 		bl	halInit
 1443              		.loc 18 105 0
 1444 0154 FFF7FEFF 		bl	chSysInit
 1445              		.loc 18 107 0
 1446 0158 4C4B     		ldr	r3, .L89
 1447 015a 4FF40052 		mov	r2, #8192
 1448 015e 5A83     		strh	r2, [r3, #26]	@ movhi
ARM GAS  /tmp/ccytVDiP.s 			page 27


 1449              		.loc 18 108 0
 1450 0160 4FF4FA70 		mov	r0, #500
 1451 0164 FFF7FEFF 		bl	chThdSleep
 1452              		.loc 18 109 0
 1453 0168 484B     		ldr	r3, .L89
 1454 016a 4FF40052 		mov	r2, #8192
 1455 016e 1A83     		strh	r2, [r3, #24]	@ movhi
 1456              		.loc 18 111 0
 1457 0170 0023     		movs	r3, #0
 1458 0172 0993     		str	r3, [sp, #36]
 1459              	.LBB37:
 1460              		.loc 18 112 0
 1461 0174 FFF7FEFF 		bl	_ZN3r2p10Middleware18is_bootloader_modeEv
 1462 0178 0346     		mov	r3, r0
 1463 017a 002B     		cmp	r3, #0
 1464 017c 15D0     		beq	.L84
 1465              	.LBB38:
 1466              		.loc 18 113 0
 1467 017e 4FF48163 		mov	r3, #1032
 1468 0182 1846     		mov	r0, r3
 1469 0184 FFF7FEFF 		bl	_Znaj
 1470 0188 0890     		str	r0, [sp, #32]
 1471              		.loc 18 114 0
 1472 018a 089B     		ldr	r3, [sp, #32]
 1473 018c 002B     		cmp	r3, #0
 1474 018e 02D1     		bne	.L85
 1475              		.loc 18 114 0 is_stmt 0 discriminator 1
 1476 0190 3F48     		ldr	r0, .L89+4
 1477 0192 FFF7FEFF 		bl	chDbgPanic
 1478              	.L85:
 1479              		.loc 18 115 0 is_stmt 1
 1480 0196 089B     		ldr	r3, [sp, #32]
 1481 0198 C3F10803 		rsb	r3, r3, #8
 1482 019c 03F00703 		and	r3, r3, #7
 1483 01a0 089A     		ldr	r2, [sp, #32]
 1484 01a2 1344     		add	r3, r3, r2
 1485 01a4 0893     		str	r3, [sp, #32]
 1486              		.loc 18 116 0
 1487 01a6 089B     		ldr	r3, [sp, #32]
 1488 01a8 0993     		str	r3, [sp, #36]
 1489              	.L84:
 1490              	.LBE38:
 1491              	.LBE37:
 1492              		.loc 18 120 0
 1493 01aa 099B     		ldr	r3, [sp, #36]
 1494 01ac 0093     		str	r3, [sp]
 1495 01ae 4FF48063 		mov	r3, #1024
 1496 01b2 0193     		str	r3, [sp, #4]
 1497 01b4 0223     		movs	r3, #2
 1498 01b6 0293     		str	r3, [sp, #8]
 1499 01b8 3648     		ldr	r0, .L89+8
 1500 01ba 3749     		ldr	r1, .L89+12
 1501 01bc 4FF4B262 		mov	r2, #1424
 1502 01c0 0223     		movs	r3, #2
 1503 01c2 FFF7FEFF 		bl	_ZN3r2p10Middleware10initializeEPvjmS1_jm
 1504              		.loc 18 126 0
 1505 01c6 3548     		ldr	r0, .L89+16
ARM GAS  /tmp/ccytVDiP.s 			page 28


 1506 01c8 FFF7FEFF 		bl	sduObjectInit
 1507              		.loc 18 127 0
 1508 01cc 3348     		ldr	r0, .L89+16
 1509 01ce 3449     		ldr	r1, .L89+20
 1510 01d0 FFF7FEFF 		bl	sduStart
 1511              		.loc 18 129 0
 1512 01d4 324B     		ldr	r3, .L89+20
 1513 01d6 1B68     		ldr	r3, [r3]
 1514 01d8 1846     		mov	r0, r3
 1515 01da FFF7FEFF 		bl	_Z22usb_lld_disconnect_busP9USBDriver
 1516              		.loc 18 130 0
 1517 01de 4FF47A70 		mov	r0, #1000
 1518 01e2 FFF7FEFF 		bl	chThdSleep
 1519              		.loc 18 131 0
 1520 01e6 2E4B     		ldr	r3, .L89+20
 1521 01e8 1B68     		ldr	r3, [r3]
 1522 01ea 1846     		mov	r0, r3
 1523 01ec 2D49     		ldr	r1, .L89+24
 1524 01ee FFF7FEFF 		bl	usbStart
 1525              		.loc 18 132 0
 1526 01f2 2B4B     		ldr	r3, .L89+20
 1527 01f4 1B68     		ldr	r3, [r3]
 1528 01f6 1846     		mov	r0, r3
 1529 01f8 FFF7FEFF 		bl	_Z19usb_lld_connect_busP9USBDriver
 1530              		.loc 18 134 0
 1531 01fc 2A48     		ldr	r0, .L89+28
 1532 01fe 0021     		movs	r1, #0
 1533 0200 FFF7FEFF 		bl	sdStart
 1534              		.loc 18 137 0
 1535 0204 294B     		ldr	r3, .L89+32
 1536 0206 0093     		str	r3, [sp]
 1537 0208 4FF4B263 		mov	r3, #1424
 1538 020c 0193     		str	r3, [sp, #4]
 1539 020e 0C23     		movs	r3, #12
 1540 0210 0293     		str	r3, [sp, #8]
 1541 0212 2748     		ldr	r0, .L89+36
 1542 0214 2749     		ldr	r1, .L89+40
 1543 0216 4FF4B262 		mov	r2, #1424
 1544 021a 0D23     		movs	r3, #13
 1545 021c FFF7FEFF 		bl	_ZN3r2p14DebugTransport10initializeEPvjmS1_jm
 1546              		.loc 18 144 0
 1547 0220 1C48     		ldr	r0, .L89+8
 1548 0222 FFF7FEFF 		bl	_ZN3r2p10Middleware5startEv
 1549              		.loc 18 146 0
 1550 0226 244B     		ldr	r3, .L89+44
 1551 0228 0593     		str	r3, [sp, #20]
 1552              		.loc 18 147 0
 1553 022a 7023     		movs	r3, #112
 1554 022c 2033     		adds	r3, r3, #32
 1555 022e 03F2FF23 		addw	r3, r3, #767
 1556 0232 0722     		movs	r2, #7
 1557 0234 1343     		orrs	r3, r3, r2
 1558 0236 5A1C     		adds	r2, r3, #1
 1559 0238 05AB     		add	r3, sp, #20
 1560 023a 0093     		str	r3, [sp]
 1561 023c 0023     		movs	r3, #0
 1562 023e 0193     		str	r3, [sp, #4]
ARM GAS  /tmp/ccytVDiP.s 			page 29


 1563 0240 0020     		movs	r0, #0
 1564 0242 1146     		mov	r1, r2
 1565 0244 4022     		movs	r2, #64
 1566 0246 1D4B     		ldr	r3, .L89+48
 1567 0248 FFF7FEFF 		bl	_ZN3r2p6Thread11create_heapEPvjmPFlS1_ES1_PKc
 1568              	.L88:
 1569              		.loc 18 150 0
 1570 024c 0F4A     		ldr	r2, .L89
 1571 024e 0F4B     		ldr	r3, .L89
 1572 0250 5B69     		ldr	r3, [r3, #20]
 1573 0252 83F40053 		eor	r3, r3, #8192
 1574 0256 5361     		str	r3, [r2, #20]
 1575              		.loc 18 151 0
 1576 0258 FFF7FEFF 		bl	_ZN3r2p10Middleware18is_bootloader_modeEv
 1577 025c 0346     		mov	r3, r0
 1578 025e 002B     		cmp	r3, #0
 1579 0260 09D0     		beq	.L86
 1580              		.loc 18 152 0
 1581 0262 06AB     		add	r3, sp, #24
 1582 0264 1846     		mov	r0, r3
 1583 0266 6421     		movs	r1, #100
 1584 0268 FFF7FEFF 		bl	_ZN3r2p4Time2msEl
 1585 026c 06AB     		add	r3, sp, #24
 1586 026e 1846     		mov	r0, r3
 1587 0270 FFF7FEFF 		bl	_ZN3r2p6Thread5sleepERKNS_4TimeE
 1588 0274 09E0     		b	.L87
 1589              	.L86:
 1590              		.loc 18 155 0
 1591 0276 07AB     		add	r3, sp, #28
 1592 0278 1846     		mov	r0, r3
 1593 027a 4FF4FA71 		mov	r1, #500
 1594 027e FFF7FEFF 		bl	_ZN3r2p4Time2msEl
 1595 0282 07AB     		add	r3, sp, #28
 1596 0284 1846     		mov	r0, r3
 1597 0286 FFF7FEFF 		bl	_ZN3r2p6Thread5sleepERKNS_4TimeE
 1598              	.L87:
 1599              		.loc 18 159 0
 1600 028a DFE7     		b	.L88
 1601              	.L90:
 1602              		.align	2
 1603              	.L89:
 1604 028c 00080048 		.word	1207961600
 1605 0290 00000000 		.word	.LC0
 1606 0294 00000000 		.word	_ZN3r2p10Middleware8instanceE
 1607 0298 00000000 		.word	_ZL7wa_info
 1608 029c 00000000 		.word	SDU1
 1609 02a0 00000000 		.word	serusbcfg
 1610 02a4 00000000 		.word	usbcfg
 1611 02a8 00000000 		.word	SD3
 1612 02ac C80D0000 		.word	_ZL12wa_tx_dbgtra
 1613 02b0 D0050000 		.word	_ZL6dbgtra
 1614 02b4 38080000 		.word	_ZL12wa_rx_dbgtra
 1615 02b8 54000000 		.word	.LC4
 1616 02bc 00000000 		.word	_ZN3r2p11ledsub_nodeEPv
 1617              	.LBE36:
 1618              		.cfi_endproc
 1619              	.LFE682:
ARM GAS  /tmp/ccytVDiP.s 			page 30


 1620              		.size	main, .-main
 1621              		.section	.text._ZN3r2p4TimeC2IlEET_,"axG",%progbits,_ZN3r2p4TimeC5IlEET_,comdat
 1622              		.align	2
 1623              		.weak	_ZN3r2p4TimeC2IlEET_
 1624              		.thumb
 1625              		.thumb_func
 1626              		.type	_ZN3r2p4TimeC2IlEET_, %function
 1627              	_ZN3r2p4TimeC2IlEET_:
 1628              	.LFB684:
 1629              		.loc 5 159 0
 1630              		.cfi_startproc
 1631              		@ args = 0, pretend = 0, frame = 8
 1632              		@ frame_needed = 0, uses_anonymous_args = 0
 1633              		@ link register save eliminated.
 1634 0000 82B0     		sub	sp, sp, #8
 1635              		.cfi_def_cfa_offset 8
 1636 0002 0190     		str	r0, [sp, #4]
 1637 0004 0091     		str	r1, [sp]
 1638              	.LBB39:
 1639              		.loc 5 161 0
 1640 0006 019B     		ldr	r3, [sp, #4]
 1641 0008 009A     		ldr	r2, [sp]
 1642 000a 1A60     		str	r2, [r3]
 1643              	.LBE39:
 1644              		.loc 5 162 0
 1645 000c 019B     		ldr	r3, [sp, #4]
 1646 000e 1846     		mov	r0, r3
 1647 0010 02B0     		add	sp, sp, #8
 1648              		.cfi_def_cfa_offset 0
 1649              		@ sp needed
 1650 0012 7047     		bx	lr
 1651              		.cfi_endproc
 1652              	.LFE684:
 1653              		.size	_ZN3r2p4TimeC2IlEET_, .-_ZN3r2p4TimeC2IlEET_
 1654              		.weak	_ZN3r2p4TimeC1IlEET_
 1655              		.thumb_set _ZN3r2p4TimeC1IlEET_,_ZN3r2p4TimeC2IlEET_
 1656              		.section	.text._ZNK3r2p10ArrayQueueIPNS_7MessageEE10get_lengthEv,"axG",%progbits,_ZNK3r2p10ArrayQu
 1657              		.align	2
 1658              		.weak	_ZNK3r2p10ArrayQueueIPNS_7MessageEE10get_lengthEv
 1659              		.thumb
 1660              		.thumb_func
 1661              		.type	_ZNK3r2p10ArrayQueueIPNS_7MessageEE10get_lengthEv, %function
 1662              	_ZNK3r2p10ArrayQueueIPNS_7MessageEE10get_lengthEv:
 1663              	.LFB692:
 1664              		.file 19 "/opt/R2P/core/Middleware/include/r2p/ArrayQueue.hpp"
 1665              		.loc 19 81 0
 1666              		.cfi_startproc
 1667              		@ args = 0, pretend = 0, frame = 8
 1668              		@ frame_needed = 0, uses_anonymous_args = 0
 1669              		@ link register save eliminated.
 1670 0000 82B0     		sub	sp, sp, #8
 1671              		.cfi_def_cfa_offset 8
 1672 0002 0190     		str	r0, [sp, #4]
 1673              		.loc 19 83 0
 1674 0004 019B     		ldr	r3, [sp, #4]
 1675 0006 5B68     		ldr	r3, [r3, #4]
 1676              		.loc 19 84 0
ARM GAS  /tmp/ccytVDiP.s 			page 31


 1677 0008 1846     		mov	r0, r3
 1678 000a 02B0     		add	sp, sp, #8
 1679              		.cfi_def_cfa_offset 0
 1680              		@ sp needed
 1681 000c 7047     		bx	lr
 1682              		.cfi_endproc
 1683              	.LFE692:
 1684              		.size	_ZNK3r2p10ArrayQueueIPNS_7MessageEE10get_lengthEv, .-_ZNK3r2p10ArrayQueueIPNS_7MessageEE10ge
 1685 000e 00BF     		.section	.text._ZN3r2p10ArrayQueueIPNS_7MessageEE12fetch_unsafeERS2_,"axG",%progbits,_ZN3r2p10Arra
 1686              		.align	2
 1687              		.weak	_ZN3r2p10ArrayQueueIPNS_7MessageEE12fetch_unsafeERS2_
 1688              		.thumb
 1689              		.thumb_func
 1690              		.type	_ZN3r2p10ArrayQueueIPNS_7MessageEE12fetch_unsafeERS2_, %function
 1691              	_ZN3r2p10ArrayQueueIPNS_7MessageEE12fetch_unsafeERS2_:
 1692              	.LFB693:
 1693              		.loc 19 52 0
 1694              		.cfi_startproc
 1695              		@ args = 0, pretend = 0, frame = 8
 1696              		@ frame_needed = 0, uses_anonymous_args = 0
 1697              		@ link register save eliminated.
 1698 0000 82B0     		sub	sp, sp, #8
 1699              		.cfi_def_cfa_offset 8
 1700 0002 0190     		str	r0, [sp, #4]
 1701 0004 0091     		str	r1, [sp]
 1702              		.loc 19 54 0
 1703 0006 019B     		ldr	r3, [sp, #4]
 1704 0008 9B68     		ldr	r3, [r3, #8]
 1705 000a 002B     		cmp	r3, #0
 1706 000c 23D0     		beq	.L97
 1707              		.loc 19 55 0
 1708 000e 019B     		ldr	r3, [sp, #4]
 1709 0010 9B68     		ldr	r3, [r3, #8]
 1710 0012 5A1E     		subs	r2, r3, #1
 1711 0014 019B     		ldr	r3, [sp, #4]
 1712 0016 9A60     		str	r2, [r3, #8]
 1713              		.loc 19 56 0
 1714 0018 019B     		ldr	r3, [sp, #4]
 1715 001a DB68     		ldr	r3, [r3, #12]
 1716 001c 1A68     		ldr	r2, [r3]
 1717 001e 009B     		ldr	r3, [sp]
 1718 0020 1A60     		str	r2, [r3]
 1719              		.loc 19 57 0
 1720 0022 019B     		ldr	r3, [sp, #4]
 1721 0024 DB68     		ldr	r3, [r3, #12]
 1722 0026 1A1D     		adds	r2, r3, #4
 1723 0028 019B     		ldr	r3, [sp, #4]
 1724 002a DA60     		str	r2, [r3, #12]
 1725 002c 019B     		ldr	r3, [sp, #4]
 1726 002e DA68     		ldr	r2, [r3, #12]
 1727 0030 019B     		ldr	r3, [sp, #4]
 1728 0032 1968     		ldr	r1, [r3]
 1729 0034 019B     		ldr	r3, [sp, #4]
 1730 0036 5B68     		ldr	r3, [r3, #4]
 1731 0038 9B00     		lsls	r3, r3, #2
 1732 003a 0B44     		add	r3, r3, r1
 1733 003c 9A42     		cmp	r2, r3
ARM GAS  /tmp/ccytVDiP.s 			page 32


 1734 003e 2CBF     		ite	cs
 1735 0040 0123     		movcs	r3, #1
 1736 0042 0023     		movcc	r3, #0
 1737 0044 DBB2     		uxtb	r3, r3
 1738 0046 002B     		cmp	r3, #0
 1739 0048 03D0     		beq	.L98
 1740              		.loc 19 58 0
 1741 004a 019B     		ldr	r3, [sp, #4]
 1742 004c 1A68     		ldr	r2, [r3]
 1743 004e 019B     		ldr	r3, [sp, #4]
 1744 0050 DA60     		str	r2, [r3, #12]
 1745              	.L98:
 1746              		.loc 19 60 0
 1747 0052 0123     		movs	r3, #1
 1748 0054 00E0     		b	.L99
 1749              	.L97:
 1750              		.loc 19 62 0
 1751 0056 0023     		movs	r3, #0
 1752              	.L99:
 1753              		.loc 19 63 0
 1754 0058 1846     		mov	r0, r3
 1755 005a 02B0     		add	sp, sp, #8
 1756              		.cfi_def_cfa_offset 0
 1757              		@ sp needed
 1758 005c 7047     		bx	lr
 1759              		.cfi_endproc
 1760              	.LFE693:
 1761              		.size	_ZN3r2p10ArrayQueueIPNS_7MessageEE12fetch_unsafeERS2_, .-_ZN3r2p10ArrayQueueIPNS_7MessageEE1
 1762 005e 00BF     		.section	.text._ZN3r2p10ArrayQueueIPNS_7MessageEE11post_unsafeES2_,"axG",%progbits,_ZN3r2p10ArrayQ
 1763              		.align	2
 1764              		.weak	_ZN3r2p10ArrayQueueIPNS_7MessageEE11post_unsafeES2_
 1765              		.thumb
 1766              		.thumb_func
 1767              		.type	_ZN3r2p10ArrayQueueIPNS_7MessageEE11post_unsafeES2_, %function
 1768              	_ZN3r2p10ArrayQueueIPNS_7MessageEE11post_unsafeES2_:
 1769              	.LFB694:
 1770              		.loc 19 37 0
 1771              		.cfi_startproc
 1772              		@ args = 0, pretend = 0, frame = 8
 1773              		@ frame_needed = 0, uses_anonymous_args = 0
 1774              		@ link register save eliminated.
 1775 0000 82B0     		sub	sp, sp, #8
 1776              		.cfi_def_cfa_offset 8
 1777 0002 0190     		str	r0, [sp, #4]
 1778 0004 0091     		str	r1, [sp]
 1779              		.loc 19 39 0
 1780 0006 019B     		ldr	r3, [sp, #4]
 1781 0008 9A68     		ldr	r2, [r3, #8]
 1782 000a 019B     		ldr	r3, [sp, #4]
 1783 000c 5B68     		ldr	r3, [r3, #4]
 1784 000e 9A42     		cmp	r2, r3
 1785 0010 22D2     		bcs	.L101
 1786              		.loc 19 40 0
 1787 0012 019B     		ldr	r3, [sp, #4]
 1788 0014 9B68     		ldr	r3, [r3, #8]
 1789 0016 5A1C     		adds	r2, r3, #1
 1790 0018 019B     		ldr	r3, [sp, #4]
ARM GAS  /tmp/ccytVDiP.s 			page 33


 1791 001a 9A60     		str	r2, [r3, #8]
 1792              		.loc 19 41 0
 1793 001c 019B     		ldr	r3, [sp, #4]
 1794 001e 1B69     		ldr	r3, [r3, #16]
 1795 0020 009A     		ldr	r2, [sp]
 1796 0022 1A60     		str	r2, [r3]
 1797              		.loc 19 42 0
 1798 0024 019B     		ldr	r3, [sp, #4]
 1799 0026 1B69     		ldr	r3, [r3, #16]
 1800 0028 1A1D     		adds	r2, r3, #4
 1801 002a 019B     		ldr	r3, [sp, #4]
 1802 002c 1A61     		str	r2, [r3, #16]
 1803 002e 019B     		ldr	r3, [sp, #4]
 1804 0030 1A69     		ldr	r2, [r3, #16]
 1805 0032 019B     		ldr	r3, [sp, #4]
 1806 0034 1968     		ldr	r1, [r3]
 1807 0036 019B     		ldr	r3, [sp, #4]
 1808 0038 5B68     		ldr	r3, [r3, #4]
 1809 003a 9B00     		lsls	r3, r3, #2
 1810 003c 0B44     		add	r3, r3, r1
 1811 003e 9A42     		cmp	r2, r3
 1812 0040 2CBF     		ite	cs
 1813 0042 0123     		movcs	r3, #1
 1814 0044 0023     		movcc	r3, #0
 1815 0046 DBB2     		uxtb	r3, r3
 1816 0048 002B     		cmp	r3, #0
 1817 004a 03D0     		beq	.L102
 1818              		.loc 19 43 0
 1819 004c 019B     		ldr	r3, [sp, #4]
 1820 004e 1A68     		ldr	r2, [r3]
 1821 0050 019B     		ldr	r3, [sp, #4]
 1822 0052 1A61     		str	r2, [r3, #16]
 1823              	.L102:
 1824              		.loc 19 45 0
 1825 0054 0123     		movs	r3, #1
 1826 0056 00E0     		b	.L103
 1827              	.L101:
 1828              		.loc 19 47 0
 1829 0058 0023     		movs	r3, #0
 1830              	.L103:
 1831              		.loc 19 48 0
 1832 005a 1846     		mov	r0, r3
 1833 005c 02B0     		add	sp, sp, #8
 1834              		.cfi_def_cfa_offset 0
 1835              		@ sp needed
 1836 005e 7047     		bx	lr
 1837              		.cfi_endproc
 1838              	.LFE694:
 1839              		.size	_ZN3r2p10ArrayQueueIPNS_7MessageEE11post_unsafeES2_, .-_ZN3r2p10ArrayQueueIPNS_7MessageEE11p
 1840              		.section	.text._ZN3r2p9PublisherINS_11String64MsgEEC2Ev,"axG",%progbits,_ZN3r2p9PublisherINS_11Str
 1841              		.align	2
 1842              		.weak	_ZN3r2p9PublisherINS_11String64MsgEEC2Ev
 1843              		.thumb
 1844              		.thumb_func
 1845              		.type	_ZN3r2p9PublisherINS_11String64MsgEEC2Ev, %function
 1846              	_ZN3r2p9PublisherINS_11String64MsgEEC2Ev:
 1847              	.LFB706:
ARM GAS  /tmp/ccytVDiP.s 			page 34


 1848              		.file 20 "/opt/R2P/core/Middleware/include/r2p/Publisher.hpp"
 1849              		.loc 20 47 0
 1850              		.cfi_startproc
 1851              		@ args = 0, pretend = 0, frame = 8
 1852              		@ frame_needed = 0, uses_anonymous_args = 0
 1853 0000 00B5     		push	{lr}
 1854              		.cfi_def_cfa_offset 4
 1855              		.cfi_offset 14, -4
 1856 0002 83B0     		sub	sp, sp, #12
 1857              		.cfi_def_cfa_offset 16
 1858 0004 0190     		str	r0, [sp, #4]
 1859              	.LBB40:
 1860              		.loc 20 47 0
 1861 0006 019B     		ldr	r3, [sp, #4]
 1862 0008 1846     		mov	r0, r3
 1863 000a FFF7FEFF 		bl	_ZN3r2p14LocalPublisherC2Ev
 1864 000e 019B     		ldr	r3, [sp, #4]
 1865 0010 034A     		ldr	r2, .L107
 1866 0012 1A60     		str	r2, [r3]
 1867              	.LBE40:
 1868              		.loc 20 50 0
 1869 0014 019B     		ldr	r3, [sp, #4]
 1870 0016 1846     		mov	r0, r3
 1871 0018 03B0     		add	sp, sp, #12
 1872              		.cfi_def_cfa_offset 4
 1873              		@ sp needed
 1874 001a 5DF804FB 		ldr	pc, [sp], #4
 1875              	.L108:
 1876 001e 00BF     		.align	2
 1877              	.L107:
 1878 0020 08000000 		.word	_ZTVN3r2p9PublisherINS_11String64MsgEEE+8
 1879              		.cfi_endproc
 1880              	.LFE706:
 1881              		.size	_ZN3r2p9PublisherINS_11String64MsgEEC2Ev, .-_ZN3r2p9PublisherINS_11String64MsgEEC2Ev
 1882              		.weak	_ZN3r2p9PublisherINS_11String64MsgEEC1Ev
 1883              		.thumb_set _ZN3r2p9PublisherINS_11String64MsgEEC1Ev,_ZN3r2p9PublisherINS_11String64MsgEEC2Ev
 1884              		.section	.text._ZN3r2p9PublisherINS_11String64MsgEED2Ev,"axG",%progbits,_ZN3r2p9PublisherINS_11Str
 1885              		.align	2
 1886              		.weak	_ZN3r2p9PublisherINS_11String64MsgEED2Ev
 1887              		.thumb
 1888              		.thumb_func
 1889              		.type	_ZN3r2p9PublisherINS_11String64MsgEED2Ev, %function
 1890              	_ZN3r2p9PublisherINS_11String64MsgEED2Ev:
 1891              	.LFB709:
 1892              		.loc 20 54 0
 1893              		.cfi_startproc
 1894              		@ args = 0, pretend = 0, frame = 8
 1895              		@ frame_needed = 0, uses_anonymous_args = 0
 1896 0000 00B5     		push	{lr}
 1897              		.cfi_def_cfa_offset 4
 1898              		.cfi_offset 14, -4
 1899 0002 83B0     		sub	sp, sp, #12
 1900              		.cfi_def_cfa_offset 16
 1901 0004 0190     		str	r0, [sp, #4]
 1902              	.LBB41:
 1903              		.loc 20 57 0
 1904 0006 019B     		ldr	r3, [sp, #4]
ARM GAS  /tmp/ccytVDiP.s 			page 35


 1905 0008 084A     		ldr	r2, .L113
 1906 000a 1A60     		str	r2, [r3]
 1907 000c 019B     		ldr	r3, [sp, #4]
 1908 000e 1846     		mov	r0, r3
 1909 0010 FFF7FEFF 		bl	_ZN3r2p14LocalPublisherD2Ev
 1910              	.LBE41:
 1911 0014 0023     		movs	r3, #0
 1912 0016 002B     		cmp	r3, #0
 1913 0018 02D0     		beq	.L111
 1914              		.loc 20 57 0 is_stmt 0 discriminator 2
 1915 001a 0198     		ldr	r0, [sp, #4]
 1916 001c FFF7FEFF 		bl	_ZdlPv
 1917              	.L111:
 1918              		.loc 20 57 0 discriminator 4
 1919 0020 019B     		ldr	r3, [sp, #4]
 1920 0022 1846     		mov	r0, r3
 1921 0024 03B0     		add	sp, sp, #12
 1922              		.cfi_def_cfa_offset 4
 1923              		@ sp needed
 1924 0026 5DF804FB 		ldr	pc, [sp], #4
 1925              	.L114:
 1926 002a 00BF     		.align	2
 1927              	.L113:
 1928 002c 08000000 		.word	_ZTVN3r2p9PublisherINS_11String64MsgEEE+8
 1929              		.cfi_endproc
 1930              	.LFE709:
 1931              		.size	_ZN3r2p9PublisherINS_11String64MsgEED2Ev, .-_ZN3r2p9PublisherINS_11String64MsgEED2Ev
 1932              		.weak	_ZN3r2p9PublisherINS_11String64MsgEED1Ev
 1933              		.thumb_set _ZN3r2p9PublisherINS_11String64MsgEED1Ev,_ZN3r2p9PublisherINS_11String64MsgEED2Ev
 1934              		.section	.text._ZN3r2p9PublisherINS_11String64MsgEED0Ev,"axG",%progbits,_ZN3r2p9PublisherINS_11Str
 1935              		.align	2
 1936              		.weak	_ZN3r2p9PublisherINS_11String64MsgEED0Ev
 1937              		.thumb
 1938              		.thumb_func
 1939              		.type	_ZN3r2p9PublisherINS_11String64MsgEED0Ev, %function
 1940              	_ZN3r2p9PublisherINS_11String64MsgEED0Ev:
 1941              	.LFB711:
 1942              		.loc 20 54 0 is_stmt 1
 1943              		.cfi_startproc
 1944              		@ args = 0, pretend = 0, frame = 8
 1945              		@ frame_needed = 0, uses_anonymous_args = 0
 1946 0000 00B5     		push	{lr}
 1947              		.cfi_def_cfa_offset 4
 1948              		.cfi_offset 14, -4
 1949 0002 83B0     		sub	sp, sp, #12
 1950              		.cfi_def_cfa_offset 16
 1951 0004 0190     		str	r0, [sp, #4]
 1952              		.loc 20 57 0
 1953 0006 0198     		ldr	r0, [sp, #4]
 1954 0008 FFF7FEFF 		bl	_ZN3r2p9PublisherINS_11String64MsgEED1Ev
 1955 000c 0198     		ldr	r0, [sp, #4]
 1956 000e FFF7FEFF 		bl	_ZdlPv
 1957 0012 019B     		ldr	r3, [sp, #4]
 1958 0014 1846     		mov	r0, r3
 1959 0016 03B0     		add	sp, sp, #12
 1960              		.cfi_def_cfa_offset 4
 1961              		@ sp needed
ARM GAS  /tmp/ccytVDiP.s 			page 36


 1962 0018 5DF804FB 		ldr	pc, [sp], #4
 1963              		.cfi_endproc
 1964              	.LFE711:
 1965              		.size	_ZN3r2p9PublisherINS_11String64MsgEED0Ev, .-_ZN3r2p9PublisherINS_11String64MsgEED0Ev
 1966              		.section	.text._ZN3r2p4Node9advertiseINS_11String64MsgEEEbRNS_9PublisherIT_EEPKcRKNS_4TimeE,"axG",
 1967              		.align	2
 1968              		.weak	_ZN3r2p4Node9advertiseINS_11String64MsgEEEbRNS_9PublisherIT_EEPKcRKNS_4TimeE
 1969              		.thumb
 1970              		.thumb_func
 1971              		.type	_ZN3r2p4Node9advertiseINS_11String64MsgEEEbRNS_9PublisherIT_EEPKcRKNS_4TimeE, %function
 1972              	_ZN3r2p4Node9advertiseINS_11String64MsgEEEbRNS_9PublisherIT_EEPKcRKNS_4TimeE:
 1973              	.LFB712:
 1974              		.loc 12 117 0
 1975              		.cfi_startproc
 1976              		@ args = 0, pretend = 0, frame = 16
 1977              		@ frame_needed = 0, uses_anonymous_args = 0
 1978 0000 00B5     		push	{lr}
 1979              		.cfi_def_cfa_offset 4
 1980              		.cfi_offset 14, -4
 1981 0002 87B0     		sub	sp, sp, #28
 1982              		.cfi_def_cfa_offset 32
 1983 0004 0590     		str	r0, [sp, #20]
 1984 0006 0491     		str	r1, [sp, #16]
 1985 0008 0392     		str	r2, [sp, #12]
 1986 000a 0293     		str	r3, [sp, #8]
 1987              		.loc 12 120 0
 1988 000c 049A     		ldr	r2, [sp, #16]
 1989 000e 4223     		movs	r3, #66
 1990 0010 0093     		str	r3, [sp]
 1991 0012 0598     		ldr	r0, [sp, #20]
 1992 0014 1146     		mov	r1, r2
 1993 0016 039A     		ldr	r2, [sp, #12]
 1994 0018 029B     		ldr	r3, [sp, #8]
 1995 001a FFF7FEFF 		bl	_ZN3r2p4Node9advertiseERNS_14LocalPublisherEPKcRKNS_4TimeEj
 1996 001e 0346     		mov	r3, r0
 1997              		.loc 12 121 0
 1998 0020 1846     		mov	r0, r3
 1999 0022 07B0     		add	sp, sp, #28
 2000              		.cfi_def_cfa_offset 4
 2001              		@ sp needed
 2002 0024 5DF804FB 		ldr	pc, [sp], #4
 2003              		.cfi_endproc
 2004              	.LFE712:
 2005              		.size	_ZN3r2p4Node9advertiseINS_11String64MsgEEEbRNS_9PublisherIT_EEPKcRKNS_4TimeE, .-_ZN3r2p4Node
 2006              		.section	.text._ZN3r2p9PublisherINS_11String64MsgEE5allocERPS1_,"axG",%progbits,_ZN3r2p9PublisherI
 2007              		.align	2
 2008              		.weak	_ZN3r2p9PublisherINS_11String64MsgEE5allocERPS1_
 2009              		.thumb
 2010              		.thumb_func
 2011              		.type	_ZN3r2p9PublisherINS_11String64MsgEE5allocERPS1_, %function
 2012              	_ZN3r2p9PublisherINS_11String64MsgEE5allocERPS1_:
 2013              	.LFB713:
 2014              		.loc 20 25 0
 2015              		.cfi_startproc
 2016              		@ args = 0, pretend = 0, frame = 8
 2017              		@ frame_needed = 0, uses_anonymous_args = 0
 2018 0000 00B5     		push	{lr}
ARM GAS  /tmp/ccytVDiP.s 			page 37


 2019              		.cfi_def_cfa_offset 4
 2020              		.cfi_offset 14, -4
 2021 0002 83B0     		sub	sp, sp, #12
 2022              		.cfi_def_cfa_offset 16
 2023 0004 0190     		str	r0, [sp, #4]
 2024 0006 0091     		str	r1, [sp]
 2025              		.loc 20 28 0
 2026 0008 019B     		ldr	r3, [sp, #4]
 2027 000a 1846     		mov	r0, r3
 2028 000c 0099     		ldr	r1, [sp]
 2029 000e FFF7FEFF 		bl	_ZN3r2p13BasePublisher5allocERPNS_7MessageE
 2030 0012 0346     		mov	r3, r0
 2031              		.loc 20 29 0
 2032 0014 1846     		mov	r0, r3
 2033 0016 03B0     		add	sp, sp, #12
 2034              		.cfi_def_cfa_offset 4
 2035              		@ sp needed
 2036 0018 5DF804FB 		ldr	pc, [sp], #4
 2037              		.cfi_endproc
 2038              	.LFE713:
 2039              		.size	_ZN3r2p9PublisherINS_11String64MsgEE5allocERPS1_, .-_ZN3r2p9PublisherINS_11String64MsgEE5all
 2040              		.section	.text._ZN3r2p9PublisherINS_11String64MsgEE7publishEPS1_,"axG",%progbits,_ZN3r2p9Publisher
 2041              		.align	2
 2042              		.weak	_ZN3r2p9PublisherINS_11String64MsgEE7publishEPS1_
 2043              		.thumb
 2044              		.thumb_func
 2045              		.type	_ZN3r2p9PublisherINS_11String64MsgEE7publishEPS1_, %function
 2046              	_ZN3r2p9PublisherINS_11String64MsgEE7publishEPS1_:
 2047              	.LFB714:
 2048              		.loc 20 40 0
 2049              		.cfi_startproc
 2050              		@ args = 0, pretend = 0, frame = 8
 2051              		@ frame_needed = 0, uses_anonymous_args = 0
 2052 0000 00B5     		push	{lr}
 2053              		.cfi_def_cfa_offset 4
 2054              		.cfi_offset 14, -4
 2055 0002 83B0     		sub	sp, sp, #12
 2056              		.cfi_def_cfa_offset 16
 2057 0004 0190     		str	r0, [sp, #4]
 2058 0006 0091     		str	r1, [sp]
 2059              		.loc 20 43 0
 2060 0008 019A     		ldr	r2, [sp, #4]
 2061 000a 009B     		ldr	r3, [sp]
 2062 000c 1046     		mov	r0, r2
 2063 000e 1946     		mov	r1, r3
 2064 0010 FFF7FEFF 		bl	_ZN3r2p13BasePublisher7publishERNS_7MessageE
 2065 0014 0346     		mov	r3, r0
 2066              		.loc 20 44 0
 2067 0016 1846     		mov	r0, r3
 2068 0018 03B0     		add	sp, sp, #12
 2069              		.cfi_def_cfa_offset 4
 2070              		@ sp needed
 2071 001a 5DF804FB 		ldr	pc, [sp], #4
 2072              		.cfi_endproc
 2073              	.LFE714:
 2074              		.size	_ZN3r2p9PublisherINS_11String64MsgEE7publishEPS1_, .-_ZN3r2p9PublisherINS_11String64MsgEE7pu
 2075              		.weak	_ZTVN3r2p9PublisherINS_11String64MsgEEE
ARM GAS  /tmp/ccytVDiP.s 			page 38


 2076 001e 00BF     		.section	.rodata._ZTVN3r2p9PublisherINS_11String64MsgEEE,"aG",%progbits,_ZTVN3r2p9PublisherINS_11S
 2077              		.align	3
 2078              		.type	_ZTVN3r2p9PublisherINS_11String64MsgEEE, %object
 2079              		.size	_ZTVN3r2p9PublisherINS_11String64MsgEEE, 16
 2080              	_ZTVN3r2p9PublisherINS_11String64MsgEEE:
 2081 0000 00000000 		.word	0
 2082 0004 00000000 		.word	0
 2083 0008 00000000 		.word	_ZN3r2p9PublisherINS_11String64MsgEED1Ev
 2084 000c 00000000 		.word	_ZN3r2p9PublisherINS_11String64MsgEED0Ev
 2085              		.weak	_ZTVN3r2p16SubscriberExtBufINS_7MgmtMsgEEE
 2086              		.section	.rodata._ZTVN3r2p16SubscriberExtBufINS_7MgmtMsgEEE,"aG",%progbits,_ZTVN3r2p16SubscriberEx
 2087              		.align	3
 2088              		.type	_ZTVN3r2p16SubscriberExtBufINS_7MgmtMsgEEE, %object
 2089              		.size	_ZTVN3r2p16SubscriberExtBufINS_7MgmtMsgEEE, 36
 2090              	_ZTVN3r2p16SubscriberExtBufINS_7MgmtMsgEEE:
 2091 0000 00000000 		.word	0
 2092 0004 00000000 		.word	0
 2093 0008 00000000 		.word	_ZNK3r2p15LocalSubscriber16get_queue_lengthEv
 2094 000c 00000000 		.word	_ZN3r2p15LocalSubscriber13notify_unsafeERNS_7MessageERKNS_4TimeE
 2095 0010 00000000 		.word	_ZN3r2p15LocalSubscriber12fetch_unsafeERPNS_7MessageERNS_4TimeE
 2096 0014 00000000 		.word	_ZN3r2p15LocalSubscriber6notifyERNS_7MessageERKNS_4TimeE
 2097 0018 00000000 		.word	_ZN3r2p15LocalSubscriber5fetchERPNS_7MessageERNS_4TimeE
 2098 001c 00000000 		.word	_ZN3r2p16SubscriberExtBufINS_7MgmtMsgEED1Ev
 2099 0020 00000000 		.word	_ZN3r2p16SubscriberExtBufINS_7MgmtMsgEED0Ev
 2100              		.weak	_ZTVN3r2p9PublisherINS_7MgmtMsgEEE
 2101 0024 00000000 		.section	.rodata._ZTVN3r2p9PublisherINS_7MgmtMsgEEE,"aG",%progbits,_ZTVN3r2p9PublisherINS_7MgmtMsg
 2102              		.align	3
 2103              		.type	_ZTVN3r2p9PublisherINS_7MgmtMsgEEE, %object
 2104              		.size	_ZTVN3r2p9PublisherINS_7MgmtMsgEEE, 16
 2105              	_ZTVN3r2p9PublisherINS_7MgmtMsgEEE:
 2106 0000 00000000 		.word	0
 2107 0004 00000000 		.word	0
 2108 0008 00000000 		.word	_ZN3r2p9PublisherINS_7MgmtMsgEED1Ev
 2109 000c 00000000 		.word	_ZN3r2p9PublisherINS_7MgmtMsgEED0Ev
 2110              		.section	.text._ZN3r2p10StaticListINS_4NodeEED2Ev,"axG",%progbits,_ZN3r2p10StaticListINS_4NodeEED5
 2111              		.align	2
 2112              		.weak	_ZN3r2p10StaticListINS_4NodeEED2Ev
 2113              		.thumb
 2114              		.thumb_func
 2115              		.type	_ZN3r2p10StaticListINS_4NodeEED2Ev, %function
 2116              	_ZN3r2p10StaticListINS_4NodeEED2Ev:
 2117              	.LFB719:
 2118              		.file 21 "/opt/R2P/core/Middleware/include/r2p/StaticList.hpp"
 2119              		.loc 21 15 0
 2120              		.cfi_startproc
 2121              		@ args = 0, pretend = 0, frame = 8
 2122              		@ frame_needed = 0, uses_anonymous_args = 0
 2123 0000 00B5     		push	{lr}
 2124              		.cfi_def_cfa_offset 4
 2125              		.cfi_offset 14, -4
 2126 0002 83B0     		sub	sp, sp, #12
 2127              		.cfi_def_cfa_offset 16
 2128 0004 0190     		str	r0, [sp, #4]
 2129              	.LBB42:
 2130              		.loc 21 15 0
 2131 0006 0198     		ldr	r0, [sp, #4]
 2132 0008 FFF7FEFF 		bl	_ZN3r2p10UncopyableD2Ev
ARM GAS  /tmp/ccytVDiP.s 			page 39


 2133              	.LBE42:
 2134 000c 019B     		ldr	r3, [sp, #4]
 2135 000e 1846     		mov	r0, r3
 2136 0010 03B0     		add	sp, sp, #12
 2137              		.cfi_def_cfa_offset 4
 2138              		@ sp needed
 2139 0012 5DF804FB 		ldr	pc, [sp], #4
 2140              		.cfi_endproc
 2141              	.LFE719:
 2142              		.size	_ZN3r2p10StaticListINS_4NodeEED2Ev, .-_ZN3r2p10StaticListINS_4NodeEED2Ev
 2143              		.weak	_ZN3r2p10StaticListINS_4NodeEED1Ev
 2144              		.thumb_set _ZN3r2p10StaticListINS_4NodeEED1Ev,_ZN3r2p10StaticListINS_4NodeEED2Ev
 2145 0016 00BF     		.section	.text._ZN3r2p10StaticListINS_5TopicEED2Ev,"axG",%progbits,_ZN3r2p10StaticListINS_5TopicEE
 2146              		.align	2
 2147              		.weak	_ZN3r2p10StaticListINS_5TopicEED2Ev
 2148              		.thumb
 2149              		.thumb_func
 2150              		.type	_ZN3r2p10StaticListINS_5TopicEED2Ev, %function
 2151              	_ZN3r2p10StaticListINS_5TopicEED2Ev:
 2152              	.LFB722:
 2153              		.loc 21 15 0
 2154              		.cfi_startproc
 2155              		@ args = 0, pretend = 0, frame = 8
 2156              		@ frame_needed = 0, uses_anonymous_args = 0
 2157 0000 00B5     		push	{lr}
 2158              		.cfi_def_cfa_offset 4
 2159              		.cfi_offset 14, -4
 2160 0002 83B0     		sub	sp, sp, #12
 2161              		.cfi_def_cfa_offset 16
 2162 0004 0190     		str	r0, [sp, #4]
 2163              	.LBB43:
 2164              		.loc 21 15 0
 2165 0006 0198     		ldr	r0, [sp, #4]
 2166 0008 FFF7FEFF 		bl	_ZN3r2p10UncopyableD2Ev
 2167              	.LBE43:
 2168 000c 019B     		ldr	r3, [sp, #4]
 2169 000e 1846     		mov	r0, r3
 2170 0010 03B0     		add	sp, sp, #12
 2171              		.cfi_def_cfa_offset 4
 2172              		@ sp needed
 2173 0012 5DF804FB 		ldr	pc, [sp], #4
 2174              		.cfi_endproc
 2175              	.LFE722:
 2176              		.size	_ZN3r2p10StaticListINS_5TopicEED2Ev, .-_ZN3r2p10StaticListINS_5TopicEED2Ev
 2177              		.weak	_ZN3r2p10StaticListINS_5TopicEED1Ev
 2178              		.thumb_set _ZN3r2p10StaticListINS_5TopicEED1Ev,_ZN3r2p10StaticListINS_5TopicEED2Ev
 2179 0016 00BF     		.section	.text._ZN3r2p10StaticListINS_9TransportEED2Ev,"axG",%progbits,_ZN3r2p10StaticListINS_9Tra
 2180              		.align	2
 2181              		.weak	_ZN3r2p10StaticListINS_9TransportEED2Ev
 2182              		.thumb
 2183              		.thumb_func
 2184              		.type	_ZN3r2p10StaticListINS_9TransportEED2Ev, %function
 2185              	_ZN3r2p10StaticListINS_9TransportEED2Ev:
 2186              	.LFB725:
 2187              		.loc 21 15 0
 2188              		.cfi_startproc
 2189              		@ args = 0, pretend = 0, frame = 8
ARM GAS  /tmp/ccytVDiP.s 			page 40


 2190              		@ frame_needed = 0, uses_anonymous_args = 0
 2191 0000 00B5     		push	{lr}
 2192              		.cfi_def_cfa_offset 4
 2193              		.cfi_offset 14, -4
 2194 0002 83B0     		sub	sp, sp, #12
 2195              		.cfi_def_cfa_offset 16
 2196 0004 0190     		str	r0, [sp, #4]
 2197              	.LBB44:
 2198              		.loc 21 15 0
 2199 0006 0198     		ldr	r0, [sp, #4]
 2200 0008 FFF7FEFF 		bl	_ZN3r2p10UncopyableD2Ev
 2201              	.LBE44:
 2202 000c 019B     		ldr	r3, [sp, #4]
 2203 000e 1846     		mov	r0, r3
 2204 0010 03B0     		add	sp, sp, #12
 2205              		.cfi_def_cfa_offset 4
 2206              		@ sp needed
 2207 0012 5DF804FB 		ldr	pc, [sp], #4
 2208              		.cfi_endproc
 2209              	.LFE725:
 2210              		.size	_ZN3r2p10StaticListINS_9TransportEED2Ev, .-_ZN3r2p10StaticListINS_9TransportEED2Ev
 2211              		.weak	_ZN3r2p10StaticListINS_9TransportEED1Ev
 2212              		.thumb_set _ZN3r2p10StaticListINS_9TransportEED1Ev,_ZN3r2p10StaticListINS_9TransportEED2Ev
 2213 0016 00BF     		.section	.text._ZN3r2p7ReMutexD2Ev,"axG",%progbits,_ZN3r2p7ReMutexD5Ev,comdat
 2214              		.align	2
 2215              		.weak	_ZN3r2p7ReMutexD2Ev
 2216              		.thumb
 2217              		.thumb_func
 2218              		.type	_ZN3r2p7ReMutexD2Ev, %function
 2219              	_ZN3r2p7ReMutexD2Ev:
 2220              	.LFB728:
 2221              		.file 22 "/opt/R2P/core/Middleware/include/r2p/ReMutex.hpp"
 2222              		.loc 22 9 0
 2223              		.cfi_startproc
 2224              		@ args = 0, pretend = 0, frame = 8
 2225              		@ frame_needed = 0, uses_anonymous_args = 0
 2226 0000 00B5     		push	{lr}
 2227              		.cfi_def_cfa_offset 4
 2228              		.cfi_offset 14, -4
 2229 0002 83B0     		sub	sp, sp, #12
 2230              		.cfi_def_cfa_offset 16
 2231 0004 0190     		str	r0, [sp, #4]
 2232              	.LBB45:
 2233              		.loc 22 9 0
 2234 0006 019B     		ldr	r3, [sp, #4]
 2235 0008 0433     		adds	r3, r3, #4
 2236 000a 1846     		mov	r0, r3
 2237 000c FFF7FEFF 		bl	_ZN3r2p5MutexD1Ev
 2238 0010 0198     		ldr	r0, [sp, #4]
 2239 0012 FFF7FEFF 		bl	_ZN3r2p10UncopyableD2Ev
 2240              	.LBE45:
 2241 0016 019B     		ldr	r3, [sp, #4]
 2242 0018 1846     		mov	r0, r3
 2243 001a 03B0     		add	sp, sp, #12
 2244              		.cfi_def_cfa_offset 4
 2245              		@ sp needed
 2246 001c 5DF804FB 		ldr	pc, [sp], #4
ARM GAS  /tmp/ccytVDiP.s 			page 41


 2247              		.cfi_endproc
 2248              	.LFE728:
 2249              		.size	_ZN3r2p7ReMutexD2Ev, .-_ZN3r2p7ReMutexD2Ev
 2250              		.weak	_ZN3r2p7ReMutexD1Ev
 2251              		.thumb_set _ZN3r2p7ReMutexD1Ev,_ZN3r2p7ReMutexD2Ev
 2252              		.section	.text._ZN3r2p11MemoryPool_D2Ev,"axG",%progbits,_ZN3r2p11MemoryPool_D5Ev,comdat
 2253              		.align	2
 2254              		.weak	_ZN3r2p11MemoryPool_D2Ev
 2255              		.thumb
 2256              		.thumb_func
 2257              		.type	_ZN3r2p11MemoryPool_D2Ev, %function
 2258              	_ZN3r2p11MemoryPool_D2Ev:
 2259              	.LFB732:
 2260              		.loc 4 9 0
 2261              		.cfi_startproc
 2262              		@ args = 0, pretend = 0, frame = 8
 2263              		@ frame_needed = 0, uses_anonymous_args = 0
 2264 0000 00B5     		push	{lr}
 2265              		.cfi_def_cfa_offset 4
 2266              		.cfi_offset 14, -4
 2267 0002 83B0     		sub	sp, sp, #12
 2268              		.cfi_def_cfa_offset 16
 2269 0004 0190     		str	r0, [sp, #4]
 2270              	.LBB46:
 2271              		.loc 4 9 0
 2272 0006 0198     		ldr	r0, [sp, #4]
 2273 0008 FFF7FEFF 		bl	_ZN3r2p10UncopyableD2Ev
 2274              	.LBE46:
 2275 000c 019B     		ldr	r3, [sp, #4]
 2276 000e 1846     		mov	r0, r3
 2277 0010 03B0     		add	sp, sp, #12
 2278              		.cfi_def_cfa_offset 4
 2279              		@ sp needed
 2280 0012 5DF804FB 		ldr	pc, [sp], #4
 2281              		.cfi_endproc
 2282              	.LFE732:
 2283              		.size	_ZN3r2p11MemoryPool_D2Ev, .-_ZN3r2p11MemoryPool_D2Ev
 2284              		.weak	_ZN3r2p11MemoryPool_D1Ev
 2285              		.thumb_set _ZN3r2p11MemoryPool_D1Ev,_ZN3r2p11MemoryPool_D2Ev
 2286 0016 00BF     		.section	.text._ZN3r2p10StaticListINS_15LocalSubscriberEED2Ev,"axG",%progbits,_ZN3r2p10StaticListI
 2287              		.align	2
 2288              		.weak	_ZN3r2p10StaticListINS_15LocalSubscriberEED2Ev
 2289              		.thumb
 2290              		.thumb_func
 2291              		.type	_ZN3r2p10StaticListINS_15LocalSubscriberEED2Ev, %function
 2292              	_ZN3r2p10StaticListINS_15LocalSubscriberEED2Ev:
 2293              	.LFB735:
 2294              		.loc 21 15 0
 2295              		.cfi_startproc
 2296              		@ args = 0, pretend = 0, frame = 8
 2297              		@ frame_needed = 0, uses_anonymous_args = 0
 2298 0000 00B5     		push	{lr}
 2299              		.cfi_def_cfa_offset 4
 2300              		.cfi_offset 14, -4
 2301 0002 83B0     		sub	sp, sp, #12
 2302              		.cfi_def_cfa_offset 16
 2303 0004 0190     		str	r0, [sp, #4]
ARM GAS  /tmp/ccytVDiP.s 			page 42


 2304              	.LBB47:
 2305              		.loc 21 15 0
 2306 0006 0198     		ldr	r0, [sp, #4]
 2307 0008 FFF7FEFF 		bl	_ZN3r2p10UncopyableD2Ev
 2308              	.LBE47:
 2309 000c 019B     		ldr	r3, [sp, #4]
 2310 000e 1846     		mov	r0, r3
 2311 0010 03B0     		add	sp, sp, #12
 2312              		.cfi_def_cfa_offset 4
 2313              		@ sp needed
 2314 0012 5DF804FB 		ldr	pc, [sp], #4
 2315              		.cfi_endproc
 2316              	.LFE735:
 2317              		.size	_ZN3r2p10StaticListINS_15LocalSubscriberEED2Ev, .-_ZN3r2p10StaticListINS_15LocalSubscriberEE
 2318              		.weak	_ZN3r2p10StaticListINS_15LocalSubscriberEED1Ev
 2319              		.thumb_set _ZN3r2p10StaticListINS_15LocalSubscriberEED1Ev,_ZN3r2p10StaticListINS_15LocalSubscriber
 2320 0016 00BF     		.section	.text._ZN3r2p10StaticListINS_16RemoteSubscriberEED2Ev,"axG",%progbits,_ZN3r2p10StaticList
 2321              		.align	2
 2322              		.weak	_ZN3r2p10StaticListINS_16RemoteSubscriberEED2Ev
 2323              		.thumb
 2324              		.thumb_func
 2325              		.type	_ZN3r2p10StaticListINS_16RemoteSubscriberEED2Ev, %function
 2326              	_ZN3r2p10StaticListINS_16RemoteSubscriberEED2Ev:
 2327              	.LFB738:
 2328              		.loc 21 15 0
 2329              		.cfi_startproc
 2330              		@ args = 0, pretend = 0, frame = 8
 2331              		@ frame_needed = 0, uses_anonymous_args = 0
 2332 0000 00B5     		push	{lr}
 2333              		.cfi_def_cfa_offset 4
 2334              		.cfi_offset 14, -4
 2335 0002 83B0     		sub	sp, sp, #12
 2336              		.cfi_def_cfa_offset 16
 2337 0004 0190     		str	r0, [sp, #4]
 2338              	.LBB48:
 2339              		.loc 21 15 0
 2340 0006 0198     		ldr	r0, [sp, #4]
 2341 0008 FFF7FEFF 		bl	_ZN3r2p10UncopyableD2Ev
 2342              	.LBE48:
 2343 000c 019B     		ldr	r3, [sp, #4]
 2344 000e 1846     		mov	r0, r3
 2345 0010 03B0     		add	sp, sp, #12
 2346              		.cfi_def_cfa_offset 4
 2347              		@ sp needed
 2348 0012 5DF804FB 		ldr	pc, [sp], #4
 2349              		.cfi_endproc
 2350              	.LFE738:
 2351              		.size	_ZN3r2p10StaticListINS_16RemoteSubscriberEED2Ev, .-_ZN3r2p10StaticListINS_16RemoteSubscriber
 2352              		.weak	_ZN3r2p10StaticListINS_16RemoteSubscriberEED1Ev
 2353              		.thumb_set _ZN3r2p10StaticListINS_16RemoteSubscriberEED1Ev,_ZN3r2p10StaticListINS_16RemoteSubscrib
 2354 0016 00BF     		.section	.text._ZN3r2p5TopicD2Ev,"axG",%progbits,_ZN3r2p5TopicD5Ev,comdat
 2355              		.align	2
 2356              		.weak	_ZN3r2p5TopicD2Ev
 2357              		.thumb
 2358              		.thumb_func
 2359              		.type	_ZN3r2p5TopicD2Ev, %function
 2360              	_ZN3r2p5TopicD2Ev:
ARM GAS  /tmp/ccytVDiP.s 			page 43


 2361              	.LFB740:
 2362              		.loc 14 23 0
 2363              		.cfi_startproc
 2364              		@ args = 0, pretend = 0, frame = 8
 2365              		@ frame_needed = 0, uses_anonymous_args = 0
 2366 0000 00B5     		push	{lr}
 2367              		.cfi_def_cfa_offset 4
 2368              		.cfi_offset 14, -4
 2369 0002 83B0     		sub	sp, sp, #12
 2370              		.cfi_def_cfa_offset 16
 2371 0004 0190     		str	r0, [sp, #4]
 2372              	.LBB49:
 2373              		.loc 14 23 0
 2374 0006 019B     		ldr	r3, [sp, #4]
 2375 0008 2033     		adds	r3, r3, #32
 2376 000a 1846     		mov	r0, r3
 2377 000c FFF7FEFF 		bl	_ZN3r2p10StaticListINS_16RemoteSubscriberEED1Ev
 2378 0010 019B     		ldr	r3, [sp, #4]
 2379 0012 1C33     		adds	r3, r3, #28
 2380 0014 1846     		mov	r0, r3
 2381 0016 FFF7FEFF 		bl	_ZN3r2p10StaticListINS_15LocalSubscriberEED1Ev
 2382 001a 019B     		ldr	r3, [sp, #4]
 2383 001c 0833     		adds	r3, r3, #8
 2384 001e 1846     		mov	r0, r3
 2385 0020 FFF7FEFF 		bl	_ZN3r2p11MemoryPool_D1Ev
 2386 0024 0198     		ldr	r0, [sp, #4]
 2387 0026 FFF7FEFF 		bl	_ZN3r2p10UncopyableD2Ev
 2388              	.LBE49:
 2389 002a 019B     		ldr	r3, [sp, #4]
 2390 002c 1846     		mov	r0, r3
 2391 002e 03B0     		add	sp, sp, #12
 2392              		.cfi_def_cfa_offset 4
 2393              		@ sp needed
 2394 0030 5DF804FB 		ldr	pc, [sp], #4
 2395              		.cfi_endproc
 2396              	.LFE740:
 2397              		.size	_ZN3r2p5TopicD2Ev, .-_ZN3r2p5TopicD2Ev
 2398              		.weak	_ZN3r2p5TopicD1Ev
 2399              		.thumb_set _ZN3r2p5TopicD1Ev,_ZN3r2p5TopicD2Ev
 2400              		.section	.text._ZN3r2p10MiddlewareD2Ev,"axG",%progbits,_ZN3r2p10MiddlewareD5Ev,comdat
 2401              		.align	2
 2402              		.weak	_ZN3r2p10MiddlewareD2Ev
 2403              		.thumb
 2404              		.thumb_func
 2405              		.type	_ZN3r2p10MiddlewareD2Ev, %function
 2406              	_ZN3r2p10MiddlewareD2Ev:
 2407              	.LFB742:
 2408              		.loc 17 34 0
 2409              		.cfi_startproc
 2410              		@ args = 0, pretend = 0, frame = 8
 2411              		@ frame_needed = 0, uses_anonymous_args = 0
 2412 0000 00B5     		push	{lr}
 2413              		.cfi_def_cfa_offset 4
 2414              		.cfi_offset 14, -4
 2415 0002 83B0     		sub	sp, sp, #12
 2416              		.cfi_def_cfa_offset 16
 2417 0004 0190     		str	r0, [sp, #4]
ARM GAS  /tmp/ccytVDiP.s 			page 44


 2418              	.LBB50:
 2419              		.loc 17 34 0
 2420 0006 019B     		ldr	r3, [sp, #4]
 2421 0008 03F51273 		add	r3, r3, #584
 2422 000c 1846     		mov	r0, r3
 2423 000e FFF7FEFF 		bl	_ZN3r2p5TopicD1Ev
 2424 0012 019B     		ldr	r3, [sp, #4]
 2425 0014 9433     		adds	r3, r3, #148
 2426 0016 1846     		mov	r0, r3
 2427 0018 FFF7FEFF 		bl	_ZN3r2p16SubscriberExtBufINS_7MgmtMsgEED1Ev
 2428 001c 019B     		ldr	r3, [sp, #4]
 2429 001e 8433     		adds	r3, r3, #132
 2430 0020 1846     		mov	r0, r3
 2431 0022 FFF7FEFF 		bl	_ZN3r2p9PublisherINS_7MgmtMsgEED1Ev
 2432 0026 019B     		ldr	r3, [sp, #4]
 2433 0028 6833     		adds	r3, r3, #104
 2434 002a 1846     		mov	r0, r3
 2435 002c FFF7FEFF 		bl	_ZN3r2p4NodeD1Ev
 2436 0030 019B     		ldr	r3, [sp, #4]
 2437 0032 2833     		adds	r3, r3, #40
 2438 0034 1846     		mov	r0, r3
 2439 0036 FFF7FEFF 		bl	_ZN3r2p5TopicD1Ev
 2440 003a 019B     		ldr	r3, [sp, #4]
 2441 003c 1033     		adds	r3, r3, #16
 2442 003e 1846     		mov	r0, r3
 2443 0040 FFF7FEFF 		bl	_ZN3r2p7ReMutexD1Ev
 2444 0044 019B     		ldr	r3, [sp, #4]
 2445 0046 0C33     		adds	r3, r3, #12
 2446 0048 1846     		mov	r0, r3
 2447 004a FFF7FEFF 		bl	_ZN3r2p10StaticListINS_9TransportEED1Ev
 2448 004e 019B     		ldr	r3, [sp, #4]
 2449 0050 0833     		adds	r3, r3, #8
 2450 0052 1846     		mov	r0, r3
 2451 0054 FFF7FEFF 		bl	_ZN3r2p10StaticListINS_5TopicEED1Ev
 2452 0058 019B     		ldr	r3, [sp, #4]
 2453 005a 0433     		adds	r3, r3, #4
 2454 005c 1846     		mov	r0, r3
 2455 005e FFF7FEFF 		bl	_ZN3r2p10StaticListINS_4NodeEED1Ev
 2456 0062 0198     		ldr	r0, [sp, #4]
 2457 0064 FFF7FEFF 		bl	_ZN3r2p10UncopyableD2Ev
 2458              	.LBE50:
 2459 0068 019B     		ldr	r3, [sp, #4]
 2460 006a 1846     		mov	r0, r3
 2461 006c 03B0     		add	sp, sp, #12
 2462              		.cfi_def_cfa_offset 4
 2463              		@ sp needed
 2464 006e 5DF804FB 		ldr	pc, [sp], #4
 2465              		.cfi_endproc
 2466              	.LFE742:
 2467              		.size	_ZN3r2p10MiddlewareD2Ev, .-_ZN3r2p10MiddlewareD2Ev
 2468              		.weak	_ZN3r2p10MiddlewareD1Ev
 2469              		.thumb_set _ZN3r2p10MiddlewareD1Ev,_ZN3r2p10MiddlewareD2Ev
 2470 0072 00BF     		.section	.rodata
 2471              		.align	2
 2472              	.LC5:
 2473 0058 53443200 		.ascii	"SD2\000"
 2474              		.align	2
ARM GAS  /tmp/ccytVDiP.s 			page 45


 2475              	.LC6:
 2476 005c 55534200 		.ascii	"USB\000"
 2477              		.align	2
 2478              	.LC7:
 2479 0060 424F4F54 		.ascii	"BOOT_USB\000"
 2479      5F555342 
 2479      00
 2480 0069 000000   		.text
 2481              		.align	2
 2482              		.thumb
 2483              		.thumb_func
 2484              		.type	_Z41__static_initialization_and_destruction_0ii, %function
 2485              	_Z41__static_initialization_and_destruction_0ii:
 2486              	.LFB716:
 2487              		.loc 18 161 0
 2488              		.cfi_startproc
 2489              		@ args = 0, pretend = 0, frame = 8
 2490              		@ frame_needed = 0, uses_anonymous_args = 0
 2491 02c0 00B5     		push	{lr}
 2492              		.cfi_def_cfa_offset 4
 2493              		.cfi_offset 14, -4
 2494 02c2 85B0     		sub	sp, sp, #20
 2495              		.cfi_def_cfa_offset 24
 2496 02c4 0390     		str	r0, [sp, #12]
 2497 02c6 0291     		str	r1, [sp, #8]
 2498              		.loc 18 161 0
 2499 02c8 039B     		ldr	r3, [sp, #12]
 2500 02ca 012B     		cmp	r3, #1
 2501 02cc 1CD1     		bne	.L151
 2502              		.loc 18 161 0 is_stmt 0 discriminator 1
 2503 02ce 029B     		ldr	r3, [sp, #8]
 2504 02d0 4FF6FF72 		movw	r2, #65535
 2505 02d4 9342     		cmp	r3, r2
 2506 02d6 17D1     		bne	.L151
 2507              		.loc 18 33 0 is_stmt 1
 2508 02d8 0D48     		ldr	r0, .L153
 2509 02da 0E49     		ldr	r1, .L153+4
 2510 02dc 0E4A     		ldr	r2, .L153+8
 2511 02de 0F4B     		ldr	r3, .L153+12
 2512 02e0 FFF7FEFF 		bl	_ZN3r2p14DebugTransportC1EPKcP11BaseChannelPc
 2513 02e4 0A48     		ldr	r0, .L153
 2514 02e6 0E49     		ldr	r1, .L153+16
 2515 02e8 0E4A     		ldr	r2, .L153+20
 2516 02ea FFF7FEFF 		bl	__aeabi_atexit
 2517              		.loc 18 50 0
 2518 02ee 0023     		movs	r3, #0
 2519 02f0 0093     		str	r3, [sp]
 2520 02f2 0D48     		ldr	r0, .L153+24
 2521 02f4 0D49     		ldr	r1, .L153+28
 2522 02f6 0E4A     		ldr	r2, .L153+32
 2523 02f8 0023     		movs	r3, #0
 2524 02fa FFF7FEFF 		bl	_ZN3r2p10MiddlewareC1EPKcS2_PNS0_10PubSubStepEj
 2525 02fe 0A48     		ldr	r0, .L153+24
 2526 0300 0C49     		ldr	r1, .L153+36
 2527 0302 084A     		ldr	r2, .L153+20
 2528 0304 FFF7FEFF 		bl	__aeabi_atexit
 2529              	.L151:
ARM GAS  /tmp/ccytVDiP.s 			page 46


 2530              		.loc 18 161 0
 2531 0308 05B0     		add	sp, sp, #20
 2532              		.cfi_def_cfa_offset 4
 2533              		@ sp needed
 2534 030a 5DF804FB 		ldr	pc, [sp], #4
 2535              	.L154:
 2536 030e 00BF     		.align	2
 2537              	.L153:
 2538 0310 D0050000 		.word	_ZL6dbgtra
 2539 0314 58000000 		.word	.LC5
 2540 0318 00000000 		.word	SDU1
 2541 031c 90050000 		.word	_ZL14dbgtra_namebuf
 2542 0320 00000000 		.word	_ZN3r2p14DebugTransportD1Ev
 2543 0324 00000000 		.word	__dso_handle
 2544 0328 00000000 		.word	_ZN3r2p10Middleware8instanceE
 2545 032c 5C000000 		.word	.LC6
 2546 0330 60000000 		.word	.LC7
 2547 0334 00000000 		.word	_ZN3r2p10MiddlewareD1Ev
 2548              		.cfi_endproc
 2549              	.LFE716:
 2550              		.size	_Z41__static_initialization_and_destruction_0ii, .-_Z41__static_initialization_and_destructi
 2551              		.section	.text._ZN3r2p9PublisherINS_7MgmtMsgEED2Ev,"axG",%progbits,_ZN3r2p9PublisherINS_7MgmtMsgEE
 2552              		.align	2
 2553              		.weak	_ZN3r2p9PublisherINS_7MgmtMsgEED2Ev
 2554              		.thumb
 2555              		.thumb_func
 2556              		.type	_ZN3r2p9PublisherINS_7MgmtMsgEED2Ev, %function
 2557              	_ZN3r2p9PublisherINS_7MgmtMsgEED2Ev:
 2558              	.LFB745:
 2559              		.loc 20 54 0
 2560              		.cfi_startproc
 2561              		@ args = 0, pretend = 0, frame = 8
 2562              		@ frame_needed = 0, uses_anonymous_args = 0
 2563 0000 00B5     		push	{lr}
 2564              		.cfi_def_cfa_offset 4
 2565              		.cfi_offset 14, -4
 2566 0002 83B0     		sub	sp, sp, #12
 2567              		.cfi_def_cfa_offset 16
 2568 0004 0190     		str	r0, [sp, #4]
 2569              	.LBB51:
 2570              		.loc 20 57 0
 2571 0006 019B     		ldr	r3, [sp, #4]
 2572 0008 084A     		ldr	r2, .L159
 2573 000a 1A60     		str	r2, [r3]
 2574 000c 019B     		ldr	r3, [sp, #4]
 2575 000e 1846     		mov	r0, r3
 2576 0010 FFF7FEFF 		bl	_ZN3r2p14LocalPublisherD2Ev
 2577              	.LBE51:
 2578 0014 0023     		movs	r3, #0
 2579 0016 002B     		cmp	r3, #0
 2580 0018 02D0     		beq	.L157
 2581              		.loc 20 57 0 is_stmt 0 discriminator 2
 2582 001a 0198     		ldr	r0, [sp, #4]
 2583 001c FFF7FEFF 		bl	_ZdlPv
 2584              	.L157:
 2585              		.loc 20 57 0 discriminator 4
 2586 0020 019B     		ldr	r3, [sp, #4]
ARM GAS  /tmp/ccytVDiP.s 			page 47


 2587 0022 1846     		mov	r0, r3
 2588 0024 03B0     		add	sp, sp, #12
 2589              		.cfi_def_cfa_offset 4
 2590              		@ sp needed
 2591 0026 5DF804FB 		ldr	pc, [sp], #4
 2592              	.L160:
 2593 002a 00BF     		.align	2
 2594              	.L159:
 2595 002c 08000000 		.word	_ZTVN3r2p9PublisherINS_7MgmtMsgEEE+8
 2596              		.cfi_endproc
 2597              	.LFE745:
 2598              		.size	_ZN3r2p9PublisherINS_7MgmtMsgEED2Ev, .-_ZN3r2p9PublisherINS_7MgmtMsgEED2Ev
 2599              		.weak	_ZN3r2p9PublisherINS_7MgmtMsgEED1Ev
 2600              		.thumb_set _ZN3r2p9PublisherINS_7MgmtMsgEED1Ev,_ZN3r2p9PublisherINS_7MgmtMsgEED2Ev
 2601              		.section	.text._ZN3r2p9PublisherINS_7MgmtMsgEED0Ev,"axG",%progbits,_ZN3r2p9PublisherINS_7MgmtMsgEE
 2602              		.align	2
 2603              		.weak	_ZN3r2p9PublisherINS_7MgmtMsgEED0Ev
 2604              		.thumb
 2605              		.thumb_func
 2606              		.type	_ZN3r2p9PublisherINS_7MgmtMsgEED0Ev, %function
 2607              	_ZN3r2p9PublisherINS_7MgmtMsgEED0Ev:
 2608              	.LFB747:
 2609              		.loc 20 54 0 is_stmt 1
 2610              		.cfi_startproc
 2611              		@ args = 0, pretend = 0, frame = 8
 2612              		@ frame_needed = 0, uses_anonymous_args = 0
 2613 0000 00B5     		push	{lr}
 2614              		.cfi_def_cfa_offset 4
 2615              		.cfi_offset 14, -4
 2616 0002 83B0     		sub	sp, sp, #12
 2617              		.cfi_def_cfa_offset 16
 2618 0004 0190     		str	r0, [sp, #4]
 2619              		.loc 20 57 0
 2620 0006 0198     		ldr	r0, [sp, #4]
 2621 0008 FFF7FEFF 		bl	_ZN3r2p9PublisherINS_7MgmtMsgEED1Ev
 2622 000c 0198     		ldr	r0, [sp, #4]
 2623 000e FFF7FEFF 		bl	_ZdlPv
 2624 0012 019B     		ldr	r3, [sp, #4]
 2625 0014 1846     		mov	r0, r3
 2626 0016 03B0     		add	sp, sp, #12
 2627              		.cfi_def_cfa_offset 4
 2628              		@ sp needed
 2629 0018 5DF804FB 		ldr	pc, [sp], #4
 2630              		.cfi_endproc
 2631              	.LFE747:
 2632              		.size	_ZN3r2p9PublisherINS_7MgmtMsgEED0Ev, .-_ZN3r2p9PublisherINS_7MgmtMsgEED0Ev
 2633              		.section	.text._ZN3r2p16SubscriberExtBufINS_7MgmtMsgEED2Ev,"axG",%progbits,_ZN3r2p16SubscriberExtB
 2634              		.align	2
 2635              		.weak	_ZN3r2p16SubscriberExtBufINS_7MgmtMsgEED2Ev
 2636              		.thumb
 2637              		.thumb_func
 2638              		.type	_ZN3r2p16SubscriberExtBufINS_7MgmtMsgEED2Ev, %function
 2639              	_ZN3r2p16SubscriberExtBufINS_7MgmtMsgEED2Ev:
 2640              	.LFB749:
 2641              		.file 23 "/opt/R2P/core/Middleware/include/r2p/SubscriberExtBuf.hpp"
 2642              		.loc 23 76 0
 2643              		.cfi_startproc
ARM GAS  /tmp/ccytVDiP.s 			page 48


 2644              		@ args = 0, pretend = 0, frame = 8
 2645              		@ frame_needed = 0, uses_anonymous_args = 0
 2646 0000 00B5     		push	{lr}
 2647              		.cfi_def_cfa_offset 4
 2648              		.cfi_offset 14, -4
 2649 0002 83B0     		sub	sp, sp, #12
 2650              		.cfi_def_cfa_offset 16
 2651 0004 0190     		str	r0, [sp, #4]
 2652              	.LBB52:
 2653              		.loc 23 79 0
 2654 0006 019B     		ldr	r3, [sp, #4]
 2655 0008 084A     		ldr	r2, .L168
 2656 000a 1A60     		str	r2, [r3]
 2657 000c 019B     		ldr	r3, [sp, #4]
 2658 000e 1846     		mov	r0, r3
 2659 0010 FFF7FEFF 		bl	_ZN3r2p15LocalSubscriberD2Ev
 2660              	.LBE52:
 2661 0014 0023     		movs	r3, #0
 2662 0016 002B     		cmp	r3, #0
 2663 0018 02D0     		beq	.L166
 2664              		.loc 23 79 0 is_stmt 0 discriminator 2
 2665 001a 0198     		ldr	r0, [sp, #4]
 2666 001c FFF7FEFF 		bl	_ZdlPv
 2667              	.L166:
 2668              		.loc 23 79 0 discriminator 4
 2669 0020 019B     		ldr	r3, [sp, #4]
 2670 0022 1846     		mov	r0, r3
 2671 0024 03B0     		add	sp, sp, #12
 2672              		.cfi_def_cfa_offset 4
 2673              		@ sp needed
 2674 0026 5DF804FB 		ldr	pc, [sp], #4
 2675              	.L169:
 2676 002a 00BF     		.align	2
 2677              	.L168:
 2678 002c 08000000 		.word	_ZTVN3r2p16SubscriberExtBufINS_7MgmtMsgEEE+8
 2679              		.cfi_endproc
 2680              	.LFE749:
 2681              		.size	_ZN3r2p16SubscriberExtBufINS_7MgmtMsgEED2Ev, .-_ZN3r2p16SubscriberExtBufINS_7MgmtMsgEED2Ev
 2682              		.weak	_ZN3r2p16SubscriberExtBufINS_7MgmtMsgEED1Ev
 2683              		.thumb_set _ZN3r2p16SubscriberExtBufINS_7MgmtMsgEED1Ev,_ZN3r2p16SubscriberExtBufINS_7MgmtMsgEED2Ev
 2684              		.section	.text._ZN3r2p16SubscriberExtBufINS_7MgmtMsgEED0Ev,"axG",%progbits,_ZN3r2p16SubscriberExtB
 2685              		.align	2
 2686              		.weak	_ZN3r2p16SubscriberExtBufINS_7MgmtMsgEED0Ev
 2687              		.thumb
 2688              		.thumb_func
 2689              		.type	_ZN3r2p16SubscriberExtBufINS_7MgmtMsgEED0Ev, %function
 2690              	_ZN3r2p16SubscriberExtBufINS_7MgmtMsgEED0Ev:
 2691              	.LFB751:
 2692              		.loc 23 76 0 is_stmt 1
 2693              		.cfi_startproc
 2694              		@ args = 0, pretend = 0, frame = 8
 2695              		@ frame_needed = 0, uses_anonymous_args = 0
 2696 0000 00B5     		push	{lr}
 2697              		.cfi_def_cfa_offset 4
 2698              		.cfi_offset 14, -4
 2699 0002 83B0     		sub	sp, sp, #12
 2700              		.cfi_def_cfa_offset 16
ARM GAS  /tmp/ccytVDiP.s 			page 49


 2701 0004 0190     		str	r0, [sp, #4]
 2702              		.loc 23 79 0
 2703 0006 0198     		ldr	r0, [sp, #4]
 2704 0008 FFF7FEFF 		bl	_ZN3r2p16SubscriberExtBufINS_7MgmtMsgEED1Ev
 2705 000c 0198     		ldr	r0, [sp, #4]
 2706 000e FFF7FEFF 		bl	_ZdlPv
 2707 0012 019B     		ldr	r3, [sp, #4]
 2708 0014 1846     		mov	r0, r3
 2709 0016 03B0     		add	sp, sp, #12
 2710              		.cfi_def_cfa_offset 4
 2711              		@ sp needed
 2712 0018 5DF804FB 		ldr	pc, [sp], #4
 2713              		.cfi_endproc
 2714              	.LFE751:
 2715              		.size	_ZN3r2p16SubscriberExtBufINS_7MgmtMsgEED0Ev, .-_ZN3r2p16SubscriberExtBufINS_7MgmtMsgEED0Ev
 2716              		.text
 2717              		.align	2
 2718              		.thumb
 2719              		.thumb_func
 2720              		.type	_GLOBAL__sub_I__ZN3r2p10Middleware8instanceE, %function
 2721              	_GLOBAL__sub_I__ZN3r2p10Middleware8instanceE:
 2722              	.LFB753:
 2723              		.loc 18 161 0
 2724              		.cfi_startproc
 2725              		@ args = 0, pretend = 0, frame = 0
 2726              		@ frame_needed = 0, uses_anonymous_args = 0
 2727 0338 08B5     		push	{r3, lr}
 2728              		.cfi_def_cfa_offset 8
 2729              		.cfi_offset 3, -8
 2730              		.cfi_offset 14, -4
 2731              		.loc 18 161 0
 2732 033a 0120     		movs	r0, #1
 2733 033c 4FF6FF71 		movw	r1, #65535
 2734 0340 FFF7BEFF 		bl	_Z41__static_initialization_and_destruction_0ii
 2735 0344 08BD     		pop	{r3, pc}
 2736              		.cfi_endproc
 2737              	.LFE753:
 2738              		.size	_GLOBAL__sub_I__ZN3r2p10Middleware8instanceE, .-_GLOBAL__sub_I__ZN3r2p10Middleware8instanceE
 2739              		.section	.init_array,"aw",%init_array
 2740              		.align	2
 2741 0000 00000000 		.word	_GLOBAL__sub_I__ZN3r2p10Middleware8instanceE(target1)
 2742              		.text
 2743              	.Letext0:
 2744              		.file 24 "/opt/R2P/tools/gcc-arm-none-eabi-4_9-2014q4/arm-none-eabi/include/machine/_default_types
 2745              		.file 25 "/opt/R2P/tools/gcc-arm-none-eabi-4_9-2014q4/lib/gcc/arm-none-eabi/4.9.3/include/stddef.h
 2746              		.file 26 "/opt/R2P/tools/gcc-arm-none-eabi-4_9-2014q4/arm-none-eabi/include/sys/lock.h"
 2747              		.file 27 "/opt/R2P/tools/gcc-arm-none-eabi-4_9-2014q4/arm-none-eabi/include/sys/_types.h"
 2748              		.file 28 "/opt/R2P/tools/gcc-arm-none-eabi-4_9-2014q4/arm-none-eabi/include/sys/reent.h"
 2749              		.file 29 "/opt/R2P/tools/gcc-arm-none-eabi-4_9-2014q4/arm-none-eabi/include/stdio.h"
 2750              		.file 30 "/opt/R2P/tools/gcc-arm-none-eabi-4_9-2014q4/arm-none-eabi/include/c++/4.9.3/cstdio"
 2751              		.file 31 "/opt/R2P/tools/gcc-arm-none-eabi-4_9-2014q4/arm-none-eabi/include/c++/4.9.3/cstring"
 2752              		.file 32 "/opt/R2P/tools/gcc-arm-none-eabi-4_9-2014q4/arm-none-eabi/include/stdint.h"
 2753              		.file 33 "/opt/R2P/core/ChibiOS_2.6.5/os/ports/GCC/ARMCMx/chtypes.h"
 2754              		.file 34 "/opt/R2P/core/ChibiOS_2.6.5/os/kernel/include/chlists.h"
 2755              		.file 35 "/opt/R2P/core/ChibiOS_2.6.5/os/kernel/include/chthreads.h"
 2756              		.file 36 "/opt/R2P/core/ChibiOS_2.6.5/os/ports/GCC/ARMCMx/chcore_v7m.h"
 2757              		.file 37 "/opt/R2P/core/ChibiOS_2.6.5/os/kernel/include/chschd.h"
ARM GAS  /tmp/ccytVDiP.s 			page 50


 2758              		.file 38 "/opt/R2P/core/ChibiOS_2.6.5/os/kernel/include/chmtx.h"
 2759              		.file 39 "/opt/R2P/core/ChibiOS_2.6.5/os/kernel/include/chevents.h"
 2760              		.file 40 "/opt/R2P/core/ChibiOS_2.6.5/os/kernel/include/chmemcore.h"
 2761              		.file 41 "/opt/R2P/core/ChibiOS_2.6.5/os/kernel/include/chheap.h"
 2762              		.file 42 "/opt/R2P/core/ChibiOS_2.6.5/os/kernel/include/chmempools.h"
 2763              		.file 43 "/opt/R2P/core/ChibiOS_2.6.5/os/kernel/include/chqueues.h"
 2764              		.file 44 "/opt/R2P/core/ChibiOS_2.6.5/os/hal/platforms/STM32F30x/stm32f30x.h"
 2765              		.file 45 "/opt/R2P/core/ChibiOS_2.6.5/os/hal/include/io_channel.h"
 2766              		.file 46 "/opt/R2P/core/ChibiOS_2.6.5/os/hal/platforms/STM32/GPIOv2/pal_lld.h"
 2767              		.file 47 "/opt/R2P/core/ChibiOS_2.6.5/os/hal/include/serial.h"
 2768              		.file 48 "/opt/R2P/core/ChibiOS_2.6.5/os/hal/include/usb.h"
 2769              		.file 49 "/opt/R2P/core/ChibiOS_2.6.5/os/hal/platforms/STM32/USBv1/usb_lld.h"
 2770              		.file 50 "/opt/R2P/core/ChibiOS_2.6.5/os/hal/include/serial_usb.h"
 2771              		.file 51 "/opt/R2P/tools/gcc-arm-none-eabi-4_9-2014q4/arm-none-eabi/include/string.h"
 2772              		.file 52 "<built-in>"
 2773              		.file 53 "/opt/R2P/core/Middleware/include/r2p/NamingTraits.hpp"
 2774              		.file 54 "/opt/R2P/core/Middleware/include/r2p/LocalPublisher.hpp"
 2775              		.file 55 "/opt/R2P/core/Middleware/include/r2p/MgmtMsg.hpp"
 2776              		.file 56 "/opt/R2P/core/Middleware/port/chibios/include/r2p/impl/Flasher_.hpp"
 2777              		.file 57 "/opt/R2P/core/Middleware/include/r2p/BaseSubscriber.hpp"
 2778              		.file 58 "/opt/R2P/core/Middleware/include/r2p/transport/DebugTransport.hpp"
 2779              		.file 59 "/opt/R2P/core/Middleware/include/r2p/transport/RTCANTransport.hpp"
 2780              		.file 60 "/opt/R2P/core/Middleware/include/r2p/node/led.hpp"
 2781              		.file 61 "/opt/R2P/core/Middleware/include/r2p/msg/std_msgs.hpp"
 2782              		.file 62 "/opt/R2P/core/Middleware/include/r2p/common.hpp"
 2783              		.file 63 "/opt/R2P/core/ChibiOS_2.6.5/os/ports/common/ARMCMx/CMSIS/include/core_cm4.h"
 2784              		.file 64 "usbcfg.h"
 2785              		.file 65 "/opt/R2P/core/ChibiOS_2.6.5/os/hal/platforms/STM32/USARTv2/serial_lld.h"