ARM GAS  /tmp/ccytVDiP.s 			page 1


   1              		.syntax unified
   2              		.cpu cortex-m4
   3              		.fpu softvfp
   4              		.eabi_attribute 20, 1
   5              		.eabi_attribute 21, 1
   6              		.eabi_attribute 23, 3
   7              		.eabi_attribute 24, 1
   8              		.eabi_attribute 25, 1
   9              		.eabi_attribute 26, 1
  10              		.eabi_attribute 30, 6
  11              		.eabi_attribute 34, 1
  12              		.eabi_attribute 18, 4
  13              		.thumb
  14              		.file	"main.cpp"
  15              		.text
  16              	.Ltext0:
  17              		.cfi_sections	.debug_frame
  18              		.section	.text._ZN3r2p10UncopyableD2Ev,"axG",%progbits,_ZN3r2p10UncopyableD5Ev,comdat
  19              		.align	2
  20              		.weak	_ZN3r2p10UncopyableD2Ev
  21              		.thumb
  22              		.thumb_func
  23              		.type	_ZN3r2p10UncopyableD2Ev, %function
  24              	_ZN3r2p10UncopyableD2Ev:
  25              	.LFB127:
  26              		.file 1 "/opt/R2P/core/Middleware/include/r2p/Uncopyable.hpp"
  27              		.loc 1 21 0
  28              		.cfi_startproc
  29              		@ args = 0, pretend = 0, frame = 8
  30              		@ frame_needed = 0, uses_anonymous_args = 0
  31              		@ link register save eliminated.
  32 0000 82B0     		sub	sp, sp, #8
  33              		.cfi_def_cfa_offset 8
  34 0002 0190     		str	r0, [sp, #4]
  35              		.loc 1 21 0
  36 0004 019B     		ldr	r3, [sp, #4]
  37 0006 1846     		mov	r0, r3
  38 0008 02B0     		add	sp, sp, #8
  39              		.cfi_def_cfa_offset 0
  40              		@ sp needed
  41 000a 7047     		bx	lr
  42              		.cfi_endproc
  43              	.LFE127:
  44              		.size	_ZN3r2p10UncopyableD2Ev, .-_ZN3r2p10UncopyableD2Ev
  45              		.weak	_ZN3r2p10UncopyableD1Ev
  46              		.thumb_set _ZN3r2p10UncopyableD1Ev,_ZN3r2p10UncopyableD2Ev
  47              		.section	.text._ZN3r2p8SysLock_7acquireEv,"axG",%progbits,_ZN3r2p8SysLock_7acquireEv,comdat
  48              		.align	2
  49              		.weak	_ZN3r2p8SysLock_7acquireEv
  50              		.thumb
  51              		.thumb_func
  52              		.type	_ZN3r2p8SysLock_7acquireEv, %function
  53              	_ZN3r2p8SysLock_7acquireEv:
  54              	.LFB129:
  55              		.file 2 "/opt/R2P/core/Middleware/port/chibios/include/r2p/impl/SysLock_.hpp"
  56              		.loc 2 20 0
  57              		.cfi_startproc
ARM GAS  /tmp/ccytVDiP.s 			page 2


  58              		@ args = 0, pretend = 0, frame = 0
  59              		@ frame_needed = 0, uses_anonymous_args = 0
  60 0000 08B5     		push	{r3, lr}
  61              		.cfi_def_cfa_offset 8
  62              		.cfi_offset 3, -8
  63              		.cfi_offset 14, -4
  64              	.LBB24:
  65              	.LBB25:
  66              	.LBB26:
  67              		.loc 2 22 0
  68 0002 2023     		movs	r3, #32
  69              	@ 22 "/opt/R2P/core/Middleware/port/chibios/include/r2p/impl/SysLock_.hpp" 1
  70 0004 83F31188 		msr     BASEPRI, r3
  71              	@ 0 "" 2
  72              		.thumb
  73              	.LBE26:
  74 0008 FFF7FEFF 		bl	dbg_check_lock
  75              	.LBE25:
  76              	.LBE24:
  77              		.loc 2 23 0
  78 000c 08BD     		pop	{r3, pc}
  79              		.cfi_endproc
  80              	.LFE129:
  81              		.size	_ZN3r2p8SysLock_7acquireEv, .-_ZN3r2p8SysLock_7acquireEv
  82 000e 00BF     		.section	.text._ZN3r2p8SysLock_7releaseEv,"axG",%progbits,_ZN3r2p8SysLock_7releaseEv,comdat
  83              		.align	2
  84              		.weak	_ZN3r2p8SysLock_7releaseEv
  85              		.thumb
  86              		.thumb_func
  87              		.type	_ZN3r2p8SysLock_7releaseEv, %function
  88              	_ZN3r2p8SysLock_7releaseEv:
  89              	.LFB130:
  90              		.loc 2 27 0
  91              		.cfi_startproc
  92              		@ args = 0, pretend = 0, frame = 0
  93              		@ frame_needed = 0, uses_anonymous_args = 0
  94 0000 08B5     		push	{r3, lr}
  95              		.cfi_def_cfa_offset 8
  96              		.cfi_offset 3, -8
  97              		.cfi_offset 14, -4
  98              	.LBB27:
  99              	.LBB28:
 100              		.loc 2 29 0
 101 0002 FFF7FEFF 		bl	dbg_check_unlock
 102              	.LBB29:
 103 0006 0023     		movs	r3, #0
 104              	@ 29 "/opt/R2P/core/Middleware/port/chibios/include/r2p/impl/SysLock_.hpp" 1
 105 0008 83F31188 		msr     BASEPRI, r3
 106              	@ 0 "" 2
 107              		.thumb
 108              	.LBE29:
 109              	.LBE28:
 110              	.LBE27:
 111              		.loc 2 30 0
 112 000c 08BD     		pop	{r3, pc}
 113              		.cfi_endproc
 114              	.LFE130:
ARM GAS  /tmp/ccytVDiP.s 			page 3


 115              		.size	_ZN3r2p8SysLock_7releaseEv, .-_ZN3r2p8SysLock_7releaseEv
 116 000e 00BF     		.section	.text._ZN3r2p7SysLock7acquireEv,"axG",%progbits,_ZN3r2p7SysLock7acquireEv,comdat
 117              		.align	2
 118              		.weak	_ZN3r2p7SysLock7acquireEv
 119              		.thumb
 120              		.thumb_func
 121              		.type	_ZN3r2p7SysLock7acquireEv, %function
 122              	_ZN3r2p7SysLock7acquireEv:
 123              	.LFB137:
 124              		.file 3 "/opt/R2P/core/Middleware/include/r2p/SysLock.hpp"
 125              		.loc 3 27 0
 126              		.cfi_startproc
 127              		@ args = 0, pretend = 0, frame = 0
 128              		@ frame_needed = 0, uses_anonymous_args = 0
 129 0000 08B5     		push	{r3, lr}
 130              		.cfi_def_cfa_offset 8
 131              		.cfi_offset 3, -8
 132              		.cfi_offset 14, -4
 133              		.loc 3 29 0
 134 0002 FFF7FEFF 		bl	_ZN3r2p8SysLock_7acquireEv
 135              		.loc 3 30 0
 136 0006 08BD     		pop	{r3, pc}
 137              		.cfi_endproc
 138              	.LFE137:
 139              		.size	_ZN3r2p7SysLock7acquireEv, .-_ZN3r2p7SysLock7acquireEv
 140              		.section	.text._ZN3r2p7SysLock7releaseEv,"axG",%progbits,_ZN3r2p7SysLock7releaseEv,comdat
 141              		.align	2
 142              		.weak	_ZN3r2p7SysLock7releaseEv
 143              		.thumb
 144              		.thumb_func
 145              		.type	_ZN3r2p7SysLock7releaseEv, %function
 146              	_ZN3r2p7SysLock7releaseEv:
 147              	.LFB138:
 148              		.loc 3 34 0
 149              		.cfi_startproc
 150              		@ args = 0, pretend = 0, frame = 0
 151              		@ frame_needed = 0, uses_anonymous_args = 0
 152 0000 08B5     		push	{r3, lr}
 153              		.cfi_def_cfa_offset 8
 154              		.cfi_offset 3, -8
 155              		.cfi_offset 14, -4
 156              		.loc 3 36 0
 157 0002 FFF7FEFF 		bl	_ZN3r2p8SysLock_7releaseEv
 158              		.loc 3 37 0
 159 0006 08BD     		pop	{r3, pc}
 160              		.cfi_endproc
 161              	.LFE138:
 162              		.size	_ZN3r2p7SysLock7releaseEv, .-_ZN3r2p7SysLock7releaseEv
 163              		.section	.text._ZN3r2p11MemoryPool_12alloc_unsafeEv,"axG",%progbits,_ZN3r2p11MemoryPool_12alloc_un
 164              		.align	2
 165              		.weak	_ZN3r2p11MemoryPool_12alloc_unsafeEv
 166              		.thumb
 167              		.thumb_func
 168              		.type	_ZN3r2p11MemoryPool_12alloc_unsafeEv, %function
 169              	_ZN3r2p11MemoryPool_12alloc_unsafeEv:
 170              	.LFB236:
 171              		.file 4 "/opt/R2P/core/Middleware/port/chibios/include/r2p/impl/MemoryPool_.hpp"
ARM GAS  /tmp/ccytVDiP.s 			page 4


 172              		.loc 4 53 0
 173              		.cfi_startproc
 174              		@ args = 0, pretend = 0, frame = 8
 175              		@ frame_needed = 0, uses_anonymous_args = 0
 176 0000 00B5     		push	{lr}
 177              		.cfi_def_cfa_offset 4
 178              		.cfi_offset 14, -4
 179 0002 83B0     		sub	sp, sp, #12
 180              		.cfi_def_cfa_offset 16
 181 0004 0190     		str	r0, [sp, #4]
 182              		.loc 4 55 0
 183 0006 019B     		ldr	r3, [sp, #4]
 184 0008 1846     		mov	r0, r3
 185 000a FFF7FEFF 		bl	chPoolAllocI
 186 000e 0346     		mov	r3, r0
 187              		.loc 4 56 0
 188 0010 1846     		mov	r0, r3
 189 0012 03B0     		add	sp, sp, #12
 190              		.cfi_def_cfa_offset 4
 191              		@ sp needed
 192 0014 5DF804FB 		ldr	pc, [sp], #4
 193              		.cfi_endproc
 194              	.LFE236:
 195              		.size	_ZN3r2p11MemoryPool_12alloc_unsafeEv, .-_ZN3r2p11MemoryPool_12alloc_unsafeEv
 196              		.section	.text._ZNK3r2p4Time8to_s_rawEv,"axG",%progbits,_ZNK3r2p4Time8to_s_rawEv,comdat
 197              		.align	2
 198              		.weak	_ZNK3r2p4Time8to_s_rawEv
 199              		.thumb
 200              		.thumb_func
 201              		.type	_ZNK3r2p4Time8to_s_rawEv, %function
 202              	_ZNK3r2p4Time8to_s_rawEv:
 203              	.LFB256:
 204              		.file 5 "/opt/R2P/core/Middleware/include/r2p/Time.hpp"
 205              		.loc 5 89 0
 206              		.cfi_startproc
 207              		@ args = 0, pretend = 0, frame = 8
 208              		@ frame_needed = 0, uses_anonymous_args = 0
 209              		@ link register save eliminated.
 210 0000 82B0     		sub	sp, sp, #8
 211              		.cfi_def_cfa_offset 8
 212 0002 0190     		str	r0, [sp, #4]
 213              		.loc 5 91 0
 214 0004 019B     		ldr	r3, [sp, #4]
 215 0006 1B68     		ldr	r3, [r3]
 216 0008 044A     		ldr	r2, .L12
 217 000a 82FB0312 		smull	r1, r2, r2, r3
 218 000e 9214     		asrs	r2, r2, #18
 219 0010 DB17     		asrs	r3, r3, #31
 220 0012 D31A     		subs	r3, r2, r3
 221              		.loc 5 92 0
 222 0014 1846     		mov	r0, r3
 223 0016 02B0     		add	sp, sp, #8
 224              		.cfi_def_cfa_offset 0
 225              		@ sp needed
 226 0018 7047     		bx	lr
 227              	.L13:
 228 001a 00BF     		.align	2
ARM GAS  /tmp/ccytVDiP.s 			page 5


 229              	.L12:
 230 001c 83DE1B43 		.word	1125899907
 231              		.cfi_endproc
 232              	.LFE256:
 233              		.size	_ZNK3r2p4Time8to_s_rawEv, .-_ZNK3r2p4Time8to_s_rawEv
 234              		.section	.text._ZN3r2p4TimeaSERKS0_,"axG",%progbits,_ZN3r2p4TimeaSERKS0_,comdat
 235              		.align	2
 236              		.weak	_ZN3r2p4TimeaSERKS0_
 237              		.thumb
 238              		.thumb_func
 239              		.type	_ZN3r2p4TimeaSERKS0_, %function
 240              	_ZN3r2p4TimeaSERKS0_:
 241              	.LFB262:
 242              		.loc 5 131 0
 243              		.cfi_startproc
 244              		@ args = 0, pretend = 0, frame = 8
 245              		@ frame_needed = 0, uses_anonymous_args = 0
 246              		@ link register save eliminated.
 247 0000 82B0     		sub	sp, sp, #8
 248              		.cfi_def_cfa_offset 8
 249 0002 0190     		str	r0, [sp, #4]
 250 0004 0091     		str	r1, [sp]
 251              		.loc 5 133 0
 252 0006 009B     		ldr	r3, [sp]
 253 0008 1A68     		ldr	r2, [r3]
 254 000a 019B     		ldr	r3, [sp, #4]
 255 000c 1A60     		str	r2, [r3]
 256              		.loc 5 134 0
 257 000e 019B     		ldr	r3, [sp, #4]
 258              		.loc 5 135 0
 259 0010 1846     		mov	r0, r3
 260 0012 02B0     		add	sp, sp, #8
 261              		.cfi_def_cfa_offset 0
 262              		@ sp needed
 263 0014 7047     		bx	lr
 264              		.cfi_endproc
 265              	.LFE262:
 266              		.size	_ZN3r2p4TimeaSERKS0_, .-_ZN3r2p4TimeaSERKS0_
 267 0016 00BF     		.section	.text._ZN3r2p4Time2msEl,"axG",%progbits,_ZN3r2p4Time2msEl,comdat
 268              		.align	2
 269              		.weak	_ZN3r2p4Time2msEl
 270              		.thumb
 271              		.thumb_func
 272              		.type	_ZN3r2p4Time2msEl, %function
 273              	_ZN3r2p4Time2msEl:
 274              	.LFB276:
 275              		.loc 5 184 0
 276              		.cfi_startproc
 277              		@ args = 0, pretend = 0, frame = 8
 278              		@ frame_needed = 0, uses_anonymous_args = 0
 279 0000 00B5     		push	{lr}
 280              		.cfi_def_cfa_offset 4
 281              		.cfi_offset 14, -4
 282 0002 83B0     		sub	sp, sp, #12
 283              		.cfi_def_cfa_offset 16
 284 0004 0190     		str	r0, [sp, #4]
 285 0006 0091     		str	r1, [sp]
ARM GAS  /tmp/ccytVDiP.s 			page 6


 286              		.loc 5 186 0
 287 0008 009B     		ldr	r3, [sp]
 288 000a 4FF47A72 		mov	r2, #1000
 289 000e 02FB03F3 		mul	r3, r2, r3
 290 0012 0198     		ldr	r0, [sp, #4]
 291 0014 1946     		mov	r1, r3
 292 0016 FFF7FEFF 		bl	_ZN3r2p4TimeC1IlEET_
 293              		.loc 5 187 0
 294 001a 0198     		ldr	r0, [sp, #4]
 295 001c 03B0     		add	sp, sp, #12
 296              		.cfi_def_cfa_offset 4
 297              		@ sp needed
 298 001e 5DF804FB 		ldr	pc, [sp], #4
 299              		.cfi_endproc
 300              	.LFE276:
 301              		.size	_ZN3r2p4Time2msEl, .-_ZN3r2p4Time2msEl
 302 0022 00BF     		.section	.text._ZN3r2p7Message12reset_unsafeEv,"axG",%progbits,_ZN3r2p7Message12reset_unsafeEv,com
 303              		.align	2
 304              		.weak	_ZN3r2p7Message12reset_unsafeEv
 305              		.thumb
 306              		.thumb_func
 307              		.type	_ZN3r2p7Message12reset_unsafeEv, %function
 308              	_ZN3r2p7Message12reset_unsafeEv:
 309              	.LFB292:
 310              		.file 6 "/opt/R2P/core/Middleware/include/r2p/Message.hpp"
 311              		.loc 6 122 0
 312              		.cfi_startproc
 313              		@ args = 0, pretend = 0, frame = 8
 314              		@ frame_needed = 0, uses_anonymous_args = 0
 315              		@ link register save eliminated.
 316 0000 82B0     		sub	sp, sp, #8
 317              		.cfi_def_cfa_offset 8
 318 0002 0190     		str	r0, [sp, #4]
 319              		.loc 6 127 0
 320 0004 019B     		ldr	r3, [sp, #4]
 321 0006 0022     		movs	r2, #0
 322 0008 1A70     		strb	r2, [r3]
 323 000a 0022     		movs	r2, #0
 324 000c 5A70     		strb	r2, [r3, #1]
 325              		.loc 6 128 0
 326 000e 02B0     		add	sp, sp, #8
 327              		.cfi_def_cfa_offset 0
 328              		@ sp needed
 329 0010 7047     		bx	lr
 330              		.cfi_endproc
 331              	.LFE292:
 332              		.size	_ZN3r2p7Message12reset_unsafeEv, .-_ZN3r2p7Message12reset_unsafeEv
 333 0012 00BF     		.section	.rodata
 334              		.align	2
 335              	.LC0:
 336 0000 5232505F 		.ascii	"R2P_ASSERT()\000"
 336      41535345 
 336      52542829 
 336      00
 337              		.section	.text._ZN3r2p13BasePublisher12alloc_unsafeERPNS_7MessageE,"axG",%progbits,_ZN3r2p13BasePu
 338              		.align	2
 339              		.weak	_ZN3r2p13BasePublisher12alloc_unsafeERPNS_7MessageE
ARM GAS  /tmp/ccytVDiP.s 			page 7


 340              		.thumb
 341              		.thumb_func
 342              		.type	_ZN3r2p13BasePublisher12alloc_unsafeERPNS_7MessageE, %function
 343              	_ZN3r2p13BasePublisher12alloc_unsafeERPNS_7MessageE:
 344              	.LFB303:
 345              		.file 7 "/opt/R2P/core/Middleware/include/r2p/BasePublisher.hpp"
 346              		.loc 7 64 0
 347              		.cfi_startproc
 348              		@ args = 0, pretend = 0, frame = 8
 349              		@ frame_needed = 0, uses_anonymous_args = 0
 350 0000 00B5     		push	{lr}
 351              		.cfi_def_cfa_offset 4
 352              		.cfi_offset 14, -4
 353 0002 83B0     		sub	sp, sp, #12
 354              		.cfi_def_cfa_offset 16
 355 0004 0190     		str	r0, [sp, #4]
 356 0006 0091     		str	r1, [sp]
 357              		.loc 7 66 0
 358 0008 019B     		ldr	r3, [sp, #4]
 359 000a 5B68     		ldr	r3, [r3, #4]
 360 000c 002B     		cmp	r3, #0
 361 000e 02D1     		bne	.L20
 362              		.loc 7 66 0 is_stmt 0 discriminator 1
 363 0010 0A48     		ldr	r0, .L22
 364 0012 FFF7FEFF 		bl	chDbgPanic
 365              	.L20:
 366              		.loc 7 68 0 is_stmt 1
 367 0016 019B     		ldr	r3, [sp, #4]
 368 0018 5B68     		ldr	r3, [r3, #4]
 369 001a 1846     		mov	r0, r3
 370 001c FFF7FEFF 		bl	_ZN3r2p5Topic12alloc_unsafeEv
 371 0020 0246     		mov	r2, r0
 372 0022 009B     		ldr	r3, [sp]
 373 0024 1A60     		str	r2, [r3]
 374              		.loc 7 69 0
 375 0026 009B     		ldr	r3, [sp]
 376 0028 1B68     		ldr	r3, [r3]
 377 002a 002B     		cmp	r3, #0
 378 002c 14BF     		ite	ne
 379 002e 0123     		movne	r3, #1
 380 0030 0023     		moveq	r3, #0
 381 0032 DBB2     		uxtb	r3, r3
 382              		.loc 7 70 0
 383 0034 1846     		mov	r0, r3
 384 0036 03B0     		add	sp, sp, #12
 385              		.cfi_def_cfa_offset 4
 386              		@ sp needed
 387 0038 5DF804FB 		ldr	pc, [sp], #4
 388              	.L23:
 389              		.align	2
 390              	.L22:
 391 003c 00000000 		.word	.LC0
 392              		.cfi_endproc
 393              	.LFE303:
 394              		.size	_ZN3r2p13BasePublisher12alloc_unsafeERPNS_7MessageE, .-_ZN3r2p13BasePublisher12alloc_unsafeE
 395              		.section	.text._ZN3r2p13BasePublisher5allocERPNS_7MessageE,"axG",%progbits,_ZN3r2p13BasePublisher5
 396              		.align	2
ARM GAS  /tmp/ccytVDiP.s 			page 8


 397              		.weak	_ZN3r2p13BasePublisher5allocERPNS_7MessageE
 398              		.thumb
 399              		.thumb_func
 400              		.type	_ZN3r2p13BasePublisher5allocERPNS_7MessageE, %function
 401              	_ZN3r2p13BasePublisher5allocERPNS_7MessageE:
 402              	.LFB304:
 403              		.loc 7 74 0
 404              		.cfi_startproc
 405              		@ args = 0, pretend = 0, frame = 16
 406              		@ frame_needed = 0, uses_anonymous_args = 0
 407 0000 00B5     		push	{lr}
 408              		.cfi_def_cfa_offset 4
 409              		.cfi_offset 14, -4
 410 0002 85B0     		sub	sp, sp, #20
 411              		.cfi_def_cfa_offset 24
 412 0004 0190     		str	r0, [sp, #4]
 413 0006 0091     		str	r1, [sp]
 414              	.LBB30:
 415              		.loc 7 76 0
 416 0008 FFF7FEFF 		bl	_ZN3r2p7SysLock7acquireEv
 417              		.loc 7 77 0
 418 000c 0198     		ldr	r0, [sp, #4]
 419 000e 0099     		ldr	r1, [sp]
 420 0010 FFF7FEFF 		bl	_ZN3r2p13BasePublisher12alloc_unsafeERPNS_7MessageE
 421 0014 0346     		mov	r3, r0
 422 0016 8DF80F30 		strb	r3, [sp, #15]
 423              		.loc 7 78 0
 424 001a FFF7FEFF 		bl	_ZN3r2p7SysLock7releaseEv
 425              		.loc 7 79 0
 426 001e 9DF80F30 		ldrb	r3, [sp, #15]	@ zero_extendqisi2
 427              	.LBE30:
 428              		.loc 7 80 0
 429 0022 1846     		mov	r0, r3
 430 0024 05B0     		add	sp, sp, #20
 431              		.cfi_def_cfa_offset 4
 432              		@ sp needed
 433 0026 5DF804FB 		ldr	pc, [sp], #4
 434              		.cfi_endproc
 435              	.LFE304:
 436              		.size	_ZN3r2p13BasePublisher5allocERPNS_7MessageE, .-_ZN3r2p13BasePublisher5allocERPNS_7MessageE
 437 002a 00BF     		.section	.text._ZN3r2p7Thread_11create_heapEPvjmPFlS1_ES1_PKc,"axG",%progbits,_ZN3r2p7Thread_11cre
 438              		.align	2
 439              		.weak	_ZN3r2p7Thread_11create_heapEPvjmPFlS1_ES1_PKc
 440              		.thumb
 441              		.thumb_func
 442              		.type	_ZN3r2p7Thread_11create_heapEPvjmPFlS1_ES1_PKc, %function
 443              	_ZN3r2p7Thread_11create_heapEPvjmPFlS1_ES1_PKc:
 444              	.LFB334:
 445              		.file 8 "/opt/R2P/core/Middleware/port/chibios/include/r2p/impl/Thread_.hpp"
 446              		.loc 8 115 0
 447              		.cfi_startproc
 448              		@ args = 8, pretend = 0, frame = 24
 449              		@ frame_needed = 0, uses_anonymous_args = 0
 450 0000 00B5     		push	{lr}
 451              		.cfi_def_cfa_offset 4
 452              		.cfi_offset 14, -4
 453 0002 89B0     		sub	sp, sp, #36
ARM GAS  /tmp/ccytVDiP.s 			page 9


 454              		.cfi_def_cfa_offset 40
 455 0004 0590     		str	r0, [sp, #20]
 456 0006 0491     		str	r1, [sp, #16]
 457 0008 0392     		str	r2, [sp, #12]
 458 000a 0293     		str	r3, [sp, #8]
 459              	.LBB31:
 460              		.loc 8 120 0
 461 000c 0A9B     		ldr	r3, [sp, #40]
 462 000e 0093     		str	r3, [sp]
 463 0010 0598     		ldr	r0, [sp, #20]
 464 0012 0499     		ldr	r1, [sp, #16]
 465 0014 039A     		ldr	r2, [sp, #12]
 466 0016 029B     		ldr	r3, [sp, #8]
 467 0018 FFF7FEFF 		bl	chThdCreateFromHeap
 468 001c 0790     		str	r0, [sp, #28]
 469              		.loc 8 122 0
 470 001e 079B     		ldr	r3, [sp, #28]
 471 0020 002B     		cmp	r3, #0
 472 0022 02D0     		beq	.L27
 473              		.loc 8 123 0
 474 0024 079B     		ldr	r3, [sp, #28]
 475 0026 0B9A     		ldr	r2, [sp, #44]
 476 0028 9A61     		str	r2, [r3, #24]
 477              	.L27:
 478              		.loc 8 128 0
 479 002a 079B     		ldr	r3, [sp, #28]
 480              	.LBE31:
 481              		.loc 8 129 0
 482 002c 1846     		mov	r0, r3
 483 002e 09B0     		add	sp, sp, #36
 484              		.cfi_def_cfa_offset 4
 485              		@ sp needed
 486 0030 5DF804FB 		ldr	pc, [sp], #4
 487              		.cfi_endproc
 488              	.LFE334:
 489              		.size	_ZN3r2p7Thread_11create_heapEPvjmPFlS1_ES1_PKc, .-_ZN3r2p7Thread_11create_heapEPvjmPFlS1_ES1
 490              		.section	.text._ZN3r2p7Thread_5sleepERKNS_4TimeE,"axG",%progbits,_ZN3r2p7Thread_5sleepERKNS_4TimeE
 491              		.align	2
 492              		.weak	_ZN3r2p7Thread_5sleepERKNS_4TimeE
 493              		.thumb
 494              		.thumb_func
 495              		.type	_ZN3r2p7Thread_5sleepERKNS_4TimeE, %function
 496              	_ZN3r2p7Thread_5sleepERKNS_4TimeE:
 497              	.LFB340:
 498              		.loc 8 180 0
 499              		.cfi_startproc
 500              		@ args = 0, pretend = 0, frame = 8
 501              		@ frame_needed = 0, uses_anonymous_args = 0
 502 0000 00B5     		push	{lr}
 503              		.cfi_def_cfa_offset 4
 504              		.cfi_offset 14, -4
 505 0002 83B0     		sub	sp, sp, #12
 506              		.cfi_def_cfa_offset 16
 507 0004 0190     		str	r0, [sp, #4]
 508              		.loc 8 182 0
 509 0006 019B     		ldr	r3, [sp, #4]
 510 0008 1B68     		ldr	r3, [r3]
ARM GAS  /tmp/ccytVDiP.s 			page 10


 511 000a 002B     		cmp	r3, #0
 512 000c 21DD     		ble	.L30
 513              		.loc 8 183 0
 514 000e 019B     		ldr	r3, [sp, #4]
 515 0010 1B68     		ldr	r3, [r3]
 516 0012 124A     		ldr	r2, .L34
 517 0014 9342     		cmp	r3, r2
 518 0016 10DC     		bgt	.L31
 519              		.loc 8 184 0
 520 0018 019B     		ldr	r3, [sp, #4]
 521 001a 1B68     		ldr	r3, [r3]
 522 001c 1A46     		mov	r2, r3
 523 001e 4FF47A73 		mov	r3, #1000
 524 0022 03FB02F3 		mul	r3, r3, r2
 525 0026 013B     		subs	r3, r3, #1
 526 0028 0D4A     		ldr	r2, .L34+4
 527 002a A2FB0323 		umull	r2, r3, r2, r3
 528 002e 9B0C     		lsrs	r3, r3, #18
 529 0030 0133     		adds	r3, r3, #1
 530 0032 1846     		mov	r0, r3
 531 0034 FFF7FEFF 		bl	chThdSleep
 532 0038 0DE0     		b	.L29
 533              	.L31:
 534              		.loc 8 186 0
 535 003a 0198     		ldr	r0, [sp, #4]
 536 003c FFF7FEFF 		bl	_ZNK3r2p4Time8to_s_rawEv
 537 0040 0246     		mov	r2, r0
 538 0042 4FF47A73 		mov	r3, #1000
 539 0046 03FB02F3 		mul	r3, r3, r2
 540 004a 1846     		mov	r0, r3
 541 004c FFF7FEFF 		bl	chThdSleep
 542 0050 01E0     		b	.L29
 543              	.L30:
 544              		.loc 8 189 0
 545 0052 FFF7FEFF 		bl	chThdYield
 546              	.L29:
 547              		.loc 8 191 0
 548 0056 03B0     		add	sp, sp, #12
 549              		.cfi_def_cfa_offset 4
 550              		@ sp needed
 551 0058 5DF804FB 		ldr	pc, [sp], #4
 552              	.L35:
 553              		.align	2
 554              	.L34:
 555 005c 3F420F00 		.word	999999
 556 0060 83DE1B43 		.word	1125899907
 557              		.cfi_endproc
 558              	.LFE340:
 559              		.size	_ZN3r2p7Thread_5sleepERKNS_4TimeE, .-_ZN3r2p7Thread_5sleepERKNS_4TimeE
 560              		.section	.text._ZN3r2p6Thread11create_heapEPvjmPFlS1_ES1_PKc,"axG",%progbits,_ZN3r2p6Thread11creat
 561              		.align	2
 562              		.weak	_ZN3r2p6Thread11create_heapEPvjmPFlS1_ES1_PKc
 563              		.thumb
 564              		.thumb_func
 565              		.type	_ZN3r2p6Thread11create_heapEPvjmPFlS1_ES1_PKc, %function
 566              	_ZN3r2p6Thread11create_heapEPvjmPFlS1_ES1_PKc:
 567              	.LFB345:
ARM GAS  /tmp/ccytVDiP.s 			page 11


 568              		.file 9 "/opt/R2P/core/Middleware/include/r2p/Thread.hpp"
 569              		.loc 9 92 0
 570              		.cfi_startproc
 571              		@ args = 8, pretend = 0, frame = 16
 572              		@ frame_needed = 0, uses_anonymous_args = 0
 573 0000 00B5     		push	{lr}
 574              		.cfi_def_cfa_offset 4
 575              		.cfi_offset 14, -4
 576 0002 87B0     		sub	sp, sp, #28
 577              		.cfi_def_cfa_offset 32
 578 0004 0590     		str	r0, [sp, #20]
 579 0006 0491     		str	r1, [sp, #16]
 580 0008 0392     		str	r2, [sp, #12]
 581 000a 0293     		str	r3, [sp, #8]
 582              		.loc 9 96 0
 583 000c 089B     		ldr	r3, [sp, #32]
 584 000e 0093     		str	r3, [sp]
 585 0010 099B     		ldr	r3, [sp, #36]
 586 0012 0193     		str	r3, [sp, #4]
 587 0014 0598     		ldr	r0, [sp, #20]
 588 0016 0499     		ldr	r1, [sp, #16]
 589 0018 039A     		ldr	r2, [sp, #12]
 590 001a 029B     		ldr	r3, [sp, #8]
 591 001c FFF7FEFF 		bl	_ZN3r2p7Thread_11create_heapEPvjmPFlS1_ES1_PKc
 592 0020 0346     		mov	r3, r0
 593              		.loc 9 97 0
 594 0022 1846     		mov	r0, r3
 595 0024 07B0     		add	sp, sp, #28
 596              		.cfi_def_cfa_offset 4
 597              		@ sp needed
 598 0026 5DF804FB 		ldr	pc, [sp], #4
 599              		.cfi_endproc
 600              	.LFE345:
 601              		.size	_ZN3r2p6Thread11create_heapEPvjmPFlS1_ES1_PKc, .-_ZN3r2p6Thread11create_heapEPvjmPFlS1_ES1_P
 602 002a 00BF     		.section	.text._ZN3r2p6Thread5sleepERKNS_4TimeE,"axG",%progbits,_ZN3r2p6Thread5sleepERKNS_4TimeE,c
 603              		.align	2
 604              		.weak	_ZN3r2p6Thread5sleepERKNS_4TimeE
 605              		.thumb
 606              		.thumb_func
 607              		.type	_ZN3r2p6Thread5sleepERKNS_4TimeE, %function
 608              	_ZN3r2p6Thread5sleepERKNS_4TimeE:
 609              	.LFB351:
 610              		.loc 9 140 0
 611              		.cfi_startproc
 612              		@ args = 0, pretend = 0, frame = 8
 613              		@ frame_needed = 0, uses_anonymous_args = 0
 614 0000 00B5     		push	{lr}
 615              		.cfi_def_cfa_offset 4
 616              		.cfi_offset 14, -4
 617 0002 83B0     		sub	sp, sp, #12
 618              		.cfi_def_cfa_offset 16
 619 0004 0190     		str	r0, [sp, #4]
 620              		.loc 9 142 0
 621 0006 0198     		ldr	r0, [sp, #4]
 622 0008 FFF7FEFF 		bl	_ZN3r2p7Thread_5sleepERKNS_4TimeE
 623              		.loc 9 143 0
 624 000c 03B0     		add	sp, sp, #12
ARM GAS  /tmp/ccytVDiP.s 			page 12


 625              		.cfi_def_cfa_offset 4
 626              		@ sp needed
 627 000e 5DF804FB 		ldr	pc, [sp], #4
 628              		.cfi_endproc
 629              	.LFE351:
 630              		.size	_ZN3r2p6Thread5sleepERKNS_4TimeE, .-_ZN3r2p6Thread5sleepERKNS_4TimeE
 631 0012 00BF     		.section	.text._ZNK3r2p10SpinEvent_10get_threadEv,"axG",%progbits,_ZNK3r2p10SpinEvent_10get_thread
 632              		.align	2
 633              		.weak	_ZNK3r2p10SpinEvent_10get_threadEv
 634              		.thumb
 635              		.thumb_func
 636              		.type	_ZNK3r2p10SpinEvent_10get_threadEv, %function
 637              	_ZNK3r2p10SpinEvent_10get_threadEv:
 638              	.LFB353:
 639              		.file 10 "/opt/R2P/core/Middleware/port/chibios/include/r2p/impl/SpinEvent_.hpp"
 640              		.loc 10 36 0
 641              		.cfi_startproc
 642              		@ args = 0, pretend = 0, frame = 8
 643              		@ frame_needed = 0, uses_anonymous_args = 0
 644              		@ link register save eliminated.
 645 0000 82B0     		sub	sp, sp, #8
 646              		.cfi_def_cfa_offset 8
 647 0002 0190     		str	r0, [sp, #4]
 648              		.loc 10 38 0
 649 0004 019B     		ldr	r3, [sp, #4]
 650 0006 1B68     		ldr	r3, [r3]
 651              		.loc 10 39 0
 652 0008 1846     		mov	r0, r3
 653 000a 02B0     		add	sp, sp, #8
 654              		.cfi_def_cfa_offset 0
 655              		@ sp needed
 656 000c 7047     		bx	lr
 657              		.cfi_endproc
 658              	.LFE353:
 659              		.size	_ZNK3r2p10SpinEvent_10get_threadEv, .-_ZNK3r2p10SpinEvent_10get_threadEv
 660 000e 00BF     		.section	.text._ZN3r2p10SpinEvent_13signal_unsafeEj,"axG",%progbits,_ZN3r2p10SpinEvent_13signal_un
 661              		.align	2
 662              		.weak	_ZN3r2p10SpinEvent_13signal_unsafeEj
 663              		.thumb
 664              		.thumb_func
 665              		.type	_ZN3r2p10SpinEvent_13signal_unsafeEj, %function
 666              	_ZN3r2p10SpinEvent_13signal_unsafeEj:
 667              	.LFB355:
 668              		.loc 10 50 0
 669              		.cfi_startproc
 670              		@ args = 0, pretend = 0, frame = 8
 671              		@ frame_needed = 0, uses_anonymous_args = 0
 672 0000 00B5     		push	{lr}
 673              		.cfi_def_cfa_offset 4
 674              		.cfi_offset 14, -4
 675 0002 83B0     		sub	sp, sp, #12
 676              		.cfi_def_cfa_offset 16
 677 0004 0190     		str	r0, [sp, #4]
 678 0006 0091     		str	r1, [sp]
 679              		.loc 10 52 0
 680 0008 019B     		ldr	r3, [sp, #4]
 681 000a 1B68     		ldr	r3, [r3]
ARM GAS  /tmp/ccytVDiP.s 			page 13


 682 000c 002B     		cmp	r3, #0
 683 000e 10D0     		beq	.L41
 684              		.loc 10 53 0
 685 0010 2022     		movs	r2, #32
 686 0012 009B     		ldr	r3, [sp]
 687 0014 9A42     		cmp	r2, r3
 688 0016 02D8     		bhi	.L43
 689              		.loc 10 53 0 is_stmt 0 discriminator 1
 690 0018 0748     		ldr	r0, .L44
 691 001a FFF7FEFF 		bl	chDbgPanic
 692              	.L43:
 693              		.loc 10 54 0 is_stmt 1
 694 001e 019B     		ldr	r3, [sp, #4]
 695 0020 1968     		ldr	r1, [r3]
 696 0022 009B     		ldr	r3, [sp]
 697 0024 0122     		movs	r2, #1
 698 0026 02FA03F3 		lsl	r3, r2, r3
 699 002a 0846     		mov	r0, r1
 700 002c 1946     		mov	r1, r3
 701 002e FFF7FEFF 		bl	chEvtSignalI
 702              	.L41:
 703              		.loc 10 56 0
 704 0032 03B0     		add	sp, sp, #12
 705              		.cfi_def_cfa_offset 4
 706              		@ sp needed
 707 0034 5DF804FB 		ldr	pc, [sp], #4
 708              	.L45:
 709              		.align	2
 710              	.L44:
 711 0038 00000000 		.word	.LC0
 712              		.cfi_endproc
 713              	.LFE355:
 714              		.size	_ZN3r2p10SpinEvent_13signal_unsafeEj, .-_ZN3r2p10SpinEvent_13signal_unsafeEj
 715              		.section	.text._ZNK3r2p9SpinEvent10get_threadEv,"axG",%progbits,_ZNK3r2p9SpinEvent10get_threadEv,c
 716              		.align	2
 717              		.weak	_ZNK3r2p9SpinEvent10get_threadEv
 718              		.thumb
 719              		.thumb_func
 720              		.type	_ZNK3r2p9SpinEvent10get_threadEv, %function
 721              	_ZNK3r2p9SpinEvent10get_threadEv:
 722              	.LFB361:
 723              		.file 11 "/opt/R2P/core/Middleware/include/r2p/SpinEvent.hpp"
 724              		.loc 11 35 0
 725              		.cfi_startproc
 726              		@ args = 0, pretend = 0, frame = 8
 727              		@ frame_needed = 0, uses_anonymous_args = 0
 728 0000 00B5     		push	{lr}
 729              		.cfi_def_cfa_offset 4
 730              		.cfi_offset 14, -4
 731 0002 83B0     		sub	sp, sp, #12
 732              		.cfi_def_cfa_offset 16
 733 0004 0190     		str	r0, [sp, #4]
 734              		.loc 11 37 0
 735 0006 019B     		ldr	r3, [sp, #4]
 736 0008 1846     		mov	r0, r3
 737 000a FFF7FEFF 		bl	_ZNK3r2p10SpinEvent_10get_threadEv
 738 000e 0346     		mov	r3, r0
ARM GAS  /tmp/ccytVDiP.s 			page 14


 739              		.loc 11 38 0
 740 0010 1846     		mov	r0, r3
 741 0012 03B0     		add	sp, sp, #12
 742              		.cfi_def_cfa_offset 4
 743              		@ sp needed
 744 0014 5DF804FB 		ldr	pc, [sp], #4
 745              		.cfi_endproc
 746              	.LFE361:
 747              		.size	_ZNK3r2p9SpinEvent10get_threadEv, .-_ZNK3r2p9SpinEvent10get_threadEv
 748              		.section	.text._ZN3r2p9SpinEvent13signal_unsafeEj,"axG",%progbits,_ZN3r2p9SpinEvent13signal_unsafe
 749              		.align	2
 750              		.weak	_ZN3r2p9SpinEvent13signal_unsafeEj
 751              		.thumb
 752              		.thumb_func
 753              		.type	_ZN3r2p9SpinEvent13signal_unsafeEj, %function
 754              	_ZN3r2p9SpinEvent13signal_unsafeEj:
 755              	.LFB363:
 756              		.loc 11 49 0
 757              		.cfi_startproc
 758              		@ args = 0, pretend = 0, frame = 8
 759              		@ frame_needed = 0, uses_anonymous_args = 0
 760 0000 00B5     		push	{lr}
 761              		.cfi_def_cfa_offset 4
 762              		.cfi_offset 14, -4
 763 0002 83B0     		sub	sp, sp, #12
 764              		.cfi_def_cfa_offset 16
 765 0004 0190     		str	r0, [sp, #4]
 766 0006 0091     		str	r1, [sp]
 767              		.loc 11 51 0
 768 0008 019B     		ldr	r3, [sp, #4]
 769 000a 1846     		mov	r0, r3
 770 000c 0099     		ldr	r1, [sp]
 771 000e FFF7FEFF 		bl	_ZN3r2p10SpinEvent_13signal_unsafeEj
 772              		.loc 11 52 0
 773 0012 03B0     		add	sp, sp, #12
 774              		.cfi_def_cfa_offset 4
 775              		@ sp needed
 776 0014 5DF804FB 		ldr	pc, [sp], #4
 777              		.cfi_endproc
 778              	.LFE363:
 779              		.size	_ZN3r2p9SpinEvent13signal_unsafeEj, .-_ZN3r2p9SpinEvent13signal_unsafeEj
 780              		.section	.text._ZNK3r2p4Node11get_enabledEv,"axG",%progbits,_ZNK3r2p4Node11get_enabledEv,comdat
 781              		.align	2
 782              		.weak	_ZNK3r2p4Node11get_enabledEv
 783              		.thumb
 784              		.thumb_func
 785              		.type	_ZNK3r2p4Node11get_enabledEv, %function
 786              	_ZNK3r2p4Node11get_enabledEv:
 787              	.LFB380:
 788              		.file 12 "/opt/R2P/core/Middleware/include/r2p/Node.hpp"
 789              		.loc 12 103 0
 790              		.cfi_startproc
 791              		@ args = 0, pretend = 0, frame = 8
 792              		@ frame_needed = 0, uses_anonymous_args = 0
 793 0000 00B5     		push	{lr}
 794              		.cfi_def_cfa_offset 4
 795              		.cfi_offset 14, -4
ARM GAS  /tmp/ccytVDiP.s 			page 15


 796 0002 83B0     		sub	sp, sp, #12
 797              		.cfi_def_cfa_offset 16
 798 0004 0190     		str	r0, [sp, #4]
 799              		.loc 12 105 0
 800 0006 019B     		ldr	r3, [sp, #4]
 801 0008 0C33     		adds	r3, r3, #12
 802 000a 1846     		mov	r0, r3
 803 000c FFF7FEFF 		bl	_ZNK3r2p9SpinEvent10get_threadEv
 804 0010 0346     		mov	r3, r0
 805 0012 002B     		cmp	r3, #0
 806 0014 14BF     		ite	ne
 807 0016 0123     		movne	r3, #1
 808 0018 0023     		moveq	r3, #0
 809 001a DBB2     		uxtb	r3, r3
 810              		.loc 12 106 0
 811 001c 1846     		mov	r0, r3
 812 001e 03B0     		add	sp, sp, #12
 813              		.cfi_def_cfa_offset 4
 814              		@ sp needed
 815 0020 5DF804FB 		ldr	pc, [sp], #4
 816              		.cfi_endproc
 817              	.LFE380:
 818              		.size	_ZNK3r2p4Node11get_enabledEv, .-_ZNK3r2p4Node11get_enabledEv
 819              		.section	.text._ZN3r2p4Node13notify_unsafeEj,"axG",%progbits,_ZN3r2p4Node13notify_unsafeEj,comdat
 820              		.align	2
 821              		.weak	_ZN3r2p4Node13notify_unsafeEj
 822              		.thumb
 823              		.thumb_func
 824              		.type	_ZN3r2p4Node13notify_unsafeEj, %function
 825              	_ZN3r2p4Node13notify_unsafeEj:
 826              	.LFB385:
 827              		.loc 12 140 0
 828              		.cfi_startproc
 829              		@ args = 0, pretend = 0, frame = 8
 830              		@ frame_needed = 0, uses_anonymous_args = 0
 831 0000 00B5     		push	{lr}
 832              		.cfi_def_cfa_offset 4
 833              		.cfi_offset 14, -4
 834 0002 83B0     		sub	sp, sp, #12
 835              		.cfi_def_cfa_offset 16
 836 0004 0190     		str	r0, [sp, #4]
 837 0006 0091     		str	r1, [sp]
 838              		.loc 12 142 0
 839 0008 019B     		ldr	r3, [sp, #4]
 840 000a 0C33     		adds	r3, r3, #12
 841 000c 1846     		mov	r0, r3
 842 000e 0099     		ldr	r1, [sp]
 843 0010 FFF7FEFF 		bl	_ZN3r2p9SpinEvent13signal_unsafeEj
 844              		.loc 12 143 0
 845 0014 03B0     		add	sp, sp, #12
 846              		.cfi_def_cfa_offset 4
 847              		@ sp needed
 848 0016 5DF804FB 		ldr	pc, [sp], #4
 849              		.cfi_endproc
 850              	.LFE385:
 851              		.size	_ZN3r2p4Node13notify_unsafeEj, .-_ZN3r2p4Node13notify_unsafeEj
 852 001a 00BF     		.section	.text._ZNK3r2p15LocalSubscriber16get_queue_lengthEv,"axG",%progbits,_ZNK3r2p15LocalSubscr
ARM GAS  /tmp/ccytVDiP.s 			page 16


 853              		.align	2
 854              		.weak	_ZNK3r2p15LocalSubscriber16get_queue_lengthEv
 855              		.thumb
 856              		.thumb_func
 857              		.type	_ZNK3r2p15LocalSubscriber16get_queue_lengthEv, %function
 858              	_ZNK3r2p15LocalSubscriber16get_queue_lengthEv:
 859              	.LFB391:
 860              		.file 13 "/opt/R2P/core/Middleware/include/r2p/LocalSubscriber.hpp"
 861              		.loc 13 64 0
 862              		.cfi_startproc
 863              		@ args = 0, pretend = 0, frame = 8
 864              		@ frame_needed = 0, uses_anonymous_args = 0
 865 0000 00B5     		push	{lr}
 866              		.cfi_def_cfa_offset 4
 867              		.cfi_offset 14, -4
 868 0002 83B0     		sub	sp, sp, #12
 869              		.cfi_def_cfa_offset 16
 870 0004 0190     		str	r0, [sp, #4]
 871              		.loc 13 66 0
 872 0006 019B     		ldr	r3, [sp, #4]
 873 0008 1033     		adds	r3, r3, #16
 874 000a 1846     		mov	r0, r3
 875 000c FFF7FEFF 		bl	_ZNK3r2p10ArrayQueueIPNS_7MessageEE10get_lengthEv
 876 0010 0346     		mov	r3, r0
 877              		.loc 13 67 0
 878 0012 1846     		mov	r0, r3
 879 0014 03B0     		add	sp, sp, #12
 880              		.cfi_def_cfa_offset 4
 881              		@ sp needed
 882 0016 5DF804FB 		ldr	pc, [sp], #4
 883              		.cfi_endproc
 884              	.LFE391:
 885              		.size	_ZNK3r2p15LocalSubscriber16get_queue_lengthEv, .-_ZNK3r2p15LocalSubscriber16get_queue_length
 886 001a 00BF     		.section	.text._ZN3r2p15LocalSubscriber12fetch_unsafeERPNS_7MessageERNS_4TimeE,"axG",%progbits,_ZN
 887              		.align	2
 888              		.weak	_ZN3r2p15LocalSubscriber12fetch_unsafeERPNS_7MessageERNS_4TimeE
 889              		.thumb
 890              		.thumb_func
 891              		.type	_ZN3r2p15LocalSubscriber12fetch_unsafeERPNS_7MessageERNS_4TimeE, %function
 892              	_ZN3r2p15LocalSubscriber12fetch_unsafeERPNS_7MessageERNS_4TimeE:
 893              	.LFB392:
 894              		.loc 13 71 0
 895              		.cfi_startproc
 896              		@ args = 0, pretend = 0, frame = 24
 897              		@ frame_needed = 0, uses_anonymous_args = 0
 898 0000 00B5     		push	{lr}
 899              		.cfi_def_cfa_offset 4
 900              		.cfi_offset 14, -4
 901 0002 87B0     		sub	sp, sp, #28
 902              		.cfi_def_cfa_offset 32
 903 0004 0390     		str	r0, [sp, #12]
 904 0006 0291     		str	r1, [sp, #8]
 905 0008 0192     		str	r2, [sp, #4]
 906              		.loc 13 73 0
 907 000a 039B     		ldr	r3, [sp, #12]
 908 000c 1033     		adds	r3, r3, #16
 909 000e 1846     		mov	r0, r3
ARM GAS  /tmp/ccytVDiP.s 			page 17


 910 0010 0299     		ldr	r1, [sp, #8]
 911 0012 FFF7FEFF 		bl	_ZN3r2p10ArrayQueueIPNS_7MessageEE12fetch_unsafeERS2_
 912 0016 0346     		mov	r3, r0
 913 0018 002B     		cmp	r3, #0
 914 001a 0AD0     		beq	.L55
 915              		.loc 13 74 0
 916 001c 05AB     		add	r3, sp, #20
 917 001e 1846     		mov	r0, r3
 918 0020 FFF7FEFF 		bl	_ZN3r2p4Time3nowEv
 919 0024 05AB     		add	r3, sp, #20
 920 0026 0198     		ldr	r0, [sp, #4]
 921 0028 1946     		mov	r1, r3
 922 002a FFF7FEFF 		bl	_ZN3r2p4TimeaSERKS0_
 923              		.loc 13 75 0
 924 002e 0123     		movs	r3, #1
 925 0030 00E0     		b	.L56
 926              	.L55:
 927              		.loc 13 77 0
 928 0032 0023     		movs	r3, #0
 929              	.L56:
 930              		.loc 13 78 0
 931 0034 1846     		mov	r0, r3
 932 0036 07B0     		add	sp, sp, #28
 933              		.cfi_def_cfa_offset 4
 934              		@ sp needed
 935 0038 5DF804FB 		ldr	pc, [sp], #4
 936              		.cfi_endproc
 937              	.LFE392:
 938              		.size	_ZN3r2p15LocalSubscriber12fetch_unsafeERPNS_7MessageERNS_4TimeE, .-_ZN3r2p15LocalSubscriber1
 939              		.section	.text._ZN3r2p15LocalSubscriber13notify_unsafeERNS_7MessageERKNS_4TimeE,"axG",%progbits,_Z
 940              		.align	2
 941              		.weak	_ZN3r2p15LocalSubscriber13notify_unsafeERNS_7MessageERKNS_4TimeE
 942              		.thumb
 943              		.thumb_func
 944              		.type	_ZN3r2p15LocalSubscriber13notify_unsafeERNS_7MessageERKNS_4TimeE, %function
 945              	_ZN3r2p15LocalSubscriber13notify_unsafeERNS_7MessageERKNS_4TimeE:
 946              	.LFB393:
 947              		.loc 13 82 0
 948              		.cfi_startproc
 949              		@ args = 0, pretend = 0, frame = 16
 950              		@ frame_needed = 0, uses_anonymous_args = 0
 951 0000 00B5     		push	{lr}
 952              		.cfi_def_cfa_offset 4
 953              		.cfi_offset 14, -4
 954 0002 85B0     		sub	sp, sp, #20
 955              		.cfi_def_cfa_offset 24
 956 0004 0390     		str	r0, [sp, #12]
 957 0006 0291     		str	r1, [sp, #8]
 958 0008 0192     		str	r2, [sp, #4]
 959              		.loc 13 86 0
 960 000a 039B     		ldr	r3, [sp, #12]
 961 000c 9B68     		ldr	r3, [r3, #8]
 962 000e 1846     		mov	r0, r3
 963 0010 FFF7FEFF 		bl	_ZNK3r2p4Node11get_enabledEv
 964 0014 0346     		mov	r3, r0
 965 0016 002B     		cmp	r3, #0
 966 0018 0AD0     		beq	.L58
ARM GAS  /tmp/ccytVDiP.s 			page 18


 967              		.loc 13 86 0 is_stmt 0 discriminator 1
 968 001a 039B     		ldr	r3, [sp, #12]
 969 001c 1033     		adds	r3, r3, #16
 970 001e 1846     		mov	r0, r3
 971 0020 0299     		ldr	r1, [sp, #8]
 972 0022 FFF7FEFF 		bl	_ZN3r2p10ArrayQueueIPNS_7MessageEE11post_unsafeES2_
 973 0026 0346     		mov	r3, r0
 974 0028 002B     		cmp	r3, #0
 975 002a 01D0     		beq	.L58
 976              		.loc 13 86 0 discriminator 3
 977 002c 0123     		movs	r3, #1
 978 002e 00E0     		b	.L59
 979              	.L58:
 980              		.loc 13 86 0 discriminator 4
 981 0030 0023     		movs	r3, #0
 982              	.L59:
 983              		.loc 13 86 0 discriminator 6
 984 0032 002B     		cmp	r3, #0
 985 0034 0AD0     		beq	.L60
 986              		.loc 13 87 0 is_stmt 1
 987 0036 039B     		ldr	r3, [sp, #12]
 988 0038 9A68     		ldr	r2, [r3, #8]
 989 003a 039B     		ldr	r3, [sp, #12]
 990 003c 93F82430 		ldrb	r3, [r3, #36]	@ zero_extendqisi2
 991 0040 1046     		mov	r0, r2
 992 0042 1946     		mov	r1, r3
 993 0044 FFF7FEFF 		bl	_ZN3r2p4Node13notify_unsafeEj
 994              		.loc 13 88 0
 995 0048 0123     		movs	r3, #1
 996 004a 00E0     		b	.L61
 997              	.L60:
 998              		.loc 13 90 0
 999 004c 0023     		movs	r3, #0
 1000              	.L61:
 1001              		.loc 13 91 0
 1002 004e 1846     		mov	r0, r3
 1003 0050 05B0     		add	sp, sp, #20
 1004              		.cfi_def_cfa_offset 4
 1005              		@ sp needed
 1006 0052 5DF804FB 		ldr	pc, [sp], #4
 1007              		.cfi_endproc
 1008              	.LFE393:
 1009              		.size	_ZN3r2p15LocalSubscriber13notify_unsafeERNS_7MessageERKNS_4TimeE, .-_ZN3r2p15LocalSubscriber
 1010 0056 00BF     		.section	.text._ZN3r2p5Topic12alloc_unsafeEv,"axG",%progbits,_ZN3r2p5Topic12alloc_unsafeEv,comdat
 1011              		.align	2
 1012              		.weak	_ZN3r2p5Topic12alloc_unsafeEv
 1013              		.thumb
 1014              		.thumb_func
 1015              		.type	_ZN3r2p5Topic12alloc_unsafeEv, %function
 1016              	_ZN3r2p5Topic12alloc_unsafeEv:
 1017              	.LFB412:
 1018              		.file 14 "/opt/R2P/core/Middleware/include/r2p/Topic.hpp"
 1019              		.loc 14 250 0
 1020              		.cfi_startproc
 1021              		@ args = 0, pretend = 0, frame = 8
 1022              		@ frame_needed = 0, uses_anonymous_args = 0
 1023 0000 10B5     		push	{r4, lr}
ARM GAS  /tmp/ccytVDiP.s 			page 19


 1024              		.cfi_def_cfa_offset 8
 1025              		.cfi_offset 4, -8
 1026              		.cfi_offset 14, -4
 1027 0002 82B0     		sub	sp, sp, #8
 1028              		.cfi_def_cfa_offset 16
 1029 0004 0190     		str	r0, [sp, #4]
 1030              	.LBB32:
 1031              		.loc 14 252 0
 1032 0006 019B     		ldr	r3, [sp, #4]
 1033 0008 0833     		adds	r3, r3, #8
 1034 000a 1846     		mov	r0, r3
 1035 000c FFF7FEFF 		bl	_ZN3r2p11MemoryPool_12alloc_unsafeEv
 1036 0010 0446     		mov	r4, r0
 1037              		.loc 14 253 0
 1038 0012 002C     		cmp	r4, #0
 1039 0014 04D0     		beq	.L63
 1040              		.loc 14 254 0
 1041 0016 2046     		mov	r0, r4
 1042 0018 FFF7FEFF 		bl	_ZN3r2p7Message12reset_unsafeEv
 1043              		.loc 14 255 0
 1044 001c 2346     		mov	r3, r4
 1045 001e 00E0     		b	.L64
 1046              	.L63:
 1047              		.loc 14 257 0
 1048 0020 0023     		movs	r3, #0
 1049              	.L64:
 1050              	.LBE32:
 1051              		.loc 14 258 0
 1052 0022 1846     		mov	r0, r3
 1053 0024 02B0     		add	sp, sp, #8
 1054              		.cfi_def_cfa_offset 8
 1055              		@ sp needed
 1056 0026 10BD     		pop	{r4, pc}
 1057              		.cfi_endproc
 1058              	.LFE412:
 1059              		.size	_ZN3r2p5Topic12alloc_unsafeEv, .-_ZN3r2p5Topic12alloc_unsafeEv
 1060              		.section	.text._ZN3r2p6Mutex_D2Ev,"axG",%progbits,_ZN3r2p6Mutex_D5Ev,comdat
 1061              		.align	2
 1062              		.weak	_ZN3r2p6Mutex_D2Ev
 1063              		.thumb
 1064              		.thumb_func
 1065              		.type	_ZN3r2p6Mutex_D2Ev, %function
 1066              	_ZN3r2p6Mutex_D2Ev:
 1067              	.LFB538:
 1068              		.file 15 "/opt/R2P/core/Middleware/port/chibios/include/r2p/impl/Mutex_.hpp"
 1069              		.loc 15 9 0
 1070              		.cfi_startproc
 1071              		@ args = 0, pretend = 0, frame = 8
 1072              		@ frame_needed = 0, uses_anonymous_args = 0
 1073 0000 00B5     		push	{lr}
 1074              		.cfi_def_cfa_offset 4
 1075              		.cfi_offset 14, -4
 1076 0002 83B0     		sub	sp, sp, #12
 1077              		.cfi_def_cfa_offset 16
 1078 0004 0190     		str	r0, [sp, #4]
 1079              	.LBB33:
 1080              		.loc 15 9 0
ARM GAS  /tmp/ccytVDiP.s 			page 20


 1081 0006 0198     		ldr	r0, [sp, #4]
 1082 0008 FFF7FEFF 		bl	_ZN3r2p10UncopyableD2Ev
 1083              	.LBE33:
 1084 000c 019B     		ldr	r3, [sp, #4]
 1085 000e 1846     		mov	r0, r3
 1086 0010 03B0     		add	sp, sp, #12
 1087              		.cfi_def_cfa_offset 4
 1088              		@ sp needed
 1089 0012 5DF804FB 		ldr	pc, [sp], #4
 1090              		.cfi_endproc
 1091              	.LFE538:
 1092              		.size	_ZN3r2p6Mutex_D2Ev, .-_ZN3r2p6Mutex_D2Ev
 1093              		.weak	_ZN3r2p6Mutex_D1Ev
 1094              		.thumb_set _ZN3r2p6Mutex_D1Ev,_ZN3r2p6Mutex_D2Ev
 1095 0016 00BF     		.section	.text._ZN3r2p5MutexD2Ev,"axG",%progbits,_ZN3r2p5MutexD5Ev,comdat
 1096              		.align	2
 1097              		.weak	_ZN3r2p5MutexD2Ev
 1098              		.thumb
 1099              		.thumb_func
 1100              		.type	_ZN3r2p5MutexD2Ev, %function
 1101              	_ZN3r2p5MutexD2Ev:
 1102              	.LFB552:
 1103              		.file 16 "/opt/R2P/core/Middleware/include/r2p/Mutex.hpp"
 1104              		.loc 16 9 0
 1105              		.cfi_startproc
 1106              		@ args = 0, pretend = 0, frame = 8
 1107              		@ frame_needed = 0, uses_anonymous_args = 0
 1108 0000 00B5     		push	{lr}
 1109              		.cfi_def_cfa_offset 4
 1110              		.cfi_offset 14, -4
 1111 0002 83B0     		sub	sp, sp, #12
 1112              		.cfi_def_cfa_offset 16
 1113 0004 0190     		str	r0, [sp, #4]
 1114              	.LBB34:
 1115              		.loc 16 9 0
 1116 0006 019B     		ldr	r3, [sp, #4]
 1117 0008 0433     		adds	r3, r3, #4
 1118 000a 1846     		mov	r0, r3
 1119 000c FFF7FEFF 		bl	_ZN3r2p6Mutex_D1Ev
 1120 0010 0198     		ldr	r0, [sp, #4]
 1121 0012 FFF7FEFF 		bl	_ZN3r2p10UncopyableD2Ev
 1122              	.LBE34:
 1123 0016 019B     		ldr	r3, [sp, #4]
 1124 0018 1846     		mov	r0, r3
 1125 001a 03B0     		add	sp, sp, #12
 1126              		.cfi_def_cfa_offset 4
 1127              		@ sp needed
 1128 001c 5DF804FB 		ldr	pc, [sp], #4
 1129              		.cfi_endproc
 1130              	.LFE552:
 1131              		.size	_ZN3r2p5MutexD2Ev, .-_ZN3r2p5MutexD2Ev
 1132              		.weak	_ZN3r2p5MutexD1Ev
 1133              		.thumb_set _ZN3r2p5MutexD1Ev,_ZN3r2p5MutexD2Ev
 1134              		.section	.text._ZN3r2p10Middleware18is_bootloader_modeEv,"axG",%progbits,_ZN3r2p10Middleware18is_b
 1135              		.align	2
 1136              		.weak	_ZN3r2p10Middleware18is_bootloader_modeEv
 1137              		.thumb
ARM GAS  /tmp/ccytVDiP.s 			page 21


 1138              		.thumb_func
 1139              		.type	_ZN3r2p10Middleware18is_bootloader_modeEv, %function
 1140              	_ZN3r2p10Middleware18is_bootloader_modeEv:
 1141              	.LFB677:
 1142              		.file 17 "/opt/R2P/core/Middleware/include/r2p/Middleware.hpp"
 1143              		.loc 17 234 0
 1144              		.cfi_startproc
 1145              		@ args = 0, pretend = 0, frame = 0
 1146              		@ frame_needed = 0, uses_anonymous_args = 0
 1147              		@ link register save eliminated.
 1148              		.loc 17 236 0
 1149 0000 044B     		ldr	r3, .L73
 1150 0002 1B68     		ldr	r3, [r3]
 1151 0004 044A     		ldr	r2, .L73+4
 1152 0006 9342     		cmp	r3, r2
 1153 0008 0CBF     		ite	eq
 1154 000a 0123     		moveq	r3, #1
 1155 000c 0023     		movne	r3, #0
 1156 000e DBB2     		uxtb	r3, r3
 1157              		.loc 17 237 0
 1158 0010 1846     		mov	r0, r3
 1159 0012 7047     		bx	lr
 1160              	.L74:
 1161              		.align	2
 1162              	.L73:
 1163 0014 00000000 		.word	_ZN3r2p10Middleware15boot_mode_magicE
 1164 0018 7A07B051 		.word	1370490746
 1165              		.cfi_endproc
 1166              	.LFE677:
 1167              		.size	_ZN3r2p10Middleware18is_bootloader_modeEv, .-_ZN3r2p10Middleware18is_bootloader_modeEv
 1168              		.bss
 1169              		.align	3
 1170              	_ZL7wa_info:
 1171 0000 00000000 		.space	1424
 1171      00000000 
 1171      00000000 
 1171      00000000 
 1171      00000000 
 1172              		.align	2
 1173              	_ZL14dbgtra_namebuf:
 1174 0590 00000000 		.space	64
 1174      00000000 
 1174      00000000 
 1174      00000000 
 1174      00000000 
 1175              		.align	2
 1176              	_ZL6dbgtra:
 1177 05d0 00000000 		.space	612
 1177      00000000 
 1177      00000000 
 1177      00000000 
 1177      00000000 
 1178 0834 00000000 		.align	3
 1179              	_ZL12wa_rx_dbgtra:
 1180 0838 00000000 		.space	1424
 1180      00000000 
 1180      00000000 
ARM GAS  /tmp/ccytVDiP.s 			page 22


 1180      00000000 
 1180      00000000 
 1181              		.align	3
 1182              	_ZL12wa_tx_dbgtra:
 1183 0dc8 00000000 		.space	1424
 1183      00000000 
 1183      00000000 
 1183      00000000 
 1183      00000000 
 1184              		.global	_ZN3r2p10Middleware8instanceE
 1185              		.align	2
 1186              		.type	_ZN3r2p10Middleware8instanceE, %object
 1187              		.size	_ZN3r2p10Middleware8instanceE, 672
 1188              	_ZN3r2p10Middleware8instanceE:
 1189 1358 00000000 		.space	672
 1189      00000000 
 1189      00000000 
 1189      00000000 
 1189      00000000 
 1190              		.text
 1191              		.align	2
 1192              		.global	_Z22usb_lld_disconnect_busP9USBDriver
 1193              		.thumb
 1194              		.thumb_func
 1195              		.type	_Z22usb_lld_disconnect_busP9USBDriver, %function
 1196              	_Z22usb_lld_disconnect_busP9USBDriver:
 1197              	.LFB679:
 1198              		.file 18 "main.cpp"
 1199              		.loc 18 57 0
 1200              		.cfi_startproc
 1201              		@ args = 0, pretend = 0, frame = 8
 1202              		@ frame_needed = 0, uses_anonymous_args = 0
 1203 0000 00B5     		push	{lr}
 1204              		.cfi_def_cfa_offset 4
 1205              		.cfi_offset 14, -4
 1206 0002 83B0     		sub	sp, sp, #12
 1207              		.cfi_def_cfa_offset 16
 1208 0004 0190     		str	r0, [sp, #4]
 1209              		.loc 18 60 0
 1210 0006 4FF09043 		mov	r3, #1207959552
 1211 000a 4FF4C052 		mov	r2, #6144
 1212 000e 5A83     		strh	r2, [r3, #26]	@ movhi
 1213              		.loc 18 61 0
 1214 0010 4FF09040 		mov	r0, #1207959552
 1215 0014 4FF40061 		mov	r1, #2048
 1216 0018 0122     		movs	r2, #1
 1217 001a FFF7FEFF 		bl	_pal_lld_setgroupmode
 1218              		.loc 18 62 0
 1219 001e 4FF09040 		mov	r0, #1207959552
 1220 0022 4FF48051 		mov	r1, #4096
 1221 0026 0122     		movs	r2, #1
 1222 0028 FFF7FEFF 		bl	_pal_lld_setgroupmode
 1223              		.loc 18 63 0
 1224 002c 03B0     		add	sp, sp, #12
 1225              		.cfi_def_cfa_offset 4
 1226              		@ sp needed
 1227 002e 5DF804FB 		ldr	pc, [sp], #4
ARM GAS  /tmp/ccytVDiP.s 			page 23


 1228              		.cfi_endproc
 1229              	.LFE679:
 1230              		.size	_Z22usb_lld_disconnect_busP9USBDriver, .-_Z22usb_lld_disconnect_busP9USBDriver
 1231 0032 00BF     		.align	2
 1232              		.global	_Z19usb_lld_connect_busP9USBDriver
 1233              		.thumb
 1234              		.thumb_func
 1235              		.type	_Z19usb_lld_connect_busP9USBDriver, %function
 1236              	_Z19usb_lld_connect_busP9USBDriver:
 1237              	.LFB680:
 1238              		.loc 18 65 0
 1239              		.cfi_startproc
 1240              		@ args = 0, pretend = 0, frame = 8
 1241              		@ frame_needed = 0, uses_anonymous_args = 0
 1242 0034 00B5     		push	{lr}
 1243              		.cfi_def_cfa_offset 4
 1244              		.cfi_offset 14, -4
 1245 0036 83B0     		sub	sp, sp, #12
 1246              		.cfi_def_cfa_offset 16
 1247 0038 0190     		str	r0, [sp, #4]
 1248              		.loc 18 68 0
 1249 003a 4FF09043 		mov	r3, #1207959552
 1250 003e 4FF4C052 		mov	r2, #6144
 1251 0042 5A83     		strh	r2, [r3, #26]	@ movhi
 1252              		.loc 18 69 0
 1253 0044 4FF09040 		mov	r0, #1207959552
 1254 0048 4FF40061 		mov	r1, #2048
 1255 004c 40F20272 		movw	r2, #1794
 1256 0050 FFF7FEFF 		bl	_pal_lld_setgroupmode
 1257              		.loc 18 70 0
 1258 0054 4FF09040 		mov	r0, #1207959552
 1259 0058 4FF48051 		mov	r1, #4096
 1260 005c 40F20272 		movw	r2, #1794
 1261 0060 FFF7FEFF 		bl	_pal_lld_setgroupmode
 1262              		.loc 18 71 0
 1263 0064 03B0     		add	sp, sp, #12
 1264              		.cfi_def_cfa_offset 4
 1265              		@ sp needed
 1266 0066 5DF804FB 		ldr	pc, [sp], #4
 1267              		.cfi_endproc
 1268              	.LFE680:
 1269              		.size	_Z19usb_lld_connect_busP9USBDriver, .-_Z19usb_lld_connect_busP9USBDriver
 1270              		.section	.rodata
 1271 000d 000000   		.align	2
 1272              	.LC1:
 1273 0010 74657374 		.ascii	"test_pub\000"
 1273      5F707562 
 1273      00
 1274 0019 000000   		.align	2
 1275              	.LC2:
 1276 001c 74657374 		.ascii	"test\000"
 1276      00
 1277 0021 000000   		.align	2
 1278              	.LC3:
 1279 0024 0A0A5553 		.ascii	"\012\012USB module [0x%x 0x%x 0x%x 0x%x 0x%x 0x%x]\000"
 1279      42206D6F 
 1279      64756C65 
ARM GAS  /tmp/ccytVDiP.s 			page 24


 1279      205B3078 
 1279      25782030 
 1280              		.text
 1281 006a 00BF     		.align	2
 1282              		.global	_Z13test_pub_nodePv
 1283              		.thumb
 1284              		.thumb_func
 1285              		.type	_Z13test_pub_nodePv, %function
 1286              	_Z13test_pub_nodePv:
 1287              	.LFB681:
 1288              		.loc 18 77 0
 1289              		.cfi_startproc
 1290              		@ args = 0, pretend = 0, frame = 64
 1291              		@ frame_needed = 0, uses_anonymous_args = 0
 1292 006c 70B5     		push	{r4, r5, r6, lr}
 1293              		.cfi_def_cfa_offset 16
 1294              		.cfi_offset 4, -16
 1295              		.cfi_offset 5, -12
 1296              		.cfi_offset 6, -8
 1297              		.cfi_offset 14, -4
 1298 006e 94B0     		sub	sp, sp, #80
 1299              		.cfi_def_cfa_offset 96
 1300 0070 0590     		str	r0, [sp, #20]
 1301              	.LBB35:
 1302              		.loc 18 78 0
 1303 0072 0CAB     		add	r3, sp, #48
 1304 0074 1846     		mov	r0, r3
 1305 0076 2F49     		ldr	r1, .L81
 1306 0078 0122     		movs	r2, #1
 1307 007a FFF7FEFF 		bl	_ZN3r2p4NodeC1EPKcb
 1308              		.loc 18 79 0
 1309 007e 08AB     		add	r3, sp, #32
 1310 0080 1846     		mov	r0, r3
 1311 0082 FFF7FEFF 		bl	_ZN3r2p9PublisherINS_11String64MsgEEC1Ev
 1312              		.loc 18 81 0
 1313 0086 2C4B     		ldr	r3, .L81+4
 1314 0088 1393     		str	r3, [sp, #76]
 1315              		.loc 18 84 0
 1316 008a 2C4B     		ldr	r3, .L81+8
 1317 008c 9B69     		ldr	r3, [r3, #24]
 1318 008e 294A     		ldr	r2, .L81
 1319 0090 9A61     		str	r2, [r3, #24]
 1320              		.loc 18 86 0
 1321 0092 0CAA     		add	r2, sp, #48
 1322 0094 08AB     		add	r3, sp, #32
 1323 0096 1046     		mov	r0, r2
 1324 0098 1946     		mov	r1, r3
 1325 009a 294A     		ldr	r2, .L81+12
 1326 009c 294B     		ldr	r3, .L81+16
 1327 009e FFF7FEFF 		bl	_ZN3r2p4Node9advertiseINS_11String64MsgEEEbRNS_9PublisherIT_EEPKcRKNS_4TimeE
 1328              		.loc 18 88 0
 1329 00a2 03E0     		b	.L78
 1330              	.L79:
 1331              		.loc 18 88 0 is_stmt 0 discriminator 2
 1332 00a4 4FF47A70 		mov	r0, #1000
 1333 00a8 FFF7FEFF 		bl	chThdSleep
 1334              	.L78:
ARM GAS  /tmp/ccytVDiP.s 			page 25


 1335              		.loc 18 88 0 discriminator 1
 1336 00ac 08AA     		add	r2, sp, #32
 1337 00ae 07AB     		add	r3, sp, #28
 1338 00b0 1046     		mov	r0, r2
 1339 00b2 1946     		mov	r1, r3
 1340 00b4 FFF7FEFF 		bl	_ZN3r2p9PublisherINS_11String64MsgEE5allocERPS1_
 1341 00b8 0346     		mov	r3, r0
 1342 00ba 83F00103 		eor	r3, r3, #1
 1343 00be DBB2     		uxtb	r3, r3
 1344 00c0 002B     		cmp	r3, #0
 1345 00c2 EFD1     		bne	.L79
 1346              		.loc 18 90 0 is_stmt 1
 1347 00c4 079B     		ldr	r3, [sp, #28]
 1348 00c6 9A1C     		adds	r2, r3, #2
 1349 00c8 139B     		ldr	r3, [sp, #76]
 1350 00ca 1B88     		ldrh	r3, [r3]
 1351 00cc 1E46     		mov	r6, r3
 1352 00ce 139B     		ldr	r3, [sp, #76]
 1353 00d0 0233     		adds	r3, r3, #2
 1354 00d2 1B88     		ldrh	r3, [r3]
 1355 00d4 1D46     		mov	r5, r3
 1356 00d6 139B     		ldr	r3, [sp, #76]
 1357 00d8 0433     		adds	r3, r3, #4
 1358 00da 1B88     		ldrh	r3, [r3]
 1359 00dc 1C46     		mov	r4, r3
 1360 00de 139B     		ldr	r3, [sp, #76]
 1361 00e0 0633     		adds	r3, r3, #6
 1362 00e2 1B88     		ldrh	r3, [r3]
 1363 00e4 1846     		mov	r0, r3
 1364 00e6 139B     		ldr	r3, [sp, #76]
 1365 00e8 0833     		adds	r3, r3, #8
 1366 00ea 1B88     		ldrh	r3, [r3]
 1367 00ec 1946     		mov	r1, r3
 1368 00ee 139B     		ldr	r3, [sp, #76]
 1369 00f0 0A33     		adds	r3, r3, #10
 1370 00f2 1B88     		ldrh	r3, [r3]
 1371 00f4 0094     		str	r4, [sp]
 1372 00f6 0190     		str	r0, [sp, #4]
 1373 00f8 0291     		str	r1, [sp, #8]
 1374 00fa 0393     		str	r3, [sp, #12]
 1375 00fc 1046     		mov	r0, r2
 1376 00fe 1249     		ldr	r1, .L81+20
 1377 0100 3246     		mov	r2, r6
 1378 0102 2B46     		mov	r3, r5
 1379 0104 FFF7FEFF 		bl	sprintf
 1380              		.loc 18 91 0
 1381 0108 079B     		ldr	r3, [sp, #28]
 1382 010a 08AA     		add	r2, sp, #32
 1383 010c 1046     		mov	r0, r2
 1384 010e 1946     		mov	r1, r3
 1385 0110 FFF7FEFF 		bl	_ZN3r2p9PublisherINS_11String64MsgEE7publishEPS1_
 1386              		.loc 18 92 0
 1387 0114 6420     		movs	r0, #100
 1388 0116 FFF7FEFF 		bl	chThdSleep
 1389              		.loc 18 94 0
 1390 011a 0024     		movs	r4, #0
 1391              		.loc 18 79 0
ARM GAS  /tmp/ccytVDiP.s 			page 26


 1392 011c 08AB     		add	r3, sp, #32
 1393 011e 1846     		mov	r0, r3
 1394 0120 FFF7FEFF 		bl	_ZN3r2p9PublisherINS_11String64MsgEED1Ev
 1395              		.loc 18 94 0
 1396 0124 0CAB     		add	r3, sp, #48
 1397 0126 1846     		mov	r0, r3
 1398 0128 FFF7FEFF 		bl	_ZN3r2p4NodeD1Ev
 1399 012c 2346     		mov	r3, r4
 1400              	.LBE35:
 1401              		.loc 18 95 0
 1402 012e 1846     		mov	r0, r3
 1403 0130 14B0     		add	sp, sp, #80
 1404              		.cfi_def_cfa_offset 16
 1405              		@ sp needed
 1406 0132 70BD     		pop	{r4, r5, r6, pc}
 1407              	.L82:
 1408              		.align	2
 1409              	.L81:
 1410 0134 10000000 		.word	.LC1
 1411 0138 ACF7FF1F 		.word	536868780
 1412 013c 00000000 		.word	rlist
 1413 0140 1C000000 		.word	.LC2
 1414 0144 00000000 		.word	_ZN3r2p4Time8INFINITEE
 1415 0148 24000000 		.word	.LC3
 1416              		.cfi_endproc
 1417              	.LFE681:
 1418              		.size	_Z13test_pub_nodePv, .-_Z13test_pub_nodePv
 1419              		.section	.rodata
 1420 0051 000000   		.align	2
 1421              	.LC4:
 1422 0054 6C656400 		.ascii	"led\000"
 1423              		.text
 1424              		.align	2
 1425              		.global	main
 1426              		.thumb
 1427              		.thumb_func
 1428              		.type	main, %function
 1429              	main:
 1430              	.LFB682:
 1431              		.loc 18 102 0
 1432              		.cfi_startproc
 1433              		@ args = 0, pretend = 0, frame = 24
 1434              		@ frame_needed = 0, uses_anonymous_args = 0
 1435 014c 00B5     		push	{lr}
 1436              		.cfi_def_cfa_offset 4
 1437              		.cfi_offset 14, -4
 1438 014e 8BB0     		sub	sp, sp, #44
 1439              		.cfi_def_cfa_offset 48
 1440              	.LBB36:
 1441              		.loc 18 104 0
 1442 0150 FFF7FEFF 		bl	halInit
 1443              		.loc 18 105 0
 1444 0154 FFF7FEFF 		bl	chSysInit
 1445              		.loc 18 107 0
 1446 0158 4C4B     		ldr	r3, .L89
 1447 015a 4FF40052 		mov	r2, #8192
 1448 015e 5A83     		strh	r2, [r3, #26]	@ movhi
ARM GAS  /tmp/ccytVDiP.s 			page 27


 1449              		.loc 18 108 0
 1450 0160 4FF4FA70 		mov	r0, #500
 1451 0164 FFF7FEFF 		bl	chThdSleep
 1452              		.loc 18 109 0
 1453 0168 484B     		ldr	r3, .L89
 1454 016a 4FF40052 		mov	r2, #8192
 1455 016e 1A83     		strh	r2, [r3, #24]	@ movhi
 1456              		.loc 18 111 0
 1457 0170 0023     		movs	r3, #0
 1458 0172 0993     		str	r3, [sp, #36]
 1459              	.LBB37:
 1460              		.loc 18 112 0
 1461 0174 FFF7FEFF 		bl	_ZN3r2p10Middleware18is_bootloader_modeEv
 1462 0178 0346     		mov	r3, r0
 1463 017a 002B     		cmp	r3, #0
 1464 017c 15D0     		beq	.L84
 1465              	.LBB38:
 1466              		.loc 18 113 0
 1467 017e 4FF48163 		mov	r3, #1032
 1468 0182 1846     		mov	r0, r3
 1469 0184 FFF7FEFF 		bl	_Znaj
 1470 0188 0890     		str	r0, [sp, #32]
 1471              		.loc 18 114 0
 1472 018a 089B     		ldr	r3, [sp, #32]
 1473 018c 002B     		cmp	r3, #0
 1474 018e 02D1     		bne	.L85
 1475              		.loc 18 114 0 is_stmt 0 discriminator 1
 1476 0190 3F48     		ldr	r0, .L89+4
 1477 0192 FFF7FEFF 		bl	chDbgPanic
 1478              	.L85:
 1479              		.loc 18 115 0 is_stmt 1
 1480 0196 089B     		ldr	r3, [sp, #32]
 1481 0198 C3F10803 		rsb	r3, r3, #8
 1482 019c 03F00703 		and	r3, r3, #7
 1483 01a0 089A     		ldr	r2, [sp, #32]
 1484 01a2 1344     		add	r3, r3, r2
 1485 01a4 0893     		str	r3, [sp, #32]
 1486              		.loc 18 116 0
 1487 01a6 089B     		ldr	r3, [sp, #32]
 1488 01a8 0993     		str	r3, [sp, #36]
 1489              	.L84:
 1490              	.LBE38:
 1491              	.LBE37:
 1492              		.loc 18 120 0
 1493 01aa 099B     		ldr	r3, [sp, #36]
 1494 01ac 0093     		str	r3, [sp]
 1495 01ae 4FF48063 		mov	r3, #1024
 1496 01b2 0193     		str	r3, [sp, #4]
 1497 01b4 0223     		movs	r3, #2
 1498 01b6 0293     		str	r3, [sp, #8]
 1499 01b8 3648     		ldr	r0, .L89+8
 1500 01ba 3749     		ldr	r1, .L89+12
 1501 01bc 4FF4B262 		mov	r2, #1424
 1502 01c0 0223     		movs	r3, #2
 1503 01c2 FFF7FEFF 		bl	_ZN3r2p10Middleware10initializeEPvjmS1_jm
 1504              		.loc 18 126 0
 1505 01c6 3548     		ldr	r0, .L89+16
ARM GAS  /tmp/ccytVDiP.s 			page 28


 1506 01c8 FFF7FEFF 		bl	sduObjectInit
 1507              		.loc 18 127 0
 1508 01cc 3348     		ldr	r0, .L89+16
 1509 01ce 3449     		ldr	r1, .L89+20
 1510 01d0 FFF7FEFF 		bl	sduStart
 1511              		.loc 18 129 0
 1512 01d4 324B     		ldr	r3, .L89+20
 1513 01d6 1B68     		ldr	r3, [r3]
 1514 01d8 1846     		mov	r0, r3
 1515 01da FFF7FEFF 		bl	_Z22usb_lld_disconnect_busP9USBDriver
 1516              		.loc 18 130 0
 1517 01de 4FF47A70 		mov	r0, #1000
 1518 01e2 FFF7FEFF 		bl	chThdSleep
 1519              		.loc 18 131 0
 1520 01e6 2E4B     		ldr	r3, .L89+20
 1521 01e8 1B68     		ldr	r3, [r3]
 1522 01ea 1846     		mov	r0, r3
 1523 01ec 2D49     		ldr	r1, .L89+24
 1524 01ee FFF7FEFF 		bl	usbStart
 1525              		.loc 18 132 0
 1526 01f2 2B4B     		ldr	r3, .L89+20
 1527 01f4 1B68     		ldr	r3, [r3]
 1528 01f6 1846     		mov	r0, r3
 1529 01f8 FFF7FEFF 		bl	_Z19usb_lld_connect_busP9USBDriver
 1530              		.loc 18 134 0
 1531 01fc 2A48     		ldr	r0, .L89+28
 1532 01fe 0021     		movs	r1, #0
 1533 0200 FFF7FEFF 		bl	sdStart
 1534              		.loc 18 137 0
 1535 0204 294B     		ldr	r3, .L89+32
 1536 0206 0093     		str	r3, [sp]
 1537 0208 4FF4B263 		mov	r3, #1424
 1538 020c 0193     		str	r3, [sp, #4]
 1539 020e 0C23     		movs	r3, #12
 1540 0210 0293     		str	r3, [sp, #8]
 1541 0212 2748     		ldr	r0, .L89+36
 1542 0214 2749     		ldr	r1, .L89+40
 1543 0216 4FF4B262 		mov	r2, #1424
 1544 021a 0D23     		movs	r3, #13
 1545 021c FFF7FEFF 		bl	_ZN3r2p14DebugTransport10initializeEPvjmS1_jm
 1546              		.loc 18 144 0
 1547 0220 1C48     		ldr	r0, .L89+8
 1548 0222 FFF7FEFF 		bl	_ZN3r2p10Middleware5startEv
 1549              		.loc 18 146 0
 1550 0226 244B     		ldr	r3, .L89+44
 1551 0228 0593     		str	r3, [sp, #20]
 1552              		.loc 18 147 0
 1553 022a 7023     		movs	r3, #112
 1554 022c 2033     		adds	r3, r3, #32
 1555 022e 03F2FF23 		addw	r3, r3, #767
 1556 0232 0722     		movs	r2, #7
 1557 0234 1343     		orrs	r3, r3, r2
 1558 0236 5A1C     		adds	r2, r3, #1
 1559 0238 05AB     		add	r3, sp, #20
 1560 023a 0093     		str	r3, [sp]
 1561 023c 0023     		movs	r3, #0
 1562 023e 0193     		str	r3, [sp, #4]
ARM GAS  /tmp/ccytVDiP.s 			page 29


 1563 0240 0020     		movs	r0, #0
 1564 0242 1146     		mov	r1, r2
 1565 0244 4022     		movs	r2, #64
 1566 0246 1D4B     		ldr	r3, .L89+48
 1567 0248 FFF7FEFF 		bl	_ZN3r2p6Thread11create_heapEPvjmPFlS1_ES1_PKc
 1568              	.L88:
 1569              		.loc 18 150 0
 1570 024c 0F4A     		ldr	r2, .L89
 1571 024e 0F4B     		ldr	r3, .L89
 1572 0250 5B69     		ldr	r3, [r3, #20]
 1573 0252 83F40053 		eor	r3, r3, #8192
 1574 0256 5361     		str	r3, [r2, #20]
 1575              		.loc 18 151 0
 1576 0258 FFF7FEFF 		bl	_ZN3r2p10Middleware18is_bootloader_modeEv
 1577 025c 0346     		mov	r3, r0
 1578 025e 002B     		cmp	r3, #0
 1579 0260 09D0     		beq	.L86
 1580              		.loc 18 152 0
 1581 0262 06AB     		add	r3, sp, #24
 1582 0264 1846     		mov	r0, r3
 1583 0266 6421     		movs	r1, #100
 1584 0268 FFF7FEFF 		bl	_ZN3r2p4Time2msEl
 1585 026c 06AB     		add	r3, sp, #24
 1586 026e 1846     		mov	r0, r3
 1587 0270 FFF7FEFF 		bl	_ZN3r2p6Thread5sleepERKNS_4TimeE
 1588 0274 09E0     		b	.L87
 1589              	.L86:
 1590              		.loc 18 155 0
 1591 0276 07AB     		add	r3, sp, #28
 1592 0278 1846     		mov	r0, r3
 1593 027a 4FF4FA71 		mov	r1, #500
 1594 027e FFF7FEFF 		bl	_ZN3r2p4Time2msEl
 1595 0282 07AB     		add	r3, sp, #28
 1596 0284 1846     		mov	r0, r3
 1597 0286 FFF7FEFF 		bl	_ZN3r2p6Thread5sleepERKNS_4TimeE
 1598              	.L87:
 1599              		.loc 18 159 0
 1600 028a DFE7     		b	.L88
 1601              	.L90:
 1602              		.align	2
 1603              	.L89:
 1604 028c 00080048 		.word	1207961600
 1605 0290 00000000 		.word	.LC0
 1606 0294 00000000 		.word	_ZN3r2p10Middleware8instanceE
 1607 0298 00000000 		.word	_ZL7wa_info
 1608 029c 00000000 		.word	SDU1
 1609 02a0 00000000 		.word	serusbcfg
 1610 02a4 00000000 		.word	usbcfg
 1611 02a8 00000000 		.word	SD3
 1612 02ac C80D0000 		.word	_ZL12wa_tx_dbgtra
 1613 02b0 D0050000 		.word	_ZL6dbgtra
 1614 02b4 38080000 		.word	_ZL12wa_rx_dbgtra
 1615 02b8 54000000 		.word	.LC4
 1616 02bc 00000000 		.word	_ZN3r2p11ledsub_nodeEPv
 1617              	.LBE36:
 1618              		.cfi_endproc
 1619              	.LFE682:
ARM GAS  /tmp/ccytVDiP.s 			page 30


 1620              		.size	main, .-main
 1621              		.section	.text._ZN3r2p4TimeC2IlEET_,"axG",%progbits,_ZN3r2p4TimeC5IlEET_,comdat
 1622              		.align	2
 1623              		.weak	_ZN3r2p4TimeC2IlEET_
 1624              		.thumb
 1625              		.thumb_func
 1626              		.type	_ZN3r2p4TimeC2IlEET_, %function
 1627              	_ZN3r2p4TimeC2IlEET_:
 1628              	.LFB684:
 1629              		.loc 5 159 0
 1630              		.cfi_startproc
 1631              		@ args = 0, pretend = 0, frame = 8
 1632              		@ frame_needed = 0, uses_anonymous_args = 0
 1633              		@ link register save eliminated.
 1634 0000 82B0     		sub	sp, sp, #8
 1635              		.cfi_def_cfa_offset 8
 1636 0002 0190     		str	r0, [sp, #4]
 1637 0004 0091     		str	r1, [sp]
 1638              	.LBB39:
 1639              		.loc 5 161 0
 1640 0006 019B     		ldr	r3, [sp, #4]
 1641 0008 009A     		ldr	r2, [sp]
 1642 000a 1A60     		str	r2, [r3]
 1643              	.LBE39:
 1644              		.loc 5 162 0
 1645 000c 019B     		ldr	r3, [sp, #4]
 1646 000e 1846     		mov	r0, r3
 1647 0010 02B0     		add	sp, sp, #8
 1648              		.cfi_def_cfa_offset 0
 1649              		@ sp needed
 1650 0012 7047     		bx	lr
 1651              		.cfi_endproc
 1652              	.LFE684:
 1653              		.size	_ZN3r2p4TimeC2IlEET_, .-_ZN3r2p4TimeC2IlEET_
 1654              		.weak	_ZN3r2p4TimeC1IlEET_
 1655              		.thumb_set _ZN3r2p4TimeC1IlEET_,_ZN3r2p4TimeC2IlEET_
 1656              		.section	.text._ZNK3r2p10ArrayQueueIPNS_7MessageEE10get_lengthEv,"axG",%progbits,_ZNK3r2p10ArrayQu
 1657              		.align	2
 1658              		.weak	_ZNK3r2p10ArrayQueueIPNS_7MessageEE10get_lengthEv
 1659              		.thumb
 1660              		.thumb_func
 1661              		.type	_ZNK3r2p10ArrayQueueIPNS_7MessageEE10get_lengthEv, %function
 1662              	_ZNK3r2p10ArrayQueueIPNS_7MessageEE10get_lengthEv:
 1663              	.LFB692:
 1664              		.file 19 "/opt/R2P/core/Middleware/include/r2p/ArrayQueue.hpp"
 1665              		.loc 19 81 0
 1666              		.cfi_startproc
 1667              		@ args = 0, pretend = 0, frame = 8
 1668              		@ frame_needed = 0, uses_anonymous_args = 0
 1669              		@ link register save eliminated.
 1670 0000 82B0     		sub	sp, sp, #8
 1671              		.cfi_def_cfa_offset 8
 1672 0002 0190     		str	r0, [sp, #4]
 1673              		.loc 19 83 0
 1674 0004 019B     		ldr	r3, [sp, #4]
 1675 0006 5B68     		ldr	r3, [r3, #4]
 1676              		.loc 19 84 0
ARM GAS  /tmp/ccytVDiP.s 			page 31


 1677 0008 1846     		mov	r0, r3
 1678 000a 02B0     		add	sp, sp, #8
 1679              		.cfi_def_cfa_offset 0
 1680              		@ sp needed
 1681 000c 7047     		bx	lr
 1682              		.cfi_endproc
 1683              	.LFE692:
 1684              		.size	_ZNK3r2p10ArrayQueueIPNS_7MessageEE10get_lengthEv, .-_ZNK3r2p10ArrayQueueIPNS_7MessageEE10ge
 1685 000e 00BF     		.section	.text._ZN3r2p10ArrayQueueIPNS_7MessageEE12fetch_unsafeERS2_,"axG",%progbits,_ZN3r2p10Arra
 1686              		.align	2
 1687              		.weak	_ZN3r2p10ArrayQueueIPNS_7MessageEE12fetch_unsafeERS2_
 1688              		.thumb
 1689              		.thumb_func
 1690              		.type	_ZN3r2p10ArrayQueueIPNS_7MessageEE12fetch_unsafeERS2_, %function
 1691              	_ZN3r2p10ArrayQueueIPNS_7MessageEE12fetch_unsafeERS2_:
 1692              	.LFB693:
 1693              		.loc 19 52 0
 1694              		.cfi_startproc
 1695              		@ args = 0, pretend = 0, frame = 8
 1696              		@ frame_needed = 0, uses_anonymous_args = 0
 1697              		@ link register save eliminated.
 1698 0000 82B0     		sub	sp, sp, #8
 1699              		.cfi_def_cfa_offset 8
 1700 0002 0190     		str	r0, [sp, #4]
 1701 0004 0091     		str	r1, [sp]
 1702              		.loc 19 54 0
 1703 0006 019B     		ldr	r3, [sp, #4]
 1704 0008 9B68     		ldr	r3, [r3, #8]
 1705 000a 002B     		cmp	r3, #0
 1706 000c 23D0     		beq	.L97
 1707              		.loc 19 55 0
 1708 000e 019B     		ldr	r3, [sp, #4]
 1709 0010 9B68     		ldr	r3, [r3, #8]
 1710 0012 5A1E     		subs	r2, r3, #1
 1711 0014 019B     		ldr	r3, [sp, #4]
 1712 0016 9A60     		str	r2, [r3, #8]
 1713              		.loc 19 56 0
 1714 0018 019B     		ldr	r3, [sp, #4]
 1715 001a DB68     		ldr	r3, [r3, #12]
 1716 001c 1A68     		ldr	r2, [r3]
 1717 001e 009B     		ldr	r3, [sp]
 1718 0020 1A60     		str	r2, [r3]
 1719              		.loc 19 57 0
 1720 0022 019B     		ldr	r3, [sp, #4]
 1721 0024 DB68     		ldr	r3, [r3, #12]
 1722 0026 1A1D     		adds	r2, r3, #4
 1723 0028 019B     		ldr	r3, [sp, #4]
 1724 002a DA60     		str	r2, [r3, #12]
 1725 002c 019B     		ldr	r3, [sp, #4]
 1726 002e DA68     		ldr	r2, [r3, #12]
 1727 0030 019B     		ldr	r3, [sp, #4]
 1728 0032 1968     		ldr	r1, [r3]
 1729 0034 019B     		ldr	r3, [sp, #4]
 1730 0036 5B68     		ldr	r3, [r3, #4]
 1731 0038 9B00     		lsls	r3, r3, #2
 1732 003a 0B44     		add	r3, r3, r1
 1733 003c 9A42     		cmp	r2, r3
ARM GAS  /tmp/ccytVDiP.s 			page 32


 1734 003e 2CBF     		ite	cs
 1735 0040 0123     		movcs	r3, #1
 1736 0042 0023     		movcc	r3, #0
 1737 0044 DBB2     		uxtb	r3, r3
 1738 0046 002B     		cmp	r3, #0
 1739 0048 03D0     		beq	.L98
 1740              		.loc 19 58 0
 1741 004a 019B     		ldr	r3, [sp, #4]
 1742 004c 1A68     		ldr	r2, [r3]
 1743 004e 019B     		ldr	r3, [sp, #4]
 1744 0050 DA60     		str	r2, [r3, #12]
 1745              	.L98:
 1746              		.loc 19 60 0
 1747 0052 0123     		movs	r3, #1
 1748 0054 00E0     		b	.L99
 1749              	.L97:
 1750              		.loc 19 62 0
 1751 0056 0023     		movs	r3, #0
 1752              	.L99:
 1753              		.loc 19 63 0
 1754 0058 1846     		mov	r0, r3
 1755 005a 02B0     		add	sp, sp, #8
 1756              		.cfi_def_cfa_offset 0
 1757              		@ sp needed
 1758 005c 7047     		bx	lr
 1759              		.cfi_endproc
 1760              	.LFE693:
 1761              		.size	_ZN3r2p10ArrayQueueIPNS_7MessageEE12fetch_unsafeERS2_, .-_ZN3r2p10ArrayQueueIPNS_7MessageEE1
 1762 005e 00BF     		.section	.text._ZN3r2p10ArrayQueueIPNS_7MessageEE11post_unsafeES2_,"axG",%progbits,_ZN3r2p10ArrayQ
 1763              		.align	2
 1764              		.weak	_ZN3r2p10ArrayQueueIPNS_7MessageEE11post_unsafeES2_
 1765              		.thumb
 1766              		.thumb_func
 1767              		.type	_ZN3r2p10ArrayQueueIPNS_7MessageEE11post_unsafeES2_, %function
 1768              	_ZN3r2p10ArrayQueueIPNS_7MessageEE11post_unsafeES2_:
 1769              	.LFB694:
 1770              		.loc 19 37 0
 1771              		.cfi_startproc
 1772              		@ args = 0, pretend = 0, frame = 8
 1773              		@ frame_needed = 0, uses_anonymous_args = 0
 1774              		@ link register save eliminated.
 1775 0000 82B0     		sub	sp, sp, #8
 1776              		.cfi_def_cfa_offset 8
 1777 0002 0190     		str	r0, [sp, #4]
 1778 0004 0091     		str	r1, [sp]
 1779              		.loc 19 39 0
 1780 0006 019B     		ldr	r3, [sp, #4]
 1781 0008 9A68     		ldr	r2, [r3, #8]
 1782 000a 019B     		ldr	r3, [sp, #4]
 1783 000c 5B68     		ldr	r3, [r3, #4]
 1784 000e 9A42     		cmp	r2, r3
 1785 0010 22D2     		bcs	.L101
 1786              		.loc 19 40 0
 1787 0012 019B     		ldr	r3, [sp, #4]
 1788 0014 9B68     		ldr	r3, [r3, #8]
 1789 0016 5A1C     		adds	r2, r3, #1
 1790 0018 019B     		ldr	r3, [sp, #4]
ARM GAS  /tmp/ccytVDiP.s 			page 33


 1791 001a 9A60     		str	r2, [r3, #8]
 1792              		.loc 19 41 0
 1793 001c 019B     		ldr	r3, [sp, #4]
 1794 001e 1B69     		ldr	r3, [r3, #16]
 1795 0020 009A     		ldr	r2, [sp]
 1796 0022 1A60     		str	r2, [r3]
 1797              		.loc 19 42 0
 1798 0024 019B     		ldr	r3, [sp, #4]
 1799 0026 1B69     		ldr	r3, [r3, #16]
 1800 0028 1A1D     		adds	r2, r3, #4
 1801 002a 019B     		ldr	r3, [sp, #4]
 1802 002c 1A61     		str	r2, [r3, #16]
 1803 002e 019B     		ldr	r3, [sp, #4]
 1804 0030 1A69     		ldr	r2, [r3, #16]
 1805 0032 019B     		ldr	r3, [sp, #4]
 1806 0034 1968     		ldr	r1, [r3]
 1807 0036 019B     		ldr	r3, [sp, #4]
 1808 0038 5B68     		ldr	r3, [r3, #4]
 1809 003a 9B00     		lsls	r3, r3, #2
 1810 003c 0B44     		add	r3, r3, r1
 1811 003e 9A42     		cmp	r2, r3
 1812 0040 2CBF     		ite	cs
 1813 0042 0123     		movcs	r3, #1
 1814 0044 0023     		movcc	r3, #0
 1815 0046 DBB2     		uxtb	r3, r3
 1816 0048 002B     		cmp	r3, #0
 1817 004a 03D0     		beq	.L102
 1818              		.loc 19 43 0
 1819 004c 019B     		ldr	r3, [sp, #4]
 1820 004e 1A68     		ldr	r2, [r3]
 1821 0050 019B     		ldr	r3, [sp, #4]
 1822 0052 1A61     		str	r2, [r3, #16]
 1823              	.L102:
 1824              		.loc 19 45 0
 1825 0054 0123     		movs	r3, #1
 1826 0056 00E0     		b	.L103
 1827              	.L101:
 1828              		.loc 19 47 0
 1829 0058 0023     		movs	r3, #0
 1830              	.L103:
 1831              		.loc 19 48 0
 1832 005a 1846     		mov	r0, r3
 1833 005c 02B0     		add	sp, sp, #8
 1834              		.cfi_def_cfa_offset 0
 1835              		@ sp needed
 1836 005e 7047     		bx	lr
 1837              		.cfi_endproc
 1838              	.LFE694:
 1839              		.size	_ZN3r2p10ArrayQueueIPNS_7MessageEE11post_unsafeES2_, .-_ZN3r2p10ArrayQueueIPNS_7MessageEE11p
 1840              		.section	.text._ZN3r2p9PublisherINS_11String64MsgEEC2Ev,"axG",%progbits,_ZN3r2p9PublisherINS_11Str
 1841              		.align	2
 1842              		.weak	_ZN3r2p9PublisherINS_11String64MsgEEC2Ev
 1843              		.thumb
 1844              		.thumb_func
 1845              		.type	_ZN3r2p9PublisherINS_11String64MsgEEC2Ev, %function
 1846              	_ZN3r2p9PublisherINS_11String64MsgEEC2Ev:
 1847              	.LFB706:
ARM GAS  /tmp/ccytVDiP.s 			page 34


 1848              		.file 20 "/opt/R2P/core/Middleware/include/r2p/Publisher.hpp"
 1849              		.loc 20 47 0
 1850              		.cfi_startproc
 1851              		@ args = 0, pretend = 0, frame = 8
 1852              		@ frame_needed = 0, uses_anonymous_args = 0
 1853 0000 00B5     		push	{lr}
 1854              		.cfi_def_cfa_offset 4
 1855              		.cfi_offset 14, -4
 1856 0002 83B0     		sub	sp, sp, #12
 1857              		.cfi_def_cfa_offset 16
 1858 0004 0190     		str	r0, [sp, #4]
 1859              	.LBB40:
 1860              		.loc 20 47 0
 1861 0006 019B     		ldr	r3, [sp, #4]
 1862 0008 1846     		mov	r0, r3
 1863 000a FFF7FEFF 		bl	_ZN3r2p14LocalPublisherC2Ev
 1864 000e 019B     		ldr	r3, [sp, #4]
 1865 0010 034A     		ldr	r2, .L107
 1866 0012 1A60     		str	r2, [r3]
 1867              	.LBE40:
 1868              		.loc 20 50 0
 1869 0014 019B     		ldr	r3, [sp, #4]
 1870 0016 1846     		mov	r0, r3
 1871 0018 03B0     		add	sp, sp, #12
 1872              		.cfi_def_cfa_offset 4
 1873              		@ sp needed
 1874 001a 5DF804FB 		ldr	pc, [sp], #4
 1875              	.L108:
 1876 001e 00BF     		.align	2
 1877              	.L107:
 1878 0020 08000000 		.word	_ZTVN3r2p9PublisherINS_11String64MsgEEE+8
 1879              		.cfi_endproc
 1880              	.LFE706:
 1881              		.size	_ZN3r2p9PublisherINS_11String64MsgEEC2Ev, .-_ZN3r2p9PublisherINS_11String64MsgEEC2Ev
 1882              		.weak	_ZN3r2p9PublisherINS_11String64MsgEEC1Ev
 1883              		.thumb_set _ZN3r2p9PublisherINS_11String64MsgEEC1Ev,_ZN3r2p9PublisherINS_11String64MsgEEC2Ev
 1884              		.section	.text._ZN3r2p9PublisherINS_11String64MsgEED2Ev,"axG",%progbits,_ZN3r2p9PublisherINS_11Str
 1885              		.align	2
 1886              		.weak	_ZN3r2p9PublisherINS_11String64MsgEED2Ev
 1887              		.thumb
 1888              		.thumb_func
 1889              		.type	_ZN3r2p9PublisherINS_11String64MsgEED2Ev, %function
 1890              	_ZN3r2p9PublisherINS_11String64MsgEED2Ev:
 1891              	.LFB709:
 1892              		.loc 20 54 0
 1893              		.cfi_startproc
 1894              		@ args = 0, pretend = 0, frame = 8
 1895              		@ frame_needed = 0, uses_anonymous_args = 0
 1896 0000 00B5     		push	{lr}
 1897              		.cfi_def_cfa_offset 4
 1898              		.cfi_offset 14, -4
 1899 0002 83B0     		sub	sp, sp, #12
 1900              		.cfi_def_cfa_offset 16
 1901 0004 0190     		str	r0, [sp, #4]
 1902              	.LBB41:
 1903              		.loc 20 57 0
 1904 0006 019B     		ldr	r3, [sp, #4]
ARM GAS  /tmp/ccytVDiP.s 			page 35


 1905 0008 084A     		ldr	r2, .L113
 1906 000a 1A60     		str	r2, [r3]
 1907 000c 019B     		ldr	r3, [sp, #4]
 1908 000e 1846     		mov	r0, r3
 1909 0010 FFF7FEFF 		bl	_ZN3r2p14LocalPublisherD2Ev
 1910              	.LBE41:
 1911 0014 0023     		movs	r3, #0
 1912 0016 002B     		cmp	r3, #0
 1913 0018 02D0     		beq	.L111
 1914              		.loc 20 57 0 is_stmt 0 discriminator 2
 1915 001a 0198     		ldr	r0, [sp, #4]
 1916 001c FFF7FEFF 		bl	_ZdlPv
 1917              	.L111:
 1918              		.loc 20 57 0 discriminator 4
 1919 0020 019B     		ldr	r3, [sp, #4]
 1920 0022 1846     		mov	r0, r3
 1921 0024 03B0     		add	sp, sp, #12
 1922              		.cfi_def_cfa_offset 4
 1923              		@ sp needed
 1924 0026 5DF804FB 		ldr	pc, [sp], #4
 1925              	.L114:
 1926 002a 00BF     		.align	2
 1927              	.L113:
 1928 002c 08000000 		.word	_ZTVN3r2p9PublisherINS_11String64MsgEEE+8
 1929              		.cfi_endproc
 1930              	.LFE709:
 1931              		.size	_ZN3r2p9PublisherINS_11String64MsgEED2Ev, .-_ZN3r2p9PublisherINS_11String64MsgEED2Ev
 1932              		.weak	_ZN3r2p9PublisherINS_11String64MsgEED1Ev
 1933              		.thumb_set _ZN3r2p9PublisherINS_11String64MsgEED1Ev,_ZN3r2p9PublisherINS_11String64MsgEED2Ev
 1934              		.section	.text._ZN3r2p9PublisherINS_11String64MsgEED0Ev,"axG",%progbits,_ZN3r2p9PublisherINS_11Str
 1935              		.align	2
 1936              		.weak	_ZN3r2p9PublisherINS_11String64MsgEED0Ev
 1937              		.thumb
 1938              		.thumb_func
 1939              		.type	_ZN3r2p9PublisherINS_11String64MsgEED0Ev, %function
 1940              	_ZN3r2p9PublisherINS_11String64MsgEED0Ev:
 1941              	.LFB711:
 1942              		.loc 20 54 0 is_stmt 1
 1943              		.cfi_startproc
 1944              		@ args = 0, pretend = 0, frame = 8
 1945              		@ frame_needed = 0, uses_anonymous_args = 0
 1946 0000 00B5     		push	{lr}
 1947              		.cfi_def_cfa_offset 4
 1948              		.cfi_offset 14, -4
 1949 0002 83B0     		sub	sp, sp, #12
 1950              		.cfi_def_cfa_offset 16
 1951 0004 0190     		str	r0, [sp, #4]
 1952              		.loc 20 57 0
 1953 0006 0198     		ldr	r0, [sp, #4]
 1954 0008 FFF7FEFF 		bl	_ZN3r2p9PublisherINS_11String64MsgEED1Ev
 1955 000c 0198     		ldr	r0, [sp, #4]
 1956 000e FFF7FEFF 		bl	_ZdlPv
 1957 0012 019B     		ldr	r3, [sp, #4]
 1958 0014 1846     		mov	r0, r3
 1959 0016 03B0     		add	sp, sp, #12
 1960              		.cfi_def_cfa_offset 4
 1961              		@ sp needed
ARM GAS  /tmp/ccytVDiP.s 			page 36


 1962 0018 5DF804FB 		ldr	pc, [sp], #4
 1963              		.cfi_endproc
 1964              	.LFE711:
 1965              		.size	_ZN3r2p9PublisherINS_11String64MsgEED0Ev, .-_ZN3r2p9PublisherINS_11String64MsgEED0Ev
 1966              		.section	.text._ZN3r2p4Node9advertiseINS_11String64MsgEEEbRNS_9PublisherIT_EEPKcRKNS_4TimeE,"axG",
 1967              		.align	2
 1968              		.weak	_ZN3r2p4Node9advertiseINS_11String64MsgEEEbRNS_9PublisherIT_EEPKcRKNS_4TimeE
 1969              		.thumb
 1970              		.thumb_func
 1971              		.type	_ZN3r2p4Node9advertiseINS_11String64MsgEEEbRNS_9PublisherIT_EEPKcRKNS_4TimeE, %function
 1972              	_ZN3r2p4Node9advertiseINS_11String64MsgEEEbRNS_9PublisherIT_EEPKcRKNS_4TimeE:
 1973              	.LFB712:
 1974              		.loc 12 117 0
 1975              		.cfi_startproc
 1976              		@ args = 0, pretend = 0, frame = 16
 1977              		@ frame_needed = 0, uses_anonymous_args = 0
 1978 0000 00B5     		push	{lr}
 1979              		.cfi_def_cfa_offset 4
 1980              		.cfi_offset 14, -4
 1981 0002 87B0     		sub	sp, sp, #28
 1982              		.cfi_def_cfa_offset 32
 1983 0004 0590     		str	r0, [sp, #20]
 1984 0006 0491     		str	r1, [sp, #16]
 1985 0008 0392     		str	r2, [sp, #12]
 1986 000a 0293     		str	r3, [sp, #8]
 1987              		.loc 12 120 0
 1988 000c 049A     		ldr	r2, [sp, #16]
 1989 000e 4223     		movs	r3, #66
 1990 0010 0093     		str	r3, [sp]
 1991 0012 0598     		ldr	r0, [sp, #20]
 1992 0014 1146     		mov	r1, r2
 1993 0016 039A     		ldr	r2, [sp, #12]
 1994 0018 029B     		ldr	r3, [sp, #8]
 1995 001a FFF7FEFF 		bl	_ZN3r2p4Node9advertiseERNS_14LocalPublisherEPKcRKNS_4TimeEj
 1996 001e 0346     		mov	r3, r0
 1997              		.loc 12 121 0
 1998 0020 1846     		mov	r0, r3
 1999 0022 07B0     		add	sp, sp, #28
 2000              		.cfi_def_cfa_offset 4
 2001              		@ sp needed
 2002 0024 5DF804FB 		ldr	pc, [sp], #4
 2003              		.cfi_endproc
 2004              	.LFE712:
 2005              		.size	_ZN3r2p4Node9advertiseINS_11String64MsgEEEbRNS_9PublisherIT_EEPKcRKNS_4TimeE, .-_ZN3r2p4Node
 2006              		.section	.text._ZN3r2p9PublisherINS_11String64MsgEE5allocERPS1_,"axG",%progbits,_ZN3r2p9PublisherI
 2007              		.align	2
 2008              		.weak	_ZN3r2p9PublisherINS_11String64MsgEE5allocERPS1_
 2009              		.thumb
 2010              		.thumb_func
 2011              		.type	_ZN3r2p9PublisherINS_11String64MsgEE5allocERPS1_, %function
 2012              	_ZN3r2p9PublisherINS_11String64MsgEE5allocERPS1_:
 2013              	.LFB713:
 2014              		.loc 20 25 0
 2015              		.cfi_startproc
 2016              		@ args = 0, pretend = 0, frame = 8
 2017              		@ frame_needed = 0, uses_anonymous_args = 0
 2018 0000 00B5     		push	{lr}
ARM GAS  /tmp/ccytVDiP.s 			page 37


 2019              		.cfi_def_cfa_offset 4
 2020              		.cfi_offset 14, -4
 2021 0002 83B0     		sub	sp, sp, #12
 2022              		.cfi_def_cfa_offset 16
 2023 0004 0190     		str	r0, [sp, #4]
 2024 0006 0091     		str	r1, [sp]
 2025              		.loc 20 28 0
 2026 0008 019B     		ldr	r3, [sp, #4]
 2027 000a 1846     		mov	r0, r3
 2028 000c 0099     		ldr	r1, [sp]
 2029 000e FFF7FEFF 		bl	_ZN3r2p13BasePublisher5allocERPNS_7MessageE
 2030 0012 0346     		mov	r3, r0
 2031              		.loc 20 29 0
 2032 0014 1846     		mov	r0, r3
 2033 0016 03B0     		add	sp, sp, #12
 2034              		.cfi_def_cfa_offset 4
 2035              		@ sp needed
 2036 0018 5DF804FB 		ldr	pc, [sp], #4
 2037              		.cfi_endproc
 2038              	.LFE713:
 2039              		.size	_ZN3r2p9PublisherINS_11String64MsgEE5allocERPS1_, .-_ZN3r2p9PublisherINS_11String64MsgEE5all
 2040              		.section	.text._ZN3r2p9PublisherINS_11String64MsgEE7publishEPS1_,"axG",%progbits,_ZN3r2p9Publisher
 2041              		.align	2
 2042              		.weak	_ZN3r2p9PublisherINS_11String64MsgEE7publishEPS1_
 2043              		.thumb
 2044              		.thumb_func
 2045              		.type	_ZN3r2p9PublisherINS_11String64MsgEE7publishEPS1_, %function
 2046              	_ZN3r2p9PublisherINS_11String64MsgEE7publishEPS1_:
 2047              	.LFB714:
 2048              		.loc 20 40 0
 2049              		.cfi_startproc
 2050              		@ args = 0, pretend = 0, frame = 8
 2051              		@ frame_needed = 0, uses_anonymous_args = 0
 2052 0000 00B5     		push	{lr}
 2053              		.cfi_def_cfa_offset 4
 2054              		.cfi_offset 14, -4
 2055 0002 83B0     		sub	sp, sp, #12
 2056              		.cfi_def_cfa_offset 16
 2057 0004 0190     		str	r0, [sp, #4]
 2058 0006 0091     		str	r1, [sp]
 2059              		.loc 20 43 0
 2060 0008 019A     		ldr	r2, [sp, #4]
 2061 000a 009B     		ldr	r3, [sp]
 2062 000c 1046     		mov	r0, r2
 2063 000e 1946     		mov	r1, r3
 2064 0010 FFF7FEFF 		bl	_ZN3r2p13BasePublisher7publishERNS_7MessageE
 2065 0014 0346     		mov	r3, r0
 2066              		.loc 20 44 0
 2067 0016 1846     		mov	r0, r3
 2068 0018 03B0     		add	sp, sp, #12
 2069              		.cfi_def_cfa_offset 4
 2070              		@ sp needed
 2071 001a 5DF804FB 		ldr	pc, [sp], #4
 2072              		.cfi_endproc
 2073              	.LFE714:
 2074              		.size	_ZN3r2p9PublisherINS_11String64MsgEE7publishEPS1_, .-_ZN3r2p9PublisherINS_11String64MsgEE7pu
 2075              		.weak	_ZTVN3r2p9PublisherINS_11String64MsgEEE
ARM GAS  /tmp/ccytVDiP.s 			page 38


 2076 001e 00BF     		.section	.rodata._ZTVN3r2p9PublisherINS_11String64MsgEEE,"aG",%progbits,_ZTVN3r2p9PublisherINS_11S
 2077              		.align	3
 2078              		.type	_ZTVN3r2p9PublisherINS_11String64MsgEEE, %object
 2079              		.size	_ZTVN3r2p9PublisherINS_11String64MsgEEE, 16
 2080              	_ZTVN3r2p9PublisherINS_11String64MsgEEE:
 2081 0000 00000000 		.word	0
 2082 0004 00000000 		.word	0
 2083 0008 00000000 		.word	_ZN3r2p9PublisherINS_11String64MsgEED1Ev
 2084 000c 00000000 		.word	_ZN3r2p9PublisherINS_11String64MsgEED0Ev
 2085              		.weak	_ZTVN3r2p16SubscriberExtBufINS_7MgmtMsgEEE
 2086              		.section	.rodata._ZTVN3r2p16SubscriberExtBufINS_7MgmtMsgEEE,"aG",%progbits,_ZTVN3r2p16SubscriberEx
 2087              		.align	3
 2088              		.type	_ZTVN3r2p16SubscriberExtBufINS_7MgmtMsgEEE, %object
 2089              		.size	_ZTVN3r2p16SubscriberExtBufINS_7MgmtMsgEEE, 36
 2090              	_ZTVN3r2p16SubscriberExtBufINS_7MgmtMsgEEE:
 2091 0000 00000000 		.word	0
 2092 0004 00000000 		.word	0
 2093 0008 00000000 		.word	_ZNK3r2p15LocalSubscriber16get_queue_lengthEv
 2094 000c 00000000 		.word	_ZN3r2p15LocalSubscriber13notify_unsafeERNS_7MessageERKNS_4TimeE
 2095 0010 00000000 		.word	_ZN3r2p15LocalSubscriber12fetch_unsafeERPNS_7MessageERNS_4TimeE
 2096 0014 00000000 		.word	_ZN3r2p15LocalSubscriber6notifyERNS_7MessageERKNS_4TimeE
 2097 0018 00000000 		.word	_ZN3r2p15LocalSubscriber5fetchERPNS_7MessageERNS_4TimeE
 2098 001c 00000000 		.word	_ZN3r2p16SubscriberExtBufINS_7MgmtMsgEED1Ev
 2099 0020 00000000 		.word	_ZN3r2p16SubscriberExtBufINS_7MgmtMsgEED0Ev
 2100              		.weak	_ZTVN3r2p9PublisherINS_7MgmtMsgEEE
 2101 0024 00000000 		.section	.rodata._ZTVN3r2p9PublisherINS_7MgmtMsgEEE,"aG",%progbits,_ZTVN3r2p9PublisherINS_7MgmtMsg
 2102              		.align	3
 2103              		.type	_ZTVN3r2p9PublisherINS_7MgmtMsgEEE, %object
 2104              		.size	_ZTVN3r2p9PublisherINS_7MgmtMsgEEE, 16
 2105              	_ZTVN3r2p9PublisherINS_7MgmtMsgEEE:
 2106 0000 00000000 		.word	0
 2107 0004 00000000 		.word	0
 2108 0008 00000000 		.word	_ZN3r2p9PublisherINS_7MgmtMsgEED1Ev
 2109 000c 00000000 		.word	_ZN3r2p9PublisherINS_7MgmtMsgEED0Ev
 2110              		.section	.text._ZN3r2p10StaticListINS_4NodeEED2Ev,"axG",%progbits,_ZN3r2p10StaticListINS_4NodeEED5
 2111              		.align	2
 2112              		.weak	_ZN3r2p10StaticListINS_4NodeEED2Ev
 2113              		.thumb
 2114              		.thumb_func
 2115              		.type	_ZN3r2p10StaticListINS_4NodeEED2Ev, %function
 2116              	_ZN3r2p10StaticListINS_4NodeEED2Ev:
 2117              	.LFB719:
 2118              		.file 21 "/opt/R2P/core/Middleware/include/r2p/StaticList.hpp"
 2119              		.loc 21 15 0
 2120              		.cfi_startproc
 2121              		@ args = 0, pretend = 0, frame = 8
 2122              		@ frame_needed = 0, uses_anonymous_args = 0
 2123 0000 00B5     		push	{lr}
 2124              		.cfi_def_cfa_offset 4
 2125              		.cfi_offset 14, -4
 2126 0002 83B0     		sub	sp, sp, #12
 2127              		.cfi_def_cfa_offset 16
 2128 0004 0190     		str	r0, [sp, #4]
 2129              	.LBB42:
 2130              		.loc 21 15 0
 2131 0006 0198     		ldr	r0, [sp, #4]
 2132 0008 FFF7FEFF 		bl	_ZN3r2p10UncopyableD2Ev
ARM GAS  /tmp/ccytVDiP.s 			page 39


 2133              	.LBE42:
 2134 000c 019B     		ldr	r3, [sp, #4]
 2135 000e 1846     		mov	r0, r3
 2136 0010 03B0     		add	sp, sp, #12
 2137              		.cfi_def_cfa_offset 4
 2138              		@ sp needed
 2139 0012 5DF804FB 		ldr	pc, [sp], #4
 2140              		.cfi_endproc
 2141              	.LFE719:
 2142              		.size	_ZN3r2p10StaticListINS_4NodeEED2Ev, .-_ZN3r2p10StaticListINS_4NodeEED2Ev
 2143              		.weak	_ZN3r2p10StaticListINS_4NodeEED1Ev
 2144              		.thumb_set _ZN3r2p10StaticListINS_4NodeEED1Ev,_ZN3r2p10StaticListINS_4NodeEED2Ev
 2145 0016 00BF     		.section	.text._ZN3r2p10StaticListINS_5TopicEED2Ev,"axG",%progbits,_ZN3r2p10StaticListINS_5TopicEE
 2146              		.align	2
 2147              		.weak	_ZN3r2p10StaticListINS_5TopicEED2Ev
 2148              		.thumb
 2149              		.thumb_func
 2150              		.type	_ZN3r2p10StaticListINS_5TopicEED2Ev, %function
 2151              	_ZN3r2p10StaticListINS_5TopicEED2Ev:
 2152              	.LFB722:
 2153              		.loc 21 15 0
 2154              		.cfi_startproc
 2155              		@ args = 0, pretend = 0, frame = 8
 2156              		@ frame_needed = 0, uses_anonymous_args = 0
 2157 0000 00B5     		push	{lr}
 2158              		.cfi_def_cfa_offset 4
 2159              		.cfi_offset 14, -4
 2160 0002 83B0     		sub	sp, sp, #12
 2161              		.cfi_def_cfa_offset 16
 2162 0004 0190     		str	r0, [sp, #4]
 2163              	.LBB43:
 2164              		.loc 21 15 0
 2165 0006 0198     		ldr	r0, [sp, #4]
 2166 0008 FFF7FEFF 		bl	_ZN3r2p10UncopyableD2Ev
 2167              	.LBE43:
 2168 000c 019B     		ldr	r3, [sp, #4]
 2169 000e 1846     		mov	r0, r3
 2170 0010 03B0     		add	sp, sp, #12
 2171              		.cfi_def_cfa_offset 4
 2172              		@ sp needed
 2173 0012 5DF804FB 		ldr	pc, [sp], #4
 2174              		.cfi_endproc
 2175              	.LFE722:
 2176              		.size	_ZN3r2p10StaticListINS_5TopicEED2Ev, .-_ZN3r2p10StaticListINS_5TopicEED2Ev
 2177              		.weak	_ZN3r2p10StaticListINS_5TopicEED1Ev
 2178              		.thumb_set _ZN3r2p10StaticListINS_5TopicEED1Ev,_ZN3r2p10StaticListINS_5TopicEED2Ev
 2179 0016 00BF     		.section	.text._ZN3r2p10StaticListINS_9TransportEED2Ev,"axG",%progbits,_ZN3r2p10StaticListINS_9Tra
 2180              		.align	2
 2181              		.weak	_ZN3r2p10StaticListINS_9TransportEED2Ev
 2182              		.thumb
 2183              		.thumb_func
 2184              		.type	_ZN3r2p10StaticListINS_9TransportEED2Ev, %function
 2185              	_ZN3r2p10StaticListINS_9TransportEED2Ev:
 2186              	.LFB725:
 2187              		.loc 21 15 0
 2188              		.cfi_startproc
 2189              		@ args = 0, pretend = 0, frame = 8
ARM GAS  /tmp/ccytVDiP.s 			page 40


 2190              		@ frame_needed = 0, uses_anonymous_args = 0
 2191 0000 00B5     		push	{lr}
 2192              		.cfi_def_cfa_offset 4
 2193              		.cfi_offset 14, -4
 2194 0002 83B0     		sub	sp, sp, #12
 2195              		.cfi_def_cfa_offset 16
 2196 0004 0190     		str	r0, [sp, #4]
 2197              	.LBB44:
 2198              		.loc 21 15 0
 2199 0006 0198     		ldr	r0, [sp, #4]
 2200 0008 FFF7FEFF 		bl	_ZN3r2p10UncopyableD2Ev
 2201              	.LBE44:
 2202 000c 019B     		ldr	r3, [sp, #4]
 2203 000e 1846     		mov	r0, r3
 2204 0010 03B0     		add	sp, sp, #12
 2205              		.cfi_def_cfa_offset 4
 2206              		@ sp needed
 2207 0012 5DF804FB 		ldr	pc, [sp], #4
 2208              		.cfi_endproc
 2209              	.LFE725:
 2210              		.size	_ZN3r2p10StaticListINS_9TransportEED2Ev, .-_ZN3r2p10StaticListINS_9TransportEED2Ev
 2211              		.weak	_ZN3r2p10StaticListINS_9TransportEED1Ev
 2212              		.thumb_set _ZN3r2p10StaticListINS_9TransportEED1Ev,_ZN3r2p10StaticListINS_9TransportEED2Ev
 2213 0016 00BF     		.section	.text._ZN3r2p7ReMutexD2Ev,"axG",%progbits,_ZN3r2p7ReMutexD5Ev,comdat
 2214              		.align	2
 2215              		.weak	_ZN3r2p7ReMutexD2Ev
 2216              		.thumb
 2217              		.thumb_func
 2218              		.type	_ZN3r2p7ReMutexD2Ev, %function
 2219              	_ZN3r2p7ReMutexD2Ev:
 2220              	.LFB728:
 2221              		.file 22 "/opt/R2P/core/Middleware/include/r2p/ReMutex.hpp"
 2222              		.loc 22 9 0
 2223              		.cfi_startproc
 2224              		@ args = 0, pretend = 0, frame = 8
 2225              		@ frame_needed = 0, uses_anonymous_args = 0
 2226 0000 00B5     		push	{lr}
 2227              		.cfi_def_cfa_offset 4
 2228              		.cfi_offset 14, -4
 2229 0002 83B0     		sub	sp, sp, #12
 2230              		.cfi_def_cfa_offset 16
 2231 0004 0190     		str	r0, [sp, #4]
 2232              	.LBB45:
 2233              		.loc 22 9 0
 2234 0006 019B     		ldr	r3, [sp, #4]
 2235 0008 0433     		adds	r3, r3, #4
 2236 000a 1846     		mov	r0, r3
 2237 000c FFF7FEFF 		bl	_ZN3r2p5MutexD1Ev
 2238 0010 0198     		ldr	r0, [sp, #4]
 2239 0012 FFF7FEFF 		bl	_ZN3r2p10UncopyableD2Ev
 2240              	.LBE45:
 2241 0016 019B     		ldr	r3, [sp, #4]
 2242 0018 1846     		mov	r0, r3
 2243 001a 03B0     		add	sp, sp, #12
 2244              		.cfi_def_cfa_offset 4
 2245              		@ sp needed
 2246 001c 5DF804FB 		ldr	pc, [sp], #4
ARM GAS  /tmp/ccytVDiP.s 			page 41


 2247              		.cfi_endproc
 2248              	.LFE728:
 2249              		.size	_ZN3r2p7ReMutexD2Ev, .-_ZN3r2p7ReMutexD2Ev
 2250              		.weak	_ZN3r2p7ReMutexD1Ev
 2251              		.thumb_set _ZN3r2p7ReMutexD1Ev,_ZN3r2p7ReMutexD2Ev
 2252              		.section	.text._ZN3r2p11MemoryPool_D2Ev,"axG",%progbits,_ZN3r2p11MemoryPool_D5Ev,comdat
 2253              		.align	2
 2254              		.weak	_ZN3r2p11MemoryPool_D2Ev
 2255              		.thumb
 2256              		.thumb_func
 2257              		.type	_ZN3r2p11MemoryPool_D2Ev, %function
 2258              	_ZN3r2p11MemoryPool_D2Ev:
 2259              	.LFB732:
 2260              		.loc 4 9 0
 2261              		.cfi_startproc
 2262              		@ args = 0, pretend = 0, frame = 8
 2263              		@ frame_needed = 0, uses_anonymous_args = 0
 2264 0000 00B5     		push	{lr}
 2265              		.cfi_def_cfa_offset 4
 2266              		.cfi_offset 14, -4
 2267 0002 83B0     		sub	sp, sp, #12
 2268              		.cfi_def_cfa_offset 16
 2269 0004 0190     		str	r0, [sp, #4]
 2270              	.LBB46:
 2271              		.loc 4 9 0
 2272 0006 0198     		ldr	r0, [sp, #4]
 2273 0008 FFF7FEFF 		bl	_ZN3r2p10UncopyableD2Ev
 2274              	.LBE46:
 2275 000c 019B     		ldr	r3, [sp, #4]
 2276 000e 1846     		mov	r0, r3
 2277 0010 03B0     		add	sp, sp, #12
 2278              		.cfi_def_cfa_offset 4
 2279              		@ sp needed
 2280 0012 5DF804FB 		ldr	pc, [sp], #4
 2281              		.cfi_endproc
 2282              	.LFE732:
 2283              		.size	_ZN3r2p11MemoryPool_D2Ev, .-_ZN3r2p11MemoryPool_D2Ev
 2284              		.weak	_ZN3r2p11MemoryPool_D1Ev
 2285              		.thumb_set _ZN3r2p11MemoryPool_D1Ev,_ZN3r2p11MemoryPool_D2Ev
 2286 0016 00BF     		.section	.text._ZN3r2p10StaticListINS_15LocalSubscriberEED2Ev,"axG",%progbits,_ZN3r2p10StaticListI
 2287              		.align	2
 2288              		.weak	_ZN3r2p10StaticListINS_15LocalSubscriberEED2Ev
 2289              		.thumb
 2290              		.thumb_func
 2291              		.type	_ZN3r2p10StaticListINS_15LocalSubscriberEED2Ev, %function
 2292              	_ZN3r2p10StaticListINS_15LocalSubscriberEED2Ev:
 2293              	.LFB735:
 2294              		.loc 21 15 0
 2295              		.cfi_startproc
 2296              		@ args = 0, pretend = 0, frame = 8
 2297              		@ frame_needed = 0, uses_anonymous_args = 0
 2298 0000 00B5     		push	{lr}
 2299              		.cfi_def_cfa_offset 4
 2300              		.cfi_offset 14, -4
 2301 0002 83B0     		sub	sp, sp, #12
 2302              		.cfi_def_cfa_offset 16
 2303 0004 0190     		str	r0, [sp, #4]
ARM GAS  /tmp/ccytVDiP.s 			page 42


 2304              	.LBB47:
 2305              		.loc 21 15 0
 2306 0006 0198     		ldr	r0, [sp, #4]
 2307 0008 FFF7FEFF 		bl	_ZN3r2p10UncopyableD2Ev
 2308              	.LBE47:
 2309 000c 019B     		ldr	r3, [sp, #4]
 2310 000e 1846     		mov	r0, r3
 2311 0010 03B0     		add	sp, sp, #12
 2312              		.cfi_def_cfa_offset 4
 2313              		@ sp needed
 2314 0012 5DF804FB 		ldr	pc, [sp], #4
 2315              		.cfi_endproc
 2316              	.LFE735:
 2317              		.size	_ZN3r2p10StaticListINS_15LocalSubscriberEED2Ev, .-_ZN3r2p10StaticListINS_15LocalSubscriberEE
 2318              		.weak	_ZN3r2p10StaticListINS_15LocalSubscriberEED1Ev
 2319              		.thumb_set _ZN3r2p10StaticListINS_15LocalSubscriberEED1Ev,_ZN3r2p10StaticListINS_15LocalSubscriber
 2320 0016 00BF     		.section	.text._ZN3r2p10StaticListINS_16RemoteSubscriberEED2Ev,"axG",%progbits,_ZN3r2p10StaticList
 2321              		.align	2
 2322              		.weak	_ZN3r2p10StaticListINS_16RemoteSubscriberEED2Ev
 2323              		.thumb
 2324              		.thumb_func
 2325              		.type	_ZN3r2p10StaticListINS_16RemoteSubscriberEED2Ev, %function
 2326              	_ZN3r2p10StaticListINS_16RemoteSubscriberEED2Ev:
 2327              	.LFB738:
 2328              		.loc 21 15 0
 2329              		.cfi_startproc
 2330              		@ args = 0, pretend = 0, frame = 8
 2331              		@ frame_needed = 0, uses_anonymous_args = 0
 2332 0000 00B5     		push	{lr}
 2333              		.cfi_def_cfa_offset 4
 2334              		.cfi_offset 14, -4
 2335 0002 83B0     		sub	sp, sp, #12
 2336              		.cfi_def_cfa_offset 16
 2337 0004 0190     		str	r0, [sp, #4]
 2338              	.LBB48:
 2339              		.loc 21 15 0
 2340 0006 0198     		ldr	r0, [sp, #4]
 2341 0008 FFF7FEFF 		bl	_ZN3r2p10UncopyableD2Ev
 2342              	.LBE48:
 2343 000c 019B     		ldr	r3, [sp, #4]
 2344 000e 1846     		mov	r0, r3
 2345 0010 03B0     		add	sp, sp, #12
 2346              		.cfi_def_cfa_offset 4
 2347              		@ sp needed
 2348 0012 5DF804FB 		ldr	pc, [sp], #4
 2349              		.cfi_endproc
 2350              	.LFE738:
 2351              		.size	_ZN3r2p10StaticListINS_16RemoteSubscriberEED2Ev, .-_ZN3r2p10StaticListINS_16RemoteSubscriber
 2352              		.weak	_ZN3r2p10StaticListINS_16RemoteSubscriberEED1Ev
 2353              		.thumb_set _ZN3r2p10StaticListINS_16RemoteSubscriberEED1Ev,_ZN3r2p10StaticListINS_16RemoteSubscrib
 2354 0016 00BF     		.section	.text._ZN3r2p5TopicD2Ev,"axG",%progbits,_ZN3r2p5TopicD5Ev,comdat
 2355              		.align	2
 2356              		.weak	_ZN3r2p5TopicD2Ev
 2357              		.thumb
 2358              		.thumb_func
 2359              		.type	_ZN3r2p5TopicD2Ev, %function
 2360              	_ZN3r2p5TopicD2Ev:
ARM GAS  /tmp/ccytVDiP.s 			page 43


 2361              	.LFB740:
 2362              		.loc 14 23 0
 2363              		.cfi_startproc
 2364              		@ args = 0, pretend = 0, frame = 8
 2365              		@ frame_needed = 0, uses_anonymous_args = 0
 2366 0000 00B5     		push	{lr}
 2367              		.cfi_def_cfa_offset 4
 2368              		.cfi_offset 14, -4
 2369 0002 83B0     		sub	sp, sp, #12
 2370              		.cfi_def_cfa_offset 16
 2371 0004 0190     		str	r0, [sp, #4]
 2372              	.LBB49:
 2373              		.loc 14 23 0
 2374 0006 019B     		ldr	r3, [sp, #4]
 2375 0008 2033     		adds	r3, r3, #32
 2376 000a 1846     		mov	r0, r3
 2377 000c FFF7FEFF 		bl	_ZN3r2p10StaticListINS_16RemoteSubscriberEED1Ev
 2378 0010 019B     		ldr	r3, [sp, #4]
 2379 0012 1C33     		adds	r3, r3, #28
 2380 0014 1846     		mov	r0, r3
 2381 0016 FFF7FEFF 		bl	_ZN3r2p10StaticListINS_15LocalSubscriberEED1Ev
 2382 001a 019B     		ldr	r3, [sp, #4]
 2383 001c 0833     		adds	r3, r3, #8
 2384 001e 1846     		mov	r0, r3
 2385 0020 FFF7FEFF 		bl	_ZN3r2p11MemoryPool_D1Ev
 2386 0024 0198     		ldr	r0, [sp, #4]
 2387 0026 FFF7FEFF 		bl	_ZN3r2p10UncopyableD2Ev
 2388              	.LBE49:
 2389 002a 019B     		ldr	r3, [sp, #4]
 2390 002c 1846     		mov	r0, r3
 2391 002e 03B0     		add	sp, sp, #12
 2392              		.cfi_def_cfa_offset 4
 2393              		@ sp needed
 2394 0030 5DF804FB 		ldr	pc, [sp], #4
 2395              		.cfi_endproc
 2396              	.LFE740:
 2397              		.size	_ZN3r2p5TopicD2Ev, .-_ZN3r2p5TopicD2Ev
 2398              		.weak	_ZN3r2p5TopicD1Ev
 2399              		.thumb_set _ZN3r2p5TopicD1Ev,_ZN3r2p5TopicD2Ev
 2400              		.section	.text._ZN3r2p10MiddlewareD2Ev,"axG",%progbits,_ZN3r2p10MiddlewareD5Ev,comdat
 2401              		.align	2
 2402              		.weak	_ZN3r2p10MiddlewareD2Ev
 2403              		.thumb
 2404              		.thumb_func
 2405              		.type	_ZN3r2p10MiddlewareD2Ev, %function
 2406              	_ZN3r2p10MiddlewareD2Ev:
 2407              	.LFB742:
 2408              		.loc 17 34 0
 2409              		.cfi_startproc
 2410              		@ args = 0, pretend = 0, frame = 8
 2411              		@ frame_needed = 0, uses_anonymous_args = 0
 2412 0000 00B5     		push	{lr}
 2413              		.cfi_def_cfa_offset 4
 2414              		.cfi_offset 14, -4
 2415 0002 83B0     		sub	sp, sp, #12
 2416              		.cfi_def_cfa_offset 16
 2417 0004 0190     		str	r0, [sp, #4]
ARM GAS  /tmp/ccytVDiP.s 			page 44


 2418              	.LBB50:
 2419              		.loc 17 34 0
 2420 0006 019B     		ldr	r3, [sp, #4]
 2421 0008 03F51273 		add	r3, r3, #584
 2422 000c 1846     		mov	r0, r3
 2423 000e FFF7FEFF 		bl	_ZN3r2p5TopicD1Ev
 2424 0012 019B     		ldr	r3, [sp, #4]
 2425 0014 9433     		adds	r3, r3, #148
 2426 0016 1846     		mov	r0, r3
 2427 0018 FFF7FEFF 		bl	_ZN3r2p16SubscriberExtBufINS_7MgmtMsgEED1Ev
 2428 001c 019B     		ldr	r3, [sp, #4]
 2429 001e 8433     		adds	r3, r3, #132
 2430 0020 1846     		mov	r0, r3
 2431 0022 FFF7FEFF 		bl	_ZN3r2p9PublisherINS_7MgmtMsgEED1Ev
 2432 0026 019B     		ldr	r3, [sp, #4]
 2433 0028 6833     		adds	r3, r3, #104
 2434 002a 1846     		mov	r0, r3
 2435 002c FFF7FEFF 		bl	_ZN3r2p4NodeD1Ev
 2436 0030 019B     		ldr	r3, [sp, #4]
 2437 0032 2833     		adds	r3, r3, #40
 2438 0034 1846     		mov	r0, r3
 2439 0036 FFF7FEFF 		bl	_ZN3r2p5TopicD1Ev
 2440 003a 019B     		ldr	r3, [sp, #4]
 2441 003c 1033     		adds	r3, r3, #16
 2442 003e 1846     		mov	r0, r3
 2443 0040 FFF7FEFF 		bl	_ZN3r2p7ReMutexD1Ev
 2444 0044 019B     		ldr	r3, [sp, #4]
 2445 0046 0C33     		adds	r3, r3, #12
 2446 0048 1846     		mov	r0, r3
 2447 004a FFF7FEFF 		bl	_ZN3r2p10StaticListINS_9TransportEED1Ev
 2448 004e 019B     		ldr	r3, [sp, #4]
 2449 0050 0833     		adds	r3, r3, #8
 2450 0052 1846     		mov	r0, r3
 2451 0054 FFF7FEFF 		bl	_ZN3r2p10StaticListINS_5TopicEED1Ev
 2452 0058 019B     		ldr	r3, [sp, #4]
 2453 005a 0433     		adds	r3, r3, #4
 2454 005c 1846     		mov	r0, r3
 2455 005e FFF7FEFF 		bl	_ZN3r2p10StaticListINS_4NodeEED1Ev
 2456 0062 0198     		ldr	r0, [sp, #4]
 2457 0064 FFF7FEFF 		bl	_ZN3r2p10UncopyableD2Ev
 2458              	.LBE50:
 2459 0068 019B     		ldr	r3, [sp, #4]
 2460 006a 1846     		mov	r0, r3
 2461 006c 03B0     		add	sp, sp, #12
 2462              		.cfi_def_cfa_offset 4
 2463              		@ sp needed
 2464 006e 5DF804FB 		ldr	pc, [sp], #4
 2465              		.cfi_endproc
 2466              	.LFE742:
 2467              		.size	_ZN3r2p10MiddlewareD2Ev, .-_ZN3r2p10MiddlewareD2Ev
 2468              		.weak	_ZN3r2p10MiddlewareD1Ev
 2469              		.thumb_set _ZN3r2p10MiddlewareD1Ev,_ZN3r2p10MiddlewareD2Ev
 2470 0072 00BF     		.section	.rodata
 2471              		.align	2
 2472              	.LC5:
 2473 0058 53443200 		.ascii	"SD2\000"
 2474              		.align	2
ARM GAS  /tmp/ccytVDiP.s 			page 45


 2475              	.LC6:
 2476 005c 55534200 		.ascii	"USB\000"
 2477              		.align	2
 2478              	.LC7:
 2479 0060 424F4F54 		.ascii	"BOOT_USB\000"
 2479      5F555342 
 2479      00
 2480 0069 000000   		.text
 2481              		.align	2
 2482              		.thumb
 2483              		.thumb_func
 2484              		.type	_Z41__static_initialization_and_destruction_0ii, %function
 2485              	_Z41__static_initialization_and_destruction_0ii:
 2486              	.LFB716:
 2487              		.loc 18 161 0
 2488              		.cfi_startproc
 2489              		@ args = 0, pretend = 0, frame = 8
 2490              		@ frame_needed = 0, uses_anonymous_args = 0
 2491 02c0 00B5     		push	{lr}
 2492              		.cfi_def_cfa_offset 4
 2493              		.cfi_offset 14, -4
 2494 02c2 85B0     		sub	sp, sp, #20
 2495              		.cfi_def_cfa_offset 24
 2496 02c4 0390     		str	r0, [sp, #12]
 2497 02c6 0291     		str	r1, [sp, #8]
 2498              		.loc 18 161 0
 2499 02c8 039B     		ldr	r3, [sp, #12]
 2500 02ca 012B     		cmp	r3, #1
 2501 02cc 1CD1     		bne	.L151
 2502              		.loc 18 161 0 is_stmt 0 discriminator 1
 2503 02ce 029B     		ldr	r3, [sp, #8]
 2504 02d0 4FF6FF72 		movw	r2, #65535
 2505 02d4 9342     		cmp	r3, r2
 2506 02d6 17D1     		bne	.L151
 2507              		.loc 18 33 0 is_stmt 1
 2508 02d8 0D48     		ldr	r0, .L153
 2509 02da 0E49     		ldr	r1, .L153+4
 2510 02dc 0E4A     		ldr	r2, .L153+8
 2511 02de 0F4B     		ldr	r3, .L153+12
 2512 02e0 FFF7FEFF 		bl	_ZN3r2p14DebugTransportC1EPKcP11BaseChannelPc
 2513 02e4 0A48     		ldr	r0, .L153
 2514 02e6 0E49     		ldr	r1, .L153+16
 2515 02e8 0E4A     		ldr	r2, .L153+20
 2516 02ea FFF7FEFF 		bl	__aeabi_atexit
 2517              		.loc 18 50 0
 2518 02ee 0023     		movs	r3, #0
 2519 02f0 0093     		str	r3, [sp]
 2520 02f2 0D48     		ldr	r0, .L153+24
 2521 02f4 0D49     		ldr	r1, .L153+28
 2522 02f6 0E4A     		ldr	r2, .L153+32
 2523 02f8 0023     		movs	r3, #0
 2524 02fa FFF7FEFF 		bl	_ZN3r2p10MiddlewareC1EPKcS2_PNS0_10PubSubStepEj
 2525 02fe 0A48     		ldr	r0, .L153+24
 2526 0300 0C49     		ldr	r1, .L153+36
 2527 0302 084A     		ldr	r2, .L153+20
 2528 0304 FFF7FEFF 		bl	__aeabi_atexit
 2529              	.L151:
ARM GAS  /tmp/ccytVDiP.s 			page 46


 2530              		.loc 18 161 0
 2531 0308 05B0     		add	sp, sp, #20
 2532              		.cfi_def_cfa_offset 4
 2533              		@ sp needed
 2534 030a 5DF804FB 		ldr	pc, [sp], #4
 2535              	.L154:
 2536 030e 00BF     		.align	2
 2537              	.L153:
 2538 0310 D0050000 		.word	_ZL6dbgtra
 2539 0314 58000000 		.word	.LC5
 2540 0318 00000000 		.word	SDU1
 2541 031c 90050000 		.word	_ZL14dbgtra_namebuf
 2542 0320 00000000 		.word	_ZN3r2p14DebugTransportD1Ev
 2543 0324 00000000 		.word	__dso_handle
 2544 0328 00000000 		.word	_ZN3r2p10Middleware8instanceE
 2545 032c 5C000000 		.word	.LC6
 2546 0330 60000000 		.word	.LC7
 2547 0334 00000000 		.word	_ZN3r2p10MiddlewareD1Ev
 2548              		.cfi_endproc
 2549              	.LFE716:
 2550              		.size	_Z41__static_initialization_and_destruction_0ii, .-_Z41__static_initialization_and_destructi
 2551              		.section	.text._ZN3r2p9PublisherINS_7MgmtMsgEED2Ev,"axG",%progbits,_ZN3r2p9PublisherINS_7MgmtMsgEE
 2552              		.align	2
 2553              		.weak	_ZN3r2p9PublisherINS_7MgmtMsgEED2Ev
 2554              		.thumb
 2555              		.thumb_func
 2556              		.type	_ZN3r2p9PublisherINS_7MgmtMsgEED2Ev, %function
 2557              	_ZN3r2p9PublisherINS_7MgmtMsgEED2Ev:
 2558              	.LFB745:
 2559              		.loc 20 54 0
 2560              		.cfi_startproc
 2561              		@ args = 0, pretend = 0, frame = 8
 2562              		@ frame_needed = 0, uses_anonymous_args = 0
 2563 0000 00B5     		push	{lr}
 2564              		.cfi_def_cfa_offset 4
 2565              		.cfi_offset 14, -4
 2566 0002 83B0     		sub	sp, sp, #12
 2567              		.cfi_def_cfa_offset 16
 2568 0004 0190     		str	r0, [sp, #4]
 2569              	.LBB51:
 2570              		.loc 20 57 0
 2571 0006 019B     		ldr	r3, [sp, #4]
 2572 0008 084A     		ldr	r2, .L159
 2573 000a 1A60     		str	r2, [r3]
 2574 000c 019B     		ldr	r3, [sp, #4]
 2575 000e 1846     		mov	r0, r3
 2576 0010 FFF7FEFF 		bl	_ZN3r2p14LocalPublisherD2Ev
 2577              	.LBE51:
 2578 0014 0023     		movs	r3, #0
 2579 0016 002B     		cmp	r3, #0
 2580 0018 02D0     		beq	.L157
 2581              		.loc 20 57 0 is_stmt 0 discriminator 2
 2582 001a 0198     		ldr	r0, [sp, #4]
 2583 001c FFF7FEFF 		bl	_ZdlPv
 2584              	.L157:
 2585              		.loc 20 57 0 discriminator 4
 2586 0020 019B     		ldr	r3, [sp, #4]
ARM GAS  /tmp/ccytVDiP.s 			page 47


 2587 0022 1846     		mov	r0, r3
 2588 0024 03B0     		add	sp, sp, #12
 2589              		.cfi_def_cfa_offset 4
 2590              		@ sp needed
 2591 0026 5DF804FB 		ldr	pc, [sp], #4
 2592              	.L160:
 2593 002a 00BF     		.align	2
 2594              	.L159:
 2595 002c 08000000 		.word	_ZTVN3r2p9PublisherINS_7MgmtMsgEEE+8
 2596              		.cfi_endproc
 2597              	.LFE745:
 2598              		.size	_ZN3r2p9PublisherINS_7MgmtMsgEED2Ev, .-_ZN3r2p9PublisherINS_7MgmtMsgEED2Ev
 2599              		.weak	_ZN3r2p9PublisherINS_7MgmtMsgEED1Ev
 2600              		.thumb_set _ZN3r2p9PublisherINS_7MgmtMsgEED1Ev,_ZN3r2p9PublisherINS_7MgmtMsgEED2Ev
 2601              		.section	.text._ZN3r2p9PublisherINS_7MgmtMsgEED0Ev,"axG",%progbits,_ZN3r2p9PublisherINS_7MgmtMsgEE
 2602              		.align	2
 2603              		.weak	_ZN3r2p9PublisherINS_7MgmtMsgEED0Ev
 2604              		.thumb
 2605              		.thumb_func
 2606              		.type	_ZN3r2p9PublisherINS_7MgmtMsgEED0Ev, %function
 2607              	_ZN3r2p9PublisherINS_7MgmtMsgEED0Ev:
 2608              	.LFB747:
 2609              		.loc 20 54 0 is_stmt 1
 2610              		.cfi_startproc
 2611              		@ args = 0, pretend = 0, frame = 8
 2612              		@ frame_needed = 0, uses_anonymous_args = 0
 2613 0000 00B5     		push	{lr}
 2614              		.cfi_def_cfa_offset 4
 2615              		.cfi_offset 14, -4
 2616 0002 83B0     		sub	sp, sp, #12
 2617              		.cfi_def_cfa_offset 16
 2618 0004 0190     		str	r0, [sp, #4]
 2619              		.loc 20 57 0
 2620 0006 0198     		ldr	r0, [sp, #4]
 2621 0008 FFF7FEFF 		bl	_ZN3r2p9PublisherINS_7MgmtMsgEED1Ev
 2622 000c 0198     		ldr	r0, [sp, #4]
 2623 000e FFF7FEFF 		bl	_ZdlPv
 2624 0012 019B     		ldr	r3, [sp, #4]
 2625 0014 1846     		mov	r0, r3
 2626 0016 03B0     		add	sp, sp, #12
 2627              		.cfi_def_cfa_offset 4
 2628              		@ sp needed
 2629 0018 5DF804FB 		ldr	pc, [sp], #4
 2630              		.cfi_endproc
 2631              	.LFE747:
 2632              		.size	_ZN3r2p9PublisherINS_7MgmtMsgEED0Ev, .-_ZN3r2p9PublisherINS_7MgmtMsgEED0Ev
 2633              		.section	.text._ZN3r2p16SubscriberExtBufINS_7MgmtMsgEED2Ev,"axG",%progbits,_ZN3r2p16SubscriberExtB
 2634              		.align	2
 2635              		.weak	_ZN3r2p16SubscriberExtBufINS_7MgmtMsgEED2Ev
 2636              		.thumb
 2637              		.thumb_func
 2638              		.type	_ZN3r2p16SubscriberExtBufINS_7MgmtMsgEED2Ev, %function
 2639              	_ZN3r2p16SubscriberExtBufINS_7MgmtMsgEED2Ev:
 2640              	.LFB749:
 2641              		.file 23 "/opt/R2P/core/Middleware/include/r2p/SubscriberExtBuf.hpp"
 2642              		.loc 23 76 0
 2643              		.cfi_startproc
ARM GAS  /tmp/ccytVDiP.s 			page 48


 2644              		@ args = 0, pretend = 0, frame = 8
 2645              		@ frame_needed = 0, uses_anonymous_args = 0
 2646 0000 00B5     		push	{lr}
 2647              		.cfi_def_cfa_offset 4
 2648              		.cfi_offset 14, -4
 2649 0002 83B0     		sub	sp, sp, #12
 2650              		.cfi_def_cfa_offset 16
 2651 0004 0190     		str	r0, [sp, #4]
 2652              	.LBB52:
 2653              		.loc 23 79 0
 2654 0006 019B     		ldr	r3, [sp, #4]
 2655 0008 084A     		ldr	r2, .L168
 2656 000a 1A60     		str	r2, [r3]
 2657 000c 019B     		ldr	r3, [sp, #4]
 2658 000e 1846     		mov	r0, r3
 2659 0010 FFF7FEFF 		bl	_ZN3r2p15LocalSubscriberD2Ev
 2660              	.LBE52:
 2661 0014 0023     		movs	r3, #0
 2662 0016 002B     		cmp	r3, #0
 2663 0018 02D0     		beq	.L166
 2664              		.loc 23 79 0 is_stmt 0 discriminator 2
 2665 001a 0198     		ldr	r0, [sp, #4]
 2666 001c FFF7FEFF 		bl	_ZdlPv
 2667              	.L166:
 2668              		.loc 23 79 0 discriminator 4
 2669 0020 019B     		ldr	r3, [sp, #4]
 2670 0022 1846     		mov	r0, r3
 2671 0024 03B0     		add	sp, sp, #12
 2672              		.cfi_def_cfa_offset 4
 2673              		@ sp needed
 2674 0026 5DF804FB 		ldr	pc, [sp], #4
 2675              	.L169:
 2676 002a 00BF     		.align	2
 2677              	.L168:
 2678 002c 08000000 		.word	_ZTVN3r2p16SubscriberExtBufINS_7MgmtMsgEEE+8
 2679              		.cfi_endproc
 2680              	.LFE749:
 2681              		.size	_ZN3r2p16SubscriberExtBufINS_7MgmtMsgEED2Ev, .-_ZN3r2p16SubscriberExtBufINS_7MgmtMsgEED2Ev
 2682              		.weak	_ZN3r2p16SubscriberExtBufINS_7MgmtMsgEED1Ev
 2683              		.thumb_set _ZN3r2p16SubscriberExtBufINS_7MgmtMsgEED1Ev,_ZN3r2p16SubscriberExtBufINS_7MgmtMsgEED2Ev
 2684              		.section	.text._ZN3r2p16SubscriberExtBufINS_7MgmtMsgEED0Ev,"axG",%progbits,_ZN3r2p16SubscriberExtB
 2685              		.align	2
 2686              		.weak	_ZN3r2p16SubscriberExtBufINS_7MgmtMsgEED0Ev
 2687              		.thumb
 2688              		.thumb_func
 2689              		.type	_ZN3r2p16SubscriberExtBufINS_7MgmtMsgEED0Ev, %function
 2690              	_ZN3r2p16SubscriberExtBufINS_7MgmtMsgEED0Ev:
 2691              	.LFB751:
 2692              		.loc 23 76 0 is_stmt 1
 2693              		.cfi_startproc
 2694              		@ args = 0, pretend = 0, frame = 8
 2695              		@ frame_needed = 0, uses_anonymous_args = 0
 2696 0000 00B5     		push	{lr}
 2697              		.cfi_def_cfa_offset 4
 2698              		.cfi_offset 14, -4
 2699 0002 83B0     		sub	sp, sp, #12
 2700              		.cfi_def_cfa_offset 16
ARM GAS  /tmp/ccytVDiP.s 			page 49


 2701 0004 0190     		str	r0, [sp, #4]
 2702              		.loc 23 79 0
 2703 0006 0198     		ldr	r0, [sp, #4]
 2704 0008 FFF7FEFF 		bl	_ZN3r2p16SubscriberExtBufINS_7MgmtMsgEED1Ev
 2705 000c 0198     		ldr	r0, [sp, #4]
 2706 000e FFF7FEFF 		bl	_ZdlPv
 2707 0012 019B     		ldr	r3, [sp, #4]
 2708 0014 1846     		mov	r0, r3
 2709 0016 03B0     		add	sp, sp, #12
 2710              		.cfi_def_cfa_offset 4
 2711              		@ sp needed
 2712 0018 5DF804FB 		ldr	pc, [sp], #4
 2713              		.cfi_endproc
 2714              	.LFE751:
 2715              		.size	_ZN3r2p16SubscriberExtBufINS_7MgmtMsgEED0Ev, .-_ZN3r2p16SubscriberExtBufINS_7MgmtMsgEED0Ev
 2716              		.text
 2717              		.align	2
 2718              		.thumb
 2719              		.thumb_func
 2720              		.type	_GLOBAL__sub_I__ZN3r2p10Middleware8instanceE, %function
 2721              	_GLOBAL__sub_I__ZN3r2p10Middleware8instanceE:
 2722              	.LFB753:
 2723              		.loc 18 161 0
 2724              		.cfi_startproc
 2725              		@ args = 0, pretend = 0, frame = 0
 2726              		@ frame_needed = 0, uses_anonymous_args = 0
 2727 0338 08B5     		push	{r3, lr}
 2728              		.cfi_def_cfa_offset 8
 2729              		.cfi_offset 3, -8
 2730              		.cfi_offset 14, -4
 2731              		.loc 18 161 0
 2732 033a 0120     		movs	r0, #1
 2733 033c 4FF6FF71 		movw	r1, #65535
 2734 0340 FFF7BEFF 		bl	_Z41__static_initialization_and_destruction_0ii
 2735 0344 08BD     		pop	{r3, pc}
 2736              		.cfi_endproc
 2737              	.LFE753:
 2738              		.size	_GLOBAL__sub_I__ZN3r2p10Middleware8instanceE, .-_GLOBAL__sub_I__ZN3r2p10Middleware8instanceE
 2739              		.section	.init_array,"aw",%init_array
 2740              		.align	2
 2741 0000 00000000 		.word	_GLOBAL__sub_I__ZN3r2p10Middleware8instanceE(target1)
 2742              		.text
 2743              	.Letext0:
 2744              		.file 24 "/opt/R2P/tools/gcc-arm-none-eabi-4_9-2014q4/arm-none-eabi/include/machine/_default_types
 2745              		.file 25 "/opt/R2P/tools/gcc-arm-none-eabi-4_9-2014q4/lib/gcc/arm-none-eabi/4.9.3/include/stddef.h
 2746              		.file 26 "/opt/R2P/tools/gcc-arm-none-eabi-4_9-2014q4/arm-none-eabi/include/sys/lock.h"
 2747              		.file 27 "/opt/R2P/tools/gcc-arm-none-eabi-4_9-2014q4/arm-none-eabi/include/sys/_types.h"
 2748              		.file 28 "/opt/R2P/tools/gcc-arm-none-eabi-4_9-2014q4/arm-none-eabi/include/sys/reent.h"
 2749              		.file 29 "/opt/R2P/tools/gcc-arm-none-eabi-4_9-2014q4/arm-none-eabi/include/stdio.h"
 2750              		.file 30 "/opt/R2P/tools/gcc-arm-none-eabi-4_9-2014q4/arm-none-eabi/include/c++/4.9.3/cstdio"
 2751              		.file 31 "/opt/R2P/tools/gcc-arm-none-eabi-4_9-2014q4/arm-none-eabi/include/c++/4.9.3/cstring"
 2752              		.file 32 "/opt/R2P/tools/gcc-arm-none-eabi-4_9-2014q4/arm-none-eabi/include/stdint.h"
 2753              		.file 33 "/opt/R2P/core/ChibiOS_2.6.5/os/ports/GCC/ARMCMx/chtypes.h"
 2754              		.file 34 "/opt/R2P/core/ChibiOS_2.6.5/os/kernel/include/chlists.h"
 2755              		.file 35 "/opt/R2P/core/ChibiOS_2.6.5/os/kernel/include/chthreads.h"
 2756              		.file 36 "/opt/R2P/core/ChibiOS_2.6.5/os/ports/GCC/ARMCMx/chcore_v7m.h"
 2757              		.file 37 "/opt/R2P/core/ChibiOS_2.6.5/os/kernel/include/chschd.h"
ARM GAS  /tmp/ccytVDiP.s 			page 50


 2758              		.file 38 "/opt/R2P/core/ChibiOS_2.6.5/os/kernel/include/chmtx.h"
 2759              		.file 39 "/opt/R2P/core/ChibiOS_2.6.5/os/kernel/include/chevents.h"
 2760              		.file 40 "/opt/R2P/core/ChibiOS_2.6.5/os/kernel/include/chmemcore.h"
 2761              		.file 41 "/opt/R2P/core/ChibiOS_2.6.5/os/kernel/include/chheap.h"
 2762              		.file 42 "/opt/R2P/core/ChibiOS_2.6.5/os/kernel/include/chmempools.h"
 2763              		.file 43 "/opt/R2P/core/ChibiOS_2.6.5/os/kernel/include/chqueues.h"
 2764              		.file 44 "/opt/R2P/core/ChibiOS_2.6.5/os/hal/platforms/STM32F30x/stm32f30x.h"
 2765              		.file 45 "/opt/R2P/core/ChibiOS_2.6.5/os/hal/include/io_channel.h"
 2766              		.file 46 "/opt/R2P/core/ChibiOS_2.6.5/os/hal/platforms/STM32/GPIOv2/pal_lld.h"
 2767              		.file 47 "/opt/R2P/core/ChibiOS_2.6.5/os/hal/include/serial.h"
 2768              		.file 48 "/opt/R2P/core/ChibiOS_2.6.5/os/hal/include/usb.h"
 2769              		.file 49 "/opt/R2P/core/ChibiOS_2.6.5/os/hal/platforms/STM32/USBv1/usb_lld.h"
 2770              		.file 50 "/opt/R2P/core/ChibiOS_2.6.5/os/hal/include/serial_usb.h"
 2771              		.file 51 "/opt/R2P/tools/gcc-arm-none-eabi-4_9-2014q4/arm-none-eabi/include/string.h"
 2772              		.file 52 "<built-in>"
 2773              		.file 53 "/opt/R2P/core/Middleware/include/r2p/NamingTraits.hpp"
 2774              		.file 54 "/opt/R2P/core/Middleware/include/r2p/LocalPublisher.hpp"
 2775              		.file 55 "/opt/R2P/core/Middleware/include/r2p/MgmtMsg.hpp"
 2776              		.file 56 "/opt/R2P/core/Middleware/port/chibios/include/r2p/impl/Flasher_.hpp"
 2777              		.file 57 "/opt/R2P/core/Middleware/include/r2p/BaseSubscriber.hpp"
 2778              		.file 58 "/opt/R2P/core/Middleware/include/r2p/transport/DebugTransport.hpp"
 2779              		.file 59 "/opt/R2P/core/Middleware/include/r2p/transport/RTCANTransport.hpp"
 2780              		.file 60 "/opt/R2P/core/Middleware/include/r2p/node/led.hpp"
 2781              		.file 61 "/opt/R2P/core/Middleware/include/r2p/msg/std_msgs.hpp"
 2782              		.file 62 "/opt/R2P/core/Middleware/include/r2p/common.hpp"
 2783              		.file 63 "/opt/R2P/core/ChibiOS_2.6.5/os/ports/common/ARMCMx/CMSIS/include/core_cm4.h"
 2784              		.file 64 "usbcfg.h"
 2785              		.file 65 "/opt/R2P/core/ChibiOS_2.6.5/os/hal/platforms/STM32/USARTv2/serial_lld.h"
 2786 0346 00BF     		.section	.debug_info,"",%progbits
 2787              	.Ldebug_info0:
 2788 0000 90810000 		.4byte	0x8190
 2789 0004 0400     		.2byte	0x4
 2790 0006 00000000 		.4byte	.Ldebug_abbrev0
 2791 000a 04       		.byte	0x4
 2792 000b 01       		.uleb128 0x1
 2793 000c B20F0000 		.4byte	.LASF1258
 2794 0010 04       		.byte	0x4
 2795 0011 7E1D0000 		.4byte	.LASF1259
 2796 0015 43440000 		.4byte	.LASF1260
 2797 0019 00000000 		.4byte	.Ldebug_ranges0+0
 2798 001d 00000000 		.4byte	0
 2799 0021 00000000 		.4byte	.Ldebug_line0
 2800 0025 02       		.uleb128 0x2
 2801 0026 01       		.byte	0x1
 2802 0027 06       		.byte	0x6
 2803 0028 813F0000 		.4byte	.LASF0
 2804 002c 03       		.uleb128 0x3
 2805 002d 53020000 		.4byte	.LASF3
 2806 0031 18       		.byte	0x18
 2807 0032 1D       		.byte	0x1d
 2808 0033 37000000 		.4byte	0x37
 2809 0037 02       		.uleb128 0x2
 2810 0038 01       		.byte	0x1
 2811 0039 08       		.byte	0x8
 2812 003a 3B1D0000 		.4byte	.LASF1
 2813 003e 02       		.uleb128 0x2
 2814 003f 02       		.byte	0x2
ARM GAS  /tmp/ccytVDiP.s 			page 51


 2815 0040 05       		.byte	0x5
 2816 0041 06790000 		.4byte	.LASF2
 2817 0045 03       		.uleb128 0x3
 2818 0046 ED190000 		.4byte	.LASF4
 2819 004a 18       		.byte	0x18
 2820 004b 2B       		.byte	0x2b
 2821 004c 50000000 		.4byte	0x50
 2822 0050 02       		.uleb128 0x2
 2823 0051 02       		.byte	0x2
 2824 0052 07       		.byte	0x7
 2825 0053 6E3F0000 		.4byte	.LASF5
 2826 0057 03       		.uleb128 0x3
 2827 0058 B55D0000 		.4byte	.LASF6
 2828 005c 18       		.byte	0x18
 2829 005d 3F       		.byte	0x3f
 2830 005e 62000000 		.4byte	0x62
 2831 0062 02       		.uleb128 0x2
 2832 0063 04       		.byte	0x4
 2833 0064 05       		.byte	0x5
 2834 0065 D7480000 		.4byte	.LASF7
 2835 0069 03       		.uleb128 0x3
 2836 006a FA5D0000 		.4byte	.LASF8
 2837 006e 18       		.byte	0x18
 2838 006f 41       		.byte	0x41
 2839 0070 74000000 		.4byte	0x74
 2840 0074 02       		.uleb128 0x2
 2841 0075 04       		.byte	0x4
 2842 0076 07       		.byte	0x7
 2843 0077 F14D0000 		.4byte	.LASF9
 2844 007b 02       		.uleb128 0x2
 2845 007c 08       		.byte	0x8
 2846 007d 05       		.byte	0x5
 2847 007e 1E6E0000 		.4byte	.LASF10
 2848 0082 03       		.uleb128 0x3
 2849 0083 9E320000 		.4byte	.LASF11
 2850 0087 18       		.byte	0x18
 2851 0088 5B       		.byte	0x5b
 2852 0089 8D000000 		.4byte	0x8d
 2853 008d 02       		.uleb128 0x2
 2854 008e 08       		.byte	0x8
 2855 008f 07       		.byte	0x7
 2856 0090 37650000 		.4byte	.LASF12
 2857 0094 04       		.uleb128 0x4
 2858 0095 04       		.byte	0x4
 2859 0096 05       		.byte	0x5
 2860 0097 696E7400 		.ascii	"int\000"
 2861 009b 03       		.uleb128 0x3
 2862 009c 68540000 		.4byte	.LASF13
 2863 00a0 18       		.byte	0x18
 2864 00a1 CA       		.byte	0xca
 2865 00a2 A6000000 		.4byte	0xa6
 2866 00a6 02       		.uleb128 0x2
 2867 00a7 04       		.byte	0x4
 2868 00a8 07       		.byte	0x7
 2869 00a9 35780000 		.4byte	.LASF14
 2870 00ad 03       		.uleb128 0x3
 2871 00ae 55280000 		.4byte	.LASF15
ARM GAS  /tmp/ccytVDiP.s 			page 52


 2872 00b2 19       		.byte	0x19
 2873 00b3 D4       		.byte	0xd4
 2874 00b4 A6000000 		.4byte	0xa6
 2875 00b8 05       		.uleb128 0x5
 2876 00b9 04       		.byte	0x4
 2877 00ba 03       		.uleb128 0x3
 2878 00bb 26480000 		.4byte	.LASF16
 2879 00bf 1A       		.byte	0x1a
 2880 00c0 07       		.byte	0x7
 2881 00c1 94000000 		.4byte	0x94
 2882 00c5 03       		.uleb128 0x3
 2883 00c6 1B280000 		.4byte	.LASF17
 2884 00ca 1B       		.byte	0x1b
 2885 00cb 10       		.byte	0x10
 2886 00cc 62000000 		.4byte	0x62
 2887 00d0 03       		.uleb128 0x3
 2888 00d1 C65A0000 		.4byte	.LASF18
 2889 00d5 1B       		.byte	0x1b
 2890 00d6 27       		.byte	0x27
 2891 00d7 62000000 		.4byte	0x62
 2892 00db 06       		.uleb128 0x6
 2893 00dc B42E0000 		.4byte	.LASF19
 2894 00e0 19       		.byte	0x19
 2895 00e1 6101     		.2byte	0x161
 2896 00e3 A6000000 		.4byte	0xa6
 2897 00e7 07       		.uleb128 0x7
 2898 00e8 08       		.byte	0x8
 2899 00e9 1B       		.byte	0x1b
 2900 00ea 48       		.byte	0x48
 2901 00eb 26310000 		.4byte	.LASF192
 2902 00ef 2B010000 		.4byte	0x12b
 2903 00f3 08       		.uleb128 0x8
 2904 00f4 04       		.byte	0x4
 2905 00f5 1B       		.byte	0x1b
 2906 00f6 4B       		.byte	0x4b
 2907 00f7 12010000 		.4byte	0x112
 2908 00fb 09       		.uleb128 0x9
 2909 00fc 83470000 		.4byte	.LASF20
 2910 0100 1B       		.byte	0x1b
 2911 0101 4C       		.byte	0x4c
 2912 0102 DB000000 		.4byte	0xdb
 2913 0106 09       		.uleb128 0x9
 2914 0107 FE2D0000 		.4byte	.LASF21
 2915 010b 1B       		.byte	0x1b
 2916 010c 4D       		.byte	0x4d
 2917 010d 2B010000 		.4byte	0x12b
 2918 0111 00       		.byte	0
 2919 0112 0A       		.uleb128 0xa
 2920 0113 31290000 		.4byte	.LASF22
 2921 0117 1B       		.byte	0x1b
 2922 0118 49       		.byte	0x49
 2923 0119 94000000 		.4byte	0x94
 2924 011d 00       		.byte	0
 2925 011e 0A       		.uleb128 0xa
 2926 011f F75E0000 		.4byte	.LASF23
 2927 0123 1B       		.byte	0x1b
 2928 0124 4E       		.byte	0x4e
ARM GAS  /tmp/ccytVDiP.s 			page 53


 2929 0125 F3000000 		.4byte	0xf3
 2930 0129 04       		.byte	0x4
 2931 012a 00       		.byte	0
 2932 012b 0B       		.uleb128 0xb
 2933 012c 37000000 		.4byte	0x37
 2934 0130 3B010000 		.4byte	0x13b
 2935 0134 0C       		.uleb128 0xc
 2936 0135 3B010000 		.4byte	0x13b
 2937 0139 03       		.byte	0x3
 2938 013a 00       		.byte	0
 2939 013b 02       		.uleb128 0x2
 2940 013c 04       		.byte	0x4
 2941 013d 07       		.byte	0x7
 2942 013e D63E0000 		.4byte	.LASF24
 2943 0142 03       		.uleb128 0x3
 2944 0143 915C0000 		.4byte	.LASF25
 2945 0147 1B       		.byte	0x1b
 2946 0148 4F       		.byte	0x4f
 2947 0149 E7000000 		.4byte	0xe7
 2948 014d 03       		.uleb128 0x3
 2949 014e BF6B0000 		.4byte	.LASF26
 2950 0152 1B       		.byte	0x1b
 2951 0153 53       		.byte	0x53
 2952 0154 BA000000 		.4byte	0xba
 2953 0158 03       		.uleb128 0x3
 2954 0159 553D0000 		.4byte	.LASF27
 2955 015d 1C       		.byte	0x1c
 2956 015e 16       		.byte	0x16
 2957 015f 74000000 		.4byte	0x74
 2958 0163 0D       		.uleb128 0xd
 2959 0164 DD520000 		.4byte	.LASF32
 2960 0168 18       		.byte	0x18
 2961 0169 1C       		.byte	0x1c
 2962 016a 2D       		.byte	0x2d
 2963 016b B6010000 		.4byte	0x1b6
 2964 016f 0A       		.uleb128 0xa
 2965 0170 EB320000 		.4byte	.LASF28
 2966 0174 1C       		.byte	0x1c
 2967 0175 2F       		.byte	0x2f
 2968 0176 B6010000 		.4byte	0x1b6
 2969 017a 00       		.byte	0
 2970 017b 0E       		.uleb128 0xe
 2971 017c 5F6B00   		.ascii	"_k\000"
 2972 017f 1C       		.byte	0x1c
 2973 0180 30       		.byte	0x30
 2974 0181 94000000 		.4byte	0x94
 2975 0185 04       		.byte	0x4
 2976 0186 0A       		.uleb128 0xa
 2977 0187 D74B0000 		.4byte	.LASF29
 2978 018b 1C       		.byte	0x1c
 2979 018c 30       		.byte	0x30
 2980 018d 94000000 		.4byte	0x94
 2981 0191 08       		.byte	0x8
 2982 0192 0A       		.uleb128 0xa
 2983 0193 EF750000 		.4byte	.LASF30
 2984 0197 1C       		.byte	0x1c
 2985 0198 30       		.byte	0x30
ARM GAS  /tmp/ccytVDiP.s 			page 54


 2986 0199 94000000 		.4byte	0x94
 2987 019d 0C       		.byte	0xc
 2988 019e 0A       		.uleb128 0xa
 2989 019f F71D0000 		.4byte	.LASF31
 2990 01a3 1C       		.byte	0x1c
 2991 01a4 30       		.byte	0x30
 2992 01a5 94000000 		.4byte	0x94
 2993 01a9 10       		.byte	0x10
 2994 01aa 0E       		.uleb128 0xe
 2995 01ab 5F7800   		.ascii	"_x\000"
 2996 01ae 1C       		.byte	0x1c
 2997 01af 31       		.byte	0x31
 2998 01b0 BC010000 		.4byte	0x1bc
 2999 01b4 14       		.byte	0x14
 3000 01b5 00       		.byte	0
 3001 01b6 0F       		.uleb128 0xf
 3002 01b7 04       		.byte	0x4
 3003 01b8 63010000 		.4byte	0x163
 3004 01bc 0B       		.uleb128 0xb
 3005 01bd 74000000 		.4byte	0x74
 3006 01c1 CC010000 		.4byte	0x1cc
 3007 01c5 0C       		.uleb128 0xc
 3008 01c6 3B010000 		.4byte	0x13b
 3009 01ca 00       		.byte	0
 3010 01cb 00       		.byte	0
 3011 01cc 0D       		.uleb128 0xd
 3012 01cd 92180000 		.4byte	.LASF33
 3013 01d1 24       		.byte	0x24
 3014 01d2 1C       		.byte	0x1c
 3015 01d3 35       		.byte	0x35
 3016 01d4 45020000 		.4byte	0x245
 3017 01d8 0A       		.uleb128 0xa
 3018 01d9 C3370000 		.4byte	.LASF34
 3019 01dd 1C       		.byte	0x1c
 3020 01de 37       		.byte	0x37
 3021 01df 94000000 		.4byte	0x94
 3022 01e3 00       		.byte	0
 3023 01e4 0A       		.uleb128 0xa
 3024 01e5 0E760000 		.4byte	.LASF35
 3025 01e9 1C       		.byte	0x1c
 3026 01ea 38       		.byte	0x38
 3027 01eb 94000000 		.4byte	0x94
 3028 01ef 04       		.byte	0x4
 3029 01f0 0A       		.uleb128 0xa
 3030 01f1 5F2E0000 		.4byte	.LASF36
 3031 01f5 1C       		.byte	0x1c
 3032 01f6 39       		.byte	0x39
 3033 01f7 94000000 		.4byte	0x94
 3034 01fb 08       		.byte	0x8
 3035 01fc 0A       		.uleb128 0xa
 3036 01fd 28300000 		.4byte	.LASF37
 3037 0201 1C       		.byte	0x1c
 3038 0202 3A       		.byte	0x3a
 3039 0203 94000000 		.4byte	0x94
 3040 0207 0C       		.byte	0xc
 3041 0208 0A       		.uleb128 0xa
 3042 0209 4E050000 		.4byte	.LASF38
ARM GAS  /tmp/ccytVDiP.s 			page 55


 3043 020d 1C       		.byte	0x1c
 3044 020e 3B       		.byte	0x3b
 3045 020f 94000000 		.4byte	0x94
 3046 0213 10       		.byte	0x10
 3047 0214 0A       		.uleb128 0xa
 3048 0215 28220000 		.4byte	.LASF39
 3049 0219 1C       		.byte	0x1c
 3050 021a 3C       		.byte	0x3c
 3051 021b 94000000 		.4byte	0x94
 3052 021f 14       		.byte	0x14
 3053 0220 0A       		.uleb128 0xa
 3054 0221 481C0000 		.4byte	.LASF40
 3055 0225 1C       		.byte	0x1c
 3056 0226 3D       		.byte	0x3d
 3057 0227 94000000 		.4byte	0x94
 3058 022b 18       		.byte	0x18
 3059 022c 0A       		.uleb128 0xa
 3060 022d FD180000 		.4byte	.LASF41
 3061 0231 1C       		.byte	0x1c
 3062 0232 3E       		.byte	0x3e
 3063 0233 94000000 		.4byte	0x94
 3064 0237 1C       		.byte	0x1c
 3065 0238 0A       		.uleb128 0xa
 3066 0239 521C0000 		.4byte	.LASF42
 3067 023d 1C       		.byte	0x1c
 3068 023e 3F       		.byte	0x3f
 3069 023f 94000000 		.4byte	0x94
 3070 0243 20       		.byte	0x20
 3071 0244 00       		.byte	0
 3072 0245 10       		.uleb128 0x10
 3073 0246 0E380000 		.4byte	.LASF43
 3074 024a 0801     		.2byte	0x108
 3075 024c 1C       		.byte	0x1c
 3076 024d 48       		.byte	0x48
 3077 024e 85020000 		.4byte	0x285
 3078 0252 0A       		.uleb128 0xa
 3079 0253 15310000 		.4byte	.LASF44
 3080 0257 1C       		.byte	0x1c
 3081 0258 49       		.byte	0x49
 3082 0259 85020000 		.4byte	0x285
 3083 025d 00       		.byte	0
 3084 025e 0A       		.uleb128 0xa
 3085 025f 2E1C0000 		.4byte	.LASF45
 3086 0263 1C       		.byte	0x1c
 3087 0264 4A       		.byte	0x4a
 3088 0265 85020000 		.4byte	0x285
 3089 0269 80       		.byte	0x80
 3090 026a 11       		.uleb128 0x11
 3091 026b 57050000 		.4byte	.LASF46
 3092 026f 1C       		.byte	0x1c
 3093 0270 4C       		.byte	0x4c
 3094 0271 58010000 		.4byte	0x158
 3095 0275 0001     		.2byte	0x100
 3096 0277 11       		.uleb128 0x11
 3097 0278 2B5F0000 		.4byte	.LASF47
 3098 027c 1C       		.byte	0x1c
 3099 027d 4F       		.byte	0x4f
ARM GAS  /tmp/ccytVDiP.s 			page 56


 3100 027e 58010000 		.4byte	0x158
 3101 0282 0401     		.2byte	0x104
 3102 0284 00       		.byte	0
 3103 0285 0B       		.uleb128 0xb
 3104 0286 B8000000 		.4byte	0xb8
 3105 028a 95020000 		.4byte	0x295
 3106 028e 0C       		.uleb128 0xc
 3107 028f 3B010000 		.4byte	0x13b
 3108 0293 1F       		.byte	0x1f
 3109 0294 00       		.byte	0
 3110 0295 10       		.uleb128 0x10
 3111 0296 5F030000 		.4byte	.LASF48
 3112 029a 9001     		.2byte	0x190
 3113 029c 1C       		.byte	0x1c
 3114 029d 5B       		.byte	0x5b
 3115 029e D3020000 		.4byte	0x2d3
 3116 02a2 0A       		.uleb128 0xa
 3117 02a3 EB320000 		.4byte	.LASF28
 3118 02a7 1C       		.byte	0x1c
 3119 02a8 5C       		.byte	0x5c
 3120 02a9 D3020000 		.4byte	0x2d3
 3121 02ad 00       		.byte	0
 3122 02ae 0A       		.uleb128 0xa
 3123 02af FB050000 		.4byte	.LASF49
 3124 02b3 1C       		.byte	0x1c
 3125 02b4 5D       		.byte	0x5d
 3126 02b5 94000000 		.4byte	0x94
 3127 02b9 04       		.byte	0x4
 3128 02ba 0A       		.uleb128 0xa
 3129 02bb E65B0000 		.4byte	.LASF50
 3130 02bf 1C       		.byte	0x1c
 3131 02c0 5F       		.byte	0x5f
 3132 02c1 D9020000 		.4byte	0x2d9
 3133 02c5 08       		.byte	0x8
 3134 02c6 0A       		.uleb128 0xa
 3135 02c7 0E380000 		.4byte	.LASF43
 3136 02cb 1C       		.byte	0x1c
 3137 02cc 60       		.byte	0x60
 3138 02cd 45020000 		.4byte	0x245
 3139 02d1 88       		.byte	0x88
 3140 02d2 00       		.byte	0
 3141 02d3 0F       		.uleb128 0xf
 3142 02d4 04       		.byte	0x4
 3143 02d5 95020000 		.4byte	0x295
 3144 02d9 0B       		.uleb128 0xb
 3145 02da E9020000 		.4byte	0x2e9
 3146 02de E9020000 		.4byte	0x2e9
 3147 02e2 0C       		.uleb128 0xc
 3148 02e3 3B010000 		.4byte	0x13b
 3149 02e7 1F       		.byte	0x1f
 3150 02e8 00       		.byte	0
 3151 02e9 0F       		.uleb128 0xf
 3152 02ea 04       		.byte	0x4
 3153 02eb EF020000 		.4byte	0x2ef
 3154 02ef 12       		.uleb128 0x12
 3155 02f0 0D       		.uleb128 0xd
 3156 02f1 82440000 		.4byte	.LASF51
ARM GAS  /tmp/ccytVDiP.s 			page 57


 3157 02f5 08       		.byte	0x8
 3158 02f6 1C       		.byte	0x1c
 3159 02f7 73       		.byte	0x73
 3160 02f8 15030000 		.4byte	0x315
 3161 02fc 0A       		.uleb128 0xa
 3162 02fd 64160000 		.4byte	.LASF52
 3163 0301 1C       		.byte	0x1c
 3164 0302 74       		.byte	0x74
 3165 0303 15030000 		.4byte	0x315
 3166 0307 00       		.byte	0
 3167 0308 0A       		.uleb128 0xa
 3168 0309 081F0000 		.4byte	.LASF53
 3169 030d 1C       		.byte	0x1c
 3170 030e 75       		.byte	0x75
 3171 030f 94000000 		.4byte	0x94
 3172 0313 04       		.byte	0x4
 3173 0314 00       		.byte	0
 3174 0315 0F       		.uleb128 0xf
 3175 0316 04       		.byte	0x4
 3176 0317 37000000 		.4byte	0x37
 3177 031b 0D       		.uleb128 0xd
 3178 031c 925B0000 		.4byte	.LASF54
 3179 0320 68       		.byte	0x68
 3180 0321 1C       		.byte	0x1c
 3181 0322 B3       		.byte	0xb3
 3182 0323 45040000 		.4byte	0x445
 3183 0327 0E       		.uleb128 0xe
 3184 0328 5F7000   		.ascii	"_p\000"
 3185 032b 1C       		.byte	0x1c
 3186 032c B4       		.byte	0xb4
 3187 032d 15030000 		.4byte	0x315
 3188 0331 00       		.byte	0
 3189 0332 0E       		.uleb128 0xe
 3190 0333 5F7200   		.ascii	"_r\000"
 3191 0336 1C       		.byte	0x1c
 3192 0337 B5       		.byte	0xb5
 3193 0338 94000000 		.4byte	0x94
 3194 033c 04       		.byte	0x4
 3195 033d 0E       		.uleb128 0xe
 3196 033e 5F7700   		.ascii	"_w\000"
 3197 0341 1C       		.byte	0x1c
 3198 0342 B6       		.byte	0xb6
 3199 0343 94000000 		.4byte	0x94
 3200 0347 08       		.byte	0x8
 3201 0348 0A       		.uleb128 0xa
 3202 0349 18070000 		.4byte	.LASF55
 3203 034d 1C       		.byte	0x1c
 3204 034e B7       		.byte	0xb7
 3205 034f 3E000000 		.4byte	0x3e
 3206 0353 0C       		.byte	0xc
 3207 0354 0A       		.uleb128 0xa
 3208 0355 F15A0000 		.4byte	.LASF56
 3209 0359 1C       		.byte	0x1c
 3210 035a B8       		.byte	0xb8
 3211 035b 3E000000 		.4byte	0x3e
 3212 035f 0E       		.byte	0xe
 3213 0360 0E       		.uleb128 0xe
ARM GAS  /tmp/ccytVDiP.s 			page 58


 3214 0361 5F626600 		.ascii	"_bf\000"
 3215 0365 1C       		.byte	0x1c
 3216 0366 B9       		.byte	0xb9
 3217 0367 F0020000 		.4byte	0x2f0
 3218 036b 10       		.byte	0x10
 3219 036c 0A       		.uleb128 0xa
 3220 036d 4D110000 		.4byte	.LASF57
 3221 0371 1C       		.byte	0x1c
 3222 0372 BA       		.byte	0xba
 3223 0373 94000000 		.4byte	0x94
 3224 0377 18       		.byte	0x18
 3225 0378 0A       		.uleb128 0xa
 3226 0379 F4330000 		.4byte	.LASF58
 3227 037d 1C       		.byte	0x1c
 3228 037e C1       		.byte	0xc1
 3229 037f B8000000 		.4byte	0xb8
 3230 0383 1C       		.byte	0x1c
 3231 0384 0A       		.uleb128 0xa
 3232 0385 24790000 		.4byte	.LASF59
 3233 0389 1C       		.byte	0x1c
 3234 038a C3       		.byte	0xc3
 3235 038b EF060000 		.4byte	0x6ef
 3236 038f 20       		.byte	0x20
 3237 0390 0A       		.uleb128 0xa
 3238 0391 951F0000 		.4byte	.LASF60
 3239 0395 1C       		.byte	0x1c
 3240 0396 C5       		.byte	0xc5
 3241 0397 1E070000 		.4byte	0x71e
 3242 039b 24       		.byte	0x24
 3243 039c 0A       		.uleb128 0xa
 3244 039d 063F0000 		.4byte	.LASF61
 3245 03a1 1C       		.byte	0x1c
 3246 03a2 C8       		.byte	0xc8
 3247 03a3 42070000 		.4byte	0x742
 3248 03a7 28       		.byte	0x28
 3249 03a8 0A       		.uleb128 0xa
 3250 03a9 83500000 		.4byte	.LASF62
 3251 03ad 1C       		.byte	0x1c
 3252 03ae C9       		.byte	0xc9
 3253 03af 5C070000 		.4byte	0x75c
 3254 03b3 2C       		.byte	0x2c
 3255 03b4 0E       		.uleb128 0xe
 3256 03b5 5F756200 		.ascii	"_ub\000"
 3257 03b9 1C       		.byte	0x1c
 3258 03ba CC       		.byte	0xcc
 3259 03bb F0020000 		.4byte	0x2f0
 3260 03bf 30       		.byte	0x30
 3261 03c0 0E       		.uleb128 0xe
 3262 03c1 5F757000 		.ascii	"_up\000"
 3263 03c5 1C       		.byte	0x1c
 3264 03c6 CD       		.byte	0xcd
 3265 03c7 15030000 		.4byte	0x315
 3266 03cb 38       		.byte	0x38
 3267 03cc 0E       		.uleb128 0xe
 3268 03cd 5F757200 		.ascii	"_ur\000"
 3269 03d1 1C       		.byte	0x1c
 3270 03d2 CE       		.byte	0xce
ARM GAS  /tmp/ccytVDiP.s 			page 59


 3271 03d3 94000000 		.4byte	0x94
 3272 03d7 3C       		.byte	0x3c
 3273 03d8 0A       		.uleb128 0xa
 3274 03d9 81590000 		.4byte	.LASF63
 3275 03dd 1C       		.byte	0x1c
 3276 03de D1       		.byte	0xd1
 3277 03df 62070000 		.4byte	0x762
 3278 03e3 40       		.byte	0x40
 3279 03e4 0A       		.uleb128 0xa
 3280 03e5 190A0000 		.4byte	.LASF64
 3281 03e9 1C       		.byte	0x1c
 3282 03ea D2       		.byte	0xd2
 3283 03eb 72070000 		.4byte	0x772
 3284 03ef 43       		.byte	0x43
 3285 03f0 0E       		.uleb128 0xe
 3286 03f1 5F6C6200 		.ascii	"_lb\000"
 3287 03f5 1C       		.byte	0x1c
 3288 03f6 D5       		.byte	0xd5
 3289 03f7 F0020000 		.4byte	0x2f0
 3290 03fb 44       		.byte	0x44
 3291 03fc 0A       		.uleb128 0xa
 3292 03fd 35590000 		.4byte	.LASF65
 3293 0401 1C       		.byte	0x1c
 3294 0402 D8       		.byte	0xd8
 3295 0403 94000000 		.4byte	0x94
 3296 0407 4C       		.byte	0x4c
 3297 0408 0A       		.uleb128 0xa
 3298 0409 77430000 		.4byte	.LASF66
 3299 040d 1C       		.byte	0x1c
 3300 040e D9       		.byte	0xd9
 3301 040f C5000000 		.4byte	0xc5
 3302 0413 50       		.byte	0x50
 3303 0414 0A       		.uleb128 0xa
 3304 0415 95130000 		.4byte	.LASF67
 3305 0419 1C       		.byte	0x1c
 3306 041a DC       		.byte	0xdc
 3307 041b 63040000 		.4byte	0x463
 3308 041f 54       		.byte	0x54
 3309 0420 0A       		.uleb128 0xa
 3310 0421 130A0000 		.4byte	.LASF68
 3311 0425 1C       		.byte	0x1c
 3312 0426 E0       		.byte	0xe0
 3313 0427 4D010000 		.4byte	0x14d
 3314 042b 58       		.byte	0x58
 3315 042c 0A       		.uleb128 0xa
 3316 042d 23030000 		.4byte	.LASF69
 3317 0431 1C       		.byte	0x1c
 3318 0432 E2       		.byte	0xe2
 3319 0433 42010000 		.4byte	0x142
 3320 0437 5C       		.byte	0x5c
 3321 0438 0A       		.uleb128 0xa
 3322 0439 AA6E0000 		.4byte	.LASF70
 3323 043d 1C       		.byte	0x1c
 3324 043e E3       		.byte	0xe3
 3325 043f 94000000 		.4byte	0x94
 3326 0443 64       		.byte	0x64
 3327 0444 00       		.byte	0
ARM GAS  /tmp/ccytVDiP.s 			page 60


 3328 0445 13       		.uleb128 0x13
 3329 0446 94000000 		.4byte	0x94
 3330 044a 63040000 		.4byte	0x463
 3331 044e 14       		.uleb128 0x14
 3332 044f 63040000 		.4byte	0x463
 3333 0453 14       		.uleb128 0x14
 3334 0454 B8000000 		.4byte	0xb8
 3335 0458 14       		.uleb128 0x14
 3336 0459 E2060000 		.4byte	0x6e2
 3337 045d 14       		.uleb128 0x14
 3338 045e 94000000 		.4byte	0x94
 3339 0462 00       		.byte	0
 3340 0463 0F       		.uleb128 0xf
 3341 0464 04       		.byte	0x4
 3342 0465 69040000 		.4byte	0x469
 3343 0469 15       		.uleb128 0x15
 3344 046a 66150000 		.4byte	.LASF71
 3345 046e 2804     		.2byte	0x428
 3346 0470 1C       		.byte	0x1c
 3347 0471 3902     		.2byte	0x239
 3348 0473 E2060000 		.4byte	0x6e2
 3349 0477 16       		.uleb128 0x16
 3350 0478 F0       		.byte	0xf0
 3351 0479 1C       		.byte	0x1c
 3352 047a 5702     		.2byte	0x257
 3353 047c BE050000 		.4byte	0x5be
 3354 0480 17       		.uleb128 0x17
 3355 0481 D0       		.byte	0xd0
 3356 0482 1C       		.byte	0x1c
 3357 0483 5902     		.2byte	0x259
 3358 0485 81050000 		.4byte	0x581
 3359 0489 18       		.uleb128 0x18
 3360 048a 071A0000 		.4byte	.LASF72
 3361 048e 1C       		.byte	0x1c
 3362 048f 5A02     		.2byte	0x25a
 3363 0491 A6000000 		.4byte	0xa6
 3364 0495 00       		.byte	0
 3365 0496 18       		.uleb128 0x18
 3366 0497 4A3E0000 		.4byte	.LASF73
 3367 049b 1C       		.byte	0x1c
 3368 049c 5B02     		.2byte	0x25b
 3369 049e E2060000 		.4byte	0x6e2
 3370 04a2 04       		.byte	0x4
 3371 04a3 18       		.uleb128 0x18
 3372 04a4 2D470000 		.4byte	.LASF74
 3373 04a8 1C       		.byte	0x1c
 3374 04a9 5C02     		.2byte	0x25c
 3375 04ab 14080000 		.4byte	0x814
 3376 04af 08       		.byte	0x8
 3377 04b0 18       		.uleb128 0x18
 3378 04b1 5C280000 		.4byte	.LASF75
 3379 04b5 1C       		.byte	0x1c
 3380 04b6 5D02     		.2byte	0x25d
 3381 04b8 CC010000 		.4byte	0x1cc
 3382 04bc 24       		.byte	0x24
 3383 04bd 18       		.uleb128 0x18
 3384 04be 34660000 		.4byte	.LASF76
ARM GAS  /tmp/ccytVDiP.s 			page 61


 3385 04c2 1C       		.byte	0x1c
 3386 04c3 5E02     		.2byte	0x25e
 3387 04c5 94000000 		.4byte	0x94
 3388 04c9 48       		.byte	0x48
 3389 04ca 18       		.uleb128 0x18
 3390 04cb 154B0000 		.4byte	.LASF77
 3391 04cf 1C       		.byte	0x1c
 3392 04d0 5F02     		.2byte	0x25f
 3393 04d2 8D000000 		.4byte	0x8d
 3394 04d6 50       		.byte	0x50
 3395 04d7 18       		.uleb128 0x18
 3396 04d8 42780000 		.4byte	.LASF78
 3397 04dc 1C       		.byte	0x1c
 3398 04dd 6002     		.2byte	0x260
 3399 04df CF070000 		.4byte	0x7cf
 3400 04e3 58       		.byte	0x58
 3401 04e4 18       		.uleb128 0x18
 3402 04e5 99590000 		.4byte	.LASF79
 3403 04e9 1C       		.byte	0x1c
 3404 04ea 6102     		.2byte	0x261
 3405 04ec 42010000 		.4byte	0x142
 3406 04f0 68       		.byte	0x68
 3407 04f1 18       		.uleb128 0x18
 3408 04f2 A7160000 		.4byte	.LASF80
 3409 04f6 1C       		.byte	0x1c
 3410 04f7 6202     		.2byte	0x262
 3411 04f9 42010000 		.4byte	0x142
 3412 04fd 70       		.byte	0x70
 3413 04fe 18       		.uleb128 0x18
 3414 04ff 46490000 		.4byte	.LASF81
 3415 0503 1C       		.byte	0x1c
 3416 0504 6302     		.2byte	0x263
 3417 0506 42010000 		.4byte	0x142
 3418 050a 78       		.byte	0x78
 3419 050b 18       		.uleb128 0x18
 3420 050c 10450000 		.4byte	.LASF82
 3421 0510 1C       		.byte	0x1c
 3422 0511 6402     		.2byte	0x264
 3423 0513 24080000 		.4byte	0x824
 3424 0517 80       		.byte	0x80
 3425 0518 18       		.uleb128 0x18
 3426 0519 54330000 		.4byte	.LASF83
 3427 051d 1C       		.byte	0x1c
 3428 051e 6502     		.2byte	0x265
 3429 0520 34080000 		.4byte	0x834
 3430 0524 88       		.byte	0x88
 3431 0525 18       		.uleb128 0x18
 3432 0526 4F560000 		.4byte	.LASF84
 3433 052a 1C       		.byte	0x1c
 3434 052b 6602     		.2byte	0x266
 3435 052d 94000000 		.4byte	0x94
 3436 0531 A0       		.byte	0xa0
 3437 0532 18       		.uleb128 0x18
 3438 0533 50240000 		.4byte	.LASF85
 3439 0537 1C       		.byte	0x1c
 3440 0538 6702     		.2byte	0x267
 3441 053a 42010000 		.4byte	0x142
ARM GAS  /tmp/ccytVDiP.s 			page 62


 3442 053e A4       		.byte	0xa4
 3443 053f 18       		.uleb128 0x18
 3444 0540 052E0000 		.4byte	.LASF86
 3445 0544 1C       		.byte	0x1c
 3446 0545 6802     		.2byte	0x268
 3447 0547 42010000 		.4byte	0x142
 3448 054b AC       		.byte	0xac
 3449 054c 18       		.uleb128 0x18
 3450 054d BC1D0000 		.4byte	.LASF87
 3451 0551 1C       		.byte	0x1c
 3452 0552 6902     		.2byte	0x269
 3453 0554 42010000 		.4byte	0x142
 3454 0558 B4       		.byte	0xb4
 3455 0559 18       		.uleb128 0x18
 3456 055a D7390000 		.4byte	.LASF88
 3457 055e 1C       		.byte	0x1c
 3458 055f 6A02     		.2byte	0x26a
 3459 0561 42010000 		.4byte	0x142
 3460 0565 BC       		.byte	0xbc
 3461 0566 18       		.uleb128 0x18
 3462 0567 A8470000 		.4byte	.LASF89
 3463 056b 1C       		.byte	0x1c
 3464 056c 6B02     		.2byte	0x26b
 3465 056e 42010000 		.4byte	0x142
 3466 0572 C4       		.byte	0xc4
 3467 0573 18       		.uleb128 0x18
 3468 0574 9C5C0000 		.4byte	.LASF90
 3469 0578 1C       		.byte	0x1c
 3470 0579 6C02     		.2byte	0x26c
 3471 057b 94000000 		.4byte	0x94
 3472 057f CC       		.byte	0xcc
 3473 0580 00       		.byte	0
 3474 0581 17       		.uleb128 0x17
 3475 0582 F0       		.byte	0xf0
 3476 0583 1C       		.byte	0x1c
 3477 0584 7202     		.2byte	0x272
 3478 0586 A5050000 		.4byte	0x5a5
 3479 058a 18       		.uleb128 0x18
 3480 058b 084B0000 		.4byte	.LASF91
 3481 058f 1C       		.byte	0x1c
 3482 0590 7402     		.2byte	0x274
 3483 0592 44080000 		.4byte	0x844
 3484 0596 00       		.byte	0
 3485 0597 18       		.uleb128 0x18
 3486 0598 D5250000 		.4byte	.LASF92
 3487 059c 1C       		.byte	0x1c
 3488 059d 7502     		.2byte	0x275
 3489 059f 54080000 		.4byte	0x854
 3490 05a3 78       		.byte	0x78
 3491 05a4 00       		.byte	0
 3492 05a5 19       		.uleb128 0x19
 3493 05a6 66150000 		.4byte	.LASF71
 3494 05aa 1C       		.byte	0x1c
 3495 05ab 6D02     		.2byte	0x26d
 3496 05ad 80040000 		.4byte	0x480
 3497 05b1 19       		.uleb128 0x19
 3498 05b2 480A0000 		.4byte	.LASF93
ARM GAS  /tmp/ccytVDiP.s 			page 63


 3499 05b6 1C       		.byte	0x1c
 3500 05b7 7602     		.2byte	0x276
 3501 05b9 81050000 		.4byte	0x581
 3502 05bd 00       		.byte	0
 3503 05be 18       		.uleb128 0x18
 3504 05bf E02F0000 		.4byte	.LASF94
 3505 05c3 1C       		.byte	0x1c
 3506 05c4 3B02     		.2byte	0x23b
 3507 05c6 94000000 		.4byte	0x94
 3508 05ca 00       		.byte	0
 3509 05cb 18       		.uleb128 0x18
 3510 05cc B8250000 		.4byte	.LASF95
 3511 05d0 1C       		.byte	0x1c
 3512 05d1 4002     		.2byte	0x240
 3513 05d3 C9070000 		.4byte	0x7c9
 3514 05d7 04       		.byte	0x4
 3515 05d8 18       		.uleb128 0x18
 3516 05d9 491D0000 		.4byte	.LASF96
 3517 05dd 1C       		.byte	0x1c
 3518 05de 4002     		.2byte	0x240
 3519 05e0 C9070000 		.4byte	0x7c9
 3520 05e4 08       		.byte	0x8
 3521 05e5 18       		.uleb128 0x18
 3522 05e6 061C0000 		.4byte	.LASF97
 3523 05ea 1C       		.byte	0x1c
 3524 05eb 4002     		.2byte	0x240
 3525 05ed C9070000 		.4byte	0x7c9
 3526 05f1 0C       		.byte	0xc
 3527 05f2 18       		.uleb128 0x18
 3528 05f3 F6050000 		.4byte	.LASF98
 3529 05f7 1C       		.byte	0x1c
 3530 05f8 4202     		.2byte	0x242
 3531 05fa 94000000 		.4byte	0x94
 3532 05fe 10       		.byte	0x10
 3533 05ff 18       		.uleb128 0x18
 3534 0600 C74A0000 		.4byte	.LASF99
 3535 0604 1C       		.byte	0x1c
 3536 0605 4302     		.2byte	0x243
 3537 0607 64080000 		.4byte	0x864
 3538 060b 14       		.byte	0x14
 3539 060c 18       		.uleb128 0x18
 3540 060d 5C670000 		.4byte	.LASF100
 3541 0611 1C       		.byte	0x1c
 3542 0612 4502     		.2byte	0x245
 3543 0614 94000000 		.4byte	0x94
 3544 0618 30       		.byte	0x30
 3545 0619 18       		.uleb128 0x18
 3546 061a BA0C0000 		.4byte	.LASF101
 3547 061e 1C       		.byte	0x1c
 3548 061f 4602     		.2byte	0x246
 3549 0621 13070000 		.4byte	0x713
 3550 0625 34       		.byte	0x34
 3551 0626 18       		.uleb128 0x18
 3552 0627 BA6A0000 		.4byte	.LASF102
 3553 062b 1C       		.byte	0x1c
 3554 062c 4802     		.2byte	0x248
 3555 062e 94000000 		.4byte	0x94
ARM GAS  /tmp/ccytVDiP.s 			page 64


 3556 0632 38       		.byte	0x38
 3557 0633 18       		.uleb128 0x18
 3558 0634 495A0000 		.4byte	.LASF103
 3559 0638 1C       		.byte	0x1c
 3560 0639 4A02     		.2byte	0x24a
 3561 063b 7F080000 		.4byte	0x87f
 3562 063f 3C       		.byte	0x3c
 3563 0640 18       		.uleb128 0x18
 3564 0641 0E1C0000 		.4byte	.LASF104
 3565 0645 1C       		.byte	0x1c
 3566 0646 4D02     		.2byte	0x24d
 3567 0648 B6010000 		.4byte	0x1b6
 3568 064c 40       		.byte	0x40
 3569 064d 18       		.uleb128 0x18
 3570 064e F71B0000 		.4byte	.LASF105
 3571 0652 1C       		.byte	0x1c
 3572 0653 4E02     		.2byte	0x24e
 3573 0655 94000000 		.4byte	0x94
 3574 0659 44       		.byte	0x44
 3575 065a 18       		.uleb128 0x18
 3576 065b 33600000 		.4byte	.LASF106
 3577 065f 1C       		.byte	0x1c
 3578 0660 4F02     		.2byte	0x24f
 3579 0662 B6010000 		.4byte	0x1b6
 3580 0666 48       		.byte	0x48
 3581 0667 18       		.uleb128 0x18
 3582 0668 95410000 		.4byte	.LASF107
 3583 066c 1C       		.byte	0x1c
 3584 066d 5002     		.2byte	0x250
 3585 066f 85080000 		.4byte	0x885
 3586 0673 4C       		.byte	0x4c
 3587 0674 18       		.uleb128 0x18
 3588 0675 27080000 		.4byte	.LASF108
 3589 0679 1C       		.byte	0x1c
 3590 067a 5302     		.2byte	0x253
 3591 067c 94000000 		.4byte	0x94
 3592 0680 50       		.byte	0x50
 3593 0681 18       		.uleb128 0x18
 3594 0682 AC2B0000 		.4byte	.LASF109
 3595 0686 1C       		.byte	0x1c
 3596 0687 5402     		.2byte	0x254
 3597 0689 E2060000 		.4byte	0x6e2
 3598 068d 54       		.byte	0x54
 3599 068e 18       		.uleb128 0x18
 3600 068f D32E0000 		.4byte	.LASF110
 3601 0693 1C       		.byte	0x1c
 3602 0694 7702     		.2byte	0x277
 3603 0696 77040000 		.4byte	0x477
 3604 069a 58       		.byte	0x58
 3605 069b 1A       		.uleb128 0x1a
 3606 069c 5F030000 		.4byte	.LASF48
 3607 06a0 1C       		.byte	0x1c
 3608 06a1 7B02     		.2byte	0x27b
 3609 06a3 D3020000 		.4byte	0x2d3
 3610 06a7 4801     		.2byte	0x148
 3611 06a9 1A       		.uleb128 0x1a
 3612 06aa 80540000 		.4byte	.LASF111
ARM GAS  /tmp/ccytVDiP.s 			page 65


 3613 06ae 1C       		.byte	0x1c
 3614 06af 7C02     		.2byte	0x27c
 3615 06b1 95020000 		.4byte	0x295
 3616 06b5 4C01     		.2byte	0x14c
 3617 06b7 1A       		.uleb128 0x1a
 3618 06b8 83080000 		.4byte	.LASF112
 3619 06bc 1C       		.byte	0x1c
 3620 06bd 8002     		.2byte	0x280
 3621 06bf 96080000 		.4byte	0x896
 3622 06c3 DC02     		.2byte	0x2dc
 3623 06c5 1A       		.uleb128 0x1a
 3624 06c6 A6590000 		.4byte	.LASF113
 3625 06ca 1C       		.byte	0x1c
 3626 06cb 8502     		.2byte	0x285
 3627 06cd 8E070000 		.4byte	0x78e
 3628 06d1 E002     		.2byte	0x2e0
 3629 06d3 1A       		.uleb128 0x1a
 3630 06d4 F2150000 		.4byte	.LASF114
 3631 06d8 1C       		.byte	0x1c
 3632 06d9 8602     		.2byte	0x286
 3633 06db A2080000 		.4byte	0x8a2
 3634 06df EC02     		.2byte	0x2ec
 3635 06e1 00       		.byte	0
 3636 06e2 0F       		.uleb128 0xf
 3637 06e3 04       		.byte	0x4
 3638 06e4 E8060000 		.4byte	0x6e8
 3639 06e8 02       		.uleb128 0x2
 3640 06e9 01       		.byte	0x1
 3641 06ea 08       		.byte	0x8
 3642 06eb 93500000 		.4byte	.LASF115
 3643 06ef 0F       		.uleb128 0xf
 3644 06f0 04       		.byte	0x4
 3645 06f1 45040000 		.4byte	0x445
 3646 06f5 13       		.uleb128 0x13
 3647 06f6 94000000 		.4byte	0x94
 3648 06fa 13070000 		.4byte	0x713
 3649 06fe 14       		.uleb128 0x14
 3650 06ff 63040000 		.4byte	0x463
 3651 0703 14       		.uleb128 0x14
 3652 0704 B8000000 		.4byte	0xb8
 3653 0708 14       		.uleb128 0x14
 3654 0709 13070000 		.4byte	0x713
 3655 070d 14       		.uleb128 0x14
 3656 070e 94000000 		.4byte	0x94
 3657 0712 00       		.byte	0
 3658 0713 0F       		.uleb128 0xf
 3659 0714 04       		.byte	0x4
 3660 0715 19070000 		.4byte	0x719
 3661 0719 1B       		.uleb128 0x1b
 3662 071a E8060000 		.4byte	0x6e8
 3663 071e 0F       		.uleb128 0xf
 3664 071f 04       		.byte	0x4
 3665 0720 F5060000 		.4byte	0x6f5
 3666 0724 13       		.uleb128 0x13
 3667 0725 D0000000 		.4byte	0xd0
 3668 0729 42070000 		.4byte	0x742
 3669 072d 14       		.uleb128 0x14
ARM GAS  /tmp/ccytVDiP.s 			page 66


 3670 072e 63040000 		.4byte	0x463
 3671 0732 14       		.uleb128 0x14
 3672 0733 B8000000 		.4byte	0xb8
 3673 0737 14       		.uleb128 0x14
 3674 0738 D0000000 		.4byte	0xd0
 3675 073c 14       		.uleb128 0x14
 3676 073d 94000000 		.4byte	0x94
 3677 0741 00       		.byte	0
 3678 0742 0F       		.uleb128 0xf
 3679 0743 04       		.byte	0x4
 3680 0744 24070000 		.4byte	0x724
 3681 0748 13       		.uleb128 0x13
 3682 0749 94000000 		.4byte	0x94
 3683 074d 5C070000 		.4byte	0x75c
 3684 0751 14       		.uleb128 0x14
 3685 0752 63040000 		.4byte	0x463
 3686 0756 14       		.uleb128 0x14
 3687 0757 B8000000 		.4byte	0xb8
 3688 075b 00       		.byte	0
 3689 075c 0F       		.uleb128 0xf
 3690 075d 04       		.byte	0x4
 3691 075e 48070000 		.4byte	0x748
 3692 0762 0B       		.uleb128 0xb
 3693 0763 37000000 		.4byte	0x37
 3694 0767 72070000 		.4byte	0x772
 3695 076b 0C       		.uleb128 0xc
 3696 076c 3B010000 		.4byte	0x13b
 3697 0770 02       		.byte	0x2
 3698 0771 00       		.byte	0
 3699 0772 0B       		.uleb128 0xb
 3700 0773 37000000 		.4byte	0x37
 3701 0777 82070000 		.4byte	0x782
 3702 077b 0C       		.uleb128 0xc
 3703 077c 3B010000 		.4byte	0x13b
 3704 0780 00       		.byte	0
 3705 0781 00       		.byte	0
 3706 0782 06       		.uleb128 0x6
 3707 0783 3C750000 		.4byte	.LASF116
 3708 0787 1C       		.byte	0x1c
 3709 0788 1D01     		.2byte	0x11d
 3710 078a 1B030000 		.4byte	0x31b
 3711 078e 1C       		.uleb128 0x1c
 3712 078f D2500000 		.4byte	.LASF117
 3713 0793 0C       		.byte	0xc
 3714 0794 1C       		.byte	0x1c
 3715 0795 2101     		.2byte	0x121
 3716 0797 C3070000 		.4byte	0x7c3
 3717 079b 18       		.uleb128 0x18
 3718 079c EB320000 		.4byte	.LASF28
 3719 07a0 1C       		.byte	0x1c
 3720 07a1 2301     		.2byte	0x123
 3721 07a3 C3070000 		.4byte	0x7c3
 3722 07a7 00       		.byte	0
 3723 07a8 18       		.uleb128 0x18
 3724 07a9 022F0000 		.4byte	.LASF118
 3725 07ad 1C       		.byte	0x1c
 3726 07ae 2401     		.2byte	0x124
ARM GAS  /tmp/ccytVDiP.s 			page 67


 3727 07b0 94000000 		.4byte	0x94
 3728 07b4 04       		.byte	0x4
 3729 07b5 18       		.uleb128 0x18
 3730 07b6 C14A0000 		.4byte	.LASF119
 3731 07ba 1C       		.byte	0x1c
 3732 07bb 2501     		.2byte	0x125
 3733 07bd C9070000 		.4byte	0x7c9
 3734 07c1 08       		.byte	0x8
 3735 07c2 00       		.byte	0
 3736 07c3 0F       		.uleb128 0xf
 3737 07c4 04       		.byte	0x4
 3738 07c5 8E070000 		.4byte	0x78e
 3739 07c9 0F       		.uleb128 0xf
 3740 07ca 04       		.byte	0x4
 3741 07cb 82070000 		.4byte	0x782
 3742 07cf 1C       		.uleb128 0x1c
 3743 07d0 60790000 		.4byte	.LASF120
 3744 07d4 0E       		.byte	0xe
 3745 07d5 1C       		.byte	0x1c
 3746 07d6 3D01     		.2byte	0x13d
 3747 07d8 04080000 		.4byte	0x804
 3748 07dc 18       		.uleb128 0x18
 3749 07dd EE3E0000 		.4byte	.LASF121
 3750 07e1 1C       		.byte	0x1c
 3751 07e2 3E01     		.2byte	0x13e
 3752 07e4 04080000 		.4byte	0x804
 3753 07e8 00       		.byte	0
 3754 07e9 18       		.uleb128 0x18
 3755 07ea 17230000 		.4byte	.LASF122
 3756 07ee 1C       		.byte	0x1c
 3757 07ef 3F01     		.2byte	0x13f
 3758 07f1 04080000 		.4byte	0x804
 3759 07f5 06       		.byte	0x6
 3760 07f6 18       		.uleb128 0x18
 3761 07f7 DE0D0000 		.4byte	.LASF123
 3762 07fb 1C       		.byte	0x1c
 3763 07fc 4001     		.2byte	0x140
 3764 07fe 50000000 		.4byte	0x50
 3765 0802 0C       		.byte	0xc
 3766 0803 00       		.byte	0
 3767 0804 0B       		.uleb128 0xb
 3768 0805 50000000 		.4byte	0x50
 3769 0809 14080000 		.4byte	0x814
 3770 080d 0C       		.uleb128 0xc
 3771 080e 3B010000 		.4byte	0x13b
 3772 0812 02       		.byte	0x2
 3773 0813 00       		.byte	0
 3774 0814 0B       		.uleb128 0xb
 3775 0815 E8060000 		.4byte	0x6e8
 3776 0819 24080000 		.4byte	0x824
 3777 081d 0C       		.uleb128 0xc
 3778 081e 3B010000 		.4byte	0x13b
 3779 0822 19       		.byte	0x19
 3780 0823 00       		.byte	0
 3781 0824 0B       		.uleb128 0xb
 3782 0825 E8060000 		.4byte	0x6e8
 3783 0829 34080000 		.4byte	0x834
ARM GAS  /tmp/ccytVDiP.s 			page 68


 3784 082d 0C       		.uleb128 0xc
 3785 082e 3B010000 		.4byte	0x13b
 3786 0832 07       		.byte	0x7
 3787 0833 00       		.byte	0
 3788 0834 0B       		.uleb128 0xb
 3789 0835 E8060000 		.4byte	0x6e8
 3790 0839 44080000 		.4byte	0x844
 3791 083d 0C       		.uleb128 0xc
 3792 083e 3B010000 		.4byte	0x13b
 3793 0842 17       		.byte	0x17
 3794 0843 00       		.byte	0
 3795 0844 0B       		.uleb128 0xb
 3796 0845 15030000 		.4byte	0x315
 3797 0849 54080000 		.4byte	0x854
 3798 084d 0C       		.uleb128 0xc
 3799 084e 3B010000 		.4byte	0x13b
 3800 0852 1D       		.byte	0x1d
 3801 0853 00       		.byte	0
 3802 0854 0B       		.uleb128 0xb
 3803 0855 A6000000 		.4byte	0xa6
 3804 0859 64080000 		.4byte	0x864
 3805 085d 0C       		.uleb128 0xc
 3806 085e 3B010000 		.4byte	0x13b
 3807 0862 1D       		.byte	0x1d
 3808 0863 00       		.byte	0
 3809 0864 0B       		.uleb128 0xb
 3810 0865 E8060000 		.4byte	0x6e8
 3811 0869 74080000 		.4byte	0x874
 3812 086d 0C       		.uleb128 0xc
 3813 086e 3B010000 		.4byte	0x13b
 3814 0872 18       		.byte	0x18
 3815 0873 00       		.byte	0
 3816 0874 1D       		.uleb128 0x1d
 3817 0875 7F080000 		.4byte	0x87f
 3818 0879 14       		.uleb128 0x14
 3819 087a 63040000 		.4byte	0x463
 3820 087e 00       		.byte	0
 3821 087f 0F       		.uleb128 0xf
 3822 0880 04       		.byte	0x4
 3823 0881 74080000 		.4byte	0x874
 3824 0885 0F       		.uleb128 0xf
 3825 0886 04       		.byte	0x4
 3826 0887 B6010000 		.4byte	0x1b6
 3827 088b 1D       		.uleb128 0x1d
 3828 088c 96080000 		.4byte	0x896
 3829 0890 14       		.uleb128 0x14
 3830 0891 94000000 		.4byte	0x94
 3831 0895 00       		.byte	0
 3832 0896 0F       		.uleb128 0xf
 3833 0897 04       		.byte	0x4
 3834 0898 9C080000 		.4byte	0x89c
 3835 089c 0F       		.uleb128 0xf
 3836 089d 04       		.byte	0x4
 3837 089e 8B080000 		.4byte	0x88b
 3838 08a2 0B       		.uleb128 0xb
 3839 08a3 1B030000 		.4byte	0x31b
 3840 08a7 B2080000 		.4byte	0x8b2
ARM GAS  /tmp/ccytVDiP.s 			page 69


 3841 08ab 0C       		.uleb128 0xc
 3842 08ac 3B010000 		.4byte	0x13b
 3843 08b0 02       		.byte	0x2
 3844 08b1 00       		.byte	0
 3845 08b2 03       		.uleb128 0x3
 3846 08b3 2E270000 		.4byte	.LASF124
 3847 08b7 1D       		.byte	0x1d
 3848 08b8 34       		.byte	0x34
 3849 08b9 82070000 		.4byte	0x782
 3850 08bd 03       		.uleb128 0x3
 3851 08be F2020000 		.4byte	.LASF125
 3852 08c2 1D       		.byte	0x1d
 3853 08c3 39       		.byte	0x39
 3854 08c4 D0000000 		.4byte	0xd0
 3855 08c8 1E       		.uleb128 0x1e
 3856 08c9 73746400 		.ascii	"std\000"
 3857 08cd 34       		.byte	0x34
 3858 08ce 00       		.byte	0
 3859 08cf B4090000 		.4byte	0x9b4
 3860 08d3 1F       		.uleb128 0x1f
 3861 08d4 1E       		.byte	0x1e
 3862 08d5 62       		.byte	0x62
 3863 08d6 B2080000 		.4byte	0x8b2
 3864 08da 1F       		.uleb128 0x1f
 3865 08db 1E       		.byte	0x1e
 3866 08dc 63       		.byte	0x63
 3867 08dd BD080000 		.4byte	0x8bd
 3868 08e1 1F       		.uleb128 0x1f
 3869 08e2 1E       		.byte	0x1e
 3870 08e3 65       		.byte	0x65
 3871 08e4 B4090000 		.4byte	0x9b4
 3872 08e8 1F       		.uleb128 0x1f
 3873 08e9 1E       		.byte	0x1e
 3874 08ea 66       		.byte	0x66
 3875 08eb CB090000 		.4byte	0x9cb
 3876 08ef 1F       		.uleb128 0x1f
 3877 08f0 1E       		.byte	0x1e
 3878 08f1 67       		.byte	0x67
 3879 08f2 E0090000 		.4byte	0x9e0
 3880 08f6 1F       		.uleb128 0x1f
 3881 08f7 1E       		.byte	0x1e
 3882 08f8 68       		.byte	0x68
 3883 08f9 F5090000 		.4byte	0x9f5
 3884 08fd 1F       		.uleb128 0x1f
 3885 08fe 1E       		.byte	0x1e
 3886 08ff 69       		.byte	0x69
 3887 0900 0A0A0000 		.4byte	0xa0a
 3888 0904 1F       		.uleb128 0x1f
 3889 0905 1E       		.byte	0x1e
 3890 0906 6A       		.byte	0x6a
 3891 0907 1F0A0000 		.4byte	0xa1f
 3892 090b 1F       		.uleb128 0x1f
 3893 090c 1E       		.byte	0x1e
 3894 090d 6B       		.byte	0x6b
 3895 090e 340A0000 		.4byte	0xa34
 3896 0912 1F       		.uleb128 0x1f
 3897 0913 1E       		.byte	0x1e
ARM GAS  /tmp/ccytVDiP.s 			page 70


 3898 0914 6C       		.byte	0x6c
 3899 0915 540A0000 		.4byte	0xa54
 3900 0919 1F       		.uleb128 0x1f
 3901 091a 1E       		.byte	0x1e
 3902 091b 6D       		.byte	0x6d
 3903 091c 730A0000 		.4byte	0xa73
 3904 0920 1F       		.uleb128 0x1f
 3905 0921 1E       		.byte	0x1e
 3906 0922 71       		.byte	0x71
 3907 0923 8D0A0000 		.4byte	0xa8d
 3908 0927 1F       		.uleb128 0x1f
 3909 0928 1E       		.byte	0x1e
 3910 0929 72       		.byte	0x72
 3911 092a B10A0000 		.4byte	0xab1
 3912 092e 1F       		.uleb128 0x1f
 3913 092f 1E       		.byte	0x1e
 3914 0930 74       		.byte	0x74
 3915 0931 D00A0000 		.4byte	0xad0
 3916 0935 1F       		.uleb128 0x1f
 3917 0936 1E       		.byte	0x1e
 3918 0937 75       		.byte	0x75
 3919 0938 EF0A0000 		.4byte	0xaef
 3920 093c 1F       		.uleb128 0x1f
 3921 093d 1E       		.byte	0x1e
 3922 093e 76       		.byte	0x76
 3923 093f 140B0000 		.4byte	0xb14
 3924 0943 1F       		.uleb128 0x1f
 3925 0944 1E       		.byte	0x1e
 3926 0945 78       		.byte	0x78
 3927 0946 290B0000 		.4byte	0xb29
 3928 094a 1F       		.uleb128 0x1f
 3929 094b 1E       		.byte	0x1e
 3930 094c 79       		.byte	0x79
 3931 094d 3E0B0000 		.4byte	0xb3e
 3932 0951 1F       		.uleb128 0x1f
 3933 0952 1E       		.byte	0x1e
 3934 0953 7C       		.byte	0x7c
 3935 0954 490B0000 		.4byte	0xb49
 3936 0958 1F       		.uleb128 0x1f
 3937 0959 1E       		.byte	0x1e
 3938 095a 7E       		.byte	0x7e
 3939 095b 5E0B0000 		.4byte	0xb5e
 3940 095f 1F       		.uleb128 0x1f
 3941 0960 1E       		.byte	0x1e
 3942 0961 83       		.byte	0x83
 3943 0962 6F0B0000 		.4byte	0xb6f
 3944 0966 1F       		.uleb128 0x1f
 3945 0967 1E       		.byte	0x1e
 3946 0968 84       		.byte	0x84
 3947 0969 840B0000 		.4byte	0xb84
 3948 096d 1F       		.uleb128 0x1f
 3949 096e 1E       		.byte	0x1e
 3950 096f 85       		.byte	0x85
 3951 0970 9E0B0000 		.4byte	0xb9e
 3952 0974 1F       		.uleb128 0x1f
 3953 0975 1E       		.byte	0x1e
 3954 0976 87       		.byte	0x87
ARM GAS  /tmp/ccytVDiP.s 			page 71


 3955 0977 AF0B0000 		.4byte	0xbaf
 3956 097b 1F       		.uleb128 0x1f
 3957 097c 1E       		.byte	0x1e
 3958 097d 88       		.byte	0x88
 3959 097e C50B0000 		.4byte	0xbc5
 3960 0982 1F       		.uleb128 0x1f
 3961 0983 1E       		.byte	0x1e
 3962 0984 8B       		.byte	0x8b
 3963 0985 E90B0000 		.4byte	0xbe9
 3964 0989 1F       		.uleb128 0x1f
 3965 098a 1E       		.byte	0x1e
 3966 098b 8D       		.byte	0x8d
 3967 098c F40B0000 		.4byte	0xbf4
 3968 0990 1F       		.uleb128 0x1f
 3969 0991 1E       		.byte	0x1e
 3970 0992 8F       		.byte	0x8f
 3971 0993 090C0000 		.4byte	0xc09
 3972 0997 1F       		.uleb128 0x1f
 3973 0998 1F       		.byte	0x1f
 3974 0999 52       		.byte	0x52
 3975 099a 501D0000 		.4byte	0x1d50
 3976 099e 1F       		.uleb128 0x1f
 3977 099f 1F       		.byte	0x1f
 3978 09a0 55       		.byte	0x55
 3979 09a1 6A1D0000 		.4byte	0x1d6a
 3980 09a5 1F       		.uleb128 0x1f
 3981 09a6 1F       		.byte	0x1f
 3982 09a7 5B       		.byte	0x5b
 3983 09a8 7F1D0000 		.4byte	0x1d7f
 3984 09ac 1F       		.uleb128 0x1f
 3985 09ad 1F       		.byte	0x1f
 3986 09ae 5C       		.byte	0x5c
 3987 09af 991D0000 		.4byte	0x1d99
 3988 09b3 00       		.byte	0
 3989 09b4 20       		.uleb128 0x20
 3990 09b5 F83B0000 		.4byte	.LASF141
 3991 09b9 1D       		.byte	0x1d
 3992 09ba D7       		.byte	0xd7
 3993 09bb C5090000 		.4byte	0x9c5
 3994 09bf 14       		.uleb128 0x14
 3995 09c0 C5090000 		.4byte	0x9c5
 3996 09c4 00       		.byte	0
 3997 09c5 0F       		.uleb128 0xf
 3998 09c6 04       		.byte	0x4
 3999 09c7 B2080000 		.4byte	0x8b2
 4000 09cb 21       		.uleb128 0x21
 4001 09cc 7F350000 		.4byte	.LASF126
 4002 09d0 1D       		.byte	0x1d
 4003 09d1 A8       		.byte	0xa8
 4004 09d2 94000000 		.4byte	0x94
 4005 09d6 E0090000 		.4byte	0x9e0
 4006 09da 14       		.uleb128 0x14
 4007 09db C5090000 		.4byte	0x9c5
 4008 09df 00       		.byte	0
 4009 09e0 21       		.uleb128 0x21
 4010 09e1 50060000 		.4byte	.LASF127
 4011 09e5 1D       		.byte	0x1d
ARM GAS  /tmp/ccytVDiP.s 			page 72


 4012 09e6 D8       		.byte	0xd8
 4013 09e7 94000000 		.4byte	0x94
 4014 09eb F5090000 		.4byte	0x9f5
 4015 09ef 14       		.uleb128 0x14
 4016 09f0 C5090000 		.4byte	0x9c5
 4017 09f4 00       		.byte	0
 4018 09f5 21       		.uleb128 0x21
 4019 09f6 344F0000 		.4byte	.LASF128
 4020 09fa 1D       		.byte	0x1d
 4021 09fb D9       		.byte	0xd9
 4022 09fc 94000000 		.4byte	0x94
 4023 0a00 0A0A0000 		.4byte	0xa0a
 4024 0a04 14       		.uleb128 0x14
 4025 0a05 C5090000 		.4byte	0x9c5
 4026 0a09 00       		.byte	0
 4027 0a0a 21       		.uleb128 0x21
 4028 0a0b 81780000 		.4byte	.LASF129
 4029 0a0f 1D       		.byte	0x1d
 4030 0a10 A9       		.byte	0xa9
 4031 0a11 94000000 		.4byte	0x94
 4032 0a15 1F0A0000 		.4byte	0xa1f
 4033 0a19 14       		.uleb128 0x14
 4034 0a1a C5090000 		.4byte	0x9c5
 4035 0a1e 00       		.byte	0
 4036 0a1f 21       		.uleb128 0x21
 4037 0a20 0A170000 		.4byte	.LASF130
 4038 0a24 1D       		.byte	0x1d
 4039 0a25 BD       		.byte	0xbd
 4040 0a26 94000000 		.4byte	0x94
 4041 0a2a 340A0000 		.4byte	0xa34
 4042 0a2e 14       		.uleb128 0x14
 4043 0a2f C5090000 		.4byte	0x9c5
 4044 0a33 00       		.byte	0
 4045 0a34 21       		.uleb128 0x21
 4046 0a35 F1480000 		.4byte	.LASF131
 4047 0a39 1D       		.byte	0x1d
 4048 0a3a CD       		.byte	0xcd
 4049 0a3b 94000000 		.4byte	0x94
 4050 0a3f 4E0A0000 		.4byte	0xa4e
 4051 0a43 14       		.uleb128 0x14
 4052 0a44 C5090000 		.4byte	0x9c5
 4053 0a48 14       		.uleb128 0x14
 4054 0a49 4E0A0000 		.4byte	0xa4e
 4055 0a4d 00       		.byte	0
 4056 0a4e 0F       		.uleb128 0xf
 4057 0a4f 04       		.byte	0x4
 4058 0a50 BD080000 		.4byte	0x8bd
 4059 0a54 21       		.uleb128 0x21
 4060 0a55 C8170000 		.4byte	.LASF132
 4061 0a59 1D       		.byte	0x1d
 4062 0a5a BE       		.byte	0xbe
 4063 0a5b E2060000 		.4byte	0x6e2
 4064 0a5f 730A0000 		.4byte	0xa73
 4065 0a63 14       		.uleb128 0x14
 4066 0a64 E2060000 		.4byte	0x6e2
 4067 0a68 14       		.uleb128 0x14
 4068 0a69 94000000 		.4byte	0x94
ARM GAS  /tmp/ccytVDiP.s 			page 73


 4069 0a6d 14       		.uleb128 0x14
 4070 0a6e C5090000 		.4byte	0x9c5
 4071 0a72 00       		.byte	0
 4072 0a73 21       		.uleb128 0x21
 4073 0a74 47680000 		.4byte	.LASF133
 4074 0a78 1D       		.byte	0x1d
 4075 0a79 DC       		.byte	0xdc
 4076 0a7a C5090000 		.4byte	0x9c5
 4077 0a7e 8D0A0000 		.4byte	0xa8d
 4078 0a82 14       		.uleb128 0x14
 4079 0a83 13070000 		.4byte	0x713
 4080 0a87 14       		.uleb128 0x14
 4081 0a88 13070000 		.4byte	0x713
 4082 0a8c 00       		.byte	0
 4083 0a8d 21       		.uleb128 0x21
 4084 0a8e 79160000 		.4byte	.LASF134
 4085 0a92 1D       		.byte	0x1d
 4086 0a93 C8       		.byte	0xc8
 4087 0a94 AD000000 		.4byte	0xad
 4088 0a98 B10A0000 		.4byte	0xab1
 4089 0a9c 14       		.uleb128 0x14
 4090 0a9d B8000000 		.4byte	0xb8
 4091 0aa1 14       		.uleb128 0x14
 4092 0aa2 AD000000 		.4byte	0xad
 4093 0aa6 14       		.uleb128 0x14
 4094 0aa7 AD000000 		.4byte	0xad
 4095 0aab 14       		.uleb128 0x14
 4096 0aac C5090000 		.4byte	0x9c5
 4097 0ab0 00       		.byte	0
 4098 0ab1 21       		.uleb128 0x21
 4099 0ab2 8A180000 		.4byte	.LASF135
 4100 0ab6 1D       		.byte	0x1d
 4101 0ab7 AA       		.byte	0xaa
 4102 0ab8 C5090000 		.4byte	0x9c5
 4103 0abc D00A0000 		.4byte	0xad0
 4104 0ac0 14       		.uleb128 0x14
 4105 0ac1 13070000 		.4byte	0x713
 4106 0ac5 14       		.uleb128 0x14
 4107 0ac6 13070000 		.4byte	0x713
 4108 0aca 14       		.uleb128 0x14
 4109 0acb C5090000 		.4byte	0x9c5
 4110 0acf 00       		.byte	0
 4111 0ad0 21       		.uleb128 0x21
 4112 0ad1 A1560000 		.4byte	.LASF136
 4113 0ad5 1D       		.byte	0x1d
 4114 0ad6 CF       		.byte	0xcf
 4115 0ad7 94000000 		.4byte	0x94
 4116 0adb EF0A0000 		.4byte	0xaef
 4117 0adf 14       		.uleb128 0x14
 4118 0ae0 C5090000 		.4byte	0x9c5
 4119 0ae4 14       		.uleb128 0x14
 4120 0ae5 62000000 		.4byte	0x62
 4121 0ae9 14       		.uleb128 0x14
 4122 0aea 94000000 		.4byte	0x94
 4123 0aee 00       		.byte	0
 4124 0aef 21       		.uleb128 0x21
 4125 0af0 415A0000 		.4byte	.LASF137
ARM GAS  /tmp/ccytVDiP.s 			page 74


 4126 0af4 1D       		.byte	0x1d
 4127 0af5 D3       		.byte	0xd3
 4128 0af6 94000000 		.4byte	0x94
 4129 0afa 090B0000 		.4byte	0xb09
 4130 0afe 14       		.uleb128 0x14
 4131 0aff C5090000 		.4byte	0x9c5
 4132 0b03 14       		.uleb128 0x14
 4133 0b04 090B0000 		.4byte	0xb09
 4134 0b08 00       		.byte	0
 4135 0b09 0F       		.uleb128 0xf
 4136 0b0a 04       		.byte	0x4
 4137 0b0b 0F0B0000 		.4byte	0xb0f
 4138 0b0f 1B       		.uleb128 0x1b
 4139 0b10 BD080000 		.4byte	0x8bd
 4140 0b14 21       		.uleb128 0x21
 4141 0b15 B2250000 		.4byte	.LASF138
 4142 0b19 1D       		.byte	0x1d
 4143 0b1a D5       		.byte	0xd5
 4144 0b1b 62000000 		.4byte	0x62
 4145 0b1f 290B0000 		.4byte	0xb29
 4146 0b23 14       		.uleb128 0x14
 4147 0b24 C5090000 		.4byte	0x9c5
 4148 0b28 00       		.byte	0
 4149 0b29 21       		.uleb128 0x21
 4150 0b2a 4A4A0000 		.4byte	.LASF139
 4151 0b2e 1D       		.byte	0x1d
 4152 0b2f C1       		.byte	0xc1
 4153 0b30 94000000 		.4byte	0x94
 4154 0b34 3E0B0000 		.4byte	0xb3e
 4155 0b38 14       		.uleb128 0x14
 4156 0b39 C5090000 		.4byte	0x9c5
 4157 0b3d 00       		.byte	0
 4158 0b3e 22       		.uleb128 0x22
 4159 0b3f EC6F0000 		.4byte	.LASF148
 4160 0b43 1D       		.byte	0x1d
 4161 0b44 C2       		.byte	0xc2
 4162 0b45 94000000 		.4byte	0x94
 4163 0b49 21       		.uleb128 0x21
 4164 0b4a FD6C0000 		.4byte	.LASF140
 4165 0b4e 1D       		.byte	0x1d
 4166 0b4f C3       		.byte	0xc3
 4167 0b50 E2060000 		.4byte	0x6e2
 4168 0b54 5E0B0000 		.4byte	0xb5e
 4169 0b58 14       		.uleb128 0x14
 4170 0b59 E2060000 		.4byte	0x6e2
 4171 0b5d 00       		.byte	0
 4172 0b5e 20       		.uleb128 0x20
 4173 0b5f 342B0000 		.4byte	.LASF142
 4174 0b63 1D       		.byte	0x1d
 4175 0b64 DA       		.byte	0xda
 4176 0b65 6F0B0000 		.4byte	0xb6f
 4177 0b69 14       		.uleb128 0x14
 4178 0b6a 13070000 		.4byte	0x713
 4179 0b6e 00       		.byte	0
 4180 0b6f 21       		.uleb128 0x21
 4181 0b70 0E480000 		.4byte	.LASF143
 4182 0b74 1D       		.byte	0x1d
ARM GAS  /tmp/ccytVDiP.s 			page 75


 4183 0b75 DF       		.byte	0xdf
 4184 0b76 94000000 		.4byte	0x94
 4185 0b7a 840B0000 		.4byte	0xb84
 4186 0b7e 14       		.uleb128 0x14
 4187 0b7f 13070000 		.4byte	0x713
 4188 0b83 00       		.byte	0
 4189 0b84 21       		.uleb128 0x21
 4190 0b85 5F150000 		.4byte	.LASF144
 4191 0b89 1D       		.byte	0x1d
 4192 0b8a E0       		.byte	0xe0
 4193 0b8b 94000000 		.4byte	0x94
 4194 0b8f 9E0B0000 		.4byte	0xb9e
 4195 0b93 14       		.uleb128 0x14
 4196 0b94 13070000 		.4byte	0x713
 4197 0b98 14       		.uleb128 0x14
 4198 0b99 13070000 		.4byte	0x713
 4199 0b9d 00       		.byte	0
 4200 0b9e 20       		.uleb128 0x20
 4201 0b9f A1220000 		.4byte	.LASF145
 4202 0ba3 1D       		.byte	0x1d
 4203 0ba4 D6       		.byte	0xd6
 4204 0ba5 AF0B0000 		.4byte	0xbaf
 4205 0ba9 14       		.uleb128 0x14
 4206 0baa C5090000 		.4byte	0x9c5
 4207 0bae 00       		.byte	0
 4208 0baf 20       		.uleb128 0x20
 4209 0bb0 9C1F0000 		.4byte	.LASF146
 4210 0bb4 1D       		.byte	0x1d
 4211 0bb5 AB       		.byte	0xab
 4212 0bb6 C50B0000 		.4byte	0xbc5
 4213 0bba 14       		.uleb128 0x14
 4214 0bbb C5090000 		.4byte	0x9c5
 4215 0bbf 14       		.uleb128 0x14
 4216 0bc0 E2060000 		.4byte	0x6e2
 4217 0bc4 00       		.byte	0
 4218 0bc5 21       		.uleb128 0x21
 4219 0bc6 3C610000 		.4byte	.LASF147
 4220 0bca 1D       		.byte	0x1d
 4221 0bcb AC       		.byte	0xac
 4222 0bcc 94000000 		.4byte	0x94
 4223 0bd0 E90B0000 		.4byte	0xbe9
 4224 0bd4 14       		.uleb128 0x14
 4225 0bd5 C5090000 		.4byte	0x9c5
 4226 0bd9 14       		.uleb128 0x14
 4227 0bda E2060000 		.4byte	0x6e2
 4228 0bde 14       		.uleb128 0x14
 4229 0bdf 94000000 		.4byte	0x94
 4230 0be3 14       		.uleb128 0x14
 4231 0be4 AD000000 		.4byte	0xad
 4232 0be8 00       		.byte	0
 4233 0be9 22       		.uleb128 0x22
 4234 0bea 13280000 		.4byte	.LASF149
 4235 0bee 1D       		.byte	0x1d
 4236 0bef A3       		.byte	0xa3
 4237 0bf0 C5090000 		.4byte	0x9c5
 4238 0bf4 21       		.uleb128 0x21
 4239 0bf5 AC4E0000 		.4byte	.LASF150
ARM GAS  /tmp/ccytVDiP.s 			page 76


 4240 0bf9 1D       		.byte	0x1d
 4241 0bfa A4       		.byte	0xa4
 4242 0bfb E2060000 		.4byte	0x6e2
 4243 0bff 090C0000 		.4byte	0xc09
 4244 0c03 14       		.uleb128 0x14
 4245 0c04 E2060000 		.4byte	0x6e2
 4246 0c08 00       		.byte	0
 4247 0c09 21       		.uleb128 0x21
 4248 0c0a CD3C0000 		.4byte	.LASF151
 4249 0c0e 1D       		.byte	0x1d
 4250 0c0f C7       		.byte	0xc7
 4251 0c10 94000000 		.4byte	0x94
 4252 0c14 230C0000 		.4byte	0xc23
 4253 0c18 14       		.uleb128 0x14
 4254 0c19 94000000 		.4byte	0x94
 4255 0c1d 14       		.uleb128 0x14
 4256 0c1e C5090000 		.4byte	0x9c5
 4257 0c22 00       		.byte	0
 4258 0c23 03       		.uleb128 0x3
 4259 0c24 46290000 		.4byte	.LASF152
 4260 0c28 20       		.byte	0x20
 4261 0c29 15       		.byte	0x15
 4262 0c2a 2C000000 		.4byte	0x2c
 4263 0c2e 03       		.uleb128 0x3
 4264 0c2f A0060000 		.4byte	.LASF153
 4265 0c33 20       		.byte	0x20
 4266 0c34 21       		.byte	0x21
 4267 0c35 45000000 		.4byte	0x45
 4268 0c39 03       		.uleb128 0x3
 4269 0c3a 2D0D0000 		.4byte	.LASF154
 4270 0c3e 20       		.byte	0x20
 4271 0c3f 2C       		.byte	0x2c
 4272 0c40 57000000 		.4byte	0x57
 4273 0c44 03       		.uleb128 0x3
 4274 0c45 774B0000 		.4byte	.LASF155
 4275 0c49 20       		.byte	0x20
 4276 0c4a 2D       		.byte	0x2d
 4277 0c4b 69000000 		.4byte	0x69
 4278 0c4f 03       		.uleb128 0x3
 4279 0c50 9F200000 		.4byte	.LASF156
 4280 0c54 20       		.byte	0x20
 4281 0c55 39       		.byte	0x39
 4282 0c56 82000000 		.4byte	0x82
 4283 0c5a 03       		.uleb128 0x3
 4284 0c5b 774C0000 		.4byte	.LASF157
 4285 0c5f 20       		.byte	0x20
 4286 0c60 AA       		.byte	0xaa
 4287 0c61 9B000000 		.4byte	0x9b
 4288 0c65 03       		.uleb128 0x3
 4289 0c66 134E0000 		.4byte	.LASF158
 4290 0c6a 21       		.byte	0x21
 4291 0c6b 2B       		.byte	0x2b
 4292 0c6c 700C0000 		.4byte	0xc70
 4293 0c70 02       		.uleb128 0x2
 4294 0c71 01       		.byte	0x1
 4295 0c72 02       		.byte	0x2
 4296 0c73 1E0C0000 		.4byte	.LASF159
ARM GAS  /tmp/ccytVDiP.s 			page 77


 4297 0c77 03       		.uleb128 0x3
 4298 0c78 8E380000 		.4byte	.LASF160
 4299 0c7c 21       		.byte	0x21
 4300 0c7d 2C       		.byte	0x2c
 4301 0c7e 230C0000 		.4byte	0xc23
 4302 0c82 03       		.uleb128 0x3
 4303 0c83 70690000 		.4byte	.LASF161
 4304 0c87 21       		.byte	0x21
 4305 0c88 2D       		.byte	0x2d
 4306 0c89 230C0000 		.4byte	0xc23
 4307 0c8d 03       		.uleb128 0x3
 4308 0c8e 3B370000 		.4byte	.LASF162
 4309 0c92 21       		.byte	0x21
 4310 0c93 2E       		.byte	0x2e
 4311 0c94 230C0000 		.4byte	0xc23
 4312 0c98 03       		.uleb128 0x3
 4313 0c99 CE170000 		.4byte	.LASF163
 4314 0c9d 21       		.byte	0x21
 4315 0c9e 30       		.byte	0x30
 4316 0c9f 440C0000 		.4byte	0xc44
 4317 0ca3 03       		.uleb128 0x3
 4318 0ca4 9B000000 		.4byte	.LASF164
 4319 0ca8 21       		.byte	0x21
 4320 0ca9 31       		.byte	0x31
 4321 0caa 390C0000 		.4byte	0xc39
 4322 0cae 03       		.uleb128 0x3
 4323 0caf F74C0000 		.4byte	.LASF165
 4324 0cb3 21       		.byte	0x21
 4325 0cb4 33       		.byte	0x33
 4326 0cb5 440C0000 		.4byte	0xc44
 4327 0cb9 03       		.uleb128 0x3
 4328 0cba 09700000 		.4byte	.LASF166
 4329 0cbe 21       		.byte	0x21
 4330 0cbf 34       		.byte	0x34
 4331 0cc0 440C0000 		.4byte	0xc44
 4332 0cc4 03       		.uleb128 0x3
 4333 0cc5 830D0000 		.4byte	.LASF167
 4334 0cc9 21       		.byte	0x21
 4335 0cca 35       		.byte	0x35
 4336 0ccb 440C0000 		.4byte	0xc44
 4337 0ccf 03       		.uleb128 0x3
 4338 0cd0 F3200000 		.4byte	.LASF168
 4339 0cd4 22       		.byte	0x22
 4340 0cd5 2A       		.byte	0x2a
 4341 0cd6 DA0C0000 		.4byte	0xcda
 4342 0cda 0D       		.uleb128 0xd
 4343 0cdb F3200000 		.4byte	.LASF168
 4344 0cdf 4C       		.byte	0x4c
 4345 0ce0 23       		.byte	0x23
 4346 0ce1 5E       		.byte	0x5e
 4347 0ce2 0C0E0000 		.4byte	0xe0c
 4348 0ce6 08       		.uleb128 0x8
 4349 0ce7 04       		.byte	0x4
 4350 0ce8 23       		.byte	0x23
 4351 0ce9 96       		.byte	0x96
 4352 0cea 1B0D0000 		.4byte	0xd1b
 4353 0cee 09       		.uleb128 0x9
ARM GAS  /tmp/ccytVDiP.s 			page 78


 4354 0cef 0E310000 		.4byte	.LASF169
 4355 0cf3 23       		.byte	0x23
 4356 0cf4 9D       		.byte	0x9d
 4357 0cf5 A30C0000 		.4byte	0xca3
 4358 0cf9 09       		.uleb128 0x9
 4359 0cfa A32B0000 		.4byte	.LASF170
 4360 0cfe 23       		.byte	0x23
 4361 0cff A4       		.byte	0xa4
 4362 0d00 A30C0000 		.4byte	0xca3
 4363 0d04 09       		.uleb128 0x9
 4364 0d05 BF5A0000 		.4byte	.LASF171
 4365 0d09 23       		.byte	0x23
 4366 0d0a AB       		.byte	0xab
 4367 0d0b B8000000 		.4byte	0xb8
 4368 0d0f 09       		.uleb128 0x9
 4369 0d10 D3670000 		.4byte	.LASF172
 4370 0d14 23       		.byte	0x23
 4371 0d15 B2       		.byte	0xb2
 4372 0d16 AE0C0000 		.4byte	0xcae
 4373 0d1a 00       		.byte	0
 4374 0d1b 0A       		.uleb128 0xa
 4375 0d1c 69340000 		.4byte	.LASF173
 4376 0d20 23       		.byte	0x23
 4377 0d21 5F       		.byte	0x5f
 4378 0d22 5F110000 		.4byte	0x115f
 4379 0d26 00       		.byte	0
 4380 0d27 0A       		.uleb128 0xa
 4381 0d28 C5290000 		.4byte	.LASF174
 4382 0d2c 23       		.byte	0x23
 4383 0d2d 61       		.byte	0x61
 4384 0d2e 5F110000 		.4byte	0x115f
 4385 0d32 04       		.byte	0x4
 4386 0d33 0A       		.uleb128 0xa
 4387 0d34 AF310000 		.4byte	.LASF175
 4388 0d38 23       		.byte	0x23
 4389 0d39 63       		.byte	0x63
 4390 0d3a 980C0000 		.4byte	0xc98
 4391 0d3e 08       		.byte	0x8
 4392 0d3f 0A       		.uleb128 0xa
 4393 0d40 5D1F0000 		.4byte	.LASF176
 4394 0d44 23       		.byte	0x23
 4395 0d45 64       		.byte	0x64
 4396 0d46 F80E0000 		.4byte	0xef8
 4397 0d4a 0C       		.byte	0xc
 4398 0d4b 0A       		.uleb128 0xa
 4399 0d4c F0080000 		.4byte	.LASF177
 4400 0d50 23       		.byte	0x23
 4401 0d51 66       		.byte	0x66
 4402 0d52 5F110000 		.4byte	0x115f
 4403 0d56 10       		.byte	0x10
 4404 0d57 0A       		.uleb128 0xa
 4405 0d58 3D730000 		.4byte	.LASF178
 4406 0d5c 23       		.byte	0x23
 4407 0d5d 67       		.byte	0x67
 4408 0d5e 5F110000 		.4byte	0x115f
 4409 0d62 14       		.byte	0x14
 4410 0d63 0A       		.uleb128 0xa
ARM GAS  /tmp/ccytVDiP.s 			page 79


 4411 0d64 B36A0000 		.4byte	.LASF179
 4412 0d68 23       		.byte	0x23
 4413 0d69 6E       		.byte	0x6e
 4414 0d6a 13070000 		.4byte	0x713
 4415 0d6e 18       		.byte	0x18
 4416 0d6f 0A       		.uleb128 0xa
 4417 0d70 E4560000 		.4byte	.LASF180
 4418 0d74 23       		.byte	0x23
 4419 0d75 74       		.byte	0x74
 4420 0d76 65110000 		.4byte	0x1165
 4421 0d7a 1C       		.byte	0x1c
 4422 0d7b 0A       		.uleb128 0xa
 4423 0d7c 4B7A0000 		.4byte	.LASF181
 4424 0d80 23       		.byte	0x23
 4425 0d81 79       		.byte	0x79
 4426 0d82 820C0000 		.4byte	0xc82
 4427 0d86 20       		.byte	0x20
 4428 0d87 0A       		.uleb128 0xa
 4429 0d88 FF5E0000 		.4byte	.LASF182
 4430 0d8c 23       		.byte	0x23
 4431 0d8d 7D       		.byte	0x7d
 4432 0d8e 770C0000 		.4byte	0xc77
 4433 0d92 21       		.byte	0x21
 4434 0d93 0A       		.uleb128 0xa
 4435 0d94 A0480000 		.4byte	.LASF183
 4436 0d98 23       		.byte	0x23
 4437 0d99 82       		.byte	0x82
 4438 0d9a 8D0C0000 		.4byte	0xc8d
 4439 0d9e 22       		.byte	0x22
 4440 0d9f 0A       		.uleb128 0xa
 4441 0da0 D73F0000 		.4byte	.LASF184
 4442 0da4 23       		.byte	0x23
 4443 0da5 8F       		.byte	0x8f
 4444 0da6 1E0F0000 		.4byte	0xf1e
 4445 0daa 24       		.byte	0x24
 4446 0dab 0E       		.uleb128 0xe
 4447 0dac 705F7500 		.ascii	"p_u\000"
 4448 0db0 23       		.byte	0x23
 4449 0db1 B4       		.byte	0xb4
 4450 0db2 E60C0000 		.4byte	0xce6
 4451 0db6 28       		.byte	0x28
 4452 0db7 0A       		.uleb128 0xa
 4453 0db8 87140000 		.4byte	.LASF185
 4454 0dbc 23       		.byte	0x23
 4455 0dbd B9       		.byte	0xb9
 4456 0dbe 5B0E0000 		.4byte	0xe5b
 4457 0dc2 2C       		.byte	0x2c
 4458 0dc3 0A       		.uleb128 0xa
 4459 0dc4 09270000 		.4byte	.LASF186
 4460 0dc8 23       		.byte	0x23
 4461 0dc9 BF       		.byte	0xbf
 4462 0dca 370E0000 		.4byte	0xe37
 4463 0dce 30       		.byte	0x30
 4464 0dcf 0A       		.uleb128 0xa
 4465 0dd0 011A0000 		.4byte	.LASF187
 4466 0dd4 23       		.byte	0x23
 4467 0dd5 C3       		.byte	0xc3
ARM GAS  /tmp/ccytVDiP.s 			page 80


 4468 0dd6 A30C0000 		.4byte	0xca3
 4469 0dda 38       		.byte	0x38
 4470 0ddb 0A       		.uleb128 0xa
 4471 0ddc 68600000 		.4byte	.LASF188
 4472 0de0 23       		.byte	0x23
 4473 0de1 C9       		.byte	0xc9
 4474 0de2 AE0C0000 		.4byte	0xcae
 4475 0de6 3C       		.byte	0x3c
 4476 0de7 0A       		.uleb128 0xa
 4477 0de8 E1680000 		.4byte	.LASF189
 4478 0dec 23       		.byte	0x23
 4479 0ded D0       		.byte	0xd0
 4480 0dee 6B110000 		.4byte	0x116b
 4481 0df2 40       		.byte	0x40
 4482 0df3 0A       		.uleb128 0xa
 4483 0df4 025B0000 		.4byte	.LASF190
 4484 0df8 23       		.byte	0x23
 4485 0df9 D4       		.byte	0xd4
 4486 0dfa 980C0000 		.4byte	0xc98
 4487 0dfe 44       		.byte	0x44
 4488 0dff 0A       		.uleb128 0xa
 4489 0e00 51370000 		.4byte	.LASF191
 4490 0e04 23       		.byte	0x23
 4491 0e05 DA       		.byte	0xda
 4492 0e06 B8000000 		.4byte	0xb8
 4493 0e0a 48       		.byte	0x48
 4494 0e0b 00       		.byte	0
 4495 0e0c 07       		.uleb128 0x7
 4496 0e0d 08       		.byte	0x8
 4497 0e0e 22       		.byte	0x22
 4498 0e0f 61       		.byte	0x61
 4499 0e10 C2530000 		.4byte	.LASF193
 4500 0e14 310E0000 		.4byte	0xe31
 4501 0e18 0A       		.uleb128 0xa
 4502 0e19 69340000 		.4byte	.LASF173
 4503 0e1d 22       		.byte	0x22
 4504 0e1e 62       		.byte	0x62
 4505 0e1f 310E0000 		.4byte	0xe31
 4506 0e23 00       		.byte	0
 4507 0e24 0A       		.uleb128 0xa
 4508 0e25 C5290000 		.4byte	.LASF174
 4509 0e29 22       		.byte	0x22
 4510 0e2a 64       		.byte	0x64
 4511 0e2b 310E0000 		.4byte	0xe31
 4512 0e2f 04       		.byte	0x4
 4513 0e30 00       		.byte	0
 4514 0e31 0F       		.uleb128 0xf
 4515 0e32 04       		.byte	0x4
 4516 0e33 CF0C0000 		.4byte	0xccf
 4517 0e37 03       		.uleb128 0x3
 4518 0e38 39290000 		.4byte	.LASF194
 4519 0e3c 22       		.byte	0x22
 4520 0e3d 66       		.byte	0x66
 4521 0e3e 0C0E0000 		.4byte	0xe0c
 4522 0e42 07       		.uleb128 0x7
 4523 0e43 04       		.byte	0x4
 4524 0e44 22       		.byte	0x22
ARM GAS  /tmp/ccytVDiP.s 			page 81


 4525 0e45 6B       		.byte	0x6b
 4526 0e46 BC150000 		.4byte	.LASF195
 4527 0e4a 5B0E0000 		.4byte	0xe5b
 4528 0e4e 0A       		.uleb128 0xa
 4529 0e4f 69340000 		.4byte	.LASF173
 4530 0e53 22       		.byte	0x22
 4531 0e54 6D       		.byte	0x6d
 4532 0e55 310E0000 		.4byte	0xe31
 4533 0e59 00       		.byte	0
 4534 0e5a 00       		.byte	0
 4535 0e5b 03       		.uleb128 0x3
 4536 0e5c 6B430000 		.4byte	.LASF196
 4537 0e60 22       		.byte	0x22
 4538 0e61 70       		.byte	0x70
 4539 0e62 420E0000 		.4byte	0xe42
 4540 0e66 03       		.uleb128 0x3
 4541 0e67 EE4C0000 		.4byte	.LASF197
 4542 0e6b 24       		.byte	0x24
 4543 0e6c E5       		.byte	0xe5
 4544 0e6d B8000000 		.4byte	0xb8
 4545 0e71 03       		.uleb128 0x3
 4546 0e72 701C0000 		.4byte	.LASF198
 4547 0e76 24       		.byte	0x24
 4548 0e77 EB       		.byte	0xeb
 4549 0e78 4F0C0000 		.4byte	0xc4f
 4550 0e7c 1C       		.uleb128 0x1c
 4551 0e7d 37000000 		.4byte	.LASF199
 4552 0e81 24       		.byte	0x24
 4553 0e82 24       		.byte	0x24
 4554 0e83 0C01     		.2byte	0x10c
 4555 0e85 F80E0000 		.4byte	0xef8
 4556 0e89 23       		.uleb128 0x23
 4557 0e8a 723400   		.ascii	"r4\000"
 4558 0e8d 24       		.byte	0x24
 4559 0e8e 1F01     		.2byte	0x11f
 4560 0e90 660E0000 		.4byte	0xe66
 4561 0e94 00       		.byte	0
 4562 0e95 23       		.uleb128 0x23
 4563 0e96 723500   		.ascii	"r5\000"
 4564 0e99 24       		.byte	0x24
 4565 0e9a 2001     		.2byte	0x120
 4566 0e9c 660E0000 		.4byte	0xe66
 4567 0ea0 04       		.byte	0x4
 4568 0ea1 23       		.uleb128 0x23
 4569 0ea2 723600   		.ascii	"r6\000"
 4570 0ea5 24       		.byte	0x24
 4571 0ea6 2101     		.2byte	0x121
 4572 0ea8 660E0000 		.4byte	0xe66
 4573 0eac 08       		.byte	0x8
 4574 0ead 23       		.uleb128 0x23
 4575 0eae 723700   		.ascii	"r7\000"
 4576 0eb1 24       		.byte	0x24
 4577 0eb2 2201     		.2byte	0x122
 4578 0eb4 660E0000 		.4byte	0xe66
 4579 0eb8 0C       		.byte	0xc
 4580 0eb9 23       		.uleb128 0x23
 4581 0eba 723800   		.ascii	"r8\000"
ARM GAS  /tmp/ccytVDiP.s 			page 82


 4582 0ebd 24       		.byte	0x24
 4583 0ebe 2301     		.2byte	0x123
 4584 0ec0 660E0000 		.4byte	0xe66
 4585 0ec4 10       		.byte	0x10
 4586 0ec5 23       		.uleb128 0x23
 4587 0ec6 723900   		.ascii	"r9\000"
 4588 0ec9 24       		.byte	0x24
 4589 0eca 2401     		.2byte	0x124
 4590 0ecc 660E0000 		.4byte	0xe66
 4591 0ed0 14       		.byte	0x14
 4592 0ed1 23       		.uleb128 0x23
 4593 0ed2 72313000 		.ascii	"r10\000"
 4594 0ed6 24       		.byte	0x24
 4595 0ed7 2501     		.2byte	0x125
 4596 0ed9 660E0000 		.4byte	0xe66
 4597 0edd 18       		.byte	0x18
 4598 0ede 23       		.uleb128 0x23
 4599 0edf 72313100 		.ascii	"r11\000"
 4600 0ee3 24       		.byte	0x24
 4601 0ee4 2601     		.2byte	0x126
 4602 0ee6 660E0000 		.4byte	0xe66
 4603 0eea 1C       		.byte	0x1c
 4604 0eeb 23       		.uleb128 0x23
 4605 0eec 6C7200   		.ascii	"lr\000"
 4606 0eef 24       		.byte	0x24
 4607 0ef0 2701     		.2byte	0x127
 4608 0ef2 660E0000 		.4byte	0xe66
 4609 0ef6 20       		.byte	0x20
 4610 0ef7 00       		.byte	0
 4611 0ef8 1C       		.uleb128 0x1c
 4612 0ef9 67380000 		.4byte	.LASF200
 4613 0efd 04       		.byte	0x4
 4614 0efe 24       		.byte	0x24
 4615 0eff 3101     		.2byte	0x131
 4616 0f01 130F0000 		.4byte	0xf13
 4617 0f05 23       		.uleb128 0x23
 4618 0f06 72313300 		.ascii	"r13\000"
 4619 0f0a 24       		.byte	0x24
 4620 0f0b 3201     		.2byte	0x132
 4621 0f0d 130F0000 		.4byte	0xf13
 4622 0f11 00       		.byte	0
 4623 0f12 00       		.byte	0
 4624 0f13 0F       		.uleb128 0xf
 4625 0f14 04       		.byte	0x4
 4626 0f15 7C0E0000 		.4byte	0xe7c
 4627 0f19 24       		.uleb128 0x24
 4628 0f1a 440C0000 		.4byte	0xc44
 4629 0f1e 24       		.uleb128 0x24
 4630 0f1f C40C0000 		.4byte	0xcc4
 4631 0f23 07       		.uleb128 0x7
 4632 0f24 1C       		.byte	0x1c
 4633 0f25 25       		.byte	0x25
 4634 0f26 5E       		.byte	0x5e
 4635 0f27 4E2E0000 		.4byte	.LASF201
 4636 0f2b 780F0000 		.4byte	0xf78
 4637 0f2f 0A       		.uleb128 0xa
 4638 0f30 CA500000 		.4byte	.LASF202
ARM GAS  /tmp/ccytVDiP.s 			page 83


 4639 0f34 25       		.byte	0x25
 4640 0f35 5F       		.byte	0x5f
 4641 0f36 370E0000 		.4byte	0xe37
 4642 0f3a 00       		.byte	0
 4643 0f3b 0A       		.uleb128 0xa
 4644 0f3c 86640000 		.4byte	.LASF203
 4645 0f40 25       		.byte	0x25
 4646 0f41 60       		.byte	0x60
 4647 0f42 980C0000 		.4byte	0xc98
 4648 0f46 08       		.byte	0x8
 4649 0f47 0A       		.uleb128 0xa
 4650 0f48 3F260000 		.4byte	.LASF204
 4651 0f4c 25       		.byte	0x25
 4652 0f4d 62       		.byte	0x62
 4653 0f4e F80E0000 		.4byte	0xef8
 4654 0f52 0C       		.byte	0xc
 4655 0f53 0A       		.uleb128 0xa
 4656 0f54 6F3D0000 		.4byte	.LASF205
 4657 0f58 25       		.byte	0x25
 4658 0f59 65       		.byte	0x65
 4659 0f5a 310E0000 		.4byte	0xe31
 4660 0f5e 10       		.byte	0x10
 4661 0f5f 0A       		.uleb128 0xa
 4662 0f60 BD290000 		.4byte	.LASF206
 4663 0f64 25       		.byte	0x25
 4664 0f65 66       		.byte	0x66
 4665 0f66 310E0000 		.4byte	0xe31
 4666 0f6a 14       		.byte	0x14
 4667 0f6b 0A       		.uleb128 0xa
 4668 0f6c D62F0000 		.4byte	.LASF207
 4669 0f70 25       		.byte	0x25
 4670 0f71 69       		.byte	0x69
 4671 0f72 310E0000 		.4byte	0xe31
 4672 0f76 18       		.byte	0x18
 4673 0f77 00       		.byte	0
 4674 0f78 03       		.uleb128 0x3
 4675 0f79 5B210000 		.4byte	.LASF208
 4676 0f7d 25       		.byte	0x25
 4677 0f7e 6B       		.byte	0x6b
 4678 0f7f 230F0000 		.4byte	0xf23
 4679 0f83 0D       		.uleb128 0xd
 4680 0f84 93240000 		.4byte	.LASF209
 4681 0f88 10       		.byte	0x10
 4682 0f89 26       		.byte	0x26
 4683 0f8a 2C       		.byte	0x2c
 4684 0f8b B40F0000 		.4byte	0xfb4
 4685 0f8f 0A       		.uleb128 0xa
 4686 0f90 603B0000 		.4byte	.LASF210
 4687 0f94 26       		.byte	0x26
 4688 0f95 2D       		.byte	0x2d
 4689 0f96 370E0000 		.4byte	0xe37
 4690 0f9a 00       		.byte	0
 4691 0f9b 0A       		.uleb128 0xa
 4692 0f9c 63430000 		.4byte	.LASF211
 4693 0fa0 26       		.byte	0x26
 4694 0fa1 2F       		.byte	0x2f
 4695 0fa2 310E0000 		.4byte	0xe31
ARM GAS  /tmp/ccytVDiP.s 			page 84


 4696 0fa6 08       		.byte	0x8
 4697 0fa7 0A       		.uleb128 0xa
 4698 0fa8 60050000 		.4byte	.LASF212
 4699 0fac 26       		.byte	0x26
 4700 0fad 31       		.byte	0x31
 4701 0fae B40F0000 		.4byte	0xfb4
 4702 0fb2 0C       		.byte	0xc
 4703 0fb3 00       		.byte	0
 4704 0fb4 0F       		.uleb128 0xf
 4705 0fb5 04       		.byte	0x4
 4706 0fb6 830F0000 		.4byte	0xf83
 4707 0fba 03       		.uleb128 0x3
 4708 0fbb 93240000 		.4byte	.LASF209
 4709 0fbf 26       		.byte	0x26
 4710 0fc0 33       		.byte	0x33
 4711 0fc1 830F0000 		.4byte	0xf83
 4712 0fc5 03       		.uleb128 0x3
 4713 0fc6 3B3F0000 		.4byte	.LASF213
 4714 0fca 27       		.byte	0x27
 4715 0fcb 2C       		.byte	0x2c
 4716 0fcc D00F0000 		.4byte	0xfd0
 4717 0fd0 0D       		.uleb128 0xd
 4718 0fd1 3B3F0000 		.4byte	.LASF213
 4719 0fd5 10       		.byte	0x10
 4720 0fd6 27       		.byte	0x27
 4721 0fd7 31       		.byte	0x31
 4722 0fd8 0D100000 		.4byte	0x100d
 4723 0fdc 0A       		.uleb128 0xa
 4724 0fdd D7070000 		.4byte	.LASF214
 4725 0fe1 27       		.byte	0x27
 4726 0fe2 32       		.byte	0x32
 4727 0fe3 0D100000 		.4byte	0x100d
 4728 0fe7 00       		.byte	0
 4729 0fe8 0A       		.uleb128 0xa
 4730 0fe9 E0620000 		.4byte	.LASF215
 4731 0fed 27       		.byte	0x27
 4732 0fee 35       		.byte	0x35
 4733 0fef 310E0000 		.4byte	0xe31
 4734 0ff3 04       		.byte	0x4
 4735 0ff4 0A       		.uleb128 0xa
 4736 0ff5 260E0000 		.4byte	.LASF216
 4737 0ff9 27       		.byte	0x27
 4738 0ffa 37       		.byte	0x37
 4739 0ffb AE0C0000 		.4byte	0xcae
 4740 0fff 08       		.byte	0x8
 4741 1000 0A       		.uleb128 0xa
 4742 1001 7B680000 		.4byte	.LASF217
 4743 1005 27       		.byte	0x27
 4744 1006 3A       		.byte	0x3a
 4745 1007 B90C0000 		.4byte	0xcb9
 4746 100b 0C       		.byte	0xc
 4747 100c 00       		.byte	0
 4748 100d 0F       		.uleb128 0xf
 4749 100e 04       		.byte	0x4
 4750 100f D00F0000 		.4byte	0xfd0
 4751 1013 0D       		.uleb128 0xd
 4752 1014 7E2D0000 		.4byte	.LASF218
ARM GAS  /tmp/ccytVDiP.s 			page 85


 4753 1018 04       		.byte	0x4
 4754 1019 27       		.byte	0x27
 4755 101a 41       		.byte	0x41
 4756 101b 2C100000 		.4byte	0x102c
 4757 101f 0A       		.uleb128 0xa
 4758 1020 2C660000 		.4byte	.LASF219
 4759 1024 27       		.byte	0x27
 4760 1025 42       		.byte	0x42
 4761 1026 2C100000 		.4byte	0x102c
 4762 102a 00       		.byte	0
 4763 102b 00       		.byte	0
 4764 102c 0F       		.uleb128 0xf
 4765 102d 04       		.byte	0x4
 4766 102e C50F0000 		.4byte	0xfc5
 4767 1032 03       		.uleb128 0x3
 4768 1033 7E2D0000 		.4byte	.LASF218
 4769 1037 27       		.byte	0x27
 4770 1038 45       		.byte	0x45
 4771 1039 13100000 		.4byte	0x1013
 4772 103d 03       		.uleb128 0x3
 4773 103e 13040000 		.4byte	.LASF220
 4774 1042 28       		.byte	0x28
 4775 1043 2C       		.byte	0x2c
 4776 1044 48100000 		.4byte	0x1048
 4777 1048 0F       		.uleb128 0xf
 4778 1049 04       		.byte	0x4
 4779 104a 4E100000 		.4byte	0x104e
 4780 104e 13       		.uleb128 0x13
 4781 104f B8000000 		.4byte	0xb8
 4782 1053 5D100000 		.4byte	0x105d
 4783 1057 14       		.uleb128 0x14
 4784 1058 AD000000 		.4byte	0xad
 4785 105c 00       		.byte	0
 4786 105d 03       		.uleb128 0x3
 4787 105e 3C110000 		.4byte	.LASF221
 4788 1062 29       		.byte	0x29
 4789 1063 34       		.byte	0x34
 4790 1064 68100000 		.4byte	0x1068
 4791 1068 0D       		.uleb128 0xd
 4792 1069 5E460000 		.4byte	.LASF222
 4793 106d 20       		.byte	0x20
 4794 106e 29       		.byte	0x29
 4795 106f 47       		.byte	0x47
 4796 1070 99100000 		.4byte	0x1099
 4797 1074 0A       		.uleb128 0xa
 4798 1075 AE6D0000 		.4byte	.LASF223
 4799 1079 29       		.byte	0x29
 4800 107a 48       		.byte	0x48
 4801 107b 3D100000 		.4byte	0x103d
 4802 107f 00       		.byte	0
 4803 1080 0A       		.uleb128 0xa
 4804 1081 6B5C0000 		.4byte	.LASF224
 4805 1085 29       		.byte	0x29
 4806 1086 4A       		.byte	0x4a
 4807 1087 99100000 		.4byte	0x1099
 4808 108b 08       		.byte	0x8
 4809 108c 0A       		.uleb128 0xa
ARM GAS  /tmp/ccytVDiP.s 			page 86


 4810 108d EF560000 		.4byte	.LASF225
 4811 1091 29       		.byte	0x29
 4812 1092 4C       		.byte	0x4c
 4813 1093 BA0F0000 		.4byte	0xfba
 4814 1097 10       		.byte	0x10
 4815 1098 00       		.byte	0
 4816 1099 25       		.uleb128 0x25
 4817 109a 953F0000 		.4byte	.LASF1261
 4818 109e 08       		.byte	0x8
 4819 109f 29       		.byte	0x29
 4820 10a0 39       		.byte	0x39
 4821 10a1 F8100000 		.4byte	0x10f8
 4822 10a5 26       		.uleb128 0x26
 4823 10a6 08       		.byte	0x8
 4824 10a7 29       		.byte	0x29
 4825 10a8 3B       		.byte	0x3b
 4826 10a9 E3100000 		.4byte	0x10e3
 4827 10ad 08       		.uleb128 0x8
 4828 10ae 04       		.byte	0x4
 4829 10af 29       		.byte	0x29
 4830 10b0 3C       		.byte	0x3c
 4831 10b1 CC100000 		.4byte	0x10cc
 4832 10b5 09       		.uleb128 0x9
 4833 10b6 69070000 		.4byte	.LASF226
 4834 10ba 29       		.byte	0x29
 4835 10bb 3D       		.byte	0x3d
 4836 10bc F8100000 		.4byte	0x10f8
 4837 10c0 09       		.uleb128 0x9
 4838 10c1 CD5F0000 		.4byte	.LASF227
 4839 10c5 29       		.byte	0x29
 4840 10c6 3E       		.byte	0x3e
 4841 10c7 FE100000 		.4byte	0x10fe
 4842 10cb 00       		.byte	0
 4843 10cc 0E       		.uleb128 0xe
 4844 10cd 7500     		.ascii	"u\000"
 4845 10cf 29       		.byte	0x29
 4846 10d0 3F       		.byte	0x3f
 4847 10d1 AD100000 		.4byte	0x10ad
 4848 10d5 00       		.byte	0
 4849 10d6 0A       		.uleb128 0xa
 4850 10d7 1A270000 		.4byte	.LASF228
 4851 10db 29       		.byte	0x29
 4852 10dc 40       		.byte	0x40
 4853 10dd AD000000 		.4byte	0xad
 4854 10e1 04       		.byte	0x4
 4855 10e2 00       		.byte	0
 4856 10e3 09       		.uleb128 0x9
 4857 10e4 52190000 		.4byte	.LASF229
 4858 10e8 29       		.byte	0x29
 4859 10e9 3A       		.byte	0x3a
 4860 10ea 710E0000 		.4byte	0xe71
 4861 10ee 27       		.uleb128 0x27
 4862 10ef 6800     		.ascii	"h\000"
 4863 10f1 29       		.byte	0x29
 4864 10f2 41       		.byte	0x41
 4865 10f3 A5100000 		.4byte	0x10a5
 4866 10f7 00       		.byte	0
ARM GAS  /tmp/ccytVDiP.s 			page 87


 4867 10f8 0F       		.uleb128 0xf
 4868 10f9 04       		.byte	0x4
 4869 10fa 99100000 		.4byte	0x1099
 4870 10fe 0F       		.uleb128 0xf
 4871 10ff 04       		.byte	0x4
 4872 1100 5D100000 		.4byte	0x105d
 4873 1104 0D       		.uleb128 0xd
 4874 1105 1B1F0000 		.4byte	.LASF230
 4875 1109 04       		.byte	0x4
 4876 110a 2A       		.byte	0x2a
 4877 110b 2C       		.byte	0x2c
 4878 110c 1D110000 		.4byte	0x111d
 4879 1110 0A       		.uleb128 0xa
 4880 1111 E7380000 		.4byte	.LASF231
 4881 1115 2A       		.byte	0x2a
 4882 1116 2D       		.byte	0x2d
 4883 1117 1D110000 		.4byte	0x111d
 4884 111b 00       		.byte	0
 4885 111c 00       		.byte	0
 4886 111d 0F       		.uleb128 0xf
 4887 111e 04       		.byte	0x4
 4888 111f 04110000 		.4byte	0x1104
 4889 1123 07       		.uleb128 0x7
 4890 1124 0C       		.byte	0xc
 4891 1125 2A       		.byte	0x2a
 4892 1126 34       		.byte	0x34
 4893 1127 2A650000 		.4byte	.LASF232
 4894 112b 54110000 		.4byte	0x1154
 4895 112f 0A       		.uleb128 0xa
 4896 1130 91470000 		.4byte	.LASF233
 4897 1134 2A       		.byte	0x2a
 4898 1135 35       		.byte	0x35
 4899 1136 1D110000 		.4byte	0x111d
 4900 113a 00       		.byte	0
 4901 113b 0A       		.uleb128 0xa
 4902 113c 05180000 		.4byte	.LASF234
 4903 1140 2A       		.byte	0x2a
 4904 1141 36       		.byte	0x36
 4905 1142 AD000000 		.4byte	0xad
 4906 1146 04       		.byte	0x4
 4907 1147 0A       		.uleb128 0xa
 4908 1148 1A480000 		.4byte	.LASF235
 4909 114c 2A       		.byte	0x2a
 4910 114d 38       		.byte	0x38
 4911 114e 3D100000 		.4byte	0x103d
 4912 1152 08       		.byte	0x8
 4913 1153 00       		.byte	0
 4914 1154 03       		.uleb128 0x3
 4915 1155 E6180000 		.4byte	.LASF236
 4916 1159 2A       		.byte	0x2a
 4917 115a 3A       		.byte	0x3a
 4918 115b 23110000 		.4byte	0x1123
 4919 115f 0F       		.uleb128 0xf
 4920 1160 04       		.byte	0x4
 4921 1161 DA0C0000 		.4byte	0xcda
 4922 1165 0F       		.uleb128 0xf
 4923 1166 04       		.byte	0x4
ARM GAS  /tmp/ccytVDiP.s 			page 88


 4924 1167 710E0000 		.4byte	0xe71
 4925 116b 0F       		.uleb128 0xf
 4926 116c 04       		.byte	0x4
 4927 116d BA0F0000 		.4byte	0xfba
 4928 1171 03       		.uleb128 0x3
 4929 1172 C3190000 		.4byte	.LASF237
 4930 1176 23       		.byte	0x23
 4931 1177 E5       		.byte	0xe5
 4932 1178 7C110000 		.4byte	0x117c
 4933 117c 0F       		.uleb128 0xf
 4934 117d 04       		.byte	0x4
 4935 117e 82110000 		.4byte	0x1182
 4936 1182 13       		.uleb128 0x13
 4937 1183 A30C0000 		.4byte	0xca3
 4938 1187 91110000 		.4byte	0x1191
 4939 118b 14       		.uleb128 0x14
 4940 118c B8000000 		.4byte	0xb8
 4941 1190 00       		.byte	0
 4942 1191 03       		.uleb128 0x3
 4943 1192 39700000 		.4byte	.LASF238
 4944 1196 2B       		.byte	0x2b
 4945 1197 37       		.byte	0x37
 4946 1198 9C110000 		.4byte	0x119c
 4947 119c 0D       		.uleb128 0xd
 4948 119d 39700000 		.4byte	.LASF238
 4949 11a1 24       		.byte	0x24
 4950 11a2 2B       		.byte	0x2b
 4951 11a3 45       		.byte	0x45
 4952 11a4 09120000 		.4byte	0x1209
 4953 11a8 0A       		.uleb128 0xa
 4954 11a9 FA140000 		.4byte	.LASF239
 4955 11ad 2B       		.byte	0x2b
 4956 11ae 46       		.byte	0x46
 4957 11af 370E0000 		.4byte	0xe37
 4958 11b3 00       		.byte	0
 4959 11b4 0A       		.uleb128 0xa
 4960 11b5 94490000 		.4byte	.LASF240
 4961 11b9 2B       		.byte	0x2b
 4962 11ba 47       		.byte	0x47
 4963 11bb AD000000 		.4byte	0xad
 4964 11bf 08       		.byte	0x8
 4965 11c0 0A       		.uleb128 0xa
 4966 11c1 60340000 		.4byte	.LASF241
 4967 11c5 2B       		.byte	0x2b
 4968 11c6 48       		.byte	0x48
 4969 11c7 2B120000 		.4byte	0x122b
 4970 11cb 0C       		.byte	0xc
 4971 11cc 0A       		.uleb128 0xa
 4972 11cd 47110000 		.4byte	.LASF242
 4973 11d1 2B       		.byte	0x2b
 4974 11d2 49       		.byte	0x49
 4975 11d3 2B120000 		.4byte	0x122b
 4976 11d7 10       		.byte	0x10
 4977 11d8 0A       		.uleb128 0xa
 4978 11d9 A44E0000 		.4byte	.LASF243
 4979 11dd 2B       		.byte	0x2b
 4980 11de 4B       		.byte	0x4b
ARM GAS  /tmp/ccytVDiP.s 			page 89


 4981 11df 2B120000 		.4byte	0x122b
 4982 11e3 14       		.byte	0x14
 4983 11e4 0A       		.uleb128 0xa
 4984 11e5 F54A0000 		.4byte	.LASF244
 4985 11e9 2B       		.byte	0x2b
 4986 11ea 4C       		.byte	0x4c
 4987 11eb 2B120000 		.4byte	0x122b
 4988 11ef 18       		.byte	0x18
 4989 11f0 0A       		.uleb128 0xa
 4990 11f1 7B5B0000 		.4byte	.LASF245
 4991 11f5 2B       		.byte	0x2b
 4992 11f6 4D       		.byte	0x4d
 4993 11f7 09120000 		.4byte	0x1209
 4994 11fb 1C       		.byte	0x1c
 4995 11fc 0A       		.uleb128 0xa
 4996 11fd 38520000 		.4byte	.LASF246
 4997 1201 2B       		.byte	0x2b
 4998 1202 4E       		.byte	0x4e
 4999 1203 B8000000 		.4byte	0xb8
 5000 1207 20       		.byte	0x20
 5001 1208 00       		.byte	0
 5002 1209 03       		.uleb128 0x3
 5003 120a 9A100000 		.4byte	.LASF247
 5004 120e 2B       		.byte	0x2b
 5005 120f 3A       		.byte	0x3a
 5006 1210 14120000 		.4byte	0x1214
 5007 1214 0F       		.uleb128 0xf
 5008 1215 04       		.byte	0x4
 5009 1216 1A120000 		.4byte	0x121a
 5010 121a 1D       		.uleb128 0x1d
 5011 121b 25120000 		.4byte	0x1225
 5012 121f 14       		.uleb128 0x14
 5013 1220 25120000 		.4byte	0x1225
 5014 1224 00       		.byte	0
 5015 1225 0F       		.uleb128 0xf
 5016 1226 04       		.byte	0x4
 5017 1227 91110000 		.4byte	0x1191
 5018 122b 0F       		.uleb128 0xf
 5019 122c 04       		.byte	0x4
 5020 122d 230C0000 		.4byte	0xc23
 5021 1231 03       		.uleb128 0x3
 5022 1232 8F100000 		.4byte	.LASF248
 5023 1236 2B       		.byte	0x2b
 5024 1237 82       		.byte	0x82
 5025 1238 91110000 		.4byte	0x1191
 5026 123c 03       		.uleb128 0x3
 5027 123d 81730000 		.4byte	.LASF249
 5028 1241 2B       		.byte	0x2b
 5029 1242 F5       		.byte	0xf5
 5030 1243 91110000 		.4byte	0x1191
 5031 1247 13       		.uleb128 0x13
 5032 1248 AD000000 		.4byte	0xad
 5033 124c 60120000 		.4byte	0x1260
 5034 1250 14       		.uleb128 0x14
 5035 1251 B8000000 		.4byte	0xb8
 5036 1255 14       		.uleb128 0x14
 5037 1256 60120000 		.4byte	0x1260
ARM GAS  /tmp/ccytVDiP.s 			page 90


 5038 125a 14       		.uleb128 0x14
 5039 125b AD000000 		.4byte	0xad
 5040 125f 00       		.byte	0
 5041 1260 0F       		.uleb128 0xf
 5042 1261 04       		.byte	0x4
 5043 1262 66120000 		.4byte	0x1266
 5044 1266 1B       		.uleb128 0x1b
 5045 1267 230C0000 		.4byte	0xc23
 5046 126b 0F       		.uleb128 0xf
 5047 126c 04       		.byte	0x4
 5048 126d 47120000 		.4byte	0x1247
 5049 1271 13       		.uleb128 0x13
 5050 1272 AD000000 		.4byte	0xad
 5051 1276 8A120000 		.4byte	0x128a
 5052 127a 14       		.uleb128 0x14
 5053 127b B8000000 		.4byte	0xb8
 5054 127f 14       		.uleb128 0x14
 5055 1280 2B120000 		.4byte	0x122b
 5056 1284 14       		.uleb128 0x14
 5057 1285 AD000000 		.4byte	0xad
 5058 1289 00       		.byte	0
 5059 128a 0F       		.uleb128 0xf
 5060 128b 04       		.byte	0x4
 5061 128c 71120000 		.4byte	0x1271
 5062 1290 13       		.uleb128 0x13
 5063 1291 A30C0000 		.4byte	0xca3
 5064 1295 A4120000 		.4byte	0x12a4
 5065 1299 14       		.uleb128 0x14
 5066 129a B8000000 		.4byte	0xb8
 5067 129e 14       		.uleb128 0x14
 5068 129f 230C0000 		.4byte	0xc23
 5069 12a3 00       		.byte	0
 5070 12a4 0F       		.uleb128 0xf
 5071 12a5 04       		.byte	0x4
 5072 12a6 90120000 		.4byte	0x1290
 5073 12aa 24       		.uleb128 0x24
 5074 12ab 2E0C0000 		.4byte	0xc2e
 5075 12af 24       		.uleb128 0x24
 5076 12b0 390C0000 		.4byte	0xc39
 5077 12b4 28       		.uleb128 0x28
 5078 12b5 2C       		.byte	0x2c
 5079 12b6 2C       		.byte	0x2c
 5080 12b7 1C03     		.2byte	0x31c
 5081 12b9 EC440000 		.4byte	.LASF332
 5082 12bd 92130000 		.4byte	0x1392
 5083 12c1 23       		.uleb128 0x23
 5084 12c2 43523100 		.ascii	"CR1\000"
 5085 12c6 2C       		.byte	0x2c
 5086 12c7 1D03     		.2byte	0x31d
 5087 12c9 190F0000 		.4byte	0xf19
 5088 12cd 00       		.byte	0
 5089 12ce 23       		.uleb128 0x23
 5090 12cf 43523200 		.ascii	"CR2\000"
 5091 12d3 2C       		.byte	0x2c
 5092 12d4 1E03     		.2byte	0x31e
 5093 12d6 190F0000 		.4byte	0xf19
 5094 12da 04       		.byte	0x4
ARM GAS  /tmp/ccytVDiP.s 			page 91


 5095 12db 23       		.uleb128 0x23
 5096 12dc 43523300 		.ascii	"CR3\000"
 5097 12e0 2C       		.byte	0x2c
 5098 12e1 1F03     		.2byte	0x31f
 5099 12e3 190F0000 		.4byte	0xf19
 5100 12e7 08       		.byte	0x8
 5101 12e8 23       		.uleb128 0x23
 5102 12e9 42525200 		.ascii	"BRR\000"
 5103 12ed 2C       		.byte	0x2c
 5104 12ee 2003     		.2byte	0x320
 5105 12f0 AA120000 		.4byte	0x12aa
 5106 12f4 0C       		.byte	0xc
 5107 12f5 18       		.uleb128 0x18
 5108 12f6 6A610000 		.4byte	.LASF250
 5109 12fa 2C       		.byte	0x2c
 5110 12fb 2103     		.2byte	0x321
 5111 12fd 2E0C0000 		.4byte	0xc2e
 5112 1301 0E       		.byte	0xe
 5113 1302 18       		.uleb128 0x18
 5114 1303 D02D0000 		.4byte	.LASF251
 5115 1307 2C       		.byte	0x2c
 5116 1308 2203     		.2byte	0x322
 5117 130a AA120000 		.4byte	0x12aa
 5118 130e 10       		.byte	0x10
 5119 130f 18       		.uleb128 0x18
 5120 1310 74610000 		.4byte	.LASF252
 5121 1314 2C       		.byte	0x2c
 5122 1315 2303     		.2byte	0x323
 5123 1317 2E0C0000 		.4byte	0xc2e
 5124 131b 12       		.byte	0x12
 5125 131c 18       		.uleb128 0x18
 5126 131d 511D0000 		.4byte	.LASF253
 5127 1321 2C       		.byte	0x2c
 5128 1322 2403     		.2byte	0x324
 5129 1324 190F0000 		.4byte	0xf19
 5130 1328 14       		.byte	0x14
 5131 1329 23       		.uleb128 0x23
 5132 132a 52515200 		.ascii	"RQR\000"
 5133 132e 2C       		.byte	0x2c
 5134 132f 2503     		.2byte	0x325
 5135 1331 AA120000 		.4byte	0x12aa
 5136 1335 18       		.byte	0x18
 5137 1336 18       		.uleb128 0x18
 5138 1337 7E610000 		.4byte	.LASF254
 5139 133b 2C       		.byte	0x2c
 5140 133c 2603     		.2byte	0x326
 5141 133e 2E0C0000 		.4byte	0xc2e
 5142 1342 1A       		.byte	0x1a
 5143 1343 23       		.uleb128 0x23
 5144 1344 49535200 		.ascii	"ISR\000"
 5145 1348 2C       		.byte	0x2c
 5146 1349 2703     		.2byte	0x327
 5147 134b 190F0000 		.4byte	0xf19
 5148 134f 1C       		.byte	0x1c
 5149 1350 23       		.uleb128 0x23
 5150 1351 49435200 		.ascii	"ICR\000"
 5151 1355 2C       		.byte	0x2c
ARM GAS  /tmp/ccytVDiP.s 			page 92


 5152 1356 2803     		.2byte	0x328
 5153 1358 190F0000 		.4byte	0xf19
 5154 135c 20       		.byte	0x20
 5155 135d 23       		.uleb128 0x23
 5156 135e 52445200 		.ascii	"RDR\000"
 5157 1362 2C       		.byte	0x2c
 5158 1363 2903     		.2byte	0x329
 5159 1365 AA120000 		.4byte	0x12aa
 5160 1369 24       		.byte	0x24
 5161 136a 18       		.uleb128 0x18
 5162 136b 88610000 		.4byte	.LASF255
 5163 136f 2C       		.byte	0x2c
 5164 1370 2A03     		.2byte	0x32a
 5165 1372 2E0C0000 		.4byte	0xc2e
 5166 1376 26       		.byte	0x26
 5167 1377 23       		.uleb128 0x23
 5168 1378 54445200 		.ascii	"TDR\000"
 5169 137c 2C       		.byte	0x2c
 5170 137d 2B03     		.2byte	0x32b
 5171 137f AA120000 		.4byte	0x12aa
 5172 1383 28       		.byte	0x28
 5173 1384 18       		.uleb128 0x18
 5174 1385 92610000 		.4byte	.LASF256
 5175 1389 2C       		.byte	0x2c
 5176 138a 2C03     		.2byte	0x32c
 5177 138c 2E0C0000 		.4byte	0xc2e
 5178 1390 2A       		.byte	0x2a
 5179 1391 00       		.byte	0
 5180 1392 06       		.uleb128 0x6
 5181 1393 2A790000 		.4byte	.LASF257
 5182 1397 2C       		.byte	0x2c
 5183 1398 2D03     		.2byte	0x32d
 5184 139a B4120000 		.4byte	0x12b4
 5185 139e 0D       		.uleb128 0xd
 5186 139f 627A0000 		.4byte	.LASF258
 5187 13a3 20       		.byte	0x20
 5188 13a4 2D       		.byte	0x2d
 5189 13a5 4E       		.byte	0x4e
 5190 13a6 0B140000 		.4byte	0x140b
 5191 13aa 0A       		.uleb128 0xa
 5192 13ab 0F4B0000 		.4byte	.LASF259
 5193 13af 2D       		.byte	0x2d
 5194 13b0 4F       		.byte	0x4f
 5195 13b1 6B120000 		.4byte	0x126b
 5196 13b5 00       		.byte	0
 5197 13b6 0A       		.uleb128 0xa
 5198 13b7 0A060000 		.4byte	.LASF260
 5199 13bb 2D       		.byte	0x2d
 5200 13bc 4F       		.byte	0x4f
 5201 13bd 8A120000 		.4byte	0x128a
 5202 13c1 04       		.byte	0x4
 5203 13c2 0E       		.uleb128 0xe
 5204 13c3 70757400 		.ascii	"put\000"
 5205 13c7 2D       		.byte	0x2d
 5206 13c8 4F       		.byte	0x4f
 5207 13c9 A4120000 		.4byte	0x12a4
 5208 13cd 08       		.byte	0x8
ARM GAS  /tmp/ccytVDiP.s 			page 93


 5209 13ce 0E       		.uleb128 0xe
 5210 13cf 67657400 		.ascii	"get\000"
 5211 13d3 2D       		.byte	0x2d
 5212 13d4 4F       		.byte	0x4f
 5213 13d5 7C110000 		.4byte	0x117c
 5214 13d9 0C       		.byte	0xc
 5215 13da 0A       		.uleb128 0xa
 5216 13db 453E0000 		.4byte	.LASF261
 5217 13df 2D       		.byte	0x2d
 5218 13e0 4F       		.byte	0x4f
 5219 13e1 24140000 		.4byte	0x1424
 5220 13e5 10       		.byte	0x10
 5221 13e6 0A       		.uleb128 0xa
 5222 13e7 D24A0000 		.4byte	.LASF262
 5223 13eb 2D       		.byte	0x2d
 5224 13ec 4F       		.byte	0x4f
 5225 13ed 3E140000 		.4byte	0x143e
 5226 13f1 14       		.byte	0x14
 5227 13f2 0A       		.uleb128 0xa
 5228 13f3 B96D0000 		.4byte	.LASF263
 5229 13f7 2D       		.byte	0x2d
 5230 13f8 4F       		.byte	0x4f
 5231 13f9 62140000 		.4byte	0x1462
 5232 13fd 18       		.byte	0x18
 5233 13fe 0A       		.uleb128 0xa
 5234 13ff 845B0000 		.4byte	.LASF264
 5235 1403 2D       		.byte	0x2d
 5236 1404 4F       		.byte	0x4f
 5237 1405 86140000 		.4byte	0x1486
 5238 1409 1C       		.byte	0x1c
 5239 140a 00       		.byte	0
 5240 140b 13       		.uleb128 0x13
 5241 140c A30C0000 		.4byte	0xca3
 5242 1410 24140000 		.4byte	0x1424
 5243 1414 14       		.uleb128 0x14
 5244 1415 B8000000 		.4byte	0xb8
 5245 1419 14       		.uleb128 0x14
 5246 141a 230C0000 		.4byte	0xc23
 5247 141e 14       		.uleb128 0x14
 5248 141f C40C0000 		.4byte	0xcc4
 5249 1423 00       		.byte	0
 5250 1424 0F       		.uleb128 0xf
 5251 1425 04       		.byte	0x4
 5252 1426 0B140000 		.4byte	0x140b
 5253 142a 13       		.uleb128 0x13
 5254 142b A30C0000 		.4byte	0xca3
 5255 142f 3E140000 		.4byte	0x143e
 5256 1433 14       		.uleb128 0x14
 5257 1434 B8000000 		.4byte	0xb8
 5258 1438 14       		.uleb128 0x14
 5259 1439 C40C0000 		.4byte	0xcc4
 5260 143d 00       		.byte	0
 5261 143e 0F       		.uleb128 0xf
 5262 143f 04       		.byte	0x4
 5263 1440 2A140000 		.4byte	0x142a
 5264 1444 13       		.uleb128 0x13
 5265 1445 AD000000 		.4byte	0xad
ARM GAS  /tmp/ccytVDiP.s 			page 94


 5266 1449 62140000 		.4byte	0x1462
 5267 144d 14       		.uleb128 0x14
 5268 144e B8000000 		.4byte	0xb8
 5269 1452 14       		.uleb128 0x14
 5270 1453 60120000 		.4byte	0x1260
 5271 1457 14       		.uleb128 0x14
 5272 1458 AD000000 		.4byte	0xad
 5273 145c 14       		.uleb128 0x14
 5274 145d C40C0000 		.4byte	0xcc4
 5275 1461 00       		.byte	0
 5276 1462 0F       		.uleb128 0xf
 5277 1463 04       		.byte	0x4
 5278 1464 44140000 		.4byte	0x1444
 5279 1468 13       		.uleb128 0x13
 5280 1469 AD000000 		.4byte	0xad
 5281 146d 86140000 		.4byte	0x1486
 5282 1471 14       		.uleb128 0x14
 5283 1472 B8000000 		.4byte	0xb8
 5284 1476 14       		.uleb128 0x14
 5285 1477 2B120000 		.4byte	0x122b
 5286 147b 14       		.uleb128 0x14
 5287 147c AD000000 		.4byte	0xad
 5288 1480 14       		.uleb128 0x14
 5289 1481 C40C0000 		.4byte	0xcc4
 5290 1485 00       		.byte	0
 5291 1486 0F       		.uleb128 0xf
 5292 1487 04       		.byte	0x4
 5293 1488 68140000 		.4byte	0x1468
 5294 148c 07       		.uleb128 0x7
 5295 148d 04       		.byte	0x4
 5296 148e 2D       		.byte	0x2d
 5297 148f 59       		.byte	0x59
 5298 1490 C06D0000 		.4byte	.LASF265
 5299 1494 A5140000 		.4byte	0x14a5
 5300 1498 0E       		.uleb128 0xe
 5301 1499 766D7400 		.ascii	"vmt\000"
 5302 149d 2D       		.byte	0x2d
 5303 149e 5B       		.byte	0x5b
 5304 149f A5140000 		.4byte	0x14a5
 5305 14a3 00       		.byte	0
 5306 14a4 00       		.byte	0
 5307 14a5 0F       		.uleb128 0xf
 5308 14a6 04       		.byte	0x4
 5309 14a7 AB140000 		.4byte	0x14ab
 5310 14ab 1B       		.uleb128 0x1b
 5311 14ac 9E130000 		.4byte	0x139e
 5312 14b0 03       		.uleb128 0x3
 5313 14b1 C2220000 		.4byte	.LASF266
 5314 14b5 2D       		.byte	0x2d
 5315 14b6 5D       		.byte	0x5d
 5316 14b7 8C140000 		.4byte	0x148c
 5317 14bb 07       		.uleb128 0x7
 5318 14bc 28       		.byte	0x28
 5319 14bd 2E       		.byte	0x2e
 5320 14be 8C       		.byte	0x8c
 5321 14bf 50130000 		.4byte	.LASF267
 5322 14c3 81150000 		.4byte	0x1581
ARM GAS  /tmp/ccytVDiP.s 			page 95


 5323 14c7 08       		.uleb128 0x8
 5324 14c8 04       		.byte	0x4
 5325 14c9 2E       		.byte	0x2e
 5326 14ca 94       		.byte	0x94
 5327 14cb 03150000 		.4byte	0x1503
 5328 14cf 26       		.uleb128 0x26
 5329 14d0 04       		.byte	0x4
 5330 14d1 2E       		.byte	0x2e
 5331 14d2 96       		.byte	0x96
 5332 14d3 F0140000 		.4byte	0x14f0
 5333 14d7 0E       		.uleb128 0xe
 5334 14d8 73657400 		.ascii	"set\000"
 5335 14dc 2E       		.byte	0x2e
 5336 14dd 97       		.byte	0x97
 5337 14de 2E0C0000 		.4byte	0xc2e
 5338 14e2 00       		.byte	0
 5339 14e3 0A       		.uleb128 0xa
 5340 14e4 06280000 		.4byte	.LASF268
 5341 14e8 2E       		.byte	0x2e
 5342 14e9 98       		.byte	0x98
 5343 14ea 2E0C0000 		.4byte	0xc2e
 5344 14ee 02       		.byte	0x2
 5345 14ef 00       		.byte	0
 5346 14f0 27       		.uleb128 0x27
 5347 14f1 5700     		.ascii	"W\000"
 5348 14f3 2E       		.byte	0x2e
 5349 14f4 95       		.byte	0x95
 5350 14f5 440C0000 		.4byte	0xc44
 5351 14f9 27       		.uleb128 0x27
 5352 14fa 4800     		.ascii	"H\000"
 5353 14fc 2E       		.byte	0x2e
 5354 14fd 99       		.byte	0x99
 5355 14fe CF140000 		.4byte	0x14cf
 5356 1502 00       		.byte	0
 5357 1503 0A       		.uleb128 0xa
 5358 1504 BA600000 		.4byte	.LASF269
 5359 1508 2E       		.byte	0x2e
 5360 1509 8E       		.byte	0x8e
 5361 150a 190F0000 		.4byte	0xf19
 5362 150e 00       		.byte	0
 5363 150f 0A       		.uleb128 0xa
 5364 1510 4F0C0000 		.4byte	.LASF270
 5365 1514 2E       		.byte	0x2e
 5366 1515 8F       		.byte	0x8f
 5367 1516 190F0000 		.4byte	0xf19
 5368 151a 04       		.byte	0x4
 5369 151b 0A       		.uleb128 0xa
 5370 151c F62D0000 		.4byte	.LASF271
 5371 1520 2E       		.byte	0x2e
 5372 1521 90       		.byte	0x90
 5373 1522 190F0000 		.4byte	0xf19
 5374 1526 08       		.byte	0x8
 5375 1527 0A       		.uleb128 0xa
 5376 1528 AF5D0000 		.4byte	.LASF272
 5377 152c 2E       		.byte	0x2e
 5378 152d 91       		.byte	0x91
 5379 152e 190F0000 		.4byte	0xf19
ARM GAS  /tmp/ccytVDiP.s 			page 96


 5380 1532 0C       		.byte	0xc
 5381 1533 0E       		.uleb128 0xe
 5382 1534 49445200 		.ascii	"IDR\000"
 5383 1538 2E       		.byte	0x2e
 5384 1539 92       		.byte	0x92
 5385 153a 190F0000 		.4byte	0xf19
 5386 153e 10       		.byte	0x10
 5387 153f 0E       		.uleb128 0xe
 5388 1540 4F445200 		.ascii	"ODR\000"
 5389 1544 2E       		.byte	0x2e
 5390 1545 93       		.byte	0x93
 5391 1546 190F0000 		.4byte	0xf19
 5392 154a 14       		.byte	0x14
 5393 154b 0A       		.uleb128 0xa
 5394 154c 27390000 		.4byte	.LASF273
 5395 1550 2E       		.byte	0x2e
 5396 1551 9A       		.byte	0x9a
 5397 1552 57150000 		.4byte	0x1557
 5398 1556 18       		.byte	0x18
 5399 1557 24       		.uleb128 0x24
 5400 1558 C7140000 		.4byte	0x14c7
 5401 155c 0A       		.uleb128 0xa
 5402 155d 684B0000 		.4byte	.LASF274
 5403 1561 2E       		.byte	0x2e
 5404 1562 9B       		.byte	0x9b
 5405 1563 190F0000 		.4byte	0xf19
 5406 1567 1C       		.byte	0x1c
 5407 1568 0A       		.uleb128 0xa
 5408 1569 A4580000 		.4byte	.LASF275
 5409 156d 2E       		.byte	0x2e
 5410 156e 9C       		.byte	0x9c
 5411 156f 190F0000 		.4byte	0xf19
 5412 1573 20       		.byte	0x20
 5413 1574 0A       		.uleb128 0xa
 5414 1575 9A580000 		.4byte	.LASF276
 5415 1579 2E       		.byte	0x2e
 5416 157a 9D       		.byte	0x9d
 5417 157b 190F0000 		.4byte	0xf19
 5418 157f 24       		.byte	0x24
 5419 1580 00       		.byte	0
 5420 1581 03       		.uleb128 0x3
 5421 1582 A11C0000 		.4byte	.LASF277
 5422 1586 2E       		.byte	0x2e
 5423 1587 9E       		.byte	0x9e
 5424 1588 BB140000 		.4byte	0x14bb
 5425 158c 03       		.uleb128 0x3
 5426 158d 0C3F0000 		.4byte	.LASF278
 5427 1591 2E       		.byte	0x2e
 5428 1592 F0       		.byte	0xf0
 5429 1593 440C0000 		.4byte	0xc44
 5430 1597 29       		.uleb128 0x29
 5431 1598 01       		.byte	0x1
 5432 1599 2F       		.byte	0x2f
 5433 159a 64       		.byte	0x64
 5434 159b F9580000 		.4byte	.LASF307
 5435 159f B6150000 		.4byte	0x15b6
 5436 15a3 2A       		.uleb128 0x2a
ARM GAS  /tmp/ccytVDiP.s 			page 97


 5437 15a4 21170000 		.4byte	.LASF279
 5438 15a8 00       		.sleb128 0
 5439 15a9 2A       		.uleb128 0x2a
 5440 15aa 22280000 		.4byte	.LASF280
 5441 15ae 01       		.sleb128 1
 5442 15af 2A       		.uleb128 0x2a
 5443 15b0 717A0000 		.4byte	.LASF281
 5444 15b4 02       		.sleb128 2
 5445 15b5 00       		.byte	0
 5446 15b6 03       		.uleb128 0x3
 5447 15b7 6D4B0000 		.4byte	.LASF282
 5448 15bb 2F       		.byte	0x2f
 5449 15bc 68       		.byte	0x68
 5450 15bd 97150000 		.4byte	0x1597
 5451 15c1 03       		.uleb128 0x3
 5452 15c2 B2010000 		.4byte	.LASF283
 5453 15c6 2F       		.byte	0x2f
 5454 15c7 6D       		.byte	0x6d
 5455 15c8 CC150000 		.4byte	0x15cc
 5456 15cc 10       		.uleb128 0x10
 5457 15cd B2010000 		.4byte	.LASF283
 5458 15d1 5C02     		.2byte	0x25c
 5459 15d3 2F       		.byte	0x2f
 5460 15d4 87       		.byte	0x87
 5461 15d5 47160000 		.4byte	0x1647
 5462 15d9 0E       		.uleb128 0xe
 5463 15da 766D7400 		.ascii	"vmt\000"
 5464 15de 2F       		.byte	0x2f
 5465 15df 89       		.byte	0x89
 5466 15e0 B4160000 		.4byte	0x16b4
 5467 15e4 00       		.byte	0
 5468 15e5 0A       		.uleb128 0xa
 5469 15e6 2A000000 		.4byte	.LASF284
 5470 15ea 2F       		.byte	0x2f
 5471 15eb 8A       		.byte	0x8a
 5472 15ec 32100000 		.4byte	0x1032
 5473 15f0 04       		.byte	0x4
 5474 15f1 0A       		.uleb128 0xa
 5475 15f2 3D440000 		.4byte	.LASF285
 5476 15f6 2F       		.byte	0x2f
 5477 15f7 8A       		.byte	0x8a
 5478 15f8 B6150000 		.4byte	0x15b6
 5479 15fc 08       		.byte	0x8
 5480 15fd 0A       		.uleb128 0xa
 5481 15fe 204B0000 		.4byte	.LASF286
 5482 1602 2F       		.byte	0x2f
 5483 1603 8A       		.byte	0x8a
 5484 1604 31120000 		.4byte	0x1231
 5485 1608 0C       		.byte	0xc
 5486 1609 0A       		.uleb128 0xa
 5487 160a 2C370000 		.4byte	.LASF287
 5488 160e 2F       		.byte	0x2f
 5489 160f 8A       		.byte	0x8a
 5490 1610 3C120000 		.4byte	0x123c
 5491 1614 30       		.byte	0x30
 5492 1615 0E       		.uleb128 0xe
 5493 1616 696200   		.ascii	"ib\000"
ARM GAS  /tmp/ccytVDiP.s 			page 98


 5494 1619 2F       		.byte	0x2f
 5495 161a 8A       		.byte	0x8a
 5496 161b BF160000 		.4byte	0x16bf
 5497 161f 54       		.byte	0x54
 5498 1620 2B       		.uleb128 0x2b
 5499 1621 6F6200   		.ascii	"ob\000"
 5500 1624 2F       		.byte	0x2f
 5501 1625 8A       		.byte	0x8a
 5502 1626 BF160000 		.4byte	0x16bf
 5503 162a 5401     		.2byte	0x154
 5504 162c 11       		.uleb128 0x11
 5505 162d BB510000 		.4byte	.LASF288
 5506 1631 2F       		.byte	0x2f
 5507 1632 8A       		.byte	0x8a
 5508 1633 CF160000 		.4byte	0x16cf
 5509 1637 5402     		.2byte	0x254
 5510 1639 11       		.uleb128 0x11
 5511 163a CF270000 		.4byte	.LASF289
 5512 163e 2F       		.byte	0x2f
 5513 163f 8A       		.byte	0x8a
 5514 1640 440C0000 		.4byte	0xc44
 5515 1644 5802     		.2byte	0x258
 5516 1646 00       		.byte	0
 5517 1647 0D       		.uleb128 0xd
 5518 1648 692E0000 		.4byte	.LASF290
 5519 164c 20       		.byte	0x20
 5520 164d 2F       		.byte	0x2f
 5521 164e 7C       		.byte	0x7c
 5522 164f B4160000 		.4byte	0x16b4
 5523 1653 0A       		.uleb128 0xa
 5524 1654 0F4B0000 		.4byte	.LASF259
 5525 1658 2F       		.byte	0x2f
 5526 1659 7D       		.byte	0x7d
 5527 165a 6B120000 		.4byte	0x126b
 5528 165e 00       		.byte	0
 5529 165f 0A       		.uleb128 0xa
 5530 1660 0A060000 		.4byte	.LASF260
 5531 1664 2F       		.byte	0x2f
 5532 1665 7D       		.byte	0x7d
 5533 1666 8A120000 		.4byte	0x128a
 5534 166a 04       		.byte	0x4
 5535 166b 0E       		.uleb128 0xe
 5536 166c 70757400 		.ascii	"put\000"
 5537 1670 2F       		.byte	0x2f
 5538 1671 7D       		.byte	0x7d
 5539 1672 A4120000 		.4byte	0x12a4
 5540 1676 08       		.byte	0x8
 5541 1677 0E       		.uleb128 0xe
 5542 1678 67657400 		.ascii	"get\000"
 5543 167c 2F       		.byte	0x2f
 5544 167d 7D       		.byte	0x7d
 5545 167e 7C110000 		.4byte	0x117c
 5546 1682 0C       		.byte	0xc
 5547 1683 0A       		.uleb128 0xa
 5548 1684 453E0000 		.4byte	.LASF261
 5549 1688 2F       		.byte	0x2f
 5550 1689 7D       		.byte	0x7d
ARM GAS  /tmp/ccytVDiP.s 			page 99


 5551 168a 24140000 		.4byte	0x1424
 5552 168e 10       		.byte	0x10
 5553 168f 0A       		.uleb128 0xa
 5554 1690 D24A0000 		.4byte	.LASF262
 5555 1694 2F       		.byte	0x2f
 5556 1695 7D       		.byte	0x7d
 5557 1696 3E140000 		.4byte	0x143e
 5558 169a 14       		.byte	0x14
 5559 169b 0A       		.uleb128 0xa
 5560 169c B96D0000 		.4byte	.LASF263
 5561 16a0 2F       		.byte	0x2f
 5562 16a1 7D       		.byte	0x7d
 5563 16a2 62140000 		.4byte	0x1462
 5564 16a6 18       		.byte	0x18
 5565 16a7 0A       		.uleb128 0xa
 5566 16a8 845B0000 		.4byte	.LASF264
 5567 16ac 2F       		.byte	0x2f
 5568 16ad 7D       		.byte	0x7d
 5569 16ae 86140000 		.4byte	0x1486
 5570 16b2 1C       		.byte	0x1c
 5571 16b3 00       		.byte	0
 5572 16b4 0F       		.uleb128 0xf
 5573 16b5 04       		.byte	0x4
 5574 16b6 BA160000 		.4byte	0x16ba
 5575 16ba 1B       		.uleb128 0x1b
 5576 16bb 47160000 		.4byte	0x1647
 5577 16bf 0B       		.uleb128 0xb
 5578 16c0 37000000 		.4byte	0x37
 5579 16c4 CF160000 		.4byte	0x16cf
 5580 16c8 0C       		.uleb128 0xc
 5581 16c9 3B010000 		.4byte	0x13b
 5582 16cd FF       		.byte	0xff
 5583 16ce 00       		.byte	0
 5584 16cf 0F       		.uleb128 0xf
 5585 16d0 04       		.byte	0x4
 5586 16d1 92130000 		.4byte	0x1392
 5587 16d5 03       		.uleb128 0x3
 5588 16d6 67350000 		.4byte	.LASF291
 5589 16da 30       		.byte	0x30
 5590 16db E9       		.byte	0xe9
 5591 16dc E0160000 		.4byte	0x16e0
 5592 16e0 1C       		.uleb128 0x1c
 5593 16e1 67350000 		.4byte	.LASF291
 5594 16e5 84       		.byte	0x84
 5595 16e6 31       		.byte	0x31
 5596 16e7 1B01     		.2byte	0x11b
 5597 16e9 BE170000 		.4byte	0x17be
 5598 16ed 18       		.uleb128 0x18
 5599 16ee 3D440000 		.4byte	.LASF285
 5600 16f2 31       		.byte	0x31
 5601 16f3 1F01     		.2byte	0x11f
 5602 16f5 F4170000 		.4byte	0x17f4
 5603 16f9 00       		.byte	0
 5604 16fa 18       		.uleb128 0x18
 5605 16fb 87590000 		.4byte	.LASF292
 5606 16ff 31       		.byte	0x31
 5607 1700 2301     		.2byte	0x123
ARM GAS  /tmp/ccytVDiP.s 			page 100


 5608 1702 9C1B0000 		.4byte	0x1b9c
 5609 1706 04       		.byte	0x4
 5610 1707 18       		.uleb128 0x18
 5611 1708 E9690000 		.4byte	.LASF293
 5612 170c 31       		.byte	0x31
 5613 170d 2701     		.2byte	0x127
 5614 170f 2E0C0000 		.4byte	0xc2e
 5615 1713 08       		.byte	0x8
 5616 1714 18       		.uleb128 0x18
 5617 1715 DA740000 		.4byte	.LASF294
 5618 1719 31       		.byte	0x31
 5619 171a 2B01     		.2byte	0x12b
 5620 171c 2E0C0000 		.4byte	0xc2e
 5621 1720 0A       		.byte	0xa
 5622 1721 23       		.uleb128 0x23
 5623 1722 65706300 		.ascii	"epc\000"
 5624 1726 31       		.byte	0x31
 5625 1727 2F01     		.2byte	0x12f
 5626 1729 A71B0000 		.4byte	0x1ba7
 5627 172d 0C       		.byte	0xc
 5628 172e 18       		.uleb128 0x18
 5629 172f DF070000 		.4byte	.LASF295
 5630 1733 31       		.byte	0x31
 5631 1734 3601     		.2byte	0x136
 5632 1736 C21B0000 		.4byte	0x1bc2
 5633 173a 2C       		.byte	0x2c
 5634 173b 18       		.uleb128 0x18
 5635 173c 96250000 		.4byte	.LASF296
 5636 1740 31       		.byte	0x31
 5637 1741 3D01     		.2byte	0x13d
 5638 1743 C21B0000 		.4byte	0x1bc2
 5639 1747 48       		.byte	0x48
 5640 1748 18       		.uleb128 0x18
 5641 1749 F22F0000 		.4byte	.LASF297
 5642 174d 31       		.byte	0x31
 5643 174e 4101     		.2byte	0x141
 5644 1750 37180000 		.4byte	0x1837
 5645 1754 64       		.byte	0x64
 5646 1755 18       		.uleb128 0x18
 5647 1756 9A570000 		.4byte	.LASF298
 5648 175a 31       		.byte	0x31
 5649 175b 4501     		.2byte	0x145
 5650 175d 2B120000 		.4byte	0x122b
 5651 1761 68       		.byte	0x68
 5652 1762 18       		.uleb128 0x18
 5653 1763 41490000 		.4byte	.LASF299
 5654 1767 31       		.byte	0x31
 5655 1768 4901     		.2byte	0x149
 5656 176a AD000000 		.4byte	0xad
 5657 176e 6C       		.byte	0x6c
 5658 176f 18       		.uleb128 0x18
 5659 1770 DA110000 		.4byte	.LASF300
 5660 1774 31       		.byte	0x31
 5661 1775 4D01     		.2byte	0x14d
 5662 1777 B5180000 		.4byte	0x18b5
 5663 177b 70       		.byte	0x70
 5664 177c 18       		.uleb128 0x18
ARM GAS  /tmp/ccytVDiP.s 			page 101


 5665 177d F1180000 		.4byte	.LASF301
 5666 1781 31       		.byte	0x31
 5667 1782 5101     		.2byte	0x151
 5668 1784 D21B0000 		.4byte	0x1bd2
 5669 1788 74       		.byte	0x74
 5670 1789 18       		.uleb128 0x18
 5671 178a 54400000 		.4byte	.LASF302
 5672 178e 31       		.byte	0x31
 5673 178f 5501     		.2byte	0x155
 5674 1791 2E0C0000 		.4byte	0xc2e
 5675 1795 7C       		.byte	0x7c
 5676 1796 18       		.uleb128 0x18
 5677 1797 EC330000 		.4byte	.LASF303
 5678 179b 31       		.byte	0x31
 5679 179c 5901     		.2byte	0x159
 5680 179e 230C0000 		.4byte	0xc23
 5681 17a2 7E       		.byte	0x7e
 5682 17a3 18       		.uleb128 0x18
 5683 17a4 5A540000 		.4byte	.LASF304
 5684 17a8 31       		.byte	0x31
 5685 17a9 5D01     		.2byte	0x15d
 5686 17ab 230C0000 		.4byte	0xc23
 5687 17af 7F       		.byte	0x7f
 5688 17b0 18       		.uleb128 0x18
 5689 17b1 C1640000 		.4byte	.LASF305
 5690 17b5 31       		.byte	0x31
 5691 17b6 6501     		.2byte	0x165
 5692 17b8 440C0000 		.4byte	0xc44
 5693 17bc 80       		.byte	0x80
 5694 17bd 00       		.byte	0
 5695 17be 03       		.uleb128 0x3
 5696 17bf 43750000 		.4byte	.LASF306
 5697 17c3 30       		.byte	0x30
 5698 17c4 EE       		.byte	0xee
 5699 17c5 230C0000 		.4byte	0xc23
 5700 17c9 29       		.uleb128 0x29
 5701 17ca 01       		.byte	0x1
 5702 17cb 30       		.byte	0x30
 5703 17cc F3       		.byte	0xf3
 5704 17cd 573E0000 		.4byte	.LASF308
 5705 17d1 F4170000 		.4byte	0x17f4
 5706 17d5 2A       		.uleb128 0x2a
 5707 17d6 76780000 		.4byte	.LASF309
 5708 17da 00       		.sleb128 0
 5709 17db 2A       		.uleb128 0x2a
 5710 17dc 541B0000 		.4byte	.LASF310
 5711 17e0 01       		.sleb128 1
 5712 17e1 2A       		.uleb128 0x2a
 5713 17e2 013C0000 		.4byte	.LASF311
 5714 17e6 02       		.sleb128 2
 5715 17e7 2A       		.uleb128 0x2a
 5716 17e8 8C4D0000 		.4byte	.LASF312
 5717 17ec 03       		.sleb128 3
 5718 17ed 2A       		.uleb128 0x2a
 5719 17ee 491B0000 		.4byte	.LASF313
 5720 17f2 04       		.sleb128 4
 5721 17f3 00       		.byte	0
ARM GAS  /tmp/ccytVDiP.s 			page 102


 5722 17f4 03       		.uleb128 0x3
 5723 17f5 F96A0000 		.4byte	.LASF314
 5724 17f9 30       		.byte	0x30
 5725 17fa F9       		.byte	0xf9
 5726 17fb C9170000 		.4byte	0x17c9
 5727 17ff 2C       		.uleb128 0x2c
 5728 1800 01       		.byte	0x1
 5729 1801 30       		.byte	0x30
 5730 1802 0701     		.2byte	0x107
 5731 1804 EC300000 		.4byte	.LASF323
 5732 1808 37180000 		.4byte	0x1837
 5733 180c 2A       		.uleb128 0x2a
 5734 180d 97390000 		.4byte	.LASF315
 5735 1811 00       		.sleb128 0
 5736 1812 2A       		.uleb128 0x2a
 5737 1813 E72F0000 		.4byte	.LASF316
 5738 1817 01       		.sleb128 1
 5739 1818 2A       		.uleb128 0x2a
 5740 1819 64570000 		.4byte	.LASF317
 5741 181d 02       		.sleb128 2
 5742 181e 2A       		.uleb128 0x2a
 5743 181f FC440000 		.4byte	.LASF318
 5744 1823 03       		.sleb128 3
 5745 1824 2A       		.uleb128 0x2a
 5746 1825 642C0000 		.4byte	.LASF319
 5747 1829 04       		.sleb128 4
 5748 182a 2A       		.uleb128 0x2a
 5749 182b 40330000 		.4byte	.LASF320
 5750 182f 05       		.sleb128 5
 5751 1830 2A       		.uleb128 0x2a
 5752 1831 A62E0000 		.4byte	.LASF321
 5753 1835 06       		.sleb128 6
 5754 1836 00       		.byte	0
 5755 1837 06       		.uleb128 0x6
 5756 1838 25340000 		.4byte	.LASF322
 5757 183c 30       		.byte	0x30
 5758 183d 0F01     		.2byte	0x10f
 5759 183f FF170000 		.4byte	0x17ff
 5760 1843 2C       		.uleb128 0x2c
 5761 1844 01       		.byte	0x1
 5762 1845 30       		.byte	0x30
 5763 1846 1401     		.2byte	0x114
 5764 1848 C8250000 		.4byte	.LASF324
 5765 184c 75180000 		.4byte	0x1875
 5766 1850 2A       		.uleb128 0x2a
 5767 1851 034D0000 		.4byte	.LASF325
 5768 1855 00       		.sleb128 0
 5769 1856 2A       		.uleb128 0x2a
 5770 1857 15700000 		.4byte	.LASF326
 5771 185b 01       		.sleb128 1
 5772 185c 2A       		.uleb128 0x2a
 5773 185d DF3D0000 		.4byte	.LASF327
 5774 1861 02       		.sleb128 2
 5775 1862 2A       		.uleb128 0x2a
 5776 1863 193F0000 		.4byte	.LASF328
 5777 1867 03       		.sleb128 3
 5778 1868 2A       		.uleb128 0x2a
ARM GAS  /tmp/ccytVDiP.s 			page 103


 5779 1869 64720000 		.4byte	.LASF329
 5780 186d 04       		.sleb128 4
 5781 186e 2A       		.uleb128 0x2a
 5782 186f 773D0000 		.4byte	.LASF330
 5783 1873 05       		.sleb128 5
 5784 1874 00       		.byte	0
 5785 1875 06       		.uleb128 0x6
 5786 1876 78500000 		.4byte	.LASF331
 5787 187a 30       		.byte	0x30
 5788 187b 1B01     		.2byte	0x11b
 5789 187d 43180000 		.4byte	0x1843
 5790 1881 28       		.uleb128 0x28
 5791 1882 08       		.byte	0x8
 5792 1883 30       		.byte	0x30
 5793 1884 2001     		.2byte	0x120
 5794 1886 BD3E0000 		.4byte	.LASF333
 5795 188a A9180000 		.4byte	0x18a9
 5796 188e 18       		.uleb128 0x18
 5797 188f CF790000 		.4byte	.LASF334
 5798 1893 30       		.byte	0x30
 5799 1894 2401     		.2byte	0x124
 5800 1896 AD000000 		.4byte	0xad
 5801 189a 00       		.byte	0
 5802 189b 18       		.uleb128 0x18
 5803 189c 56110000 		.4byte	.LASF335
 5804 18a0 30       		.byte	0x30
 5805 18a1 2801     		.2byte	0x128
 5806 18a3 60120000 		.4byte	0x1260
 5807 18a7 04       		.byte	0x4
 5808 18a8 00       		.byte	0
 5809 18a9 06       		.uleb128 0x6
 5810 18aa C9400000 		.4byte	.LASF336
 5811 18ae 30       		.byte	0x30
 5812 18af 2901     		.2byte	0x129
 5813 18b1 81180000 		.4byte	0x1881
 5814 18b5 06       		.uleb128 0x6
 5815 18b6 16790000 		.4byte	.LASF337
 5816 18ba 30       		.byte	0x30
 5817 18bb 3101     		.2byte	0x131
 5818 18bd C1180000 		.4byte	0x18c1
 5819 18c1 0F       		.uleb128 0xf
 5820 18c2 04       		.byte	0x4
 5821 18c3 C7180000 		.4byte	0x18c7
 5822 18c7 1D       		.uleb128 0x1d
 5823 18c8 D2180000 		.4byte	0x18d2
 5824 18cc 14       		.uleb128 0x14
 5825 18cd D2180000 		.4byte	0x18d2
 5826 18d1 00       		.byte	0
 5827 18d2 0F       		.uleb128 0xf
 5828 18d3 04       		.byte	0x4
 5829 18d4 D5160000 		.4byte	0x16d5
 5830 18d8 06       		.uleb128 0x6
 5831 18d9 85130000 		.4byte	.LASF338
 5832 18dd 30       		.byte	0x30
 5833 18de 3A01     		.2byte	0x13a
 5834 18e0 E4180000 		.4byte	0x18e4
 5835 18e4 0F       		.uleb128 0xf
ARM GAS  /tmp/ccytVDiP.s 			page 104


 5836 18e5 04       		.byte	0x4
 5837 18e6 EA180000 		.4byte	0x18ea
 5838 18ea 1D       		.uleb128 0x1d
 5839 18eb FA180000 		.4byte	0x18fa
 5840 18ef 14       		.uleb128 0x14
 5841 18f0 D2180000 		.4byte	0x18d2
 5842 18f4 14       		.uleb128 0x14
 5843 18f5 BE170000 		.4byte	0x17be
 5844 18f9 00       		.byte	0
 5845 18fa 06       		.uleb128 0x6
 5846 18fb D9210000 		.4byte	.LASF339
 5847 18ff 30       		.byte	0x30
 5848 1900 4301     		.2byte	0x143
 5849 1902 06190000 		.4byte	0x1906
 5850 1906 0F       		.uleb128 0xf
 5851 1907 04       		.byte	0x4
 5852 1908 0C190000 		.4byte	0x190c
 5853 190c 1D       		.uleb128 0x1d
 5854 190d 1C190000 		.4byte	0x191c
 5855 1911 14       		.uleb128 0x14
 5856 1912 D2180000 		.4byte	0x18d2
 5857 1916 14       		.uleb128 0x14
 5858 1917 75180000 		.4byte	0x1875
 5859 191b 00       		.byte	0
 5860 191c 06       		.uleb128 0x6
 5861 191d DF4B0000 		.4byte	.LASF340
 5862 1921 30       		.byte	0x30
 5863 1922 4F01     		.2byte	0x14f
 5864 1924 28190000 		.4byte	0x1928
 5865 1928 0F       		.uleb128 0xf
 5866 1929 04       		.byte	0x4
 5867 192a 2E190000 		.4byte	0x192e
 5868 192e 13       		.uleb128 0x13
 5869 192f 650C0000 		.4byte	0xc65
 5870 1933 3D190000 		.4byte	0x193d
 5871 1937 14       		.uleb128 0x14
 5872 1938 D2180000 		.4byte	0x18d2
 5873 193c 00       		.byte	0
 5874 193d 06       		.uleb128 0x6
 5875 193e 821A0000 		.4byte	.LASF341
 5876 1942 30       		.byte	0x30
 5877 1943 5401     		.2byte	0x154
 5878 1945 49190000 		.4byte	0x1949
 5879 1949 0F       		.uleb128 0xf
 5880 194a 04       		.byte	0x4
 5881 194b 4F190000 		.4byte	0x194f
 5882 194f 13       		.uleb128 0x13
 5883 1950 6D190000 		.4byte	0x196d
 5884 1954 6D190000 		.4byte	0x196d
 5885 1958 14       		.uleb128 0x14
 5886 1959 D2180000 		.4byte	0x18d2
 5887 195d 14       		.uleb128 0x14
 5888 195e 230C0000 		.4byte	0xc23
 5889 1962 14       		.uleb128 0x14
 5890 1963 230C0000 		.4byte	0xc23
 5891 1967 14       		.uleb128 0x14
 5892 1968 2E0C0000 		.4byte	0xc2e
ARM GAS  /tmp/ccytVDiP.s 			page 105


 5893 196c 00       		.byte	0
 5894 196d 0F       		.uleb128 0xf
 5895 196e 04       		.byte	0x4
 5896 196f 73190000 		.4byte	0x1973
 5897 1973 1B       		.uleb128 0x1b
 5898 1974 A9180000 		.4byte	0x18a9
 5899 1978 07       		.uleb128 0x7
 5900 1979 10       		.byte	0x10
 5901 197a 31       		.byte	0x31
 5902 197b 76       		.byte	0x76
 5903 197c FB6B0000 		.4byte	.LASF342
 5904 1980 FE190000 		.4byte	0x19fe
 5905 1984 08       		.uleb128 0x8
 5906 1985 04       		.byte	0x4
 5907 1986 31       		.byte	0x31
 5908 1987 83       		.byte	0x83
 5909 1988 CD190000 		.4byte	0x19cd
 5910 198c 26       		.uleb128 0x26
 5911 198d 04       		.byte	0x4
 5912 198e 31       		.byte	0x31
 5913 198f 84       		.byte	0x84
 5914 1990 A1190000 		.4byte	0x19a1
 5915 1994 0A       		.uleb128 0xa
 5916 1995 21720000 		.4byte	.LASF343
 5917 1999 31       		.byte	0x31
 5918 199a 88       		.byte	0x88
 5919 199b 60120000 		.4byte	0x1260
 5920 199f 00       		.byte	0
 5921 19a0 00       		.byte	0
 5922 19a1 26       		.uleb128 0x26
 5923 19a2 04       		.byte	0x4
 5924 19a3 31       		.byte	0x31
 5925 19a4 8A       		.byte	0x8a
 5926 19a5 B6190000 		.4byte	0x19b6
 5927 19a9 0A       		.uleb128 0xa
 5928 19aa 561D0000 		.4byte	.LASF344
 5929 19ae 31       		.byte	0x31
 5930 19af 8E       		.byte	0x8e
 5931 19b0 FE190000 		.4byte	0x19fe
 5932 19b4 00       		.byte	0
 5933 19b5 00       		.byte	0
 5934 19b6 09       		.uleb128 0x9
 5935 19b7 EC620000 		.4byte	.LASF345
 5936 19bb 31       		.byte	0x31
 5937 19bc 89       		.byte	0x89
 5938 19bd 8C190000 		.4byte	0x198c
 5939 19c1 09       		.uleb128 0x9
 5940 19c2 555F0000 		.4byte	.LASF346
 5941 19c6 31       		.byte	0x31
 5942 19c7 8F       		.byte	0x8f
 5943 19c8 A1190000 		.4byte	0x19a1
 5944 19cc 00       		.byte	0
 5945 19cd 0A       		.uleb128 0xa
 5946 19ce F8190000 		.4byte	.LASF347
 5947 19d2 31       		.byte	0x31
 5948 19d3 7A       		.byte	0x7a
 5949 19d4 650C0000 		.4byte	0xc65
ARM GAS  /tmp/ccytVDiP.s 			page 106


 5950 19d8 00       		.byte	0
 5951 19d9 0A       		.uleb128 0xa
 5952 19da F8390000 		.4byte	.LASF348
 5953 19de 31       		.byte	0x31
 5954 19df 7E       		.byte	0x7e
 5955 19e0 AD000000 		.4byte	0xad
 5956 19e4 04       		.byte	0x4
 5957 19e5 0A       		.uleb128 0xa
 5958 19e6 D3210000 		.4byte	.LASF349
 5959 19ea 31       		.byte	0x31
 5960 19eb 82       		.byte	0x82
 5961 19ec AD000000 		.4byte	0xad
 5962 19f0 08       		.byte	0x8
 5963 19f1 0A       		.uleb128 0xa
 5964 19f2 011C0000 		.4byte	.LASF350
 5965 19f6 31       		.byte	0x31
 5966 19f7 91       		.byte	0x91
 5967 19f8 84190000 		.4byte	0x1984
 5968 19fc 0C       		.byte	0xc
 5969 19fd 00       		.byte	0
 5970 19fe 0F       		.uleb128 0xf
 5971 19ff 04       		.byte	0x4
 5972 1a00 3C120000 		.4byte	0x123c
 5973 1a04 03       		.uleb128 0x3
 5974 1a05 9C310000 		.4byte	.LASF351
 5975 1a09 31       		.byte	0x31
 5976 1a0a 92       		.byte	0x92
 5977 1a0b 78190000 		.4byte	0x1978
 5978 1a0f 07       		.uleb128 0x7
 5979 1a10 14       		.byte	0x14
 5980 1a11 31       		.byte	0x31
 5981 1a12 97       		.byte	0x97
 5982 1a13 DB610000 		.4byte	.LASF352
 5983 1a17 A11A0000 		.4byte	0x1aa1
 5984 1a1b 08       		.uleb128 0x8
 5985 1a1c 04       		.byte	0x4
 5986 1a1d 31       		.byte	0x31
 5987 1a1e A4       		.byte	0xa4
 5988 1a1f 641A0000 		.4byte	0x1a64
 5989 1a23 26       		.uleb128 0x26
 5990 1a24 04       		.byte	0x4
 5991 1a25 31       		.byte	0x31
 5992 1a26 A5       		.byte	0xa5
 5993 1a27 381A0000 		.4byte	0x1a38
 5994 1a2b 0A       		.uleb128 0xa
 5995 1a2c 0C230000 		.4byte	.LASF353
 5996 1a30 31       		.byte	0x31
 5997 1a31 A9       		.byte	0xa9
 5998 1a32 2B120000 		.4byte	0x122b
 5999 1a36 00       		.byte	0
 6000 1a37 00       		.byte	0
 6001 1a38 26       		.uleb128 0x26
 6002 1a39 04       		.byte	0x4
 6003 1a3a 31       		.byte	0x31
 6004 1a3b AB       		.byte	0xab
 6005 1a3c 4D1A0000 		.4byte	0x1a4d
 6006 1a40 0A       		.uleb128 0xa
ARM GAS  /tmp/ccytVDiP.s 			page 107


 6007 1a41 2D620000 		.4byte	.LASF354
 6008 1a45 31       		.byte	0x31
 6009 1a46 AF       		.byte	0xaf
 6010 1a47 A11A0000 		.4byte	0x1aa1
 6011 1a4b 00       		.byte	0
 6012 1a4c 00       		.byte	0
 6013 1a4d 09       		.uleb128 0x9
 6014 1a4e EC620000 		.4byte	.LASF345
 6015 1a52 31       		.byte	0x31
 6016 1a53 AA       		.byte	0xaa
 6017 1a54 231A0000 		.4byte	0x1a23
 6018 1a58 09       		.uleb128 0x9
 6019 1a59 555F0000 		.4byte	.LASF346
 6020 1a5d 31       		.byte	0x31
 6021 1a5e B0       		.byte	0xb0
 6022 1a5f 381A0000 		.4byte	0x1a38
 6023 1a63 00       		.byte	0
 6024 1a64 0A       		.uleb128 0xa
 6025 1a65 AC150000 		.4byte	.LASF355
 6026 1a69 31       		.byte	0x31
 6027 1a6a 9B       		.byte	0x9b
 6028 1a6b 650C0000 		.4byte	0xc65
 6029 1a6f 00       		.byte	0
 6030 1a70 0A       		.uleb128 0xa
 6031 1a71 D83D0000 		.4byte	.LASF356
 6032 1a75 31       		.byte	0x31
 6033 1a76 9F       		.byte	0x9f
 6034 1a77 AD000000 		.4byte	0xad
 6035 1a7b 04       		.byte	0x4
 6036 1a7c 0A       		.uleb128 0xa
 6037 1a7d 55210000 		.4byte	.LASF357
 6038 1a81 31       		.byte	0x31
 6039 1a82 A3       		.byte	0xa3
 6040 1a83 AD000000 		.4byte	0xad
 6041 1a87 08       		.byte	0x8
 6042 1a88 0A       		.uleb128 0xa
 6043 1a89 011C0000 		.4byte	.LASF350
 6044 1a8d 31       		.byte	0x31
 6045 1a8e B1       		.byte	0xb1
 6046 1a8f 1B1A0000 		.4byte	0x1a1b
 6047 1a93 0C       		.byte	0xc
 6048 1a94 0A       		.uleb128 0xa
 6049 1a95 6D150000 		.4byte	.LASF358
 6050 1a99 31       		.byte	0x31
 6051 1a9a B6       		.byte	0xb6
 6052 1a9b 2E0C0000 		.4byte	0xc2e
 6053 1a9f 10       		.byte	0x10
 6054 1aa0 00       		.byte	0
 6055 1aa1 0F       		.uleb128 0xf
 6056 1aa2 04       		.byte	0x4
 6057 1aa3 31120000 		.4byte	0x1231
 6058 1aa7 03       		.uleb128 0x3
 6059 1aa8 F45B0000 		.4byte	.LASF359
 6060 1aac 31       		.byte	0x31
 6061 1aad B7       		.byte	0xb7
 6062 1aae 0F1A0000 		.4byte	0x1a0f
 6063 1ab2 07       		.uleb128 0x7
ARM GAS  /tmp/ccytVDiP.s 			page 108


 6064 1ab3 24       		.byte	0x24
 6065 1ab4 31       		.byte	0x31
 6066 1ab5 BD       		.byte	0xbd
 6067 1ab6 3C240000 		.4byte	.LASF360
 6068 1aba 371B0000 		.4byte	0x1b37
 6069 1abe 0A       		.uleb128 0xa
 6070 1abf A7480000 		.4byte	.LASF361
 6071 1ac3 31       		.byte	0x31
 6072 1ac4 C1       		.byte	0xc1
 6073 1ac5 440C0000 		.4byte	0xc44
 6074 1ac9 00       		.byte	0
 6075 1aca 0A       		.uleb128 0xa
 6076 1acb 321D0000 		.4byte	.LASF362
 6077 1acf 31       		.byte	0x31
 6078 1ad0 CC       		.byte	0xcc
 6079 1ad1 D8180000 		.4byte	0x18d8
 6080 1ad5 04       		.byte	0x4
 6081 1ad6 0A       		.uleb128 0xa
 6082 1ad7 274B0000 		.4byte	.LASF363
 6083 1adb 31       		.byte	0x31
 6084 1adc D2       		.byte	0xd2
 6085 1add D8180000 		.4byte	0x18d8
 6086 1ae1 08       		.byte	0x8
 6087 1ae2 0A       		.uleb128 0xa
 6088 1ae3 84250000 		.4byte	.LASF364
 6089 1ae7 31       		.byte	0x31
 6090 1ae8 D8       		.byte	0xd8
 6091 1ae9 D8180000 		.4byte	0x18d8
 6092 1aed 0C       		.byte	0xc
 6093 1aee 0A       		.uleb128 0xa
 6094 1aef 017A0000 		.4byte	.LASF365
 6095 1af3 31       		.byte	0x31
 6096 1af4 DE       		.byte	0xde
 6097 1af5 2E0C0000 		.4byte	0xc2e
 6098 1af9 10       		.byte	0x10
 6099 1afa 0A       		.uleb128 0xa
 6100 1afb AB300000 		.4byte	.LASF366
 6101 1aff 31       		.byte	0x31
 6102 1b00 E4       		.byte	0xe4
 6103 1b01 2E0C0000 		.4byte	0xc2e
 6104 1b05 12       		.byte	0x12
 6105 1b06 0A       		.uleb128 0xa
 6106 1b07 F5750000 		.4byte	.LASF367
 6107 1b0b 31       		.byte	0x31
 6108 1b0c E9       		.byte	0xe9
 6109 1b0d 371B0000 		.4byte	0x1b37
 6110 1b11 14       		.byte	0x14
 6111 1b12 0A       		.uleb128 0xa
 6112 1b13 B42B0000 		.4byte	.LASF368
 6113 1b17 31       		.byte	0x31
 6114 1b18 EE       		.byte	0xee
 6115 1b19 3D1B0000 		.4byte	0x1b3d
 6116 1b1d 18       		.byte	0x18
 6117 1b1e 0A       		.uleb128 0xa
 6118 1b1f 21660000 		.4byte	.LASF369
 6119 1b23 31       		.byte	0x31
 6120 1b24 F4       		.byte	0xf4
ARM GAS  /tmp/ccytVDiP.s 			page 109


 6121 1b25 2E0C0000 		.4byte	0xc2e
 6122 1b29 1C       		.byte	0x1c
 6123 1b2a 0A       		.uleb128 0xa
 6124 1b2b A0730000 		.4byte	.LASF370
 6125 1b2f 31       		.byte	0x31
 6126 1b30 FA       		.byte	0xfa
 6127 1b31 2B120000 		.4byte	0x122b
 6128 1b35 20       		.byte	0x20
 6129 1b36 00       		.byte	0
 6130 1b37 0F       		.uleb128 0xf
 6131 1b38 04       		.byte	0x4
 6132 1b39 041A0000 		.4byte	0x1a04
 6133 1b3d 0F       		.uleb128 0xf
 6134 1b3e 04       		.byte	0x4
 6135 1b3f A71A0000 		.4byte	0x1aa7
 6136 1b43 03       		.uleb128 0x3
 6137 1b44 C9610000 		.4byte	.LASF371
 6138 1b48 31       		.byte	0x31
 6139 1b49 FB       		.byte	0xfb
 6140 1b4a B21A0000 		.4byte	0x1ab2
 6141 1b4e 28       		.uleb128 0x28
 6142 1b4f 10       		.byte	0x10
 6143 1b50 31       		.byte	0x31
 6144 1b51 0001     		.2byte	0x100
 6145 1b53 BC210000 		.4byte	.LASF372
 6146 1b57 901B0000 		.4byte	0x1b90
 6147 1b5b 18       		.uleb128 0x18
 6148 1b5c 7B250000 		.4byte	.LASF373
 6149 1b60 31       		.byte	0x31
 6150 1b61 0501     		.2byte	0x105
 6151 1b63 FA180000 		.4byte	0x18fa
 6152 1b67 00       		.byte	0
 6153 1b68 18       		.uleb128 0x18
 6154 1b69 27700000 		.4byte	.LASF374
 6155 1b6d 31       		.byte	0x31
 6156 1b6e 0A01     		.2byte	0x10a
 6157 1b70 3D190000 		.4byte	0x193d
 6158 1b74 04       		.byte	0x4
 6159 1b75 18       		.uleb128 0x18
 6160 1b76 AD390000 		.4byte	.LASF375
 6161 1b7a 31       		.byte	0x31
 6162 1b7b 1001     		.2byte	0x110
 6163 1b7d 1C190000 		.4byte	0x191c
 6164 1b81 08       		.byte	0x8
 6165 1b82 18       		.uleb128 0x18
 6166 1b83 FB060000 		.4byte	.LASF376
 6167 1b87 31       		.byte	0x31
 6168 1b88 1401     		.2byte	0x114
 6169 1b8a B5180000 		.4byte	0x18b5
 6170 1b8e 0C       		.byte	0xc
 6171 1b8f 00       		.byte	0
 6172 1b90 06       		.uleb128 0x6
 6173 1b91 86350000 		.4byte	.LASF377
 6174 1b95 31       		.byte	0x31
 6175 1b96 1601     		.2byte	0x116
 6176 1b98 4E1B0000 		.4byte	0x1b4e
 6177 1b9c 0F       		.uleb128 0xf
ARM GAS  /tmp/ccytVDiP.s 			page 110


 6178 1b9d 04       		.byte	0x4
 6179 1b9e A21B0000 		.4byte	0x1ba2
 6180 1ba2 1B       		.uleb128 0x1b
 6181 1ba3 901B0000 		.4byte	0x1b90
 6182 1ba7 0B       		.uleb128 0xb
 6183 1ba8 B71B0000 		.4byte	0x1bb7
 6184 1bac B71B0000 		.4byte	0x1bb7
 6185 1bb0 0C       		.uleb128 0xc
 6186 1bb1 3B010000 		.4byte	0x13b
 6187 1bb5 07       		.byte	0x7
 6188 1bb6 00       		.byte	0
 6189 1bb7 0F       		.uleb128 0xf
 6190 1bb8 04       		.byte	0x4
 6191 1bb9 BD1B0000 		.4byte	0x1bbd
 6192 1bbd 1B       		.uleb128 0x1b
 6193 1bbe 431B0000 		.4byte	0x1b43
 6194 1bc2 0B       		.uleb128 0xb
 6195 1bc3 B8000000 		.4byte	0xb8
 6196 1bc7 D21B0000 		.4byte	0x1bd2
 6197 1bcb 0C       		.uleb128 0xc
 6198 1bcc 3B010000 		.4byte	0x13b
 6199 1bd0 06       		.byte	0x6
 6200 1bd1 00       		.byte	0
 6201 1bd2 0B       		.uleb128 0xb
 6202 1bd3 37000000 		.4byte	0x37
 6203 1bd7 E21B0000 		.4byte	0x1be2
 6204 1bdb 0C       		.uleb128 0xc
 6205 1bdc 3B010000 		.4byte	0x13b
 6206 1be0 07       		.byte	0x7
 6207 1be1 00       		.byte	0
 6208 1be2 29       		.uleb128 0x29
 6209 1be3 01       		.byte	0x1
 6210 1be4 32       		.byte	0x32
 6211 1be5 83       		.byte	0x83
 6212 1be6 84680000 		.4byte	.LASF378
 6213 1bea 011C0000 		.4byte	0x1c01
 6214 1bee 2A       		.uleb128 0x2a
 6215 1bef ED230000 		.4byte	.LASF379
 6216 1bf3 00       		.sleb128 0
 6217 1bf4 2A       		.uleb128 0x2a
 6218 1bf5 7A4F0000 		.4byte	.LASF380
 6219 1bf9 01       		.sleb128 1
 6220 1bfa 2A       		.uleb128 0x2a
 6221 1bfb 79190000 		.4byte	.LASF381
 6222 1bff 02       		.sleb128 2
 6223 1c00 00       		.byte	0
 6224 1c01 03       		.uleb128 0x3
 6225 1c02 771A0000 		.4byte	.LASF382
 6226 1c06 32       		.byte	0x32
 6227 1c07 87       		.byte	0x87
 6228 1c08 E21B0000 		.4byte	0x1be2
 6229 1c0c 03       		.uleb128 0x3
 6230 1c0d 2E190000 		.4byte	.LASF383
 6231 1c11 32       		.byte	0x32
 6232 1c12 8C       		.byte	0x8c
 6233 1c13 171C0000 		.4byte	0x1c17
 6234 1c17 10       		.uleb128 0x10
ARM GAS  /tmp/ccytVDiP.s 			page 111


 6235 1c18 2E190000 		.4byte	.LASF383
 6236 1c1c 5802     		.2byte	0x258
 6237 1c1e 32       		.byte	0x32
 6238 1c1f CF       		.byte	0xcf
 6239 1c20 851C0000 		.4byte	0x1c85
 6240 1c24 0E       		.uleb128 0xe
 6241 1c25 766D7400 		.ascii	"vmt\000"
 6242 1c29 32       		.byte	0x32
 6243 1c2a D1       		.byte	0xd1
 6244 1c2b 3A1D0000 		.4byte	0x1d3a
 6245 1c2f 00       		.byte	0
 6246 1c30 0A       		.uleb128 0xa
 6247 1c31 2A000000 		.4byte	.LASF284
 6248 1c35 32       		.byte	0x32
 6249 1c36 D2       		.byte	0xd2
 6250 1c37 32100000 		.4byte	0x1032
 6251 1c3b 04       		.byte	0x4
 6252 1c3c 0A       		.uleb128 0xa
 6253 1c3d 3D440000 		.4byte	.LASF285
 6254 1c41 32       		.byte	0x32
 6255 1c42 D2       		.byte	0xd2
 6256 1c43 011C0000 		.4byte	0x1c01
 6257 1c47 08       		.byte	0x8
 6258 1c48 0A       		.uleb128 0xa
 6259 1c49 204B0000 		.4byte	.LASF286
 6260 1c4d 32       		.byte	0x32
 6261 1c4e D2       		.byte	0xd2
 6262 1c4f 31120000 		.4byte	0x1231
 6263 1c53 0C       		.byte	0xc
 6264 1c54 0A       		.uleb128 0xa
 6265 1c55 2C370000 		.4byte	.LASF287
 6266 1c59 32       		.byte	0x32
 6267 1c5a D2       		.byte	0xd2
 6268 1c5b 3C120000 		.4byte	0x123c
 6269 1c5f 30       		.byte	0x30
 6270 1c60 0E       		.uleb128 0xe
 6271 1c61 696200   		.ascii	"ib\000"
 6272 1c64 32       		.byte	0x32
 6273 1c65 D2       		.byte	0xd2
 6274 1c66 BF160000 		.4byte	0x16bf
 6275 1c6a 54       		.byte	0x54
 6276 1c6b 2B       		.uleb128 0x2b
 6277 1c6c 6F6200   		.ascii	"ob\000"
 6278 1c6f 32       		.byte	0x32
 6279 1c70 D2       		.byte	0xd2
 6280 1c71 BF160000 		.4byte	0x16bf
 6281 1c75 5401     		.2byte	0x154
 6282 1c77 11       		.uleb128 0x11
 6283 1c78 87590000 		.4byte	.LASF292
 6284 1c7c 32       		.byte	0x32
 6285 1c7d D2       		.byte	0xd2
 6286 1c7e 451D0000 		.4byte	0x1d45
 6287 1c82 5402     		.2byte	0x254
 6288 1c84 00       		.byte	0
 6289 1c85 07       		.uleb128 0x7
 6290 1c86 08       		.byte	0x8
 6291 1c87 32       		.byte	0x32
ARM GAS  /tmp/ccytVDiP.s 			page 112


 6292 1c88 93       		.byte	0x93
 6293 1c89 5D3D0000 		.4byte	.LASF384
 6294 1c8d C21C0000 		.4byte	0x1cc2
 6295 1c91 0A       		.uleb128 0xa
 6296 1c92 C56A0000 		.4byte	.LASF385
 6297 1c96 32       		.byte	0x32
 6298 1c97 97       		.byte	0x97
 6299 1c98 D2180000 		.4byte	0x18d2
 6300 1c9c 00       		.byte	0
 6301 1c9d 0A       		.uleb128 0xa
 6302 1c9e E4300000 		.4byte	.LASF386
 6303 1ca2 32       		.byte	0x32
 6304 1ca3 9B       		.byte	0x9b
 6305 1ca4 BE170000 		.4byte	0x17be
 6306 1ca8 04       		.byte	0x4
 6307 1ca9 0A       		.uleb128 0xa
 6308 1caa 47130000 		.4byte	.LASF387
 6309 1cae 32       		.byte	0x32
 6310 1caf 9F       		.byte	0x9f
 6311 1cb0 BE170000 		.4byte	0x17be
 6312 1cb4 05       		.byte	0x5
 6313 1cb5 0A       		.uleb128 0xa
 6314 1cb6 C6330000 		.4byte	.LASF388
 6315 1cba 32       		.byte	0x32
 6316 1cbb A3       		.byte	0xa3
 6317 1cbc BE170000 		.4byte	0x17be
 6318 1cc0 06       		.byte	0x6
 6319 1cc1 00       		.byte	0
 6320 1cc2 03       		.uleb128 0x3
 6321 1cc3 555B0000 		.4byte	.LASF389
 6322 1cc7 32       		.byte	0x32
 6323 1cc8 A4       		.byte	0xa4
 6324 1cc9 851C0000 		.4byte	0x1c85
 6325 1ccd 0D       		.uleb128 0xd
 6326 1cce DD490000 		.4byte	.LASF390
 6327 1cd2 20       		.byte	0x20
 6328 1cd3 32       		.byte	0x32
 6329 1cd4 C4       		.byte	0xc4
 6330 1cd5 3A1D0000 		.4byte	0x1d3a
 6331 1cd9 0A       		.uleb128 0xa
 6332 1cda 0F4B0000 		.4byte	.LASF259
 6333 1cde 32       		.byte	0x32
 6334 1cdf C5       		.byte	0xc5
 6335 1ce0 6B120000 		.4byte	0x126b
 6336 1ce4 00       		.byte	0
 6337 1ce5 0A       		.uleb128 0xa
 6338 1ce6 0A060000 		.4byte	.LASF260
 6339 1cea 32       		.byte	0x32
 6340 1ceb C5       		.byte	0xc5
 6341 1cec 8A120000 		.4byte	0x128a
 6342 1cf0 04       		.byte	0x4
 6343 1cf1 0E       		.uleb128 0xe
 6344 1cf2 70757400 		.ascii	"put\000"
 6345 1cf6 32       		.byte	0x32
 6346 1cf7 C5       		.byte	0xc5
 6347 1cf8 A4120000 		.4byte	0x12a4
 6348 1cfc 08       		.byte	0x8
ARM GAS  /tmp/ccytVDiP.s 			page 113


 6349 1cfd 0E       		.uleb128 0xe
 6350 1cfe 67657400 		.ascii	"get\000"
 6351 1d02 32       		.byte	0x32
 6352 1d03 C5       		.byte	0xc5
 6353 1d04 7C110000 		.4byte	0x117c
 6354 1d08 0C       		.byte	0xc
 6355 1d09 0A       		.uleb128 0xa
 6356 1d0a 453E0000 		.4byte	.LASF261
 6357 1d0e 32       		.byte	0x32
 6358 1d0f C5       		.byte	0xc5
 6359 1d10 24140000 		.4byte	0x1424
 6360 1d14 10       		.byte	0x10
 6361 1d15 0A       		.uleb128 0xa
 6362 1d16 D24A0000 		.4byte	.LASF262
 6363 1d1a 32       		.byte	0x32
 6364 1d1b C5       		.byte	0xc5
 6365 1d1c 3E140000 		.4byte	0x143e
 6366 1d20 14       		.byte	0x14
 6367 1d21 0A       		.uleb128 0xa
 6368 1d22 B96D0000 		.4byte	.LASF263
 6369 1d26 32       		.byte	0x32
 6370 1d27 C5       		.byte	0xc5
 6371 1d28 62140000 		.4byte	0x1462
 6372 1d2c 18       		.byte	0x18
 6373 1d2d 0A       		.uleb128 0xa
 6374 1d2e 845B0000 		.4byte	.LASF264
 6375 1d32 32       		.byte	0x32
 6376 1d33 C5       		.byte	0xc5
 6377 1d34 86140000 		.4byte	0x1486
 6378 1d38 1C       		.byte	0x1c
 6379 1d39 00       		.byte	0
 6380 1d3a 0F       		.uleb128 0xf
 6381 1d3b 04       		.byte	0x4
 6382 1d3c 401D0000 		.4byte	0x1d40
 6383 1d40 1B       		.uleb128 0x1b
 6384 1d41 CD1C0000 		.4byte	0x1ccd
 6385 1d45 0F       		.uleb128 0xf
 6386 1d46 04       		.byte	0x4
 6387 1d47 4B1D0000 		.4byte	0x1d4b
 6388 1d4b 1B       		.uleb128 0x1b
 6389 1d4c C21C0000 		.4byte	0x1cc2
 6390 1d50 21       		.uleb128 0x21
 6391 1d51 8F0C0000 		.4byte	.LASF391
 6392 1d55 33       		.byte	0x33
 6393 1d56 1D       		.byte	0x1d
 6394 1d57 94000000 		.4byte	0x94
 6395 1d5b 6A1D0000 		.4byte	0x1d6a
 6396 1d5f 14       		.uleb128 0x14
 6397 1d60 13070000 		.4byte	0x713
 6398 1d64 14       		.uleb128 0x14
 6399 1d65 13070000 		.4byte	0x713
 6400 1d69 00       		.byte	0
 6401 1d6a 21       		.uleb128 0x21
 6402 1d6b D3360000 		.4byte	.LASF392
 6403 1d6f 33       		.byte	0x33
 6404 1d70 20       		.byte	0x20
 6405 1d71 E2060000 		.4byte	0x6e2
ARM GAS  /tmp/ccytVDiP.s 			page 114


 6406 1d75 7F1D0000 		.4byte	0x1d7f
 6407 1d79 14       		.uleb128 0x14
 6408 1d7a 94000000 		.4byte	0x94
 6409 1d7e 00       		.byte	0
 6410 1d7f 21       		.uleb128 0x21
 6411 1d80 A24C0000 		.4byte	.LASF393
 6412 1d84 33       		.byte	0x33
 6413 1d85 2A       		.byte	0x2a
 6414 1d86 E2060000 		.4byte	0x6e2
 6415 1d8a 991D0000 		.4byte	0x1d99
 6416 1d8e 14       		.uleb128 0x14
 6417 1d8f E2060000 		.4byte	0x6e2
 6418 1d93 14       		.uleb128 0x14
 6419 1d94 13070000 		.4byte	0x713
 6420 1d98 00       		.byte	0
 6421 1d99 21       		.uleb128 0x21
 6422 1d9a 33370000 		.4byte	.LASF394
 6423 1d9e 33       		.byte	0x33
 6424 1d9f 2C       		.byte	0x2c
 6425 1da0 AD000000 		.4byte	0xad
 6426 1da4 B81D0000 		.4byte	0x1db8
 6427 1da8 14       		.uleb128 0x14
 6428 1da9 E2060000 		.4byte	0x6e2
 6429 1dad 14       		.uleb128 0x14
 6430 1dae 13070000 		.4byte	0x713
 6431 1db2 14       		.uleb128 0x14
 6432 1db3 AD000000 		.4byte	0xad
 6433 1db7 00       		.byte	0
 6434 1db8 1E       		.uleb128 0x1e
 6435 1db9 72327000 		.ascii	"r2p\000"
 6436 1dbd 01       		.byte	0x1
 6437 1dbe 03       		.byte	0x3
 6438 1dbf A96C0000 		.4byte	0x6ca9
 6439 1dc3 2D       		.uleb128 0x2d
 6440 1dc4 16390000 		.4byte	.LASF395
 6441 1dc8 01       		.byte	0x1
 6442 1dc9 01       		.byte	0x1
 6443 1dca 06       		.byte	0x6
 6444 1dcb 231E0000 		.4byte	0x1e23
 6445 1dcf 2E       		.uleb128 0x2e
 6446 1dd0 16390000 		.4byte	.LASF395
 6447 1dd4 01       		.byte	0x1
 6448 1dd5 09       		.byte	0x9
 6449 1dd6 A96C0000 		.4byte	0x6ca9
 6450 1dda E21D0000 		.4byte	0x1de2
 6451 1dde ED1D0000 		.4byte	0x1ded
 6452 1de2 2F       		.uleb128 0x2f
 6453 1de3 A96C0000 		.4byte	0x6ca9
 6454 1de7 14       		.uleb128 0x14
 6455 1de8 AF6C0000 		.4byte	0x6caf
 6456 1dec 00       		.byte	0
 6457 1ded 30       		.uleb128 0x30
 6458 1dee 16390000 		.4byte	.LASF395
 6459 1df2 01       		.byte	0x1
 6460 1df3 14       		.byte	0x14
 6461 1df4 A96C0000 		.4byte	0x6ca9
 6462 1df8 02       		.byte	0x2
ARM GAS  /tmp/ccytVDiP.s 			page 115


 6463 1df9 011E0000 		.4byte	0x1e01
 6464 1dfd 071E0000 		.4byte	0x1e07
 6465 1e01 2F       		.uleb128 0x2f
 6466 1e02 A96C0000 		.4byte	0x6ca9
 6467 1e06 00       		.byte	0
 6468 1e07 31       		.uleb128 0x31
 6469 1e08 6A780000 		.4byte	.LASF396
 6470 1e0c 01       		.byte	0x1
 6471 1e0d 15       		.byte	0x15
 6472 1e0e B8000000 		.4byte	0xb8
 6473 1e12 02       		.byte	0x2
 6474 1e13 171E0000 		.4byte	0x1e17
 6475 1e17 2F       		.uleb128 0x2f
 6476 1e18 A96C0000 		.4byte	0x6ca9
 6477 1e1c 2F       		.uleb128 0x2f
 6478 1e1d 94000000 		.4byte	0x94
 6479 1e21 00       		.byte	0
 6480 1e22 00       		.byte	0
 6481 1e23 1B       		.uleb128 0x1b
 6482 1e24 C31D0000 		.4byte	0x1dc3
 6483 1e28 2D       		.uleb128 0x2d
 6484 1e29 BA500000 		.4byte	.LASF397
 6485 1e2d 01       		.byte	0x1
 6486 1e2e 02       		.byte	0x2
 6487 1e2f 09       		.byte	0x9
 6488 1e30 6C1E0000 		.4byte	0x1e6c
 6489 1e34 32       		.uleb128 0x32
 6490 1e35 C31D0000 		.4byte	0x1dc3
 6491 1e39 00       		.byte	0
 6492 1e3a 2E       		.uleb128 0x2e
 6493 1e3b BA500000 		.4byte	.LASF397
 6494 1e3f 02       		.byte	0x2
 6495 1e40 0B       		.byte	0xb
 6496 1e41 B56C0000 		.4byte	0x6cb5
 6497 1e45 4D1E0000 		.4byte	0x1e4d
 6498 1e49 531E0000 		.4byte	0x1e53
 6499 1e4d 2F       		.uleb128 0x2f
 6500 1e4e B56C0000 		.4byte	0x6cb5
 6501 1e52 00       		.byte	0
 6502 1e53 33       		.uleb128 0x33
 6503 1e54 33270000 		.4byte	.LASF398
 6504 1e58 02       		.byte	0x2
 6505 1e59 0E       		.byte	0xe
 6506 1e5a A8190000 		.4byte	.LASF400
 6507 1e5e 01       		.byte	0x1
 6508 1e5f 33       		.uleb128 0x33
 6509 1e60 8A5B0000 		.4byte	.LASF399
 6510 1e64 02       		.byte	0x2
 6511 1e65 0F       		.byte	0xf
 6512 1e66 431E0000 		.4byte	.LASF401
 6513 1e6a 01       		.byte	0x1
 6514 1e6b 00       		.byte	0
 6515 1e6c 2D       		.uleb128 0x2d
 6516 1e6d 59660000 		.4byte	.LASF402
 6517 1e71 01       		.byte	0x1
 6518 1e72 03       		.byte	0x3
 6519 1e73 09       		.byte	0x9
ARM GAS  /tmp/ccytVDiP.s 			page 116


 6520 1e74 B01E0000 		.4byte	0x1eb0
 6521 1e78 32       		.uleb128 0x32
 6522 1e79 C31D0000 		.4byte	0x1dc3
 6523 1e7d 00       		.byte	0
 6524 1e7e 2E       		.uleb128 0x2e
 6525 1e7f 59660000 		.4byte	.LASF402
 6526 1e83 03       		.byte	0x3
 6527 1e84 12       		.byte	0x12
 6528 1e85 BB6C0000 		.4byte	0x6cbb
 6529 1e89 911E0000 		.4byte	0x1e91
 6530 1e8d 971E0000 		.4byte	0x1e97
 6531 1e91 2F       		.uleb128 0x2f
 6532 1e92 BB6C0000 		.4byte	0x6cbb
 6533 1e96 00       		.byte	0
 6534 1e97 33       		.uleb128 0x33
 6535 1e98 33270000 		.4byte	.LASF398
 6536 1e9c 03       		.byte	0x3
 6537 1e9d 15       		.byte	0x15
 6538 1e9e CA560000 		.4byte	.LASF403
 6539 1ea2 01       		.byte	0x1
 6540 1ea3 33       		.uleb128 0x33
 6541 1ea4 8A5B0000 		.4byte	.LASF399
 6542 1ea8 03       		.byte	0x3
 6543 1ea9 16       		.byte	0x16
 6544 1eaa 515C0000 		.4byte	.LASF404
 6545 1eae 01       		.byte	0x1
 6546 1eaf 00       		.byte	0
 6547 1eb0 0D       		.uleb128 0xd
 6548 1eb1 62040000 		.4byte	.LASF405
 6549 1eb5 01       		.byte	0x1
 6550 1eb6 35       		.byte	0x35
 6551 1eb7 1E       		.byte	0x1e
 6552 1eb8 C81E0000 		.4byte	0x1ec8
 6553 1ebc 34       		.uleb128 0x34
 6554 1ebd 01       		.byte	0x1
 6555 1ebe 35       		.byte	0x35
 6556 1ebf 1F       		.byte	0x1f
 6557 1ec0 2A       		.uleb128 0x2a
 6558 1ec1 FD4A0000 		.4byte	.LASF406
 6559 1ec5 10       		.sleb128 16
 6560 1ec6 00       		.byte	0
 6561 1ec7 00       		.byte	0
 6562 1ec8 2D       		.uleb128 0x2d
 6563 1ec9 0A6E0000 		.4byte	.LASF407
 6564 1ecd 0C       		.byte	0xc
 6565 1ece 04       		.byte	0x4
 6566 1ecf 09       		.byte	0x9
 6567 1ed0 9E200000 		.4byte	0x209e
 6568 1ed4 32       		.uleb128 0x32
 6569 1ed5 C31D0000 		.4byte	0x1dc3
 6570 1ed9 00       		.byte	0
 6571 1eda 0A       		.uleb128 0xa
 6572 1edb F5220000 		.4byte	.LASF408
 6573 1edf 04       		.byte	0x4
 6574 1ee0 0E       		.byte	0xe
 6575 1ee1 54110000 		.4byte	0x1154
 6576 1ee5 00       		.byte	0
ARM GAS  /tmp/ccytVDiP.s 			page 117


 6577 1ee6 35       		.uleb128 0x35
 6578 1ee7 00000000 		.4byte	.LASF427
 6579 1eeb 04       		.byte	0x4
 6580 1eec 0B       		.byte	0xb
 6581 1eed 3D100000 		.4byte	0x103d
 6582 1ef1 01       		.byte	0x1
 6583 1ef2 36       		.uleb128 0x36
 6584 1ef3 69550000 		.4byte	.LASF409
 6585 1ef7 04       		.byte	0x4
 6586 1ef8 11       		.byte	0x11
 6587 1ef9 0D5B0000 		.4byte	.LASF411
 6588 1efd AD000000 		.4byte	0xad
 6589 1f01 01       		.byte	0x1
 6590 1f02 0A1F0000 		.4byte	0x1f0a
 6591 1f06 101F0000 		.4byte	0x1f10
 6592 1f0a 2F       		.uleb128 0x2f
 6593 1f0b C86C0000 		.4byte	0x6cc8
 6594 1f0f 00       		.byte	0
 6595 1f10 36       		.uleb128 0x36
 6596 1f11 F1320000 		.4byte	.LASF410
 6597 1f15 04       		.byte	0x4
 6598 1f16 12       		.byte	0x12
 6599 1f17 1D230000 		.4byte	.LASF412
 6600 1f1b E61E0000 		.4byte	0x1ee6
 6601 1f1f 01       		.byte	0x1
 6602 1f20 281F0000 		.4byte	0x1f28
 6603 1f24 2E1F0000 		.4byte	0x1f2e
 6604 1f28 2F       		.uleb128 0x2f
 6605 1f29 C86C0000 		.4byte	0x6cc8
 6606 1f2d 00       		.byte	0
 6607 1f2e 36       		.uleb128 0x36
 6608 1f2f DF440000 		.4byte	.LASF413
 6609 1f33 04       		.byte	0x4
 6610 1f34 14       		.byte	0x14
 6611 1f35 E8450000 		.4byte	.LASF414
 6612 1f39 B8000000 		.4byte	0xb8
 6613 1f3d 01       		.byte	0x1
 6614 1f3e 461F0000 		.4byte	0x1f46
 6615 1f42 4C1F0000 		.4byte	0x1f4c
 6616 1f46 2F       		.uleb128 0x2f
 6617 1f47 CE6C0000 		.4byte	0x6cce
 6618 1f4b 00       		.byte	0
 6619 1f4c 37       		.uleb128 0x37
 6620 1f4d 641C0000 		.4byte	.LASF415
 6621 1f51 04       		.byte	0x4
 6622 1f52 15       		.byte	0x15
 6623 1f53 CE160000 		.4byte	.LASF419
 6624 1f57 01       		.byte	0x1
 6625 1f58 601F0000 		.4byte	0x1f60
 6626 1f5c 6B1F0000 		.4byte	0x1f6b
 6627 1f60 2F       		.uleb128 0x2f
 6628 1f61 CE6C0000 		.4byte	0x6cce
 6629 1f65 14       		.uleb128 0x14
 6630 1f66 B8000000 		.4byte	0xb8
 6631 1f6a 00       		.byte	0
 6632 1f6b 36       		.uleb128 0x36
 6633 1f6c 2B400000 		.4byte	.LASF416
ARM GAS  /tmp/ccytVDiP.s 			page 118


 6634 1f70 04       		.byte	0x4
 6635 1f71 17       		.byte	0x17
 6636 1f72 76240000 		.4byte	.LASF417
 6637 1f76 B8000000 		.4byte	0xb8
 6638 1f7a 01       		.byte	0x1
 6639 1f7b 831F0000 		.4byte	0x1f83
 6640 1f7f 891F0000 		.4byte	0x1f89
 6641 1f83 2F       		.uleb128 0x2f
 6642 1f84 CE6C0000 		.4byte	0x6cce
 6643 1f88 00       		.byte	0
 6644 1f89 37       		.uleb128 0x37
 6645 1f8a DC130000 		.4byte	.LASF418
 6646 1f8e 04       		.byte	0x4
 6647 1f8f 18       		.byte	0x18
 6648 1f90 3E2F0000 		.4byte	.LASF420
 6649 1f94 01       		.byte	0x1
 6650 1f95 9D1F0000 		.4byte	0x1f9d
 6651 1f99 A81F0000 		.4byte	0x1fa8
 6652 1f9d 2F       		.uleb128 0x2f
 6653 1f9e CE6C0000 		.4byte	0x6cce
 6654 1fa2 14       		.uleb128 0x14
 6655 1fa3 B8000000 		.4byte	0xb8
 6656 1fa7 00       		.byte	0
 6657 1fa8 37       		.uleb128 0x37
 6658 1fa9 52660000 		.4byte	.LASF421
 6659 1fad 04       		.byte	0x4
 6660 1fae 19       		.byte	0x19
 6661 1faf 794E0000 		.4byte	.LASF422
 6662 1fb3 01       		.byte	0x1
 6663 1fb4 BC1F0000 		.4byte	0x1fbc
 6664 1fb8 CC1F0000 		.4byte	0x1fcc
 6665 1fbc 2F       		.uleb128 0x2f
 6666 1fbd CE6C0000 		.4byte	0x6cce
 6667 1fc1 14       		.uleb128 0x14
 6668 1fc2 B8000000 		.4byte	0xb8
 6669 1fc6 14       		.uleb128 0x14
 6670 1fc7 AD000000 		.4byte	0xad
 6671 1fcb 00       		.byte	0
 6672 1fcc 36       		.uleb128 0x36
 6673 1fcd 20040000 		.4byte	.LASF423
 6674 1fd1 04       		.byte	0x4
 6675 1fd2 1B       		.byte	0x1b
 6676 1fd3 5E1D0000 		.4byte	.LASF424
 6677 1fd7 D46C0000 		.4byte	0x6cd4
 6678 1fdb 01       		.byte	0x1
 6679 1fdc E41F0000 		.4byte	0x1fe4
 6680 1fe0 EA1F0000 		.4byte	0x1fea
 6681 1fe4 2F       		.uleb128 0x2f
 6682 1fe5 CE6C0000 		.4byte	0x6cce
 6683 1fe9 00       		.byte	0
 6684 1fea 30       		.uleb128 0x30
 6685 1feb 0A6E0000 		.4byte	.LASF407
 6686 1fef 04       		.byte	0x4
 6687 1ff0 1E       		.byte	0x1e
 6688 1ff1 CE6C0000 		.4byte	0x6cce
 6689 1ff5 01       		.byte	0x1
 6690 1ff6 FE1F0000 		.4byte	0x1ffe
ARM GAS  /tmp/ccytVDiP.s 			page 119


 6691 1ffa 09200000 		.4byte	0x2009
 6692 1ffe 2F       		.uleb128 0x2f
 6693 1fff CE6C0000 		.4byte	0x6cce
 6694 2003 14       		.uleb128 0x14
 6695 2004 AD000000 		.4byte	0xad
 6696 2008 00       		.byte	0
 6697 2009 30       		.uleb128 0x30
 6698 200a 0A6E0000 		.4byte	.LASF407
 6699 200e 04       		.byte	0x4
 6700 200f 1F       		.byte	0x1f
 6701 2010 CE6C0000 		.4byte	0x6cce
 6702 2014 01       		.byte	0x1
 6703 2015 1D200000 		.4byte	0x201d
 6704 2019 32200000 		.4byte	0x2032
 6705 201d 2F       		.uleb128 0x2f
 6706 201e CE6C0000 		.4byte	0x6cce
 6707 2022 14       		.uleb128 0x14
 6708 2023 B8000000 		.4byte	0xb8
 6709 2027 14       		.uleb128 0x14
 6710 2028 AD000000 		.4byte	0xad
 6711 202c 14       		.uleb128 0x14
 6712 202d AD000000 		.4byte	0xad
 6713 2031 00       		.byte	0
 6714 2032 30       		.uleb128 0x30
 6715 2033 0A6E0000 		.4byte	.LASF407
 6716 2037 04       		.byte	0x4
 6717 2038 20       		.byte	0x20
 6718 2039 CE6C0000 		.4byte	0x6cce
 6719 203d 01       		.byte	0x1
 6720 203e 46200000 		.4byte	0x2046
 6721 2042 56200000 		.4byte	0x2056
 6722 2046 2F       		.uleb128 0x2f
 6723 2047 CE6C0000 		.4byte	0x6cce
 6724 204b 14       		.uleb128 0x14
 6725 204c AD000000 		.4byte	0xad
 6726 2050 14       		.uleb128 0x14
 6727 2051 E61E0000 		.4byte	0x1ee6
 6728 2055 00       		.byte	0
 6729 2056 30       		.uleb128 0x30
 6730 2057 0A6E0000 		.4byte	.LASF407
 6731 205b 04       		.byte	0x4
 6732 205c 21       		.byte	0x21
 6733 205d CE6C0000 		.4byte	0x6cce
 6734 2061 01       		.byte	0x1
 6735 2062 6A200000 		.4byte	0x206a
 6736 2066 84200000 		.4byte	0x2084
 6737 206a 2F       		.uleb128 0x2f
 6738 206b CE6C0000 		.4byte	0x6cce
 6739 206f 14       		.uleb128 0x14
 6740 2070 B8000000 		.4byte	0xb8
 6741 2074 14       		.uleb128 0x14
 6742 2075 AD000000 		.4byte	0xad
 6743 2079 14       		.uleb128 0x14
 6744 207a AD000000 		.4byte	0xad
 6745 207e 14       		.uleb128 0x14
 6746 207f E61E0000 		.4byte	0x1ee6
 6747 2083 00       		.byte	0
ARM GAS  /tmp/ccytVDiP.s 			page 120


 6748 2084 38       		.uleb128 0x38
 6749 2085 86630000 		.4byte	.LASF425
 6750 2089 B8000000 		.4byte	0xb8
 6751 208d 01       		.byte	0x1
 6752 208e 92200000 		.4byte	0x2092
 6753 2092 2F       		.uleb128 0x2f
 6754 2093 CE6C0000 		.4byte	0x6cce
 6755 2097 2F       		.uleb128 0x2f
 6756 2098 94000000 		.4byte	0x94
 6757 209c 00       		.byte	0
 6758 209d 00       		.byte	0
 6759 209e 1B       		.uleb128 0x1b
 6760 209f C81E0000 		.4byte	0x1ec8
 6761 20a3 2D       		.uleb128 0x2d
 6762 20a4 2F580000 		.4byte	.LASF426
 6763 20a8 04       		.byte	0x4
 6764 20a9 05       		.byte	0x5
 6765 20aa 08       		.byte	0x8
 6766 20ab 50230000 		.4byte	0x2350
 6767 20af 35       		.uleb128 0x35
 6768 20b0 B2260000 		.4byte	.LASF428
 6769 20b4 05       		.byte	0x5
 6770 20b5 0A       		.byte	0xa
 6771 20b6 390C0000 		.4byte	0xc39
 6772 20ba 01       		.byte	0x1
 6773 20bb 39       		.uleb128 0x39
 6774 20bc 72617700 		.ascii	"raw\000"
 6775 20c0 05       		.byte	0x5
 6776 20c1 1B       		.byte	0x1b
 6777 20c2 AF200000 		.4byte	0x20af
 6778 20c6 00       		.byte	0
 6779 20c7 01       		.byte	0x1
 6780 20c8 3A       		.uleb128 0x3a
 6781 20c9 27290000 		.4byte	.LASF429
 6782 20cd 05       		.byte	0x5
 6783 20ce 3B       		.byte	0x3b
 6784 20cf 50230000 		.4byte	0x2350
 6785 20d3 01       		.byte	0x1
 6786 20d4 3A       		.uleb128 0x3a
 6787 20d5 BF250000 		.4byte	.LASF430
 6788 20d9 05       		.byte	0x5
 6789 20da 3C       		.byte	0x3c
 6790 20db 50230000 		.4byte	0x2350
 6791 20df 01       		.byte	0x1
 6792 20e0 3A       		.uleb128 0x3a
 6793 20e1 F7790000 		.4byte	.LASF431
 6794 20e5 05       		.byte	0x5
 6795 20e6 3D       		.byte	0x3d
 6796 20e7 50230000 		.4byte	0x2350
 6797 20eb 01       		.byte	0x1
 6798 20ec 36       		.uleb128 0x36
 6799 20ed 04310000 		.4byte	.LASF432
 6800 20f1 05       		.byte	0x5
 6801 20f2 1E       		.byte	0x1e
 6802 20f3 18750000 		.4byte	.LASF433
 6803 20f7 AF200000 		.4byte	0x20af
 6804 20fb 01       		.byte	0x1
ARM GAS  /tmp/ccytVDiP.s 			page 121


 6805 20fc 04210000 		.4byte	0x2104
 6806 2100 0A210000 		.4byte	0x210a
 6807 2104 2F       		.uleb128 0x2f
 6808 2105 DA6C0000 		.4byte	0x6cda
 6809 2109 00       		.byte	0
 6810 210a 36       		.uleb128 0x36
 6811 210b 594D0000 		.4byte	.LASF434
 6812 210f 05       		.byte	0x5
 6813 2110 1F       		.byte	0x1f
 6814 2111 4A6B0000 		.4byte	.LASF435
 6815 2115 AF200000 		.4byte	0x20af
 6816 2119 01       		.byte	0x1
 6817 211a 22210000 		.4byte	0x2122
 6818 211e 28210000 		.4byte	0x2128
 6819 2122 2F       		.uleb128 0x2f
 6820 2123 DA6C0000 		.4byte	0x6cda
 6821 2127 00       		.byte	0
 6822 2128 36       		.uleb128 0x36
 6823 2129 0F060000 		.4byte	.LASF436
 6824 212d 05       		.byte	0x5
 6825 212e 20       		.byte	0x20
 6826 212f 8A6B0000 		.4byte	.LASF437
 6827 2133 AF200000 		.4byte	0x20af
 6828 2137 01       		.byte	0x1
 6829 2138 40210000 		.4byte	0x2140
 6830 213c 46210000 		.4byte	0x2146
 6831 2140 2F       		.uleb128 0x2f
 6832 2141 DA6C0000 		.4byte	0x6cda
 6833 2145 00       		.byte	0
 6834 2146 36       		.uleb128 0x36
 6835 2147 18170000 		.4byte	.LASF438
 6836 214b 05       		.byte	0x5
 6837 214c 21       		.byte	0x21
 6838 214d EB680000 		.4byte	.LASF439
 6839 2151 AF200000 		.4byte	0x20af
 6840 2155 01       		.byte	0x1
 6841 2156 5E210000 		.4byte	0x215e
 6842 215a 64210000 		.4byte	0x2164
 6843 215e 2F       		.uleb128 0x2f
 6844 215f DA6C0000 		.4byte	0x6cda
 6845 2163 00       		.byte	0
 6846 2164 36       		.uleb128 0x36
 6847 2165 EF220000 		.4byte	.LASF440
 6848 2169 05       		.byte	0x5
 6849 216a 23       		.byte	0x23
 6850 216b 03140000 		.4byte	.LASF441
 6851 216f E06C0000 		.4byte	0x6ce0
 6852 2173 01       		.byte	0x1
 6853 2174 7C210000 		.4byte	0x217c
 6854 2178 82210000 		.4byte	0x2182
 6855 217c 2F       		.uleb128 0x2f
 6856 217d DA6C0000 		.4byte	0x6cda
 6857 2181 00       		.byte	0
 6858 2182 36       		.uleb128 0x36
 6859 2183 10390000 		.4byte	.LASF442
 6860 2187 05       		.byte	0x5
 6861 2188 24       		.byte	0x24
ARM GAS  /tmp/ccytVDiP.s 			page 122


 6862 2189 F6090000 		.4byte	.LASF443
 6863 218d E06C0000 		.4byte	0x6ce0
 6864 2191 01       		.byte	0x1
 6865 2192 9A210000 		.4byte	0x219a
 6866 2196 A0210000 		.4byte	0x21a0
 6867 219a 2F       		.uleb128 0x2f
 6868 219b DA6C0000 		.4byte	0x6cda
 6869 219f 00       		.byte	0
 6870 21a0 36       		.uleb128 0x36
 6871 21a1 D9760000 		.4byte	.LASF444
 6872 21a5 05       		.byte	0x5
 6873 21a6 25       		.byte	0x25
 6874 21a7 651B0000 		.4byte	.LASF445
 6875 21ab E06C0000 		.4byte	0x6ce0
 6876 21af 01       		.byte	0x1
 6877 21b0 B8210000 		.4byte	0x21b8
 6878 21b4 BE210000 		.4byte	0x21be
 6879 21b8 2F       		.uleb128 0x2f
 6880 21b9 DA6C0000 		.4byte	0x6cda
 6881 21bd 00       		.byte	0
 6882 21be 36       		.uleb128 0x36
 6883 21bf 9E760000 		.4byte	.LASF446
 6884 21c3 05       		.byte	0x5
 6885 21c4 26       		.byte	0x26
 6886 21c5 FA200000 		.4byte	.LASF447
 6887 21c9 E06C0000 		.4byte	0x6ce0
 6888 21cd 01       		.byte	0x1
 6889 21ce D6210000 		.4byte	0x21d6
 6890 21d2 DC210000 		.4byte	0x21dc
 6891 21d6 2F       		.uleb128 0x2f
 6892 21d7 DA6C0000 		.4byte	0x6cda
 6893 21db 00       		.byte	0
 6894 21dc 36       		.uleb128 0x36
 6895 21dd E3190000 		.4byte	.LASF448
 6896 21e1 05       		.byte	0x5
 6897 21e2 28       		.byte	0x28
 6898 21e3 C24B0000 		.4byte	.LASF449
 6899 21e7 E76C0000 		.4byte	0x6ce7
 6900 21eb 01       		.byte	0x1
 6901 21ec F4210000 		.4byte	0x21f4
 6902 21f0 FF210000 		.4byte	0x21ff
 6903 21f4 2F       		.uleb128 0x2f
 6904 21f5 ED6C0000 		.4byte	0x6ced
 6905 21f9 14       		.uleb128 0x14
 6906 21fa F36C0000 		.4byte	0x6cf3
 6907 21fe 00       		.byte	0
 6908 21ff 36       		.uleb128 0x36
 6909 2200 994E0000 		.4byte	.LASF450
 6910 2204 05       		.byte	0x5
 6911 2205 29       		.byte	0x29
 6912 2206 94690000 		.4byte	.LASF451
 6913 220a E76C0000 		.4byte	0x6ce7
 6914 220e 01       		.byte	0x1
 6915 220f 17220000 		.4byte	0x2217
 6916 2213 22220000 		.4byte	0x2222
 6917 2217 2F       		.uleb128 0x2f
 6918 2218 ED6C0000 		.4byte	0x6ced
ARM GAS  /tmp/ccytVDiP.s 			page 123


 6919 221c 14       		.uleb128 0x14
 6920 221d F36C0000 		.4byte	0x6cf3
 6921 2221 00       		.byte	0
 6922 2222 36       		.uleb128 0x36
 6923 2223 C7520000 		.4byte	.LASF452
 6924 2227 05       		.byte	0x5
 6925 2228 2A       		.byte	0x2a
 6926 2229 4A150000 		.4byte	.LASF453
 6927 222d E76C0000 		.4byte	0x6ce7
 6928 2231 01       		.byte	0x1
 6929 2232 3A220000 		.4byte	0x223a
 6930 2236 45220000 		.4byte	0x2245
 6931 223a 2F       		.uleb128 0x2f
 6932 223b ED6C0000 		.4byte	0x6ced
 6933 223f 14       		.uleb128 0x14
 6934 2240 F36C0000 		.4byte	0x6cf3
 6935 2244 00       		.byte	0
 6936 2245 30       		.uleb128 0x30
 6937 2246 2F580000 		.4byte	.LASF426
 6938 224a 05       		.byte	0x5
 6939 224b 2D       		.byte	0x2d
 6940 224c ED6C0000 		.4byte	0x6ced
 6941 2250 01       		.byte	0x1
 6942 2251 59220000 		.4byte	0x2259
 6943 2255 5F220000 		.4byte	0x225f
 6944 2259 2F       		.uleb128 0x2f
 6945 225a ED6C0000 		.4byte	0x6ced
 6946 225e 00       		.byte	0
 6947 225f 3B       		.uleb128 0x3b
 6948 2260 2F580000 		.4byte	.LASF426
 6949 2264 05       		.byte	0x5
 6950 2265 2F       		.byte	0x2f
 6951 2266 ED6C0000 		.4byte	0x6ced
 6952 226a 01       		.byte	0x1
 6953 226b 73220000 		.4byte	0x2273
 6954 226f 7E220000 		.4byte	0x227e
 6955 2273 2F       		.uleb128 0x2f
 6956 2274 ED6C0000 		.4byte	0x6ced
 6957 2278 14       		.uleb128 0x14
 6958 2279 E06C0000 		.4byte	0x6ce0
 6959 227d 00       		.byte	0
 6960 227e 30       		.uleb128 0x30
 6961 227f 2F580000 		.4byte	.LASF426
 6962 2283 05       		.byte	0x5
 6963 2284 30       		.byte	0x30
 6964 2285 ED6C0000 		.4byte	0x6ced
 6965 2289 01       		.byte	0x1
 6966 228a 92220000 		.4byte	0x2292
 6967 228e 9D220000 		.4byte	0x229d
 6968 2292 2F       		.uleb128 0x2f
 6969 2293 ED6C0000 		.4byte	0x6ced
 6970 2297 14       		.uleb128 0x14
 6971 2298 F36C0000 		.4byte	0x6cf3
 6972 229c 00       		.byte	0
 6973 229d 3C       		.uleb128 0x3c
 6974 229e 757300   		.ascii	"us\000"
 6975 22a1 05       		.byte	0x5
ARM GAS  /tmp/ccytVDiP.s 			page 124


 6976 22a2 33       		.byte	0x33
 6977 22a3 F43E0000 		.4byte	.LASF454
 6978 22a7 A3200000 		.4byte	0x20a3
 6979 22ab 01       		.byte	0x1
 6980 22ac B6220000 		.4byte	0x22b6
 6981 22b0 14       		.uleb128 0x14
 6982 22b1 AF200000 		.4byte	0x20af
 6983 22b5 00       		.byte	0
 6984 22b6 3C       		.uleb128 0x3c
 6985 22b7 6D7300   		.ascii	"ms\000"
 6986 22ba 05       		.byte	0x5
 6987 22bb 34       		.byte	0x34
 6988 22bc 684F0000 		.4byte	.LASF455
 6989 22c0 A3200000 		.4byte	0x20a3
 6990 22c4 01       		.byte	0x1
 6991 22c5 CF220000 		.4byte	0x22cf
 6992 22c9 14       		.uleb128 0x14
 6993 22ca AF200000 		.4byte	0x20af
 6994 22ce 00       		.byte	0
 6995 22cf 3C       		.uleb128 0x3c
 6996 22d0 7300     		.ascii	"s\000"
 6997 22d2 05       		.byte	0x5
 6998 22d3 35       		.byte	0x35
 6999 22d4 6A5B0000 		.4byte	.LASF456
 7000 22d8 A3200000 		.4byte	0x20a3
 7001 22dc 01       		.byte	0x1
 7002 22dd E7220000 		.4byte	0x22e7
 7003 22e1 14       		.uleb128 0x14
 7004 22e2 AF200000 		.4byte	0x20af
 7005 22e6 00       		.byte	0
 7006 22e7 3C       		.uleb128 0x3c
 7007 22e8 6D00     		.ascii	"m\000"
 7008 22ea 05       		.byte	0x5
 7009 22eb 36       		.byte	0x36
 7010 22ec 30490000 		.4byte	.LASF457
 7011 22f0 A3200000 		.4byte	0x20a3
 7012 22f4 01       		.byte	0x1
 7013 22f5 FF220000 		.4byte	0x22ff
 7014 22f9 14       		.uleb128 0x14
 7015 22fa AF200000 		.4byte	0x20af
 7016 22fe 00       		.byte	0
 7017 22ff 3C       		.uleb128 0x3c
 7018 2300 687A00   		.ascii	"hz\000"
 7019 2303 05       		.byte	0x5
 7020 2304 37       		.byte	0x37
 7021 2305 AA730000 		.4byte	.LASF458
 7022 2309 A3200000 		.4byte	0x20a3
 7023 230d 01       		.byte	0x1
 7024 230e 18230000 		.4byte	0x2318
 7025 2312 14       		.uleb128 0x14
 7026 2313 E06C0000 		.4byte	0x6ce0
 7027 2317 00       		.byte	0
 7028 2318 3D       		.uleb128 0x3d
 7029 2319 6E6F7700 		.ascii	"now\000"
 7030 231d 05       		.byte	0x5
 7031 231e 38       		.byte	0x38
 7032 231f 8D730000 		.4byte	.LASF1262
ARM GAS  /tmp/ccytVDiP.s 			page 125


 7033 2323 A3200000 		.4byte	0x20a3
 7034 2327 01       		.byte	0x1
 7035 2328 1B       		.uleb128 0x1b
 7036 2329 AF200000 		.4byte	0x20af
 7037 232d 31       		.uleb128 0x31
 7038 232e 74080000 		.4byte	.LASF459
 7039 2332 05       		.byte	0x5
 7040 2333 9F       		.byte	0x9f
 7041 2334 ED6C0000 		.4byte	0x6ced
 7042 2338 01       		.byte	0x1
 7043 2339 44230000 		.4byte	0x2344
 7044 233d 3E       		.uleb128 0x3e
 7045 233e 5400     		.ascii	"T\000"
 7046 2340 62000000 		.4byte	0x62
 7047 2344 2F       		.uleb128 0x2f
 7048 2345 ED6C0000 		.4byte	0x6ced
 7049 2349 14       		.uleb128 0x14
 7050 234a 62000000 		.4byte	0x62
 7051 234e 00       		.byte	0
 7052 234f 00       		.byte	0
 7053 2350 1B       		.uleb128 0x1b
 7054 2351 A3200000 		.4byte	0x20a3
 7055 2355 2D       		.uleb128 0x2d
 7056 2356 EF380000 		.4byte	.LASF460
 7057 235a 04       		.byte	0x4
 7058 235b 15       		.byte	0x15
 7059 235c 0F       		.byte	0xf
 7060 235d B4290000 		.4byte	0x29b4
 7061 2361 32       		.uleb128 0x32
 7062 2362 C31D0000 		.4byte	0x1dc3
 7063 2366 00       		.byte	0
 7064 2367 3F       		.uleb128 0x3f
 7065 2368 026D0000 		.4byte	.LASF463
 7066 236c 08       		.byte	0x8
 7067 236d 15       		.byte	0x15
 7068 236e 11       		.byte	0x11
 7069 236f 01       		.byte	0x1
 7070 2370 A7230000 		.4byte	0x23a7
 7071 2374 0A       		.uleb128 0xa
 7072 2375 21390000 		.4byte	.LASF461
 7073 2379 15       		.byte	0x15
 7074 237a 12       		.byte	0x12
 7075 237b F96C0000 		.4byte	0x6cf9
 7076 237f 00       		.byte	0
 7077 2380 0A       		.uleb128 0xa
 7078 2381 54200000 		.4byte	.LASF462
 7079 2385 15       		.byte	0x15
 7080 2386 13       		.byte	0x13
 7081 2387 266F0000 		.4byte	0x6f26
 7082 238b 04       		.byte	0x4
 7083 238c 40       		.uleb128 0x40
 7084 238d 026D0000 		.4byte	.LASF463
 7085 2391 15       		.byte	0x15
 7086 2392 15       		.byte	0x15
 7087 2393 F96C0000 		.4byte	0x6cf9
 7088 2397 9B230000 		.4byte	0x239b
 7089 239b 2F       		.uleb128 0x2f
ARM GAS  /tmp/ccytVDiP.s 			page 126


 7090 239c F96C0000 		.4byte	0x6cf9
 7091 23a0 14       		.uleb128 0x14
 7092 23a1 806E0000 		.4byte	0x6e80
 7093 23a5 00       		.byte	0
 7094 23a6 00       		.byte	0
 7095 23a7 18       		.uleb128 0x18
 7096 23a8 F7180000 		.4byte	.LASF464
 7097 23ac 15       		.byte	0x15
 7098 23ad 8A01     		.2byte	0x18a
 7099 23af F96C0000 		.4byte	0x6cf9
 7100 23b3 00       		.byte	0
 7101 23b4 41       		.uleb128 0x41
 7102 23b5 0D330000 		.4byte	.LASF713
 7103 23b9 42       		.uleb128 0x42
 7104 23ba 1F270000 		.4byte	.LASF465
 7105 23be 42       		.uleb128 0x42
 7106 23bf D83A0000 		.4byte	.LASF466
 7107 23c3 42       		.uleb128 0x42
 7108 23c4 09650000 		.4byte	.LASF467
 7109 23c8 43       		.uleb128 0x43
 7110 23c9 804B0000 		.4byte	.LASF469
 7111 23cd 04       		.byte	0x4
 7112 23ce 15       		.byte	0x15
 7113 23cf C0       		.byte	0xc0
 7114 23d0 01       		.byte	0x1
 7115 23d1 38250000 		.4byte	0x2538
 7116 23d5 0A       		.uleb128 0xa
 7117 23d6 5B1A0000 		.4byte	.LASF468
 7118 23da 15       		.byte	0x15
 7119 23db C4       		.byte	0xc4
 7120 23dc 2E710000 		.4byte	0x712e
 7121 23e0 00       		.byte	0
 7122 23e1 30       		.uleb128 0x30
 7123 23e2 804B0000 		.4byte	.LASF469
 7124 23e6 15       		.byte	0x15
 7125 23e7 C7       		.byte	0xc7
 7126 23e8 34710000 		.4byte	0x7134
 7127 23ec 01       		.byte	0x1
 7128 23ed F5230000 		.4byte	0x23f5
 7129 23f1 FB230000 		.4byte	0x23fb
 7130 23f5 2F       		.uleb128 0x2f
 7131 23f6 34710000 		.4byte	0x7134
 7132 23fa 00       		.byte	0
 7133 23fb 30       		.uleb128 0x30
 7134 23fc 804B0000 		.4byte	.LASF469
 7135 2400 15       		.byte	0x15
 7136 2401 C8       		.byte	0xc8
 7137 2402 34710000 		.4byte	0x7134
 7138 2406 01       		.byte	0x1
 7139 2407 0F240000 		.4byte	0x240f
 7140 240b 1A240000 		.4byte	0x241a
 7141 240f 2F       		.uleb128 0x2f
 7142 2410 34710000 		.4byte	0x7134
 7143 2414 14       		.uleb128 0x14
 7144 2415 3A710000 		.4byte	0x713a
 7145 2419 00       		.byte	0
 7146 241a 2E       		.uleb128 0x2e
ARM GAS  /tmp/ccytVDiP.s 			page 127


 7147 241b 804B0000 		.4byte	.LASF469
 7148 241f 15       		.byte	0x15
 7149 2420 CB       		.byte	0xcb
 7150 2421 34710000 		.4byte	0x7134
 7151 2425 2D240000 		.4byte	0x242d
 7152 2429 38240000 		.4byte	0x2438
 7153 242d 2F       		.uleb128 0x2f
 7154 242e 34710000 		.4byte	0x7134
 7155 2432 14       		.uleb128 0x14
 7156 2433 2E710000 		.4byte	0x712e
 7157 2437 00       		.byte	0
 7158 2438 44       		.uleb128 0x44
 7159 2439 E3190000 		.4byte	.LASF448
 7160 243d 15       		.byte	0x15
 7161 243e CE       		.byte	0xce
 7162 243f 942F0000 		.4byte	.LASF470
 7163 2443 646D0000 		.4byte	0x6d64
 7164 2447 4F240000 		.4byte	0x244f
 7165 244b 5A240000 		.4byte	0x245a
 7166 244f 2F       		.uleb128 0x2f
 7167 2450 34710000 		.4byte	0x7134
 7168 2454 14       		.uleb128 0x14
 7169 2455 3A710000 		.4byte	0x713a
 7170 2459 00       		.byte	0
 7171 245a 36       		.uleb128 0x36
 7172 245b D2520000 		.4byte	.LASF471
 7173 245f 15       		.byte	0x15
 7174 2460 D4       		.byte	0xd4
 7175 2461 DA670000 		.4byte	.LASF472
 7176 2465 40710000 		.4byte	0x7140
 7177 2469 01       		.byte	0x1
 7178 246a 72240000 		.4byte	0x2472
 7179 246e 78240000 		.4byte	0x2478
 7180 2472 2F       		.uleb128 0x2f
 7181 2473 46710000 		.4byte	0x7146
 7182 2477 00       		.byte	0
 7183 2478 36       		.uleb128 0x36
 7184 2479 8A190000 		.4byte	.LASF473
 7185 247d 15       		.byte	0x15
 7186 247e D8       		.byte	0xd8
 7187 247f 9E490000 		.4byte	.LASF474
 7188 2483 146D0000 		.4byte	0x6d14
 7189 2487 01       		.byte	0x1
 7190 2488 90240000 		.4byte	0x2490
 7191 248c 96240000 		.4byte	0x2496
 7192 2490 2F       		.uleb128 0x2f
 7193 2491 46710000 		.4byte	0x7146
 7194 2495 00       		.byte	0
 7195 2496 36       		.uleb128 0x36
 7196 2497 D44F0000 		.4byte	.LASF475
 7197 249b 15       		.byte	0x15
 7198 249c DC       		.byte	0xdc
 7199 249d 77550000 		.4byte	.LASF476
 7200 24a1 646D0000 		.4byte	0x6d64
 7201 24a5 01       		.byte	0x1
 7202 24a6 AE240000 		.4byte	0x24ae
 7203 24aa B4240000 		.4byte	0x24b4
ARM GAS  /tmp/ccytVDiP.s 			page 128


 7204 24ae 2F       		.uleb128 0x2f
 7205 24af 34710000 		.4byte	0x7134
 7206 24b3 00       		.byte	0
 7207 24b4 36       		.uleb128 0x36
 7208 24b5 D44F0000 		.4byte	.LASF475
 7209 24b9 15       		.byte	0x15
 7210 24ba E3       		.byte	0xe3
 7211 24bb 89540000 		.4byte	.LASF477
 7212 24bf 29290000 		.4byte	0x2929
 7213 24c3 01       		.byte	0x1
 7214 24c4 CC240000 		.4byte	0x24cc
 7215 24c8 D7240000 		.4byte	0x24d7
 7216 24cc 2F       		.uleb128 0x2f
 7217 24cd 34710000 		.4byte	0x7134
 7218 24d1 14       		.uleb128 0x14
 7219 24d2 94000000 		.4byte	0x94
 7220 24d6 00       		.byte	0
 7221 24d7 36       		.uleb128 0x36
 7222 24d8 DE760000 		.4byte	.LASF478
 7223 24dc 15       		.byte	0x15
 7224 24dd EB       		.byte	0xeb
 7225 24de 526F0000 		.4byte	.LASF479
 7226 24e2 700C0000 		.4byte	0xc70
 7227 24e6 01       		.byte	0x1
 7228 24e7 EF240000 		.4byte	0x24ef
 7229 24eb FA240000 		.4byte	0x24fa
 7230 24ef 2F       		.uleb128 0x2f
 7231 24f0 46710000 		.4byte	0x7146
 7232 24f4 14       		.uleb128 0x14
 7233 24f5 3A710000 		.4byte	0x713a
 7234 24f9 00       		.byte	0
 7235 24fa 36       		.uleb128 0x36
 7236 24fb C23C0000 		.4byte	.LASF480
 7237 24ff 15       		.byte	0x15
 7238 2500 EF       		.byte	0xef
 7239 2501 D7400000 		.4byte	.LASF481
 7240 2505 700C0000 		.4byte	0xc70
 7241 2509 01       		.byte	0x1
 7242 250a 12250000 		.4byte	0x2512
 7243 250e 1D250000 		.4byte	0x251d
 7244 2512 2F       		.uleb128 0x2f
 7245 2513 46710000 		.4byte	0x7146
 7246 2517 14       		.uleb128 0x14
 7247 2518 3A710000 		.4byte	0x713a
 7248 251c 00       		.byte	0
 7249 251d 45       		.uleb128 0x45
 7250 251e 8A500000 		.4byte	.LASF482
 7251 2522 15       		.byte	0x15
 7252 2523 F3       		.byte	0xf3
 7253 2524 01130000 		.4byte	.LASF483
 7254 2528 700C0000 		.4byte	0xc70
 7255 252c 01       		.byte	0x1
 7256 252d 31250000 		.4byte	0x2531
 7257 2531 2F       		.uleb128 0x2f
 7258 2532 46710000 		.4byte	0x7146
 7259 2536 00       		.byte	0
 7260 2537 00       		.byte	0
ARM GAS  /tmp/ccytVDiP.s 			page 129


 7261 2538 06       		.uleb128 0x6
 7262 2539 5A200000 		.4byte	.LASF484
 7263 253d 15       		.byte	0x15
 7264 253e 8601     		.2byte	0x186
 7265 2540 FF6C0000 		.4byte	0x6cff
 7266 2544 06       		.uleb128 0x6
 7267 2545 14180000 		.4byte	.LASF485
 7268 2549 15       		.byte	0x15
 7269 254a 8701     		.2byte	0x187
 7270 254c 1A6D0000 		.4byte	0x6d1a
 7271 2550 46       		.uleb128 0x46
 7272 2551 B4790000 		.4byte	.LASF486
 7273 2555 15       		.byte	0x15
 7274 2556 8D01     		.2byte	0x18d
 7275 2558 FA4B0000 		.4byte	.LASF488
 7276 255c 346D0000 		.4byte	0x6d34
 7277 2560 01       		.byte	0x1
 7278 2561 69250000 		.4byte	0x2569
 7279 2565 6F250000 		.4byte	0x256f
 7280 2569 2F       		.uleb128 0x2f
 7281 256a 3A6D0000 		.4byte	0x6d3a
 7282 256e 00       		.byte	0
 7283 256f 1B       		.uleb128 0x1b
 7284 2570 67230000 		.4byte	0x2367
 7285 2574 46       		.uleb128 0x46
 7286 2575 BC730000 		.4byte	.LASF487
 7287 2579 15       		.byte	0x15
 7288 257a 9101     		.2byte	0x191
 7289 257c FE720000 		.4byte	.LASF489
 7290 2580 700C0000 		.4byte	0xc70
 7291 2584 01       		.byte	0x1
 7292 2585 8D250000 		.4byte	0x258d
 7293 2589 93250000 		.4byte	0x2593
 7294 258d 2F       		.uleb128 0x2f
 7295 258e 3A6D0000 		.4byte	0x6d3a
 7296 2592 00       		.byte	0
 7297 2593 46       		.uleb128 0x46
 7298 2594 1F260000 		.4byte	.LASF490
 7299 2598 15       		.byte	0x15
 7300 2599 0302     		.2byte	0x203
 7301 259b F1610000 		.4byte	.LASF491
 7302 259f AD000000 		.4byte	0xad
 7303 25a3 01       		.byte	0x1
 7304 25a4 AC250000 		.4byte	0x25ac
 7305 25a8 B2250000 		.4byte	0x25b2
 7306 25ac 2F       		.uleb128 0x2f
 7307 25ad 3A6D0000 		.4byte	0x6d3a
 7308 25b1 00       		.byte	0
 7309 25b2 47       		.uleb128 0x47
 7310 25b3 8E580000 		.4byte	.LASF492
 7311 25b7 15       		.byte	0x15
 7312 25b8 9701     		.2byte	0x197
 7313 25ba F8230000 		.4byte	.LASF494
 7314 25be 01       		.byte	0x1
 7315 25bf C7250000 		.4byte	0x25c7
 7316 25c3 D2250000 		.4byte	0x25d2
 7317 25c7 2F       		.uleb128 0x2f
ARM GAS  /tmp/ccytVDiP.s 			page 130


 7318 25c8 406D0000 		.4byte	0x6d40
 7319 25cc 14       		.uleb128 0x14
 7320 25cd 466D0000 		.4byte	0x6d46
 7321 25d1 00       		.byte	0
 7322 25d2 47       		.uleb128 0x47
 7323 25d3 DB630000 		.4byte	.LASF493
 7324 25d7 15       		.byte	0x15
 7325 25d8 9F01     		.2byte	0x19f
 7326 25da 9D180000 		.4byte	.LASF495
 7327 25de 01       		.byte	0x1
 7328 25df E7250000 		.4byte	0x25e7
 7329 25e3 F2250000 		.4byte	0x25f2
 7330 25e7 2F       		.uleb128 0x2f
 7331 25e8 406D0000 		.4byte	0x6d40
 7332 25ec 14       		.uleb128 0x14
 7333 25ed 466D0000 		.4byte	0x6d46
 7334 25f1 00       		.byte	0
 7335 25f2 46       		.uleb128 0x46
 7336 25f3 B8330000 		.4byte	.LASF496
 7337 25f7 15       		.byte	0x15
 7338 25f8 0E02     		.2byte	0x20e
 7339 25fa A2570000 		.4byte	.LASF497
 7340 25fe 700C0000 		.4byte	0xc70
 7341 2602 01       		.byte	0x1
 7342 2603 0B260000 		.4byte	0x260b
 7343 2607 16260000 		.4byte	0x2616
 7344 260b 2F       		.uleb128 0x2f
 7345 260c 406D0000 		.4byte	0x6d40
 7346 2610 14       		.uleb128 0x14
 7347 2611 466D0000 		.4byte	0x6d46
 7348 2615 00       		.byte	0
 7349 2616 46       		.uleb128 0x46
 7350 2617 2D440000 		.4byte	.LASF498
 7351 261b 15       		.byte	0x15
 7352 261c 1F02     		.2byte	0x21f
 7353 261e B34E0000 		.4byte	.LASF499
 7354 2622 94000000 		.4byte	0x94
 7355 2626 01       		.byte	0x1
 7356 2627 2F260000 		.4byte	0x262f
 7357 262b 3A260000 		.4byte	0x263a
 7358 262f 2F       		.uleb128 0x2f
 7359 2630 3A6D0000 		.4byte	0x6d3a
 7360 2634 14       		.uleb128 0x14
 7361 2635 146D0000 		.4byte	0x6d14
 7362 2639 00       		.byte	0
 7363 263a 46       		.uleb128 0x46
 7364 263b 1B5F0000 		.4byte	.LASF500
 7365 263f 15       		.byte	0x15
 7366 2640 2C02     		.2byte	0x22c
 7367 2642 77520000 		.4byte	.LASF501
 7368 2646 700C0000 		.4byte	0xc70
 7369 264a 01       		.byte	0x1
 7370 264b 53260000 		.4byte	0x2653
 7371 264f 5E260000 		.4byte	0x265e
 7372 2653 2F       		.uleb128 0x2f
 7373 2654 3A6D0000 		.4byte	0x6d3a
 7374 2658 14       		.uleb128 0x14
ARM GAS  /tmp/ccytVDiP.s 			page 131


 7375 2659 146D0000 		.4byte	0x6d14
 7376 265d 00       		.byte	0
 7377 265e 46       		.uleb128 0x46
 7378 265f 42400000 		.4byte	.LASF502
 7379 2663 15       		.byte	0x15
 7380 2664 3802     		.2byte	0x238
 7381 2666 D9000000 		.4byte	.LASF503
 7382 266a 4C6D0000 		.4byte	0x6d4c
 7383 266e 01       		.byte	0x1
 7384 266f 77260000 		.4byte	0x2677
 7385 2673 82260000 		.4byte	0x2682
 7386 2677 2F       		.uleb128 0x2f
 7387 2678 3A6D0000 		.4byte	0x6d3a
 7388 267c 14       		.uleb128 0x14
 7389 267d 38250000 		.4byte	0x2538
 7390 2681 00       		.byte	0
 7391 2682 46       		.uleb128 0x46
 7392 2683 42400000 		.4byte	.LASF502
 7393 2687 15       		.byte	0x15
 7394 2688 4402     		.2byte	0x244
 7395 268a 020F0000 		.4byte	.LASF504
 7396 268e 4C6D0000 		.4byte	0x6d4c
 7397 2692 01       		.byte	0x1
 7398 2693 9B260000 		.4byte	0x269b
 7399 2697 AB260000 		.4byte	0x26ab
 7400 269b 2F       		.uleb128 0x2f
 7401 269c 3A6D0000 		.4byte	0x6d3a
 7402 26a0 14       		.uleb128 0x14
 7403 26a1 44250000 		.4byte	0x2544
 7404 26a5 14       		.uleb128 0x14
 7405 26a6 C16C0000 		.4byte	0x6cc1
 7406 26aa 00       		.byte	0
 7407 26ab 46       		.uleb128 0x46
 7408 26ac 9B130000 		.4byte	.LASF505
 7409 26b0 15       		.byte	0x15
 7410 26b1 B301     		.2byte	0x1b3
 7411 26b3 1A460000 		.4byte	.LASF506
 7412 26b7 CA260000 		.4byte	0x26ca
 7413 26bb 01       		.byte	0x1
 7414 26bc C4260000 		.4byte	0x26c4
 7415 26c0 CA260000 		.4byte	0x26ca
 7416 26c4 2F       		.uleb128 0x2f
 7417 26c5 406D0000 		.4byte	0x6d40
 7418 26c9 00       		.byte	0
 7419 26ca 1B       		.uleb128 0x1b
 7420 26cb B9230000 		.4byte	0x23b9
 7421 26cf 46       		.uleb128 0x46
 7422 26d0 D43C0000 		.4byte	.LASF507
 7423 26d4 15       		.byte	0x15
 7424 26d5 B701     		.2byte	0x1b7
 7425 26d7 483C0000 		.4byte	.LASF508
 7426 26db CA260000 		.4byte	0x26ca
 7427 26df 01       		.byte	0x1
 7428 26e0 E8260000 		.4byte	0x26e8
 7429 26e4 EE260000 		.4byte	0x26ee
 7430 26e8 2F       		.uleb128 0x2f
 7431 26e9 406D0000 		.4byte	0x6d40
ARM GAS  /tmp/ccytVDiP.s 			page 132


 7432 26ed 00       		.byte	0
 7433 26ee 47       		.uleb128 0x47
 7434 26ef 1B7A0000 		.4byte	.LASF509
 7435 26f3 15       		.byte	0x15
 7436 26f4 BB01     		.2byte	0x1bb
 7437 26f6 70340000 		.4byte	.LASF510
 7438 26fa 01       		.byte	0x1
 7439 26fb 03270000 		.4byte	0x2703
 7440 26ff 0E270000 		.4byte	0x270e
 7441 2703 2F       		.uleb128 0x2f
 7442 2704 406D0000 		.4byte	0x6d40
 7443 2708 14       		.uleb128 0x14
 7444 2709 526D0000 		.4byte	0x6d52
 7445 270d 00       		.byte	0
 7446 270e 46       		.uleb128 0x46
 7447 270f 9B130000 		.4byte	.LASF505
 7448 2713 15       		.byte	0x15
 7449 2714 BF01     		.2byte	0x1bf
 7450 2716 854A0000 		.4byte	.LASF511
 7451 271a 2D270000 		.4byte	0x272d
 7452 271e 01       		.byte	0x1
 7453 271f 27270000 		.4byte	0x2727
 7454 2723 2D270000 		.4byte	0x272d
 7455 2727 2F       		.uleb128 0x2f
 7456 2728 3A6D0000 		.4byte	0x6d3a
 7457 272c 00       		.byte	0
 7458 272d 1B       		.uleb128 0x1b
 7459 272e BE230000 		.4byte	0x23be
 7460 2732 46       		.uleb128 0x46
 7461 2733 D43C0000 		.4byte	.LASF507
 7462 2737 15       		.byte	0x15
 7463 2738 C301     		.2byte	0x1c3
 7464 273a 413A0000 		.4byte	.LASF512
 7465 273e 2D270000 		.4byte	0x272d
 7466 2742 01       		.byte	0x1
 7467 2743 4B270000 		.4byte	0x274b
 7468 2747 51270000 		.4byte	0x2751
 7469 274b 2F       		.uleb128 0x2f
 7470 274c 3A6D0000 		.4byte	0x6d3a
 7471 2750 00       		.byte	0
 7472 2751 47       		.uleb128 0x47
 7473 2752 1B7A0000 		.4byte	.LASF509
 7474 2756 15       		.byte	0x15
 7475 2757 C701     		.2byte	0x1c7
 7476 2759 23250000 		.4byte	.LASF513
 7477 275d 01       		.byte	0x1
 7478 275e 66270000 		.4byte	0x2766
 7479 2762 71270000 		.4byte	0x2771
 7480 2766 2F       		.uleb128 0x2f
 7481 2767 3A6D0000 		.4byte	0x6d3a
 7482 276b 14       		.uleb128 0x14
 7483 276c 586D0000 		.4byte	0x6d58
 7484 2770 00       		.byte	0
 7485 2771 46       		.uleb128 0x46
 7486 2772 826D0000 		.4byte	.LASF514
 7487 2776 15       		.byte	0x15
 7488 2777 5302     		.2byte	0x253
ARM GAS  /tmp/ccytVDiP.s 			page 133


 7489 2779 AC750000 		.4byte	.LASF515
 7490 277d 346D0000 		.4byte	0x6d34
 7491 2781 01       		.byte	0x1
 7492 2782 8A270000 		.4byte	0x278a
 7493 2786 90270000 		.4byte	0x2790
 7494 278a 2F       		.uleb128 0x2f
 7495 278b 3A6D0000 		.4byte	0x6d3a
 7496 278f 00       		.byte	0
 7497 2790 46       		.uleb128 0x46
 7498 2791 3C710000 		.4byte	.LASF516
 7499 2795 15       		.byte	0x15
 7500 2796 5D02     		.2byte	0x25d
 7501 2798 1E210000 		.4byte	.LASF517
 7502 279c 700C0000 		.4byte	0xc70
 7503 27a0 01       		.byte	0x1
 7504 27a1 A9270000 		.4byte	0x27a9
 7505 27a5 AF270000 		.4byte	0x27af
 7506 27a9 2F       		.uleb128 0x2f
 7507 27aa 3A6D0000 		.4byte	0x6d3a
 7508 27ae 00       		.byte	0
 7509 27af 46       		.uleb128 0x46
 7510 27b0 C3400000 		.4byte	.LASF518
 7511 27b4 15       		.byte	0x15
 7512 27b5 6702     		.2byte	0x267
 7513 27b7 67000000 		.4byte	.LASF519
 7514 27bb AD000000 		.4byte	0xad
 7515 27bf 01       		.byte	0x1
 7516 27c0 C8270000 		.4byte	0x27c8
 7517 27c4 CE270000 		.4byte	0x27ce
 7518 27c8 2F       		.uleb128 0x2f
 7519 27c9 3A6D0000 		.4byte	0x6d3a
 7520 27cd 00       		.byte	0
 7521 27ce 47       		.uleb128 0x47
 7522 27cf 2C260000 		.4byte	.LASF520
 7523 27d3 15       		.byte	0x15
 7524 27d4 7602     		.2byte	0x276
 7525 27d6 093E0000 		.4byte	.LASF521
 7526 27da 01       		.byte	0x1
 7527 27db E3270000 		.4byte	0x27e3
 7528 27df EE270000 		.4byte	0x27ee
 7529 27e3 2F       		.uleb128 0x2f
 7530 27e4 406D0000 		.4byte	0x6d40
 7531 27e8 14       		.uleb128 0x14
 7532 27e9 466D0000 		.4byte	0x6d46
 7533 27ed 00       		.byte	0
 7534 27ee 46       		.uleb128 0x46
 7535 27ef 83190000 		.4byte	.LASF522
 7536 27f3 15       		.byte	0x15
 7537 27f4 8002     		.2byte	0x280
 7538 27f6 F0490000 		.4byte	.LASF523
 7539 27fa 700C0000 		.4byte	0xc70
 7540 27fe 01       		.byte	0x1
 7541 27ff 07280000 		.4byte	0x2807
 7542 2803 12280000 		.4byte	0x2812
 7543 2807 2F       		.uleb128 0x2f
 7544 2808 406D0000 		.4byte	0x6d40
 7545 280c 14       		.uleb128 0x14
ARM GAS  /tmp/ccytVDiP.s 			page 134


 7546 280d 466D0000 		.4byte	0x6d46
 7547 2811 00       		.byte	0
 7548 2812 46       		.uleb128 0x46
 7549 2813 55460000 		.4byte	.LASF524
 7550 2817 15       		.byte	0x15
 7551 2818 8A02     		.2byte	0x28a
 7552 281a 952A0000 		.4byte	.LASF525
 7553 281e 94000000 		.4byte	0x94
 7554 2822 01       		.byte	0x1
 7555 2823 2B280000 		.4byte	0x282b
 7556 2827 36280000 		.4byte	0x2836
 7557 282b 2F       		.uleb128 0x2f
 7558 282c 3A6D0000 		.4byte	0x6d3a
 7559 2830 14       		.uleb128 0x14
 7560 2831 146D0000 		.4byte	0x6d14
 7561 2835 00       		.byte	0
 7562 2836 46       		.uleb128 0x46
 7563 2837 972E0000 		.4byte	.LASF526
 7564 283b 15       		.byte	0x15
 7565 283c 9B02     		.2byte	0x29b
 7566 283e 2D4B0000 		.4byte	.LASF527
 7567 2842 700C0000 		.4byte	0xc70
 7568 2846 01       		.byte	0x1
 7569 2847 4F280000 		.4byte	0x284f
 7570 284b 5A280000 		.4byte	0x285a
 7571 284f 2F       		.uleb128 0x2f
 7572 2850 3A6D0000 		.4byte	0x6d3a
 7573 2854 14       		.uleb128 0x14
 7574 2855 146D0000 		.4byte	0x6d14
 7575 2859 00       		.byte	0
 7576 285a 46       		.uleb128 0x46
 7577 285b 3F4A0000 		.4byte	.LASF528
 7578 285f 15       		.byte	0x15
 7579 2860 AC02     		.2byte	0x2ac
 7580 2862 CC370000 		.4byte	.LASF529
 7581 2866 4C6D0000 		.4byte	0x6d4c
 7582 286a 01       		.byte	0x1
 7583 286b 73280000 		.4byte	0x2873
 7584 286f 7E280000 		.4byte	0x287e
 7585 2873 2F       		.uleb128 0x2f
 7586 2874 3A6D0000 		.4byte	0x6d3a
 7587 2878 14       		.uleb128 0x14
 7588 2879 38250000 		.4byte	0x2538
 7589 287d 00       		.byte	0
 7590 287e 46       		.uleb128 0x46
 7591 287f 3F4A0000 		.4byte	.LASF528
 7592 2883 15       		.byte	0x15
 7593 2884 BC02     		.2byte	0x2bc
 7594 2886 EA1C0000 		.4byte	.LASF530
 7595 288a 4C6D0000 		.4byte	0x6d4c
 7596 288e 01       		.byte	0x1
 7597 288f 97280000 		.4byte	0x2897
 7598 2893 A7280000 		.4byte	0x28a7
 7599 2897 2F       		.uleb128 0x2f
 7600 2898 3A6D0000 		.4byte	0x6d3a
 7601 289c 14       		.uleb128 0x14
 7602 289d 44250000 		.4byte	0x2544
ARM GAS  /tmp/ccytVDiP.s 			page 135


 7603 28a1 14       		.uleb128 0x14
 7604 28a2 C16C0000 		.4byte	0x6cc1
 7605 28a6 00       		.byte	0
 7606 28a7 46       		.uleb128 0x46
 7607 28a8 10790000 		.4byte	.LASF531
 7608 28ac 15       		.byte	0x15
 7609 28ad E001     		.2byte	0x1e0
 7610 28af F8040000 		.4byte	.LASF532
 7611 28b3 C6280000 		.4byte	0x28c6
 7612 28b7 01       		.byte	0x1
 7613 28b8 C0280000 		.4byte	0x28c0
 7614 28bc C6280000 		.4byte	0x28c6
 7615 28c0 2F       		.uleb128 0x2f
 7616 28c1 406D0000 		.4byte	0x6d40
 7617 28c5 00       		.byte	0
 7618 28c6 1B       		.uleb128 0x1b
 7619 28c7 C3230000 		.4byte	0x23c3
 7620 28cb 48       		.uleb128 0x48
 7621 28cc 656E6400 		.ascii	"end\000"
 7622 28d0 15       		.byte	0x15
 7623 28d1 E401     		.2byte	0x1e4
 7624 28d3 B6310000 		.4byte	.LASF536
 7625 28d7 C6280000 		.4byte	0x28c6
 7626 28db 01       		.byte	0x1
 7627 28dc E4280000 		.4byte	0x28e4
 7628 28e0 EA280000 		.4byte	0x28ea
 7629 28e4 2F       		.uleb128 0x2f
 7630 28e5 406D0000 		.4byte	0x6d40
 7631 28e9 00       		.byte	0
 7632 28ea 47       		.uleb128 0x47
 7633 28eb 10170000 		.4byte	.LASF533
 7634 28ef 15       		.byte	0x15
 7635 28f0 E801     		.2byte	0x1e8
 7636 28f2 DF3C0000 		.4byte	.LASF534
 7637 28f6 01       		.byte	0x1
 7638 28f7 FF280000 		.4byte	0x28ff
 7639 28fb 0A290000 		.4byte	0x290a
 7640 28ff 2F       		.uleb128 0x2f
 7641 2900 406D0000 		.4byte	0x6d40
 7642 2904 14       		.uleb128 0x14
 7643 2905 5E6D0000 		.4byte	0x6d5e
 7644 2909 00       		.byte	0
 7645 290a 46       		.uleb128 0x46
 7646 290b 10790000 		.4byte	.LASF531
 7647 290f 15       		.byte	0x15
 7648 2910 EC01     		.2byte	0x1ec
 7649 2912 801E0000 		.4byte	.LASF535
 7650 2916 29290000 		.4byte	0x2929
 7651 291a 01       		.byte	0x1
 7652 291b 23290000 		.4byte	0x2923
 7653 291f 29290000 		.4byte	0x2929
 7654 2923 2F       		.uleb128 0x2f
 7655 2924 3A6D0000 		.4byte	0x6d3a
 7656 2928 00       		.byte	0
 7657 2929 1B       		.uleb128 0x1b
 7658 292a C8230000 		.4byte	0x23c8
 7659 292e 48       		.uleb128 0x48
ARM GAS  /tmp/ccytVDiP.s 			page 136


 7660 292f 656E6400 		.ascii	"end\000"
 7661 2933 15       		.byte	0x15
 7662 2934 F201     		.2byte	0x1f2
 7663 2936 B4780000 		.4byte	.LASF537
 7664 293a 29290000 		.4byte	0x2929
 7665 293e 01       		.byte	0x1
 7666 293f 47290000 		.4byte	0x2947
 7667 2943 4D290000 		.4byte	0x294d
 7668 2947 2F       		.uleb128 0x2f
 7669 2948 3A6D0000 		.4byte	0x6d3a
 7670 294c 00       		.byte	0
 7671 294d 47       		.uleb128 0x47
 7672 294e 10170000 		.4byte	.LASF533
 7673 2952 15       		.byte	0x15
 7674 2953 F601     		.2byte	0x1f6
 7675 2955 96380000 		.4byte	.LASF538
 7676 2959 01       		.byte	0x1
 7677 295a 62290000 		.4byte	0x2962
 7678 295e 6D290000 		.4byte	0x296d
 7679 2962 2F       		.uleb128 0x2f
 7680 2963 3A6D0000 		.4byte	0x6d3a
 7681 2967 14       		.uleb128 0x14
 7682 2968 646D0000 		.4byte	0x6d64
 7683 296c 00       		.byte	0
 7684 296d 49       		.uleb128 0x49
 7685 296e 19140000 		.4byte	.LASF539
 7686 2972 15       		.byte	0x15
 7687 2973 FA01     		.2byte	0x1fa
 7688 2975 406D0000 		.4byte	0x6d40
 7689 2979 01       		.byte	0x1
 7690 297a 82290000 		.4byte	0x2982
 7691 297e 88290000 		.4byte	0x2988
 7692 2982 2F       		.uleb128 0x2f
 7693 2983 406D0000 		.4byte	0x6d40
 7694 2987 00       		.byte	0
 7695 2988 1B       		.uleb128 0x1b
 7696 2989 B4230000 		.4byte	0x23b4
 7697 298d 4A       		.uleb128 0x4a
 7698 298e 6B4C0000 		.4byte	.LASF540
 7699 2992 B8000000 		.4byte	0xb8
 7700 2996 01       		.byte	0x1
 7701 2997 9F290000 		.4byte	0x299f
 7702 299b AA290000 		.4byte	0x29aa
 7703 299f 2F       		.uleb128 0x2f
 7704 29a0 406D0000 		.4byte	0x6d40
 7705 29a4 2F       		.uleb128 0x2f
 7706 29a5 94000000 		.4byte	0x94
 7707 29a9 00       		.byte	0
 7708 29aa 4B       		.uleb128 0x4b
 7709 29ab D7130000 		.4byte	.LASF541
 7710 29af B9290000 		.4byte	0x29b9
 7711 29b3 00       		.byte	0
 7712 29b4 1B       		.uleb128 0x1b
 7713 29b5 B9290000 		.4byte	0x29b9
 7714 29b9 4C       		.uleb128 0x4c
 7715 29ba AD760000 		.4byte	.LASF1050
 7716 29be 452A0000 		.4byte	0x2a45
ARM GAS  /tmp/ccytVDiP.s 			page 137


 7717 29c2 4D       		.uleb128 0x4d
 7718 29c3 A1250000 		.4byte	.LASF542
 7719 29c7 0D       		.byte	0xd
 7720 29c8 40       		.byte	0x40
 7721 29c9 4D2B0000 		.4byte	.LASF544
 7722 29cd AD000000 		.4byte	0xad
 7723 29d1 01       		.byte	0x1
 7724 29d2 02       		.uleb128 0x2
 7725 29d3 10       		.byte	0x10
 7726 29d4 00       		.uleb128 0
 7727 29d5 B9290000 		.4byte	0x29b9
 7728 29d9 01       		.byte	0x1
 7729 29da E2290000 		.4byte	0x29e2
 7730 29de E8290000 		.4byte	0x29e8
 7731 29e2 2F       		.uleb128 0x2f
 7732 29e3 40710000 		.4byte	0x7140
 7733 29e7 00       		.byte	0
 7734 29e8 4D       		.uleb128 0x4d
 7735 29e9 7F430000 		.4byte	.LASF543
 7736 29ed 0D       		.byte	0xd
 7737 29ee 47       		.byte	0x47
 7738 29ef 55060000 		.4byte	.LASF545
 7739 29f3 700C0000 		.4byte	0xc70
 7740 29f7 01       		.byte	0x1
 7741 29f8 02       		.uleb128 0x2
 7742 29f9 10       		.byte	0x10
 7743 29fa 02       		.uleb128 0x2
 7744 29fb B9290000 		.4byte	0x29b9
 7745 29ff 01       		.byte	0x1
 7746 2a00 082A0000 		.4byte	0x2a08
 7747 2a04 182A0000 		.4byte	0x2a18
 7748 2a08 2F       		.uleb128 0x2f
 7749 2a09 4C6D0000 		.4byte	0x6d4c
 7750 2a0d 14       		.uleb128 0x14
 7751 2a0e 1A6F0000 		.4byte	0x6f1a
 7752 2a12 14       		.uleb128 0x14
 7753 2a13 E76C0000 		.4byte	0x6ce7
 7754 2a17 00       		.byte	0
 7755 2a18 4E       		.uleb128 0x4e
 7756 2a19 1F450000 		.4byte	.LASF909
 7757 2a1d 0D       		.byte	0xd
 7758 2a1e 52       		.byte	0x52
 7759 2a1f C2340000 		.4byte	.LASF1263
 7760 2a23 700C0000 		.4byte	0xc70
 7761 2a27 01       		.byte	0x1
 7762 2a28 02       		.uleb128 0x2
 7763 2a29 10       		.byte	0x10
 7764 2a2a 01       		.uleb128 0x1
 7765 2a2b B9290000 		.4byte	0x29b9
 7766 2a2f 01       		.byte	0x1
 7767 2a30 342A0000 		.4byte	0x2a34
 7768 2a34 2F       		.uleb128 0x2f
 7769 2a35 4C6D0000 		.4byte	0x6d4c
 7770 2a39 14       		.uleb128 0x14
 7771 2a3a 686E0000 		.4byte	0x6e68
 7772 2a3e 14       		.uleb128 0x14
 7773 2a3f F36C0000 		.4byte	0x6cf3
ARM GAS  /tmp/ccytVDiP.s 			page 138


 7774 2a43 00       		.byte	0
 7775 2a44 00       		.byte	0
 7776 2a45 1B       		.uleb128 0x1b
 7777 2a46 55230000 		.4byte	0x2355
 7778 2a4a 2D       		.uleb128 0x2d
 7779 2a4b 64630000 		.4byte	.LASF546
 7780 2a4f 04       		.byte	0x4
 7781 2a50 15       		.byte	0x15
 7782 2a51 0F       		.byte	0xf
 7783 2a52 342F0000 		.4byte	0x2f34
 7784 2a56 32       		.uleb128 0x32
 7785 2a57 C31D0000 		.4byte	0x1dc3
 7786 2a5b 00       		.byte	0
 7787 2a5c 3F       		.uleb128 0x3f
 7788 2a5d 026D0000 		.4byte	.LASF463
 7789 2a61 08       		.byte	0x8
 7790 2a62 15       		.byte	0x15
 7791 2a63 11       		.byte	0x11
 7792 2a64 01       		.byte	0x1
 7793 2a65 9C2A0000 		.4byte	0x2a9c
 7794 2a69 0A       		.uleb128 0xa
 7795 2a6a 21390000 		.4byte	.LASF461
 7796 2a6e 15       		.byte	0x15
 7797 2a6f 12       		.byte	0x12
 7798 2a70 6A6D0000 		.4byte	0x6d6a
 7799 2a74 00       		.byte	0
 7800 2a75 0A       		.uleb128 0xa
 7801 2a76 54200000 		.4byte	.LASF462
 7802 2a7a 15       		.byte	0x15
 7803 2a7b 13       		.byte	0x13
 7804 2a7c 41700000 		.4byte	0x7041
 7805 2a80 04       		.byte	0x4
 7806 2a81 40       		.uleb128 0x40
 7807 2a82 026D0000 		.4byte	.LASF463
 7808 2a86 15       		.byte	0x15
 7809 2a87 15       		.byte	0x15
 7810 2a88 6A6D0000 		.4byte	0x6d6a
 7811 2a8c 902A0000 		.4byte	0x2a90
 7812 2a90 2F       		.uleb128 0x2f
 7813 2a91 6A6D0000 		.4byte	0x6d6a
 7814 2a95 14       		.uleb128 0x14
 7815 2a96 866E0000 		.4byte	0x6e86
 7816 2a9a 00       		.byte	0
 7817 2a9b 00       		.byte	0
 7818 2a9c 18       		.uleb128 0x18
 7819 2a9d F7180000 		.4byte	.LASF464
 7820 2aa1 15       		.byte	0x15
 7821 2aa2 8A01     		.2byte	0x18a
 7822 2aa4 6A6D0000 		.4byte	0x6d6a
 7823 2aa8 00       		.byte	0
 7824 2aa9 42       		.uleb128 0x42
 7825 2aaa 1F270000 		.4byte	.LASF465
 7826 2aae 42       		.uleb128 0x42
 7827 2aaf D83A0000 		.4byte	.LASF466
 7828 2ab3 42       		.uleb128 0x42
 7829 2ab4 09650000 		.4byte	.LASF467
 7830 2ab8 42       		.uleb128 0x42
ARM GAS  /tmp/ccytVDiP.s 			page 139


 7831 2ab9 804B0000 		.4byte	.LASF469
 7832 2abd 06       		.uleb128 0x6
 7833 2abe 5A200000 		.4byte	.LASF484
 7834 2ac2 15       		.byte	0x15
 7835 2ac3 8601     		.2byte	0x186
 7836 2ac5 706D0000 		.4byte	0x6d70
 7837 2ac9 06       		.uleb128 0x6
 7838 2aca 14180000 		.4byte	.LASF485
 7839 2ace 15       		.byte	0x15
 7840 2acf 8701     		.2byte	0x187
 7841 2ad1 8B6D0000 		.4byte	0x6d8b
 7842 2ad5 46       		.uleb128 0x46
 7843 2ad6 B4790000 		.4byte	.LASF486
 7844 2ada 15       		.byte	0x15
 7845 2adb 8D01     		.2byte	0x18d
 7846 2add B7260000 		.4byte	.LASF547
 7847 2ae1 A56D0000 		.4byte	0x6da5
 7848 2ae5 01       		.byte	0x1
 7849 2ae6 EE2A0000 		.4byte	0x2aee
 7850 2aea F42A0000 		.4byte	0x2af4
 7851 2aee 2F       		.uleb128 0x2f
 7852 2aef AB6D0000 		.4byte	0x6dab
 7853 2af3 00       		.byte	0
 7854 2af4 1B       		.uleb128 0x1b
 7855 2af5 5C2A0000 		.4byte	0x2a5c
 7856 2af9 46       		.uleb128 0x46
 7857 2afa BC730000 		.4byte	.LASF487
 7858 2afe 15       		.byte	0x15
 7859 2aff 9101     		.2byte	0x191
 7860 2b01 54490000 		.4byte	.LASF548
 7861 2b05 700C0000 		.4byte	0xc70
 7862 2b09 01       		.byte	0x1
 7863 2b0a 122B0000 		.4byte	0x2b12
 7864 2b0e 182B0000 		.4byte	0x2b18
 7865 2b12 2F       		.uleb128 0x2f
 7866 2b13 AB6D0000 		.4byte	0x6dab
 7867 2b17 00       		.byte	0
 7868 2b18 46       		.uleb128 0x46
 7869 2b19 1F260000 		.4byte	.LASF490
 7870 2b1d 15       		.byte	0x15
 7871 2b1e 0302     		.2byte	0x203
 7872 2b20 E8570000 		.4byte	.LASF549
 7873 2b24 AD000000 		.4byte	0xad
 7874 2b28 01       		.byte	0x1
 7875 2b29 312B0000 		.4byte	0x2b31
 7876 2b2d 372B0000 		.4byte	0x2b37
 7877 2b31 2F       		.uleb128 0x2f
 7878 2b32 AB6D0000 		.4byte	0x6dab
 7879 2b36 00       		.byte	0
 7880 2b37 47       		.uleb128 0x47
 7881 2b38 8E580000 		.4byte	.LASF492
 7882 2b3c 15       		.byte	0x15
 7883 2b3d 9701     		.2byte	0x197
 7884 2b3f B26E0000 		.4byte	.LASF550
 7885 2b43 01       		.byte	0x1
 7886 2b44 4C2B0000 		.4byte	0x2b4c
 7887 2b48 572B0000 		.4byte	0x2b57
ARM GAS  /tmp/ccytVDiP.s 			page 140


 7888 2b4c 2F       		.uleb128 0x2f
 7889 2b4d B16D0000 		.4byte	0x6db1
 7890 2b51 14       		.uleb128 0x14
 7891 2b52 B76D0000 		.4byte	0x6db7
 7892 2b56 00       		.byte	0
 7893 2b57 47       		.uleb128 0x47
 7894 2b58 DB630000 		.4byte	.LASF493
 7895 2b5c 15       		.byte	0x15
 7896 2b5d 9F01     		.2byte	0x19f
 7897 2b5f 630B0000 		.4byte	.LASF551
 7898 2b63 01       		.byte	0x1
 7899 2b64 6C2B0000 		.4byte	0x2b6c
 7900 2b68 772B0000 		.4byte	0x2b77
 7901 2b6c 2F       		.uleb128 0x2f
 7902 2b6d B16D0000 		.4byte	0x6db1
 7903 2b71 14       		.uleb128 0x14
 7904 2b72 B76D0000 		.4byte	0x6db7
 7905 2b76 00       		.byte	0
 7906 2b77 46       		.uleb128 0x46
 7907 2b78 B8330000 		.4byte	.LASF496
 7908 2b7c 15       		.byte	0x15
 7909 2b7d 0E02     		.2byte	0x20e
 7910 2b7f DC360000 		.4byte	.LASF552
 7911 2b83 700C0000 		.4byte	0xc70
 7912 2b87 01       		.byte	0x1
 7913 2b88 902B0000 		.4byte	0x2b90
 7914 2b8c 9B2B0000 		.4byte	0x2b9b
 7915 2b90 2F       		.uleb128 0x2f
 7916 2b91 B16D0000 		.4byte	0x6db1
 7917 2b95 14       		.uleb128 0x14
 7918 2b96 B76D0000 		.4byte	0x6db7
 7919 2b9a 00       		.byte	0
 7920 2b9b 46       		.uleb128 0x46
 7921 2b9c 2D440000 		.4byte	.LASF498
 7922 2ba0 15       		.byte	0x15
 7923 2ba1 1F02     		.2byte	0x21f
 7924 2ba3 DB420000 		.4byte	.LASF553
 7925 2ba7 94000000 		.4byte	0x94
 7926 2bab 01       		.byte	0x1
 7927 2bac B42B0000 		.4byte	0x2bb4
 7928 2bb0 BF2B0000 		.4byte	0x2bbf
 7929 2bb4 2F       		.uleb128 0x2f
 7930 2bb5 AB6D0000 		.4byte	0x6dab
 7931 2bb9 14       		.uleb128 0x14
 7932 2bba 856D0000 		.4byte	0x6d85
 7933 2bbe 00       		.byte	0
 7934 2bbf 46       		.uleb128 0x46
 7935 2bc0 1B5F0000 		.4byte	.LASF500
 7936 2bc4 15       		.byte	0x15
 7937 2bc5 2C02     		.2byte	0x22c
 7938 2bc7 CF460000 		.4byte	.LASF554
 7939 2bcb 700C0000 		.4byte	0xc70
 7940 2bcf 01       		.byte	0x1
 7941 2bd0 D82B0000 		.4byte	0x2bd8
 7942 2bd4 E32B0000 		.4byte	0x2be3
 7943 2bd8 2F       		.uleb128 0x2f
 7944 2bd9 AB6D0000 		.4byte	0x6dab
ARM GAS  /tmp/ccytVDiP.s 			page 141


 7945 2bdd 14       		.uleb128 0x14
 7946 2bde 856D0000 		.4byte	0x6d85
 7947 2be2 00       		.byte	0
 7948 2be3 46       		.uleb128 0x46
 7949 2be4 42400000 		.4byte	.LASF502
 7950 2be8 15       		.byte	0x15
 7951 2be9 3802     		.2byte	0x238
 7952 2beb 1F070000 		.4byte	.LASF555
 7953 2bef BD6D0000 		.4byte	0x6dbd
 7954 2bf3 01       		.byte	0x1
 7955 2bf4 FC2B0000 		.4byte	0x2bfc
 7956 2bf8 072C0000 		.4byte	0x2c07
 7957 2bfc 2F       		.uleb128 0x2f
 7958 2bfd AB6D0000 		.4byte	0x6dab
 7959 2c01 14       		.uleb128 0x14
 7960 2c02 BD2A0000 		.4byte	0x2abd
 7961 2c06 00       		.byte	0
 7962 2c07 46       		.uleb128 0x46
 7963 2c08 42400000 		.4byte	.LASF502
 7964 2c0c 15       		.byte	0x15
 7965 2c0d 4402     		.2byte	0x244
 7966 2c0f A9580000 		.4byte	.LASF556
 7967 2c13 BD6D0000 		.4byte	0x6dbd
 7968 2c17 01       		.byte	0x1
 7969 2c18 202C0000 		.4byte	0x2c20
 7970 2c1c 302C0000 		.4byte	0x2c30
 7971 2c20 2F       		.uleb128 0x2f
 7972 2c21 AB6D0000 		.4byte	0x6dab
 7973 2c25 14       		.uleb128 0x14
 7974 2c26 C92A0000 		.4byte	0x2ac9
 7975 2c2a 14       		.uleb128 0x14
 7976 2c2b C16C0000 		.4byte	0x6cc1
 7977 2c2f 00       		.byte	0
 7978 2c30 46       		.uleb128 0x46
 7979 2c31 9B130000 		.4byte	.LASF505
 7980 2c35 15       		.byte	0x15
 7981 2c36 B301     		.2byte	0x1b3
 7982 2c38 20670000 		.4byte	.LASF557
 7983 2c3c 4F2C0000 		.4byte	0x2c4f
 7984 2c40 01       		.byte	0x1
 7985 2c41 492C0000 		.4byte	0x2c49
 7986 2c45 4F2C0000 		.4byte	0x2c4f
 7987 2c49 2F       		.uleb128 0x2f
 7988 2c4a B16D0000 		.4byte	0x6db1
 7989 2c4e 00       		.byte	0
 7990 2c4f 1B       		.uleb128 0x1b
 7991 2c50 A92A0000 		.4byte	0x2aa9
 7992 2c54 46       		.uleb128 0x46
 7993 2c55 D43C0000 		.4byte	.LASF507
 7994 2c59 15       		.byte	0x15
 7995 2c5a B701     		.2byte	0x1b7
 7996 2c5c 9D090000 		.4byte	.LASF558
 7997 2c60 4F2C0000 		.4byte	0x2c4f
 7998 2c64 01       		.byte	0x1
 7999 2c65 6D2C0000 		.4byte	0x2c6d
 8000 2c69 732C0000 		.4byte	0x2c73
 8001 2c6d 2F       		.uleb128 0x2f
ARM GAS  /tmp/ccytVDiP.s 			page 142


 8002 2c6e B16D0000 		.4byte	0x6db1
 8003 2c72 00       		.byte	0
 8004 2c73 47       		.uleb128 0x47
 8005 2c74 1B7A0000 		.4byte	.LASF509
 8006 2c78 15       		.byte	0x15
 8007 2c79 BB01     		.2byte	0x1bb
 8008 2c7b 6A3E0000 		.4byte	.LASF559
 8009 2c7f 01       		.byte	0x1
 8010 2c80 882C0000 		.4byte	0x2c88
 8011 2c84 932C0000 		.4byte	0x2c93
 8012 2c88 2F       		.uleb128 0x2f
 8013 2c89 B16D0000 		.4byte	0x6db1
 8014 2c8d 14       		.uleb128 0x14
 8015 2c8e C36D0000 		.4byte	0x6dc3
 8016 2c92 00       		.byte	0
 8017 2c93 46       		.uleb128 0x46
 8018 2c94 9B130000 		.4byte	.LASF505
 8019 2c98 15       		.byte	0x15
 8020 2c99 BF01     		.2byte	0x1bf
 8021 2c9b 260B0000 		.4byte	.LASF560
 8022 2c9f B22C0000 		.4byte	0x2cb2
 8023 2ca3 01       		.byte	0x1
 8024 2ca4 AC2C0000 		.4byte	0x2cac
 8025 2ca8 B22C0000 		.4byte	0x2cb2
 8026 2cac 2F       		.uleb128 0x2f
 8027 2cad AB6D0000 		.4byte	0x6dab
 8028 2cb1 00       		.byte	0
 8029 2cb2 1B       		.uleb128 0x1b
 8030 2cb3 AE2A0000 		.4byte	0x2aae
 8031 2cb7 46       		.uleb128 0x46
 8032 2cb8 D43C0000 		.4byte	.LASF507
 8033 2cbc 15       		.byte	0x15
 8034 2cbd C301     		.2byte	0x1c3
 8035 2cbf E4250000 		.4byte	.LASF561
 8036 2cc3 B22C0000 		.4byte	0x2cb2
 8037 2cc7 01       		.byte	0x1
 8038 2cc8 D02C0000 		.4byte	0x2cd0
 8039 2ccc D62C0000 		.4byte	0x2cd6
 8040 2cd0 2F       		.uleb128 0x2f
 8041 2cd1 AB6D0000 		.4byte	0x6dab
 8042 2cd5 00       		.byte	0
 8043 2cd6 47       		.uleb128 0x47
 8044 2cd7 1B7A0000 		.4byte	.LASF509
 8045 2cdb 15       		.byte	0x15
 8046 2cdc C701     		.2byte	0x1c7
 8047 2cde DF590000 		.4byte	.LASF562
 8048 2ce2 01       		.byte	0x1
 8049 2ce3 EB2C0000 		.4byte	0x2ceb
 8050 2ce7 F62C0000 		.4byte	0x2cf6
 8051 2ceb 2F       		.uleb128 0x2f
 8052 2cec AB6D0000 		.4byte	0x6dab
 8053 2cf0 14       		.uleb128 0x14
 8054 2cf1 C96D0000 		.4byte	0x6dc9
 8055 2cf5 00       		.byte	0
 8056 2cf6 46       		.uleb128 0x46
 8057 2cf7 826D0000 		.4byte	.LASF514
 8058 2cfb 15       		.byte	0x15
ARM GAS  /tmp/ccytVDiP.s 			page 143


 8059 2cfc 5302     		.2byte	0x253
 8060 2cfe 8A2D0000 		.4byte	.LASF563
 8061 2d02 A56D0000 		.4byte	0x6da5
 8062 2d06 01       		.byte	0x1
 8063 2d07 0F2D0000 		.4byte	0x2d0f
 8064 2d0b 152D0000 		.4byte	0x2d15
 8065 2d0f 2F       		.uleb128 0x2f
 8066 2d10 AB6D0000 		.4byte	0x6dab
 8067 2d14 00       		.byte	0
 8068 2d15 46       		.uleb128 0x46
 8069 2d16 3C710000 		.4byte	.LASF516
 8070 2d1a 15       		.byte	0x15
 8071 2d1b 5D02     		.2byte	0x25d
 8072 2d1d 12560000 		.4byte	.LASF564
 8073 2d21 700C0000 		.4byte	0xc70
 8074 2d25 01       		.byte	0x1
 8075 2d26 2E2D0000 		.4byte	0x2d2e
 8076 2d2a 342D0000 		.4byte	0x2d34
 8077 2d2e 2F       		.uleb128 0x2f
 8078 2d2f AB6D0000 		.4byte	0x6dab
 8079 2d33 00       		.byte	0
 8080 2d34 46       		.uleb128 0x46
 8081 2d35 C3400000 		.4byte	.LASF518
 8082 2d39 15       		.byte	0x15
 8083 2d3a 6702     		.2byte	0x267
 8084 2d3c 71660000 		.4byte	.LASF565
 8085 2d40 AD000000 		.4byte	0xad
 8086 2d44 01       		.byte	0x1
 8087 2d45 4D2D0000 		.4byte	0x2d4d
 8088 2d49 532D0000 		.4byte	0x2d53
 8089 2d4d 2F       		.uleb128 0x2f
 8090 2d4e AB6D0000 		.4byte	0x6dab
 8091 2d52 00       		.byte	0
 8092 2d53 47       		.uleb128 0x47
 8093 2d54 2C260000 		.4byte	.LASF520
 8094 2d58 15       		.byte	0x15
 8095 2d59 7602     		.2byte	0x276
 8096 2d5b 2A350000 		.4byte	.LASF566
 8097 2d5f 01       		.byte	0x1
 8098 2d60 682D0000 		.4byte	0x2d68
 8099 2d64 732D0000 		.4byte	0x2d73
 8100 2d68 2F       		.uleb128 0x2f
 8101 2d69 B16D0000 		.4byte	0x6db1
 8102 2d6d 14       		.uleb128 0x14
 8103 2d6e B76D0000 		.4byte	0x6db7
 8104 2d72 00       		.byte	0
 8105 2d73 46       		.uleb128 0x46
 8106 2d74 83190000 		.4byte	.LASF522
 8107 2d78 15       		.byte	0x15
 8108 2d79 8002     		.2byte	0x280
 8109 2d7b 60330000 		.4byte	.LASF567
 8110 2d7f 700C0000 		.4byte	0xc70
 8111 2d83 01       		.byte	0x1
 8112 2d84 8C2D0000 		.4byte	0x2d8c
 8113 2d88 972D0000 		.4byte	0x2d97
 8114 2d8c 2F       		.uleb128 0x2f
 8115 2d8d B16D0000 		.4byte	0x6db1
ARM GAS  /tmp/ccytVDiP.s 			page 144


 8116 2d91 14       		.uleb128 0x14
 8117 2d92 B76D0000 		.4byte	0x6db7
 8118 2d96 00       		.byte	0
 8119 2d97 46       		.uleb128 0x46
 8120 2d98 55460000 		.4byte	.LASF524
 8121 2d9c 15       		.byte	0x15
 8122 2d9d 8A02     		.2byte	0x28a
 8123 2d9f A6660000 		.4byte	.LASF568
 8124 2da3 94000000 		.4byte	0x94
 8125 2da7 01       		.byte	0x1
 8126 2da8 B02D0000 		.4byte	0x2db0
 8127 2dac BB2D0000 		.4byte	0x2dbb
 8128 2db0 2F       		.uleb128 0x2f
 8129 2db1 AB6D0000 		.4byte	0x6dab
 8130 2db5 14       		.uleb128 0x14
 8131 2db6 856D0000 		.4byte	0x6d85
 8132 2dba 00       		.byte	0
 8133 2dbb 46       		.uleb128 0x46
 8134 2dbc 972E0000 		.4byte	.LASF526
 8135 2dc0 15       		.byte	0x15
 8136 2dc1 9B02     		.2byte	0x29b
 8137 2dc3 00710000 		.4byte	.LASF569
 8138 2dc7 700C0000 		.4byte	0xc70
 8139 2dcb 01       		.byte	0x1
 8140 2dcc D42D0000 		.4byte	0x2dd4
 8141 2dd0 DF2D0000 		.4byte	0x2ddf
 8142 2dd4 2F       		.uleb128 0x2f
 8143 2dd5 AB6D0000 		.4byte	0x6dab
 8144 2dd9 14       		.uleb128 0x14
 8145 2dda 856D0000 		.4byte	0x6d85
 8146 2dde 00       		.byte	0
 8147 2ddf 46       		.uleb128 0x46
 8148 2de0 3F4A0000 		.4byte	.LASF528
 8149 2de4 15       		.byte	0x15
 8150 2de5 AC02     		.2byte	0x2ac
 8151 2de7 BA6C0000 		.4byte	.LASF570
 8152 2deb BD6D0000 		.4byte	0x6dbd
 8153 2def 01       		.byte	0x1
 8154 2df0 F82D0000 		.4byte	0x2df8
 8155 2df4 032E0000 		.4byte	0x2e03
 8156 2df8 2F       		.uleb128 0x2f
 8157 2df9 AB6D0000 		.4byte	0x6dab
 8158 2dfd 14       		.uleb128 0x14
 8159 2dfe BD2A0000 		.4byte	0x2abd
 8160 2e02 00       		.byte	0
 8161 2e03 46       		.uleb128 0x46
 8162 2e04 3F4A0000 		.4byte	.LASF528
 8163 2e08 15       		.byte	0x15
 8164 2e09 BC02     		.2byte	0x2bc
 8165 2e0b 085C0000 		.4byte	.LASF571
 8166 2e0f BD6D0000 		.4byte	0x6dbd
 8167 2e13 01       		.byte	0x1
 8168 2e14 1C2E0000 		.4byte	0x2e1c
 8169 2e18 2C2E0000 		.4byte	0x2e2c
 8170 2e1c 2F       		.uleb128 0x2f
 8171 2e1d AB6D0000 		.4byte	0x6dab
 8172 2e21 14       		.uleb128 0x14
ARM GAS  /tmp/ccytVDiP.s 			page 145


 8173 2e22 C92A0000 		.4byte	0x2ac9
 8174 2e26 14       		.uleb128 0x14
 8175 2e27 C16C0000 		.4byte	0x6cc1
 8176 2e2b 00       		.byte	0
 8177 2e2c 46       		.uleb128 0x46
 8178 2e2d 10790000 		.4byte	.LASF531
 8179 2e31 15       		.byte	0x15
 8180 2e32 E001     		.2byte	0x1e0
 8181 2e34 D71A0000 		.4byte	.LASF572
 8182 2e38 4B2E0000 		.4byte	0x2e4b
 8183 2e3c 01       		.byte	0x1
 8184 2e3d 452E0000 		.4byte	0x2e45
 8185 2e41 4B2E0000 		.4byte	0x2e4b
 8186 2e45 2F       		.uleb128 0x2f
 8187 2e46 B16D0000 		.4byte	0x6db1
 8188 2e4a 00       		.byte	0
 8189 2e4b 1B       		.uleb128 0x1b
 8190 2e4c B32A0000 		.4byte	0x2ab3
 8191 2e50 48       		.uleb128 0x48
 8192 2e51 656E6400 		.ascii	"end\000"
 8193 2e55 15       		.byte	0x15
 8194 2e56 E401     		.2byte	0x1e4
 8195 2e58 7F1B0000 		.4byte	.LASF573
 8196 2e5c 4B2E0000 		.4byte	0x2e4b
 8197 2e60 01       		.byte	0x1
 8198 2e61 692E0000 		.4byte	0x2e69
 8199 2e65 6F2E0000 		.4byte	0x2e6f
 8200 2e69 2F       		.uleb128 0x2f
 8201 2e6a B16D0000 		.4byte	0x6db1
 8202 2e6e 00       		.byte	0
 8203 2e6f 47       		.uleb128 0x47
 8204 2e70 10170000 		.4byte	.LASF533
 8205 2e74 15       		.byte	0x15
 8206 2e75 E801     		.2byte	0x1e8
 8207 2e77 C41E0000 		.4byte	.LASF574
 8208 2e7b 01       		.byte	0x1
 8209 2e7c 842E0000 		.4byte	0x2e84
 8210 2e80 8F2E0000 		.4byte	0x2e8f
 8211 2e84 2F       		.uleb128 0x2f
 8212 2e85 B16D0000 		.4byte	0x6db1
 8213 2e89 14       		.uleb128 0x14
 8214 2e8a CF6D0000 		.4byte	0x6dcf
 8215 2e8e 00       		.byte	0
 8216 2e8f 46       		.uleb128 0x46
 8217 2e90 10790000 		.4byte	.LASF531
 8218 2e94 15       		.byte	0x15
 8219 2e95 EC01     		.2byte	0x1ec
 8220 2e97 994D0000 		.4byte	.LASF575
 8221 2e9b AE2E0000 		.4byte	0x2eae
 8222 2e9f 01       		.byte	0x1
 8223 2ea0 A82E0000 		.4byte	0x2ea8
 8224 2ea4 AE2E0000 		.4byte	0x2eae
 8225 2ea8 2F       		.uleb128 0x2f
 8226 2ea9 AB6D0000 		.4byte	0x6dab
 8227 2ead 00       		.byte	0
 8228 2eae 1B       		.uleb128 0x1b
 8229 2eaf B82A0000 		.4byte	0x2ab8
ARM GAS  /tmp/ccytVDiP.s 			page 146


 8230 2eb3 48       		.uleb128 0x48
 8231 2eb4 656E6400 		.ascii	"end\000"
 8232 2eb8 15       		.byte	0x15
 8233 2eb9 F201     		.2byte	0x1f2
 8234 2ebb 52450000 		.4byte	.LASF576
 8235 2ebf AE2E0000 		.4byte	0x2eae
 8236 2ec3 01       		.byte	0x1
 8237 2ec4 CC2E0000 		.4byte	0x2ecc
 8238 2ec8 D22E0000 		.4byte	0x2ed2
 8239 2ecc 2F       		.uleb128 0x2f
 8240 2ecd AB6D0000 		.4byte	0x6dab
 8241 2ed1 00       		.byte	0
 8242 2ed2 47       		.uleb128 0x47
 8243 2ed3 10170000 		.4byte	.LASF533
 8244 2ed7 15       		.byte	0x15
 8245 2ed8 F601     		.2byte	0x1f6
 8246 2eda 933B0000 		.4byte	.LASF577
 8247 2ede 01       		.byte	0x1
 8248 2edf E72E0000 		.4byte	0x2ee7
 8249 2ee3 F22E0000 		.4byte	0x2ef2
 8250 2ee7 2F       		.uleb128 0x2f
 8251 2ee8 AB6D0000 		.4byte	0x6dab
 8252 2eec 14       		.uleb128 0x14
 8253 2eed D56D0000 		.4byte	0x6dd5
 8254 2ef1 00       		.byte	0
 8255 2ef2 49       		.uleb128 0x49
 8256 2ef3 19140000 		.4byte	.LASF539
 8257 2ef7 15       		.byte	0x15
 8258 2ef8 FA01     		.2byte	0x1fa
 8259 2efa B16D0000 		.4byte	0x6db1
 8260 2efe 01       		.byte	0x1
 8261 2eff 072F0000 		.4byte	0x2f07
 8262 2f03 0D2F0000 		.4byte	0x2f0d
 8263 2f07 2F       		.uleb128 0x2f
 8264 2f08 B16D0000 		.4byte	0x6db1
 8265 2f0c 00       		.byte	0
 8266 2f0d 4A       		.uleb128 0x4a
 8267 2f0e 6B4C0000 		.4byte	.LASF540
 8268 2f12 B8000000 		.4byte	0xb8
 8269 2f16 01       		.byte	0x1
 8270 2f17 1F2F0000 		.4byte	0x2f1f
 8271 2f1b 2A2F0000 		.4byte	0x2f2a
 8272 2f1f 2F       		.uleb128 0x2f
 8273 2f20 B16D0000 		.4byte	0x6db1
 8274 2f24 2F       		.uleb128 0x2f
 8275 2f25 94000000 		.4byte	0x94
 8276 2f29 00       		.byte	0
 8277 2f2a 4B       		.uleb128 0x4b
 8278 2f2b D7130000 		.4byte	.LASF541
 8279 2f2f 392F0000 		.4byte	0x2f39
 8280 2f33 00       		.byte	0
 8281 2f34 1B       		.uleb128 0x1b
 8282 2f35 392F0000 		.4byte	0x2f39
 8283 2f39 42       		.uleb128 0x42
 8284 2f3a 93630000 		.4byte	.LASF578
 8285 2f3e 1B       		.uleb128 0x1b
 8286 2f3f 4A2A0000 		.4byte	0x2a4a
ARM GAS  /tmp/ccytVDiP.s 			page 147


 8287 2f43 2D       		.uleb128 0x2d
 8288 2f44 C4650000 		.4byte	.LASF579
 8289 2f48 04       		.byte	0x4
 8290 2f49 15       		.byte	0x15
 8291 2f4a 0F       		.byte	0xf
 8292 2f4b 2D340000 		.4byte	0x342d
 8293 2f4f 32       		.uleb128 0x32
 8294 2f50 C31D0000 		.4byte	0x1dc3
 8295 2f54 00       		.byte	0
 8296 2f55 3F       		.uleb128 0x3f
 8297 2f56 026D0000 		.4byte	.LASF463
 8298 2f5a 08       		.byte	0x8
 8299 2f5b 15       		.byte	0x15
 8300 2f5c 11       		.byte	0x11
 8301 2f5d 01       		.byte	0x1
 8302 2f5e 952F0000 		.4byte	0x2f95
 8303 2f62 0A       		.uleb128 0xa
 8304 2f63 21390000 		.4byte	.LASF461
 8305 2f67 15       		.byte	0x15
 8306 2f68 12       		.byte	0x12
 8307 2f69 DB6D0000 		.4byte	0x6ddb
 8308 2f6d 00       		.byte	0
 8309 2f6e 0A       		.uleb128 0xa
 8310 2f6f 54200000 		.4byte	.LASF462
 8311 2f73 15       		.byte	0x15
 8312 2f74 13       		.byte	0x13
 8313 2f75 4C6E0000 		.4byte	0x6e4c
 8314 2f79 04       		.byte	0x4
 8315 2f7a 40       		.uleb128 0x40
 8316 2f7b 026D0000 		.4byte	.LASF463
 8317 2f7f 15       		.byte	0x15
 8318 2f80 15       		.byte	0x15
 8319 2f81 DB6D0000 		.4byte	0x6ddb
 8320 2f85 892F0000 		.4byte	0x2f89
 8321 2f89 2F       		.uleb128 0x2f
 8322 2f8a DB6D0000 		.4byte	0x6ddb
 8323 2f8e 14       		.uleb128 0x14
 8324 2f8f 516E0000 		.4byte	0x6e51
 8325 2f93 00       		.byte	0
 8326 2f94 00       		.byte	0
 8327 2f95 18       		.uleb128 0x18
 8328 2f96 F7180000 		.4byte	.LASF464
 8329 2f9a 15       		.byte	0x15
 8330 2f9b 8A01     		.2byte	0x18a
 8331 2f9d DB6D0000 		.4byte	0x6ddb
 8332 2fa1 00       		.byte	0
 8333 2fa2 42       		.uleb128 0x42
 8334 2fa3 1F270000 		.4byte	.LASF465
 8335 2fa7 42       		.uleb128 0x42
 8336 2fa8 D83A0000 		.4byte	.LASF466
 8337 2fac 42       		.uleb128 0x42
 8338 2fad 09650000 		.4byte	.LASF467
 8339 2fb1 42       		.uleb128 0x42
 8340 2fb2 804B0000 		.4byte	.LASF469
 8341 2fb6 06       		.uleb128 0x6
 8342 2fb7 5A200000 		.4byte	.LASF484
 8343 2fbb 15       		.byte	0x15
ARM GAS  /tmp/ccytVDiP.s 			page 148


 8344 2fbc 8601     		.2byte	0x186
 8345 2fbe E16D0000 		.4byte	0x6de1
 8346 2fc2 06       		.uleb128 0x6
 8347 2fc3 14180000 		.4byte	.LASF485
 8348 2fc7 15       		.byte	0x15
 8349 2fc8 8701     		.2byte	0x187
 8350 2fca FC6D0000 		.4byte	0x6dfc
 8351 2fce 46       		.uleb128 0x46
 8352 2fcf B4790000 		.4byte	.LASF486
 8353 2fd3 15       		.byte	0x15
 8354 2fd4 8D01     		.2byte	0x18d
 8355 2fd6 E93F0000 		.4byte	.LASF580
 8356 2fda 166E0000 		.4byte	0x6e16
 8357 2fde 01       		.byte	0x1
 8358 2fdf E72F0000 		.4byte	0x2fe7
 8359 2fe3 ED2F0000 		.4byte	0x2fed
 8360 2fe7 2F       		.uleb128 0x2f
 8361 2fe8 1C6E0000 		.4byte	0x6e1c
 8362 2fec 00       		.byte	0
 8363 2fed 1B       		.uleb128 0x1b
 8364 2fee 552F0000 		.4byte	0x2f55
 8365 2ff2 46       		.uleb128 0x46
 8366 2ff3 BC730000 		.4byte	.LASF487
 8367 2ff7 15       		.byte	0x15
 8368 2ff8 9101     		.2byte	0x191
 8369 2ffa 0D3A0000 		.4byte	.LASF581
 8370 2ffe 700C0000 		.4byte	0xc70
 8371 3002 01       		.byte	0x1
 8372 3003 0B300000 		.4byte	0x300b
 8373 3007 11300000 		.4byte	0x3011
 8374 300b 2F       		.uleb128 0x2f
 8375 300c 1C6E0000 		.4byte	0x6e1c
 8376 3010 00       		.byte	0
 8377 3011 46       		.uleb128 0x46
 8378 3012 1F260000 		.4byte	.LASF490
 8379 3016 15       		.byte	0x15
 8380 3017 0302     		.2byte	0x203
 8381 3019 33160000 		.4byte	.LASF582
 8382 301d AD000000 		.4byte	0xad
 8383 3021 01       		.byte	0x1
 8384 3022 2A300000 		.4byte	0x302a
 8385 3026 30300000 		.4byte	0x3030
 8386 302a 2F       		.uleb128 0x2f
 8387 302b 1C6E0000 		.4byte	0x6e1c
 8388 302f 00       		.byte	0
 8389 3030 47       		.uleb128 0x47
 8390 3031 8E580000 		.4byte	.LASF492
 8391 3035 15       		.byte	0x15
 8392 3036 9701     		.2byte	0x197
 8393 3038 435E0000 		.4byte	.LASF583
 8394 303c 01       		.byte	0x1
 8395 303d 45300000 		.4byte	0x3045
 8396 3041 50300000 		.4byte	0x3050
 8397 3045 2F       		.uleb128 0x2f
 8398 3046 226E0000 		.4byte	0x6e22
 8399 304a 14       		.uleb128 0x14
 8400 304b 286E0000 		.4byte	0x6e28
ARM GAS  /tmp/ccytVDiP.s 			page 149


 8401 304f 00       		.byte	0
 8402 3050 47       		.uleb128 0x47
 8403 3051 DB630000 		.4byte	.LASF493
 8404 3055 15       		.byte	0x15
 8405 3056 9F01     		.2byte	0x19f
 8406 3058 69360000 		.4byte	.LASF584
 8407 305c 01       		.byte	0x1
 8408 305d 65300000 		.4byte	0x3065
 8409 3061 70300000 		.4byte	0x3070
 8410 3065 2F       		.uleb128 0x2f
 8411 3066 226E0000 		.4byte	0x6e22
 8412 306a 14       		.uleb128 0x14
 8413 306b 286E0000 		.4byte	0x6e28
 8414 306f 00       		.byte	0
 8415 3070 46       		.uleb128 0x46
 8416 3071 B8330000 		.4byte	.LASF496
 8417 3075 15       		.byte	0x15
 8418 3076 0E02     		.2byte	0x20e
 8419 3078 BC280000 		.4byte	.LASF585
 8420 307c 700C0000 		.4byte	0xc70
 8421 3080 01       		.byte	0x1
 8422 3081 89300000 		.4byte	0x3089
 8423 3085 94300000 		.4byte	0x3094
 8424 3089 2F       		.uleb128 0x2f
 8425 308a 226E0000 		.4byte	0x6e22
 8426 308e 14       		.uleb128 0x14
 8427 308f 286E0000 		.4byte	0x6e28
 8428 3093 00       		.byte	0
 8429 3094 46       		.uleb128 0x46
 8430 3095 2D440000 		.4byte	.LASF498
 8431 3099 15       		.byte	0x15
 8432 309a 1F02     		.2byte	0x21f
 8433 309c 31640000 		.4byte	.LASF586
 8434 30a0 94000000 		.4byte	0x94
 8435 30a4 01       		.byte	0x1
 8436 30a5 AD300000 		.4byte	0x30ad
 8437 30a9 B8300000 		.4byte	0x30b8
 8438 30ad 2F       		.uleb128 0x2f
 8439 30ae 1C6E0000 		.4byte	0x6e1c
 8440 30b2 14       		.uleb128 0x14
 8441 30b3 F66D0000 		.4byte	0x6df6
 8442 30b7 00       		.byte	0
 8443 30b8 46       		.uleb128 0x46
 8444 30b9 1B5F0000 		.4byte	.LASF500
 8445 30bd 15       		.byte	0x15
 8446 30be 2C02     		.2byte	0x22c
 8447 30c0 6E670000 		.4byte	.LASF587
 8448 30c4 700C0000 		.4byte	0xc70
 8449 30c8 01       		.byte	0x1
 8450 30c9 D1300000 		.4byte	0x30d1
 8451 30cd DC300000 		.4byte	0x30dc
 8452 30d1 2F       		.uleb128 0x2f
 8453 30d2 1C6E0000 		.4byte	0x6e1c
 8454 30d6 14       		.uleb128 0x14
 8455 30d7 F66D0000 		.4byte	0x6df6
 8456 30db 00       		.byte	0
 8457 30dc 46       		.uleb128 0x46
ARM GAS  /tmp/ccytVDiP.s 			page 150


 8458 30dd 42400000 		.4byte	.LASF502
 8459 30e1 15       		.byte	0x15
 8460 30e2 3802     		.2byte	0x238
 8461 30e4 DC430000 		.4byte	.LASF588
 8462 30e8 2E6E0000 		.4byte	0x6e2e
 8463 30ec 01       		.byte	0x1
 8464 30ed F5300000 		.4byte	0x30f5
 8465 30f1 00310000 		.4byte	0x3100
 8466 30f5 2F       		.uleb128 0x2f
 8467 30f6 1C6E0000 		.4byte	0x6e1c
 8468 30fa 14       		.uleb128 0x14
 8469 30fb B62F0000 		.4byte	0x2fb6
 8470 30ff 00       		.byte	0
 8471 3100 46       		.uleb128 0x46
 8472 3101 42400000 		.4byte	.LASF502
 8473 3105 15       		.byte	0x15
 8474 3106 4402     		.2byte	0x244
 8475 3108 90350000 		.4byte	.LASF589
 8476 310c 2E6E0000 		.4byte	0x6e2e
 8477 3110 01       		.byte	0x1
 8478 3111 19310000 		.4byte	0x3119
 8479 3115 29310000 		.4byte	0x3129
 8480 3119 2F       		.uleb128 0x2f
 8481 311a 1C6E0000 		.4byte	0x6e1c
 8482 311e 14       		.uleb128 0x14
 8483 311f C22F0000 		.4byte	0x2fc2
 8484 3123 14       		.uleb128 0x14
 8485 3124 C16C0000 		.4byte	0x6cc1
 8486 3128 00       		.byte	0
 8487 3129 46       		.uleb128 0x46
 8488 312a 9B130000 		.4byte	.LASF505
 8489 312e 15       		.byte	0x15
 8490 312f B301     		.2byte	0x1b3
 8491 3131 9E040000 		.4byte	.LASF590
 8492 3135 48310000 		.4byte	0x3148
 8493 3139 01       		.byte	0x1
 8494 313a 42310000 		.4byte	0x3142
 8495 313e 48310000 		.4byte	0x3148
 8496 3142 2F       		.uleb128 0x2f
 8497 3143 226E0000 		.4byte	0x6e22
 8498 3147 00       		.byte	0
 8499 3148 1B       		.uleb128 0x1b
 8500 3149 A22F0000 		.4byte	0x2fa2
 8501 314d 46       		.uleb128 0x46
 8502 314e D43C0000 		.4byte	.LASF507
 8503 3152 15       		.byte	0x15
 8504 3153 B701     		.2byte	0x1b7
 8505 3155 F8350000 		.4byte	.LASF591
 8506 3159 48310000 		.4byte	0x3148
 8507 315d 01       		.byte	0x1
 8508 315e 66310000 		.4byte	0x3166
 8509 3162 6C310000 		.4byte	0x316c
 8510 3166 2F       		.uleb128 0x2f
 8511 3167 226E0000 		.4byte	0x6e22
 8512 316b 00       		.byte	0
 8513 316c 47       		.uleb128 0x47
 8514 316d 1B7A0000 		.4byte	.LASF509
ARM GAS  /tmp/ccytVDiP.s 			page 151


 8515 3171 15       		.byte	0x15
 8516 3172 BB01     		.2byte	0x1bb
 8517 3174 141A0000 		.4byte	.LASF592
 8518 3178 01       		.byte	0x1
 8519 3179 81310000 		.4byte	0x3181
 8520 317d 8C310000 		.4byte	0x318c
 8521 3181 2F       		.uleb128 0x2f
 8522 3182 226E0000 		.4byte	0x6e22
 8523 3186 14       		.uleb128 0x14
 8524 3187 346E0000 		.4byte	0x6e34
 8525 318b 00       		.byte	0
 8526 318c 46       		.uleb128 0x46
 8527 318d 9B130000 		.4byte	.LASF505
 8528 3191 15       		.byte	0x15
 8529 3192 BF01     		.2byte	0x1bf
 8530 3194 CC1F0000 		.4byte	.LASF593
 8531 3198 AB310000 		.4byte	0x31ab
 8532 319c 01       		.byte	0x1
 8533 319d A5310000 		.4byte	0x31a5
 8534 31a1 AB310000 		.4byte	0x31ab
 8535 31a5 2F       		.uleb128 0x2f
 8536 31a6 1C6E0000 		.4byte	0x6e1c
 8537 31aa 00       		.byte	0
 8538 31ab 1B       		.uleb128 0x1b
 8539 31ac A72F0000 		.4byte	0x2fa7
 8540 31b0 46       		.uleb128 0x46
 8541 31b1 D43C0000 		.4byte	.LASF507
 8542 31b5 15       		.byte	0x15
 8543 31b6 C301     		.2byte	0x1c3
 8544 31b8 9E5F0000 		.4byte	.LASF594
 8545 31bc AB310000 		.4byte	0x31ab
 8546 31c0 01       		.byte	0x1
 8547 31c1 C9310000 		.4byte	0x31c9
 8548 31c5 CF310000 		.4byte	0x31cf
 8549 31c9 2F       		.uleb128 0x2f
 8550 31ca 1C6E0000 		.4byte	0x6e1c
 8551 31ce 00       		.byte	0
 8552 31cf 47       		.uleb128 0x47
 8553 31d0 1B7A0000 		.4byte	.LASF509
 8554 31d4 15       		.byte	0x15
 8555 31d5 C701     		.2byte	0x1c7
 8556 31d7 5D6E0000 		.4byte	.LASF595
 8557 31db 01       		.byte	0x1
 8558 31dc E4310000 		.4byte	0x31e4
 8559 31e0 EF310000 		.4byte	0x31ef
 8560 31e4 2F       		.uleb128 0x2f
 8561 31e5 1C6E0000 		.4byte	0x6e1c
 8562 31e9 14       		.uleb128 0x14
 8563 31ea 3A6E0000 		.4byte	0x6e3a
 8564 31ee 00       		.byte	0
 8565 31ef 46       		.uleb128 0x46
 8566 31f0 826D0000 		.4byte	.LASF514
 8567 31f4 15       		.byte	0x15
 8568 31f5 5302     		.2byte	0x253
 8569 31f7 88780000 		.4byte	.LASF596
 8570 31fb 166E0000 		.4byte	0x6e16
 8571 31ff 01       		.byte	0x1
ARM GAS  /tmp/ccytVDiP.s 			page 152


 8572 3200 08320000 		.4byte	0x3208
 8573 3204 0E320000 		.4byte	0x320e
 8574 3208 2F       		.uleb128 0x2f
 8575 3209 1C6E0000 		.4byte	0x6e1c
 8576 320d 00       		.byte	0
 8577 320e 46       		.uleb128 0x46
 8578 320f 3C710000 		.4byte	.LASF516
 8579 3213 15       		.byte	0x15
 8580 3214 5D02     		.2byte	0x25d
 8581 3216 29040000 		.4byte	.LASF597
 8582 321a 700C0000 		.4byte	0xc70
 8583 321e 01       		.byte	0x1
 8584 321f 27320000 		.4byte	0x3227
 8585 3223 2D320000 		.4byte	0x322d
 8586 3227 2F       		.uleb128 0x2f
 8587 3228 1C6E0000 		.4byte	0x6e1c
 8588 322c 00       		.byte	0
 8589 322d 46       		.uleb128 0x46
 8590 322e C3400000 		.4byte	.LASF518
 8591 3232 15       		.byte	0x15
 8592 3233 6702     		.2byte	0x267
 8593 3235 3E000000 		.4byte	.LASF598
 8594 3239 AD000000 		.4byte	0xad
 8595 323d 01       		.byte	0x1
 8596 323e 46320000 		.4byte	0x3246
 8597 3242 4C320000 		.4byte	0x324c
 8598 3246 2F       		.uleb128 0x2f
 8599 3247 1C6E0000 		.4byte	0x6e1c
 8600 324b 00       		.byte	0
 8601 324c 47       		.uleb128 0x47
 8602 324d 2C260000 		.4byte	.LASF520
 8603 3251 15       		.byte	0x15
 8604 3252 7602     		.2byte	0x276
 8605 3254 D5270000 		.4byte	.LASF599
 8606 3258 01       		.byte	0x1
 8607 3259 61320000 		.4byte	0x3261
 8608 325d 6C320000 		.4byte	0x326c
 8609 3261 2F       		.uleb128 0x2f
 8610 3262 226E0000 		.4byte	0x6e22
 8611 3266 14       		.uleb128 0x14
 8612 3267 286E0000 		.4byte	0x6e28
 8613 326b 00       		.byte	0
 8614 326c 46       		.uleb128 0x46
 8615 326d 83190000 		.4byte	.LASF522
 8616 3271 15       		.byte	0x15
 8617 3272 8002     		.2byte	0x280
 8618 3274 44230000 		.4byte	.LASF600
 8619 3278 700C0000 		.4byte	0xc70
 8620 327c 01       		.byte	0x1
 8621 327d 85320000 		.4byte	0x3285
 8622 3281 90320000 		.4byte	0x3290
 8623 3285 2F       		.uleb128 0x2f
 8624 3286 226E0000 		.4byte	0x6e22
 8625 328a 14       		.uleb128 0x14
 8626 328b 286E0000 		.4byte	0x6e28
 8627 328f 00       		.byte	0
 8628 3290 46       		.uleb128 0x46
ARM GAS  /tmp/ccytVDiP.s 			page 153


 8629 3291 55460000 		.4byte	.LASF524
 8630 3295 15       		.byte	0x15
 8631 3296 8A02     		.2byte	0x28a
 8632 3298 6E070000 		.4byte	.LASF601
 8633 329c 94000000 		.4byte	0x94
 8634 32a0 01       		.byte	0x1
 8635 32a1 A9320000 		.4byte	0x32a9
 8636 32a5 B4320000 		.4byte	0x32b4
 8637 32a9 2F       		.uleb128 0x2f
 8638 32aa 1C6E0000 		.4byte	0x6e1c
 8639 32ae 14       		.uleb128 0x14
 8640 32af F66D0000 		.4byte	0x6df6
 8641 32b3 00       		.byte	0
 8642 32b4 46       		.uleb128 0x46
 8643 32b5 972E0000 		.4byte	.LASF526
 8644 32b9 15       		.byte	0x15
 8645 32ba 9B02     		.2byte	0x29b
 8646 32bc 0C110000 		.4byte	.LASF602
 8647 32c0 700C0000 		.4byte	0xc70
 8648 32c4 01       		.byte	0x1
 8649 32c5 CD320000 		.4byte	0x32cd
 8650 32c9 D8320000 		.4byte	0x32d8
 8651 32cd 2F       		.uleb128 0x2f
 8652 32ce 1C6E0000 		.4byte	0x6e1c
 8653 32d2 14       		.uleb128 0x14
 8654 32d3 F66D0000 		.4byte	0x6df6
 8655 32d7 00       		.byte	0
 8656 32d8 46       		.uleb128 0x46
 8657 32d9 3F4A0000 		.4byte	.LASF528
 8658 32dd 15       		.byte	0x15
 8659 32de AC02     		.2byte	0x2ac
 8660 32e0 60390000 		.4byte	.LASF603
 8661 32e4 2E6E0000 		.4byte	0x6e2e
 8662 32e8 01       		.byte	0x1
 8663 32e9 F1320000 		.4byte	0x32f1
 8664 32ed FC320000 		.4byte	0x32fc
 8665 32f1 2F       		.uleb128 0x2f
 8666 32f2 1C6E0000 		.4byte	0x6e1c
 8667 32f6 14       		.uleb128 0x14
 8668 32f7 B62F0000 		.4byte	0x2fb6
 8669 32fb 00       		.byte	0
 8670 32fc 46       		.uleb128 0x46
 8671 32fd 3F4A0000 		.4byte	.LASF528
 8672 3301 15       		.byte	0x15
 8673 3302 BC02     		.2byte	0x2bc
 8674 3304 45710000 		.4byte	.LASF604
 8675 3308 2E6E0000 		.4byte	0x6e2e
 8676 330c 01       		.byte	0x1
 8677 330d 15330000 		.4byte	0x3315
 8678 3311 25330000 		.4byte	0x3325
 8679 3315 2F       		.uleb128 0x2f
 8680 3316 1C6E0000 		.4byte	0x6e1c
 8681 331a 14       		.uleb128 0x14
 8682 331b C22F0000 		.4byte	0x2fc2
 8683 331f 14       		.uleb128 0x14
 8684 3320 C16C0000 		.4byte	0x6cc1
 8685 3324 00       		.byte	0
ARM GAS  /tmp/ccytVDiP.s 			page 154


 8686 3325 46       		.uleb128 0x46
 8687 3326 10790000 		.4byte	.LASF531
 8688 332a 15       		.byte	0x15
 8689 332b E001     		.2byte	0x1e0
 8690 332d 68420000 		.4byte	.LASF605
 8691 3331 44330000 		.4byte	0x3344
 8692 3335 01       		.byte	0x1
 8693 3336 3E330000 		.4byte	0x333e
 8694 333a 44330000 		.4byte	0x3344
 8695 333e 2F       		.uleb128 0x2f
 8696 333f 226E0000 		.4byte	0x6e22
 8697 3343 00       		.byte	0
 8698 3344 1B       		.uleb128 0x1b
 8699 3345 AC2F0000 		.4byte	0x2fac
 8700 3349 48       		.uleb128 0x48
 8701 334a 656E6400 		.ascii	"end\000"
 8702 334e 15       		.byte	0x15
 8703 334f E401     		.2byte	0x1e4
 8704 3351 442D0000 		.4byte	.LASF606
 8705 3355 44330000 		.4byte	0x3344
 8706 3359 01       		.byte	0x1
 8707 335a 62330000 		.4byte	0x3362
 8708 335e 68330000 		.4byte	0x3368
 8709 3362 2F       		.uleb128 0x2f
 8710 3363 226E0000 		.4byte	0x6e22
 8711 3367 00       		.byte	0
 8712 3368 47       		.uleb128 0x47
 8713 3369 10170000 		.4byte	.LASF533
 8714 336d 15       		.byte	0x15
 8715 336e E801     		.2byte	0x1e8
 8716 3370 9B0E0000 		.4byte	.LASF607
 8717 3374 01       		.byte	0x1
 8718 3375 7D330000 		.4byte	0x337d
 8719 3379 88330000 		.4byte	0x3388
 8720 337d 2F       		.uleb128 0x2f
 8721 337e 226E0000 		.4byte	0x6e22
 8722 3382 14       		.uleb128 0x14
 8723 3383 406E0000 		.4byte	0x6e40
 8724 3387 00       		.byte	0
 8725 3388 46       		.uleb128 0x46
 8726 3389 10790000 		.4byte	.LASF531
 8727 338d 15       		.byte	0x15
 8728 338e EC01     		.2byte	0x1ec
 8729 3390 A31F0000 		.4byte	.LASF608
 8730 3394 A7330000 		.4byte	0x33a7
 8731 3398 01       		.byte	0x1
 8732 3399 A1330000 		.4byte	0x33a1
 8733 339d A7330000 		.4byte	0x33a7
 8734 33a1 2F       		.uleb128 0x2f
 8735 33a2 1C6E0000 		.4byte	0x6e1c
 8736 33a6 00       		.byte	0
 8737 33a7 1B       		.uleb128 0x1b
 8738 33a8 B12F0000 		.4byte	0x2fb1
 8739 33ac 48       		.uleb128 0x48
 8740 33ad 656E6400 		.ascii	"end\000"
 8741 33b1 15       		.byte	0x15
 8742 33b2 F201     		.2byte	0x1f2
ARM GAS  /tmp/ccytVDiP.s 			page 155


 8743 33b4 5B6D0000 		.4byte	.LASF609
 8744 33b8 A7330000 		.4byte	0x33a7
 8745 33bc 01       		.byte	0x1
 8746 33bd C5330000 		.4byte	0x33c5
 8747 33c1 CB330000 		.4byte	0x33cb
 8748 33c5 2F       		.uleb128 0x2f
 8749 33c6 1C6E0000 		.4byte	0x6e1c
 8750 33ca 00       		.byte	0
 8751 33cb 47       		.uleb128 0x47
 8752 33cc 10170000 		.4byte	.LASF533
 8753 33d0 15       		.byte	0x15
 8754 33d1 F601     		.2byte	0x1f6
 8755 33d3 85650000 		.4byte	.LASF610
 8756 33d7 01       		.byte	0x1
 8757 33d8 E0330000 		.4byte	0x33e0
 8758 33dc EB330000 		.4byte	0x33eb
 8759 33e0 2F       		.uleb128 0x2f
 8760 33e1 1C6E0000 		.4byte	0x6e1c
 8761 33e5 14       		.uleb128 0x14
 8762 33e6 466E0000 		.4byte	0x6e46
 8763 33ea 00       		.byte	0
 8764 33eb 49       		.uleb128 0x49
 8765 33ec 19140000 		.4byte	.LASF539
 8766 33f0 15       		.byte	0x15
 8767 33f1 FA01     		.2byte	0x1fa
 8768 33f3 226E0000 		.4byte	0x6e22
 8769 33f7 01       		.byte	0x1
 8770 33f8 00340000 		.4byte	0x3400
 8771 33fc 06340000 		.4byte	0x3406
 8772 3400 2F       		.uleb128 0x2f
 8773 3401 226E0000 		.4byte	0x6e22
 8774 3405 00       		.byte	0
 8775 3406 4A       		.uleb128 0x4a
 8776 3407 6B4C0000 		.4byte	.LASF540
 8777 340b B8000000 		.4byte	0xb8
 8778 340f 01       		.byte	0x1
 8779 3410 18340000 		.4byte	0x3418
 8780 3414 23340000 		.4byte	0x3423
 8781 3418 2F       		.uleb128 0x2f
 8782 3419 226E0000 		.4byte	0x6e22
 8783 341d 2F       		.uleb128 0x2f
 8784 341e 94000000 		.4byte	0x94
 8785 3422 00       		.byte	0
 8786 3423 4B       		.uleb128 0x4b
 8787 3424 D7130000 		.4byte	.LASF541
 8788 3428 32340000 		.4byte	0x3432
 8789 342c 00       		.byte	0
 8790 342d 1B       		.uleb128 0x1b
 8791 342e 32340000 		.4byte	0x3432
 8792 3432 2D       		.uleb128 0x2d
 8793 3433 ED200000 		.4byte	.LASF611
 8794 3437 30       		.byte	0x30
 8795 3438 0E       		.byte	0xe
 8796 3439 17       		.byte	0x17
 8797 343a BF390000 		.4byte	0x39bf
 8798 343e 32       		.uleb128 0x32
 8799 343f C31D0000 		.4byte	0x1dc3
ARM GAS  /tmp/ccytVDiP.s 			page 156


 8800 3443 00       		.byte	0
 8801 3444 0A       		.uleb128 0xa
 8802 3445 DE250000 		.4byte	.LASF612
 8803 3449 0E       		.byte	0xe
 8804 344a 1B       		.byte	0x1b
 8805 344b 576E0000 		.4byte	0x6e57
 8806 344f 00       		.byte	0
 8807 3450 0A       		.uleb128 0xa
 8808 3451 87770000 		.4byte	.LASF613
 8809 3455 0E       		.byte	0xe
 8810 3456 1C       		.byte	0x1c
 8811 3457 A3200000 		.4byte	0x20a3
 8812 345b 04       		.byte	0x4
 8813 345c 0A       		.uleb128 0xa
 8814 345d E12D0000 		.4byte	.LASF614
 8815 3461 0E       		.byte	0xe
 8816 3462 1D       		.byte	0x1d
 8817 3463 C81E0000 		.4byte	0x1ec8
 8818 3467 08       		.byte	0x8
 8819 3468 0A       		.uleb128 0xa
 8820 3469 F46F0000 		.4byte	.LASF615
 8821 346d 0E       		.byte	0xe
 8822 346e 1E       		.byte	0x1e
 8823 346f AD000000 		.4byte	0xad
 8824 3473 14       		.byte	0x14
 8825 3474 0A       		.uleb128 0xa
 8826 3475 11120000 		.4byte	.LASF616
 8827 3479 0E       		.byte	0xe
 8828 347a 1F       		.byte	0x1f
 8829 347b AD000000 		.4byte	0xad
 8830 347f 18       		.byte	0x18
 8831 3480 0A       		.uleb128 0xa
 8832 3481 03350000 		.4byte	.LASF617
 8833 3485 0E       		.byte	0xe
 8834 3486 20       		.byte	0x20
 8835 3487 55230000 		.4byte	0x2355
 8836 348b 1C       		.byte	0x1c
 8837 348c 0A       		.uleb128 0xa
 8838 348d 8F010000 		.4byte	.LASF618
 8839 3491 0E       		.byte	0xe
 8840 3492 21       		.byte	0x21
 8841 3493 4A2A0000 		.4byte	0x2a4a
 8842 3497 20       		.byte	0x20
 8843 3498 0A       		.uleb128 0xa
 8844 3499 0C510000 		.4byte	.LASF619
 8845 349d 0E       		.byte	0xe
 8846 349e 22       		.byte	0x22
 8847 349f AD000000 		.4byte	0xad
 8848 34a3 24       		.byte	0x24
 8849 34a4 0A       		.uleb128 0xa
 8850 34a5 D3680000 		.4byte	.LASF620
 8851 34a9 0E       		.byte	0xe
 8852 34aa 27       		.byte	0x27
 8853 34ab 552F0000 		.4byte	0x2f55
 8854 34af 28       		.byte	0x28
 8855 34b0 36       		.uleb128 0x36
 8856 34b1 05480000 		.4byte	.LASF621
ARM GAS  /tmp/ccytVDiP.s 			page 157


 8857 34b5 0E       		.byte	0xe
 8858 34b6 2A       		.byte	0x2a
 8859 34b7 13470000 		.4byte	.LASF622
 8860 34bb 13070000 		.4byte	0x713
 8861 34bf 01       		.byte	0x1
 8862 34c0 C8340000 		.4byte	0x34c8
 8863 34c4 CE340000 		.4byte	0x34ce
 8864 34c8 2F       		.uleb128 0x2f
 8865 34c9 5C6E0000 		.4byte	0x6e5c
 8866 34cd 00       		.byte	0
 8867 34ce 36       		.uleb128 0x36
 8868 34cf 366E0000 		.4byte	.LASF623
 8869 34d3 0E       		.byte	0xe
 8870 34d4 2B       		.byte	0x2b
 8871 34d5 646B0000 		.4byte	.LASF624
 8872 34d9 F36C0000 		.4byte	0x6cf3
 8873 34dd 01       		.byte	0x1
 8874 34de E6340000 		.4byte	0x34e6
 8875 34e2 EC340000 		.4byte	0x34ec
 8876 34e6 2F       		.uleb128 0x2f
 8877 34e7 5C6E0000 		.4byte	0x6e5c
 8878 34eb 00       		.byte	0
 8879 34ec 36       		.uleb128 0x36
 8880 34ed 871F0000 		.4byte	.LASF625
 8881 34f1 0E       		.byte	0xe
 8882 34f2 2C       		.byte	0x2c
 8883 34f3 24140000 		.4byte	.LASF626
 8884 34f7 AD000000 		.4byte	0xad
 8885 34fb 01       		.byte	0x1
 8886 34fc 04350000 		.4byte	0x3504
 8887 3500 0A350000 		.4byte	0x350a
 8888 3504 2F       		.uleb128 0x2f
 8889 3505 5C6E0000 		.4byte	0x6e5c
 8890 3509 00       		.byte	0
 8891 350a 36       		.uleb128 0x36
 8892 350b B3740000 		.4byte	.LASF627
 8893 350f 0E       		.byte	0xe
 8894 3510 2D       		.byte	0x2d
 8895 3511 CE5A0000 		.4byte	.LASF628
 8896 3515 AD000000 		.4byte	0xad
 8897 3519 01       		.byte	0x1
 8898 351a 22350000 		.4byte	0x3522
 8899 351e 28350000 		.4byte	0x3528
 8900 3522 2F       		.uleb128 0x2f
 8901 3523 5C6E0000 		.4byte	0x6e5c
 8902 3527 00       		.byte	0
 8903 3528 36       		.uleb128 0x36
 8904 3529 D8200000 		.4byte	.LASF629
 8905 352d 0E       		.byte	0xe
 8906 352e 2E       		.byte	0x2e
 8907 352f C2690000 		.4byte	.LASF630
 8908 3533 AD000000 		.4byte	0xad
 8909 3537 01       		.byte	0x1
 8910 3538 40350000 		.4byte	0x3540
 8911 353c 46350000 		.4byte	0x3546
 8912 3540 2F       		.uleb128 0x2f
 8913 3541 5C6E0000 		.4byte	0x6e5c
ARM GAS  /tmp/ccytVDiP.s 			page 158


 8914 3545 00       		.byte	0
 8915 3546 36       		.uleb128 0x36
 8916 3547 432C0000 		.4byte	.LASF631
 8917 354b 0E       		.byte	0xe
 8918 354c 2F       		.byte	0x2f
 8919 354d 0A000000 		.4byte	.LASF632
 8920 3551 700C0000 		.4byte	0xc70
 8921 3555 01       		.byte	0x1
 8922 3556 5E350000 		.4byte	0x355e
 8923 355a 64350000 		.4byte	0x3564
 8924 355e 2F       		.uleb128 0x2f
 8925 355f 5C6E0000 		.4byte	0x6e5c
 8926 3563 00       		.byte	0
 8927 3564 36       		.uleb128 0x36
 8928 3565 F43D0000 		.4byte	.LASF633
 8929 3569 0E       		.byte	0xe
 8930 356a 31       		.byte	0x31
 8931 356b C86B0000 		.4byte	.LASF634
 8932 356f 700C0000 		.4byte	0xc70
 8933 3573 01       		.byte	0x1
 8934 3574 7C350000 		.4byte	0x357c
 8935 3578 82350000 		.4byte	0x3582
 8936 357c 2F       		.uleb128 0x2f
 8937 357d 5C6E0000 		.4byte	0x6e5c
 8938 3581 00       		.byte	0
 8939 3582 36       		.uleb128 0x36
 8940 3583 37090000 		.4byte	.LASF635
 8941 3587 0E       		.byte	0xe
 8942 3588 32       		.byte	0x32
 8943 3589 E4100000 		.4byte	.LASF636
 8944 358d 700C0000 		.4byte	0xc70
 8945 3591 01       		.byte	0x1
 8946 3592 9A350000 		.4byte	0x359a
 8947 3596 A0350000 		.4byte	0x35a0
 8948 359a 2F       		.uleb128 0x2f
 8949 359b 5C6E0000 		.4byte	0x6e5c
 8950 359f 00       		.byte	0
 8951 35a0 36       		.uleb128 0x36
 8952 35a1 5F700000 		.4byte	.LASF637
 8953 35a5 0E       		.byte	0xe
 8954 35a6 33       		.byte	0x33
 8955 35a7 A1530000 		.4byte	.LASF638
 8956 35ab 700C0000 		.4byte	0xc70
 8957 35af 01       		.byte	0x1
 8958 35b0 B8350000 		.4byte	0x35b8
 8959 35b4 BE350000 		.4byte	0x35be
 8960 35b8 2F       		.uleb128 0x2f
 8961 35b9 5C6E0000 		.4byte	0x6e5c
 8962 35bd 00       		.byte	0
 8963 35be 36       		.uleb128 0x36
 8964 35bf D74A0000 		.4byte	.LASF639
 8965 35c3 0E       		.byte	0xe
 8966 35c4 34       		.byte	0x34
 8967 35c5 44480000 		.4byte	.LASF640
 8968 35c9 700C0000 		.4byte	0xc70
 8969 35cd 01       		.byte	0x1
 8970 35ce D6350000 		.4byte	0x35d6
ARM GAS  /tmp/ccytVDiP.s 			page 159


 8971 35d2 DC350000 		.4byte	0x35dc
 8972 35d6 2F       		.uleb128 0x2f
 8973 35d7 5C6E0000 		.4byte	0x6e5c
 8974 35db 00       		.byte	0
 8975 35dc 36       		.uleb128 0x36
 8976 35dd FC1D0000 		.4byte	.LASF641
 8977 35e1 0E       		.byte	0xe
 8978 35e2 35       		.byte	0x35
 8979 35e3 E8110000 		.4byte	.LASF642
 8980 35e7 700C0000 		.4byte	0xc70
 8981 35eb 01       		.byte	0x1
 8982 35ec F4350000 		.4byte	0x35f4
 8983 35f0 FA350000 		.4byte	0x35fa
 8984 35f4 2F       		.uleb128 0x2f
 8985 35f5 5C6E0000 		.4byte	0x6e5c
 8986 35f9 00       		.byte	0
 8987 35fa 36       		.uleb128 0x36
 8988 35fb 9E6D0000 		.4byte	.LASF643
 8989 35ff 0E       		.byte	0xe
 8990 3600 36       		.byte	0x36
 8991 3601 B5130000 		.4byte	.LASF644
 8992 3605 700C0000 		.4byte	0xc70
 8993 3609 01       		.byte	0x1
 8994 360a 12360000 		.4byte	0x3612
 8995 360e 18360000 		.4byte	0x3618
 8996 3612 2F       		.uleb128 0x2f
 8997 3613 5C6E0000 		.4byte	0x6e5c
 8998 3617 00       		.byte	0
 8999 3618 36       		.uleb128 0x36
 9000 3619 145D0000 		.4byte	.LASF645
 9001 361d 0E       		.byte	0xe
 9002 361e 37       		.byte	0x37
 9003 361f 06160000 		.4byte	.LASF646
 9004 3623 700C0000 		.4byte	0xc70
 9005 3627 01       		.byte	0x1
 9006 3628 30360000 		.4byte	0x3630
 9007 362c 36360000 		.4byte	0x3636
 9008 3630 2F       		.uleb128 0x2f
 9009 3631 5C6E0000 		.4byte	0x6e5c
 9010 3635 00       		.byte	0
 9011 3636 36       		.uleb128 0x36
 9012 3637 DE3B0000 		.4byte	.LASF647
 9013 363b 0E       		.byte	0xe
 9014 363c 38       		.byte	0x38
 9015 363d CE5D0000 		.4byte	.LASF648
 9016 3641 700C0000 		.4byte	0xc70
 9017 3645 01       		.byte	0x1
 9018 3646 4E360000 		.4byte	0x364e
 9019 364a 54360000 		.4byte	0x3654
 9020 364e 2F       		.uleb128 0x2f
 9021 364f 5C6E0000 		.4byte	0x6e5c
 9022 3653 00       		.byte	0
 9023 3654 36       		.uleb128 0x36
 9024 3655 3C510000 		.4byte	.LASF649
 9025 3659 0E       		.byte	0xe
 9026 365a 3A       		.byte	0x3a
 9027 365b 866C0000 		.4byte	.LASF650
ARM GAS  /tmp/ccytVDiP.s 			page 160


 9028 365f 50230000 		.4byte	0x2350
 9029 3663 01       		.byte	0x1
 9030 3664 6C360000 		.4byte	0x366c
 9031 3668 77360000 		.4byte	0x3677
 9032 366c 2F       		.uleb128 0x2f
 9033 366d 5C6E0000 		.4byte	0x6e5c
 9034 3671 14       		.uleb128 0x14
 9035 3672 F36C0000 		.4byte	0x6cf3
 9036 3676 00       		.byte	0
 9037 3677 36       		.uleb128 0x36
 9038 3678 3C510000 		.4byte	.LASF649
 9039 367c 0E       		.byte	0xe
 9040 367d 3B       		.byte	0x3b
 9041 367e 59470000 		.4byte	.LASF651
 9042 3682 50230000 		.4byte	0x2350
 9043 3686 01       		.byte	0x1
 9044 3687 8F360000 		.4byte	0x368f
 9045 368b 95360000 		.4byte	0x3695
 9046 368f 2F       		.uleb128 0x2f
 9047 3690 5C6E0000 		.4byte	0x6e5c
 9048 3694 00       		.byte	0
 9049 3695 36       		.uleb128 0x36
 9050 3696 DF440000 		.4byte	.LASF413
 9051 369a 0E       		.byte	0xe
 9052 369b 3C       		.byte	0x3c
 9053 369c 3F380000 		.4byte	.LASF652
 9054 36a0 626E0000 		.4byte	0x6e62
 9055 36a4 01       		.byte	0x1
 9056 36a5 AD360000 		.4byte	0x36ad
 9057 36a9 B3360000 		.4byte	0x36b3
 9058 36ad 2F       		.uleb128 0x2f
 9059 36ae 2E6E0000 		.4byte	0x6e2e
 9060 36b2 00       		.byte	0
 9061 36b3 36       		.uleb128 0x36
 9062 36b4 3D320000 		.4byte	.LASF653
 9063 36b8 0E       		.byte	0xe
 9064 36b9 3E       		.byte	0x3e
 9065 36ba 91140000 		.4byte	.LASF654
 9066 36be 700C0000 		.4byte	0xc70
 9067 36c2 01       		.byte	0x1
 9068 36c3 CB360000 		.4byte	0x36cb
 9069 36c7 D6360000 		.4byte	0x36d6
 9070 36cb 2F       		.uleb128 0x2f
 9071 36cc 2E6E0000 		.4byte	0x6e2e
 9072 36d0 14       		.uleb128 0x14
 9073 36d1 686E0000 		.4byte	0x6e68
 9074 36d5 00       		.byte	0
 9075 36d6 37       		.uleb128 0x37
 9076 36d7 641C0000 		.4byte	.LASF415
 9077 36db 0E       		.byte	0xe
 9078 36dc 3F       		.byte	0x3f
 9079 36dd 634D0000 		.4byte	.LASF655
 9080 36e1 01       		.byte	0x1
 9081 36e2 EA360000 		.4byte	0x36ea
 9082 36e6 F5360000 		.4byte	0x36f5
 9083 36ea 2F       		.uleb128 0x2f
 9084 36eb 2E6E0000 		.4byte	0x6e2e
ARM GAS  /tmp/ccytVDiP.s 			page 161


 9085 36ef 14       		.uleb128 0x14
 9086 36f0 686E0000 		.4byte	0x6e68
 9087 36f4 00       		.byte	0
 9088 36f5 36       		.uleb128 0x36
 9089 36f6 8C560000 		.4byte	.LASF656
 9090 36fa 0E       		.byte	0xe
 9091 36fb 40       		.byte	0x40
 9092 36fc 58410000 		.4byte	.LASF657
 9093 3700 700C0000 		.4byte	0xc70
 9094 3704 01       		.byte	0x1
 9095 3705 0D370000 		.4byte	0x370d
 9096 3709 1D370000 		.4byte	0x371d
 9097 370d 2F       		.uleb128 0x2f
 9098 370e 2E6E0000 		.4byte	0x6e2e
 9099 3712 14       		.uleb128 0x14
 9100 3713 686E0000 		.4byte	0x6e68
 9101 3717 14       		.uleb128 0x14
 9102 3718 F36C0000 		.4byte	0x6cf3
 9103 371c 00       		.byte	0
 9104 371d 36       		.uleb128 0x36
 9105 371e C4740000 		.4byte	.LASF658
 9106 3722 0E       		.byte	0xe
 9107 3723 41       		.byte	0x41
 9108 3724 F64E0000 		.4byte	.LASF659
 9109 3728 700C0000 		.4byte	0xc70
 9110 372c 01       		.byte	0x1
 9111 372d 35370000 		.4byte	0x3735
 9112 3731 45370000 		.4byte	0x3745
 9113 3735 2F       		.uleb128 0x2f
 9114 3736 2E6E0000 		.4byte	0x6e2e
 9115 373a 14       		.uleb128 0x14
 9116 373b 686E0000 		.4byte	0x6e68
 9117 373f 14       		.uleb128 0x14
 9118 3740 F36C0000 		.4byte	0x6cf3
 9119 3744 00       		.byte	0
 9120 3745 36       		.uleb128 0x36
 9121 3746 6F0D0000 		.4byte	.LASF660
 9122 374a 0E       		.byte	0xe
 9123 374b 42       		.byte	0x42
 9124 374c 27720000 		.4byte	.LASF661
 9125 3750 700C0000 		.4byte	0xc70
 9126 3754 01       		.byte	0x1
 9127 3755 5D370000 		.4byte	0x375d
 9128 3759 6D370000 		.4byte	0x376d
 9129 375d 2F       		.uleb128 0x2f
 9130 375e 2E6E0000 		.4byte	0x6e2e
 9131 3762 14       		.uleb128 0x14
 9132 3763 6E6E0000 		.4byte	0x6e6e
 9133 3767 14       		.uleb128 0x14
 9134 3768 F36C0000 		.4byte	0x6cf3
 9135 376c 00       		.byte	0
 9136 376d 36       		.uleb128 0x36
 9137 376e 84320000 		.4byte	.LASF662
 9138 3772 0E       		.byte	0xe
 9139 3773 45       		.byte	0x45
 9140 3774 9C610000 		.4byte	.LASF663
 9141 3778 50230000 		.4byte	0x2350
ARM GAS  /tmp/ccytVDiP.s 			page 162


 9142 377c 01       		.byte	0x1
 9143 377d 85370000 		.4byte	0x3785
 9144 3781 90370000 		.4byte	0x3790
 9145 3785 2F       		.uleb128 0x2f
 9146 3786 5C6E0000 		.4byte	0x6e5c
 9147 378a 14       		.uleb128 0x14
 9148 378b F36C0000 		.4byte	0x6cf3
 9149 378f 00       		.byte	0
 9150 3790 36       		.uleb128 0x36
 9151 3791 84320000 		.4byte	.LASF662
 9152 3795 0E       		.byte	0xe
 9153 3796 46       		.byte	0x46
 9154 3797 E7310000 		.4byte	.LASF664
 9155 379b 50230000 		.4byte	0x2350
 9156 379f 01       		.byte	0x1
 9157 37a0 A8370000 		.4byte	0x37a8
 9158 37a4 AE370000 		.4byte	0x37ae
 9159 37a8 2F       		.uleb128 0x2f
 9160 37a9 5C6E0000 		.4byte	0x6e5c
 9161 37ad 00       		.byte	0
 9162 37ae 36       		.uleb128 0x36
 9163 37af 2B400000 		.4byte	.LASF416
 9164 37b3 0E       		.byte	0xe
 9165 37b4 47       		.byte	0x47
 9166 37b5 16150000 		.4byte	.LASF665
 9167 37b9 626E0000 		.4byte	0x6e62
 9168 37bd 01       		.byte	0x1
 9169 37be C6370000 		.4byte	0x37c6
 9170 37c2 CC370000 		.4byte	0x37cc
 9171 37c6 2F       		.uleb128 0x2f
 9172 37c7 2E6E0000 		.4byte	0x6e2e
 9173 37cb 00       		.byte	0
 9174 37cc 36       		.uleb128 0x36
 9175 37cd 8A5B0000 		.4byte	.LASF399
 9176 37d1 0E       		.byte	0xe
 9177 37d2 49       		.byte	0x49
 9178 37d3 D4350000 		.4byte	.LASF666
 9179 37d7 700C0000 		.4byte	0xc70
 9180 37db 01       		.byte	0x1
 9181 37dc E4370000 		.4byte	0x37e4
 9182 37e0 EF370000 		.4byte	0x37ef
 9183 37e4 2F       		.uleb128 0x2f
 9184 37e5 2E6E0000 		.4byte	0x6e2e
 9185 37e9 14       		.uleb128 0x14
 9186 37ea 686E0000 		.4byte	0x6e68
 9187 37ee 00       		.byte	0
 9188 37ef 37       		.uleb128 0x37
 9189 37f0 DC130000 		.4byte	.LASF418
 9190 37f4 0E       		.byte	0xe
 9191 37f5 4A       		.byte	0x4a
 9192 37f6 814C0000 		.4byte	.LASF667
 9193 37fa 01       		.byte	0x1
 9194 37fb 03380000 		.4byte	0x3803
 9195 37ff 0E380000 		.4byte	0x380e
 9196 3803 2F       		.uleb128 0x2f
 9197 3804 2E6E0000 		.4byte	0x6e2e
 9198 3808 14       		.uleb128 0x14
ARM GAS  /tmp/ccytVDiP.s 			page 163


 9199 3809 686E0000 		.4byte	0x6e68
 9200 380d 00       		.byte	0
 9201 380e 36       		.uleb128 0x36
 9202 380f 631F0000 		.4byte	.LASF668
 9203 3813 0E       		.byte	0xe
 9204 3814 4B       		.byte	0x4b
 9205 3815 32420000 		.4byte	.LASF669
 9206 3819 700C0000 		.4byte	0xc70
 9207 381d 01       		.byte	0x1
 9208 381e 26380000 		.4byte	0x3826
 9209 3822 36380000 		.4byte	0x3836
 9210 3826 2F       		.uleb128 0x2f
 9211 3827 2E6E0000 		.4byte	0x6e2e
 9212 382b 14       		.uleb128 0x14
 9213 382c 686E0000 		.4byte	0x6e68
 9214 3830 14       		.uleb128 0x14
 9215 3831 F36C0000 		.4byte	0x6cf3
 9216 3835 00       		.byte	0
 9217 3836 36       		.uleb128 0x36
 9218 3837 0F210000 		.4byte	.LASF670
 9219 383b 0E       		.byte	0xe
 9220 383c 4C       		.byte	0x4c
 9221 383d E42C0000 		.4byte	.LASF671
 9222 3841 700C0000 		.4byte	0xc70
 9223 3845 01       		.byte	0x1
 9224 3846 4E380000 		.4byte	0x384e
 9225 384a 5E380000 		.4byte	0x385e
 9226 384e 2F       		.uleb128 0x2f
 9227 384f 2E6E0000 		.4byte	0x6e2e
 9228 3853 14       		.uleb128 0x14
 9229 3854 686E0000 		.4byte	0x6e68
 9230 3858 14       		.uleb128 0x14
 9231 3859 F36C0000 		.4byte	0x6cf3
 9232 385d 00       		.byte	0
 9233 385e 36       		.uleb128 0x36
 9234 385f CE040000 		.4byte	.LASF672
 9235 3863 0E       		.byte	0xe
 9236 3864 4D       		.byte	0x4d
 9237 3865 89710000 		.4byte	.LASF673
 9238 3869 700C0000 		.4byte	0xc70
 9239 386d 01       		.byte	0x1
 9240 386e 76380000 		.4byte	0x3876
 9241 3872 86380000 		.4byte	0x3886
 9242 3876 2F       		.uleb128 0x2f
 9243 3877 2E6E0000 		.4byte	0x6e2e
 9244 387b 14       		.uleb128 0x14
 9245 387c 6E6E0000 		.4byte	0x6e6e
 9246 3880 14       		.uleb128 0x14
 9247 3881 F36C0000 		.4byte	0x6cf3
 9248 3885 00       		.byte	0
 9249 3886 37       		.uleb128 0x37
 9250 3887 3C0A0000 		.4byte	.LASF674
 9251 388b 0E       		.byte	0xe
 9252 388c 4E       		.byte	0x4e
 9253 388d 34580000 		.4byte	.LASF675
 9254 3891 01       		.byte	0x1
 9255 3892 9A380000 		.4byte	0x389a
ARM GAS  /tmp/ccytVDiP.s 			page 164


 9256 3896 AA380000 		.4byte	0x38aa
 9257 389a 2F       		.uleb128 0x2f
 9258 389b 2E6E0000 		.4byte	0x6e2e
 9259 389f 14       		.uleb128 0x14
 9260 38a0 626E0000 		.4byte	0x6e62
 9261 38a4 14       		.uleb128 0x14
 9262 38a5 AD000000 		.4byte	0xad
 9263 38a9 00       		.byte	0
 9264 38aa 37       		.uleb128 0x37
 9265 38ab 25580000 		.4byte	.LASF676
 9266 38af 0E       		.byte	0xe
 9267 38b0 50       		.byte	0x50
 9268 38b1 560C0000 		.4byte	.LASF677
 9269 38b5 01       		.byte	0x1
 9270 38b6 BE380000 		.4byte	0x38be
 9271 38ba CE380000 		.4byte	0x38ce
 9272 38be 2F       		.uleb128 0x2f
 9273 38bf 2E6E0000 		.4byte	0x6e2e
 9274 38c3 14       		.uleb128 0x14
 9275 38c4 746E0000 		.4byte	0x6e74
 9276 38c8 14       		.uleb128 0x14
 9277 38c9 F36C0000 		.4byte	0x6cf3
 9278 38cd 00       		.byte	0
 9279 38ce 37       		.uleb128 0x37
 9280 38cf 25580000 		.4byte	.LASF676
 9281 38d3 0E       		.byte	0xe
 9282 38d4 51       		.byte	0x51
 9283 38d5 19020000 		.4byte	.LASF678
 9284 38d9 01       		.byte	0x1
 9285 38da E2380000 		.4byte	0x38e2
 9286 38de F2380000 		.4byte	0x38f2
 9287 38e2 2F       		.uleb128 0x2f
 9288 38e3 2E6E0000 		.4byte	0x6e2e
 9289 38e7 14       		.uleb128 0x14
 9290 38e8 7A6E0000 		.4byte	0x6e7a
 9291 38ec 14       		.uleb128 0x14
 9292 38ed F36C0000 		.4byte	0x6cf3
 9293 38f1 00       		.byte	0
 9294 38f2 37       		.uleb128 0x37
 9295 38f3 32750000 		.4byte	.LASF679
 9296 38f7 0E       		.byte	0xe
 9297 38f8 52       		.byte	0x52
 9298 38f9 5C560000 		.4byte	.LASF680
 9299 38fd 01       		.byte	0x1
 9300 38fe 06390000 		.4byte	0x3906
 9301 3902 16390000 		.4byte	0x3916
 9302 3906 2F       		.uleb128 0x2f
 9303 3907 2E6E0000 		.4byte	0x6e2e
 9304 390b 14       		.uleb128 0x14
 9305 390c 806E0000 		.4byte	0x6e80
 9306 3910 14       		.uleb128 0x14
 9307 3911 AD000000 		.4byte	0xad
 9308 3915 00       		.byte	0
 9309 3916 37       		.uleb128 0x37
 9310 3917 32750000 		.4byte	.LASF679
 9311 391b 0E       		.byte	0xe
 9312 391c 53       		.byte	0x53
ARM GAS  /tmp/ccytVDiP.s 			page 165


 9313 391d 04590000 		.4byte	.LASF681
 9314 3921 01       		.byte	0x1
 9315 3922 2A390000 		.4byte	0x392a
 9316 3926 3A390000 		.4byte	0x393a
 9317 392a 2F       		.uleb128 0x2f
 9318 392b 2E6E0000 		.4byte	0x6e2e
 9319 392f 14       		.uleb128 0x14
 9320 3930 866E0000 		.4byte	0x6e86
 9321 3934 14       		.uleb128 0x14
 9322 3935 AD000000 		.4byte	0xad
 9323 3939 00       		.byte	0
 9324 393a 4F       		.uleb128 0x4f
 9325 393b B9470000 		.4byte	.LASF682
 9326 393f 0E       		.byte	0xe
 9327 3940 56       		.byte	0x56
 9328 3941 D25F0000 		.4byte	.LASF701
 9329 3945 4D390000 		.4byte	0x394d
 9330 3949 5D390000 		.4byte	0x395d
 9331 394d 2F       		.uleb128 0x2f
 9332 394e 5C6E0000 		.4byte	0x6e5c
 9333 3952 14       		.uleb128 0x14
 9334 3953 686E0000 		.4byte	0x6e68
 9335 3957 14       		.uleb128 0x14
 9336 3958 8C6E0000 		.4byte	0x6e8c
 9337 395c 00       		.byte	0
 9338 395d 30       		.uleb128 0x30
 9339 395e ED200000 		.4byte	.LASF611
 9340 3962 0E       		.byte	0xe
 9341 3963 59       		.byte	0x59
 9342 3964 2E6E0000 		.4byte	0x6e2e
 9343 3968 01       		.byte	0x1
 9344 3969 71390000 		.4byte	0x3971
 9345 396d 86390000 		.4byte	0x3986
 9346 3971 2F       		.uleb128 0x2f
 9347 3972 2E6E0000 		.4byte	0x6e2e
 9348 3976 14       		.uleb128 0x14
 9349 3977 13070000 		.4byte	0x713
 9350 397b 14       		.uleb128 0x14
 9351 397c AD000000 		.4byte	0xad
 9352 3980 14       		.uleb128 0x14
 9353 3981 700C0000 		.4byte	0xc70
 9354 3985 00       		.byte	0
 9355 3986 50       		.uleb128 0x50
 9356 3987 845D0000 		.4byte	.LASF683
 9357 398b 0E       		.byte	0xe
 9358 398c 5D       		.byte	0x5d
 9359 398d 192A0000 		.4byte	.LASF684
 9360 3991 700C0000 		.4byte	0xc70
 9361 3995 01       		.byte	0x1
 9362 3996 A5390000 		.4byte	0x39a5
 9363 399a 14       		.uleb128 0x14
 9364 399b F66D0000 		.4byte	0x6df6
 9365 399f 14       		.uleb128 0x14
 9366 39a0 13070000 		.4byte	0x713
 9367 39a4 00       		.byte	0
 9368 39a5 38       		.uleb128 0x38
 9369 39a6 0C660000 		.4byte	.LASF685
ARM GAS  /tmp/ccytVDiP.s 			page 166


 9370 39aa B8000000 		.4byte	0xb8
 9371 39ae 01       		.byte	0x1
 9372 39af B3390000 		.4byte	0x39b3
 9373 39b3 2F       		.uleb128 0x2f
 9374 39b4 2E6E0000 		.4byte	0x6e2e
 9375 39b8 2F       		.uleb128 0x2f
 9376 39b9 94000000 		.4byte	0x94
 9377 39bd 00       		.byte	0
 9378 39be 00       		.byte	0
 9379 39bf 1B       		.uleb128 0x1b
 9380 39c0 432F0000 		.4byte	0x2f43
 9381 39c4 2D       		.uleb128 0x2d
 9382 39c5 765A0000 		.4byte	.LASF686
 9383 39c9 02       		.byte	0x2
 9384 39ca 06       		.byte	0x6
 9385 39cb 14       		.byte	0x14
 9386 39cc 2F3B0000 		.4byte	0x3b2f
 9387 39d0 35       		.uleb128 0x35
 9388 39d1 190B0000 		.4byte	.LASF687
 9389 39d5 06       		.byte	0x6
 9390 39d6 16       		.byte	0x16
 9391 39d7 2E0C0000 		.4byte	0xc2e
 9392 39db 01       		.byte	0x1
 9393 39dc 0A       		.uleb128 0xa
 9394 39dd 95320000 		.4byte	.LASF688
 9395 39e1 06       		.byte	0x6
 9396 39e2 1D       		.byte	0x1d
 9397 39e3 D0390000 		.4byte	0x39d0
 9398 39e7 00       		.byte	0
 9399 39e8 36       		.uleb128 0x36
 9400 39e9 55040000 		.4byte	.LASF689
 9401 39ed 06       		.byte	0x6
 9402 39ee 20       		.byte	0x20
 9403 39ef 60110000 		.4byte	.LASF690
 9404 39f3 60120000 		.4byte	0x1260
 9405 39f7 01       		.byte	0x1
 9406 39f8 003A0000 		.4byte	0x3a00
 9407 39fc 063A0000 		.4byte	0x3a06
 9408 3a00 2F       		.uleb128 0x2f
 9409 3a01 926E0000 		.4byte	0x6e92
 9410 3a05 00       		.byte	0
 9411 3a06 37       		.uleb128 0x37
 9412 3a07 BF5D0000 		.4byte	.LASF691
 9413 3a0b 06       		.byte	0x6
 9414 3a0c 26       		.byte	0x26
 9415 3a0d 5E1E0000 		.4byte	.LASF692
 9416 3a11 01       		.byte	0x1
 9417 3a12 1A3A0000 		.4byte	0x3a1a
 9418 3a16 203A0000 		.4byte	0x3a20
 9419 3a1a 2F       		.uleb128 0x2f
 9420 3a1b 626E0000 		.4byte	0x6e62
 9421 3a1f 00       		.byte	0
 9422 3a20 36       		.uleb128 0x36
 9423 3a21 3D320000 		.4byte	.LASF653
 9424 3a25 06       		.byte	0x6
 9425 3a26 27       		.byte	0x27
 9426 3a27 1F430000 		.4byte	.LASF693
ARM GAS  /tmp/ccytVDiP.s 			page 167


 9427 3a2b 700C0000 		.4byte	0xc70
 9428 3a2f 01       		.byte	0x1
 9429 3a30 383A0000 		.4byte	0x3a38
 9430 3a34 3E3A0000 		.4byte	0x3a3e
 9431 3a38 2F       		.uleb128 0x2f
 9432 3a39 626E0000 		.4byte	0x6e62
 9433 3a3d 00       		.byte	0
 9434 3a3e 37       		.uleb128 0x37
 9435 3a3f C1160000 		.4byte	.LASF694
 9436 3a43 06       		.byte	0x6
 9437 3a44 28       		.byte	0x28
 9438 3a45 98020000 		.4byte	.LASF695
 9439 3a49 01       		.byte	0x1
 9440 3a4a 523A0000 		.4byte	0x3a52
 9441 3a4e 583A0000 		.4byte	0x3a58
 9442 3a52 2F       		.uleb128 0x2f
 9443 3a53 626E0000 		.4byte	0x6e62
 9444 3a57 00       		.byte	0
 9445 3a58 37       		.uleb128 0x37
 9446 3a59 33270000 		.4byte	.LASF398
 9447 3a5d 06       		.byte	0x6
 9448 3a5e 2A       		.byte	0x2a
 9449 3a5f 093B0000 		.4byte	.LASF696
 9450 3a63 01       		.byte	0x1
 9451 3a64 6C3A0000 		.4byte	0x3a6c
 9452 3a68 723A0000 		.4byte	0x3a72
 9453 3a6c 2F       		.uleb128 0x2f
 9454 3a6d 626E0000 		.4byte	0x6e62
 9455 3a71 00       		.byte	0
 9456 3a72 36       		.uleb128 0x36
 9457 3a73 8A5B0000 		.4byte	.LASF399
 9458 3a77 06       		.byte	0x6
 9459 3a78 2B       		.byte	0x2b
 9460 3a79 040C0000 		.4byte	.LASF697
 9461 3a7d 700C0000 		.4byte	0xc70
 9462 3a81 01       		.byte	0x1
 9463 3a82 8A3A0000 		.4byte	0x3a8a
 9464 3a86 903A0000 		.4byte	0x3a90
 9465 3a8a 2F       		.uleb128 0x2f
 9466 3a8b 626E0000 		.4byte	0x6e62
 9467 3a8f 00       		.byte	0
 9468 3a90 37       		.uleb128 0x37
 9469 3a91 643E0000 		.4byte	.LASF698
 9470 3a95 06       		.byte	0x6
 9471 3a96 2C       		.byte	0x2c
 9472 3a97 493F0000 		.4byte	.LASF699
 9473 3a9b 01       		.byte	0x1
 9474 3a9c A43A0000 		.4byte	0x3aa4
 9475 3aa0 AA3A0000 		.4byte	0x3aaa
 9476 3aa4 2F       		.uleb128 0x2f
 9477 3aa5 626E0000 		.4byte	0x6e62
 9478 3aa9 00       		.byte	0
 9479 3aaa 30       		.uleb128 0x30
 9480 3aab 765A0000 		.4byte	.LASF686
 9481 3aaf 06       		.byte	0x6
 9482 3ab0 2F       		.byte	0x2f
 9483 3ab1 626E0000 		.4byte	0x6e62
ARM GAS  /tmp/ccytVDiP.s 			page 168


 9484 3ab5 02       		.byte	0x2
 9485 3ab6 BE3A0000 		.4byte	0x3abe
 9486 3aba C43A0000 		.4byte	0x3ac4
 9487 3abe 2F       		.uleb128 0x2f
 9488 3abf 626E0000 		.4byte	0x6e62
 9489 3ac3 00       		.byte	0
 9490 3ac4 51       		.uleb128 0x51
 9491 3ac5 15480000 		.4byte	.LASF700
 9492 3ac9 06       		.byte	0x6
 9493 3aca 32       		.byte	0x32
 9494 3acb BC430000 		.4byte	.LASF702
 9495 3acf 01       		.byte	0x1
 9496 3ad0 E43A0000 		.4byte	0x3ae4
 9497 3ad4 14       		.uleb128 0x14
 9498 3ad5 686E0000 		.4byte	0x6e68
 9499 3ad9 14       		.uleb128 0x14
 9500 3ada 6E6E0000 		.4byte	0x6e6e
 9501 3ade 14       		.uleb128 0x14
 9502 3adf AD000000 		.4byte	0xad
 9503 3ae3 00       		.byte	0
 9504 3ae4 50       		.uleb128 0x50
 9505 3ae5 02070000 		.4byte	.LASF703
 9506 3ae9 06       		.byte	0x6
 9507 3aea 33       		.byte	0x33
 9508 3aeb 2A280000 		.4byte	.LASF704
 9509 3aef 6E6E0000 		.4byte	0x6e6e
 9510 3af3 01       		.byte	0x1
 9511 3af4 FE3A0000 		.4byte	0x3afe
 9512 3af8 14       		.uleb128 0x14
 9513 3af9 60120000 		.4byte	0x1260
 9514 3afd 00       		.byte	0
 9515 3afe 50       		.uleb128 0x50
 9516 3aff B3740000 		.4byte	.LASF627
 9517 3b03 06       		.byte	0x6
 9518 3b04 34       		.byte	0x34
 9519 3b05 63010000 		.4byte	.LASF705
 9520 3b09 AD000000 		.4byte	0xad
 9521 3b0d 01       		.byte	0x1
 9522 3b0e 183B0000 		.4byte	0x3b18
 9523 3b12 14       		.uleb128 0x14
 9524 3b13 AD000000 		.4byte	0xad
 9525 3b17 00       		.byte	0
 9526 3b18 52       		.uleb128 0x52
 9527 3b19 871F0000 		.4byte	.LASF625
 9528 3b1d 06       		.byte	0x6
 9529 3b1e 35       		.byte	0x35
 9530 3b1f 6B280000 		.4byte	.LASF706
 9531 3b23 AD000000 		.4byte	0xad
 9532 3b27 01       		.byte	0x1
 9533 3b28 14       		.uleb128 0x14
 9534 3b29 AD000000 		.4byte	0xad
 9535 3b2d 00       		.byte	0
 9536 3b2e 00       		.byte	0
 9537 3b2f 1B       		.uleb128 0x1b
 9538 3b30 C4390000 		.4byte	0x39c4
 9539 3b34 53       		.uleb128 0x53
 9540 3b35 F7150000 		.4byte	.LASF707
ARM GAS  /tmp/ccytVDiP.s 			page 169


 9541 3b39 10       		.byte	0x10
 9542 3b3a 36       		.byte	0x36
 9543 3b3b 0A       		.byte	0xa
 9544 3b3c 5E6A0000 		.4byte	0x6a5e
 9545 3b40 AF3B0000 		.4byte	0x3baf
 9546 3b44 54       		.uleb128 0x54
 9547 3b45 5E6A0000 		.4byte	0x6a5e
 9548 3b49 00       		.byte	0
 9549 3b4a 01       		.byte	0x1
 9550 3b4b 0A       		.uleb128 0xa
 9551 3b4c ED4A0000 		.4byte	.LASF708
 9552 3b50 36       		.byte	0x36
 9553 3b51 0E       		.byte	0xe
 9554 3b52 CB3B0000 		.4byte	0x3bcb
 9555 3b56 08       		.byte	0x8
 9556 3b57 4A       		.uleb128 0x4a
 9557 3b58 F7150000 		.4byte	.LASF707
 9558 3b5c EB6E0000 		.4byte	0x6eeb
 9559 3b60 01       		.byte	0x1
 9560 3b61 693B0000 		.4byte	0x3b69
 9561 3b65 743B0000 		.4byte	0x3b74
 9562 3b69 2F       		.uleb128 0x2f
 9563 3b6a EB6E0000 		.4byte	0x6eeb
 9564 3b6e 14       		.uleb128 0x14
 9565 3b6f B36E0000 		.4byte	0x6eb3
 9566 3b73 00       		.byte	0
 9567 3b74 30       		.uleb128 0x30
 9568 3b75 F7150000 		.4byte	.LASF707
 9569 3b79 36       		.byte	0x36
 9570 3b7a 11       		.byte	0x11
 9571 3b7b EB6E0000 		.4byte	0x6eeb
 9572 3b7f 02       		.byte	0x2
 9573 3b80 883B0000 		.4byte	0x3b88
 9574 3b84 8E3B0000 		.4byte	0x3b8e
 9575 3b88 2F       		.uleb128 0x2f
 9576 3b89 EB6E0000 		.4byte	0x6eeb
 9577 3b8d 00       		.byte	0
 9578 3b8e 55       		.uleb128 0x55
 9579 3b8f 1A4E0000 		.4byte	.LASF709
 9580 3b93 36       		.byte	0x36
 9581 3b94 12       		.byte	0x12
 9582 3b95 B8000000 		.4byte	0xb8
 9583 3b99 01       		.byte	0x1
 9584 3b9a 343B0000 		.4byte	0x3b34
 9585 3b9e 02       		.byte	0x2
 9586 3b9f A33B0000 		.4byte	0x3ba3
 9587 3ba3 2F       		.uleb128 0x2f
 9588 3ba4 EB6E0000 		.4byte	0x6eeb
 9589 3ba8 2F       		.uleb128 0x2f
 9590 3ba9 94000000 		.4byte	0x94
 9591 3bad 00       		.byte	0
 9592 3bae 00       		.byte	0
 9593 3baf 42       		.uleb128 0x42
 9594 3bb0 A2010000 		.4byte	.LASF710
 9595 3bb4 42       		.uleb128 0x42
 9596 3bb5 DF4F0000 		.4byte	.LASF711
 9597 3bb9 2D       		.uleb128 0x2d
ARM GAS  /tmp/ccytVDiP.s 			page 170


 9598 3bba 22010000 		.4byte	.LASF712
 9599 3bbe 04       		.byte	0x4
 9600 3bbf 15       		.byte	0x15
 9601 3bc0 0F       		.byte	0xf
 9602 3bc1 FB410000 		.4byte	0x41fb
 9603 3bc5 32       		.uleb128 0x32
 9604 3bc6 C31D0000 		.4byte	0x1dc3
 9605 3bca 00       		.byte	0
 9606 3bcb 3F       		.uleb128 0x3f
 9607 3bcc 026D0000 		.4byte	.LASF463
 9608 3bd0 08       		.byte	0x8
 9609 3bd1 15       		.byte	0x15
 9610 3bd2 11       		.byte	0x11
 9611 3bd3 01       		.byte	0x1
 9612 3bd4 0B3C0000 		.4byte	0x3c0b
 9613 3bd8 0A       		.uleb128 0xa
 9614 3bd9 21390000 		.4byte	.LASF461
 9615 3bdd 15       		.byte	0x15
 9616 3bde 12       		.byte	0x12
 9617 3bdf 986E0000 		.4byte	0x6e98
 9618 3be3 00       		.byte	0
 9619 3be4 0A       		.uleb128 0xa
 9620 3be5 54200000 		.4byte	.LASF462
 9621 3be9 15       		.byte	0x15
 9622 3bea 13       		.byte	0x13
 9623 3beb 096F0000 		.4byte	0x6f09
 9624 3bef 04       		.byte	0x4
 9625 3bf0 40       		.uleb128 0x40
 9626 3bf1 026D0000 		.4byte	.LASF463
 9627 3bf5 15       		.byte	0x15
 9628 3bf6 15       		.byte	0x15
 9629 3bf7 986E0000 		.4byte	0x6e98
 9630 3bfb FF3B0000 		.4byte	0x3bff
 9631 3bff 2F       		.uleb128 0x2f
 9632 3c00 986E0000 		.4byte	0x6e98
 9633 3c04 14       		.uleb128 0x14
 9634 3c05 746E0000 		.4byte	0x6e74
 9635 3c09 00       		.byte	0
 9636 3c0a 00       		.byte	0
 9637 3c0b 18       		.uleb128 0x18
 9638 3c0c F7180000 		.4byte	.LASF464
 9639 3c10 15       		.byte	0x15
 9640 3c11 8A01     		.2byte	0x18a
 9641 3c13 986E0000 		.4byte	0x6e98
 9642 3c17 00       		.byte	0
 9643 3c18 41       		.uleb128 0x41
 9644 3c19 0D330000 		.4byte	.LASF713
 9645 3c1d 42       		.uleb128 0x42
 9646 3c1e 1F270000 		.4byte	.LASF465
 9647 3c22 42       		.uleb128 0x42
 9648 3c23 D83A0000 		.4byte	.LASF466
 9649 3c27 42       		.uleb128 0x42
 9650 3c28 09650000 		.4byte	.LASF467
 9651 3c2c 43       		.uleb128 0x43
 9652 3c2d 804B0000 		.4byte	.LASF469
 9653 3c31 04       		.byte	0x4
 9654 3c32 15       		.byte	0x15
ARM GAS  /tmp/ccytVDiP.s 			page 171


 9655 3c33 C0       		.byte	0xc0
 9656 3c34 01       		.byte	0x1
 9657 3c35 9C3D0000 		.4byte	0x3d9c
 9658 3c39 0A       		.uleb128 0xa
 9659 3c3a 5B1A0000 		.4byte	.LASF468
 9660 3c3e 15       		.byte	0x15
 9661 3c3f C4       		.byte	0xc4
 9662 3c40 10710000 		.4byte	0x7110
 9663 3c44 00       		.byte	0
 9664 3c45 30       		.uleb128 0x30
 9665 3c46 804B0000 		.4byte	.LASF469
 9666 3c4a 15       		.byte	0x15
 9667 3c4b C7       		.byte	0xc7
 9668 3c4c 16710000 		.4byte	0x7116
 9669 3c50 01       		.byte	0x1
 9670 3c51 593C0000 		.4byte	0x3c59
 9671 3c55 5F3C0000 		.4byte	0x3c5f
 9672 3c59 2F       		.uleb128 0x2f
 9673 3c5a 16710000 		.4byte	0x7116
 9674 3c5e 00       		.byte	0
 9675 3c5f 30       		.uleb128 0x30
 9676 3c60 804B0000 		.4byte	.LASF469
 9677 3c64 15       		.byte	0x15
 9678 3c65 C8       		.byte	0xc8
 9679 3c66 16710000 		.4byte	0x7116
 9680 3c6a 01       		.byte	0x1
 9681 3c6b 733C0000 		.4byte	0x3c73
 9682 3c6f 7E3C0000 		.4byte	0x3c7e
 9683 3c73 2F       		.uleb128 0x2f
 9684 3c74 16710000 		.4byte	0x7116
 9685 3c78 14       		.uleb128 0x14
 9686 3c79 1C710000 		.4byte	0x711c
 9687 3c7d 00       		.byte	0
 9688 3c7e 2E       		.uleb128 0x2e
 9689 3c7f 804B0000 		.4byte	.LASF469
 9690 3c83 15       		.byte	0x15
 9691 3c84 CB       		.byte	0xcb
 9692 3c85 16710000 		.4byte	0x7116
 9693 3c89 913C0000 		.4byte	0x3c91
 9694 3c8d 9C3C0000 		.4byte	0x3c9c
 9695 3c91 2F       		.uleb128 0x2f
 9696 3c92 16710000 		.4byte	0x7116
 9697 3c96 14       		.uleb128 0x14
 9698 3c97 10710000 		.4byte	0x7110
 9699 3c9b 00       		.byte	0
 9700 3c9c 44       		.uleb128 0x44
 9701 3c9d E3190000 		.4byte	.LASF448
 9702 3ca1 15       		.byte	0x15
 9703 3ca2 CE       		.byte	0xce
 9704 3ca3 D8010000 		.4byte	.LASF714
 9705 3ca7 036F0000 		.4byte	0x6f03
 9706 3cab B33C0000 		.4byte	0x3cb3
 9707 3caf BE3C0000 		.4byte	0x3cbe
 9708 3cb3 2F       		.uleb128 0x2f
 9709 3cb4 16710000 		.4byte	0x7116
 9710 3cb8 14       		.uleb128 0x14
 9711 3cb9 1C710000 		.4byte	0x711c
ARM GAS  /tmp/ccytVDiP.s 			page 172


 9712 3cbd 00       		.byte	0
 9713 3cbe 36       		.uleb128 0x36
 9714 3cbf D2520000 		.4byte	.LASF471
 9715 3cc3 15       		.byte	0x15
 9716 3cc4 D4       		.byte	0xd4
 9717 3cc5 055E0000 		.4byte	.LASF715
 9718 3cc9 22710000 		.4byte	0x7122
 9719 3ccd 01       		.byte	0x1
 9720 3cce D63C0000 		.4byte	0x3cd6
 9721 3cd2 DC3C0000 		.4byte	0x3cdc
 9722 3cd6 2F       		.uleb128 0x2f
 9723 3cd7 28710000 		.4byte	0x7128
 9724 3cdb 00       		.byte	0
 9725 3cdc 36       		.uleb128 0x36
 9726 3cdd 8A190000 		.4byte	.LASF473
 9727 3ce1 15       		.byte	0x15
 9728 3ce2 D8       		.byte	0xd8
 9729 3ce3 6B400000 		.4byte	.LASF716
 9730 3ce7 B36E0000 		.4byte	0x6eb3
 9731 3ceb 01       		.byte	0x1
 9732 3cec F43C0000 		.4byte	0x3cf4
 9733 3cf0 FA3C0000 		.4byte	0x3cfa
 9734 3cf4 2F       		.uleb128 0x2f
 9735 3cf5 28710000 		.4byte	0x7128
 9736 3cf9 00       		.byte	0
 9737 3cfa 36       		.uleb128 0x36
 9738 3cfb D44F0000 		.4byte	.LASF475
 9739 3cff 15       		.byte	0x15
 9740 3d00 DC       		.byte	0xdc
 9741 3d01 F3620000 		.4byte	.LASF717
 9742 3d05 036F0000 		.4byte	0x6f03
 9743 3d09 01       		.byte	0x1
 9744 3d0a 123D0000 		.4byte	0x3d12
 9745 3d0e 183D0000 		.4byte	0x3d18
 9746 3d12 2F       		.uleb128 0x2f
 9747 3d13 16710000 		.4byte	0x7116
 9748 3d17 00       		.byte	0
 9749 3d18 36       		.uleb128 0x36
 9750 3d19 D44F0000 		.4byte	.LASF475
 9751 3d1d 15       		.byte	0x15
 9752 3d1e E3       		.byte	0xe3
 9753 3d1f 51620000 		.4byte	.LASF718
 9754 3d23 8D410000 		.4byte	0x418d
 9755 3d27 01       		.byte	0x1
 9756 3d28 303D0000 		.4byte	0x3d30
 9757 3d2c 3B3D0000 		.4byte	0x3d3b
 9758 3d30 2F       		.uleb128 0x2f
 9759 3d31 16710000 		.4byte	0x7116
 9760 3d35 14       		.uleb128 0x14
 9761 3d36 94000000 		.4byte	0x94
 9762 3d3a 00       		.byte	0
 9763 3d3b 36       		.uleb128 0x36
 9764 3d3c DE760000 		.4byte	.LASF478
 9765 3d40 15       		.byte	0x15
 9766 3d41 EB       		.byte	0xeb
 9767 3d42 216C0000 		.4byte	.LASF719
 9768 3d46 700C0000 		.4byte	0xc70
ARM GAS  /tmp/ccytVDiP.s 			page 173


 9769 3d4a 01       		.byte	0x1
 9770 3d4b 533D0000 		.4byte	0x3d53
 9771 3d4f 5E3D0000 		.4byte	0x3d5e
 9772 3d53 2F       		.uleb128 0x2f
 9773 3d54 28710000 		.4byte	0x7128
 9774 3d58 14       		.uleb128 0x14
 9775 3d59 1C710000 		.4byte	0x711c
 9776 3d5d 00       		.byte	0
 9777 3d5e 36       		.uleb128 0x36
 9778 3d5f C23C0000 		.4byte	.LASF480
 9779 3d63 15       		.byte	0x15
 9780 3d64 EF       		.byte	0xef
 9781 3d65 E6210000 		.4byte	.LASF720
 9782 3d69 700C0000 		.4byte	0xc70
 9783 3d6d 01       		.byte	0x1
 9784 3d6e 763D0000 		.4byte	0x3d76
 9785 3d72 813D0000 		.4byte	0x3d81
 9786 3d76 2F       		.uleb128 0x2f
 9787 3d77 28710000 		.4byte	0x7128
 9788 3d7b 14       		.uleb128 0x14
 9789 3d7c 1C710000 		.4byte	0x711c
 9790 3d80 00       		.byte	0
 9791 3d81 45       		.uleb128 0x45
 9792 3d82 8A500000 		.4byte	.LASF482
 9793 3d86 15       		.byte	0x15
 9794 3d87 F3       		.byte	0xf3
 9795 3d88 6E700000 		.4byte	.LASF721
 9796 3d8c 700C0000 		.4byte	0xc70
 9797 3d90 01       		.byte	0x1
 9798 3d91 953D0000 		.4byte	0x3d95
 9799 3d95 2F       		.uleb128 0x2f
 9800 3d96 28710000 		.4byte	0x7128
 9801 3d9a 00       		.byte	0
 9802 3d9b 00       		.byte	0
 9803 3d9c 06       		.uleb128 0x6
 9804 3d9d 5A200000 		.4byte	.LASF484
 9805 3da1 15       		.byte	0x15
 9806 3da2 8601     		.2byte	0x186
 9807 3da4 9E6E0000 		.4byte	0x6e9e
 9808 3da8 06       		.uleb128 0x6
 9809 3da9 14180000 		.4byte	.LASF485
 9810 3dad 15       		.byte	0x15
 9811 3dae 8701     		.2byte	0x187
 9812 3db0 B96E0000 		.4byte	0x6eb9
 9813 3db4 46       		.uleb128 0x46
 9814 3db5 B4790000 		.4byte	.LASF486
 9815 3db9 15       		.byte	0x15
 9816 3dba 8D01     		.2byte	0x18d
 9817 3dbc C2700000 		.4byte	.LASF722
 9818 3dc0 D36E0000 		.4byte	0x6ed3
 9819 3dc4 01       		.byte	0x1
 9820 3dc5 CD3D0000 		.4byte	0x3dcd
 9821 3dc9 D33D0000 		.4byte	0x3dd3
 9822 3dcd 2F       		.uleb128 0x2f
 9823 3dce D96E0000 		.4byte	0x6ed9
 9824 3dd2 00       		.byte	0
 9825 3dd3 1B       		.uleb128 0x1b
ARM GAS  /tmp/ccytVDiP.s 			page 174


 9826 3dd4 CB3B0000 		.4byte	0x3bcb
 9827 3dd8 46       		.uleb128 0x46
 9828 3dd9 BC730000 		.4byte	.LASF487
 9829 3ddd 15       		.byte	0x15
 9830 3dde 9101     		.2byte	0x191
 9831 3de0 CC5C0000 		.4byte	.LASF723
 9832 3de4 700C0000 		.4byte	0xc70
 9833 3de8 01       		.byte	0x1
 9834 3de9 F13D0000 		.4byte	0x3df1
 9835 3ded F73D0000 		.4byte	0x3df7
 9836 3df1 2F       		.uleb128 0x2f
 9837 3df2 D96E0000 		.4byte	0x6ed9
 9838 3df6 00       		.byte	0
 9839 3df7 46       		.uleb128 0x46
 9840 3df8 1F260000 		.4byte	.LASF490
 9841 3dfc 15       		.byte	0x15
 9842 3dfd 0302     		.2byte	0x203
 9843 3dff 54530000 		.4byte	.LASF724
 9844 3e03 AD000000 		.4byte	0xad
 9845 3e07 01       		.byte	0x1
 9846 3e08 103E0000 		.4byte	0x3e10
 9847 3e0c 163E0000 		.4byte	0x3e16
 9848 3e10 2F       		.uleb128 0x2f
 9849 3e11 D96E0000 		.4byte	0x6ed9
 9850 3e15 00       		.byte	0
 9851 3e16 47       		.uleb128 0x47
 9852 3e17 8E580000 		.4byte	.LASF492
 9853 3e1b 15       		.byte	0x15
 9854 3e1c 9701     		.2byte	0x197
 9855 3e1e 3E590000 		.4byte	.LASF725
 9856 3e22 01       		.byte	0x1
 9857 3e23 2B3E0000 		.4byte	0x3e2b
 9858 3e27 363E0000 		.4byte	0x3e36
 9859 3e2b 2F       		.uleb128 0x2f
 9860 3e2c DF6E0000 		.4byte	0x6edf
 9861 3e30 14       		.uleb128 0x14
 9862 3e31 E56E0000 		.4byte	0x6ee5
 9863 3e35 00       		.byte	0
 9864 3e36 47       		.uleb128 0x47
 9865 3e37 DB630000 		.4byte	.LASF493
 9866 3e3b 15       		.byte	0x15
 9867 3e3c 9F01     		.2byte	0x19f
 9868 3e3e 960D0000 		.4byte	.LASF726
 9869 3e42 01       		.byte	0x1
 9870 3e43 4B3E0000 		.4byte	0x3e4b
 9871 3e47 563E0000 		.4byte	0x3e56
 9872 3e4b 2F       		.uleb128 0x2f
 9873 3e4c DF6E0000 		.4byte	0x6edf
 9874 3e50 14       		.uleb128 0x14
 9875 3e51 E56E0000 		.4byte	0x6ee5
 9876 3e55 00       		.byte	0
 9877 3e56 46       		.uleb128 0x46
 9878 3e57 B8330000 		.4byte	.LASF496
 9879 3e5b 15       		.byte	0x15
 9880 3e5c 0E02     		.2byte	0x20e
 9881 3e5e 392A0000 		.4byte	.LASF727
 9882 3e62 700C0000 		.4byte	0xc70
ARM GAS  /tmp/ccytVDiP.s 			page 175


 9883 3e66 01       		.byte	0x1
 9884 3e67 6F3E0000 		.4byte	0x3e6f
 9885 3e6b 7A3E0000 		.4byte	0x3e7a
 9886 3e6f 2F       		.uleb128 0x2f
 9887 3e70 DF6E0000 		.4byte	0x6edf
 9888 3e74 14       		.uleb128 0x14
 9889 3e75 E56E0000 		.4byte	0x6ee5
 9890 3e79 00       		.byte	0
 9891 3e7a 46       		.uleb128 0x46
 9892 3e7b 2D440000 		.4byte	.LASF498
 9893 3e7f 15       		.byte	0x15
 9894 3e80 1F02     		.2byte	0x21f
 9895 3e82 076D0000 		.4byte	.LASF728
 9896 3e86 94000000 		.4byte	0x94
 9897 3e8a 01       		.byte	0x1
 9898 3e8b 933E0000 		.4byte	0x3e93
 9899 3e8f 9E3E0000 		.4byte	0x3e9e
 9900 3e93 2F       		.uleb128 0x2f
 9901 3e94 D96E0000 		.4byte	0x6ed9
 9902 3e98 14       		.uleb128 0x14
 9903 3e99 B36E0000 		.4byte	0x6eb3
 9904 3e9d 00       		.byte	0
 9905 3e9e 46       		.uleb128 0x46
 9906 3e9f 1B5F0000 		.4byte	.LASF500
 9907 3ea3 15       		.byte	0x15
 9908 3ea4 2C02     		.2byte	0x22c
 9909 3ea6 951A0000 		.4byte	.LASF729
 9910 3eaa 700C0000 		.4byte	0xc70
 9911 3eae 01       		.byte	0x1
 9912 3eaf B73E0000 		.4byte	0x3eb7
 9913 3eb3 C23E0000 		.4byte	0x3ec2
 9914 3eb7 2F       		.uleb128 0x2f
 9915 3eb8 D96E0000 		.4byte	0x6ed9
 9916 3ebc 14       		.uleb128 0x14
 9917 3ebd B36E0000 		.4byte	0x6eb3
 9918 3ec1 00       		.byte	0
 9919 3ec2 46       		.uleb128 0x46
 9920 3ec3 42400000 		.4byte	.LASF502
 9921 3ec7 15       		.byte	0x15
 9922 3ec8 3802     		.2byte	0x238
 9923 3eca 30500000 		.4byte	.LASF730
 9924 3ece EB6E0000 		.4byte	0x6eeb
 9925 3ed2 01       		.byte	0x1
 9926 3ed3 DB3E0000 		.4byte	0x3edb
 9927 3ed7 E63E0000 		.4byte	0x3ee6
 9928 3edb 2F       		.uleb128 0x2f
 9929 3edc D96E0000 		.4byte	0x6ed9
 9930 3ee0 14       		.uleb128 0x14
 9931 3ee1 9C3D0000 		.4byte	0x3d9c
 9932 3ee5 00       		.byte	0
 9933 3ee6 46       		.uleb128 0x46
 9934 3ee7 42400000 		.4byte	.LASF502
 9935 3eeb 15       		.byte	0x15
 9936 3eec 4402     		.2byte	0x244
 9937 3eee 99240000 		.4byte	.LASF731
 9938 3ef2 EB6E0000 		.4byte	0x6eeb
 9939 3ef6 01       		.byte	0x1
ARM GAS  /tmp/ccytVDiP.s 			page 176


 9940 3ef7 FF3E0000 		.4byte	0x3eff
 9941 3efb 0F3F0000 		.4byte	0x3f0f
 9942 3eff 2F       		.uleb128 0x2f
 9943 3f00 D96E0000 		.4byte	0x6ed9
 9944 3f04 14       		.uleb128 0x14
 9945 3f05 A83D0000 		.4byte	0x3da8
 9946 3f09 14       		.uleb128 0x14
 9947 3f0a C16C0000 		.4byte	0x6cc1
 9948 3f0e 00       		.byte	0
 9949 3f0f 46       		.uleb128 0x46
 9950 3f10 9B130000 		.4byte	.LASF505
 9951 3f14 15       		.byte	0x15
 9952 3f15 B301     		.2byte	0x1b3
 9953 3f17 142E0000 		.4byte	.LASF732
 9954 3f1b 2E3F0000 		.4byte	0x3f2e
 9955 3f1f 01       		.byte	0x1
 9956 3f20 283F0000 		.4byte	0x3f28
 9957 3f24 2E3F0000 		.4byte	0x3f2e
 9958 3f28 2F       		.uleb128 0x2f
 9959 3f29 DF6E0000 		.4byte	0x6edf
 9960 3f2d 00       		.byte	0
 9961 3f2e 1B       		.uleb128 0x1b
 9962 3f2f 1D3C0000 		.4byte	0x3c1d
 9963 3f33 46       		.uleb128 0x46
 9964 3f34 D43C0000 		.4byte	.LASF507
 9965 3f38 15       		.byte	0x15
 9966 3f39 B701     		.2byte	0x1b7
 9967 3f3b C9120000 		.4byte	.LASF733
 9968 3f3f 2E3F0000 		.4byte	0x3f2e
 9969 3f43 01       		.byte	0x1
 9970 3f44 4C3F0000 		.4byte	0x3f4c
 9971 3f48 523F0000 		.4byte	0x3f52
 9972 3f4c 2F       		.uleb128 0x2f
 9973 3f4d DF6E0000 		.4byte	0x6edf
 9974 3f51 00       		.byte	0
 9975 3f52 47       		.uleb128 0x47
 9976 3f53 1B7A0000 		.4byte	.LASF509
 9977 3f57 15       		.byte	0x15
 9978 3f58 BB01     		.2byte	0x1bb
 9979 3f5a 834F0000 		.4byte	.LASF734
 9980 3f5e 01       		.byte	0x1
 9981 3f5f 673F0000 		.4byte	0x3f67
 9982 3f63 723F0000 		.4byte	0x3f72
 9983 3f67 2F       		.uleb128 0x2f
 9984 3f68 DF6E0000 		.4byte	0x6edf
 9985 3f6c 14       		.uleb128 0x14
 9986 3f6d F16E0000 		.4byte	0x6ef1
 9987 3f71 00       		.byte	0
 9988 3f72 46       		.uleb128 0x46
 9989 3f73 9B130000 		.4byte	.LASF505
 9990 3f77 15       		.byte	0x15
 9991 3f78 BF01     		.2byte	0x1bf
 9992 3f7a 94270000 		.4byte	.LASF735
 9993 3f7e 913F0000 		.4byte	0x3f91
 9994 3f82 01       		.byte	0x1
 9995 3f83 8B3F0000 		.4byte	0x3f8b
 9996 3f87 913F0000 		.4byte	0x3f91
ARM GAS  /tmp/ccytVDiP.s 			page 177


 9997 3f8b 2F       		.uleb128 0x2f
 9998 3f8c D96E0000 		.4byte	0x6ed9
 9999 3f90 00       		.byte	0
 10000 3f91 1B       		.uleb128 0x1b
 10001 3f92 223C0000 		.4byte	0x3c22
 10002 3f96 46       		.uleb128 0x46
 10003 3f97 D43C0000 		.4byte	.LASF507
 10004 3f9b 15       		.byte	0x15
 10005 3f9c C301     		.2byte	0x1c3
 10006 3f9e 12550000 		.4byte	.LASF736
 10007 3fa2 913F0000 		.4byte	0x3f91
 10008 3fa6 01       		.byte	0x1
 10009 3fa7 AF3F0000 		.4byte	0x3faf
 10010 3fab B53F0000 		.4byte	0x3fb5
 10011 3faf 2F       		.uleb128 0x2f
 10012 3fb0 D96E0000 		.4byte	0x6ed9
 10013 3fb4 00       		.byte	0
 10014 3fb5 47       		.uleb128 0x47
 10015 3fb6 1B7A0000 		.4byte	.LASF509
 10016 3fba 15       		.byte	0x15
 10017 3fbb C701     		.2byte	0x1c7
 10018 3fbd 882C0000 		.4byte	.LASF737
 10019 3fc1 01       		.byte	0x1
 10020 3fc2 CA3F0000 		.4byte	0x3fca
 10021 3fc6 D53F0000 		.4byte	0x3fd5
 10022 3fca 2F       		.uleb128 0x2f
 10023 3fcb D96E0000 		.4byte	0x6ed9
 10024 3fcf 14       		.uleb128 0x14
 10025 3fd0 F76E0000 		.4byte	0x6ef7
 10026 3fd4 00       		.byte	0
 10027 3fd5 46       		.uleb128 0x46
 10028 3fd6 826D0000 		.4byte	.LASF514
 10029 3fda 15       		.byte	0x15
 10030 3fdb 5302     		.2byte	0x253
 10031 3fdd 4E5D0000 		.4byte	.LASF738
 10032 3fe1 D36E0000 		.4byte	0x6ed3
 10033 3fe5 01       		.byte	0x1
 10034 3fe6 EE3F0000 		.4byte	0x3fee
 10035 3fea F43F0000 		.4byte	0x3ff4
 10036 3fee 2F       		.uleb128 0x2f
 10037 3fef D96E0000 		.4byte	0x6ed9
 10038 3ff3 00       		.byte	0
 10039 3ff4 46       		.uleb128 0x46
 10040 3ff5 3C710000 		.4byte	.LASF516
 10041 3ff9 15       		.byte	0x15
 10042 3ffa 5D02     		.2byte	0x25d
 10043 3ffc F00D0000 		.4byte	.LASF739
 10044 4000 700C0000 		.4byte	0xc70
 10045 4004 01       		.byte	0x1
 10046 4005 0D400000 		.4byte	0x400d
 10047 4009 13400000 		.4byte	0x4013
 10048 400d 2F       		.uleb128 0x2f
 10049 400e D96E0000 		.4byte	0x6ed9
 10050 4012 00       		.byte	0
 10051 4013 46       		.uleb128 0x46
 10052 4014 C3400000 		.4byte	.LASF518
 10053 4018 15       		.byte	0x15
ARM GAS  /tmp/ccytVDiP.s 			page 178


 10054 4019 6702     		.2byte	0x267
 10055 401b ED520000 		.4byte	.LASF740
 10056 401f AD000000 		.4byte	0xad
 10057 4023 01       		.byte	0x1
 10058 4024 2C400000 		.4byte	0x402c
 10059 4028 32400000 		.4byte	0x4032
 10060 402c 2F       		.uleb128 0x2f
 10061 402d D96E0000 		.4byte	0x6ed9
 10062 4031 00       		.byte	0
 10063 4032 47       		.uleb128 0x47
 10064 4033 2C260000 		.4byte	.LASF520
 10065 4037 15       		.byte	0x15
 10066 4038 7602     		.2byte	0x276
 10067 403a 62090000 		.4byte	.LASF741
 10068 403e 01       		.byte	0x1
 10069 403f 47400000 		.4byte	0x4047
 10070 4043 52400000 		.4byte	0x4052
 10071 4047 2F       		.uleb128 0x2f
 10072 4048 DF6E0000 		.4byte	0x6edf
 10073 404c 14       		.uleb128 0x14
 10074 404d E56E0000 		.4byte	0x6ee5
 10075 4051 00       		.byte	0
 10076 4052 46       		.uleb128 0x46
 10077 4053 83190000 		.4byte	.LASF522
 10078 4057 15       		.byte	0x15
 10079 4058 8002     		.2byte	0x280
 10080 405a 32220000 		.4byte	.LASF742
 10081 405e 700C0000 		.4byte	0xc70
 10082 4062 01       		.byte	0x1
 10083 4063 6B400000 		.4byte	0x406b
 10084 4067 76400000 		.4byte	0x4076
 10085 406b 2F       		.uleb128 0x2f
 10086 406c DF6E0000 		.4byte	0x6edf
 10087 4070 14       		.uleb128 0x14
 10088 4071 E56E0000 		.4byte	0x6ee5
 10089 4075 00       		.byte	0
 10090 4076 46       		.uleb128 0x46
 10091 4077 55460000 		.4byte	.LASF524
 10092 407b 15       		.byte	0x15
 10093 407c 8A02     		.2byte	0x28a
 10094 407e B8020000 		.4byte	.LASF743
 10095 4082 94000000 		.4byte	0x94
 10096 4086 01       		.byte	0x1
 10097 4087 8F400000 		.4byte	0x408f
 10098 408b 9A400000 		.4byte	0x409a
 10099 408f 2F       		.uleb128 0x2f
 10100 4090 D96E0000 		.4byte	0x6ed9
 10101 4094 14       		.uleb128 0x14
 10102 4095 B36E0000 		.4byte	0x6eb3
 10103 4099 00       		.byte	0
 10104 409a 46       		.uleb128 0x46
 10105 409b 972E0000 		.4byte	.LASF526
 10106 409f 15       		.byte	0x15
 10107 40a0 9B02     		.2byte	0x29b
 10108 40a2 AD0B0000 		.4byte	.LASF744
 10109 40a6 700C0000 		.4byte	0xc70
 10110 40aa 01       		.byte	0x1
ARM GAS  /tmp/ccytVDiP.s 			page 179


 10111 40ab B3400000 		.4byte	0x40b3
 10112 40af BE400000 		.4byte	0x40be
 10113 40b3 2F       		.uleb128 0x2f
 10114 40b4 D96E0000 		.4byte	0x6ed9
 10115 40b8 14       		.uleb128 0x14
 10116 40b9 B36E0000 		.4byte	0x6eb3
 10117 40bd 00       		.byte	0
 10118 40be 46       		.uleb128 0x46
 10119 40bf 3F4A0000 		.4byte	.LASF528
 10120 40c3 15       		.byte	0x15
 10121 40c4 AC02     		.2byte	0x2ac
 10122 40c6 C8640000 		.4byte	.LASF745
 10123 40ca EB6E0000 		.4byte	0x6eeb
 10124 40ce 01       		.byte	0x1
 10125 40cf D7400000 		.4byte	0x40d7
 10126 40d3 E2400000 		.4byte	0x40e2
 10127 40d7 2F       		.uleb128 0x2f
 10128 40d8 D96E0000 		.4byte	0x6ed9
 10129 40dc 14       		.uleb128 0x14
 10130 40dd 9C3D0000 		.4byte	0x3d9c
 10131 40e1 00       		.byte	0
 10132 40e2 46       		.uleb128 0x46
 10133 40e3 3F4A0000 		.4byte	.LASF528
 10134 40e7 15       		.byte	0x15
 10135 40e8 BC02     		.2byte	0x2bc
 10136 40ea 6D790000 		.4byte	.LASF746
 10137 40ee EB6E0000 		.4byte	0x6eeb
 10138 40f2 01       		.byte	0x1
 10139 40f3 FB400000 		.4byte	0x40fb
 10140 40f7 0B410000 		.4byte	0x410b
 10141 40fb 2F       		.uleb128 0x2f
 10142 40fc D96E0000 		.4byte	0x6ed9
 10143 4100 14       		.uleb128 0x14
 10144 4101 A83D0000 		.4byte	0x3da8
 10145 4105 14       		.uleb128 0x14
 10146 4106 C16C0000 		.4byte	0x6cc1
 10147 410a 00       		.byte	0
 10148 410b 46       		.uleb128 0x46
 10149 410c 10790000 		.4byte	.LASF531
 10150 4110 15       		.byte	0x15
 10151 4111 E001     		.2byte	0x1e0
 10152 4113 B6450000 		.4byte	.LASF747
 10153 4117 2A410000 		.4byte	0x412a
 10154 411b 01       		.byte	0x1
 10155 411c 24410000 		.4byte	0x4124
 10156 4120 2A410000 		.4byte	0x412a
 10157 4124 2F       		.uleb128 0x2f
 10158 4125 DF6E0000 		.4byte	0x6edf
 10159 4129 00       		.byte	0
 10160 412a 1B       		.uleb128 0x1b
 10161 412b 273C0000 		.4byte	0x3c27
 10162 412f 48       		.uleb128 0x48
 10163 4130 656E6400 		.ascii	"end\000"
 10164 4134 15       		.byte	0x15
 10165 4135 E401     		.2byte	0x1e4
 10166 4137 D1530000 		.4byte	.LASF748
 10167 413b 2A410000 		.4byte	0x412a
ARM GAS  /tmp/ccytVDiP.s 			page 180


 10168 413f 01       		.byte	0x1
 10169 4140 48410000 		.4byte	0x4148
 10170 4144 4E410000 		.4byte	0x414e
 10171 4148 2F       		.uleb128 0x2f
 10172 4149 DF6E0000 		.4byte	0x6edf
 10173 414d 00       		.byte	0
 10174 414e 47       		.uleb128 0x47
 10175 414f 10170000 		.4byte	.LASF533
 10176 4153 15       		.byte	0x15
 10177 4154 E801     		.2byte	0x1e8
 10178 4156 C7540000 		.4byte	.LASF749
 10179 415a 01       		.byte	0x1
 10180 415b 63410000 		.4byte	0x4163
 10181 415f 6E410000 		.4byte	0x416e
 10182 4163 2F       		.uleb128 0x2f
 10183 4164 DF6E0000 		.4byte	0x6edf
 10184 4168 14       		.uleb128 0x14
 10185 4169 FD6E0000 		.4byte	0x6efd
 10186 416d 00       		.byte	0
 10187 416e 46       		.uleb128 0x46
 10188 416f 10790000 		.4byte	.LASF531
 10189 4173 15       		.byte	0x15
 10190 4174 EC01     		.2byte	0x1ec
 10191 4176 223D0000 		.4byte	.LASF750
 10192 417a 8D410000 		.4byte	0x418d
 10193 417e 01       		.byte	0x1
 10194 417f 87410000 		.4byte	0x4187
 10195 4183 8D410000 		.4byte	0x418d
 10196 4187 2F       		.uleb128 0x2f
 10197 4188 D96E0000 		.4byte	0x6ed9
 10198 418c 00       		.byte	0
 10199 418d 1B       		.uleb128 0x1b
 10200 418e 2C3C0000 		.4byte	0x3c2c
 10201 4192 48       		.uleb128 0x48
 10202 4193 656E6400 		.ascii	"end\000"
 10203 4197 15       		.byte	0x15
 10204 4198 F201     		.2byte	0x1f2
 10205 419a CD720000 		.4byte	.LASF751
 10206 419e 8D410000 		.4byte	0x418d
 10207 41a2 01       		.byte	0x1
 10208 41a3 AB410000 		.4byte	0x41ab
 10209 41a7 B1410000 		.4byte	0x41b1
 10210 41ab 2F       		.uleb128 0x2f
 10211 41ac D96E0000 		.4byte	0x6ed9
 10212 41b0 00       		.byte	0
 10213 41b1 47       		.uleb128 0x47
 10214 41b2 10170000 		.4byte	.LASF533
 10215 41b6 15       		.byte	0x15
 10216 41b7 F601     		.2byte	0x1f6
 10217 41b9 96440000 		.4byte	.LASF752
 10218 41bd 01       		.byte	0x1
 10219 41be C6410000 		.4byte	0x41c6
 10220 41c2 D1410000 		.4byte	0x41d1
 10221 41c6 2F       		.uleb128 0x2f
 10222 41c7 D96E0000 		.4byte	0x6ed9
 10223 41cb 14       		.uleb128 0x14
 10224 41cc 036F0000 		.4byte	0x6f03
ARM GAS  /tmp/ccytVDiP.s 			page 181


 10225 41d0 00       		.byte	0
 10226 41d1 49       		.uleb128 0x49
 10227 41d2 19140000 		.4byte	.LASF539
 10228 41d6 15       		.byte	0x15
 10229 41d7 FA01     		.2byte	0x1fa
 10230 41d9 DF6E0000 		.4byte	0x6edf
 10231 41dd 01       		.byte	0x1
 10232 41de E6410000 		.4byte	0x41e6
 10233 41e2 EC410000 		.4byte	0x41ec
 10234 41e6 2F       		.uleb128 0x2f
 10235 41e7 DF6E0000 		.4byte	0x6edf
 10236 41eb 00       		.byte	0
 10237 41ec 1B       		.uleb128 0x1b
 10238 41ed 183C0000 		.4byte	0x3c18
 10239 41f1 4B       		.uleb128 0x4b
 10240 41f2 D7130000 		.4byte	.LASF541
 10241 41f6 343B0000 		.4byte	0x3b34
 10242 41fa 00       		.byte	0
 10243 41fb 1B       		.uleb128 0x1b
 10244 41fc 343B0000 		.4byte	0x3b34
 10245 4200 1B       		.uleb128 0x1b
 10246 4201 B93B0000 		.4byte	0x3bb9
 10247 4205 2D       		.uleb128 0x2d
 10248 4206 A8220000 		.4byte	.LASF753
 10249 420a 14       		.byte	0x14
 10250 420b 13       		.byte	0x13
 10251 420c 09       		.byte	0x9
 10252 420d 85430000 		.4byte	0x4385
 10253 4211 32       		.uleb128 0x32
 10254 4212 C31D0000 		.4byte	0x1dc3
 10255 4216 00       		.byte	0
 10256 4217 0A       		.uleb128 0xa
 10257 4218 26360000 		.4byte	.LASF754
 10258 421c 13       		.byte	0x13
 10259 421d 0B       		.byte	0xb
 10260 421e 0E6F0000 		.4byte	0x6f0e
 10261 4222 00       		.byte	0
 10262 4223 0A       		.uleb128 0xa
 10263 4224 BD070000 		.4byte	.LASF755
 10264 4228 13       		.byte	0x13
 10265 4229 0C       		.byte	0xc
 10266 422a AD000000 		.4byte	0xad
 10267 422e 04       		.byte	0x4
 10268 422f 0A       		.uleb128 0xa
 10269 4230 C3400000 		.4byte	.LASF518
 10270 4234 13       		.byte	0x13
 10271 4235 0D       		.byte	0xd
 10272 4236 AD000000 		.4byte	0xad
 10273 423a 08       		.byte	0x8
 10274 423b 0A       		.uleb128 0xa
 10275 423c F7180000 		.4byte	.LASF464
 10276 4240 13       		.byte	0x13
 10277 4241 0E       		.byte	0xe
 10278 4242 0E6F0000 		.4byte	0x6f0e
 10279 4246 0C       		.byte	0xc
 10280 4247 0A       		.uleb128 0xa
 10281 4248 5E2C0000 		.4byte	.LASF756
ARM GAS  /tmp/ccytVDiP.s 			page 182


 10282 424c 13       		.byte	0x13
 10283 424d 0F       		.byte	0xf
 10284 424e 0E6F0000 		.4byte	0x6f0e
 10285 4252 10       		.byte	0x10
 10286 4253 36       		.uleb128 0x36
 10287 4254 58630000 		.4byte	.LASF757
 10288 4258 13       		.byte	0x13
 10289 4259 25       		.byte	0x25
 10290 425a D8500000 		.4byte	.LASF758
 10291 425e 700C0000 		.4byte	0xc70
 10292 4262 01       		.byte	0x1
 10293 4263 6B420000 		.4byte	0x426b
 10294 4267 76420000 		.4byte	0x4276
 10295 426b 2F       		.uleb128 0x2f
 10296 426c 146F0000 		.4byte	0x6f14
 10297 4270 14       		.uleb128 0x14
 10298 4271 626E0000 		.4byte	0x6e62
 10299 4275 00       		.byte	0
 10300 4276 36       		.uleb128 0x36
 10301 4277 7F430000 		.4byte	.LASF543
 10302 427b 13       		.byte	0x13
 10303 427c 34       		.byte	0x34
 10304 427d 33360000 		.4byte	.LASF759
 10305 4281 700C0000 		.4byte	0xc70
 10306 4285 01       		.byte	0x1
 10307 4286 8E420000 		.4byte	0x428e
 10308 428a 99420000 		.4byte	0x4299
 10309 428e 2F       		.uleb128 0x2f
 10310 428f 146F0000 		.4byte	0x6f14
 10311 4293 14       		.uleb128 0x14
 10312 4294 1A6F0000 		.4byte	0x6f1a
 10313 4298 00       		.byte	0
 10314 4299 36       		.uleb128 0x36
 10315 429a CA470000 		.4byte	.LASF760
 10316 429e 13       		.byte	0x13
 10317 429f 43       		.byte	0x43
 10318 42a0 58180000 		.4byte	.LASF761
 10319 42a4 700C0000 		.4byte	0xc70
 10320 42a8 01       		.byte	0x1
 10321 42a9 B1420000 		.4byte	0x42b1
 10322 42ad B7420000 		.4byte	0x42b7
 10323 42b1 2F       		.uleb128 0x2f
 10324 42b2 146F0000 		.4byte	0x6f14
 10325 42b6 00       		.byte	0
 10326 42b7 36       		.uleb128 0x36
 10327 42b8 CC070000 		.4byte	.LASF762
 10328 42bc 13       		.byte	0x13
 10329 42bd 51       		.byte	0x51
 10330 42be 6F220000 		.4byte	.LASF763
 10331 42c2 AD000000 		.4byte	0xad
 10332 42c6 01       		.byte	0x1
 10333 42c7 CF420000 		.4byte	0x42cf
 10334 42cb D5420000 		.4byte	0x42d5
 10335 42cf 2F       		.uleb128 0x2f
 10336 42d0 206F0000 		.4byte	0x6f20
 10337 42d4 00       		.byte	0
 10338 42d5 36       		.uleb128 0x36
ARM GAS  /tmp/ccytVDiP.s 			page 183


 10339 42d6 0A5D0000 		.4byte	.LASF764
 10340 42da 13       		.byte	0x13
 10341 42db 58       		.byte	0x58
 10342 42dc 38600000 		.4byte	.LASF765
 10343 42e0 AD000000 		.4byte	0xad
 10344 42e4 01       		.byte	0x1
 10345 42e5 ED420000 		.4byte	0x42ed
 10346 42e9 F3420000 		.4byte	0x42f3
 10347 42ed 2F       		.uleb128 0x2f
 10348 42ee 206F0000 		.4byte	0x6f20
 10349 42f2 00       		.byte	0
 10350 42f3 36       		.uleb128 0x36
 10351 42f4 9D600000 		.4byte	.LASF766
 10352 42f8 13       		.byte	0x13
 10353 42f9 5F       		.byte	0x5f
 10354 42fa 2D4D0000 		.4byte	.LASF767
 10355 42fe 700C0000 		.4byte	0xc70
 10356 4302 01       		.byte	0x1
 10357 4303 0B430000 		.4byte	0x430b
 10358 4307 16430000 		.4byte	0x4316
 10359 430b 2F       		.uleb128 0x2f
 10360 430c 146F0000 		.4byte	0x6f14
 10361 4310 14       		.uleb128 0x14
 10362 4311 626E0000 		.4byte	0x6e62
 10363 4315 00       		.byte	0
 10364 4316 36       		.uleb128 0x36
 10365 4317 592E0000 		.4byte	.LASF768
 10366 431b 13       		.byte	0x13
 10367 431c 69       		.byte	0x69
 10368 431d 19680000 		.4byte	.LASF769
 10369 4321 700C0000 		.4byte	0xc70
 10370 4325 01       		.byte	0x1
 10371 4326 2E430000 		.4byte	0x432e
 10372 432a 39430000 		.4byte	0x4339
 10373 432e 2F       		.uleb128 0x2f
 10374 432f 146F0000 		.4byte	0x6f14
 10375 4333 14       		.uleb128 0x14
 10376 4334 1A6F0000 		.4byte	0x6f1a
 10377 4338 00       		.byte	0
 10378 4339 36       		.uleb128 0x36
 10379 433a 3E1E0000 		.4byte	.LASF770
 10380 433e 13       		.byte	0x13
 10381 433f 73       		.byte	0x73
 10382 4340 73600000 		.4byte	.LASF771
 10383 4344 700C0000 		.4byte	0xc70
 10384 4348 01       		.byte	0x1
 10385 4349 51430000 		.4byte	0x4351
 10386 434d 57430000 		.4byte	0x4357
 10387 4351 2F       		.uleb128 0x2f
 10388 4352 146F0000 		.4byte	0x6f14
 10389 4356 00       		.byte	0
 10390 4357 30       		.uleb128 0x30
 10391 4358 61660000 		.4byte	.LASF772
 10392 435c 13       		.byte	0x13
 10393 435d 7D       		.byte	0x7d
 10394 435e 146F0000 		.4byte	0x6f14
 10395 4362 01       		.byte	0x1
ARM GAS  /tmp/ccytVDiP.s 			page 184


 10396 4363 6B430000 		.4byte	0x436b
 10397 4367 7B430000 		.4byte	0x437b
 10398 436b 2F       		.uleb128 0x2f
 10399 436c 146F0000 		.4byte	0x6f14
 10400 4370 14       		.uleb128 0x14
 10401 4371 0E6F0000 		.4byte	0x6f0e
 10402 4375 14       		.uleb128 0x14
 10403 4376 AD000000 		.4byte	0xad
 10404 437a 00       		.byte	0
 10405 437b 4B       		.uleb128 0x4b
 10406 437c D7130000 		.4byte	.LASF541
 10407 4380 626E0000 		.4byte	0x6e62
 10408 4384 00       		.byte	0
 10409 4385 1B       		.uleb128 0x1b
 10410 4386 05420000 		.4byte	0x4205
 10411 438a 2D       		.uleb128 0x2d
 10412 438b FE780000 		.4byte	.LASF773
 10413 438f 4C       		.byte	0x4c
 10414 4390 08       		.byte	0x8
 10415 4391 0C       		.byte	0xc
 10416 4392 44450000 		.4byte	0x4544
 10417 4396 0A       		.uleb128 0xa
 10418 4397 F5220000 		.4byte	.LASF408
 10419 439b 08       		.byte	0x8
 10420 439c 0E       		.byte	0xe
 10421 439d CF0C0000 		.4byte	0xccf
 10422 43a1 00       		.byte	0
 10423 43a2 35       		.uleb128 0x35
 10424 43a3 E84D0000 		.4byte	.LASF774
 10425 43a7 08       		.byte	0x8
 10426 43a8 1C       		.byte	0x1c
 10427 43a9 980C0000 		.4byte	0xc98
 10428 43ad 01       		.byte	0x1
 10429 43ae 35       		.uleb128 0x35
 10430 43af 711F0000 		.4byte	.LASF775
 10431 43b3 08       		.byte	0x8
 10432 43b4 1D       		.byte	0x1d
 10433 43b5 71110000 		.4byte	0x1171
 10434 43b9 01       		.byte	0x1
 10435 43ba 35       		.uleb128 0x35
 10436 43bb B5150000 		.4byte	.LASF776
 10437 43bf 08       		.byte	0x8
 10438 43c0 1E       		.byte	0x1e
 10439 43c1 A30C0000 		.4byte	0xca3
 10440 43c5 01       		.byte	0x1
 10441 43c6 35       		.uleb128 0x35
 10442 43c7 23370000 		.4byte	.LASF777
 10443 43cb 08       		.byte	0x8
 10444 43cc 1F       		.byte	0x1f
 10445 43cd B8000000 		.4byte	0xb8
 10446 43d1 01       		.byte	0x1
 10447 43d2 36       		.uleb128 0x36
 10448 43d3 05480000 		.4byte	.LASF621
 10449 43d7 08       		.byte	0x8
 10450 43d8 22       		.byte	0x22
 10451 43d9 78270000 		.4byte	.LASF778
 10452 43dd 13070000 		.4byte	0x713
ARM GAS  /tmp/ccytVDiP.s 			page 185


 10453 43e1 01       		.byte	0x1
 10454 43e2 EA430000 		.4byte	0x43ea
 10455 43e6 F0430000 		.4byte	0x43f0
 10456 43ea 2F       		.uleb128 0x2f
 10457 43eb 2B6F0000 		.4byte	0x6f2b
 10458 43ef 00       		.byte	0
 10459 43f0 36       		.uleb128 0x36
 10460 43f1 20040000 		.4byte	.LASF423
 10461 43f5 08       		.byte	0x8
 10462 43f6 24       		.byte	0x24
 10463 43f7 EC630000 		.4byte	.LASF779
 10464 43fb 316F0000 		.4byte	0x6f31
 10465 43ff 01       		.byte	0x1
 10466 4400 08440000 		.4byte	0x4408
 10467 4404 0E440000 		.4byte	0x440e
 10468 4408 2F       		.uleb128 0x2f
 10469 4409 376F0000 		.4byte	0x6f37
 10470 440d 00       		.byte	0
 10471 440e 2E       		.uleb128 0x2e
 10472 440f FE780000 		.4byte	.LASF773
 10473 4413 08       		.byte	0x8
 10474 4414 27       		.byte	0x27
 10475 4415 376F0000 		.4byte	0x6f37
 10476 4419 21440000 		.4byte	0x4421
 10477 441d 27440000 		.4byte	0x4427
 10478 4421 2F       		.uleb128 0x2f
 10479 4422 376F0000 		.4byte	0x6f37
 10480 4426 00       		.byte	0
 10481 4427 50       		.uleb128 0x50
 10482 4428 4A1F0000 		.4byte	.LASF780
 10483 442c 08       		.byte	0x8
 10484 442d 2A       		.byte	0x2a
 10485 442e 78760000 		.4byte	.LASF781
 10486 4432 AD000000 		.4byte	0xad
 10487 4436 01       		.byte	0x1
 10488 4437 41440000 		.4byte	0x4441
 10489 443b 14       		.uleb128 0x14
 10490 443c AD000000 		.4byte	0xad
 10491 4440 00       		.byte	0
 10492 4441 50       		.uleb128 0x50
 10493 4442 FC330000 		.4byte	.LASF782
 10494 4446 08       		.byte	0x8
 10495 4447 2B       		.byte	0x2b
 10496 4448 E94F0000 		.4byte	.LASF783
 10497 444c 376F0000 		.4byte	0x6f37
 10498 4450 01       		.byte	0x1
 10499 4451 74440000 		.4byte	0x4474
 10500 4455 14       		.uleb128 0x14
 10501 4456 B8000000 		.4byte	0xb8
 10502 445a 14       		.uleb128 0x14
 10503 445b AD000000 		.4byte	0xad
 10504 445f 14       		.uleb128 0x14
 10505 4460 A2430000 		.4byte	0x43a2
 10506 4464 14       		.uleb128 0x14
 10507 4465 AE430000 		.4byte	0x43ae
 10508 4469 14       		.uleb128 0x14
 10509 446a B8000000 		.4byte	0xb8
ARM GAS  /tmp/ccytVDiP.s 			page 186


 10510 446e 14       		.uleb128 0x14
 10511 446f 13070000 		.4byte	0x713
 10512 4473 00       		.byte	0
 10513 4474 50       		.uleb128 0x50
 10514 4475 B64B0000 		.4byte	.LASF784
 10515 4479 08       		.byte	0x8
 10516 447a 2F       		.byte	0x2f
 10517 447b F76E0000 		.4byte	.LASF785
 10518 447f 376F0000 		.4byte	0x6f37
 10519 4483 01       		.byte	0x1
 10520 4484 A7440000 		.4byte	0x44a7
 10521 4488 14       		.uleb128 0x14
 10522 4489 B8000000 		.4byte	0xb8
 10523 448d 14       		.uleb128 0x14
 10524 448e AD000000 		.4byte	0xad
 10525 4492 14       		.uleb128 0x14
 10526 4493 A2430000 		.4byte	0x43a2
 10527 4497 14       		.uleb128 0x14
 10528 4498 AE430000 		.4byte	0x43ae
 10529 449c 14       		.uleb128 0x14
 10530 449d B8000000 		.4byte	0xb8
 10531 44a1 14       		.uleb128 0x14
 10532 44a2 13070000 		.4byte	0x713
 10533 44a6 00       		.byte	0
 10534 44a7 50       		.uleb128 0x50
 10535 44a8 38480000 		.4byte	.LASF786
 10536 44ac 08       		.byte	0x8
 10537 44ad 32       		.byte	0x32
 10538 44ae 233B0000 		.4byte	.LASF787
 10539 44b2 376F0000 		.4byte	0x6f37
 10540 44b6 01       		.byte	0x1
 10541 44b7 D5440000 		.4byte	0x44d5
 10542 44bb 14       		.uleb128 0x14
 10543 44bc 3D6F0000 		.4byte	0x6f3d
 10544 44c0 14       		.uleb128 0x14
 10545 44c1 A2430000 		.4byte	0x43a2
 10546 44c5 14       		.uleb128 0x14
 10547 44c6 AE430000 		.4byte	0x43ae
 10548 44ca 14       		.uleb128 0x14
 10549 44cb B8000000 		.4byte	0xb8
 10550 44cf 14       		.uleb128 0x14
 10551 44d0 13070000 		.4byte	0x713
 10552 44d4 00       		.byte	0
 10553 44d5 56       		.uleb128 0x56
 10554 44d6 4A560000 		.4byte	.LASF788
 10555 44da 08       		.byte	0x8
 10556 44db 35       		.byte	0x35
 10557 44dc 580A0000 		.4byte	.LASF790
 10558 44e0 436F0000 		.4byte	0x6f43
 10559 44e4 01       		.byte	0x1
 10560 44e5 56       		.uleb128 0x56
 10561 44e6 BA520000 		.4byte	.LASF789
 10562 44ea 08       		.byte	0x8
 10563 44eb 36       		.byte	0x36
 10564 44ec 71510000 		.4byte	.LASF791
 10565 44f0 A2430000 		.4byte	0x43a2
 10566 44f4 01       		.byte	0x1
ARM GAS  /tmp/ccytVDiP.s 			page 187


 10567 44f5 51       		.uleb128 0x51
 10568 44f6 E30D0000 		.4byte	.LASF792
 10569 44fa 08       		.byte	0x8
 10570 44fb 37       		.byte	0x37
 10571 44fc C0600000 		.4byte	.LASF793
 10572 4500 01       		.byte	0x1
 10573 4501 0B450000 		.4byte	0x450b
 10574 4505 14       		.uleb128 0x14
 10575 4506 A2430000 		.4byte	0x43a2
 10576 450a 00       		.byte	0
 10577 450b 33       		.uleb128 0x33
 10578 450c 092F0000 		.4byte	.LASF794
 10579 4510 08       		.byte	0x8
 10580 4511 38       		.byte	0x38
 10581 4512 85450000 		.4byte	.LASF795
 10582 4516 01       		.byte	0x1
 10583 4517 51       		.uleb128 0x51
 10584 4518 A6670000 		.4byte	.LASF796
 10585 451c 08       		.byte	0x8
 10586 451d 39       		.byte	0x39
 10587 451e 78570000 		.4byte	.LASF797
 10588 4522 01       		.byte	0x1
 10589 4523 2D450000 		.4byte	0x452d
 10590 4527 14       		.uleb128 0x14
 10591 4528 F36C0000 		.4byte	0x6cf3
 10592 452c 00       		.byte	0
 10593 452d 52       		.uleb128 0x52
 10594 452e C3680000 		.4byte	.LASF798
 10595 4532 08       		.byte	0x8
 10596 4533 3A       		.byte	0x3a
 10597 4534 A9400000 		.4byte	.LASF799
 10598 4538 700C0000 		.4byte	0xc70
 10599 453c 01       		.byte	0x1
 10600 453d 14       		.uleb128 0x14
 10601 453e 436F0000 		.4byte	0x6f43
 10602 4542 00       		.byte	0
 10603 4543 00       		.byte	0
 10604 4544 1B       		.uleb128 0x1b
 10605 4545 8A430000 		.4byte	0x438a
 10606 4549 2D       		.uleb128 0x2d
 10607 454a F3200000 		.4byte	.LASF168
 10608 454e 4C       		.byte	0x4c
 10609 454f 09       		.byte	0x9
 10610 4550 0C       		.byte	0xc
 10611 4551 F2460000 		.4byte	0x46f2
 10612 4555 57       		.uleb128 0x57
 10613 4556 0E1F0000 		.4byte	.LASF1264
 10614 455a 01       		.byte	0x1
 10615 455b 09       		.byte	0x9
 10616 455c 0E       		.byte	0xe
 10617 455d 01       		.byte	0x1
 10618 455e 8A450000 		.4byte	0x458a
 10619 4562 2A       		.uleb128 0x2a
 10620 4563 931D0000 		.4byte	.LASF800
 10621 4567 00       		.sleb128 0
 10622 4568 2A       		.uleb128 0x2a
 10623 4569 12230000 		.4byte	.LASF801
ARM GAS  /tmp/ccytVDiP.s 			page 188


 10624 456d 01       		.sleb128 1
 10625 456e 2A       		.uleb128 0x2a
 10626 456f 0C280000 		.4byte	.LASF802
 10627 4573 02       		.sleb128 2
 10628 4574 2A       		.uleb128 0x2a
 10629 4575 6A2D0000 		.4byte	.LASF803
 10630 4579 C000     		.sleb128 64
 10631 457b 2A       		.uleb128 0x2a
 10632 457c 500A0000 		.4byte	.LASF804
 10633 4580 FE00     		.sleb128 126
 10634 4582 2A       		.uleb128 0x2a
 10635 4583 2C6E0000 		.4byte	.LASF805
 10636 4587 FF00     		.sleb128 127
 10637 4589 00       		.byte	0
 10638 458a 32       		.uleb128 0x32
 10639 458b C31D0000 		.4byte	0x1dc3
 10640 458f 00       		.byte	0
 10641 4590 0A       		.uleb128 0xa
 10642 4591 F5220000 		.4byte	.LASF408
 10643 4595 09       		.byte	0x9
 10644 4596 1F       		.byte	0x1f
 10645 4597 8A430000 		.4byte	0x438a
 10646 459b 00       		.byte	0
 10647 459c 35       		.uleb128 0x35
 10648 459d E84D0000 		.4byte	.LASF774
 10649 45a1 09       		.byte	0x9
 10650 45a2 19       		.byte	0x19
 10651 45a3 A2430000 		.4byte	0x43a2
 10652 45a7 01       		.byte	0x1
 10653 45a8 35       		.uleb128 0x35
 10654 45a9 711F0000 		.4byte	.LASF775
 10655 45ad 09       		.byte	0x9
 10656 45ae 1A       		.byte	0x1a
 10657 45af AE430000 		.4byte	0x43ae
 10658 45b3 01       		.byte	0x1
 10659 45b4 35       		.uleb128 0x35
 10660 45b5 B5150000 		.4byte	.LASF776
 10661 45b9 09       		.byte	0x9
 10662 45ba 1B       		.byte	0x1b
 10663 45bb BA430000 		.4byte	0x43ba
 10664 45bf 01       		.byte	0x1
 10665 45c0 35       		.uleb128 0x35
 10666 45c1 23370000 		.4byte	.LASF777
 10667 45c5 09       		.byte	0x9
 10668 45c6 1C       		.byte	0x1c
 10669 45c7 C6430000 		.4byte	0x43c6
 10670 45cb 01       		.byte	0x1
 10671 45cc 36       		.uleb128 0x36
 10672 45cd 05480000 		.4byte	.LASF621
 10673 45d1 09       		.byte	0x9
 10674 45d2 23       		.byte	0x23
 10675 45d3 0A340000 		.4byte	.LASF806
 10676 45d7 13070000 		.4byte	0x713
 10677 45db 01       		.byte	0x1
 10678 45dc E4450000 		.4byte	0x45e4
 10679 45e0 EA450000 		.4byte	0x45ea
 10680 45e4 2F       		.uleb128 0x2f
ARM GAS  /tmp/ccytVDiP.s 			page 189


 10681 45e5 496F0000 		.4byte	0x6f49
 10682 45e9 00       		.byte	0
 10683 45ea 2E       		.uleb128 0x2e
 10684 45eb F3200000 		.4byte	.LASF168
 10685 45ef 09       		.byte	0x9
 10686 45f0 26       		.byte	0x26
 10687 45f1 4F6F0000 		.4byte	0x6f4f
 10688 45f5 FD450000 		.4byte	0x45fd
 10689 45f9 03460000 		.4byte	0x4603
 10690 45fd 2F       		.uleb128 0x2f
 10691 45fe 4F6F0000 		.4byte	0x6f4f
 10692 4602 00       		.byte	0
 10693 4603 50       		.uleb128 0x50
 10694 4604 4A1F0000 		.4byte	.LASF780
 10695 4608 09       		.byte	0x9
 10696 4609 29       		.byte	0x29
 10697 460a 2D450000 		.4byte	.LASF807
 10698 460e AD000000 		.4byte	0xad
 10699 4612 01       		.byte	0x1
 10700 4613 1D460000 		.4byte	0x461d
 10701 4617 14       		.uleb128 0x14
 10702 4618 AD000000 		.4byte	0xad
 10703 461c 00       		.byte	0
 10704 461d 50       		.uleb128 0x50
 10705 461e FC330000 		.4byte	.LASF782
 10706 4622 09       		.byte	0x9
 10707 4623 2A       		.byte	0x2a
 10708 4624 3F520000 		.4byte	.LASF808
 10709 4628 4F6F0000 		.4byte	0x6f4f
 10710 462c 01       		.byte	0x1
 10711 462d 50460000 		.4byte	0x4650
 10712 4631 14       		.uleb128 0x14
 10713 4632 B8000000 		.4byte	0xb8
 10714 4636 14       		.uleb128 0x14
 10715 4637 AD000000 		.4byte	0xad
 10716 463b 14       		.uleb128 0x14
 10717 463c 9C450000 		.4byte	0x459c
 10718 4640 14       		.uleb128 0x14
 10719 4641 A8450000 		.4byte	0x45a8
 10720 4645 14       		.uleb128 0x14
 10721 4646 B8000000 		.4byte	0xb8
 10722 464a 14       		.uleb128 0x14
 10723 464b 13070000 		.4byte	0x713
 10724 464f 00       		.byte	0
 10725 4650 50       		.uleb128 0x50
 10726 4651 B64B0000 		.4byte	.LASF784
 10727 4655 09       		.byte	0x9
 10728 4656 2D       		.byte	0x2d
 10729 4657 77230000 		.4byte	.LASF809
 10730 465b 4F6F0000 		.4byte	0x6f4f
 10731 465f 01       		.byte	0x1
 10732 4660 83460000 		.4byte	0x4683
 10733 4664 14       		.uleb128 0x14
 10734 4665 B8000000 		.4byte	0xb8
 10735 4669 14       		.uleb128 0x14
 10736 466a AD000000 		.4byte	0xad
 10737 466e 14       		.uleb128 0x14
ARM GAS  /tmp/ccytVDiP.s 			page 190


 10738 466f 9C450000 		.4byte	0x459c
 10739 4673 14       		.uleb128 0x14
 10740 4674 A8450000 		.4byte	0x45a8
 10741 4678 14       		.uleb128 0x14
 10742 4679 B8000000 		.4byte	0xb8
 10743 467d 14       		.uleb128 0x14
 10744 467e 13070000 		.4byte	0x713
 10745 4682 00       		.byte	0
 10746 4683 56       		.uleb128 0x56
 10747 4684 4A560000 		.4byte	.LASF788
 10748 4688 09       		.byte	0x9
 10749 4689 36       		.byte	0x36
 10750 468a 1A500000 		.4byte	.LASF810
 10751 468e 556F0000 		.4byte	0x6f55
 10752 4692 01       		.byte	0x1
 10753 4693 56       		.uleb128 0x56
 10754 4694 BA520000 		.4byte	.LASF789
 10755 4698 09       		.byte	0x9
 10756 4699 37       		.byte	0x37
 10757 469a 1F2F0000 		.4byte	.LASF811
 10758 469e 9C450000 		.4byte	0x459c
 10759 46a2 01       		.byte	0x1
 10760 46a3 51       		.uleb128 0x51
 10761 46a4 E30D0000 		.4byte	.LASF792
 10762 46a8 09       		.byte	0x9
 10763 46a9 38       		.byte	0x38
 10764 46aa 2A4E0000 		.4byte	.LASF812
 10765 46ae 01       		.byte	0x1
 10766 46af B9460000 		.4byte	0x46b9
 10767 46b3 14       		.uleb128 0x14
 10768 46b4 9C450000 		.4byte	0x459c
 10769 46b8 00       		.byte	0
 10770 46b9 33       		.uleb128 0x33
 10771 46ba 092F0000 		.4byte	.LASF794
 10772 46be 09       		.byte	0x9
 10773 46bf 39       		.byte	0x39
 10774 46c0 601A0000 		.4byte	.LASF813
 10775 46c4 01       		.byte	0x1
 10776 46c5 51       		.uleb128 0x51
 10777 46c6 A6670000 		.4byte	.LASF796
 10778 46ca 09       		.byte	0x9
 10779 46cb 3A       		.byte	0x3a
 10780 46cc 345B0000 		.4byte	.LASF814
 10781 46d0 01       		.byte	0x1
 10782 46d1 DB460000 		.4byte	0x46db
 10783 46d5 14       		.uleb128 0x14
 10784 46d6 F36C0000 		.4byte	0x6cf3
 10785 46da 00       		.byte	0
 10786 46db 52       		.uleb128 0x52
 10787 46dc C3680000 		.4byte	.LASF798
 10788 46e0 09       		.byte	0x9
 10789 46e1 3B       		.byte	0x3b
 10790 46e2 9D450000 		.4byte	.LASF815
 10791 46e6 700C0000 		.4byte	0xc70
 10792 46ea 01       		.byte	0x1
 10793 46eb 14       		.uleb128 0x14
 10794 46ec 556F0000 		.4byte	0x6f55
ARM GAS  /tmp/ccytVDiP.s 			page 191


 10795 46f0 00       		.byte	0
 10796 46f1 00       		.byte	0
 10797 46f2 1B       		.uleb128 0x1b
 10798 46f3 49450000 		.4byte	0x4549
 10799 46f7 2D       		.uleb128 0x2d
 10800 46f8 271F0000 		.4byte	.LASF816
 10801 46fc 04       		.byte	0x4
 10802 46fd 0A       		.byte	0xa
 10803 46fe 0B       		.byte	0xb
 10804 46ff E0470000 		.4byte	0x47e0
 10805 4703 0A       		.uleb128 0xa
 10806 4704 B11B0000 		.4byte	.LASF817
 10807 4708 0A       		.byte	0xa
 10808 4709 13       		.byte	0x13
 10809 470a 4F6F0000 		.4byte	0x6f4f
 10810 470e 00       		.byte	0
 10811 470f 35       		.uleb128 0x35
 10812 4710 37510000 		.4byte	.LASF818
 10813 4714 0A       		.byte	0xa
 10814 4715 0D       		.byte	0xd
 10815 4716 AE0C0000 		.4byte	0xcae
 10816 471a 01       		.byte	0x1
 10817 471b 03       		.uleb128 0x3
 10818 471c 09550000 		.4byte	.LASF819
 10819 4720 0A       		.byte	0xa
 10820 4721 10       		.byte	0x10
 10821 4722 CF0C0000 		.4byte	0xccf
 10822 4726 36       		.uleb128 0x36
 10823 4727 8D020000 		.4byte	.LASF820
 10824 472b 0A       		.byte	0xa
 10825 472c 16       		.byte	0x16
 10826 472d 7B040000 		.4byte	.LASF821
 10827 4731 4F6F0000 		.4byte	0x6f4f
 10828 4735 01       		.byte	0x1
 10829 4736 3E470000 		.4byte	0x473e
 10830 473a 44470000 		.4byte	0x4744
 10831 473e 2F       		.uleb128 0x2f
 10832 473f 5B6F0000 		.4byte	0x6f5b
 10833 4743 00       		.byte	0
 10834 4744 37       		.uleb128 0x37
 10835 4745 8B250000 		.4byte	.LASF822
 10836 4749 0A       		.byte	0xa
 10837 474a 17       		.byte	0x17
 10838 474b 21180000 		.4byte	.LASF823
 10839 474f 01       		.byte	0x1
 10840 4750 58470000 		.4byte	0x4758
 10841 4754 63470000 		.4byte	0x4763
 10842 4758 2F       		.uleb128 0x2f
 10843 4759 616F0000 		.4byte	0x6f61
 10844 475d 14       		.uleb128 0x14
 10845 475e 4F6F0000 		.4byte	0x6f4f
 10846 4762 00       		.byte	0
 10847 4763 37       		.uleb128 0x37
 10848 4764 3A1C0000 		.4byte	.LASF824
 10849 4768 0A       		.byte	0xa
 10850 4769 19       		.byte	0x19
 10851 476a AE590000 		.4byte	.LASF825
ARM GAS  /tmp/ccytVDiP.s 			page 192


 10852 476e 01       		.byte	0x1
 10853 476f 77470000 		.4byte	0x4777
 10854 4773 82470000 		.4byte	0x4782
 10855 4777 2F       		.uleb128 0x2f
 10856 4778 616F0000 		.4byte	0x6f61
 10857 477c 14       		.uleb128 0x14
 10858 477d A6000000 		.4byte	0xa6
 10859 4781 00       		.byte	0
 10860 4782 37       		.uleb128 0x37
 10861 4783 0C0A0000 		.4byte	.LASF826
 10862 4787 0A       		.byte	0xa
 10863 4788 1B       		.byte	0x1b
 10864 4789 EC3A0000 		.4byte	.LASF827
 10865 478d 01       		.byte	0x1
 10866 478e 96470000 		.4byte	0x4796
 10867 4792 A1470000 		.4byte	0x47a1
 10868 4796 2F       		.uleb128 0x2f
 10869 4797 616F0000 		.4byte	0x6f61
 10870 479b 14       		.uleb128 0x14
 10871 479c A6000000 		.4byte	0xa6
 10872 47a0 00       		.byte	0
 10873 47a1 36       		.uleb128 0x36
 10874 47a2 18060000 		.4byte	.LASF828
 10875 47a6 0A       		.byte	0xa
 10876 47a7 1C       		.byte	0x1c
 10877 47a8 2C390000 		.4byte	.LASF829
 10878 47ac 0F470000 		.4byte	0x470f
 10879 47b0 01       		.byte	0x1
 10880 47b1 B9470000 		.4byte	0x47b9
 10881 47b5 C4470000 		.4byte	0x47c4
 10882 47b9 2F       		.uleb128 0x2f
 10883 47ba 616F0000 		.4byte	0x6f61
 10884 47be 14       		.uleb128 0x14
 10885 47bf F36C0000 		.4byte	0x6cf3
 10886 47c3 00       		.byte	0
 10887 47c4 31       		.uleb128 0x31
 10888 47c5 271F0000 		.4byte	.LASF816
 10889 47c9 0A       		.byte	0xa
 10890 47ca 1F       		.byte	0x1f
 10891 47cb 616F0000 		.4byte	0x6f61
 10892 47cf 01       		.byte	0x1
 10893 47d0 D4470000 		.4byte	0x47d4
 10894 47d4 2F       		.uleb128 0x2f
 10895 47d5 616F0000 		.4byte	0x6f61
 10896 47d9 14       		.uleb128 0x14
 10897 47da 4F6F0000 		.4byte	0x6f4f
 10898 47de 00       		.byte	0
 10899 47df 00       		.byte	0
 10900 47e0 1B       		.uleb128 0x1b
 10901 47e1 F7460000 		.4byte	0x46f7
 10902 47e5 2D       		.uleb128 0x2d
 10903 47e6 2F5D0000 		.4byte	.LASF830
 10904 47ea 04       		.byte	0x4
 10905 47eb 0B       		.byte	0xb
 10906 47ec 0B       		.byte	0xb
 10907 47ed C9480000 		.4byte	0x48c9
 10908 47f1 32       		.uleb128 0x32
ARM GAS  /tmp/ccytVDiP.s 			page 193


 10909 47f2 C31D0000 		.4byte	0x1dc3
 10910 47f6 00       		.byte	0
 10911 47f7 0A       		.uleb128 0xa
 10912 47f8 F5220000 		.4byte	.LASF408
 10913 47fc 0B       		.byte	0xb
 10914 47fd 12       		.byte	0x12
 10915 47fe F7460000 		.4byte	0x46f7
 10916 4802 00       		.byte	0
 10917 4803 35       		.uleb128 0x35
 10918 4804 37510000 		.4byte	.LASF818
 10919 4808 0B       		.byte	0xb
 10920 4809 0D       		.byte	0xd
 10921 480a 0F470000 		.4byte	0x470f
 10922 480e 01       		.byte	0x1
 10923 480f 36       		.uleb128 0x36
 10924 4810 8D020000 		.4byte	.LASF820
 10925 4814 0B       		.byte	0xb
 10926 4815 15       		.byte	0x15
 10927 4816 42010000 		.4byte	.LASF831
 10928 481a 4F6F0000 		.4byte	0x6f4f
 10929 481e 01       		.byte	0x1
 10930 481f 27480000 		.4byte	0x4827
 10931 4823 2D480000 		.4byte	0x482d
 10932 4827 2F       		.uleb128 0x2f
 10933 4828 676F0000 		.4byte	0x6f67
 10934 482c 00       		.byte	0
 10935 482d 37       		.uleb128 0x37
 10936 482e 8B250000 		.4byte	.LASF822
 10937 4832 0B       		.byte	0xb
 10938 4833 16       		.byte	0x16
 10939 4834 683B0000 		.4byte	.LASF832
 10940 4838 01       		.byte	0x1
 10941 4839 41480000 		.4byte	0x4841
 10942 483d 4C480000 		.4byte	0x484c
 10943 4841 2F       		.uleb128 0x2f
 10944 4842 6D6F0000 		.4byte	0x6f6d
 10945 4846 14       		.uleb128 0x14
 10946 4847 4F6F0000 		.4byte	0x6f4f
 10947 484b 00       		.byte	0
 10948 484c 37       		.uleb128 0x37
 10949 484d 3A1C0000 		.4byte	.LASF824
 10950 4851 0B       		.byte	0xb
 10951 4852 18       		.byte	0x18
 10952 4853 B53A0000 		.4byte	.LASF833
 10953 4857 01       		.byte	0x1
 10954 4858 60480000 		.4byte	0x4860
 10955 485c 6B480000 		.4byte	0x486b
 10956 4860 2F       		.uleb128 0x2f
 10957 4861 6D6F0000 		.4byte	0x6f6d
 10958 4865 14       		.uleb128 0x14
 10959 4866 A6000000 		.4byte	0xa6
 10960 486a 00       		.byte	0
 10961 486b 37       		.uleb128 0x37
 10962 486c 0C0A0000 		.4byte	.LASF826
 10963 4870 0B       		.byte	0xb
 10964 4871 1A       		.byte	0x1a
 10965 4872 E0060000 		.4byte	.LASF834
ARM GAS  /tmp/ccytVDiP.s 			page 194


 10966 4876 01       		.byte	0x1
 10967 4877 7F480000 		.4byte	0x487f
 10968 487b 8A480000 		.4byte	0x488a
 10969 487f 2F       		.uleb128 0x2f
 10970 4880 6D6F0000 		.4byte	0x6f6d
 10971 4884 14       		.uleb128 0x14
 10972 4885 A6000000 		.4byte	0xa6
 10973 4889 00       		.byte	0
 10974 488a 36       		.uleb128 0x36
 10975 488b 18060000 		.4byte	.LASF828
 10976 488f 0B       		.byte	0xb
 10977 4890 1B       		.byte	0x1b
 10978 4891 47780000 		.4byte	.LASF835
 10979 4895 03480000 		.4byte	0x4803
 10980 4899 01       		.byte	0x1
 10981 489a A2480000 		.4byte	0x48a2
 10982 489e AD480000 		.4byte	0x48ad
 10983 48a2 2F       		.uleb128 0x2f
 10984 48a3 6D6F0000 		.4byte	0x6f6d
 10985 48a7 14       		.uleb128 0x14
 10986 48a8 F36C0000 		.4byte	0x6cf3
 10987 48ac 00       		.byte	0
 10988 48ad 31       		.uleb128 0x31
 10989 48ae 2F5D0000 		.4byte	.LASF830
 10990 48b2 0B       		.byte	0xb
 10991 48b3 1E       		.byte	0x1e
 10992 48b4 6D6F0000 		.4byte	0x6f6d
 10993 48b8 01       		.byte	0x1
 10994 48b9 BD480000 		.4byte	0x48bd
 10995 48bd 2F       		.uleb128 0x2f
 10996 48be 6D6F0000 		.4byte	0x6f6d
 10997 48c2 14       		.uleb128 0x14
 10998 48c3 4F6F0000 		.4byte	0x6f4f
 10999 48c7 00       		.byte	0
 11000 48c8 00       		.byte	0
 11001 48c9 1B       		.uleb128 0x1b
 11002 48ca E5470000 		.4byte	0x47e5
 11003 48ce 2D       		.uleb128 0x2d
 11004 48cf 89470000 		.4byte	.LASF836
 11005 48d3 22       		.byte	0x22
 11006 48d4 37       		.byte	0x37
 11007 48d5 0C       		.byte	0xc
 11008 48d6 134A0000 		.4byte	0x4a13
 11009 48da 3F       		.uleb128 0x3f
 11010 48db 49120000 		.4byte	.LASF837
 11011 48df 1F       		.byte	0x1f
 11012 48e0 37       		.byte	0x37
 11013 48e1 22       		.byte	0x22
 11014 48e2 01       		.byte	0x1
 11015 48e3 0C490000 		.4byte	0x490c
 11016 48e7 0A       		.uleb128 0xa
 11017 48e8 19670000 		.4byte	.LASF838
 11018 48ec 37       		.byte	0x37
 11019 48ed 23       		.byte	0x23
 11020 48ee 736F0000 		.4byte	0x6f73
 11021 48f2 00       		.byte	0
 11022 48f3 0A       		.uleb128 0xa
ARM GAS  /tmp/ccytVDiP.s 			page 195


 11023 48f4 55540000 		.4byte	.LASF839
 11024 48f8 37       		.byte	0x37
 11025 48f9 24       		.byte	0x24
 11026 48fa 24080000 		.4byte	0x824
 11027 48fe 07       		.byte	0x7
 11028 48ff 0A       		.uleb128 0xa
 11029 4900 33310000 		.4byte	.LASF840
 11030 4904 37       		.byte	0x37
 11031 4905 25       		.byte	0x25
 11032 4906 836F0000 		.4byte	0x6f83
 11033 490a 0F       		.byte	0xf
 11034 490b 00       		.byte	0
 11035 490c 3F       		.uleb128 0x3f
 11036 490d 1A660000 		.4byte	.LASF841
 11037 4911 1E       		.byte	0x1e
 11038 4912 37       		.byte	0x37
 11039 4913 28       		.byte	0x28
 11040 4914 01       		.byte	0x1
 11041 4915 4A490000 		.4byte	0x494a
 11042 4919 0A       		.uleb128 0xa
 11043 491a 33310000 		.4byte	.LASF840
 11044 491e 37       		.byte	0x37
 11045 491f 2B       		.byte	0x2b
 11046 4920 836F0000 		.4byte	0x6f83
 11047 4924 00       		.byte	0
 11048 4925 0A       		.uleb128 0xa
 11049 4926 CB190000 		.4byte	.LASF842
 11050 492a 37       		.byte	0x37
 11051 492b 2C       		.byte	0x2c
 11052 492c 2E0C0000 		.4byte	0xc2e
 11053 4930 10       		.byte	0x10
 11054 4931 0A       		.uleb128 0xa
 11055 4932 0D460000 		.4byte	.LASF843
 11056 4936 37       		.byte	0x37
 11057 4937 2D       		.byte	0x2d
 11058 4938 2E0C0000 		.4byte	0xc2e
 11059 493c 12       		.byte	0x12
 11060 493d 0A       		.uleb128 0xa
 11061 493e F6690000 		.4byte	.LASF844
 11062 4942 37       		.byte	0x37
 11063 4943 2E       		.byte	0x2e
 11064 4944 936F0000 		.4byte	0x6f93
 11065 4948 14       		.byte	0x14
 11066 4949 00       		.byte	0
 11067 494a 3F       		.uleb128 0x3f
 11068 494b C3500000 		.4byte	.LASF845
 11069 494f 09       		.byte	0x9
 11070 4950 37       		.byte	0x37
 11071 4951 31       		.byte	0x31
 11072 4952 01       		.byte	0x1
 11073 4953 C1490000 		.4byte	0x49c1
 11074 4957 26       		.uleb128 0x26
 11075 4958 01       		.byte	0x1
 11076 4959 37       		.byte	0x37
 11077 495a 34       		.byte	0x34
 11078 495b 9C490000 		.4byte	0x499c
 11079 495f 58       		.uleb128 0x58
ARM GAS  /tmp/ccytVDiP.s 			page 196


 11080 4960 FC300000 		.4byte	.LASF846
 11081 4964 37       		.byte	0x37
 11082 4965 35       		.byte	0x35
 11083 4966 A6000000 		.4byte	0xa6
 11084 496a 04       		.byte	0x4
 11085 496b 01       		.byte	0x1
 11086 496c 1F       		.byte	0x1f
 11087 496d 00       		.byte	0
 11088 496e 58       		.uleb128 0x58
 11089 496f 29420000 		.4byte	.LASF847
 11090 4973 37       		.byte	0x37
 11091 4974 36       		.byte	0x36
 11092 4975 A6000000 		.4byte	0xa6
 11093 4979 04       		.byte	0x4
 11094 497a 01       		.byte	0x1
 11095 497b 1E       		.byte	0x1e
 11096 497c 00       		.byte	0
 11097 497d 58       		.uleb128 0x58
 11098 497e 5D380000 		.4byte	.LASF848
 11099 4982 37       		.byte	0x37
 11100 4983 37       		.byte	0x37
 11101 4984 A6000000 		.4byte	0xa6
 11102 4988 04       		.byte	0x4
 11103 4989 01       		.byte	0x1
 11104 498a 1D       		.byte	0x1d
 11105 498b 00       		.byte	0
 11106 498c 58       		.uleb128 0x58
 11107 498d 00060000 		.4byte	.LASF849
 11108 4991 37       		.byte	0x37
 11109 4992 38       		.byte	0x38
 11110 4993 A6000000 		.4byte	0xa6
 11111 4997 04       		.byte	0x4
 11112 4998 05       		.byte	0x5
 11113 4999 18       		.byte	0x18
 11114 499a 00       		.byte	0
 11115 499b 00       		.byte	0
 11116 499c 0A       		.uleb128 0xa
 11117 499d 813C0000 		.4byte	.LASF850
 11118 49a1 37       		.byte	0x37
 11119 49a2 32       		.byte	0x32
 11120 49a3 736F0000 		.4byte	0x6f73
 11121 49a7 00       		.byte	0
 11122 49a8 0A       		.uleb128 0xa
 11123 49a9 00060000 		.4byte	.LASF849
 11124 49ad 37       		.byte	0x37
 11125 49ae 33       		.byte	0x33
 11126 49af 230C0000 		.4byte	0xc23
 11127 49b3 07       		.byte	0x7
 11128 49b4 0A       		.uleb128 0xa
 11129 49b5 457A0000 		.4byte	.LASF851
 11130 49b9 37       		.byte	0x37
 11131 49ba 39       		.byte	0x39
 11132 49bb 57490000 		.4byte	0x4957
 11133 49bf 08       		.byte	0x8
 11134 49c0 00       		.byte	0
 11135 49c1 59       		.uleb128 0x59
 11136 49c2 1F       		.byte	0x1f
ARM GAS  /tmp/ccytVDiP.s 			page 197


 11137 49c3 37       		.byte	0x37
 11138 49c4 3D       		.byte	0x3d
 11139 49c5 01       		.byte	0x1
 11140 49c6 F7490000 		.4byte	0x49f7
 11141 49ca 09       		.uleb128 0x9
 11142 49cb 465D0000 		.4byte	.LASF852
 11143 49cf 37       		.byte	0x37
 11144 49d0 3E       		.byte	0x3e
 11145 49d1 A36F0000 		.4byte	0x6fa3
 11146 49d5 09       		.uleb128 0x9
 11147 49d6 1A450000 		.4byte	.LASF853
 11148 49da 37       		.byte	0x37
 11149 49db 3F       		.byte	0x3f
 11150 49dc DA480000 		.4byte	0x48da
 11151 49e0 09       		.uleb128 0x9
 11152 49e1 1A6C0000 		.4byte	.LASF854
 11153 49e5 37       		.byte	0x37
 11154 49e6 40       		.byte	0x40
 11155 49e7 0C490000 		.4byte	0x490c
 11156 49eb 09       		.uleb128 0x9
 11157 49ec 19670000 		.4byte	.LASF838
 11158 49f0 37       		.byte	0x37
 11159 49f1 41       		.byte	0x41
 11160 49f2 4A490000 		.4byte	0x494a
 11161 49f6 00       		.byte	0
 11162 49f7 54       		.uleb128 0x54
 11163 49f8 C4390000 		.4byte	0x39c4
 11164 49fc 00       		.byte	0
 11165 49fd 01       		.byte	0x1
 11166 49fe 5A       		.uleb128 0x5a
 11167 49ff C1490000 		.4byte	0x49c1
 11168 4a03 02       		.byte	0x2
 11169 4a04 01       		.byte	0x1
 11170 4a05 5B       		.uleb128 0x5b
 11171 4a06 E3110000 		.4byte	.LASF855
 11172 4a0a 37       		.byte	0x37
 11173 4a0b 43       		.byte	0x43
 11174 4a0c 230C0000 		.4byte	0xc23
 11175 4a10 21       		.byte	0x21
 11176 4a11 01       		.byte	0x1
 11177 4a12 00       		.byte	0
 11178 4a13 2D       		.uleb128 0x2d
 11179 4a14 D66F0000 		.4byte	.LASF856
 11180 4a18 04       		.byte	0x4
 11181 4a19 15       		.byte	0x15
 11182 4a1a 0F       		.byte	0xf
 11183 4a1b 72500000 		.4byte	0x5072
 11184 4a1f 32       		.uleb128 0x32
 11185 4a20 C31D0000 		.4byte	0x1dc3
 11186 4a24 00       		.byte	0
 11187 4a25 3F       		.uleb128 0x3f
 11188 4a26 026D0000 		.4byte	.LASF463
 11189 4a2a 08       		.byte	0x8
 11190 4a2b 15       		.byte	0x15
 11191 4a2c 11       		.byte	0x11
 11192 4a2d 01       		.byte	0x1
 11193 4a2e 654A0000 		.4byte	0x4a65
ARM GAS  /tmp/ccytVDiP.s 			page 198


 11194 4a32 0A       		.uleb128 0xa
 11195 4a33 21390000 		.4byte	.LASF461
 11196 4a37 15       		.byte	0x15
 11197 4a38 12       		.byte	0x12
 11198 4a39 B36F0000 		.4byte	0x6fb3
 11199 4a3d 00       		.byte	0
 11200 4a3e 0A       		.uleb128 0xa
 11201 4a3f 54200000 		.4byte	.LASF462
 11202 4a43 15       		.byte	0x15
 11203 4a44 13       		.byte	0x13
 11204 4a45 24700000 		.4byte	0x7024
 11205 4a49 04       		.byte	0x4
 11206 4a4a 40       		.uleb128 0x40
 11207 4a4b 026D0000 		.4byte	.LASF463
 11208 4a4f 15       		.byte	0x15
 11209 4a50 15       		.byte	0x15
 11210 4a51 B36F0000 		.4byte	0x6fb3
 11211 4a55 594A0000 		.4byte	0x4a59
 11212 4a59 2F       		.uleb128 0x2f
 11213 4a5a B36F0000 		.4byte	0x6fb3
 11214 4a5e 14       		.uleb128 0x14
 11215 4a5f 29700000 		.4byte	0x7029
 11216 4a63 00       		.byte	0
 11217 4a64 00       		.byte	0
 11218 4a65 18       		.uleb128 0x18
 11219 4a66 F7180000 		.4byte	.LASF464
 11220 4a6a 15       		.byte	0x15
 11221 4a6b 8A01     		.2byte	0x18a
 11222 4a6d B36F0000 		.4byte	0x6fb3
 11223 4a71 00       		.byte	0
 11224 4a72 41       		.uleb128 0x41
 11225 4a73 0D330000 		.4byte	.LASF713
 11226 4a77 42       		.uleb128 0x42
 11227 4a78 1F270000 		.4byte	.LASF465
 11228 4a7c 42       		.uleb128 0x42
 11229 4a7d D83A0000 		.4byte	.LASF466
 11230 4a81 42       		.uleb128 0x42
 11231 4a82 09650000 		.4byte	.LASF467
 11232 4a86 43       		.uleb128 0x43
 11233 4a87 804B0000 		.4byte	.LASF469
 11234 4a8b 04       		.byte	0x4
 11235 4a8c 15       		.byte	0x15
 11236 4a8d C0       		.byte	0xc0
 11237 4a8e 01       		.byte	0x1
 11238 4a8f F64B0000 		.4byte	0x4bf6
 11239 4a93 0A       		.uleb128 0xa
 11240 4a94 5B1A0000 		.4byte	.LASF468
 11241 4a98 15       		.byte	0x15
 11242 4a99 C4       		.byte	0xc4
 11243 4a9a F8700000 		.4byte	0x70f8
 11244 4a9e 00       		.byte	0
 11245 4a9f 30       		.uleb128 0x30
 11246 4aa0 804B0000 		.4byte	.LASF469
 11247 4aa4 15       		.byte	0x15
 11248 4aa5 C7       		.byte	0xc7
 11249 4aa6 FE700000 		.4byte	0x70fe
 11250 4aaa 01       		.byte	0x1
ARM GAS  /tmp/ccytVDiP.s 			page 199


 11251 4aab B34A0000 		.4byte	0x4ab3
 11252 4aaf B94A0000 		.4byte	0x4ab9
 11253 4ab3 2F       		.uleb128 0x2f
 11254 4ab4 FE700000 		.4byte	0x70fe
 11255 4ab8 00       		.byte	0
 11256 4ab9 30       		.uleb128 0x30
 11257 4aba 804B0000 		.4byte	.LASF469
 11258 4abe 15       		.byte	0x15
 11259 4abf C8       		.byte	0xc8
 11260 4ac0 FE700000 		.4byte	0x70fe
 11261 4ac4 01       		.byte	0x1
 11262 4ac5 CD4A0000 		.4byte	0x4acd
 11263 4ac9 D84A0000 		.4byte	0x4ad8
 11264 4acd 2F       		.uleb128 0x2f
 11265 4ace FE700000 		.4byte	0x70fe
 11266 4ad2 14       		.uleb128 0x14
 11267 4ad3 04710000 		.4byte	0x7104
 11268 4ad7 00       		.byte	0
 11269 4ad8 2E       		.uleb128 0x2e
 11270 4ad9 804B0000 		.4byte	.LASF469
 11271 4add 15       		.byte	0x15
 11272 4ade CB       		.byte	0xcb
 11273 4adf FE700000 		.4byte	0x70fe
 11274 4ae3 EB4A0000 		.4byte	0x4aeb
 11275 4ae7 F64A0000 		.4byte	0x4af6
 11276 4aeb 2F       		.uleb128 0x2f
 11277 4aec FE700000 		.4byte	0x70fe
 11278 4af0 14       		.uleb128 0x14
 11279 4af1 F8700000 		.4byte	0x70f8
 11280 4af5 00       		.byte	0
 11281 4af6 44       		.uleb128 0x44
 11282 4af7 E3190000 		.4byte	.LASF448
 11283 4afb 15       		.byte	0x15
 11284 4afc CE       		.byte	0xce
 11285 4afd 04690000 		.4byte	.LASF857
 11286 4b01 1E700000 		.4byte	0x701e
 11287 4b05 0D4B0000 		.4byte	0x4b0d
 11288 4b09 184B0000 		.4byte	0x4b18
 11289 4b0d 2F       		.uleb128 0x2f
 11290 4b0e FE700000 		.4byte	0x70fe
 11291 4b12 14       		.uleb128 0x14
 11292 4b13 04710000 		.4byte	0x7104
 11293 4b17 00       		.byte	0
 11294 4b18 36       		.uleb128 0x36
 11295 4b19 D2520000 		.4byte	.LASF471
 11296 4b1d 15       		.byte	0x15
 11297 4b1e D4       		.byte	0xd4
 11298 4b1f FD1F0000 		.4byte	.LASF858
 11299 4b23 2F700000 		.4byte	0x702f
 11300 4b27 01       		.byte	0x1
 11301 4b28 304B0000 		.4byte	0x4b30
 11302 4b2c 364B0000 		.4byte	0x4b36
 11303 4b30 2F       		.uleb128 0x2f
 11304 4b31 0A710000 		.4byte	0x710a
 11305 4b35 00       		.byte	0
 11306 4b36 36       		.uleb128 0x36
 11307 4b37 8A190000 		.4byte	.LASF473
ARM GAS  /tmp/ccytVDiP.s 			page 200


 11308 4b3b 15       		.byte	0x15
 11309 4b3c D8       		.byte	0xd8
 11310 4b3d 2C030000 		.4byte	.LASF859
 11311 4b41 CE6F0000 		.4byte	0x6fce
 11312 4b45 01       		.byte	0x1
 11313 4b46 4E4B0000 		.4byte	0x4b4e
 11314 4b4a 544B0000 		.4byte	0x4b54
 11315 4b4e 2F       		.uleb128 0x2f
 11316 4b4f 0A710000 		.4byte	0x710a
 11317 4b53 00       		.byte	0
 11318 4b54 36       		.uleb128 0x36
 11319 4b55 D44F0000 		.4byte	.LASF475
 11320 4b59 15       		.byte	0x15
 11321 4b5a DC       		.byte	0xdc
 11322 4b5b 03780000 		.4byte	.LASF860
 11323 4b5f 1E700000 		.4byte	0x701e
 11324 4b63 01       		.byte	0x1
 11325 4b64 6C4B0000 		.4byte	0x4b6c
 11326 4b68 724B0000 		.4byte	0x4b72
 11327 4b6c 2F       		.uleb128 0x2f
 11328 4b6d FE700000 		.4byte	0x70fe
 11329 4b71 00       		.byte	0
 11330 4b72 36       		.uleb128 0x36
 11331 4b73 D44F0000 		.4byte	.LASF475
 11332 4b77 15       		.byte	0x15
 11333 4b78 E3       		.byte	0xe3
 11334 4b79 55770000 		.4byte	.LASF861
 11335 4b7d E74F0000 		.4byte	0x4fe7
 11336 4b81 01       		.byte	0x1
 11337 4b82 8A4B0000 		.4byte	0x4b8a
 11338 4b86 954B0000 		.4byte	0x4b95
 11339 4b8a 2F       		.uleb128 0x2f
 11340 4b8b FE700000 		.4byte	0x70fe
 11341 4b8f 14       		.uleb128 0x14
 11342 4b90 94000000 		.4byte	0x94
 11343 4b94 00       		.byte	0
 11344 4b95 36       		.uleb128 0x36
 11345 4b96 DE760000 		.4byte	.LASF478
 11346 4b9a 15       		.byte	0x15
 11347 4b9b EB       		.byte	0xeb
 11348 4b9c 4E650000 		.4byte	.LASF862
 11349 4ba0 700C0000 		.4byte	0xc70
 11350 4ba4 01       		.byte	0x1
 11351 4ba5 AD4B0000 		.4byte	0x4bad
 11352 4ba9 B84B0000 		.4byte	0x4bb8
 11353 4bad 2F       		.uleb128 0x2f
 11354 4bae 0A710000 		.4byte	0x710a
 11355 4bb2 14       		.uleb128 0x14
 11356 4bb3 04710000 		.4byte	0x7104
 11357 4bb7 00       		.byte	0
 11358 4bb8 36       		.uleb128 0x36
 11359 4bb9 C23C0000 		.4byte	.LASF480
 11360 4bbd 15       		.byte	0x15
 11361 4bbe EF       		.byte	0xef
 11362 4bbf A4630000 		.4byte	.LASF863
 11363 4bc3 700C0000 		.4byte	0xc70
 11364 4bc7 01       		.byte	0x1
ARM GAS  /tmp/ccytVDiP.s 			page 201


 11365 4bc8 D04B0000 		.4byte	0x4bd0
 11366 4bcc DB4B0000 		.4byte	0x4bdb
 11367 4bd0 2F       		.uleb128 0x2f
 11368 4bd1 0A710000 		.4byte	0x710a
 11369 4bd5 14       		.uleb128 0x14
 11370 4bd6 04710000 		.4byte	0x7104
 11371 4bda 00       		.byte	0
 11372 4bdb 45       		.uleb128 0x45
 11373 4bdc 8A500000 		.4byte	.LASF482
 11374 4be0 15       		.byte	0x15
 11375 4be1 F3       		.byte	0xf3
 11376 4be2 350D0000 		.4byte	.LASF864
 11377 4be6 700C0000 		.4byte	0xc70
 11378 4bea 01       		.byte	0x1
 11379 4beb EF4B0000 		.4byte	0x4bef
 11380 4bef 2F       		.uleb128 0x2f
 11381 4bf0 0A710000 		.4byte	0x710a
 11382 4bf4 00       		.byte	0
 11383 4bf5 00       		.byte	0
 11384 4bf6 06       		.uleb128 0x6
 11385 4bf7 5A200000 		.4byte	.LASF484
 11386 4bfb 15       		.byte	0x15
 11387 4bfc 8601     		.2byte	0x186
 11388 4bfe B96F0000 		.4byte	0x6fb9
 11389 4c02 06       		.uleb128 0x6
 11390 4c03 14180000 		.4byte	.LASF485
 11391 4c07 15       		.byte	0x15
 11392 4c08 8701     		.2byte	0x187
 11393 4c0a D46F0000 		.4byte	0x6fd4
 11394 4c0e 46       		.uleb128 0x46
 11395 4c0f B4790000 		.4byte	.LASF486
 11396 4c13 15       		.byte	0x15
 11397 4c14 8D01     		.2byte	0x18d
 11398 4c16 1D060000 		.4byte	.LASF865
 11399 4c1a EE6F0000 		.4byte	0x6fee
 11400 4c1e 01       		.byte	0x1
 11401 4c1f 274C0000 		.4byte	0x4c27
 11402 4c23 2D4C0000 		.4byte	0x4c2d
 11403 4c27 2F       		.uleb128 0x2f
 11404 4c28 F46F0000 		.4byte	0x6ff4
 11405 4c2c 00       		.byte	0
 11406 4c2d 1B       		.uleb128 0x1b
 11407 4c2e 254A0000 		.4byte	0x4a25
 11408 4c32 46       		.uleb128 0x46
 11409 4c33 BC730000 		.4byte	.LASF487
 11410 4c37 15       		.byte	0x15
 11411 4c38 9101     		.2byte	0x191
 11412 4c3a 956F0000 		.4byte	.LASF866
 11413 4c3e 700C0000 		.4byte	0xc70
 11414 4c42 01       		.byte	0x1
 11415 4c43 4B4C0000 		.4byte	0x4c4b
 11416 4c47 514C0000 		.4byte	0x4c51
 11417 4c4b 2F       		.uleb128 0x2f
 11418 4c4c F46F0000 		.4byte	0x6ff4
 11419 4c50 00       		.byte	0
 11420 4c51 46       		.uleb128 0x46
 11421 4c52 1F260000 		.4byte	.LASF490
ARM GAS  /tmp/ccytVDiP.s 			page 202


 11422 4c56 15       		.byte	0x15
 11423 4c57 0302     		.2byte	0x203
 11424 4c59 8C430000 		.4byte	.LASF867
 11425 4c5d AD000000 		.4byte	0xad
 11426 4c61 01       		.byte	0x1
 11427 4c62 6A4C0000 		.4byte	0x4c6a
 11428 4c66 704C0000 		.4byte	0x4c70
 11429 4c6a 2F       		.uleb128 0x2f
 11430 4c6b F46F0000 		.4byte	0x6ff4
 11431 4c6f 00       		.byte	0
 11432 4c70 47       		.uleb128 0x47
 11433 4c71 8E580000 		.4byte	.LASF492
 11434 4c75 15       		.byte	0x15
 11435 4c76 9701     		.2byte	0x197
 11436 4c78 4C320000 		.4byte	.LASF868
 11437 4c7c 01       		.byte	0x1
 11438 4c7d 854C0000 		.4byte	0x4c85
 11439 4c81 904C0000 		.4byte	0x4c90
 11440 4c85 2F       		.uleb128 0x2f
 11441 4c86 FA6F0000 		.4byte	0x6ffa
 11442 4c8a 14       		.uleb128 0x14
 11443 4c8b 00700000 		.4byte	0x7000
 11444 4c8f 00       		.byte	0
 11445 4c90 47       		.uleb128 0x47
 11446 4c91 DB630000 		.4byte	.LASF493
 11447 4c95 15       		.byte	0x15
 11448 4c96 9F01     		.2byte	0x19f
 11449 4c98 5F310000 		.4byte	.LASF869
 11450 4c9c 01       		.byte	0x1
 11451 4c9d A54C0000 		.4byte	0x4ca5
 11452 4ca1 B04C0000 		.4byte	0x4cb0
 11453 4ca5 2F       		.uleb128 0x2f
 11454 4ca6 FA6F0000 		.4byte	0x6ffa
 11455 4caa 14       		.uleb128 0x14
 11456 4cab 00700000 		.4byte	0x7000
 11457 4caf 00       		.byte	0
 11458 4cb0 46       		.uleb128 0x46
 11459 4cb1 B8330000 		.4byte	.LASF496
 11460 4cb5 15       		.byte	0x15
 11461 4cb6 0E02     		.2byte	0x20e
 11462 4cb8 7B3A0000 		.4byte	.LASF870
 11463 4cbc 700C0000 		.4byte	0xc70
 11464 4cc0 01       		.byte	0x1
 11465 4cc1 C94C0000 		.4byte	0x4cc9
 11466 4cc5 D44C0000 		.4byte	0x4cd4
 11467 4cc9 2F       		.uleb128 0x2f
 11468 4cca FA6F0000 		.4byte	0x6ffa
 11469 4cce 14       		.uleb128 0x14
 11470 4ccf 00700000 		.4byte	0x7000
 11471 4cd3 00       		.byte	0
 11472 4cd4 46       		.uleb128 0x46
 11473 4cd5 2D440000 		.4byte	.LASF498
 11474 4cd9 15       		.byte	0x15
 11475 4cda 1F02     		.2byte	0x21f
 11476 4cdc 67030000 		.4byte	.LASF871
 11477 4ce0 94000000 		.4byte	0x94
 11478 4ce4 01       		.byte	0x1
ARM GAS  /tmp/ccytVDiP.s 			page 203


 11479 4ce5 ED4C0000 		.4byte	0x4ced
 11480 4ce9 F84C0000 		.4byte	0x4cf8
 11481 4ced 2F       		.uleb128 0x2f
 11482 4cee F46F0000 		.4byte	0x6ff4
 11483 4cf2 14       		.uleb128 0x14
 11484 4cf3 CE6F0000 		.4byte	0x6fce
 11485 4cf7 00       		.byte	0
 11486 4cf8 46       		.uleb128 0x46
 11487 4cf9 1B5F0000 		.4byte	.LASF500
 11488 4cfd 15       		.byte	0x15
 11489 4cfe 2C02     		.2byte	0x22c
 11490 4d00 A9060000 		.4byte	.LASF872
 11491 4d04 700C0000 		.4byte	0xc70
 11492 4d08 01       		.byte	0x1
 11493 4d09 114D0000 		.4byte	0x4d11
 11494 4d0d 1C4D0000 		.4byte	0x4d1c
 11495 4d11 2F       		.uleb128 0x2f
 11496 4d12 F46F0000 		.4byte	0x6ff4
 11497 4d16 14       		.uleb128 0x14
 11498 4d17 CE6F0000 		.4byte	0x6fce
 11499 4d1b 00       		.byte	0
 11500 4d1c 46       		.uleb128 0x46
 11501 4d1d 42400000 		.4byte	.LASF502
 11502 4d21 15       		.byte	0x15
 11503 4d22 3802     		.2byte	0x238
 11504 4d24 F00C0000 		.4byte	.LASF873
 11505 4d28 06700000 		.4byte	0x7006
 11506 4d2c 01       		.byte	0x1
 11507 4d2d 354D0000 		.4byte	0x4d35
 11508 4d31 404D0000 		.4byte	0x4d40
 11509 4d35 2F       		.uleb128 0x2f
 11510 4d36 F46F0000 		.4byte	0x6ff4
 11511 4d3a 14       		.uleb128 0x14
 11512 4d3b F64B0000 		.4byte	0x4bf6
 11513 4d3f 00       		.byte	0
 11514 4d40 46       		.uleb128 0x46
 11515 4d41 42400000 		.4byte	.LASF502
 11516 4d45 15       		.byte	0x15
 11517 4d46 4402     		.2byte	0x244
 11518 4d48 B3050000 		.4byte	.LASF874
 11519 4d4c 06700000 		.4byte	0x7006
 11520 4d50 01       		.byte	0x1
 11521 4d51 594D0000 		.4byte	0x4d59
 11522 4d55 694D0000 		.4byte	0x4d69
 11523 4d59 2F       		.uleb128 0x2f
 11524 4d5a F46F0000 		.4byte	0x6ff4
 11525 4d5e 14       		.uleb128 0x14
 11526 4d5f 024C0000 		.4byte	0x4c02
 11527 4d63 14       		.uleb128 0x14
 11528 4d64 C16C0000 		.4byte	0x6cc1
 11529 4d68 00       		.byte	0
 11530 4d69 46       		.uleb128 0x46
 11531 4d6a 9B130000 		.4byte	.LASF505
 11532 4d6e 15       		.byte	0x15
 11533 4d6f B301     		.2byte	0x1b3
 11534 4d71 2E0E0000 		.4byte	.LASF875
 11535 4d75 884D0000 		.4byte	0x4d88
ARM GAS  /tmp/ccytVDiP.s 			page 204


 11536 4d79 01       		.byte	0x1
 11537 4d7a 824D0000 		.4byte	0x4d82
 11538 4d7e 884D0000 		.4byte	0x4d88
 11539 4d82 2F       		.uleb128 0x2f
 11540 4d83 FA6F0000 		.4byte	0x6ffa
 11541 4d87 00       		.byte	0
 11542 4d88 1B       		.uleb128 0x1b
 11543 4d89 774A0000 		.4byte	0x4a77
 11544 4d8d 46       		.uleb128 0x46
 11545 4d8e D43C0000 		.4byte	.LASF507
 11546 4d92 15       		.byte	0x15
 11547 4d93 B701     		.2byte	0x1b7
 11548 4d95 77120000 		.4byte	.LASF876
 11549 4d99 884D0000 		.4byte	0x4d88
 11550 4d9d 01       		.byte	0x1
 11551 4d9e A64D0000 		.4byte	0x4da6
 11552 4da2 AC4D0000 		.4byte	0x4dac
 11553 4da6 2F       		.uleb128 0x2f
 11554 4da7 FA6F0000 		.4byte	0x6ffa
 11555 4dab 00       		.byte	0
 11556 4dac 47       		.uleb128 0x47
 11557 4dad 1B7A0000 		.4byte	.LASF509
 11558 4db1 15       		.byte	0x15
 11559 4db2 BB01     		.2byte	0x1bb
 11560 4db4 046B0000 		.4byte	.LASF877
 11561 4db8 01       		.byte	0x1
 11562 4db9 C14D0000 		.4byte	0x4dc1
 11563 4dbd CC4D0000 		.4byte	0x4dcc
 11564 4dc1 2F       		.uleb128 0x2f
 11565 4dc2 FA6F0000 		.4byte	0x6ffa
 11566 4dc6 14       		.uleb128 0x14
 11567 4dc7 0C700000 		.4byte	0x700c
 11568 4dcb 00       		.byte	0
 11569 4dcc 46       		.uleb128 0x46
 11570 4dcd 9B130000 		.4byte	.LASF505
 11571 4dd1 15       		.byte	0x15
 11572 4dd2 BF01     		.2byte	0x1bf
 11573 4dd4 F1710000 		.4byte	.LASF878
 11574 4dd8 EB4D0000 		.4byte	0x4deb
 11575 4ddc 01       		.byte	0x1
 11576 4ddd E54D0000 		.4byte	0x4de5
 11577 4de1 EB4D0000 		.4byte	0x4deb
 11578 4de5 2F       		.uleb128 0x2f
 11579 4de6 F46F0000 		.4byte	0x6ff4
 11580 4dea 00       		.byte	0
 11581 4deb 1B       		.uleb128 0x1b
 11582 4dec 7C4A0000 		.4byte	0x4a7c
 11583 4df0 46       		.uleb128 0x46
 11584 4df1 D43C0000 		.4byte	.LASF507
 11585 4df5 15       		.byte	0x15
 11586 4df6 C301     		.2byte	0x1c3
 11587 4df8 3B270000 		.4byte	.LASF879
 11588 4dfc EB4D0000 		.4byte	0x4deb
 11589 4e00 01       		.byte	0x1
 11590 4e01 094E0000 		.4byte	0x4e09
 11591 4e05 0F4E0000 		.4byte	0x4e0f
 11592 4e09 2F       		.uleb128 0x2f
ARM GAS  /tmp/ccytVDiP.s 			page 205


 11593 4e0a F46F0000 		.4byte	0x6ff4
 11594 4e0e 00       		.byte	0
 11595 4e0f 47       		.uleb128 0x47
 11596 4e10 1B7A0000 		.4byte	.LASF509
 11597 4e14 15       		.byte	0x15
 11598 4e15 C701     		.2byte	0x1c7
 11599 4e17 67050000 		.4byte	.LASF880
 11600 4e1b 01       		.byte	0x1
 11601 4e1c 244E0000 		.4byte	0x4e24
 11602 4e20 2F4E0000 		.4byte	0x4e2f
 11603 4e24 2F       		.uleb128 0x2f
 11604 4e25 F46F0000 		.4byte	0x6ff4
 11605 4e29 14       		.uleb128 0x14
 11606 4e2a 12700000 		.4byte	0x7012
 11607 4e2e 00       		.byte	0
 11608 4e2f 46       		.uleb128 0x46
 11609 4e30 826D0000 		.4byte	.LASF514
 11610 4e34 15       		.byte	0x15
 11611 4e35 5302     		.2byte	0x253
 11612 4e37 FE410000 		.4byte	.LASF881
 11613 4e3b EE6F0000 		.4byte	0x6fee
 11614 4e3f 01       		.byte	0x1
 11615 4e40 484E0000 		.4byte	0x4e48
 11616 4e44 4E4E0000 		.4byte	0x4e4e
 11617 4e48 2F       		.uleb128 0x2f
 11618 4e49 F46F0000 		.4byte	0x6ff4
 11619 4e4d 00       		.byte	0
 11620 4e4e 46       		.uleb128 0x46
 11621 4e4f 3C710000 		.4byte	.LASF516
 11622 4e53 15       		.byte	0x15
 11623 4e54 5D02     		.2byte	0x25d
 11624 4e56 BE2B0000 		.4byte	.LASF882
 11625 4e5a 700C0000 		.4byte	0xc70
 11626 4e5e 01       		.byte	0x1
 11627 4e5f 674E0000 		.4byte	0x4e67
 11628 4e63 6D4E0000 		.4byte	0x4e6d
 11629 4e67 2F       		.uleb128 0x2f
 11630 4e68 F46F0000 		.4byte	0x6ff4
 11631 4e6c 00       		.byte	0
 11632 4e6d 46       		.uleb128 0x46
 11633 4e6e C3400000 		.4byte	.LASF518
 11634 4e72 15       		.byte	0x15
 11635 4e73 6702     		.2byte	0x267
 11636 4e75 7B2B0000 		.4byte	.LASF883
 11637 4e79 AD000000 		.4byte	0xad
 11638 4e7d 01       		.byte	0x1
 11639 4e7e 864E0000 		.4byte	0x4e86
 11640 4e82 8C4E0000 		.4byte	0x4e8c
 11641 4e86 2F       		.uleb128 0x2f
 11642 4e87 F46F0000 		.4byte	0x6ff4
 11643 4e8b 00       		.byte	0
 11644 4e8c 47       		.uleb128 0x47
 11645 4e8d 2C260000 		.4byte	.LASF520
 11646 4e91 15       		.byte	0x15
 11647 4e92 7602     		.2byte	0x276
 11648 4e94 CC730000 		.4byte	.LASF884
 11649 4e98 01       		.byte	0x1
ARM GAS  /tmp/ccytVDiP.s 			page 206


 11650 4e99 A14E0000 		.4byte	0x4ea1
 11651 4e9d AC4E0000 		.4byte	0x4eac
 11652 4ea1 2F       		.uleb128 0x2f
 11653 4ea2 FA6F0000 		.4byte	0x6ffa
 11654 4ea6 14       		.uleb128 0x14
 11655 4ea7 00700000 		.4byte	0x7000
 11656 4eab 00       		.byte	0
 11657 4eac 46       		.uleb128 0x46
 11658 4ead 83190000 		.4byte	.LASF522
 11659 4eb1 15       		.byte	0x15
 11660 4eb2 8002     		.2byte	0x280
 11661 4eb4 016A0000 		.4byte	.LASF885
 11662 4eb8 700C0000 		.4byte	0xc70
 11663 4ebc 01       		.byte	0x1
 11664 4ebd C54E0000 		.4byte	0x4ec5
 11665 4ec1 D04E0000 		.4byte	0x4ed0
 11666 4ec5 2F       		.uleb128 0x2f
 11667 4ec6 FA6F0000 		.4byte	0x6ffa
 11668 4eca 14       		.uleb128 0x14
 11669 4ecb 00700000 		.4byte	0x7000
 11670 4ecf 00       		.byte	0
 11671 4ed0 46       		.uleb128 0x46
 11672 4ed1 55460000 		.4byte	.LASF524
 11673 4ed5 15       		.byte	0x15
 11674 4ed6 8A02     		.2byte	0x28a
 11675 4ed8 BE230000 		.4byte	.LASF886
 11676 4edc 94000000 		.4byte	0x94
 11677 4ee0 01       		.byte	0x1
 11678 4ee1 E94E0000 		.4byte	0x4ee9
 11679 4ee5 F44E0000 		.4byte	0x4ef4
 11680 4ee9 2F       		.uleb128 0x2f
 11681 4eea F46F0000 		.4byte	0x6ff4
 11682 4eee 14       		.uleb128 0x14
 11683 4eef CE6F0000 		.4byte	0x6fce
 11684 4ef3 00       		.byte	0
 11685 4ef4 46       		.uleb128 0x46
 11686 4ef5 972E0000 		.4byte	.LASF526
 11687 4ef9 15       		.byte	0x15
 11688 4efa 9B02     		.2byte	0x29b
 11689 4efc E92B0000 		.4byte	.LASF887
 11690 4f00 700C0000 		.4byte	0xc70
 11691 4f04 01       		.byte	0x1
 11692 4f05 0D4F0000 		.4byte	0x4f0d
 11693 4f09 184F0000 		.4byte	0x4f18
 11694 4f0d 2F       		.uleb128 0x2f
 11695 4f0e F46F0000 		.4byte	0x6ff4
 11696 4f12 14       		.uleb128 0x14
 11697 4f13 CE6F0000 		.4byte	0x6fce
 11698 4f17 00       		.byte	0
 11699 4f18 46       		.uleb128 0x46
 11700 4f19 3F4A0000 		.4byte	.LASF528
 11701 4f1d 15       		.byte	0x15
 11702 4f1e AC02     		.2byte	0x2ac
 11703 4f20 3A690000 		.4byte	.LASF888
 11704 4f24 06700000 		.4byte	0x7006
 11705 4f28 01       		.byte	0x1
 11706 4f29 314F0000 		.4byte	0x4f31
ARM GAS  /tmp/ccytVDiP.s 			page 207


 11707 4f2d 3C4F0000 		.4byte	0x4f3c
 11708 4f31 2F       		.uleb128 0x2f
 11709 4f32 F46F0000 		.4byte	0x6ff4
 11710 4f36 14       		.uleb128 0x14
 11711 4f37 F64B0000 		.4byte	0x4bf6
 11712 4f3b 00       		.byte	0
 11713 4f3c 46       		.uleb128 0x46
 11714 4f3d 3F4A0000 		.4byte	.LASF528
 11715 4f41 15       		.byte	0x15
 11716 4f42 BC02     		.2byte	0x2bc
 11717 4f44 863C0000 		.4byte	.LASF889
 11718 4f48 06700000 		.4byte	0x7006
 11719 4f4c 01       		.byte	0x1
 11720 4f4d 554F0000 		.4byte	0x4f55
 11721 4f51 654F0000 		.4byte	0x4f65
 11722 4f55 2F       		.uleb128 0x2f
 11723 4f56 F46F0000 		.4byte	0x6ff4
 11724 4f5a 14       		.uleb128 0x14
 11725 4f5b 024C0000 		.4byte	0x4c02
 11726 4f5f 14       		.uleb128 0x14
 11727 4f60 C16C0000 		.4byte	0x6cc1
 11728 4f64 00       		.byte	0
 11729 4f65 46       		.uleb128 0x46
 11730 4f66 10790000 		.4byte	.LASF531
 11731 4f6a 15       		.byte	0x15
 11732 4f6b E001     		.2byte	0x1e0
 11733 4f6d A55C0000 		.4byte	.LASF890
 11734 4f71 844F0000 		.4byte	0x4f84
 11735 4f75 01       		.byte	0x1
 11736 4f76 7E4F0000 		.4byte	0x4f7e
 11737 4f7a 844F0000 		.4byte	0x4f84
 11738 4f7e 2F       		.uleb128 0x2f
 11739 4f7f FA6F0000 		.4byte	0x6ffa
 11740 4f83 00       		.byte	0
 11741 4f84 1B       		.uleb128 0x1b
 11742 4f85 814A0000 		.4byte	0x4a81
 11743 4f89 48       		.uleb128 0x48
 11744 4f8a 656E6400 		.ascii	"end\000"
 11745 4f8e 15       		.byte	0x15
 11746 4f8f E401     		.2byte	0x1e4
 11747 4f91 DD0E0000 		.4byte	.LASF891
 11748 4f95 844F0000 		.4byte	0x4f84
 11749 4f99 01       		.byte	0x1
 11750 4f9a A24F0000 		.4byte	0x4fa2
 11751 4f9e A84F0000 		.4byte	0x4fa8
 11752 4fa2 2F       		.uleb128 0x2f
 11753 4fa3 FA6F0000 		.4byte	0x6ffa
 11754 4fa7 00       		.byte	0
 11755 4fa8 47       		.uleb128 0x47
 11756 4fa9 10170000 		.4byte	.LASF533
 11757 4fad 15       		.byte	0x15
 11758 4fae E801     		.2byte	0x1e8
 11759 4fb0 E2660000 		.4byte	.LASF892
 11760 4fb4 01       		.byte	0x1
 11761 4fb5 BD4F0000 		.4byte	0x4fbd
 11762 4fb9 C84F0000 		.4byte	0x4fc8
 11763 4fbd 2F       		.uleb128 0x2f
ARM GAS  /tmp/ccytVDiP.s 			page 208


 11764 4fbe FA6F0000 		.4byte	0x6ffa
 11765 4fc2 14       		.uleb128 0x14
 11766 4fc3 18700000 		.4byte	0x7018
 11767 4fc7 00       		.byte	0
 11768 4fc8 46       		.uleb128 0x46
 11769 4fc9 10790000 		.4byte	.LASF531
 11770 4fcd 15       		.byte	0x15
 11771 4fce EC01     		.2byte	0x1ec
 11772 4fd0 AF480000 		.4byte	.LASF893
 11773 4fd4 E74F0000 		.4byte	0x4fe7
 11774 4fd8 01       		.byte	0x1
 11775 4fd9 E14F0000 		.4byte	0x4fe1
 11776 4fdd E74F0000 		.4byte	0x4fe7
 11777 4fe1 2F       		.uleb128 0x2f
 11778 4fe2 F46F0000 		.4byte	0x6ff4
 11779 4fe6 00       		.byte	0
 11780 4fe7 1B       		.uleb128 0x1b
 11781 4fe8 864A0000 		.4byte	0x4a86
 11782 4fec 48       		.uleb128 0x48
 11783 4fed 656E6400 		.ascii	"end\000"
 11784 4ff1 15       		.byte	0x15
 11785 4ff2 F201     		.2byte	0x1f2
 11786 4ff4 39310000 		.4byte	.LASF894
 11787 4ff8 E74F0000 		.4byte	0x4fe7
 11788 4ffc 01       		.byte	0x1
 11789 4ffd 05500000 		.4byte	0x5005
 11790 5001 0B500000 		.4byte	0x500b
 11791 5005 2F       		.uleb128 0x2f
 11792 5006 F46F0000 		.4byte	0x6ff4
 11793 500a 00       		.byte	0
 11794 500b 47       		.uleb128 0x47
 11795 500c 10170000 		.4byte	.LASF533
 11796 5010 15       		.byte	0x15
 11797 5011 F601     		.2byte	0x1f6
 11798 5013 5D0E0000 		.4byte	.LASF895
 11799 5017 01       		.byte	0x1
 11800 5018 20500000 		.4byte	0x5020
 11801 501c 2B500000 		.4byte	0x502b
 11802 5020 2F       		.uleb128 0x2f
 11803 5021 F46F0000 		.4byte	0x6ff4
 11804 5025 14       		.uleb128 0x14
 11805 5026 1E700000 		.4byte	0x701e
 11806 502a 00       		.byte	0
 11807 502b 49       		.uleb128 0x49
 11808 502c 19140000 		.4byte	.LASF539
 11809 5030 15       		.byte	0x15
 11810 5031 FA01     		.2byte	0x1fa
 11811 5033 FA6F0000 		.4byte	0x6ffa
 11812 5037 01       		.byte	0x1
 11813 5038 40500000 		.4byte	0x5040
 11814 503c 46500000 		.4byte	0x5046
 11815 5040 2F       		.uleb128 0x2f
 11816 5041 FA6F0000 		.4byte	0x6ffa
 11817 5045 00       		.byte	0
 11818 5046 1B       		.uleb128 0x1b
 11819 5047 724A0000 		.4byte	0x4a72
 11820 504b 4A       		.uleb128 0x4a
ARM GAS  /tmp/ccytVDiP.s 			page 209


 11821 504c 6B4C0000 		.4byte	.LASF540
 11822 5050 B8000000 		.4byte	0xb8
 11823 5054 01       		.byte	0x1
 11824 5055 5D500000 		.4byte	0x505d
 11825 5059 68500000 		.4byte	0x5068
 11826 505d 2F       		.uleb128 0x2f
 11827 505e FA6F0000 		.4byte	0x6ffa
 11828 5062 2F       		.uleb128 0x2f
 11829 5063 94000000 		.4byte	0x94
 11830 5067 00       		.byte	0
 11831 5068 4B       		.uleb128 0x4b
 11832 5069 D7130000 		.4byte	.LASF541
 11833 506d 77500000 		.4byte	0x5077
 11834 5071 00       		.byte	0
 11835 5072 1B       		.uleb128 0x1b
 11836 5073 77500000 		.4byte	0x5077
 11837 5077 2D       		.uleb128 0x2d
 11838 5078 30200000 		.4byte	.LASF896
 11839 507c 1C       		.byte	0x1c
 11840 507d 0C       		.byte	0xc
 11841 507e 15       		.byte	0x15
 11842 507f F3520000 		.4byte	0x52f3
 11843 5083 32       		.uleb128 0x32
 11844 5084 C31D0000 		.4byte	0x1dc3
 11845 5088 00       		.byte	0
 11846 5089 0A       		.uleb128 0xa
 11847 508a DE250000 		.4byte	.LASF612
 11848 508e 0C       		.byte	0xc
 11849 508f 19       		.byte	0x19
 11850 5090 576E0000 		.4byte	0x6e57
 11851 5094 00       		.byte	0
 11852 5095 0A       		.uleb128 0xa
 11853 5096 C4790000 		.4byte	.LASF897
 11854 509a 0C       		.byte	0xc
 11855 509b 1A       		.byte	0x1a
 11856 509c B93B0000 		.4byte	0x3bb9
 11857 50a0 04       		.byte	0x4
 11858 50a1 0A       		.uleb128 0xa
 11859 50a2 C7210000 		.4byte	.LASF898
 11860 50a6 0C       		.byte	0xc
 11861 50a7 1B       		.byte	0x1b
 11862 50a8 55230000 		.4byte	0x2355
 11863 50ac 08       		.byte	0x8
 11864 50ad 0A       		.uleb128 0xa
 11865 50ae 2A000000 		.4byte	.LASF284
 11866 50b2 0C       		.byte	0xc
 11867 50b3 1C       		.byte	0x1c
 11868 50b4 E5470000 		.4byte	0x47e5
 11869 50b8 0C       		.byte	0xc
 11870 50b9 0A       		.uleb128 0xa
 11871 50ba 4C200000 		.4byte	.LASF899
 11872 50be 0C       		.byte	0xc
 11873 50bf 1D       		.byte	0x1d
 11874 50c0 A3200000 		.4byte	0x20a3
 11875 50c4 10       		.byte	0x10
 11876 50c5 0A       		.uleb128 0xa
 11877 50c6 D3680000 		.4byte	.LASF620
ARM GAS  /tmp/ccytVDiP.s 			page 210


 11878 50ca 0C       		.byte	0xc
 11879 50cb 1F       		.byte	0x1f
 11880 50cc 254A0000 		.4byte	0x4a25
 11881 50d0 14       		.byte	0x14
 11882 50d1 36       		.uleb128 0x36
 11883 50d2 05480000 		.4byte	.LASF621
 11884 50d6 0C       		.byte	0xc
 11885 50d7 22       		.byte	0x22
 11886 50d8 46700000 		.4byte	.LASF900
 11887 50dc 13070000 		.4byte	0x713
 11888 50e0 01       		.byte	0x1
 11889 50e1 E9500000 		.4byte	0x50e9
 11890 50e5 EF500000 		.4byte	0x50ef
 11891 50e9 2F       		.uleb128 0x2f
 11892 50ea 2F700000 		.4byte	0x702f
 11893 50ee 00       		.byte	0
 11894 50ef 36       		.uleb128 0x36
 11895 50f0 4E740000 		.4byte	.LASF901
 11896 50f4 0C       		.byte	0xc
 11897 50f5 23       		.byte	0x23
 11898 50f6 14320000 		.4byte	.LASF902
 11899 50fa 35700000 		.4byte	0x7035
 11900 50fe 01       		.byte	0x1
 11901 50ff 07510000 		.4byte	0x5107
 11902 5103 0D510000 		.4byte	0x510d
 11903 5107 2F       		.uleb128 0x2f
 11904 5108 2F700000 		.4byte	0x702f
 11905 510c 00       		.byte	0
 11906 510d 36       		.uleb128 0x36
 11907 510e 2B3F0000 		.4byte	.LASF903
 11908 5112 0C       		.byte	0xc
 11909 5113 24       		.byte	0x24
 11910 5114 584E0000 		.4byte	.LASF904
 11911 5118 3B700000 		.4byte	0x703b
 11912 511c 01       		.byte	0x1
 11913 511d 25510000 		.4byte	0x5125
 11914 5121 2B510000 		.4byte	0x512b
 11915 5125 2F       		.uleb128 0x2f
 11916 5126 2F700000 		.4byte	0x702f
 11917 512a 00       		.byte	0
 11918 512b 36       		.uleb128 0x36
 11919 512c EF760000 		.4byte	.LASF905
 11920 5130 0C       		.byte	0xc
 11921 5131 25       		.byte	0x25
 11922 5132 E70B0000 		.4byte	.LASF906
 11923 5136 700C0000 		.4byte	0xc70
 11924 513a 01       		.byte	0x1
 11925 513b 43510000 		.4byte	0x5143
 11926 513f 49510000 		.4byte	0x5149
 11927 5143 2F       		.uleb128 0x2f
 11928 5144 2F700000 		.4byte	0x702f
 11929 5148 00       		.byte	0
 11930 5149 37       		.uleb128 0x37
 11931 514a 76440000 		.4byte	.LASF907
 11932 514e 0C       		.byte	0xc
 11933 514f 26       		.byte	0x26
 11934 5150 96260000 		.4byte	.LASF908
ARM GAS  /tmp/ccytVDiP.s 			page 211


 11935 5154 01       		.byte	0x1
 11936 5155 5D510000 		.4byte	0x515d
 11937 5159 68510000 		.4byte	0x5168
 11938 515d 2F       		.uleb128 0x2f
 11939 515e 06700000 		.4byte	0x7006
 11940 5162 14       		.uleb128 0x14
 11941 5163 700C0000 		.4byte	0xc70
 11942 5167 00       		.byte	0
 11943 5168 37       		.uleb128 0x37
 11944 5169 1F450000 		.4byte	.LASF909
 11945 516d 0C       		.byte	0xc
 11946 516e 32       		.byte	0x32
 11947 516f D91D0000 		.4byte	.LASF910
 11948 5173 01       		.byte	0x1
 11949 5174 7C510000 		.4byte	0x517c
 11950 5178 87510000 		.4byte	0x5187
 11951 517c 2F       		.uleb128 0x2f
 11952 517d 06700000 		.4byte	0x7006
 11953 5181 14       		.uleb128 0x14
 11954 5182 A6000000 		.4byte	0xa6
 11955 5186 00       		.byte	0
 11956 5187 37       		.uleb128 0x37
 11957 5188 00040000 		.4byte	.LASF911
 11958 518c 0C       		.byte	0xc
 11959 518d 33       		.byte	0x33
 11960 518e 2B050000 		.4byte	.LASF912
 11961 5192 01       		.byte	0x1
 11962 5193 9B510000 		.4byte	0x519b
 11963 5197 A1510000 		.4byte	0x51a1
 11964 519b 2F       		.uleb128 0x2f
 11965 519c 06700000 		.4byte	0x7006
 11966 51a0 00       		.byte	0
 11967 51a1 37       		.uleb128 0x37
 11968 51a2 E0380000 		.4byte	.LASF913
 11969 51a6 0C       		.byte	0xc
 11970 51a7 35       		.byte	0x35
 11971 51a8 5D020000 		.4byte	.LASF914
 11972 51ac 01       		.byte	0x1
 11973 51ad B5510000 		.4byte	0x51b5
 11974 51b1 C0510000 		.4byte	0x51c0
 11975 51b5 2F       		.uleb128 0x2f
 11976 51b6 06700000 		.4byte	0x7006
 11977 51ba 14       		.uleb128 0x14
 11978 51bb A6000000 		.4byte	0xa6
 11979 51bf 00       		.byte	0
 11980 51c0 37       		.uleb128 0x37
 11981 51c1 BD760000 		.4byte	.LASF915
 11982 51c5 0C       		.byte	0xc
 11983 51c6 36       		.byte	0x36
 11984 51c7 A36B0000 		.4byte	.LASF916
 11985 51cb 01       		.byte	0x1
 11986 51cc D4510000 		.4byte	0x51d4
 11987 51d0 DA510000 		.4byte	0x51da
 11988 51d4 2F       		.uleb128 0x2f
 11989 51d5 06700000 		.4byte	0x7006
 11990 51d9 00       		.byte	0
 11991 51da 36       		.uleb128 0x36
ARM GAS  /tmp/ccytVDiP.s 			page 212


 11992 51db 9F580000 		.4byte	.LASF917
 11993 51df 0C       		.byte	0xc
 11994 51e0 38       		.byte	0x38
 11995 51e1 792E0000 		.4byte	.LASF918
 11996 51e5 700C0000 		.4byte	0xc70
 11997 51e9 01       		.byte	0x1
 11998 51ea F2510000 		.4byte	0x51f2
 11999 51ee FD510000 		.4byte	0x51fd
 12000 51f2 2F       		.uleb128 0x2f
 12001 51f3 06700000 		.4byte	0x7006
 12002 51f7 14       		.uleb128 0x14
 12003 51f8 F36C0000 		.4byte	0x6cf3
 12004 51fc 00       		.byte	0
 12005 51fd 44       		.uleb128 0x44
 12006 51fe 25580000 		.4byte	.LASF676
 12007 5202 0C       		.byte	0xc
 12008 5203 3B       		.byte	0x3b
 12009 5204 AE1C0000 		.4byte	.LASF919
 12010 5208 700C0000 		.4byte	0xc70
 12011 520c 14520000 		.4byte	0x5214
 12012 5210 2E520000 		.4byte	0x522e
 12013 5214 2F       		.uleb128 0x2f
 12014 5215 06700000 		.4byte	0x7006
 12015 5219 14       		.uleb128 0x14
 12016 521a 746E0000 		.4byte	0x6e74
 12017 521e 14       		.uleb128 0x14
 12018 521f 13070000 		.4byte	0x713
 12019 5223 14       		.uleb128 0x14
 12020 5224 F36C0000 		.4byte	0x6cf3
 12021 5228 14       		.uleb128 0x14
 12022 5229 AD000000 		.4byte	0xad
 12023 522d 00       		.byte	0
 12024 522e 44       		.uleb128 0x44
 12025 522f 32750000 		.4byte	.LASF679
 12026 5233 0C       		.byte	0xc
 12027 5234 3D       		.byte	0x3d
 12028 5235 C4770000 		.4byte	.LASF920
 12029 5239 700C0000 		.4byte	0xc70
 12030 523d 45520000 		.4byte	0x5245
 12031 5241 5F520000 		.4byte	0x525f
 12032 5245 2F       		.uleb128 0x2f
 12033 5246 06700000 		.4byte	0x7006
 12034 524a 14       		.uleb128 0x14
 12035 524b 806E0000 		.4byte	0x6e80
 12036 524f 14       		.uleb128 0x14
 12037 5250 13070000 		.4byte	0x713
 12038 5254 14       		.uleb128 0x14
 12039 5255 626E0000 		.4byte	0x6e62
 12040 5259 14       		.uleb128 0x14
 12041 525a AD000000 		.4byte	0xad
 12042 525e 00       		.byte	0
 12043 525f 30       		.uleb128 0x30
 12044 5260 30200000 		.4byte	.LASF896
 12045 5264 0C       		.byte	0xc
 12046 5265 41       		.byte	0x41
 12047 5266 06700000 		.4byte	0x7006
 12048 526a 01       		.byte	0x1
ARM GAS  /tmp/ccytVDiP.s 			page 213


 12049 526b 73520000 		.4byte	0x5273
 12050 526f 83520000 		.4byte	0x5283
 12051 5273 2F       		.uleb128 0x2f
 12052 5274 06700000 		.4byte	0x7006
 12053 5278 14       		.uleb128 0x14
 12054 5279 13070000 		.4byte	0x713
 12055 527d 14       		.uleb128 0x14
 12056 527e 700C0000 		.4byte	0xc70
 12057 5282 00       		.byte	0
 12058 5283 30       		.uleb128 0x30
 12059 5284 395D0000 		.4byte	.LASF921
 12060 5288 0C       		.byte	0xc
 12061 5289 42       		.byte	0x42
 12062 528a B8000000 		.4byte	0xb8
 12063 528e 01       		.byte	0x1
 12064 528f 97520000 		.4byte	0x5297
 12065 5293 A2520000 		.4byte	0x52a2
 12066 5297 2F       		.uleb128 0x2f
 12067 5298 06700000 		.4byte	0x7006
 12068 529c 2F       		.uleb128 0x2f
 12069 529d 94000000 		.4byte	0x94
 12070 52a1 00       		.byte	0
 12071 52a2 50       		.uleb128 0x50
 12072 52a3 845D0000 		.4byte	.LASF683
 12073 52a7 0C       		.byte	0xc
 12074 52a8 45       		.byte	0x45
 12075 52a9 3A470000 		.4byte	.LASF922
 12076 52ad 700C0000 		.4byte	0xc70
 12077 52b1 01       		.byte	0x1
 12078 52b2 C1520000 		.4byte	0x52c1
 12079 52b6 14       		.uleb128 0x14
 12080 52b7 CE6F0000 		.4byte	0x6fce
 12081 52bb 14       		.uleb128 0x14
 12082 52bc 13070000 		.4byte	0x713
 12083 52c0 00       		.byte	0
 12084 52c1 45       		.uleb128 0x45
 12085 52c2 35620000 		.4byte	.LASF923
 12086 52c6 0C       		.byte	0xc
 12087 52c7 75       		.byte	0x75
 12088 52c8 336A0000 		.4byte	.LASF924
 12089 52cc 700C0000 		.4byte	0xc70
 12090 52d0 01       		.byte	0x1
 12091 52d1 DD520000 		.4byte	0x52dd
 12092 52d5 3E       		.uleb128 0x3e
 12093 52d6 4D5400   		.ascii	"MT\000"
 12094 52d9 53690000 		.4byte	0x6953
 12095 52dd 2F       		.uleb128 0x2f
 12096 52de 06700000 		.4byte	0x7006
 12097 52e2 14       		.uleb128 0x14
 12098 52e3 C77B0000 		.4byte	0x7bc7
 12099 52e7 14       		.uleb128 0x14
 12100 52e8 13070000 		.4byte	0x713
 12101 52ec 14       		.uleb128 0x14
 12102 52ed F36C0000 		.4byte	0x6cf3
 12103 52f1 00       		.byte	0
 12104 52f2 00       		.byte	0
 12105 52f3 1B       		.uleb128 0x1b
ARM GAS  /tmp/ccytVDiP.s 			page 214


 12106 52f4 134A0000 		.4byte	0x4a13
 12107 52f8 2D       		.uleb128 0x2d
 12108 52f9 CD3E0000 		.4byte	.LASF925
 12109 52fd 08       		.byte	0x8
 12110 52fe 38       		.byte	0x38
 12111 52ff 21       		.byte	0x21
 12112 5300 4B560000 		.4byte	0x564b
 12113 5304 5C       		.uleb128 0x5c
 12114 5305 01       		.byte	0x1
 12115 5306 38       		.byte	0x38
 12116 5307 2A       		.byte	0x2a
 12117 5308 01       		.byte	0x1
 12118 5309 14530000 		.4byte	0x5314
 12119 530d 2A       		.uleb128 0x2a
 12120 530e DF4C0000 		.4byte	.LASF926
 12121 5312 02       		.sleb128 2
 12122 5313 00       		.byte	0
 12123 5314 32       		.uleb128 0x32
 12124 5315 C31D0000 		.4byte	0x1dc3
 12125 5319 00       		.byte	0
 12126 531a 35       		.uleb128 0x35
 12127 531b B8290000 		.4byte	.LASF927
 12128 531f 38       		.byte	0x38
 12129 5320 23       		.byte	0x23
 12130 5321 2E0C0000 		.4byte	0xc2e
 12131 5325 01       		.byte	0x1
 12132 5326 0A       		.uleb128 0xa
 12133 5327 6E760000 		.4byte	.LASF928
 12134 532b 38       		.byte	0x38
 12135 532c 30       		.byte	0x30
 12136 532d 46700000 		.4byte	0x7046
 12137 5331 00       		.byte	0
 12138 5332 0A       		.uleb128 0xa
 12139 5333 31260000 		.4byte	.LASF929
 12140 5337 38       		.byte	0x38
 12141 5338 31       		.byte	0x31
 12142 5339 700C0000 		.4byte	0xc70
 12143 533d 04       		.byte	0x4
 12144 533e 35       		.uleb128 0x35
 12145 533f 30000000 		.4byte	.LASF930
 12146 5343 38       		.byte	0x38
 12147 5344 24       		.byte	0x24
 12148 5345 2E0C0000 		.4byte	0xc2e
 12149 5349 01       		.byte	0x1
 12150 534a 0A       		.uleb128 0xa
 12151 534b 482B0000 		.4byte	.LASF931
 12152 534f 38       		.byte	0x38
 12153 5350 32       		.byte	0x32
 12154 5351 3E530000 		.4byte	0x533e
 12155 5355 06       		.byte	0x6
 12156 5356 3A       		.uleb128 0x3a
 12157 5357 871D0000 		.4byte	.LASF932
 12158 535b 38       		.byte	0x38
 12159 535c 5A       		.byte	0x5a
 12160 535d 62530000 		.4byte	0x5362
 12161 5361 01       		.byte	0x1
 12162 5362 1B       		.uleb128 0x1b
ARM GAS  /tmp/ccytVDiP.s 			page 215


 12163 5363 1A530000 		.4byte	0x531a
 12164 5367 37       		.uleb128 0x37
 12165 5368 0F2F0000 		.4byte	.LASF933
 12166 536c 38       		.byte	0x38
 12167 536d 35       		.byte	0x35
 12168 536e A43D0000 		.4byte	.LASF934
 12169 5372 01       		.byte	0x1
 12170 5373 7B530000 		.4byte	0x537b
 12171 5377 86530000 		.4byte	0x5386
 12172 537b 2F       		.uleb128 0x2f
 12173 537c 4C700000 		.4byte	0x704c
 12174 5380 14       		.uleb128 0x14
 12175 5381 46700000 		.4byte	0x7046
 12176 5385 00       		.byte	0
 12177 5386 37       		.uleb128 0x37
 12178 5387 10790000 		.4byte	.LASF531
 12179 538b 38       		.byte	0x38
 12180 538c 37       		.byte	0x37
 12181 538d A5230000 		.4byte	.LASF935
 12182 5391 01       		.byte	0x1
 12183 5392 9A530000 		.4byte	0x539a
 12184 5396 A0530000 		.4byte	0x53a0
 12185 539a 2F       		.uleb128 0x2f
 12186 539b 4C700000 		.4byte	0x704c
 12187 539f 00       		.byte	0
 12188 53a0 5D       		.uleb128 0x5d
 12189 53a1 656E6400 		.ascii	"end\000"
 12190 53a5 38       		.byte	0x38
 12191 53a6 38       		.byte	0x38
 12192 53a7 70140000 		.4byte	.LASF1265
 12193 53ab 700C0000 		.4byte	0xc70
 12194 53af 01       		.byte	0x1
 12195 53b0 B8530000 		.4byte	0x53b8
 12196 53b4 BE530000 		.4byte	0x53be
 12197 53b8 2F       		.uleb128 0x2f
 12198 53b9 4C700000 		.4byte	0x704c
 12199 53bd 00       		.byte	0
 12200 53be 36       		.uleb128 0x36
 12201 53bf 6F0A0000 		.4byte	.LASF936
 12202 53c3 38       		.byte	0x38
 12203 53c4 39       		.byte	0x39
 12204 53c5 38790000 		.4byte	.LASF937
 12205 53c9 700C0000 		.4byte	0xc70
 12206 53cd 01       		.byte	0x1
 12207 53ce D6530000 		.4byte	0x53d6
 12208 53d2 EB530000 		.4byte	0x53eb
 12209 53d6 2F       		.uleb128 0x2f
 12210 53d7 4C700000 		.4byte	0x704c
 12211 53db 14       		.uleb128 0x14
 12212 53dc 52700000 		.4byte	0x7052
 12213 53e0 14       		.uleb128 0x14
 12214 53e1 52700000 		.4byte	0x7052
 12215 53e5 14       		.uleb128 0x14
 12216 53e6 AD000000 		.4byte	0xad
 12217 53ea 00       		.byte	0
 12218 53eb 36       		.uleb128 0x36
 12219 53ec 43370000 		.4byte	.LASF938
ARM GAS  /tmp/ccytVDiP.s 			page 216


 12220 53f0 38       		.byte	0x38
 12221 53f1 3A       		.byte	0x3a
 12222 53f2 131E0000 		.4byte	.LASF939
 12223 53f6 700C0000 		.4byte	0xc70
 12224 53fa 01       		.byte	0x1
 12225 53fb 03540000 		.4byte	0x5403
 12226 53ff 13540000 		.4byte	0x5413
 12227 5403 2F       		.uleb128 0x2f
 12228 5404 4C700000 		.4byte	0x704c
 12229 5408 14       		.uleb128 0x14
 12230 5409 52700000 		.4byte	0x7052
 12231 540d 14       		.uleb128 0x14
 12232 540e AD000000 		.4byte	0xad
 12233 5412 00       		.byte	0
 12234 5413 36       		.uleb128 0x36
 12235 5414 97180000 		.4byte	.LASF940
 12236 5418 38       		.byte	0x38
 12237 5419 3B       		.byte	0x3b
 12238 541a 9E070000 		.4byte	.LASF941
 12239 541e 700C0000 		.4byte	0xc70
 12240 5422 01       		.byte	0x1
 12241 5423 2B540000 		.4byte	0x542b
 12242 5427 40540000 		.4byte	0x5440
 12243 542b 2F       		.uleb128 0x2f
 12244 542c 4C700000 		.4byte	0x704c
 12245 5430 14       		.uleb128 0x14
 12246 5431 60120000 		.4byte	0x1260
 12247 5435 14       		.uleb128 0x14
 12248 5436 60120000 		.4byte	0x1260
 12249 543a 14       		.uleb128 0x14
 12250 543b AD000000 		.4byte	0xad
 12251 543f 00       		.byte	0
 12252 5440 36       		.uleb128 0x36
 12253 5441 D95B0000 		.4byte	.LASF942
 12254 5445 38       		.byte	0x38
 12255 5446 3C       		.byte	0x3c
 12256 5447 782F0000 		.4byte	.LASF943
 12257 544b 700C0000 		.4byte	0xc70
 12258 544f 01       		.byte	0x1
 12259 5450 58540000 		.4byte	0x5458
 12260 5454 68540000 		.4byte	0x5468
 12261 5458 2F       		.uleb128 0x2f
 12262 5459 4C700000 		.4byte	0x704c
 12263 545d 14       		.uleb128 0x14
 12264 545e 60120000 		.4byte	0x1260
 12265 5462 14       		.uleb128 0x14
 12266 5463 AD000000 		.4byte	0xad
 12267 5467 00       		.byte	0
 12268 5468 30       		.uleb128 0x30
 12269 5469 CD3E0000 		.4byte	.LASF925
 12270 546d 38       		.byte	0x38
 12271 546e 3F       		.byte	0x3f
 12272 546f 4C700000 		.4byte	0x704c
 12273 5473 01       		.byte	0x1
 12274 5474 7C540000 		.4byte	0x547c
 12275 5478 87540000 		.4byte	0x5487
 12276 547c 2F       		.uleb128 0x2f
ARM GAS  /tmp/ccytVDiP.s 			page 217


 12277 547d 4C700000 		.4byte	0x704c
 12278 5481 14       		.uleb128 0x14
 12279 5482 46700000 		.4byte	0x7046
 12280 5486 00       		.byte	0
 12281 5487 50       		.uleb128 0x50
 12282 5488 EE6A0000 		.4byte	.LASF944
 12283 548c 38       		.byte	0x38
 12284 548d 42       		.byte	0x42
 12285 548e 58190000 		.4byte	.LASF945
 12286 5492 700C0000 		.4byte	0xc70
 12287 5496 01       		.byte	0x1
 12288 5497 A1540000 		.4byte	0x54a1
 12289 549b 14       		.uleb128 0x14
 12290 549c C16C0000 		.4byte	0x6cc1
 12291 54a0 00       		.byte	0
 12292 54a1 50       		.uleb128 0x50
 12293 54a2 2E4A0000 		.4byte	.LASF946
 12294 54a6 38       		.byte	0x38
 12295 54a7 43       		.byte	0x43
 12296 54a8 07190000 		.4byte	.LASF947
 12297 54ac 700C0000 		.4byte	0xc70
 12298 54b0 01       		.byte	0x1
 12299 54b1 BB540000 		.4byte	0x54bb
 12300 54b5 14       		.uleb128 0x14
 12301 54b6 C16C0000 		.4byte	0x6cc1
 12302 54ba 00       		.byte	0
 12303 54bb 50       		.uleb128 0x50
 12304 54bc C5460000 		.4byte	.LASF948
 12305 54c0 38       		.byte	0x38
 12306 54c1 44       		.byte	0x44
 12307 54c2 1F0A0000 		.4byte	.LASF949
 12308 54c6 700C0000 		.4byte	0xc70
 12309 54ca 01       		.byte	0x1
 12310 54cb D5540000 		.4byte	0x54d5
 12311 54cf 14       		.uleb128 0x14
 12312 54d0 3E530000 		.4byte	0x533e
 12313 54d4 00       		.byte	0
 12314 54d5 50       		.uleb128 0x50
 12315 54d6 D95B0000 		.4byte	.LASF942
 12316 54da 38       		.byte	0x38
 12317 54db 45       		.byte	0x45
 12318 54dc BF010000 		.4byte	.LASF950
 12319 54e0 700C0000 		.4byte	0xc70
 12320 54e4 01       		.byte	0x1
 12321 54e5 EF540000 		.4byte	0x54ef
 12322 54e9 14       		.uleb128 0x14
 12323 54ea 3E530000 		.4byte	0x533e
 12324 54ee 00       		.byte	0
 12325 54ef 50       		.uleb128 0x50
 12326 54f0 166E0000 		.4byte	.LASF951
 12327 54f4 38       		.byte	0x38
 12328 54f5 46       		.byte	0x46
 12329 54f6 6F380000 		.4byte	.LASF952
 12330 54fa 94000000 		.4byte	0x94
 12331 54fe 01       		.byte	0x1
 12332 54ff 0E550000 		.4byte	0x550e
 12333 5503 14       		.uleb128 0x14
ARM GAS  /tmp/ccytVDiP.s 			page 218


 12334 5504 3E530000 		.4byte	0x533e
 12335 5508 14       		.uleb128 0x14
 12336 5509 58700000 		.4byte	0x7058
 12337 550d 00       		.byte	0
 12338 550e 24       		.uleb128 0x24
 12339 550f 62530000 		.4byte	0x5362
 12340 5513 50       		.uleb128 0x50
 12341 5514 0A060000 		.4byte	.LASF260
 12342 5518 38       		.byte	0x38
 12343 5519 47       		.byte	0x47
 12344 551a 83290000 		.4byte	.LASF953
 12345 551e 700C0000 		.4byte	0xc70
 12346 5522 01       		.byte	0x1
 12347 5523 32550000 		.4byte	0x5532
 12348 5527 14       		.uleb128 0x14
 12349 5528 3E530000 		.4byte	0x533e
 12350 552c 14       		.uleb128 0x14
 12351 552d 46700000 		.4byte	0x7046
 12352 5531 00       		.byte	0
 12353 5532 50       		.uleb128 0x50
 12354 5533 0F4B0000 		.4byte	.LASF259
 12355 5537 38       		.byte	0x38
 12356 5538 48       		.byte	0x48
 12357 5539 DB040000 		.4byte	.LASF954
 12358 553d 700C0000 		.4byte	0xc70
 12359 5541 01       		.byte	0x1
 12360 5542 51550000 		.4byte	0x5551
 12361 5546 14       		.uleb128 0x14
 12362 5547 3E530000 		.4byte	0x533e
 12363 554b 14       		.uleb128 0x14
 12364 554c 58700000 		.4byte	0x7058
 12365 5550 00       		.byte	0
 12366 5551 50       		.uleb128 0x50
 12367 5552 034E0000 		.4byte	.LASF955
 12368 5556 38       		.byte	0x38
 12369 5557 49       		.byte	0x49
 12370 5558 7F160000 		.4byte	.LASF956
 12371 555c 700C0000 		.4byte	0xc70
 12372 5560 01       		.byte	0x1
 12373 5561 70550000 		.4byte	0x5570
 12374 5565 14       		.uleb128 0x14
 12375 5566 3E530000 		.4byte	0x533e
 12376 556a 14       		.uleb128 0x14
 12377 556b 58700000 		.4byte	0x7058
 12378 556f 00       		.byte	0
 12379 5570 50       		.uleb128 0x50
 12380 5571 95060000 		.4byte	.LASF957
 12381 5575 38       		.byte	0x38
 12382 5576 4B       		.byte	0x4b
 12383 5577 D7090000 		.4byte	.LASF958
 12384 557b 60120000 		.4byte	0x1260
 12385 557f 01       		.byte	0x1
 12386 5580 8A550000 		.4byte	0x558a
 12387 5584 14       		.uleb128 0x14
 12388 5585 3E530000 		.4byte	0x533e
 12389 5589 00       		.byte	0
 12390 558a 50       		.uleb128 0x50
ARM GAS  /tmp/ccytVDiP.s 			page 219


 12391 558b E5520000 		.4byte	.LASF959
 12392 558f 38       		.byte	0x38
 12393 5590 4C       		.byte	0x4c
 12394 5591 69640000 		.4byte	.LASF960
 12395 5595 3E530000 		.4byte	0x533e
 12396 5599 01       		.byte	0x1
 12397 559a A4550000 		.4byte	0x55a4
 12398 559e 14       		.uleb128 0x14
 12399 559f 60120000 		.4byte	0x1260
 12400 55a3 00       		.byte	0
 12401 55a4 50       		.uleb128 0x50
 12402 55a5 8E590000 		.4byte	.LASF961
 12403 55a9 38       		.byte	0x38
 12404 55aa 4D       		.byte	0x4d
 12405 55ab 92740000 		.4byte	.LASF962
 12406 55af 60120000 		.4byte	0x1260
 12407 55b3 01       		.byte	0x1
 12408 55b4 BE550000 		.4byte	0x55be
 12409 55b8 14       		.uleb128 0x14
 12410 55b9 60120000 		.4byte	0x1260
 12411 55bd 00       		.byte	0
 12412 55be 50       		.uleb128 0x50
 12413 55bf 12650000 		.4byte	.LASF963
 12414 55c3 38       		.byte	0x38
 12415 55c4 4E       		.byte	0x4e
 12416 55c5 232D0000 		.4byte	.LASF964
 12417 55c9 60120000 		.4byte	0x1260
 12418 55cd 01       		.byte	0x1
 12419 55ce D8550000 		.4byte	0x55d8
 12420 55d2 14       		.uleb128 0x14
 12421 55d3 60120000 		.4byte	0x1260
 12422 55d7 00       		.byte	0
 12423 55d8 56       		.uleb128 0x56
 12424 55d9 E6390000 		.4byte	.LASF965
 12425 55dd 38       		.byte	0x38
 12426 55de 50       		.byte	0x50
 12427 55df 5F130000 		.4byte	.LASF966
 12428 55e3 60120000 		.4byte	0x1260
 12429 55e7 01       		.byte	0x1
 12430 55e8 56       		.uleb128 0x56
 12431 55e9 5B400000 		.4byte	.LASF967
 12432 55ed 38       		.byte	0x38
 12433 55ee 51       		.byte	0x51
 12434 55ef 2A740000 		.4byte	.LASF968
 12435 55f3 60120000 		.4byte	0x1260
 12436 55f7 01       		.byte	0x1
 12437 55f8 56       		.uleb128 0x56
 12438 55f9 9D290000 		.4byte	.LASF969
 12439 55fd 38       		.byte	0x38
 12440 55fe 52       		.byte	0x52
 12441 55ff 9C370000 		.4byte	.LASF970
 12442 5603 AD000000 		.4byte	0xad
 12443 5607 01       		.byte	0x1
 12444 5608 56       		.uleb128 0x56
 12445 5609 DE330000 		.4byte	.LASF971
 12446 560d 38       		.byte	0x38
 12447 560e 53       		.byte	0x53
ARM GAS  /tmp/ccytVDiP.s 			page 220


 12448 560f E1130000 		.4byte	.LASF972
 12449 5613 60120000 		.4byte	0x1260
 12450 5617 01       		.byte	0x1
 12451 5618 56       		.uleb128 0x56
 12452 5619 E3750000 		.4byte	.LASF973
 12453 561d 38       		.byte	0x38
 12454 561e 54       		.byte	0x54
 12455 561f D6470000 		.4byte	.LASF974
 12456 5623 60120000 		.4byte	0x1260
 12457 5627 01       		.byte	0x1
 12458 5628 56       		.uleb128 0x56
 12459 5629 43660000 		.4byte	.LASF975
 12460 562d 38       		.byte	0x38
 12461 562e 55       		.byte	0x55
 12462 562f 535A0000 		.4byte	.LASF976
 12463 5633 AD000000 		.4byte	0xad
 12464 5637 01       		.byte	0x1
 12465 5638 5E       		.uleb128 0x5e
 12466 5639 87010000 		.4byte	.LASF977
 12467 563d 38       		.byte	0x38
 12468 563e 57       		.byte	0x57
 12469 563f DB650000 		.4byte	.LASF1266
 12470 5643 01       		.byte	0x1
 12471 5644 14       		.uleb128 0x14
 12472 5645 60120000 		.4byte	0x1260
 12473 5649 00       		.byte	0
 12474 564a 00       		.byte	0
 12475 564b 2D       		.uleb128 0x2d
 12476 564c 82710000 		.4byte	.LASF978
 12477 5650 10       		.byte	0x10
 12478 5651 0F       		.byte	0xf
 12479 5652 09       		.byte	0x9
 12480 5653 5C570000 		.4byte	0x575c
 12481 5657 32       		.uleb128 0x32
 12482 5658 C31D0000 		.4byte	0x1dc3
 12483 565c 00       		.byte	0
 12484 565d 0A       		.uleb128 0xa
 12485 565e F5220000 		.4byte	.LASF408
 12486 5662 0F       		.byte	0xf
 12487 5663 0B       		.byte	0xb
 12488 5664 BA0F0000 		.4byte	0xfba
 12489 5668 00       		.byte	0
 12490 5669 37       		.uleb128 0x37
 12491 566a F75A0000 		.4byte	.LASF979
 12492 566e 0F       		.byte	0xf
 12493 566f 0E       		.byte	0xe
 12494 5670 E52E0000 		.4byte	.LASF980
 12495 5674 01       		.byte	0x1
 12496 5675 7D560000 		.4byte	0x567d
 12497 5679 83560000 		.4byte	0x5683
 12498 567d 2F       		.uleb128 0x2f
 12499 567e 5E700000 		.4byte	0x705e
 12500 5682 00       		.byte	0
 12501 5683 37       		.uleb128 0x37
 12502 5684 BF5D0000 		.4byte	.LASF691
 12503 5688 0F       		.byte	0xf
 12504 5689 10       		.byte	0x10
ARM GAS  /tmp/ccytVDiP.s 			page 221


 12505 568a 53080000 		.4byte	.LASF981
 12506 568e 01       		.byte	0x1
 12507 568f 97560000 		.4byte	0x5697
 12508 5693 9D560000 		.4byte	0x569d
 12509 5697 2F       		.uleb128 0x2f
 12510 5698 5E700000 		.4byte	0x705e
 12511 569c 00       		.byte	0
 12512 569d 37       		.uleb128 0x37
 12513 569e 3D320000 		.4byte	.LASF653
 12514 56a2 0F       		.byte	0xf
 12515 56a3 11       		.byte	0x11
 12516 56a4 CE220000 		.4byte	.LASF982
 12517 56a8 01       		.byte	0x1
 12518 56a9 B1560000 		.4byte	0x56b1
 12519 56ad B7560000 		.4byte	0x56b7
 12520 56b1 2F       		.uleb128 0x2f
 12521 56b2 5E700000 		.4byte	0x705e
 12522 56b6 00       		.byte	0
 12523 56b7 37       		.uleb128 0x37
 12524 56b8 33270000 		.4byte	.LASF398
 12525 56bc 0F       		.byte	0xf
 12526 56bd 13       		.byte	0x13
 12527 56be A9690000 		.4byte	.LASF983
 12528 56c2 01       		.byte	0x1
 12529 56c3 CB560000 		.4byte	0x56cb
 12530 56c7 D1560000 		.4byte	0x56d1
 12531 56cb 2F       		.uleb128 0x2f
 12532 56cc 5E700000 		.4byte	0x705e
 12533 56d0 00       		.byte	0
 12534 56d1 37       		.uleb128 0x37
 12535 56d2 8A5B0000 		.4byte	.LASF399
 12536 56d6 0F       		.byte	0xf
 12537 56d7 14       		.byte	0x14
 12538 56d8 BE390000 		.4byte	.LASF984
 12539 56dc 01       		.byte	0x1
 12540 56dd E5560000 		.4byte	0x56e5
 12541 56e1 EB560000 		.4byte	0x56eb
 12542 56e5 2F       		.uleb128 0x2f
 12543 56e6 5E700000 		.4byte	0x705e
 12544 56ea 00       		.byte	0
 12545 56eb 36       		.uleb128 0x36
 12546 56ec 20040000 		.4byte	.LASF423
 12547 56f0 0F       		.byte	0xf
 12548 56f1 16       		.byte	0x16
 12549 56f2 134D0000 		.4byte	.LASF985
 12550 56f6 64700000 		.4byte	0x7064
 12551 56fa 01       		.byte	0x1
 12552 56fb 03570000 		.4byte	0x5703
 12553 56ff 09570000 		.4byte	0x5709
 12554 5703 2F       		.uleb128 0x2f
 12555 5704 5E700000 		.4byte	0x705e
 12556 5708 00       		.byte	0
 12557 5709 30       		.uleb128 0x30
 12558 570a 82710000 		.4byte	.LASF978
 12559 570e 0F       		.byte	0xf
 12560 570f 19       		.byte	0x19
 12561 5710 5E700000 		.4byte	0x705e
ARM GAS  /tmp/ccytVDiP.s 			page 222


 12562 5714 01       		.byte	0x1
 12563 5715 1D570000 		.4byte	0x571d
 12564 5719 23570000 		.4byte	0x5723
 12565 571d 2F       		.uleb128 0x2f
 12566 571e 5E700000 		.4byte	0x705e
 12567 5722 00       		.byte	0
 12568 5723 3B       		.uleb128 0x3b
 12569 5724 82710000 		.4byte	.LASF978
 12570 5728 0F       		.byte	0xf
 12571 5729 1A       		.byte	0x1a
 12572 572a 5E700000 		.4byte	0x705e
 12573 572e 01       		.byte	0x1
 12574 572f 37570000 		.4byte	0x5737
 12575 5733 42570000 		.4byte	0x5742
 12576 5737 2F       		.uleb128 0x2f
 12577 5738 5E700000 		.4byte	0x705e
 12578 573c 14       		.uleb128 0x14
 12579 573d 700C0000 		.4byte	0xc70
 12580 5741 00       		.byte	0
 12581 5742 38       		.uleb128 0x38
 12582 5743 AA0F0000 		.4byte	.LASF986
 12583 5747 B8000000 		.4byte	0xb8
 12584 574b 01       		.byte	0x1
 12585 574c 50570000 		.4byte	0x5750
 12586 5750 2F       		.uleb128 0x2f
 12587 5751 5E700000 		.4byte	0x705e
 12588 5755 2F       		.uleb128 0x2f
 12589 5756 94000000 		.4byte	0x94
 12590 575a 00       		.byte	0
 12591 575b 00       		.byte	0
 12592 575c 2D       		.uleb128 0x2d
 12593 575d 93240000 		.4byte	.LASF209
 12594 5761 14       		.byte	0x14
 12595 5762 10       		.byte	0x10
 12596 5763 09       		.byte	0x9
 12597 5764 4F580000 		.4byte	0x584f
 12598 5768 32       		.uleb128 0x32
 12599 5769 C31D0000 		.4byte	0x1dc3
 12600 576d 00       		.byte	0
 12601 576e 0A       		.uleb128 0xa
 12602 576f F5220000 		.4byte	.LASF408
 12603 5773 10       		.byte	0x10
 12604 5774 0B       		.byte	0xb
 12605 5775 4B560000 		.4byte	0x564b
 12606 5779 04       		.byte	0x4
 12607 577a 37       		.uleb128 0x37
 12608 577b F75A0000 		.4byte	.LASF979
 12609 577f 10       		.byte	0x10
 12610 5780 0E       		.byte	0xe
 12611 5781 C4620000 		.4byte	.LASF987
 12612 5785 01       		.byte	0x1
 12613 5786 8E570000 		.4byte	0x578e
 12614 578a 94570000 		.4byte	0x5794
 12615 578e 2F       		.uleb128 0x2f
 12616 578f 6A700000 		.4byte	0x706a
 12617 5793 00       		.byte	0
 12618 5794 37       		.uleb128 0x37
ARM GAS  /tmp/ccytVDiP.s 			page 223


 12619 5795 BF5D0000 		.4byte	.LASF691
 12620 5799 10       		.byte	0x10
 12621 579a 10       		.byte	0x10
 12622 579b D7790000 		.4byte	.LASF988
 12623 579f 01       		.byte	0x1
 12624 57a0 A8570000 		.4byte	0x57a8
 12625 57a4 AE570000 		.4byte	0x57ae
 12626 57a8 2F       		.uleb128 0x2f
 12627 57a9 6A700000 		.4byte	0x706a
 12628 57ad 00       		.byte	0
 12629 57ae 37       		.uleb128 0x37
 12630 57af 3D320000 		.4byte	.LASF653
 12631 57b3 10       		.byte	0x10
 12632 57b4 11       		.byte	0x11
 12633 57b5 F5560000 		.4byte	.LASF989
 12634 57b9 01       		.byte	0x1
 12635 57ba C2570000 		.4byte	0x57c2
 12636 57be C8570000 		.4byte	0x57c8
 12637 57c2 2F       		.uleb128 0x2f
 12638 57c3 6A700000 		.4byte	0x706a
 12639 57c7 00       		.byte	0
 12640 57c8 37       		.uleb128 0x37
 12641 57c9 33270000 		.4byte	.LASF398
 12642 57cd 10       		.byte	0x10
 12643 57ce 13       		.byte	0x13
 12644 57cf 321F0000 		.4byte	.LASF990
 12645 57d3 01       		.byte	0x1
 12646 57d4 DC570000 		.4byte	0x57dc
 12647 57d8 E2570000 		.4byte	0x57e2
 12648 57dc 2F       		.uleb128 0x2f
 12649 57dd 6A700000 		.4byte	0x706a
 12650 57e1 00       		.byte	0
 12651 57e2 37       		.uleb128 0x37
 12652 57e3 8A5B0000 		.4byte	.LASF399
 12653 57e7 10       		.byte	0x10
 12654 57e8 14       		.byte	0x14
 12655 57e9 5E240000 		.4byte	.LASF991
 12656 57ed 01       		.byte	0x1
 12657 57ee F6570000 		.4byte	0x57f6
 12658 57f2 FC570000 		.4byte	0x57fc
 12659 57f6 2F       		.uleb128 0x2f
 12660 57f7 6A700000 		.4byte	0x706a
 12661 57fb 00       		.byte	0
 12662 57fc 30       		.uleb128 0x30
 12663 57fd 93240000 		.4byte	.LASF209
 12664 5801 10       		.byte	0x10
 12665 5802 17       		.byte	0x17
 12666 5803 6A700000 		.4byte	0x706a
 12667 5807 01       		.byte	0x1
 12668 5808 10580000 		.4byte	0x5810
 12669 580c 16580000 		.4byte	0x5816
 12670 5810 2F       		.uleb128 0x2f
 12671 5811 6A700000 		.4byte	0x706a
 12672 5815 00       		.byte	0
 12673 5816 3B       		.uleb128 0x3b
 12674 5817 93240000 		.4byte	.LASF209
 12675 581b 10       		.byte	0x10
ARM GAS  /tmp/ccytVDiP.s 			page 224


 12676 581c 18       		.byte	0x18
 12677 581d 6A700000 		.4byte	0x706a
 12678 5821 01       		.byte	0x1
 12679 5822 2A580000 		.4byte	0x582a
 12680 5826 35580000 		.4byte	0x5835
 12681 582a 2F       		.uleb128 0x2f
 12682 582b 6A700000 		.4byte	0x706a
 12683 582f 14       		.uleb128 0x14
 12684 5830 700C0000 		.4byte	0xc70
 12685 5834 00       		.byte	0
 12686 5835 38       		.uleb128 0x38
 12687 5836 644C0000 		.4byte	.LASF992
 12688 583a B8000000 		.4byte	0xb8
 12689 583e 01       		.byte	0x1
 12690 583f 43580000 		.4byte	0x5843
 12691 5843 2F       		.uleb128 0x2f
 12692 5844 6A700000 		.4byte	0x706a
 12693 5848 2F       		.uleb128 0x2f
 12694 5849 94000000 		.4byte	0x94
 12695 584d 00       		.byte	0
 12696 584e 00       		.byte	0
 12697 584f 2D       		.uleb128 0x2d
 12698 5850 6F520000 		.4byte	.LASF993
 12699 5854 18       		.byte	0x18
 12700 5855 16       		.byte	0x16
 12701 5856 09       		.byte	0x9
 12702 5857 4E590000 		.4byte	0x594e
 12703 585b 32       		.uleb128 0x32
 12704 585c C31D0000 		.4byte	0x1dc3
 12705 5860 00       		.byte	0
 12706 5861 0A       		.uleb128 0xa
 12707 5862 C4070000 		.4byte	.LASF994
 12708 5866 16       		.byte	0x16
 12709 5867 0B       		.byte	0xb
 12710 5868 AD000000 		.4byte	0xad
 12711 586c 00       		.byte	0
 12712 586d 0A       		.uleb128 0xa
 12713 586e 14270000 		.4byte	.LASF995
 12714 5872 16       		.byte	0x16
 12715 5873 0C       		.byte	0xc
 12716 5874 5C570000 		.4byte	0x575c
 12717 5878 04       		.byte	0x4
 12718 5879 37       		.uleb128 0x37
 12719 587a F75A0000 		.4byte	.LASF979
 12720 587e 16       		.byte	0x16
 12721 587f 0F       		.byte	0xf
 12722 5880 2C150000 		.4byte	.LASF996
 12723 5884 01       		.byte	0x1
 12724 5885 8D580000 		.4byte	0x588d
 12725 5889 93580000 		.4byte	0x5893
 12726 588d 2F       		.uleb128 0x2f
 12727 588e 70700000 		.4byte	0x7070
 12728 5892 00       		.byte	0
 12729 5893 37       		.uleb128 0x37
 12730 5894 BF5D0000 		.4byte	.LASF691
 12731 5898 16       		.byte	0x16
 12732 5899 11       		.byte	0x11
ARM GAS  /tmp/ccytVDiP.s 			page 225


 12733 589a 41430000 		.4byte	.LASF997
 12734 589e 01       		.byte	0x1
 12735 589f A7580000 		.4byte	0x58a7
 12736 58a3 AD580000 		.4byte	0x58ad
 12737 58a7 2F       		.uleb128 0x2f
 12738 58a8 70700000 		.4byte	0x7070
 12739 58ac 00       		.byte	0
 12740 58ad 37       		.uleb128 0x37
 12741 58ae 3D320000 		.4byte	.LASF653
 12742 58b2 16       		.byte	0x16
 12743 58b3 12       		.byte	0x12
 12744 58b4 8D5D0000 		.4byte	.LASF998
 12745 58b8 01       		.byte	0x1
 12746 58b9 C1580000 		.4byte	0x58c1
 12747 58bd C7580000 		.4byte	0x58c7
 12748 58c1 2F       		.uleb128 0x2f
 12749 58c2 70700000 		.4byte	0x7070
 12750 58c6 00       		.byte	0
 12751 58c7 37       		.uleb128 0x37
 12752 58c8 33270000 		.4byte	.LASF398
 12753 58cc 16       		.byte	0x16
 12754 58cd 14       		.byte	0x14
 12755 58ce CE4D0000 		.4byte	.LASF999
 12756 58d2 01       		.byte	0x1
 12757 58d3 DB580000 		.4byte	0x58db
 12758 58d7 E1580000 		.4byte	0x58e1
 12759 58db 2F       		.uleb128 0x2f
 12760 58dc 70700000 		.4byte	0x7070
 12761 58e0 00       		.byte	0
 12762 58e1 37       		.uleb128 0x37
 12763 58e2 8A5B0000 		.4byte	.LASF399
 12764 58e6 16       		.byte	0x16
 12765 58e7 15       		.byte	0x15
 12766 58e8 3B540000 		.4byte	.LASF1000
 12767 58ec 01       		.byte	0x1
 12768 58ed F5580000 		.4byte	0x58f5
 12769 58f1 FB580000 		.4byte	0x58fb
 12770 58f5 2F       		.uleb128 0x2f
 12771 58f6 70700000 		.4byte	0x7070
 12772 58fa 00       		.byte	0
 12773 58fb 30       		.uleb128 0x30
 12774 58fc 6F520000 		.4byte	.LASF993
 12775 5900 16       		.byte	0x16
 12776 5901 18       		.byte	0x18
 12777 5902 70700000 		.4byte	0x7070
 12778 5906 01       		.byte	0x1
 12779 5907 0F590000 		.4byte	0x590f
 12780 590b 15590000 		.4byte	0x5915
 12781 590f 2F       		.uleb128 0x2f
 12782 5910 70700000 		.4byte	0x7070
 12783 5914 00       		.byte	0
 12784 5915 3B       		.uleb128 0x3b
 12785 5916 6F520000 		.4byte	.LASF993
 12786 591a 16       		.byte	0x16
 12787 591b 19       		.byte	0x19
 12788 591c 70700000 		.4byte	0x7070
 12789 5920 01       		.byte	0x1
ARM GAS  /tmp/ccytVDiP.s 			page 226


 12790 5921 29590000 		.4byte	0x5929
 12791 5925 34590000 		.4byte	0x5934
 12792 5929 2F       		.uleb128 0x2f
 12793 592a 70700000 		.4byte	0x7070
 12794 592e 14       		.uleb128 0x14
 12795 592f 700C0000 		.4byte	0xc70
 12796 5933 00       		.byte	0
 12797 5934 38       		.uleb128 0x38
 12798 5935 34320000 		.4byte	.LASF1001
 12799 5939 B8000000 		.4byte	0xb8
 12800 593d 01       		.byte	0x1
 12801 593e 42590000 		.4byte	0x5942
 12802 5942 2F       		.uleb128 0x2f
 12803 5943 70700000 		.4byte	0x7070
 12804 5947 2F       		.uleb128 0x2f
 12805 5948 94000000 		.4byte	0x94
 12806 594c 00       		.byte	0
 12807 594d 00       		.byte	0
 12808 594e 2D       		.uleb128 0x2d
 12809 594f 79690000 		.4byte	.LASF1002
 12810 5953 04       		.byte	0x4
 12811 5954 15       		.byte	0x15
 12812 5955 0F       		.byte	0xf
 12813 5956 385E0000 		.4byte	0x5e38
 12814 595a 32       		.uleb128 0x32
 12815 595b C31D0000 		.4byte	0x1dc3
 12816 595f 00       		.byte	0
 12817 5960 3F       		.uleb128 0x3f
 12818 5961 026D0000 		.4byte	.LASF463
 12819 5965 08       		.byte	0x8
 12820 5966 15       		.byte	0x15
 12821 5967 11       		.byte	0x11
 12822 5968 01       		.byte	0x1
 12823 5969 A0590000 		.4byte	0x59a0
 12824 596d 0A       		.uleb128 0xa
 12825 596e 21390000 		.4byte	.LASF461
 12826 5972 15       		.byte	0x15
 12827 5973 12       		.byte	0x12
 12828 5974 76700000 		.4byte	0x7076
 12829 5978 00       		.byte	0
 12830 5979 0A       		.uleb128 0xa
 12831 597a 54200000 		.4byte	.LASF462
 12832 597e 15       		.byte	0x15
 12833 597f 13       		.byte	0x13
 12834 5980 E7700000 		.4byte	0x70e7
 12835 5984 04       		.byte	0x4
 12836 5985 40       		.uleb128 0x40
 12837 5986 026D0000 		.4byte	.LASF463
 12838 598a 15       		.byte	0x15
 12839 598b 15       		.byte	0x15
 12840 598c 76700000 		.4byte	0x7076
 12841 5990 94590000 		.4byte	0x5994
 12842 5994 2F       		.uleb128 0x2f
 12843 5995 76700000 		.4byte	0x7076
 12844 5999 14       		.uleb128 0x14
 12845 599a 8C6E0000 		.4byte	0x6e8c
 12846 599e 00       		.byte	0
ARM GAS  /tmp/ccytVDiP.s 			page 227


 12847 599f 00       		.byte	0
 12848 59a0 18       		.uleb128 0x18
 12849 59a1 F7180000 		.4byte	.LASF464
 12850 59a5 15       		.byte	0x15
 12851 59a6 8A01     		.2byte	0x18a
 12852 59a8 76700000 		.4byte	0x7076
 12853 59ac 00       		.byte	0
 12854 59ad 42       		.uleb128 0x42
 12855 59ae 1F270000 		.4byte	.LASF465
 12856 59b2 42       		.uleb128 0x42
 12857 59b3 D83A0000 		.4byte	.LASF466
 12858 59b7 42       		.uleb128 0x42
 12859 59b8 09650000 		.4byte	.LASF467
 12860 59bc 42       		.uleb128 0x42
 12861 59bd 804B0000 		.4byte	.LASF469
 12862 59c1 06       		.uleb128 0x6
 12863 59c2 5A200000 		.4byte	.LASF484
 12864 59c6 15       		.byte	0x15
 12865 59c7 8601     		.2byte	0x186
 12866 59c9 7C700000 		.4byte	0x707c
 12867 59cd 06       		.uleb128 0x6
 12868 59ce 14180000 		.4byte	.LASF485
 12869 59d2 15       		.byte	0x15
 12870 59d3 8701     		.2byte	0x187
 12871 59d5 97700000 		.4byte	0x7097
 12872 59d9 46       		.uleb128 0x46
 12873 59da B4790000 		.4byte	.LASF486
 12874 59de 15       		.byte	0x15
 12875 59df 8D01     		.2byte	0x18d
 12876 59e1 74150000 		.4byte	.LASF1003
 12877 59e5 B1700000 		.4byte	0x70b1
 12878 59e9 01       		.byte	0x1
 12879 59ea F2590000 		.4byte	0x59f2
 12880 59ee F8590000 		.4byte	0x59f8
 12881 59f2 2F       		.uleb128 0x2f
 12882 59f3 B7700000 		.4byte	0x70b7
 12883 59f7 00       		.byte	0
 12884 59f8 1B       		.uleb128 0x1b
 12885 59f9 60590000 		.4byte	0x5960
 12886 59fd 46       		.uleb128 0x46
 12887 59fe BC730000 		.4byte	.LASF487
 12888 5a02 15       		.byte	0x15
 12889 5a03 9101     		.2byte	0x191
 12890 5a05 A1000000 		.4byte	.LASF1004
 12891 5a09 700C0000 		.4byte	0xc70
 12892 5a0d 01       		.byte	0x1
 12893 5a0e 165A0000 		.4byte	0x5a16
 12894 5a12 1C5A0000 		.4byte	0x5a1c
 12895 5a16 2F       		.uleb128 0x2f
 12896 5a17 B7700000 		.4byte	0x70b7
 12897 5a1b 00       		.byte	0
 12898 5a1c 46       		.uleb128 0x46
 12899 5a1d 1F260000 		.4byte	.LASF490
 12900 5a21 15       		.byte	0x15
 12901 5a22 0302     		.2byte	0x203
 12902 5a24 60170000 		.4byte	.LASF1005
 12903 5a28 AD000000 		.4byte	0xad
ARM GAS  /tmp/ccytVDiP.s 			page 228


 12904 5a2c 01       		.byte	0x1
 12905 5a2d 355A0000 		.4byte	0x5a35
 12906 5a31 3B5A0000 		.4byte	0x5a3b
 12907 5a35 2F       		.uleb128 0x2f
 12908 5a36 B7700000 		.4byte	0x70b7
 12909 5a3a 00       		.byte	0
 12910 5a3b 47       		.uleb128 0x47
 12911 5a3c 8E580000 		.4byte	.LASF492
 12912 5a40 15       		.byte	0x15
 12913 5a41 9701     		.2byte	0x197
 12914 5a43 27570000 		.4byte	.LASF1006
 12915 5a47 01       		.byte	0x1
 12916 5a48 505A0000 		.4byte	0x5a50
 12917 5a4c 5B5A0000 		.4byte	0x5a5b
 12918 5a50 2F       		.uleb128 0x2f
 12919 5a51 BD700000 		.4byte	0x70bd
 12920 5a55 14       		.uleb128 0x14
 12921 5a56 C3700000 		.4byte	0x70c3
 12922 5a5a 00       		.byte	0
 12923 5a5b 47       		.uleb128 0x47
 12924 5a5c DB630000 		.4byte	.LASF493
 12925 5a60 15       		.byte	0x15
 12926 5a61 9F01     		.2byte	0x19f
 12927 5a63 815E0000 		.4byte	.LASF1007
 12928 5a67 01       		.byte	0x1
 12929 5a68 705A0000 		.4byte	0x5a70
 12930 5a6c 7B5A0000 		.4byte	0x5a7b
 12931 5a70 2F       		.uleb128 0x2f
 12932 5a71 BD700000 		.4byte	0x70bd
 12933 5a75 14       		.uleb128 0x14
 12934 5a76 C3700000 		.4byte	0x70c3
 12935 5a7a 00       		.byte	0
 12936 5a7b 46       		.uleb128 0x46
 12937 5a7c B8330000 		.4byte	.LASF496
 12938 5a80 15       		.byte	0x15
 12939 5a81 0E02     		.2byte	0x20e
 12940 5a83 F8080000 		.4byte	.LASF1008
 12941 5a87 700C0000 		.4byte	0xc70
 12942 5a8b 01       		.byte	0x1
 12943 5a8c 945A0000 		.4byte	0x5a94
 12944 5a90 9F5A0000 		.4byte	0x5a9f
 12945 5a94 2F       		.uleb128 0x2f
 12946 5a95 BD700000 		.4byte	0x70bd
 12947 5a99 14       		.uleb128 0x14
 12948 5a9a C3700000 		.4byte	0x70c3
 12949 5a9e 00       		.byte	0
 12950 5a9f 46       		.uleb128 0x46
 12951 5aa0 2D440000 		.4byte	.LASF498
 12952 5aa4 15       		.byte	0x15
 12953 5aa5 1F02     		.2byte	0x21f
 12954 5aa7 CE6D0000 		.4byte	.LASF1009
 12955 5aab 94000000 		.4byte	0x94
 12956 5aaf 01       		.byte	0x1
 12957 5ab0 B85A0000 		.4byte	0x5ab8
 12958 5ab4 C35A0000 		.4byte	0x5ac3
 12959 5ab8 2F       		.uleb128 0x2f
 12960 5ab9 B7700000 		.4byte	0x70b7
ARM GAS  /tmp/ccytVDiP.s 			page 229


 12961 5abd 14       		.uleb128 0x14
 12962 5abe 91700000 		.4byte	0x7091
 12963 5ac2 00       		.byte	0
 12964 5ac3 46       		.uleb128 0x46
 12965 5ac4 1B5F0000 		.4byte	.LASF500
 12966 5ac8 15       		.byte	0x15
 12967 5ac9 2C02     		.2byte	0x22c
 12968 5acb E7240000 		.4byte	.LASF1010
 12969 5acf 700C0000 		.4byte	0xc70
 12970 5ad3 01       		.byte	0x1
 12971 5ad4 DC5A0000 		.4byte	0x5adc
 12972 5ad8 E75A0000 		.4byte	0x5ae7
 12973 5adc 2F       		.uleb128 0x2f
 12974 5add B7700000 		.4byte	0x70b7
 12975 5ae1 14       		.uleb128 0x14
 12976 5ae2 91700000 		.4byte	0x7091
 12977 5ae6 00       		.byte	0
 12978 5ae7 46       		.uleb128 0x46
 12979 5ae8 42400000 		.4byte	.LASF502
 12980 5aec 15       		.byte	0x15
 12981 5aed 3802     		.2byte	0x238
 12982 5aef 1C760000 		.4byte	.LASF1011
 12983 5af3 C9700000 		.4byte	0x70c9
 12984 5af7 01       		.byte	0x1
 12985 5af8 005B0000 		.4byte	0x5b00
 12986 5afc 0B5B0000 		.4byte	0x5b0b
 12987 5b00 2F       		.uleb128 0x2f
 12988 5b01 B7700000 		.4byte	0x70b7
 12989 5b05 14       		.uleb128 0x14
 12990 5b06 C1590000 		.4byte	0x59c1
 12991 5b0a 00       		.byte	0
 12992 5b0b 46       		.uleb128 0x46
 12993 5b0c 42400000 		.4byte	.LASF502
 12994 5b10 15       		.byte	0x15
 12995 5b11 4402     		.2byte	0x244
 12996 5b13 D10A0000 		.4byte	.LASF1012
 12997 5b17 C9700000 		.4byte	0x70c9
 12998 5b1b 01       		.byte	0x1
 12999 5b1c 245B0000 		.4byte	0x5b24
 13000 5b20 345B0000 		.4byte	0x5b34
 13001 5b24 2F       		.uleb128 0x2f
 13002 5b25 B7700000 		.4byte	0x70b7
 13003 5b29 14       		.uleb128 0x14
 13004 5b2a CD590000 		.4byte	0x59cd
 13005 5b2e 14       		.uleb128 0x14
 13006 5b2f C16C0000 		.4byte	0x6cc1
 13007 5b33 00       		.byte	0
 13008 5b34 46       		.uleb128 0x46
 13009 5b35 9B130000 		.4byte	.LASF505
 13010 5b39 15       		.byte	0x15
 13011 5b3a B301     		.2byte	0x1b3
 13012 5b3c 20530000 		.4byte	.LASF1013
 13013 5b40 535B0000 		.4byte	0x5b53
 13014 5b44 01       		.byte	0x1
 13015 5b45 4D5B0000 		.4byte	0x5b4d
 13016 5b49 535B0000 		.4byte	0x5b53
 13017 5b4d 2F       		.uleb128 0x2f
ARM GAS  /tmp/ccytVDiP.s 			page 230


 13018 5b4e BD700000 		.4byte	0x70bd
 13019 5b52 00       		.byte	0
 13020 5b53 1B       		.uleb128 0x1b
 13021 5b54 AD590000 		.4byte	0x59ad
 13022 5b58 46       		.uleb128 0x46
 13023 5b59 D43C0000 		.4byte	.LASF507
 13024 5b5d 15       		.byte	0x15
 13025 5b5e B701     		.2byte	0x1b7
 13026 5b60 91680000 		.4byte	.LASF1014
 13027 5b64 535B0000 		.4byte	0x5b53
 13028 5b68 01       		.byte	0x1
 13029 5b69 715B0000 		.4byte	0x5b71
 13030 5b6d 775B0000 		.4byte	0x5b77
 13031 5b71 2F       		.uleb128 0x2f
 13032 5b72 BD700000 		.4byte	0x70bd
 13033 5b76 00       		.byte	0
 13034 5b77 47       		.uleb128 0x47
 13035 5b78 1B7A0000 		.4byte	.LASF509
 13036 5b7c 15       		.byte	0x15
 13037 5b7d BB01     		.2byte	0x1bb
 13038 5b7f 90420000 		.4byte	.LASF1015
 13039 5b83 01       		.byte	0x1
 13040 5b84 8C5B0000 		.4byte	0x5b8c
 13041 5b88 975B0000 		.4byte	0x5b97
 13042 5b8c 2F       		.uleb128 0x2f
 13043 5b8d BD700000 		.4byte	0x70bd
 13044 5b91 14       		.uleb128 0x14
 13045 5b92 CF700000 		.4byte	0x70cf
 13046 5b96 00       		.byte	0
 13047 5b97 46       		.uleb128 0x46
 13048 5b98 9B130000 		.4byte	.LASF505
 13049 5b9c 15       		.byte	0x15
 13050 5b9d BF01     		.2byte	0x1bf
 13051 5b9f 81110000 		.4byte	.LASF1016
 13052 5ba3 B65B0000 		.4byte	0x5bb6
 13053 5ba7 01       		.byte	0x1
 13054 5ba8 B05B0000 		.4byte	0x5bb0
 13055 5bac B65B0000 		.4byte	0x5bb6
 13056 5bb0 2F       		.uleb128 0x2f
 13057 5bb1 B7700000 		.4byte	0x70b7
 13058 5bb5 00       		.byte	0
 13059 5bb6 1B       		.uleb128 0x1b
 13060 5bb7 B2590000 		.4byte	0x59b2
 13061 5bbb 46       		.uleb128 0x46
 13062 5bbc D43C0000 		.4byte	.LASF507
 13063 5bc0 15       		.byte	0x15
 13064 5bc1 C301     		.2byte	0x1c3
 13065 5bc3 806A0000 		.4byte	.LASF1017
 13066 5bc7 B65B0000 		.4byte	0x5bb6
 13067 5bcb 01       		.byte	0x1
 13068 5bcc D45B0000 		.4byte	0x5bd4
 13069 5bd0 DA5B0000 		.4byte	0x5bda
 13070 5bd4 2F       		.uleb128 0x2f
 13071 5bd5 B7700000 		.4byte	0x70b7
 13072 5bd9 00       		.byte	0
 13073 5bda 47       		.uleb128 0x47
 13074 5bdb 1B7A0000 		.4byte	.LASF509
ARM GAS  /tmp/ccytVDiP.s 			page 231


 13075 5bdf 15       		.byte	0x15
 13076 5be0 C701     		.2byte	0x1c7
 13077 5be2 AD410000 		.4byte	.LASF1018
 13078 5be6 01       		.byte	0x1
 13079 5be7 EF5B0000 		.4byte	0x5bef
 13080 5beb FA5B0000 		.4byte	0x5bfa
 13081 5bef 2F       		.uleb128 0x2f
 13082 5bf0 B7700000 		.4byte	0x70b7
 13083 5bf4 14       		.uleb128 0x14
 13084 5bf5 D5700000 		.4byte	0x70d5
 13085 5bf9 00       		.byte	0
 13086 5bfa 46       		.uleb128 0x46
 13087 5bfb 826D0000 		.4byte	.LASF514
 13088 5bff 15       		.byte	0x15
 13089 5c00 5302     		.2byte	0x253
 13090 5c02 8C280000 		.4byte	.LASF1019
 13091 5c06 B1700000 		.4byte	0x70b1
 13092 5c0a 01       		.byte	0x1
 13093 5c0b 135C0000 		.4byte	0x5c13
 13094 5c0f 195C0000 		.4byte	0x5c19
 13095 5c13 2F       		.uleb128 0x2f
 13096 5c14 B7700000 		.4byte	0x70b7
 13097 5c18 00       		.byte	0
 13098 5c19 46       		.uleb128 0x46
 13099 5c1a 3C710000 		.4byte	.LASF516
 13100 5c1e 15       		.byte	0x15
 13101 5c1f 5D02     		.2byte	0x25d
 13102 5c21 C1510000 		.4byte	.LASF1020
 13103 5c25 700C0000 		.4byte	0xc70
 13104 5c29 01       		.byte	0x1
 13105 5c2a 325C0000 		.4byte	0x5c32
 13106 5c2e 385C0000 		.4byte	0x5c38
 13107 5c32 2F       		.uleb128 0x2f
 13108 5c33 B7700000 		.4byte	0x70b7
 13109 5c37 00       		.byte	0
 13110 5c38 46       		.uleb128 0x46
 13111 5c39 C3400000 		.4byte	.LASF518
 13112 5c3d 15       		.byte	0x15
 13113 5c3e 6702     		.2byte	0x267
 13114 5c40 9E030000 		.4byte	.LASF1021
 13115 5c44 AD000000 		.4byte	0xad
 13116 5c48 01       		.byte	0x1
 13117 5c49 515C0000 		.4byte	0x5c51
 13118 5c4d 575C0000 		.4byte	0x5c57
 13119 5c51 2F       		.uleb128 0x2f
 13120 5c52 B7700000 		.4byte	0x70b7
 13121 5c56 00       		.byte	0
 13122 5c57 47       		.uleb128 0x47
 13123 5c58 2C260000 		.4byte	.LASF520
 13124 5c5c 15       		.byte	0x15
 13125 5c5d 7602     		.2byte	0x276
 13126 5c5f 4E290000 		.4byte	.LASF1022
 13127 5c63 01       		.byte	0x1
 13128 5c64 6C5C0000 		.4byte	0x5c6c
 13129 5c68 775C0000 		.4byte	0x5c77
 13130 5c6c 2F       		.uleb128 0x2f
 13131 5c6d BD700000 		.4byte	0x70bd
ARM GAS  /tmp/ccytVDiP.s 			page 232


 13132 5c71 14       		.uleb128 0x14
 13133 5c72 C3700000 		.4byte	0x70c3
 13134 5c76 00       		.byte	0
 13135 5c77 46       		.uleb128 0x46
 13136 5c78 83190000 		.4byte	.LASF522
 13137 5c7c 15       		.byte	0x15
 13138 5c7d 8002     		.2byte	0x280
 13139 5c7f F9480000 		.4byte	.LASF1023
 13140 5c83 700C0000 		.4byte	0xc70
 13141 5c87 01       		.byte	0x1
 13142 5c88 905C0000 		.4byte	0x5c90
 13143 5c8c 9B5C0000 		.4byte	0x5c9b
 13144 5c90 2F       		.uleb128 0x2f
 13145 5c91 BD700000 		.4byte	0x70bd
 13146 5c95 14       		.uleb128 0x14
 13147 5c96 C3700000 		.4byte	0x70c3
 13148 5c9a 00       		.byte	0
 13149 5c9b 46       		.uleb128 0x46
 13150 5c9c 55460000 		.4byte	.LASF524
 13151 5ca0 15       		.byte	0x15
 13152 5ca1 8A02     		.2byte	0x28a
 13153 5ca3 E4740000 		.4byte	.LASF1024
 13154 5ca7 94000000 		.4byte	0x94
 13155 5cab 01       		.byte	0x1
 13156 5cac B45C0000 		.4byte	0x5cb4
 13157 5cb0 BF5C0000 		.4byte	0x5cbf
 13158 5cb4 2F       		.uleb128 0x2f
 13159 5cb5 B7700000 		.4byte	0x70b7
 13160 5cb9 14       		.uleb128 0x14
 13161 5cba 91700000 		.4byte	0x7091
 13162 5cbe 00       		.byte	0
 13163 5cbf 46       		.uleb128 0x46
 13164 5cc0 972E0000 		.4byte	.LASF526
 13165 5cc4 15       		.byte	0x15
 13166 5cc5 9B02     		.2byte	0x29b
 13167 5cc7 6C480000 		.4byte	.LASF1025
 13168 5ccb 700C0000 		.4byte	0xc70
 13169 5ccf 01       		.byte	0x1
 13170 5cd0 D85C0000 		.4byte	0x5cd8
 13171 5cd4 E35C0000 		.4byte	0x5ce3
 13172 5cd8 2F       		.uleb128 0x2f
 13173 5cd9 B7700000 		.4byte	0x70b7
 13174 5cdd 14       		.uleb128 0x14
 13175 5cde 91700000 		.4byte	0x7091
 13176 5ce2 00       		.byte	0
 13177 5ce3 46       		.uleb128 0x46
 13178 5ce4 3F4A0000 		.4byte	.LASF528
 13179 5ce8 15       		.byte	0x15
 13180 5ce9 AC02     		.2byte	0x2ac
 13181 5ceb 0D770000 		.4byte	.LASF1026
 13182 5cef C9700000 		.4byte	0x70c9
 13183 5cf3 01       		.byte	0x1
 13184 5cf4 FC5C0000 		.4byte	0x5cfc
 13185 5cf8 075D0000 		.4byte	0x5d07
 13186 5cfc 2F       		.uleb128 0x2f
 13187 5cfd B7700000 		.4byte	0x70b7
 13188 5d01 14       		.uleb128 0x14
ARM GAS  /tmp/ccytVDiP.s 			page 233


 13189 5d02 C1590000 		.4byte	0x59c1
 13190 5d06 00       		.byte	0
 13191 5d07 46       		.uleb128 0x46
 13192 5d08 3F4A0000 		.4byte	.LASF528
 13193 5d0c 15       		.byte	0x15
 13194 5d0d BC02     		.2byte	0x2bc
 13195 5d0f 7E5A0000 		.4byte	.LASF1027
 13196 5d13 C9700000 		.4byte	0x70c9
 13197 5d17 01       		.byte	0x1
 13198 5d18 205D0000 		.4byte	0x5d20
 13199 5d1c 305D0000 		.4byte	0x5d30
 13200 5d20 2F       		.uleb128 0x2f
 13201 5d21 B7700000 		.4byte	0x70b7
 13202 5d25 14       		.uleb128 0x14
 13203 5d26 CD590000 		.4byte	0x59cd
 13204 5d2a 14       		.uleb128 0x14
 13205 5d2b C16C0000 		.4byte	0x6cc1
 13206 5d2f 00       		.byte	0
 13207 5d30 46       		.uleb128 0x46
 13208 5d31 10790000 		.4byte	.LASF531
 13209 5d35 15       		.byte	0x15
 13210 5d36 E001     		.2byte	0x1e0
 13211 5d38 C4080000 		.4byte	.LASF1028
 13212 5d3c 4F5D0000 		.4byte	0x5d4f
 13213 5d40 01       		.byte	0x1
 13214 5d41 495D0000 		.4byte	0x5d49
 13215 5d45 4F5D0000 		.4byte	0x5d4f
 13216 5d49 2F       		.uleb128 0x2f
 13217 5d4a BD700000 		.4byte	0x70bd
 13218 5d4e 00       		.byte	0
 13219 5d4f 1B       		.uleb128 0x1b
 13220 5d50 B7590000 		.4byte	0x59b7
 13221 5d54 48       		.uleb128 0x48
 13222 5d55 656E6400 		.ascii	"end\000"
 13223 5d59 15       		.byte	0x15
 13224 5d5a E401     		.2byte	0x1e4
 13225 5d5c 07640000 		.4byte	.LASF1029
 13226 5d60 4F5D0000 		.4byte	0x5d4f
 13227 5d64 01       		.byte	0x1
 13228 5d65 6D5D0000 		.4byte	0x5d6d
 13229 5d69 735D0000 		.4byte	0x5d73
 13230 5d6d 2F       		.uleb128 0x2f
 13231 5d6e BD700000 		.4byte	0x70bd
 13232 5d72 00       		.byte	0
 13233 5d73 47       		.uleb128 0x47
 13234 5d74 10170000 		.4byte	.LASF533
 13235 5d78 15       		.byte	0x15
 13236 5d79 E801     		.2byte	0x1e8
 13237 5d7b 45730000 		.4byte	.LASF1030
 13238 5d7f 01       		.byte	0x1
 13239 5d80 885D0000 		.4byte	0x5d88
 13240 5d84 935D0000 		.4byte	0x5d93
 13241 5d88 2F       		.uleb128 0x2f
 13242 5d89 BD700000 		.4byte	0x70bd
 13243 5d8d 14       		.uleb128 0x14
 13244 5d8e DB700000 		.4byte	0x70db
 13245 5d92 00       		.byte	0
ARM GAS  /tmp/ccytVDiP.s 			page 234


 13246 5d93 46       		.uleb128 0x46
 13247 5d94 10790000 		.4byte	.LASF531
 13248 5d98 15       		.byte	0x15
 13249 5d99 EC01     		.2byte	0x1ec
 13250 5d9b 64200000 		.4byte	.LASF1031
 13251 5d9f B25D0000 		.4byte	0x5db2
 13252 5da3 01       		.byte	0x1
 13253 5da4 AC5D0000 		.4byte	0x5dac
 13254 5da8 B25D0000 		.4byte	0x5db2
 13255 5dac 2F       		.uleb128 0x2f
 13256 5dad B7700000 		.4byte	0x70b7
 13257 5db1 00       		.byte	0
 13258 5db2 1B       		.uleb128 0x1b
 13259 5db3 BC590000 		.4byte	0x59bc
 13260 5db7 48       		.uleb128 0x48
 13261 5db8 656E6400 		.ascii	"end\000"
 13262 5dbc 15       		.byte	0x15
 13263 5dbd F201     		.2byte	0x1f2
 13264 5dbf 182C0000 		.4byte	.LASF1032
 13265 5dc3 B25D0000 		.4byte	0x5db2
 13266 5dc7 01       		.byte	0x1
 13267 5dc8 D05D0000 		.4byte	0x5dd0
 13268 5dcc D65D0000 		.4byte	0x5dd6
 13269 5dd0 2F       		.uleb128 0x2f
 13270 5dd1 B7700000 		.4byte	0x70b7
 13271 5dd5 00       		.byte	0
 13272 5dd6 47       		.uleb128 0x47
 13273 5dd7 10170000 		.4byte	.LASF533
 13274 5ddb 15       		.byte	0x15
 13275 5ddc F601     		.2byte	0x1f6
 13276 5dde 510F0000 		.4byte	.LASF1033
 13277 5de2 01       		.byte	0x1
 13278 5de3 EB5D0000 		.4byte	0x5deb
 13279 5de7 F65D0000 		.4byte	0x5df6
 13280 5deb 2F       		.uleb128 0x2f
 13281 5dec B7700000 		.4byte	0x70b7
 13282 5df0 14       		.uleb128 0x14
 13283 5df1 E1700000 		.4byte	0x70e1
 13284 5df5 00       		.byte	0
 13285 5df6 49       		.uleb128 0x49
 13286 5df7 19140000 		.4byte	.LASF539
 13287 5dfb 15       		.byte	0x15
 13288 5dfc FA01     		.2byte	0x1fa
 13289 5dfe BD700000 		.4byte	0x70bd
 13290 5e02 01       		.byte	0x1
 13291 5e03 0B5E0000 		.4byte	0x5e0b
 13292 5e07 115E0000 		.4byte	0x5e11
 13293 5e0b 2F       		.uleb128 0x2f
 13294 5e0c BD700000 		.4byte	0x70bd
 13295 5e10 00       		.byte	0
 13296 5e11 4A       		.uleb128 0x4a
 13297 5e12 6B4C0000 		.4byte	.LASF540
 13298 5e16 B8000000 		.4byte	0xb8
 13299 5e1a 01       		.byte	0x1
 13300 5e1b 235E0000 		.4byte	0x5e23
 13301 5e1f 2E5E0000 		.4byte	0x5e2e
 13302 5e23 2F       		.uleb128 0x2f
ARM GAS  /tmp/ccytVDiP.s 			page 235


 13303 5e24 BD700000 		.4byte	0x70bd
 13304 5e28 2F       		.uleb128 0x2f
 13305 5e29 94000000 		.4byte	0x94
 13306 5e2d 00       		.byte	0
 13307 5e2e 4B       		.uleb128 0x4b
 13308 5e2f D7130000 		.4byte	.LASF541
 13309 5e33 B43B0000 		.4byte	0x3bb4
 13310 5e37 00       		.byte	0
 13311 5e38 1B       		.uleb128 0x1b
 13312 5e39 B43B0000 		.4byte	0x3bb4
 13313 5e3d 1B       		.uleb128 0x1b
 13314 5e3e 4E590000 		.4byte	0x594e
 13315 5e42 53       		.uleb128 0x53
 13316 5e43 F6470000 		.4byte	.LASF1034
 13317 5e47 08       		.byte	0x8
 13318 5e48 39       		.byte	0x39
 13319 5e49 0F       		.byte	0xf
 13320 5e4a 425E0000 		.4byte	0x5e42
 13321 5e4e 4F600000 		.4byte	0x604f
 13322 5e52 32       		.uleb128 0x32
 13323 5e53 C31D0000 		.4byte	0x1dc3
 13324 5e57 00       		.byte	0
 13325 5e58 5F       		.uleb128 0x5f
 13326 5e59 15350000 		.4byte	.LASF1035
 13327 5e5d D6710000 		.4byte	0x71d6
 13328 5e61 00       		.byte	0
 13329 5e62 01       		.byte	0x1
 13330 5e63 0A       		.uleb128 0xa
 13331 5e64 05660000 		.4byte	.LASF1036
 13332 5e68 39       		.byte	0x39
 13333 5e69 11       		.byte	0x11
 13334 5e6a 2E6E0000 		.4byte	0x6e2e
 13335 5e6e 04       		.byte	0x4
 13336 5e6f 4A       		.uleb128 0x4a
 13337 5e70 F6470000 		.4byte	.LASF1034
 13338 5e74 EC700000 		.4byte	0x70ec
 13339 5e78 01       		.byte	0x1
 13340 5e79 815E0000 		.4byte	0x5e81
 13341 5e7d 8C5E0000 		.4byte	0x5e8c
 13342 5e81 2F       		.uleb128 0x2f
 13343 5e82 EC700000 		.4byte	0x70ec
 13344 5e86 14       		.uleb128 0x14
 13345 5e87 3D720000 		.4byte	0x723d
 13346 5e8b 00       		.byte	0
 13347 5e8c 36       		.uleb128 0x36
 13348 5e8d D30E0000 		.4byte	.LASF1037
 13349 5e91 39       		.byte	0x39
 13350 5e92 2A       		.byte	0x2a
 13351 5e93 97210000 		.4byte	.LASF1038
 13352 5e97 2E6E0000 		.4byte	0x6e2e
 13353 5e9b 01       		.byte	0x1
 13354 5e9c A45E0000 		.4byte	0x5ea4
 13355 5ea0 AA5E0000 		.4byte	0x5eaa
 13356 5ea4 2F       		.uleb128 0x2f
 13357 5ea5 43720000 		.4byte	0x7243
 13358 5ea9 00       		.byte	0
 13359 5eaa 4D       		.uleb128 0x4d
ARM GAS  /tmp/ccytVDiP.s 			page 236


 13360 5eab A1250000 		.4byte	.LASF542
 13361 5eaf 39       		.byte	0x39
 13362 5eb0 15       		.byte	0x15
 13363 5eb1 97770000 		.4byte	.LASF1039
 13364 5eb5 AD000000 		.4byte	0xad
 13365 5eb9 01       		.byte	0x1
 13366 5eba 02       		.uleb128 0x2
 13367 5ebb 10       		.byte	0x10
 13368 5ebc 00       		.uleb128 0
 13369 5ebd 425E0000 		.4byte	0x5e42
 13370 5ec1 01       		.byte	0x1
 13371 5ec2 CA5E0000 		.4byte	0x5eca
 13372 5ec6 D05E0000 		.4byte	0x5ed0
 13373 5eca 2F       		.uleb128 0x2f
 13374 5ecb 43720000 		.4byte	0x7243
 13375 5ecf 00       		.byte	0
 13376 5ed0 37       		.uleb128 0x37
 13377 5ed1 FA220000 		.4byte	.LASF1040
 13378 5ed5 39       		.byte	0x39
 13379 5ed6 31       		.byte	0x31
 13380 5ed7 75750000 		.4byte	.LASF1041
 13381 5edb 01       		.byte	0x1
 13382 5edc E45E0000 		.4byte	0x5ee4
 13383 5ee0 EF5E0000 		.4byte	0x5eef
 13384 5ee4 2F       		.uleb128 0x2f
 13385 5ee5 EC700000 		.4byte	0x70ec
 13386 5ee9 14       		.uleb128 0x14
 13387 5eea 516E0000 		.4byte	0x6e51
 13388 5eee 00       		.byte	0
 13389 5eef 4D       		.uleb128 0x4d
 13390 5ef0 1F450000 		.4byte	.LASF909
 13391 5ef4 39       		.byte	0x39
 13392 5ef5 18       		.byte	0x18
 13393 5ef6 A4100000 		.4byte	.LASF1042
 13394 5efa 700C0000 		.4byte	0xc70
 13395 5efe 01       		.byte	0x1
 13396 5eff 02       		.uleb128 0x2
 13397 5f00 10       		.byte	0x10
 13398 5f01 01       		.uleb128 0x1
 13399 5f02 425E0000 		.4byte	0x5e42
 13400 5f06 01       		.byte	0x1
 13401 5f07 0F5F0000 		.4byte	0x5f0f
 13402 5f0b 1F5F0000 		.4byte	0x5f1f
 13403 5f0f 2F       		.uleb128 0x2f
 13404 5f10 EC700000 		.4byte	0x70ec
 13405 5f14 14       		.uleb128 0x14
 13406 5f15 686E0000 		.4byte	0x6e68
 13407 5f19 14       		.uleb128 0x14
 13408 5f1a F36C0000 		.4byte	0x6cf3
 13409 5f1e 00       		.byte	0
 13410 5f1f 4D       		.uleb128 0x4d
 13411 5f20 7F430000 		.4byte	.LASF543
 13412 5f24 39       		.byte	0x39
 13413 5f25 19       		.byte	0x19
 13414 5f26 45260000 		.4byte	.LASF1043
 13415 5f2a 700C0000 		.4byte	0xc70
 13416 5f2e 01       		.byte	0x1
ARM GAS  /tmp/ccytVDiP.s 			page 237


 13417 5f2f 02       		.uleb128 0x2
 13418 5f30 10       		.byte	0x10
 13419 5f31 02       		.uleb128 0x2
 13420 5f32 425E0000 		.4byte	0x5e42
 13421 5f36 01       		.byte	0x1
 13422 5f37 3F5F0000 		.4byte	0x5f3f
 13423 5f3b 4F5F0000 		.4byte	0x5f4f
 13424 5f3f 2F       		.uleb128 0x2f
 13425 5f40 EC700000 		.4byte	0x70ec
 13426 5f44 14       		.uleb128 0x14
 13427 5f45 1A6F0000 		.4byte	0x6f1a
 13428 5f49 14       		.uleb128 0x14
 13429 5f4a E76C0000 		.4byte	0x6ce7
 13430 5f4e 00       		.byte	0
 13431 5f4f 36       		.uleb128 0x36
 13432 5f50 3D320000 		.4byte	.LASF653
 13433 5f54 39       		.byte	0x39
 13434 5f55 1A       		.byte	0x1a
 13435 5f56 4F4A0000 		.4byte	.LASF1044
 13436 5f5a 700C0000 		.4byte	0xc70
 13437 5f5e 01       		.byte	0x1
 13438 5f5f 675F0000 		.4byte	0x5f67
 13439 5f63 725F0000 		.4byte	0x5f72
 13440 5f67 2F       		.uleb128 0x2f
 13441 5f68 EC700000 		.4byte	0x70ec
 13442 5f6c 14       		.uleb128 0x14
 13443 5f6d 686E0000 		.4byte	0x6e68
 13444 5f71 00       		.byte	0
 13445 5f72 4D       		.uleb128 0x4d
 13446 5f73 E0380000 		.4byte	.LASF913
 13447 5f77 39       		.byte	0x39
 13448 5f78 1C       		.byte	0x1c
 13449 5f79 A15B0000 		.4byte	.LASF1045
 13450 5f7d 700C0000 		.4byte	0xc70
 13451 5f81 01       		.byte	0x1
 13452 5f82 02       		.uleb128 0x2
 13453 5f83 10       		.byte	0x10
 13454 5f84 03       		.uleb128 0x3
 13455 5f85 425E0000 		.4byte	0x5e42
 13456 5f89 01       		.byte	0x1
 13457 5f8a 925F0000 		.4byte	0x5f92
 13458 5f8e A25F0000 		.4byte	0x5fa2
 13459 5f92 2F       		.uleb128 0x2f
 13460 5f93 EC700000 		.4byte	0x70ec
 13461 5f97 14       		.uleb128 0x14
 13462 5f98 686E0000 		.4byte	0x6e68
 13463 5f9c 14       		.uleb128 0x14
 13464 5f9d F36C0000 		.4byte	0x6cf3
 13465 5fa1 00       		.byte	0
 13466 5fa2 4D       		.uleb128 0x4d
 13467 5fa3 592E0000 		.4byte	.LASF768
 13468 5fa7 39       		.byte	0x39
 13469 5fa8 1D       		.byte	0x1d
 13470 5fa9 65370000 		.4byte	.LASF1046
 13471 5fad 700C0000 		.4byte	0xc70
 13472 5fb1 01       		.byte	0x1
 13473 5fb2 02       		.uleb128 0x2
ARM GAS  /tmp/ccytVDiP.s 			page 238


 13474 5fb3 10       		.byte	0x10
 13475 5fb4 04       		.uleb128 0x4
 13476 5fb5 425E0000 		.4byte	0x5e42
 13477 5fb9 01       		.byte	0x1
 13478 5fba C25F0000 		.4byte	0x5fc2
 13479 5fbe D25F0000 		.4byte	0x5fd2
 13480 5fc2 2F       		.uleb128 0x2f
 13481 5fc3 EC700000 		.4byte	0x70ec
 13482 5fc7 14       		.uleb128 0x14
 13483 5fc8 1A6F0000 		.4byte	0x6f1a
 13484 5fcc 14       		.uleb128 0x14
 13485 5fcd E76C0000 		.4byte	0x6ce7
 13486 5fd1 00       		.byte	0
 13487 5fd2 36       		.uleb128 0x36
 13488 5fd3 8A5B0000 		.4byte	.LASF399
 13489 5fd7 39       		.byte	0x39
 13490 5fd8 1E       		.byte	0x1e
 13491 5fd9 FC730000 		.4byte	.LASF1047
 13492 5fdd 700C0000 		.4byte	0xc70
 13493 5fe1 01       		.byte	0x1
 13494 5fe2 EA5F0000 		.4byte	0x5fea
 13495 5fe6 F55F0000 		.4byte	0x5ff5
 13496 5fea 2F       		.uleb128 0x2f
 13497 5feb EC700000 		.4byte	0x70ec
 13498 5fef 14       		.uleb128 0x14
 13499 5ff0 686E0000 		.4byte	0x6e68
 13500 5ff4 00       		.byte	0
 13501 5ff5 30       		.uleb128 0x30
 13502 5ff6 F6470000 		.4byte	.LASF1034
 13503 5ffa 39       		.byte	0x39
 13504 5ffb 21       		.byte	0x21
 13505 5ffc EC700000 		.4byte	0x70ec
 13506 6000 02       		.byte	0x2
 13507 6001 09600000 		.4byte	0x6009
 13508 6005 0F600000 		.4byte	0x600f
 13509 6009 2F       		.uleb128 0x2f
 13510 600a EC700000 		.4byte	0x70ec
 13511 600e 00       		.byte	0
 13512 600f 60       		.uleb128 0x60
 13513 6010 F0030000 		.4byte	.LASF1155
 13514 6014 39       		.byte	0x39
 13515 6015 22       		.byte	0x22
 13516 6016 B8000000 		.4byte	0xb8
 13517 601a 01       		.byte	0x1
 13518 601b 425E0000 		.4byte	0x5e42
 13519 601f 02       		.byte	0x2
 13520 6020 28600000 		.4byte	0x6028
 13521 6024 33600000 		.4byte	0x6033
 13522 6028 2F       		.uleb128 0x2f
 13523 6029 EC700000 		.4byte	0x70ec
 13524 602d 2F       		.uleb128 0x2f
 13525 602e 94000000 		.4byte	0x94
 13526 6032 00       		.byte	0
 13527 6033 52       		.uleb128 0x52
 13528 6034 31400000 		.4byte	.LASF1048
 13529 6038 39       		.byte	0x39
 13530 6039 25       		.byte	0x25
ARM GAS  /tmp/ccytVDiP.s 			page 239


 13531 603a 394C0000 		.4byte	.LASF1049
 13532 603e 700C0000 		.4byte	0xc70
 13533 6042 01       		.byte	0x1
 13534 6043 14       		.uleb128 0x14
 13535 6044 3D720000 		.4byte	0x723d
 13536 6048 14       		.uleb128 0x14
 13537 6049 13070000 		.4byte	0x713
 13538 604d 00       		.byte	0
 13539 604e 00       		.byte	0
 13540 604f 4C       		.uleb128 0x4c
 13541 6050 DF3E0000 		.4byte	.LASF1051
 13542 6054 73600000 		.4byte	0x6073
 13543 6058 61       		.uleb128 0x61
 13544 6059 01       		.byte	0x1
 13545 605a 3A       		.byte	0x3a
 13546 605b 24       		.byte	0x24
 13547 605c 67600000 		.4byte	0x6067
 13548 6060 2A       		.uleb128 0x2a
 13549 6061 1A440000 		.4byte	.LASF1052
 13550 6065 04       		.sleb128 4
 13551 6066 00       		.byte	0
 13552 6067 34       		.uleb128 0x34
 13553 6068 01       		.byte	0x1
 13554 6069 3A       		.byte	0x3a
 13555 606a 2B       		.byte	0x2b
 13556 606b 2A       		.uleb128 0x2a
 13557 606c 4A6E0000 		.4byte	.LASF1053
 13558 6070 04       		.sleb128 4
 13559 6071 00       		.byte	0
 13560 6072 00       		.byte	0
 13561 6073 4C       		.uleb128 0x4c
 13562 6074 69270000 		.4byte	.LASF1054
 13563 6078 88600000 		.4byte	0x6088
 13564 607c 34       		.uleb128 0x34
 13565 607d 01       		.byte	0x1
 13566 607e 3B       		.byte	0x3b
 13567 607f 1F       		.byte	0x1f
 13568 6080 2A       		.uleb128 0x2a
 13569 6081 1A440000 		.4byte	.LASF1052
 13570 6085 04       		.sleb128 4
 13571 6086 00       		.byte	0
 13572 6087 00       		.byte	0
 13573 6088 62       		.uleb128 0x62
 13574 6089 EF4B0000 		.4byte	.LASF1055
 13575 608d A002     		.2byte	0x2a0
 13576 608f 11       		.byte	0x11
 13577 6090 22       		.byte	0x22
 13578 6091 28670000 		.4byte	0x6728
 13579 6095 3F       		.uleb128 0x3f
 13580 6096 D8190000 		.4byte	.LASF1056
 13581 609a 24       		.byte	0x24
 13582 609b 11       		.byte	0x11
 13583 609c 25       		.byte	0x25
 13584 609d 01       		.byte	0x1
 13585 609e F7600000 		.4byte	0x60f7
 13586 60a2 0A       		.uleb128 0xa
 13587 60a3 21390000 		.4byte	.LASF461
ARM GAS  /tmp/ccytVDiP.s 			page 240


 13588 60a7 11       		.byte	0x11
 13589 60a8 26       		.byte	0x26
 13590 60a9 F2700000 		.4byte	0x70f2
 13591 60ad 00       		.byte	0
 13592 60ae 0A       		.uleb128 0xa
 13593 60af 0A320000 		.4byte	.LASF1057
 13594 60b3 11       		.byte	0x11
 13595 60b4 27       		.byte	0x27
 13596 60b5 A3200000 		.4byte	0x20a3
 13597 60b9 04       		.byte	0x4
 13598 60ba 0A       		.uleb128 0xa
 13599 60bb 893D0000 		.4byte	.LASF1058
 13600 60bf 11       		.byte	0x11
 13601 60c0 28       		.byte	0x28
 13602 60c1 C9700000 		.4byte	0x70c9
 13603 60c5 08       		.byte	0x8
 13604 60c6 0A       		.uleb128 0xa
 13605 60c7 CB190000 		.4byte	.LASF842
 13606 60cb 11       		.byte	0x11
 13607 60cc 29       		.byte	0x29
 13608 60cd 2E0C0000 		.4byte	0xc2e
 13609 60d1 0C       		.byte	0xc
 13610 60d2 0A       		.uleb128 0xa
 13611 60d3 0D460000 		.4byte	.LASF843
 13612 60d7 11       		.byte	0x11
 13613 60d8 2A       		.byte	0x2a
 13614 60d9 2E0C0000 		.4byte	0xc2e
 13615 60dd 0E       		.byte	0xe
 13616 60de 0A       		.uleb128 0xa
 13617 60df 33310000 		.4byte	.LASF840
 13618 60e3 11       		.byte	0x11
 13619 60e4 2B       		.byte	0x2b
 13620 60e5 836F0000 		.4byte	0x6f83
 13621 60e9 10       		.byte	0x10
 13622 60ea 0A       		.uleb128 0xa
 13623 60eb E3110000 		.4byte	.LASF855
 13624 60ef 11       		.byte	0x11
 13625 60f0 2C       		.byte	0x2c
 13626 60f1 230C0000 		.4byte	0xc23
 13627 60f5 20       		.byte	0x20
 13628 60f6 00       		.byte	0
 13629 60f7 61       		.uleb128 0x61
 13630 60f8 01       		.byte	0x1
 13631 60f9 11       		.byte	0x11
 13632 60fa 37       		.byte	0x37
 13633 60fb 06610000 		.4byte	0x6106
 13634 60ff 2A       		.uleb128 0x2a
 13635 6100 1A440000 		.4byte	.LASF1052
 13636 6104 0A       		.sleb128 10
 13637 6105 00       		.byte	0
 13638 6106 61       		.uleb128 0x61
 13639 6107 04       		.byte	0x4
 13640 6108 11       		.byte	0x11
 13641 6109 46       		.byte	0x46
 13642 610a 19610000 		.4byte	0x6119
 13643 610e 2A       		.uleb128 0x2a
 13644 610f B41E0000 		.4byte	.LASF1059
ARM GAS  /tmp/ccytVDiP.s 			page 241


 13645 6113 FA8EC08D 		.sleb128 1370490746
 13645      05
 13646 6118 00       		.byte	0
 13647 6119 32       		.uleb128 0x32
 13648 611a C31D0000 		.4byte	0x1dc3
 13649 611e 00       		.byte	0
 13650 611f 0A       		.uleb128 0xa
 13651 6120 9D0F0000 		.4byte	.LASF1060
 13652 6124 11       		.byte	0x11
 13653 6125 30       		.byte	0x30
 13654 6126 576E0000 		.4byte	0x6e57
 13655 612a 00       		.byte	0
 13656 612b 0A       		.uleb128 0xa
 13657 612c EA0C0000 		.4byte	.LASF1061
 13658 6130 11       		.byte	0x11
 13659 6131 31       		.byte	0x31
 13660 6132 134A0000 		.4byte	0x4a13
 13661 6136 04       		.byte	0x4
 13662 6137 0A       		.uleb128 0xa
 13663 6138 13660000 		.4byte	.LASF1062
 13664 613c 11       		.byte	0x11
 13665 613d 32       		.byte	0x32
 13666 613e 432F0000 		.4byte	0x2f43
 13667 6142 08       		.byte	0x8
 13668 6143 0A       		.uleb128 0xa
 13669 6144 943D0000 		.4byte	.LASF1063
 13670 6148 11       		.byte	0x11
 13671 6149 33       		.byte	0x33
 13672 614a 4E590000 		.4byte	0x594e
 13673 614e 0C       		.byte	0xc
 13674 614f 0A       		.uleb128 0xa
 13675 6150 DE3F0000 		.4byte	.LASF1064
 13676 6154 11       		.byte	0x11
 13677 6155 34       		.byte	0x34
 13678 6156 4F580000 		.4byte	0x584f
 13679 615a 10       		.byte	0x10
 13680 615b 0A       		.uleb128 0xa
 13681 615c BD170000 		.4byte	.LASF1065
 13682 6160 11       		.byte	0x11
 13683 6161 39       		.byte	0x39
 13684 6162 32340000 		.4byte	0x3432
 13685 6166 28       		.byte	0x28
 13686 6167 0A       		.uleb128 0xa
 13687 6168 EA2D0000 		.4byte	.LASF1066
 13688 616c 11       		.byte	0x11
 13689 616d 3A       		.byte	0x3a
 13690 616e B8000000 		.4byte	0xb8
 13691 6172 58       		.byte	0x58
 13692 6173 0A       		.uleb128 0xa
 13693 6174 FF390000 		.4byte	.LASF1067
 13694 6178 11       		.byte	0x11
 13695 6179 3B       		.byte	0x3b
 13696 617a AD000000 		.4byte	0xad
 13697 617e 5C       		.byte	0x5c
 13698 617f 0A       		.uleb128 0xa
 13699 6180 F8650000 		.4byte	.LASF1068
 13700 6184 11       		.byte	0x11
ARM GAS  /tmp/ccytVDiP.s 			page 242


 13701 6185 3C       		.byte	0x3c
 13702 6186 4F6F0000 		.4byte	0x6f4f
 13703 618a 60       		.byte	0x60
 13704 618b 0A       		.uleb128 0xa
 13705 618c 71350000 		.4byte	.LASF1069
 13706 6190 11       		.byte	0x11
 13707 6191 3D       		.byte	0x3d
 13708 6192 9C450000 		.4byte	0x459c
 13709 6196 64       		.byte	0x64
 13710 6197 0A       		.uleb128 0xa
 13711 6198 161C0000 		.4byte	.LASF1070
 13712 619c 11       		.byte	0x11
 13713 619d 3E       		.byte	0x3e
 13714 619e 77500000 		.4byte	0x5077
 13715 61a2 68       		.byte	0x68
 13716 61a3 0A       		.uleb128 0xa
 13717 61a4 385A0000 		.4byte	.LASF1071
 13718 61a8 11       		.byte	0x11
 13719 61a9 3F       		.byte	0x3f
 13720 61aa 28670000 		.4byte	0x6728
 13721 61ae 84       		.byte	0x84
 13722 61af 0A       		.uleb128 0xa
 13723 61b0 E7030000 		.4byte	.LASF1072
 13724 61b4 11       		.byte	0x11
 13725 61b5 40       		.byte	0x40
 13726 61b6 0D680000 		.4byte	0x680d
 13727 61ba 94       		.byte	0x94
 13728 61bb 0A       		.uleb128 0xa
 13729 61bc 537A0000 		.4byte	.LASF1073
 13730 61c0 11       		.byte	0x11
 13731 61c1 41       		.byte	0x41
 13732 61c2 4C710000 		.4byte	0x714c
 13733 61c6 CC       		.byte	0xcc
 13734 61c7 0A       		.uleb128 0xa
 13735 61c8 613F0000 		.4byte	.LASF1074
 13736 61cc 11       		.byte	0x11
 13737 61cd 42       		.byte	0x42
 13738 61ce 62710000 		.4byte	0x7162
 13739 61d2 F4       		.byte	0xf4
 13740 61d3 11       		.uleb128 0x11
 13741 61d4 01540000 		.4byte	.LASF1075
 13742 61d8 11       		.byte	0x11
 13743 61d9 49       		.byte	0x49
 13744 61da 32340000 		.4byte	0x3432
 13745 61de 4802     		.2byte	0x248
 13746 61e0 11       		.uleb128 0x11
 13747 61e1 445F0000 		.4byte	.LASF1076
 13748 61e5 11       		.byte	0x11
 13749 61e6 4A       		.byte	0x4a
 13750 61e7 B8000000 		.4byte	0xb8
 13751 61eb 7802     		.2byte	0x278
 13752 61ed 11       		.uleb128 0x11
 13753 61ee C22D0000 		.4byte	.LASF1077
 13754 61f2 11       		.byte	0x11
 13755 61f3 4B       		.byte	0x4b
 13756 61f4 AD000000 		.4byte	0xad
 13757 61f8 7C02     		.2byte	0x27c
ARM GAS  /tmp/ccytVDiP.s 			page 243


 13758 61fa 11       		.uleb128 0x11
 13759 61fb 48770000 		.4byte	.LASF1078
 13760 61ff 11       		.byte	0x11
 13761 6200 4C       		.byte	0x4c
 13762 6201 4F6F0000 		.4byte	0x6f4f
 13763 6205 8002     		.2byte	0x280
 13764 6207 11       		.uleb128 0x11
 13765 6208 91200000 		.4byte	.LASF1079
 13766 620c 11       		.byte	0x11
 13767 620d 4D       		.byte	0x4d
 13768 620e 9C450000 		.4byte	0x459c
 13769 6212 8402     		.2byte	0x284
 13770 6214 11       		.uleb128 0x11
 13771 6215 F7280000 		.4byte	.LASF1080
 13772 6219 11       		.byte	0x11
 13773 621a 56       		.byte	0x56
 13774 621b 864A0000 		.4byte	0x4a86
 13775 621f 8802     		.2byte	0x288
 13776 6221 11       		.uleb128 0x11
 13777 6222 C9760000 		.4byte	.LASF1081
 13778 6226 11       		.byte	0x11
 13779 6227 57       		.byte	0x57
 13780 6228 2C3C0000 		.4byte	0x3c2c
 13781 622c 8C02     		.2byte	0x28c
 13782 622e 11       		.uleb128 0x11
 13783 622f 335F0000 		.4byte	.LASF1082
 13784 6233 11       		.byte	0x11
 13785 6234 58       		.byte	0x58
 13786 6235 C8230000 		.4byte	0x23c8
 13787 6239 9002     		.2byte	0x290
 13788 623b 11       		.uleb128 0x11
 13789 623c C86F0000 		.4byte	.LASF1083
 13790 6240 11       		.byte	0x11
 13791 6241 59       		.byte	0x59
 13792 6242 A3200000 		.4byte	0x20a3
 13793 6246 9402     		.2byte	0x294
 13794 6248 11       		.uleb128 0x11
 13795 6249 FC300000 		.4byte	.LASF846
 13796 624d 11       		.byte	0x11
 13797 624e 5C       		.byte	0x5c
 13798 624f 700C0000 		.4byte	0xc70
 13799 6253 9802     		.2byte	0x298
 13800 6255 11       		.uleb128 0x11
 13801 6256 496D0000 		.4byte	.LASF1084
 13802 625a 11       		.byte	0x11
 13803 625b 5D       		.byte	0x5d
 13804 625c AD000000 		.4byte	0xad
 13805 6260 9C02     		.2byte	0x29c
 13806 6262 3A       		.uleb128 0x3a
 13807 6263 1D310000 		.4byte	.LASF1085
 13808 6267 11       		.byte	0x11
 13809 6268 60       		.byte	0x60
 13810 6269 88600000 		.4byte	0x6088
 13811 626d 01       		.byte	0x1
 13812 626e 3A       		.uleb128 0x3a
 13813 626f B3700000 		.4byte	.LASF1086
 13814 6273 11       		.byte	0x11
ARM GAS  /tmp/ccytVDiP.s 			page 244


 13815 6274 61       		.byte	0x61
 13816 6275 440C0000 		.4byte	0xc44
 13817 6279 01       		.byte	0x1
 13818 627a 3A       		.uleb128 0x3a
 13819 627b CA0C0000 		.4byte	.LASF1087
 13820 627f 11       		.byte	0x11
 13821 6280 62       		.byte	0x62
 13822 6281 440C0000 		.4byte	0xc44
 13823 6285 01       		.byte	0x1
 13824 6286 36       		.uleb128 0x36
 13825 6287 5E760000 		.4byte	.LASF1088
 13826 628b 11       		.byte	0x11
 13827 628c 65       		.byte	0x65
 13828 628d 8E4B0000 		.4byte	.LASF1089
 13829 6291 13070000 		.4byte	0x713
 13830 6295 01       		.byte	0x1
 13831 6296 9E620000 		.4byte	0x629e
 13832 629a A4620000 		.4byte	0x62a4
 13833 629e 2F       		.uleb128 0x2f
 13834 629f 72710000 		.4byte	0x7172
 13835 62a3 00       		.byte	0
 13836 62a4 36       		.uleb128 0x36
 13837 62a5 FB170000 		.4byte	.LASF1090
 13838 62a9 11       		.byte	0x11
 13839 62aa 66       		.byte	0x66
 13840 62ab A8200000 		.4byte	.LASF1091
 13841 62af 78710000 		.4byte	0x7178
 13842 62b3 01       		.byte	0x1
 13843 62b4 BC620000 		.4byte	0x62bc
 13844 62b8 C2620000 		.4byte	0x62c2
 13845 62bc 2F       		.uleb128 0x2f
 13846 62bd 72710000 		.4byte	0x7172
 13847 62c1 00       		.byte	0
 13848 62c2 36       		.uleb128 0x36
 13849 62c3 1D510000 		.4byte	.LASF1092
 13850 62c7 11       		.byte	0x11
 13851 62c8 67       		.byte	0x67
 13852 62c9 1C380000 		.4byte	.LASF1093
 13853 62cd 7E710000 		.4byte	0x717e
 13854 62d1 01       		.byte	0x1
 13855 62d2 DA620000 		.4byte	0x62da
 13856 62d6 E0620000 		.4byte	0x62e0
 13857 62da 2F       		.uleb128 0x2f
 13858 62db 72710000 		.4byte	0x7172
 13859 62df 00       		.byte	0
 13860 62e0 36       		.uleb128 0x36
 13861 62e1 C93D0000 		.4byte	.LASF1094
 13862 62e5 11       		.byte	0x11
 13863 62e6 68       		.byte	0x68
 13864 62e7 AC670000 		.4byte	.LASF1095
 13865 62eb 84710000 		.4byte	0x7184
 13866 62ef 01       		.byte	0x1
 13867 62f0 F8620000 		.4byte	0x62f8
 13868 62f4 FE620000 		.4byte	0x62fe
 13869 62f8 2F       		.uleb128 0x2f
 13870 62f9 72710000 		.4byte	0x7172
 13871 62fd 00       		.byte	0
ARM GAS  /tmp/ccytVDiP.s 			page 245


 13872 62fe 36       		.uleb128 0x36
 13873 62ff 28510000 		.4byte	.LASF1096
 13874 6303 11       		.byte	0x11
 13875 6304 69       		.byte	0x69
 13876 6305 32300000 		.4byte	.LASF1097
 13877 6309 516E0000 		.4byte	0x6e51
 13878 630d 01       		.byte	0x1
 13879 630e 16630000 		.4byte	0x6316
 13880 6312 1C630000 		.4byte	0x631c
 13881 6316 2F       		.uleb128 0x2f
 13882 6317 8A710000 		.4byte	0x718a
 13883 631b 00       		.byte	0
 13884 631c 36       		.uleb128 0x36
 13885 631d 3A120000 		.4byte	.LASF1098
 13886 6321 11       		.byte	0x11
 13887 6322 6A       		.byte	0x6a
 13888 6323 AC3F0000 		.4byte	.LASF1099
 13889 6327 516E0000 		.4byte	0x6e51
 13890 632b 01       		.byte	0x1
 13891 632c 34630000 		.4byte	0x6334
 13892 6330 3A630000 		.4byte	0x633a
 13893 6334 2F       		.uleb128 0x2f
 13894 6335 8A710000 		.4byte	0x718a
 13895 6339 00       		.byte	0
 13896 633a 36       		.uleb128 0x36
 13897 633b 961C0000 		.4byte	.LASF1100
 13898 633f 11       		.byte	0x11
 13899 6340 6B       		.byte	0x6b
 13900 6341 10600000 		.4byte	.LASF1101
 13901 6345 700C0000 		.4byte	0xc70
 13902 6349 01       		.byte	0x1
 13903 634a 52630000 		.4byte	0x6352
 13904 634e 58630000 		.4byte	0x6358
 13905 6352 2F       		.uleb128 0x2f
 13906 6353 72710000 		.4byte	0x7172
 13907 6357 00       		.byte	0
 13908 6358 37       		.uleb128 0x37
 13909 6359 F75A0000 		.4byte	.LASF979
 13910 635d 11       		.byte	0x11
 13911 635e 6D       		.byte	0x6d
 13912 635f 4B750000 		.4byte	.LASF1102
 13913 6363 01       		.byte	0x1
 13914 6364 6C630000 		.4byte	0x636c
 13915 6368 90630000 		.4byte	0x6390
 13916 636c 2F       		.uleb128 0x2f
 13917 636d 8A710000 		.4byte	0x718a
 13918 6371 14       		.uleb128 0x14
 13919 6372 B8000000 		.4byte	0xb8
 13920 6376 14       		.uleb128 0x14
 13921 6377 AD000000 		.4byte	0xad
 13922 637b 14       		.uleb128 0x14
 13923 637c 9C450000 		.4byte	0x459c
 13924 6380 14       		.uleb128 0x14
 13925 6381 B8000000 		.4byte	0xb8
 13926 6385 14       		.uleb128 0x14
 13927 6386 AD000000 		.4byte	0xad
 13928 638a 14       		.uleb128 0x14
ARM GAS  /tmp/ccytVDiP.s 			page 246


 13929 638b 9C450000 		.4byte	0x459c
 13930 638f 00       		.byte	0
 13931 6390 37       		.uleb128 0x37
 13932 6391 2D360000 		.4byte	.LASF1103
 13933 6395 11       		.byte	0x11
 13934 6396 71       		.byte	0x71
 13935 6397 CB030000 		.4byte	.LASF1104
 13936 639b 01       		.byte	0x1
 13937 639c A4630000 		.4byte	0x63a4
 13938 63a0 AA630000 		.4byte	0x63aa
 13939 63a4 2F       		.uleb128 0x2f
 13940 63a5 8A710000 		.4byte	0x718a
 13941 63a9 00       		.byte	0
 13942 63aa 37       		.uleb128 0x37
 13943 63ab 7A1B0000 		.4byte	.LASF1105
 13944 63af 11       		.byte	0x11
 13945 63b0 72       		.byte	0x72
 13946 63b1 7B1C0000 		.4byte	.LASF1106
 13947 63b5 01       		.byte	0x1
 13948 63b6 BE630000 		.4byte	0x63be
 13949 63ba C4630000 		.4byte	0x63c4
 13950 63be 2F       		.uleb128 0x2f
 13951 63bf 8A710000 		.4byte	0x718a
 13952 63c3 00       		.byte	0
 13953 63c4 37       		.uleb128 0x37
 13954 63c5 9A5B0000 		.4byte	.LASF1107
 13955 63c9 11       		.byte	0x11
 13956 63ca 73       		.byte	0x73
 13957 63cb 54510000 		.4byte	.LASF1108
 13958 63cf 01       		.byte	0x1
 13959 63d0 D8630000 		.4byte	0x63d8
 13960 63d4 DE630000 		.4byte	0x63de
 13961 63d8 2F       		.uleb128 0x2f
 13962 63d9 8A710000 		.4byte	0x718a
 13963 63dd 00       		.byte	0
 13964 63de 37       		.uleb128 0x37
 13965 63df BB2E0000 		.4byte	.LASF1109
 13966 63e3 11       		.byte	0x11
 13967 63e4 74       		.byte	0x74
 13968 63e5 58300000 		.4byte	.LASF1110
 13969 63e9 01       		.byte	0x1
 13970 63ea F2630000 		.4byte	0x63f2
 13971 63ee FD630000 		.4byte	0x63fd
 13972 63f2 2F       		.uleb128 0x2f
 13973 63f3 8A710000 		.4byte	0x718a
 13974 63f7 14       		.uleb128 0x14
 13975 63f8 700C0000 		.4byte	0xc70
 13976 63fc 00       		.byte	0
 13977 63fd 36       		.uleb128 0x36
 13978 63fe 35200000 		.4byte	.LASF1111
 13979 6402 11       		.byte	0x11
 13980 6403 76       		.byte	0x76
 13981 6404 D6170000 		.4byte	.LASF1112
 13982 6408 700C0000 		.4byte	0xc70
 13983 640c 01       		.byte	0x1
 13984 640d 15640000 		.4byte	0x6415
 13985 6411 20640000 		.4byte	0x6420
ARM GAS  /tmp/ccytVDiP.s 			page 247


 13986 6415 2F       		.uleb128 0x2f
 13987 6416 8A710000 		.4byte	0x718a
 13988 641a 14       		.uleb128 0x14
 13989 641b 13070000 		.4byte	0x713
 13990 641f 00       		.byte	0
 13991 6420 36       		.uleb128 0x36
 13992 6421 201C0000 		.4byte	.LASF1113
 13993 6425 11       		.byte	0x11
 13994 6426 77       		.byte	0x77
 13995 6427 CA150000 		.4byte	.LASF1114
 13996 642b 700C0000 		.4byte	0xc70
 13997 642f 01       		.byte	0x1
 13998 6430 38640000 		.4byte	0x6438
 13999 6434 48640000 		.4byte	0x6448
 14000 6438 2F       		.uleb128 0x2f
 14001 6439 8A710000 		.4byte	0x718a
 14002 643d 14       		.uleb128 0x14
 14003 643e 13070000 		.4byte	0x713
 14004 6442 14       		.uleb128 0x14
 14005 6443 700C0000 		.4byte	0xc70
 14006 6447 00       		.byte	0
 14007 6448 63       		.uleb128 0x63
 14008 6449 61646400 		.ascii	"add\000"
 14009 644d 11       		.byte	0x11
 14010 644e 79       		.byte	0x79
 14011 644f 636C0000 		.4byte	.LASF1115
 14012 6453 01       		.byte	0x1
 14013 6454 5C640000 		.4byte	0x645c
 14014 6458 67640000 		.4byte	0x6467
 14015 645c 2F       		.uleb128 0x2f
 14016 645d 8A710000 		.4byte	0x718a
 14017 6461 14       		.uleb128 0x14
 14018 6462 29700000 		.4byte	0x7029
 14019 6466 00       		.byte	0
 14020 6467 63       		.uleb128 0x63
 14021 6468 61646400 		.ascii	"add\000"
 14022 646c 11       		.byte	0x11
 14023 646d 7A       		.byte	0x7a
 14024 646e 30630000 		.4byte	.LASF1116
 14025 6472 01       		.byte	0x1
 14026 6473 7B640000 		.4byte	0x647b
 14027 6477 86640000 		.4byte	0x6486
 14028 647b 2F       		.uleb128 0x2f
 14029 647c 8A710000 		.4byte	0x718a
 14030 6480 14       		.uleb128 0x14
 14031 6481 8C6E0000 		.4byte	0x6e8c
 14032 6485 00       		.byte	0
 14033 6486 63       		.uleb128 0x63
 14034 6487 61646400 		.ascii	"add\000"
 14035 648b 11       		.byte	0x11
 14036 648c 7B       		.byte	0x7b
 14037 648d CA6A0000 		.4byte	.LASF1117
 14038 6491 01       		.byte	0x1
 14039 6492 9A640000 		.4byte	0x649a
 14040 6496 A5640000 		.4byte	0x64a5
 14041 649a 2F       		.uleb128 0x2f
 14042 649b 8A710000 		.4byte	0x718a
ARM GAS  /tmp/ccytVDiP.s 			page 248


 14043 649f 14       		.uleb128 0x14
 14044 64a0 516E0000 		.4byte	0x6e51
 14045 64a4 00       		.byte	0
 14046 64a5 36       		.uleb128 0x36
 14047 64a6 25580000 		.4byte	.LASF676
 14048 64aa 11       		.byte	0x11
 14049 64ab 7D       		.byte	0x7d
 14050 64ac 5B5F0000 		.4byte	.LASF1118
 14051 64b0 700C0000 		.4byte	0xc70
 14052 64b4 01       		.byte	0x1
 14053 64b5 BD640000 		.4byte	0x64bd
 14054 64b9 D7640000 		.4byte	0x64d7
 14055 64bd 2F       		.uleb128 0x2f
 14056 64be 8A710000 		.4byte	0x718a
 14057 64c2 14       		.uleb128 0x14
 14058 64c3 746E0000 		.4byte	0x6e74
 14059 64c7 14       		.uleb128 0x14
 14060 64c8 13070000 		.4byte	0x713
 14061 64cc 14       		.uleb128 0x14
 14062 64cd F36C0000 		.4byte	0x6cf3
 14063 64d1 14       		.uleb128 0x14
 14064 64d2 AD000000 		.4byte	0xad
 14065 64d6 00       		.byte	0
 14066 64d7 36       		.uleb128 0x36
 14067 64d8 25580000 		.4byte	.LASF676
 14068 64dc 11       		.byte	0x11
 14069 64dd 7F       		.byte	0x7f
 14070 64de F8600000 		.4byte	.LASF1119
 14071 64e2 700C0000 		.4byte	0xc70
 14072 64e6 01       		.byte	0x1
 14073 64e7 EF640000 		.4byte	0x64ef
 14074 64eb 09650000 		.4byte	0x6509
 14075 64ef 2F       		.uleb128 0x2f
 14076 64f0 8A710000 		.4byte	0x718a
 14077 64f4 14       		.uleb128 0x14
 14078 64f5 7A6E0000 		.4byte	0x6e7a
 14079 64f9 14       		.uleb128 0x14
 14080 64fa 13070000 		.4byte	0x713
 14081 64fe 14       		.uleb128 0x14
 14082 64ff F36C0000 		.4byte	0x6cf3
 14083 6503 14       		.uleb128 0x14
 14084 6504 AD000000 		.4byte	0xad
 14085 6508 00       		.byte	0
 14086 6509 36       		.uleb128 0x36
 14087 650a 32750000 		.4byte	.LASF679
 14088 650e 11       		.byte	0x11
 14089 650f 81       		.byte	0x81
 14090 6510 F1510000 		.4byte	.LASF1120
 14091 6514 700C0000 		.4byte	0xc70
 14092 6518 01       		.byte	0x1
 14093 6519 21650000 		.4byte	0x6521
 14094 651d 40650000 		.4byte	0x6540
 14095 6521 2F       		.uleb128 0x2f
 14096 6522 8A710000 		.4byte	0x718a
 14097 6526 14       		.uleb128 0x14
 14098 6527 806E0000 		.4byte	0x6e80
 14099 652b 14       		.uleb128 0x14
ARM GAS  /tmp/ccytVDiP.s 			page 249


 14100 652c 13070000 		.4byte	0x713
 14101 6530 14       		.uleb128 0x14
 14102 6531 626E0000 		.4byte	0x6e62
 14103 6535 14       		.uleb128 0x14
 14104 6536 AD000000 		.4byte	0xad
 14105 653a 14       		.uleb128 0x14
 14106 653b AD000000 		.4byte	0xad
 14107 653f 00       		.byte	0
 14108 6540 36       		.uleb128 0x36
 14109 6541 32750000 		.4byte	.LASF679
 14110 6545 11       		.byte	0x11
 14111 6546 84       		.byte	0x84
 14112 6547 D02A0000 		.4byte	.LASF1121
 14113 654b 700C0000 		.4byte	0xc70
 14114 654f 01       		.byte	0x1
 14115 6550 58650000 		.4byte	0x6558
 14116 6554 77650000 		.4byte	0x6577
 14117 6558 2F       		.uleb128 0x2f
 14118 6559 8A710000 		.4byte	0x718a
 14119 655d 14       		.uleb128 0x14
 14120 655e 866E0000 		.4byte	0x6e86
 14121 6562 14       		.uleb128 0x14
 14122 6563 13070000 		.4byte	0x713
 14123 6567 14       		.uleb128 0x14
 14124 6568 626E0000 		.4byte	0x6e62
 14125 656c 14       		.uleb128 0x14
 14126 656d AD000000 		.4byte	0xad
 14127 6571 14       		.uleb128 0x14
 14128 6572 AD000000 		.4byte	0xad
 14129 6576 00       		.byte	0
 14130 6577 37       		.uleb128 0x37
 14131 6578 512C0000 		.4byte	.LASF1122
 14132 657c 11       		.byte	0x11
 14133 657d 88       		.byte	0x88
 14134 657e 4D680000 		.4byte	.LASF1123
 14135 6582 01       		.byte	0x1
 14136 6583 8B650000 		.4byte	0x658b
 14137 6587 96650000 		.4byte	0x6596
 14138 658b 2F       		.uleb128 0x2f
 14139 658c 8A710000 		.4byte	0x718a
 14140 6590 14       		.uleb128 0x14
 14141 6591 CE6F0000 		.4byte	0x6fce
 14142 6595 00       		.byte	0
 14143 6596 36       		.uleb128 0x36
 14144 6597 A13F0000 		.4byte	.LASF1124
 14145 659b 11       		.byte	0x11
 14146 659c 8A       		.byte	0x8a
 14147 659d CC290000 		.4byte	.LASF1125
 14148 65a1 2E6E0000 		.4byte	0x6e2e
 14149 65a5 01       		.byte	0x1
 14150 65a6 AE650000 		.4byte	0x65ae
 14151 65aa B9650000 		.4byte	0x65b9
 14152 65ae 2F       		.uleb128 0x2f
 14153 65af 8A710000 		.4byte	0x718a
 14154 65b3 14       		.uleb128 0x14
 14155 65b4 13070000 		.4byte	0x713
 14156 65b8 00       		.byte	0
ARM GAS  /tmp/ccytVDiP.s 			page 250


 14157 65b9 36       		.uleb128 0x36
 14158 65ba 4E180000 		.4byte	.LASF1126
 14159 65be 11       		.byte	0x11
 14160 65bf 8B       		.byte	0x8b
 14161 65c0 98500000 		.4byte	.LASF1127
 14162 65c4 06700000 		.4byte	0x7006
 14163 65c8 01       		.byte	0x1
 14164 65c9 D1650000 		.4byte	0x65d1
 14165 65cd DC650000 		.4byte	0x65dc
 14166 65d1 2F       		.uleb128 0x2f
 14167 65d2 8A710000 		.4byte	0x718a
 14168 65d6 14       		.uleb128 0x14
 14169 65d7 13070000 		.4byte	0x713
 14170 65db 00       		.byte	0
 14171 65dc 44       		.uleb128 0x44
 14172 65dd D3590000 		.4byte	.LASF1128
 14173 65e1 11       		.byte	0x11
 14174 65e2 8E       		.byte	0x8e
 14175 65e3 7D0A0000 		.4byte	.LASF1129
 14176 65e7 2E6E0000 		.4byte	0x6e2e
 14177 65eb F3650000 		.4byte	0x65f3
 14178 65ef 03660000 		.4byte	0x6603
 14179 65f3 2F       		.uleb128 0x2f
 14180 65f4 8A710000 		.4byte	0x718a
 14181 65f8 14       		.uleb128 0x14
 14182 65f9 13070000 		.4byte	0x713
 14183 65fd 14       		.uleb128 0x14
 14184 65fe AD000000 		.4byte	0xad
 14185 6602 00       		.byte	0
 14186 6603 2E       		.uleb128 0x2e
 14187 6604 EF4B0000 		.4byte	.LASF1055
 14188 6608 11       		.byte	0x11
 14189 6609 91       		.byte	0x91
 14190 660a 8A710000 		.4byte	0x718a
 14191 660e 16660000 		.4byte	0x6616
 14192 6612 30660000 		.4byte	0x6630
 14193 6616 2F       		.uleb128 0x2f
 14194 6617 8A710000 		.4byte	0x718a
 14195 661b 14       		.uleb128 0x14
 14196 661c 13070000 		.4byte	0x713
 14197 6620 14       		.uleb128 0x14
 14198 6621 13070000 		.4byte	0x713
 14199 6625 14       		.uleb128 0x14
 14200 6626 F2700000 		.4byte	0x70f2
 14201 662a 14       		.uleb128 0x14
 14202 662b AD000000 		.4byte	0xad
 14203 662f 00       		.byte	0
 14204 6630 64       		.uleb128 0x64
 14205 6631 5B2F0000 		.4byte	.LASF1130
 14206 6635 11       		.byte	0x11
 14207 6636 95       		.byte	0x95
 14208 6637 A4120000 		.4byte	.LASF1131
 14209 663b B4450000 		.4byte	0x45b4
 14210 663f 49660000 		.4byte	0x6649
 14211 6643 14       		.uleb128 0x14
 14212 6644 C0450000 		.4byte	0x45c0
 14213 6648 00       		.byte	0
ARM GAS  /tmp/ccytVDiP.s 			page 251


 14214 6649 4F       		.uleb128 0x4f
 14215 664a 99470000 		.4byte	.LASF1132
 14216 664e 11       		.byte	0x11
 14217 664f 96       		.byte	0x96
 14218 6650 9F460000 		.4byte	.LASF1133
 14219 6654 5C660000 		.4byte	0x665c
 14220 6658 62660000 		.4byte	0x6662
 14221 665c 2F       		.uleb128 0x2f
 14222 665d 8A710000 		.4byte	0x718a
 14223 6661 00       		.byte	0
 14224 6662 4F       		.uleb128 0x4f
 14225 6663 CD330000 		.4byte	.LASF1134
 14226 6667 11       		.byte	0x11
 14227 6668 97       		.byte	0x97
 14228 6669 5D740000 		.4byte	.LASF1135
 14229 666d 75660000 		.4byte	0x6675
 14230 6671 80660000 		.4byte	0x6680
 14231 6675 2F       		.uleb128 0x2f
 14232 6676 8A710000 		.4byte	0x718a
 14233 667a 14       		.uleb128 0x14
 14234 667b 90710000 		.4byte	0x7190
 14235 667f 00       		.byte	0
 14236 6680 4F       		.uleb128 0x4f
 14237 6681 9F330000 		.4byte	.LASF1136
 14238 6685 11       		.byte	0x11
 14239 6686 98       		.byte	0x98
 14240 6687 0B3C0000 		.4byte	.LASF1137
 14241 668b 93660000 		.4byte	0x6693
 14242 668f 9E660000 		.4byte	0x669e
 14243 6693 2F       		.uleb128 0x2f
 14244 6694 8A710000 		.4byte	0x718a
 14245 6698 14       		.uleb128 0x14
 14246 6699 90710000 		.4byte	0x7190
 14247 669d 00       		.byte	0
 14248 669e 4F       		.uleb128 0x4f
 14249 669f 73020000 		.4byte	.LASF1138
 14250 66a3 11       		.byte	0x11
 14251 66a4 99       		.byte	0x99
 14252 66a5 0B1B0000 		.4byte	.LASF1139
 14253 66a9 B1660000 		.4byte	0x66b1
 14254 66ad BC660000 		.4byte	0x66bc
 14255 66b1 2F       		.uleb128 0x2f
 14256 66b2 8A710000 		.4byte	0x718a
 14257 66b6 14       		.uleb128 0x14
 14258 66b7 90710000 		.4byte	0x7190
 14259 66bb 00       		.byte	0
 14260 66bc 64       		.uleb128 0x64
 14261 66bd B91B0000 		.4byte	.LASF1140
 14262 66c1 11       		.byte	0x11
 14263 66c2 9F       		.byte	0x9f
 14264 66c3 02290000 		.4byte	.LASF1141
 14265 66c7 B4450000 		.4byte	0x45b4
 14266 66cb D5660000 		.4byte	0x66d5
 14267 66cf 14       		.uleb128 0x14
 14268 66d0 C0450000 		.4byte	0x45c0
 14269 66d4 00       		.byte	0
 14270 66d5 4F       		.uleb128 0x4f
ARM GAS  /tmp/ccytVDiP.s 			page 252


 14271 66d6 51390000 		.4byte	.LASF1142
 14272 66da 11       		.byte	0x11
 14273 66db A0       		.byte	0xa0
 14274 66dc 44610000 		.4byte	.LASF1143
 14275 66e0 E8660000 		.4byte	0x66e8
 14276 66e4 EE660000 		.4byte	0x66ee
 14277 66e8 2F       		.uleb128 0x2f
 14278 66e9 8A710000 		.4byte	0x718a
 14279 66ed 00       		.byte	0
 14280 66ee 56       		.uleb128 0x56
 14281 66ef 59370000 		.4byte	.LASF1144
 14282 66f3 11       		.byte	0x11
 14283 66f4 A4       		.byte	0xa4
 14284 66f5 A7560000 		.4byte	.LASF1145
 14285 66f9 700C0000 		.4byte	0xc70
 14286 66fd 01       		.byte	0x1
 14287 66fe 56       		.uleb128 0x56
 14288 66ff 8B6D0000 		.4byte	.LASF1146
 14289 6703 11       		.byte	0x11
 14290 6704 A5       		.byte	0xa5
 14291 6705 F9020000 		.4byte	.LASF1147
 14292 6709 700C0000 		.4byte	0xc70
 14293 670d 01       		.byte	0x1
 14294 670e 38       		.uleb128 0x38
 14295 670f 04150000 		.4byte	.LASF1148
 14296 6713 B8000000 		.4byte	0xb8
 14297 6717 01       		.byte	0x1
 14298 6718 1C670000 		.4byte	0x671c
 14299 671c 2F       		.uleb128 0x2f
 14300 671d 8A710000 		.4byte	0x718a
 14301 6721 2F       		.uleb128 0x2f
 14302 6722 94000000 		.4byte	0x94
 14303 6726 00       		.byte	0
 14304 6727 00       		.byte	0
 14305 6728 53       		.uleb128 0x53
 14306 6729 E6780000 		.4byte	.LASF1149
 14307 672d 10       		.byte	0x10
 14308 672e 14       		.byte	0x14
 14309 672f 0C       		.byte	0xc
 14310 6730 5E6A0000 		.4byte	0x6a5e
 14311 6734 0D680000 		.4byte	0x680d
 14312 6738 54       		.uleb128 0x54
 14313 6739 343B0000 		.4byte	0x3b34
 14314 673d 00       		.byte	0
 14315 673e 01       		.byte	0x1
 14316 673f 4A       		.uleb128 0x4a
 14317 6740 A3760000 		.4byte	.LASF1150
 14318 6744 31720000 		.4byte	0x7231
 14319 6748 01       		.byte	0x1
 14320 6749 51670000 		.4byte	0x6751
 14321 674d 5C670000 		.4byte	0x675c
 14322 6751 2F       		.uleb128 0x2f
 14323 6752 31720000 		.4byte	0x7231
 14324 6756 14       		.uleb128 0x14
 14325 6757 37720000 		.4byte	0x7237
 14326 675b 00       		.byte	0
 14327 675c 36       		.uleb128 0x36
ARM GAS  /tmp/ccytVDiP.s 			page 253


 14328 675d 2B400000 		.4byte	.LASF416
 14329 6761 14       		.byte	0x14
 14330 6762 19       		.byte	0x19
 14331 6763 44140000 		.4byte	.LASF1151
 14332 6767 700C0000 		.4byte	0xc70
 14333 676b 01       		.byte	0x1
 14334 676c 74670000 		.4byte	0x6774
 14335 6770 7F670000 		.4byte	0x677f
 14336 6774 2F       		.uleb128 0x2f
 14337 6775 31720000 		.4byte	0x7231
 14338 6779 14       		.uleb128 0x14
 14339 677a 1F720000 		.4byte	0x721f
 14340 677e 00       		.byte	0
 14341 677f 36       		.uleb128 0x36
 14342 6780 1B2D0000 		.4byte	.LASF1152
 14343 6784 14       		.byte	0x14
 14344 6785 21       		.byte	0x21
 14345 6786 FB2F0000 		.4byte	.LASF1153
 14346 678a 700C0000 		.4byte	0xc70
 14347 678e 01       		.byte	0x1
 14348 678f 97670000 		.4byte	0x6797
 14349 6793 A2670000 		.4byte	0x67a2
 14350 6797 2F       		.uleb128 0x2f
 14351 6798 31720000 		.4byte	0x7231
 14352 679c 14       		.uleb128 0x14
 14353 679d 25720000 		.4byte	0x7225
 14354 67a1 00       		.byte	0
 14355 67a2 36       		.uleb128 0x36
 14356 67a3 1B2D0000 		.4byte	.LASF1152
 14357 67a7 14       		.byte	0x14
 14358 67a8 28       		.byte	0x28
 14359 67a9 33340000 		.4byte	.LASF1154
 14360 67ad 700C0000 		.4byte	0xc70
 14361 67b1 01       		.byte	0x1
 14362 67b2 BA670000 		.4byte	0x67ba
 14363 67b6 C5670000 		.4byte	0x67c5
 14364 67ba 2F       		.uleb128 0x2f
 14365 67bb 31720000 		.4byte	0x7231
 14366 67bf 14       		.uleb128 0x14
 14367 67c0 5C710000 		.4byte	0x715c
 14368 67c4 00       		.byte	0
 14369 67c5 30       		.uleb128 0x30
 14370 67c6 A3760000 		.4byte	.LASF1150
 14371 67ca 14       		.byte	0x14
 14372 67cb 2F       		.byte	0x2f
 14373 67cc 31720000 		.4byte	0x7231
 14374 67d0 01       		.byte	0x1
 14375 67d1 D9670000 		.4byte	0x67d9
 14376 67d5 DF670000 		.4byte	0x67df
 14377 67d9 2F       		.uleb128 0x2f
 14378 67da 31720000 		.4byte	0x7231
 14379 67de 00       		.byte	0
 14380 67df 60       		.uleb128 0x60
 14381 67e0 C8680000 		.4byte	.LASF1156
 14382 67e4 14       		.byte	0x14
 14383 67e5 36       		.byte	0x36
 14384 67e6 B8000000 		.4byte	0xb8
ARM GAS  /tmp/ccytVDiP.s 			page 254


 14385 67ea 01       		.byte	0x1
 14386 67eb 28670000 		.4byte	0x6728
 14387 67ef 01       		.byte	0x1
 14388 67f0 F8670000 		.4byte	0x67f8
 14389 67f4 03680000 		.4byte	0x6803
 14390 67f8 2F       		.uleb128 0x2f
 14391 67f9 31720000 		.4byte	0x7231
 14392 67fd 2F       		.uleb128 0x2f
 14393 67fe 94000000 		.4byte	0x94
 14394 6802 00       		.byte	0
 14395 6803 4B       		.uleb128 0x4b
 14396 6804 B5160000 		.4byte	.LASF1157
 14397 6808 CE480000 		.4byte	0x48ce
 14398 680c 00       		.byte	0
 14399 680d 53       		.uleb128 0x53
 14400 680e 725C0000 		.4byte	.LASF1158
 14401 6812 38       		.byte	0x38
 14402 6813 17       		.byte	0x17
 14403 6814 0D       		.byte	0xd
 14404 6815 425E0000 		.4byte	0x5e42
 14405 6819 30690000 		.4byte	0x6930
 14406 681d 54       		.uleb128 0x54
 14407 681e B9290000 		.4byte	0x29b9
 14408 6822 00       		.byte	0
 14409 6823 01       		.byte	0x1
 14410 6824 35       		.uleb128 0x35
 14411 6825 8D0D0000 		.4byte	.LASF1159
 14412 6829 17       		.byte	0x17
 14413 682a 0F       		.byte	0xf
 14414 682b F8710000 		.4byte	0x71f8
 14415 682f 01       		.byte	0x1
 14416 6830 4A       		.uleb128 0x4a
 14417 6831 347A0000 		.4byte	.LASF1160
 14418 6835 0D720000 		.4byte	0x720d
 14419 6839 01       		.byte	0x1
 14420 683a 42680000 		.4byte	0x6842
 14421 683e 4D680000 		.4byte	0x684d
 14422 6842 2F       		.uleb128 0x2f
 14423 6843 0D720000 		.4byte	0x720d
 14424 6847 14       		.uleb128 0x14
 14425 6848 13720000 		.4byte	0x7213
 14426 684c 00       		.byte	0
 14427 684d 36       		.uleb128 0x36
 14428 684e A8130000 		.4byte	.LASF1161
 14429 6852 17       		.byte	0x17
 14430 6853 32       		.byte	0x32
 14431 6854 D9550000 		.4byte	.LASF1162
 14432 6858 24680000 		.4byte	0x6824
 14433 685c 01       		.byte	0x1
 14434 685d 65680000 		.4byte	0x6865
 14435 6861 6B680000 		.4byte	0x686b
 14436 6865 2F       		.uleb128 0x2f
 14437 6866 19720000 		.4byte	0x7219
 14438 686a 00       		.byte	0
 14439 686b 36       		.uleb128 0x36
 14440 686c 592E0000 		.4byte	.LASF768
 14441 6870 17       		.byte	0x17
ARM GAS  /tmp/ccytVDiP.s 			page 255


 14442 6871 1F       		.byte	0x1f
 14443 6872 8D640000 		.4byte	.LASF1163
 14444 6876 700C0000 		.4byte	0xc70
 14445 687a 01       		.byte	0x1
 14446 687b 83680000 		.4byte	0x6883
 14447 687f 8E680000 		.4byte	0x688e
 14448 6883 2F       		.uleb128 0x2f
 14449 6884 0D720000 		.4byte	0x720d
 14450 6888 14       		.uleb128 0x14
 14451 6889 1F720000 		.4byte	0x721f
 14452 688d 00       		.byte	0
 14453 688e 36       		.uleb128 0x36
 14454 688f 592E0000 		.4byte	.LASF768
 14455 6893 17       		.byte	0x17
 14456 6894 27       		.byte	0x27
 14457 6895 1A410000 		.4byte	.LASF1164
 14458 6899 700C0000 		.4byte	0xc70
 14459 689d 01       		.byte	0x1
 14460 689e A6680000 		.4byte	0x68a6
 14461 68a2 B6680000 		.4byte	0x68b6
 14462 68a6 2F       		.uleb128 0x2f
 14463 68a7 0D720000 		.4byte	0x720d
 14464 68ab 14       		.uleb128 0x14
 14465 68ac 1F720000 		.4byte	0x721f
 14466 68b0 14       		.uleb128 0x14
 14467 68b1 E76C0000 		.4byte	0x6ce7
 14468 68b5 00       		.byte	0
 14469 68b6 36       		.uleb128 0x36
 14470 68b7 8A5B0000 		.4byte	.LASF399
 14471 68bb 17       		.byte	0x17
 14472 68bc 39       		.byte	0x39
 14473 68bd 6A460000 		.4byte	.LASF1165
 14474 68c1 700C0000 		.4byte	0xc70
 14475 68c5 01       		.byte	0x1
 14476 68c6 CE680000 		.4byte	0x68ce
 14477 68ca D9680000 		.4byte	0x68d9
 14478 68ce 2F       		.uleb128 0x2f
 14479 68cf 0D720000 		.4byte	0x720d
 14480 68d3 14       		.uleb128 0x14
 14481 68d4 25720000 		.4byte	0x7225
 14482 68d8 00       		.byte	0
 14483 68d9 30       		.uleb128 0x30
 14484 68da 347A0000 		.4byte	.LASF1160
 14485 68de 17       		.byte	0x17
 14486 68df 41       		.byte	0x41
 14487 68e0 0D720000 		.4byte	0x720d
 14488 68e4 01       		.byte	0x1
 14489 68e5 ED680000 		.4byte	0x68ed
 14490 68e9 02690000 		.4byte	0x6902
 14491 68ed 2F       		.uleb128 0x2f
 14492 68ee 0D720000 		.4byte	0x720d
 14493 68f2 14       		.uleb128 0x14
 14494 68f3 2B720000 		.4byte	0x722b
 14495 68f7 14       		.uleb128 0x14
 14496 68f8 AD000000 		.4byte	0xad
 14497 68fc 14       		.uleb128 0x14
 14498 68fd 24680000 		.4byte	0x6824
ARM GAS  /tmp/ccytVDiP.s 			page 256


 14499 6901 00       		.byte	0
 14500 6902 60       		.uleb128 0x60
 14501 6903 FB760000 		.4byte	.LASF1166
 14502 6907 17       		.byte	0x17
 14503 6908 4C       		.byte	0x4c
 14504 6909 B8000000 		.4byte	0xb8
 14505 690d 01       		.byte	0x1
 14506 690e 0D680000 		.4byte	0x680d
 14507 6912 01       		.byte	0x1
 14508 6913 1B690000 		.4byte	0x691b
 14509 6917 26690000 		.4byte	0x6926
 14510 691b 2F       		.uleb128 0x2f
 14511 691c 0D720000 		.4byte	0x720d
 14512 6920 2F       		.uleb128 0x2f
 14513 6921 94000000 		.4byte	0x94
 14514 6925 00       		.byte	0
 14515 6926 4B       		.uleb128 0x4b
 14516 6927 B5160000 		.4byte	.LASF1157
 14517 692b CE480000 		.4byte	0x48ce
 14518 692f 00       		.byte	0
 14519 6930 1B       		.uleb128 0x1b
 14520 6931 88600000 		.4byte	0x6088
 14521 6935 1B       		.uleb128 0x1b
 14522 6936 CE480000 		.4byte	0x48ce
 14523 693a 0D       		.uleb128 0xd
 14524 693b EF6B0000 		.4byte	.LASF1167
 14525 693f 04       		.byte	0x4
 14526 6940 3C       		.byte	0x3c
 14527 6941 0E       		.byte	0xe
 14528 6942 53690000 		.4byte	0x6953
 14529 6946 0A       		.uleb128 0xa
 14530 6947 33310000 		.4byte	.LASF840
 14531 694b 3C       		.byte	0x3c
 14532 694c 0F       		.byte	0xf
 14533 694d 13070000 		.4byte	0x713
 14534 6951 00       		.byte	0
 14535 6952 00       		.byte	0
 14536 6953 2D       		.uleb128 0x2d
 14537 6954 74540000 		.4byte	.LASF1168
 14538 6958 42       		.byte	0x42
 14539 6959 3D       		.byte	0x3d
 14540 695a 0F       		.byte	0xf
 14541 695b 74690000 		.4byte	0x6974
 14542 695f 54       		.uleb128 0x54
 14543 6960 C4390000 		.4byte	0x39c4
 14544 6964 00       		.byte	0
 14545 6965 01       		.byte	0x1
 14546 6966 5B       		.uleb128 0x5b
 14547 6967 7C5E0000 		.4byte	.LASF1169
 14548 696b 3D       		.byte	0x3d
 14549 696c 11       		.byte	0x11
 14550 696d 9D710000 		.4byte	0x719d
 14551 6971 02       		.byte	0x2
 14552 6972 01       		.byte	0x1
 14553 6973 00       		.byte	0
 14554 6974 53       		.uleb128 0x53
 14555 6975 182B0000 		.4byte	.LASF1170
ARM GAS  /tmp/ccytVDiP.s 			page 257


 14556 6979 10       		.byte	0x10
 14557 697a 14       		.byte	0x14
 14558 697b 0C       		.byte	0xc
 14559 697c 5E6A0000 		.4byte	0x6a5e
 14560 6980 596A0000 		.4byte	0x6a59
 14561 6984 54       		.uleb128 0x54
 14562 6985 343B0000 		.4byte	0x3b34
 14563 6989 00       		.byte	0
 14564 698a 01       		.byte	0x1
 14565 698b 4A       		.uleb128 0x4a
 14566 698c A3760000 		.4byte	.LASF1150
 14567 6990 AD710000 		.4byte	0x71ad
 14568 6994 01       		.byte	0x1
 14569 6995 9D690000 		.4byte	0x699d
 14570 6999 A8690000 		.4byte	0x69a8
 14571 699d 2F       		.uleb128 0x2f
 14572 699e AD710000 		.4byte	0x71ad
 14573 69a2 14       		.uleb128 0x14
 14574 69a3 B3710000 		.4byte	0x71b3
 14575 69a7 00       		.byte	0
 14576 69a8 36       		.uleb128 0x36
 14577 69a9 2B400000 		.4byte	.LASF416
 14578 69ad 14       		.byte	0x14
 14579 69ae 19       		.byte	0x19
 14580 69af C61B0000 		.4byte	.LASF1171
 14581 69b3 700C0000 		.4byte	0xc70
 14582 69b7 01       		.byte	0x1
 14583 69b8 C0690000 		.4byte	0x69c0
 14584 69bc CB690000 		.4byte	0x69cb
 14585 69c0 2F       		.uleb128 0x2f
 14586 69c1 AD710000 		.4byte	0x71ad
 14587 69c5 14       		.uleb128 0x14
 14588 69c6 B9710000 		.4byte	0x71b9
 14589 69ca 00       		.byte	0
 14590 69cb 36       		.uleb128 0x36
 14591 69cc 1B2D0000 		.4byte	.LASF1152
 14592 69d0 14       		.byte	0x14
 14593 69d1 21       		.byte	0x21
 14594 69d2 75720000 		.4byte	.LASF1172
 14595 69d6 700C0000 		.4byte	0xc70
 14596 69da 01       		.byte	0x1
 14597 69db E3690000 		.4byte	0x69e3
 14598 69df EE690000 		.4byte	0x69ee
 14599 69e3 2F       		.uleb128 0x2f
 14600 69e4 AD710000 		.4byte	0x71ad
 14601 69e8 14       		.uleb128 0x14
 14602 69e9 C5710000 		.4byte	0x71c5
 14603 69ed 00       		.byte	0
 14604 69ee 36       		.uleb128 0x36
 14605 69ef 1B2D0000 		.4byte	.LASF1152
 14606 69f3 14       		.byte	0x14
 14607 69f4 28       		.byte	0x28
 14608 69f5 BF710000 		.4byte	.LASF1173
 14609 69f9 700C0000 		.4byte	0xc70
 14610 69fd 01       		.byte	0x1
 14611 69fe 066A0000 		.4byte	0x6a06
 14612 6a02 116A0000 		.4byte	0x6a11
ARM GAS  /tmp/ccytVDiP.s 			page 258


 14613 6a06 2F       		.uleb128 0x2f
 14614 6a07 AD710000 		.4byte	0x71ad
 14615 6a0b 14       		.uleb128 0x14
 14616 6a0c BF710000 		.4byte	0x71bf
 14617 6a10 00       		.byte	0
 14618 6a11 30       		.uleb128 0x30
 14619 6a12 A3760000 		.4byte	.LASF1150
 14620 6a16 14       		.byte	0x14
 14621 6a17 2F       		.byte	0x2f
 14622 6a18 AD710000 		.4byte	0x71ad
 14623 6a1c 01       		.byte	0x1
 14624 6a1d 256A0000 		.4byte	0x6a25
 14625 6a21 2B6A0000 		.4byte	0x6a2b
 14626 6a25 2F       		.uleb128 0x2f
 14627 6a26 AD710000 		.4byte	0x71ad
 14628 6a2a 00       		.byte	0
 14629 6a2b 60       		.uleb128 0x60
 14630 6a2c C8680000 		.4byte	.LASF1156
 14631 6a30 14       		.byte	0x14
 14632 6a31 36       		.byte	0x36
 14633 6a32 B8000000 		.4byte	0xb8
 14634 6a36 01       		.byte	0x1
 14635 6a37 74690000 		.4byte	0x6974
 14636 6a3b 01       		.byte	0x1
 14637 6a3c 446A0000 		.4byte	0x6a44
 14638 6a40 4F6A0000 		.4byte	0x6a4f
 14639 6a44 2F       		.uleb128 0x2f
 14640 6a45 AD710000 		.4byte	0x71ad
 14641 6a49 2F       		.uleb128 0x2f
 14642 6a4a 94000000 		.4byte	0x94
 14643 6a4e 00       		.byte	0
 14644 6a4f 4B       		.uleb128 0x4b
 14645 6a50 B5160000 		.4byte	.LASF1157
 14646 6a54 53690000 		.4byte	0x6953
 14647 6a58 00       		.byte	0
 14648 6a59 1B       		.uleb128 0x1b
 14649 6a5a 74690000 		.4byte	0x6974
 14650 6a5e 53       		.uleb128 0x53
 14651 6a5f FF320000 		.4byte	.LASF1174
 14652 6a63 08       		.byte	0x8
 14653 6a64 07       		.byte	0x7
 14654 6a65 0C       		.byte	0xc
 14655 6a66 5E6A0000 		.4byte	0x6a5e
 14656 6a6a 576C0000 		.4byte	0x6c57
 14657 6a6e 32       		.uleb128 0x32
 14658 6a6f C31D0000 		.4byte	0x1dc3
 14659 6a73 00       		.byte	0
 14660 6a74 5F       		.uleb128 0x5f
 14661 6a75 94190000 		.4byte	.LASF1175
 14662 6a79 D6710000 		.4byte	0x71d6
 14663 6a7d 00       		.byte	0
 14664 6a7e 01       		.byte	0x1
 14665 6a7f 0A       		.uleb128 0xa
 14666 6a80 05660000 		.4byte	.LASF1036
 14667 6a84 07       		.byte	0x7
 14668 6a85 0E       		.byte	0xe
 14669 6a86 2E6E0000 		.4byte	0x6e2e
ARM GAS  /tmp/ccytVDiP.s 			page 259


 14670 6a8a 04       		.byte	0x4
 14671 6a8b 4A       		.uleb128 0x4a
 14672 6a8c FF320000 		.4byte	.LASF1174
 14673 6a90 E6710000 		.4byte	0x71e6
 14674 6a94 01       		.byte	0x1
 14675 6a95 9D6A0000 		.4byte	0x6a9d
 14676 6a99 A86A0000 		.4byte	0x6aa8
 14677 6a9d 2F       		.uleb128 0x2f
 14678 6a9e E6710000 		.4byte	0x71e6
 14679 6aa2 14       		.uleb128 0x14
 14680 6aa3 EC710000 		.4byte	0x71ec
 14681 6aa7 00       		.byte	0
 14682 6aa8 36       		.uleb128 0x36
 14683 6aa9 D30E0000 		.4byte	.LASF1037
 14684 6aad 07       		.byte	0x7
 14685 6aae 30       		.byte	0x30
 14686 6aaf 87300000 		.4byte	.LASF1176
 14687 6ab3 2E6E0000 		.4byte	0x6e2e
 14688 6ab7 01       		.byte	0x1
 14689 6ab8 C06A0000 		.4byte	0x6ac0
 14690 6abc C66A0000 		.4byte	0x6ac6
 14691 6ac0 2F       		.uleb128 0x2f
 14692 6ac1 F2710000 		.4byte	0x71f2
 14693 6ac5 00       		.byte	0
 14694 6ac6 37       		.uleb128 0x37
 14695 6ac7 8F530000 		.4byte	.LASF1177
 14696 6acb 07       		.byte	0x7
 14697 6acc 37       		.byte	0x37
 14698 6acd 8E620000 		.4byte	.LASF1178
 14699 6ad1 01       		.byte	0x1
 14700 6ad2 DA6A0000 		.4byte	0x6ada
 14701 6ad6 E56A0000 		.4byte	0x6ae5
 14702 6ada 2F       		.uleb128 0x2f
 14703 6adb E6710000 		.4byte	0x71e6
 14704 6adf 14       		.uleb128 0x14
 14705 6ae0 516E0000 		.4byte	0x6e51
 14706 6ae4 00       		.byte	0
 14707 6ae5 36       		.uleb128 0x36
 14708 6ae6 DF440000 		.4byte	.LASF413
 14709 6aea 07       		.byte	0x7
 14710 6aeb 40       		.byte	0x40
 14711 6aec C35E0000 		.4byte	.LASF1179
 14712 6af0 700C0000 		.4byte	0xc70
 14713 6af4 01       		.byte	0x1
 14714 6af5 FD6A0000 		.4byte	0x6afd
 14715 6af9 086B0000 		.4byte	0x6b08
 14716 6afd 2F       		.uleb128 0x2f
 14717 6afe E6710000 		.4byte	0x71e6
 14718 6b02 14       		.uleb128 0x14
 14719 6b03 1A6F0000 		.4byte	0x6f1a
 14720 6b07 00       		.byte	0
 14721 6b08 36       		.uleb128 0x36
 14722 6b09 494E0000 		.4byte	.LASF1180
 14723 6b0d 07       		.byte	0x7
 14724 6b0e 16       		.byte	0x16
 14725 6b0f 2B170000 		.4byte	.LASF1181
 14726 6b13 700C0000 		.4byte	0xc70
ARM GAS  /tmp/ccytVDiP.s 			page 260


 14727 6b17 01       		.byte	0x1
 14728 6b18 206B0000 		.4byte	0x6b20
 14729 6b1c 2B6B0000 		.4byte	0x6b2b
 14730 6b20 2F       		.uleb128 0x2f
 14731 6b21 E6710000 		.4byte	0x71e6
 14732 6b25 14       		.uleb128 0x14
 14733 6b26 686E0000 		.4byte	0x6e68
 14734 6b2a 00       		.byte	0
 14735 6b2b 36       		.uleb128 0x36
 14736 6b2c F3160000 		.4byte	.LASF1182
 14737 6b30 07       		.byte	0x7
 14738 6b31 17       		.byte	0x17
 14739 6b32 BD140000 		.4byte	.LASF1183
 14740 6b36 700C0000 		.4byte	0xc70
 14741 6b3a 01       		.byte	0x1
 14742 6b3b 436B0000 		.4byte	0x6b43
 14743 6b3f 4E6B0000 		.4byte	0x6b4e
 14744 6b43 2F       		.uleb128 0x2f
 14745 6b44 E6710000 		.4byte	0x71e6
 14746 6b48 14       		.uleb128 0x14
 14747 6b49 686E0000 		.4byte	0x6e68
 14748 6b4d 00       		.byte	0
 14749 6b4e 36       		.uleb128 0x36
 14750 6b4f D3320000 		.4byte	.LASF1184
 14751 6b53 07       		.byte	0x7
 14752 6b54 18       		.byte	0x18
 14753 6b55 E9070000 		.4byte	.LASF1185
 14754 6b59 700C0000 		.4byte	0xc70
 14755 6b5d 01       		.byte	0x1
 14756 6b5e 666B0000 		.4byte	0x6b66
 14757 6b62 716B0000 		.4byte	0x6b71
 14758 6b66 2F       		.uleb128 0x2f
 14759 6b67 E6710000 		.4byte	0x71e6
 14760 6b6b 14       		.uleb128 0x14
 14761 6b6c 686E0000 		.4byte	0x6e68
 14762 6b70 00       		.byte	0
 14763 6b71 36       		.uleb128 0x36
 14764 6b72 2B400000 		.4byte	.LASF416
 14765 6b76 07       		.byte	0x7
 14766 6b77 4A       		.byte	0x4a
 14767 6b78 A7360000 		.4byte	.LASF1186
 14768 6b7c 700C0000 		.4byte	0xc70
 14769 6b80 01       		.byte	0x1
 14770 6b81 896B0000 		.4byte	0x6b89
 14771 6b85 946B0000 		.4byte	0x6b94
 14772 6b89 2F       		.uleb128 0x2f
 14773 6b8a E6710000 		.4byte	0x71e6
 14774 6b8e 14       		.uleb128 0x14
 14775 6b8f 1A6F0000 		.4byte	0x6f1a
 14776 6b93 00       		.byte	0
 14777 6b94 36       		.uleb128 0x36
 14778 6b95 1B2D0000 		.4byte	.LASF1152
 14779 6b99 07       		.byte	0x7
 14780 6b9a 1B       		.byte	0x1b
 14781 6b9b 3B4F0000 		.4byte	.LASF1187
 14782 6b9f 700C0000 		.4byte	0xc70
 14783 6ba3 01       		.byte	0x1
ARM GAS  /tmp/ccytVDiP.s 			page 261


 14784 6ba4 AC6B0000 		.4byte	0x6bac
 14785 6ba8 B76B0000 		.4byte	0x6bb7
 14786 6bac 2F       		.uleb128 0x2f
 14787 6bad E6710000 		.4byte	0x71e6
 14788 6bb1 14       		.uleb128 0x14
 14789 6bb2 686E0000 		.4byte	0x6e68
 14790 6bb6 00       		.byte	0
 14791 6bb7 36       		.uleb128 0x36
 14792 6bb8 DA0C0000 		.4byte	.LASF1188
 14793 6bbc 07       		.byte	0x7
 14794 6bbd 54       		.byte	0x54
 14795 6bbe A94C0000 		.4byte	.LASF1189
 14796 6bc2 700C0000 		.4byte	0xc70
 14797 6bc6 01       		.byte	0x1
 14798 6bc7 CF6B0000 		.4byte	0x6bcf
 14799 6bcb DA6B0000 		.4byte	0x6bda
 14800 6bcf 2F       		.uleb128 0x2f
 14801 6bd0 E6710000 		.4byte	0x71e6
 14802 6bd4 14       		.uleb128 0x14
 14803 6bd5 686E0000 		.4byte	0x6e68
 14804 6bd9 00       		.byte	0
 14805 6bda 36       		.uleb128 0x36
 14806 6bdb E0480000 		.4byte	.LASF1190
 14807 6bdf 07       		.byte	0x7
 14808 6be0 5D       		.byte	0x5d
 14809 6be1 8D080000 		.4byte	.LASF1191
 14810 6be5 700C0000 		.4byte	0xc70
 14811 6be9 01       		.byte	0x1
 14812 6bea F26B0000 		.4byte	0x6bf2
 14813 6bee FD6B0000 		.4byte	0x6bfd
 14814 6bf2 2F       		.uleb128 0x2f
 14815 6bf3 E6710000 		.4byte	0x71e6
 14816 6bf7 14       		.uleb128 0x14
 14817 6bf8 686E0000 		.4byte	0x6e68
 14818 6bfc 00       		.byte	0
 14819 6bfd 30       		.uleb128 0x30
 14820 6bfe FF320000 		.4byte	.LASF1174
 14821 6c02 07       		.byte	0x7
 14822 6c03 20       		.byte	0x20
 14823 6c04 E6710000 		.4byte	0x71e6
 14824 6c08 02       		.byte	0x2
 14825 6c09 116C0000 		.4byte	0x6c11
 14826 6c0d 176C0000 		.4byte	0x6c17
 14827 6c11 2F       		.uleb128 0x2f
 14828 6c12 E6710000 		.4byte	0x71e6
 14829 6c16 00       		.byte	0
 14830 6c17 60       		.uleb128 0x60
 14831 6c18 0C7A0000 		.4byte	.LASF1192
 14832 6c1c 07       		.byte	0x7
 14833 6c1d 21       		.byte	0x21
 14834 6c1e B8000000 		.4byte	0xb8
 14835 6c22 01       		.byte	0x1
 14836 6c23 5E6A0000 		.4byte	0x6a5e
 14837 6c27 02       		.byte	0x2
 14838 6c28 306C0000 		.4byte	0x6c30
 14839 6c2c 3B6C0000 		.4byte	0x6c3b
 14840 6c30 2F       		.uleb128 0x2f
ARM GAS  /tmp/ccytVDiP.s 			page 262


 14841 6c31 E6710000 		.4byte	0x71e6
 14842 6c35 2F       		.uleb128 0x2f
 14843 6c36 94000000 		.4byte	0x94
 14844 6c3a 00       		.byte	0
 14845 6c3b 52       		.uleb128 0x52
 14846 6c3c 31400000 		.4byte	.LASF1048
 14847 6c40 07       		.byte	0x7
 14848 6c41 66       		.byte	0x66
 14849 6c42 A9320000 		.4byte	.LASF1193
 14850 6c46 700C0000 		.4byte	0xc70
 14851 6c4a 01       		.byte	0x1
 14852 6c4b 14       		.uleb128 0x14
 14853 6c4c EC710000 		.4byte	0x71ec
 14854 6c50 14       		.uleb128 0x14
 14855 6c51 13070000 		.4byte	0x713
 14856 6c55 00       		.byte	0
 14857 6c56 00       		.byte	0
 14858 6c57 1B       		.uleb128 0x1b
 14859 6c58 5E6A0000 		.4byte	0x6a5e
 14860 6c5c 1B       		.uleb128 0x1b
 14861 6c5d 0D680000 		.4byte	0x680d
 14862 6c61 1B       		.uleb128 0x1b
 14863 6c62 28670000 		.4byte	0x6728
 14864 6c66 1B       		.uleb128 0x1b
 14865 6c67 425E0000 		.4byte	0x5e42
 14866 6c6b 20       		.uleb128 0x20
 14867 6c6c 65210000 		.4byte	.LASF1194
 14868 6c70 3E       		.byte	0x3e
 14869 6c71 1F       		.byte	0x1f
 14870 6c72 896C0000 		.4byte	0x6c89
 14871 6c76 4B       		.uleb128 0x4b
 14872 6c77 6C660000 		.4byte	.LASF1195
 14873 6c7b 53690000 		.4byte	0x6953
 14874 6c7f 4B       		.uleb128 0x4b
 14875 6c80 DF2C0000 		.4byte	.LASF1196
 14876 6c84 C4390000 		.4byte	0x39c4
 14877 6c88 00       		.byte	0
 14878 6c89 1B       		.uleb128 0x1b
 14879 6c8a 53690000 		.4byte	0x6953
 14880 6c8e 65       		.uleb128 0x65
 14881 6c8f A30A0000 		.4byte	.LASF1267
 14882 6c93 3E       		.byte	0x3e
 14883 6c94 1F       		.byte	0x1f
 14884 6c95 4B       		.uleb128 0x4b
 14885 6c96 6C660000 		.4byte	.LASF1195
 14886 6c9a CE480000 		.4byte	0x48ce
 14887 6c9e 4B       		.uleb128 0x4b
 14888 6c9f DF2C0000 		.4byte	.LASF1196
 14889 6ca3 C4390000 		.4byte	0x39c4
 14890 6ca7 00       		.byte	0
 14891 6ca8 00       		.byte	0
 14892 6ca9 0F       		.uleb128 0xf
 14893 6caa 04       		.byte	0x4
 14894 6cab C31D0000 		.4byte	0x1dc3
 14895 6caf 66       		.uleb128 0x66
 14896 6cb0 04       		.byte	0x4
 14897 6cb1 231E0000 		.4byte	0x1e23
ARM GAS  /tmp/ccytVDiP.s 			page 263


 14898 6cb5 0F       		.uleb128 0xf
 14899 6cb6 04       		.byte	0x4
 14900 6cb7 281E0000 		.4byte	0x1e28
 14901 6cbb 0F       		.uleb128 0xf
 14902 6cbc 04       		.byte	0x4
 14903 6cbd 6C1E0000 		.4byte	0x1e6c
 14904 6cc1 0F       		.uleb128 0xf
 14905 6cc2 04       		.byte	0x4
 14906 6cc3 C76C0000 		.4byte	0x6cc7
 14907 6cc7 67       		.uleb128 0x67
 14908 6cc8 0F       		.uleb128 0xf
 14909 6cc9 04       		.byte	0x4
 14910 6cca 9E200000 		.4byte	0x209e
 14911 6cce 0F       		.uleb128 0xf
 14912 6ccf 04       		.byte	0x4
 14913 6cd0 C81E0000 		.4byte	0x1ec8
 14914 6cd4 66       		.uleb128 0x66
 14915 6cd5 04       		.byte	0x4
 14916 6cd6 54110000 		.4byte	0x1154
 14917 6cda 0F       		.uleb128 0xf
 14918 6cdb 04       		.byte	0x4
 14919 6cdc 50230000 		.4byte	0x2350
 14920 6ce0 02       		.uleb128 0x2
 14921 6ce1 08       		.byte	0x8
 14922 6ce2 04       		.byte	0x4
 14923 6ce3 DF5B0000 		.4byte	.LASF1197
 14924 6ce7 66       		.uleb128 0x66
 14925 6ce8 04       		.byte	0x4
 14926 6ce9 A3200000 		.4byte	0x20a3
 14927 6ced 0F       		.uleb128 0xf
 14928 6cee 04       		.byte	0x4
 14929 6cef A3200000 		.4byte	0x20a3
 14930 6cf3 66       		.uleb128 0x66
 14931 6cf4 04       		.byte	0x4
 14932 6cf5 50230000 		.4byte	0x2350
 14933 6cf9 0F       		.uleb128 0xf
 14934 6cfa 04       		.byte	0x4
 14935 6cfb 67230000 		.4byte	0x2367
 14936 6cff 0F       		.uleb128 0xf
 14937 6d00 04       		.byte	0x4
 14938 6d01 056D0000 		.4byte	0x6d05
 14939 6d05 13       		.uleb128 0x13
 14940 6d06 700C0000 		.4byte	0xc70
 14941 6d0a 146D0000 		.4byte	0x6d14
 14942 6d0e 14       		.uleb128 0x14
 14943 6d0f 146D0000 		.4byte	0x6d14
 14944 6d13 00       		.byte	0
 14945 6d14 66       		.uleb128 0x66
 14946 6d15 04       		.byte	0x4
 14947 6d16 B4290000 		.4byte	0x29b4
 14948 6d1a 0F       		.uleb128 0xf
 14949 6d1b 04       		.byte	0x4
 14950 6d1c 206D0000 		.4byte	0x6d20
 14951 6d20 13       		.uleb128 0x13
 14952 6d21 700C0000 		.4byte	0xc70
 14953 6d25 346D0000 		.4byte	0x6d34
 14954 6d29 14       		.uleb128 0x14
ARM GAS  /tmp/ccytVDiP.s 			page 264


 14955 6d2a 146D0000 		.4byte	0x6d14
 14956 6d2e 14       		.uleb128 0x14
 14957 6d2f C16C0000 		.4byte	0x6cc1
 14958 6d33 00       		.byte	0
 14959 6d34 0F       		.uleb128 0xf
 14960 6d35 04       		.byte	0x4
 14961 6d36 6F250000 		.4byte	0x256f
 14962 6d3a 0F       		.uleb128 0xf
 14963 6d3b 04       		.byte	0x4
 14964 6d3c 452A0000 		.4byte	0x2a45
 14965 6d40 0F       		.uleb128 0xf
 14966 6d41 04       		.byte	0x4
 14967 6d42 55230000 		.4byte	0x2355
 14968 6d46 66       		.uleb128 0x66
 14969 6d47 04       		.byte	0x4
 14970 6d48 67230000 		.4byte	0x2367
 14971 6d4c 0F       		.uleb128 0xf
 14972 6d4d 04       		.byte	0x4
 14973 6d4e B9290000 		.4byte	0x29b9
 14974 6d52 66       		.uleb128 0x66
 14975 6d53 04       		.byte	0x4
 14976 6d54 B9230000 		.4byte	0x23b9
 14977 6d58 66       		.uleb128 0x66
 14978 6d59 04       		.byte	0x4
 14979 6d5a BE230000 		.4byte	0x23be
 14980 6d5e 66       		.uleb128 0x66
 14981 6d5f 04       		.byte	0x4
 14982 6d60 C3230000 		.4byte	0x23c3
 14983 6d64 66       		.uleb128 0x66
 14984 6d65 04       		.byte	0x4
 14985 6d66 C8230000 		.4byte	0x23c8
 14986 6d6a 0F       		.uleb128 0xf
 14987 6d6b 04       		.byte	0x4
 14988 6d6c 5C2A0000 		.4byte	0x2a5c
 14989 6d70 0F       		.uleb128 0xf
 14990 6d71 04       		.byte	0x4
 14991 6d72 766D0000 		.4byte	0x6d76
 14992 6d76 13       		.uleb128 0x13
 14993 6d77 700C0000 		.4byte	0xc70
 14994 6d7b 856D0000 		.4byte	0x6d85
 14995 6d7f 14       		.uleb128 0x14
 14996 6d80 856D0000 		.4byte	0x6d85
 14997 6d84 00       		.byte	0
 14998 6d85 66       		.uleb128 0x66
 14999 6d86 04       		.byte	0x4
 15000 6d87 342F0000 		.4byte	0x2f34
 15001 6d8b 0F       		.uleb128 0xf
 15002 6d8c 04       		.byte	0x4
 15003 6d8d 916D0000 		.4byte	0x6d91
 15004 6d91 13       		.uleb128 0x13
 15005 6d92 700C0000 		.4byte	0xc70
 15006 6d96 A56D0000 		.4byte	0x6da5
 15007 6d9a 14       		.uleb128 0x14
 15008 6d9b 856D0000 		.4byte	0x6d85
 15009 6d9f 14       		.uleb128 0x14
 15010 6da0 C16C0000 		.4byte	0x6cc1
 15011 6da4 00       		.byte	0
ARM GAS  /tmp/ccytVDiP.s 			page 265


 15012 6da5 0F       		.uleb128 0xf
 15013 6da6 04       		.byte	0x4
 15014 6da7 F42A0000 		.4byte	0x2af4
 15015 6dab 0F       		.uleb128 0xf
 15016 6dac 04       		.byte	0x4
 15017 6dad 3E2F0000 		.4byte	0x2f3e
 15018 6db1 0F       		.uleb128 0xf
 15019 6db2 04       		.byte	0x4
 15020 6db3 4A2A0000 		.4byte	0x2a4a
 15021 6db7 66       		.uleb128 0x66
 15022 6db8 04       		.byte	0x4
 15023 6db9 5C2A0000 		.4byte	0x2a5c
 15024 6dbd 0F       		.uleb128 0xf
 15025 6dbe 04       		.byte	0x4
 15026 6dbf 392F0000 		.4byte	0x2f39
 15027 6dc3 66       		.uleb128 0x66
 15028 6dc4 04       		.byte	0x4
 15029 6dc5 A92A0000 		.4byte	0x2aa9
 15030 6dc9 66       		.uleb128 0x66
 15031 6dca 04       		.byte	0x4
 15032 6dcb AE2A0000 		.4byte	0x2aae
 15033 6dcf 66       		.uleb128 0x66
 15034 6dd0 04       		.byte	0x4
 15035 6dd1 B32A0000 		.4byte	0x2ab3
 15036 6dd5 66       		.uleb128 0x66
 15037 6dd6 04       		.byte	0x4
 15038 6dd7 B82A0000 		.4byte	0x2ab8
 15039 6ddb 0F       		.uleb128 0xf
 15040 6ddc 04       		.byte	0x4
 15041 6ddd 552F0000 		.4byte	0x2f55
 15042 6de1 0F       		.uleb128 0xf
 15043 6de2 04       		.byte	0x4
 15044 6de3 E76D0000 		.4byte	0x6de7
 15045 6de7 13       		.uleb128 0x13
 15046 6de8 700C0000 		.4byte	0xc70
 15047 6dec F66D0000 		.4byte	0x6df6
 15048 6df0 14       		.uleb128 0x14
 15049 6df1 F66D0000 		.4byte	0x6df6
 15050 6df5 00       		.byte	0
 15051 6df6 66       		.uleb128 0x66
 15052 6df7 04       		.byte	0x4
 15053 6df8 2D340000 		.4byte	0x342d
 15054 6dfc 0F       		.uleb128 0xf
 15055 6dfd 04       		.byte	0x4
 15056 6dfe 026E0000 		.4byte	0x6e02
 15057 6e02 13       		.uleb128 0x13
 15058 6e03 700C0000 		.4byte	0xc70
 15059 6e07 166E0000 		.4byte	0x6e16
 15060 6e0b 14       		.uleb128 0x14
 15061 6e0c F66D0000 		.4byte	0x6df6
 15062 6e10 14       		.uleb128 0x14
 15063 6e11 C16C0000 		.4byte	0x6cc1
 15064 6e15 00       		.byte	0
 15065 6e16 0F       		.uleb128 0xf
 15066 6e17 04       		.byte	0x4
 15067 6e18 ED2F0000 		.4byte	0x2fed
 15068 6e1c 0F       		.uleb128 0xf
ARM GAS  /tmp/ccytVDiP.s 			page 266


 15069 6e1d 04       		.byte	0x4
 15070 6e1e BF390000 		.4byte	0x39bf
 15071 6e22 0F       		.uleb128 0xf
 15072 6e23 04       		.byte	0x4
 15073 6e24 432F0000 		.4byte	0x2f43
 15074 6e28 66       		.uleb128 0x66
 15075 6e29 04       		.byte	0x4
 15076 6e2a 552F0000 		.4byte	0x2f55
 15077 6e2e 0F       		.uleb128 0xf
 15078 6e2f 04       		.byte	0x4
 15079 6e30 32340000 		.4byte	0x3432
 15080 6e34 66       		.uleb128 0x66
 15081 6e35 04       		.byte	0x4
 15082 6e36 A22F0000 		.4byte	0x2fa2
 15083 6e3a 66       		.uleb128 0x66
 15084 6e3b 04       		.byte	0x4
 15085 6e3c A72F0000 		.4byte	0x2fa7
 15086 6e40 66       		.uleb128 0x66
 15087 6e41 04       		.byte	0x4
 15088 6e42 AC2F0000 		.4byte	0x2fac
 15089 6e46 66       		.uleb128 0x66
 15090 6e47 04       		.byte	0x4
 15091 6e48 B12F0000 		.4byte	0x2fb1
 15092 6e4c 1B       		.uleb128 0x1b
 15093 6e4d 2E6E0000 		.4byte	0x6e2e
 15094 6e51 66       		.uleb128 0x66
 15095 6e52 04       		.byte	0x4
 15096 6e53 32340000 		.4byte	0x3432
 15097 6e57 1B       		.uleb128 0x1b
 15098 6e58 13070000 		.4byte	0x713
 15099 6e5c 0F       		.uleb128 0xf
 15100 6e5d 04       		.byte	0x4
 15101 6e5e 2D340000 		.4byte	0x342d
 15102 6e62 0F       		.uleb128 0xf
 15103 6e63 04       		.byte	0x4
 15104 6e64 C4390000 		.4byte	0x39c4
 15105 6e68 66       		.uleb128 0x66
 15106 6e69 04       		.byte	0x4
 15107 6e6a C4390000 		.4byte	0x39c4
 15108 6e6e 66       		.uleb128 0x66
 15109 6e6f 04       		.byte	0x4
 15110 6e70 2F3B0000 		.4byte	0x3b2f
 15111 6e74 66       		.uleb128 0x66
 15112 6e75 04       		.byte	0x4
 15113 6e76 343B0000 		.4byte	0x3b34
 15114 6e7a 66       		.uleb128 0x66
 15115 6e7b 04       		.byte	0x4
 15116 6e7c AF3B0000 		.4byte	0x3baf
 15117 6e80 66       		.uleb128 0x66
 15118 6e81 04       		.byte	0x4
 15119 6e82 B9290000 		.4byte	0x29b9
 15120 6e86 66       		.uleb128 0x66
 15121 6e87 04       		.byte	0x4
 15122 6e88 392F0000 		.4byte	0x2f39
 15123 6e8c 66       		.uleb128 0x66
 15124 6e8d 04       		.byte	0x4
 15125 6e8e B43B0000 		.4byte	0x3bb4
ARM GAS  /tmp/ccytVDiP.s 			page 267


 15126 6e92 0F       		.uleb128 0xf
 15127 6e93 04       		.byte	0x4
 15128 6e94 2F3B0000 		.4byte	0x3b2f
 15129 6e98 0F       		.uleb128 0xf
 15130 6e99 04       		.byte	0x4
 15131 6e9a CB3B0000 		.4byte	0x3bcb
 15132 6e9e 0F       		.uleb128 0xf
 15133 6e9f 04       		.byte	0x4
 15134 6ea0 A46E0000 		.4byte	0x6ea4
 15135 6ea4 13       		.uleb128 0x13
 15136 6ea5 700C0000 		.4byte	0xc70
 15137 6ea9 B36E0000 		.4byte	0x6eb3
 15138 6ead 14       		.uleb128 0x14
 15139 6eae B36E0000 		.4byte	0x6eb3
 15140 6eb2 00       		.byte	0
 15141 6eb3 66       		.uleb128 0x66
 15142 6eb4 04       		.byte	0x4
 15143 6eb5 FB410000 		.4byte	0x41fb
 15144 6eb9 0F       		.uleb128 0xf
 15145 6eba 04       		.byte	0x4
 15146 6ebb BF6E0000 		.4byte	0x6ebf
 15147 6ebf 13       		.uleb128 0x13
 15148 6ec0 700C0000 		.4byte	0xc70
 15149 6ec4 D36E0000 		.4byte	0x6ed3
 15150 6ec8 14       		.uleb128 0x14
 15151 6ec9 B36E0000 		.4byte	0x6eb3
 15152 6ecd 14       		.uleb128 0x14
 15153 6ece C16C0000 		.4byte	0x6cc1
 15154 6ed2 00       		.byte	0
 15155 6ed3 0F       		.uleb128 0xf
 15156 6ed4 04       		.byte	0x4
 15157 6ed5 D33D0000 		.4byte	0x3dd3
 15158 6ed9 0F       		.uleb128 0xf
 15159 6eda 04       		.byte	0x4
 15160 6edb 00420000 		.4byte	0x4200
 15161 6edf 0F       		.uleb128 0xf
 15162 6ee0 04       		.byte	0x4
 15163 6ee1 B93B0000 		.4byte	0x3bb9
 15164 6ee5 66       		.uleb128 0x66
 15165 6ee6 04       		.byte	0x4
 15166 6ee7 CB3B0000 		.4byte	0x3bcb
 15167 6eeb 0F       		.uleb128 0xf
 15168 6eec 04       		.byte	0x4
 15169 6eed 343B0000 		.4byte	0x3b34
 15170 6ef1 66       		.uleb128 0x66
 15171 6ef2 04       		.byte	0x4
 15172 6ef3 1D3C0000 		.4byte	0x3c1d
 15173 6ef7 66       		.uleb128 0x66
 15174 6ef8 04       		.byte	0x4
 15175 6ef9 223C0000 		.4byte	0x3c22
 15176 6efd 66       		.uleb128 0x66
 15177 6efe 04       		.byte	0x4
 15178 6eff 273C0000 		.4byte	0x3c27
 15179 6f03 66       		.uleb128 0x66
 15180 6f04 04       		.byte	0x4
 15181 6f05 2C3C0000 		.4byte	0x3c2c
 15182 6f09 1B       		.uleb128 0x1b
ARM GAS  /tmp/ccytVDiP.s 			page 268


 15183 6f0a EB6E0000 		.4byte	0x6eeb
 15184 6f0e 0F       		.uleb128 0xf
 15185 6f0f 04       		.byte	0x4
 15186 6f10 626E0000 		.4byte	0x6e62
 15187 6f14 0F       		.uleb128 0xf
 15188 6f15 04       		.byte	0x4
 15189 6f16 05420000 		.4byte	0x4205
 15190 6f1a 66       		.uleb128 0x66
 15191 6f1b 04       		.byte	0x4
 15192 6f1c 626E0000 		.4byte	0x6e62
 15193 6f20 0F       		.uleb128 0xf
 15194 6f21 04       		.byte	0x4
 15195 6f22 85430000 		.4byte	0x4385
 15196 6f26 1B       		.uleb128 0x1b
 15197 6f27 4C6D0000 		.4byte	0x6d4c
 15198 6f2b 0F       		.uleb128 0xf
 15199 6f2c 04       		.byte	0x4
 15200 6f2d 44450000 		.4byte	0x4544
 15201 6f31 66       		.uleb128 0x66
 15202 6f32 04       		.byte	0x4
 15203 6f33 CF0C0000 		.4byte	0xccf
 15204 6f37 0F       		.uleb128 0xf
 15205 6f38 04       		.byte	0x4
 15206 6f39 8A430000 		.4byte	0x438a
 15207 6f3d 66       		.uleb128 0x66
 15208 6f3e 04       		.byte	0x4
 15209 6f3f C81E0000 		.4byte	0x1ec8
 15210 6f43 66       		.uleb128 0x66
 15211 6f44 04       		.byte	0x4
 15212 6f45 8A430000 		.4byte	0x438a
 15213 6f49 0F       		.uleb128 0xf
 15214 6f4a 04       		.byte	0x4
 15215 6f4b F2460000 		.4byte	0x46f2
 15216 6f4f 0F       		.uleb128 0xf
 15217 6f50 04       		.byte	0x4
 15218 6f51 49450000 		.4byte	0x4549
 15219 6f55 66       		.uleb128 0x66
 15220 6f56 04       		.byte	0x4
 15221 6f57 49450000 		.4byte	0x4549
 15222 6f5b 0F       		.uleb128 0xf
 15223 6f5c 04       		.byte	0x4
 15224 6f5d E0470000 		.4byte	0x47e0
 15225 6f61 0F       		.uleb128 0xf
 15226 6f62 04       		.byte	0x4
 15227 6f63 F7460000 		.4byte	0x46f7
 15228 6f67 0F       		.uleb128 0xf
 15229 6f68 04       		.byte	0x4
 15230 6f69 C9480000 		.4byte	0x48c9
 15231 6f6d 0F       		.uleb128 0xf
 15232 6f6e 04       		.byte	0x4
 15233 6f6f E5470000 		.4byte	0x47e5
 15234 6f73 0B       		.uleb128 0xb
 15235 6f74 E8060000 		.4byte	0x6e8
 15236 6f78 836F0000 		.4byte	0x6f83
 15237 6f7c 0C       		.uleb128 0xc
 15238 6f7d 3B010000 		.4byte	0x13b
 15239 6f81 06       		.byte	0x6
ARM GAS  /tmp/ccytVDiP.s 			page 269


 15240 6f82 00       		.byte	0
 15241 6f83 0B       		.uleb128 0xb
 15242 6f84 E8060000 		.4byte	0x6e8
 15243 6f88 936F0000 		.4byte	0x6f93
 15244 6f8c 0C       		.uleb128 0xc
 15245 6f8d 3B010000 		.4byte	0x13b
 15246 6f91 0F       		.byte	0xf
 15247 6f92 00       		.byte	0
 15248 6f93 0B       		.uleb128 0xb
 15249 6f94 37000000 		.4byte	0x37
 15250 6f98 A36F0000 		.4byte	0x6fa3
 15251 6f9c 0C       		.uleb128 0xc
 15252 6f9d 3B010000 		.4byte	0x13b
 15253 6fa1 09       		.byte	0x9
 15254 6fa2 00       		.byte	0
 15255 6fa3 0B       		.uleb128 0xb
 15256 6fa4 37000000 		.4byte	0x37
 15257 6fa8 B36F0000 		.4byte	0x6fb3
 15258 6fac 0C       		.uleb128 0xc
 15259 6fad 3B010000 		.4byte	0x13b
 15260 6fb1 1E       		.byte	0x1e
 15261 6fb2 00       		.byte	0
 15262 6fb3 0F       		.uleb128 0xf
 15263 6fb4 04       		.byte	0x4
 15264 6fb5 254A0000 		.4byte	0x4a25
 15265 6fb9 0F       		.uleb128 0xf
 15266 6fba 04       		.byte	0x4
 15267 6fbb BF6F0000 		.4byte	0x6fbf
 15268 6fbf 13       		.uleb128 0x13
 15269 6fc0 700C0000 		.4byte	0xc70
 15270 6fc4 CE6F0000 		.4byte	0x6fce
 15271 6fc8 14       		.uleb128 0x14
 15272 6fc9 CE6F0000 		.4byte	0x6fce
 15273 6fcd 00       		.byte	0
 15274 6fce 66       		.uleb128 0x66
 15275 6fcf 04       		.byte	0x4
 15276 6fd0 72500000 		.4byte	0x5072
 15277 6fd4 0F       		.uleb128 0xf
 15278 6fd5 04       		.byte	0x4
 15279 6fd6 DA6F0000 		.4byte	0x6fda
 15280 6fda 13       		.uleb128 0x13
 15281 6fdb 700C0000 		.4byte	0xc70
 15282 6fdf EE6F0000 		.4byte	0x6fee
 15283 6fe3 14       		.uleb128 0x14
 15284 6fe4 CE6F0000 		.4byte	0x6fce
 15285 6fe8 14       		.uleb128 0x14
 15286 6fe9 C16C0000 		.4byte	0x6cc1
 15287 6fed 00       		.byte	0
 15288 6fee 0F       		.uleb128 0xf
 15289 6fef 04       		.byte	0x4
 15290 6ff0 2D4C0000 		.4byte	0x4c2d
 15291 6ff4 0F       		.uleb128 0xf
 15292 6ff5 04       		.byte	0x4
 15293 6ff6 F3520000 		.4byte	0x52f3
 15294 6ffa 0F       		.uleb128 0xf
 15295 6ffb 04       		.byte	0x4
 15296 6ffc 134A0000 		.4byte	0x4a13
ARM GAS  /tmp/ccytVDiP.s 			page 270


 15297 7000 66       		.uleb128 0x66
 15298 7001 04       		.byte	0x4
 15299 7002 254A0000 		.4byte	0x4a25
 15300 7006 0F       		.uleb128 0xf
 15301 7007 04       		.byte	0x4
 15302 7008 77500000 		.4byte	0x5077
 15303 700c 66       		.uleb128 0x66
 15304 700d 04       		.byte	0x4
 15305 700e 774A0000 		.4byte	0x4a77
 15306 7012 66       		.uleb128 0x66
 15307 7013 04       		.byte	0x4
 15308 7014 7C4A0000 		.4byte	0x4a7c
 15309 7018 66       		.uleb128 0x66
 15310 7019 04       		.byte	0x4
 15311 701a 814A0000 		.4byte	0x4a81
 15312 701e 66       		.uleb128 0x66
 15313 701f 04       		.byte	0x4
 15314 7020 864A0000 		.4byte	0x4a86
 15315 7024 1B       		.uleb128 0x1b
 15316 7025 06700000 		.4byte	0x7006
 15317 7029 66       		.uleb128 0x66
 15318 702a 04       		.byte	0x4
 15319 702b 77500000 		.4byte	0x5077
 15320 702f 0F       		.uleb128 0xf
 15321 7030 04       		.byte	0x4
 15322 7031 72500000 		.4byte	0x5072
 15323 7035 66       		.uleb128 0x66
 15324 7036 04       		.byte	0x4
 15325 7037 00420000 		.4byte	0x4200
 15326 703b 66       		.uleb128 0x66
 15327 703c 04       		.byte	0x4
 15328 703d 452A0000 		.4byte	0x2a45
 15329 7041 1B       		.uleb128 0x1b
 15330 7042 BD6D0000 		.4byte	0x6dbd
 15331 7046 0F       		.uleb128 0xf
 15332 7047 04       		.byte	0x4
 15333 7048 1A530000 		.4byte	0x531a
 15334 704c 0F       		.uleb128 0xf
 15335 704d 04       		.byte	0x4
 15336 704e F8520000 		.4byte	0x52f8
 15337 7052 0F       		.uleb128 0xf
 15338 7053 04       		.byte	0x4
 15339 7054 62530000 		.4byte	0x5362
 15340 7058 0F       		.uleb128 0xf
 15341 7059 04       		.byte	0x4
 15342 705a 0E550000 		.4byte	0x550e
 15343 705e 0F       		.uleb128 0xf
 15344 705f 04       		.byte	0x4
 15345 7060 4B560000 		.4byte	0x564b
 15346 7064 66       		.uleb128 0x66
 15347 7065 04       		.byte	0x4
 15348 7066 BA0F0000 		.4byte	0xfba
 15349 706a 0F       		.uleb128 0xf
 15350 706b 04       		.byte	0x4
 15351 706c 5C570000 		.4byte	0x575c
 15352 7070 0F       		.uleb128 0xf
 15353 7071 04       		.byte	0x4
ARM GAS  /tmp/ccytVDiP.s 			page 271


 15354 7072 4F580000 		.4byte	0x584f
 15355 7076 0F       		.uleb128 0xf
 15356 7077 04       		.byte	0x4
 15357 7078 60590000 		.4byte	0x5960
 15358 707c 0F       		.uleb128 0xf
 15359 707d 04       		.byte	0x4
 15360 707e 82700000 		.4byte	0x7082
 15361 7082 13       		.uleb128 0x13
 15362 7083 700C0000 		.4byte	0xc70
 15363 7087 91700000 		.4byte	0x7091
 15364 708b 14       		.uleb128 0x14
 15365 708c 91700000 		.4byte	0x7091
 15366 7090 00       		.byte	0
 15367 7091 66       		.uleb128 0x66
 15368 7092 04       		.byte	0x4
 15369 7093 385E0000 		.4byte	0x5e38
 15370 7097 0F       		.uleb128 0xf
 15371 7098 04       		.byte	0x4
 15372 7099 9D700000 		.4byte	0x709d
 15373 709d 13       		.uleb128 0x13
 15374 709e 700C0000 		.4byte	0xc70
 15375 70a2 B1700000 		.4byte	0x70b1
 15376 70a6 14       		.uleb128 0x14
 15377 70a7 91700000 		.4byte	0x7091
 15378 70ab 14       		.uleb128 0x14
 15379 70ac C16C0000 		.4byte	0x6cc1
 15380 70b0 00       		.byte	0
 15381 70b1 0F       		.uleb128 0xf
 15382 70b2 04       		.byte	0x4
 15383 70b3 F8590000 		.4byte	0x59f8
 15384 70b7 0F       		.uleb128 0xf
 15385 70b8 04       		.byte	0x4
 15386 70b9 3D5E0000 		.4byte	0x5e3d
 15387 70bd 0F       		.uleb128 0xf
 15388 70be 04       		.byte	0x4
 15389 70bf 4E590000 		.4byte	0x594e
 15390 70c3 66       		.uleb128 0x66
 15391 70c4 04       		.byte	0x4
 15392 70c5 60590000 		.4byte	0x5960
 15393 70c9 0F       		.uleb128 0xf
 15394 70ca 04       		.byte	0x4
 15395 70cb B43B0000 		.4byte	0x3bb4
 15396 70cf 66       		.uleb128 0x66
 15397 70d0 04       		.byte	0x4
 15398 70d1 AD590000 		.4byte	0x59ad
 15399 70d5 66       		.uleb128 0x66
 15400 70d6 04       		.byte	0x4
 15401 70d7 B2590000 		.4byte	0x59b2
 15402 70db 66       		.uleb128 0x66
 15403 70dc 04       		.byte	0x4
 15404 70dd B7590000 		.4byte	0x59b7
 15405 70e1 66       		.uleb128 0x66
 15406 70e2 04       		.byte	0x4
 15407 70e3 BC590000 		.4byte	0x59bc
 15408 70e7 1B       		.uleb128 0x1b
 15409 70e8 C9700000 		.4byte	0x70c9
 15410 70ec 0F       		.uleb128 0xf
ARM GAS  /tmp/ccytVDiP.s 			page 272


 15411 70ed 04       		.byte	0x4
 15412 70ee 425E0000 		.4byte	0x5e42
 15413 70f2 0F       		.uleb128 0xf
 15414 70f3 04       		.byte	0x4
 15415 70f4 95600000 		.4byte	0x6095
 15416 70f8 0F       		.uleb128 0xf
 15417 70f9 04       		.byte	0x4
 15418 70fa 46500000 		.4byte	0x5046
 15419 70fe 0F       		.uleb128 0xf
 15420 70ff 04       		.byte	0x4
 15421 7100 864A0000 		.4byte	0x4a86
 15422 7104 66       		.uleb128 0x66
 15423 7105 04       		.byte	0x4
 15424 7106 E74F0000 		.4byte	0x4fe7
 15425 710a 0F       		.uleb128 0xf
 15426 710b 04       		.byte	0x4
 15427 710c E74F0000 		.4byte	0x4fe7
 15428 7110 0F       		.uleb128 0xf
 15429 7111 04       		.byte	0x4
 15430 7112 EC410000 		.4byte	0x41ec
 15431 7116 0F       		.uleb128 0xf
 15432 7117 04       		.byte	0x4
 15433 7118 2C3C0000 		.4byte	0x3c2c
 15434 711c 66       		.uleb128 0x66
 15435 711d 04       		.byte	0x4
 15436 711e 8D410000 		.4byte	0x418d
 15437 7122 0F       		.uleb128 0xf
 15438 7123 04       		.byte	0x4
 15439 7124 FB410000 		.4byte	0x41fb
 15440 7128 0F       		.uleb128 0xf
 15441 7129 04       		.byte	0x4
 15442 712a 8D410000 		.4byte	0x418d
 15443 712e 0F       		.uleb128 0xf
 15444 712f 04       		.byte	0x4
 15445 7130 88290000 		.4byte	0x2988
 15446 7134 0F       		.uleb128 0xf
 15447 7135 04       		.byte	0x4
 15448 7136 C8230000 		.4byte	0x23c8
 15449 713a 66       		.uleb128 0x66
 15450 713b 04       		.byte	0x4
 15451 713c 29290000 		.4byte	0x2929
 15452 7140 0F       		.uleb128 0xf
 15453 7141 04       		.byte	0x4
 15454 7142 B4290000 		.4byte	0x29b4
 15455 7146 0F       		.uleb128 0xf
 15456 7147 04       		.byte	0x4
 15457 7148 29290000 		.4byte	0x2929
 15458 714c 0B       		.uleb128 0xb
 15459 714d 5C710000 		.4byte	0x715c
 15460 7151 5C710000 		.4byte	0x715c
 15461 7155 0C       		.uleb128 0xc
 15462 7156 3B010000 		.4byte	0x13b
 15463 715a 09       		.byte	0x9
 15464 715b 00       		.byte	0
 15465 715c 0F       		.uleb128 0xf
 15466 715d 04       		.byte	0x4
 15467 715e CE480000 		.4byte	0x48ce
ARM GAS  /tmp/ccytVDiP.s 			page 273


 15468 7162 0B       		.uleb128 0xb
 15469 7163 CE480000 		.4byte	0x48ce
 15470 7167 72710000 		.4byte	0x7172
 15471 716b 0C       		.uleb128 0xc
 15472 716c 3B010000 		.4byte	0x13b
 15473 7170 09       		.byte	0x9
 15474 7171 00       		.byte	0
 15475 7172 0F       		.uleb128 0xf
 15476 7173 04       		.byte	0x4
 15477 7174 30690000 		.4byte	0x6930
 15478 7178 66       		.uleb128 0x66
 15479 7179 04       		.byte	0x4
 15480 717a F3520000 		.4byte	0x52f3
 15481 717e 66       		.uleb128 0x66
 15482 717f 04       		.byte	0x4
 15483 7180 BF390000 		.4byte	0x39bf
 15484 7184 66       		.uleb128 0x66
 15485 7185 04       		.byte	0x4
 15486 7186 3D5E0000 		.4byte	0x5e3d
 15487 718a 0F       		.uleb128 0xf
 15488 718b 04       		.byte	0x4
 15489 718c 88600000 		.4byte	0x6088
 15490 7190 66       		.uleb128 0x66
 15491 7191 04       		.byte	0x4
 15492 7192 35690000 		.4byte	0x6935
 15493 7196 02       		.uleb128 0x2
 15494 7197 04       		.byte	0x4
 15495 7198 04       		.byte	0x4
 15496 7199 381E0000 		.4byte	.LASF1198
 15497 719d 0B       		.uleb128 0xb
 15498 719e E8060000 		.4byte	0x6e8
 15499 71a2 AD710000 		.4byte	0x71ad
 15500 71a6 0C       		.uleb128 0xc
 15501 71a7 3B010000 		.4byte	0x13b
 15502 71ab 3F       		.byte	0x3f
 15503 71ac 00       		.byte	0
 15504 71ad 0F       		.uleb128 0xf
 15505 71ae 04       		.byte	0x4
 15506 71af 74690000 		.4byte	0x6974
 15507 71b3 66       		.uleb128 0x66
 15508 71b4 04       		.byte	0x4
 15509 71b5 596A0000 		.4byte	0x6a59
 15510 71b9 66       		.uleb128 0x66
 15511 71ba 04       		.byte	0x4
 15512 71bb BF710000 		.4byte	0x71bf
 15513 71bf 0F       		.uleb128 0xf
 15514 71c0 04       		.byte	0x4
 15515 71c1 53690000 		.4byte	0x6953
 15516 71c5 66       		.uleb128 0x66
 15517 71c6 04       		.byte	0x4
 15518 71c7 53690000 		.4byte	0x6953
 15519 71cb 13       		.uleb128 0x13
 15520 71cc 94000000 		.4byte	0x94
 15521 71d0 D6710000 		.4byte	0x71d6
 15522 71d4 68       		.uleb128 0x68
 15523 71d5 00       		.byte	0
 15524 71d6 0F       		.uleb128 0xf
ARM GAS  /tmp/ccytVDiP.s 			page 274


 15525 71d7 04       		.byte	0x4
 15526 71d8 DC710000 		.4byte	0x71dc
 15527 71dc 69       		.uleb128 0x69
 15528 71dd 04       		.byte	0x4
 15529 71de 682F0000 		.4byte	.LASF1268
 15530 71e2 CB710000 		.4byte	0x71cb
 15531 71e6 0F       		.uleb128 0xf
 15532 71e7 04       		.byte	0x4
 15533 71e8 5E6A0000 		.4byte	0x6a5e
 15534 71ec 66       		.uleb128 0x66
 15535 71ed 04       		.byte	0x4
 15536 71ee 576C0000 		.4byte	0x6c57
 15537 71f2 0F       		.uleb128 0xf
 15538 71f3 04       		.byte	0x4
 15539 71f4 576C0000 		.4byte	0x6c57
 15540 71f8 0F       		.uleb128 0xf
 15541 71f9 04       		.byte	0x4
 15542 71fa FE710000 		.4byte	0x71fe
 15543 71fe 13       		.uleb128 0x13
 15544 71ff 700C0000 		.4byte	0xc70
 15545 7203 0D720000 		.4byte	0x720d
 15546 7207 14       		.uleb128 0x14
 15547 7208 90710000 		.4byte	0x7190
 15548 720c 00       		.byte	0
 15549 720d 0F       		.uleb128 0xf
 15550 720e 04       		.byte	0x4
 15551 720f 0D680000 		.4byte	0x680d
 15552 7213 66       		.uleb128 0x66
 15553 7214 04       		.byte	0x4
 15554 7215 5C6C0000 		.4byte	0x6c5c
 15555 7219 0F       		.uleb128 0xf
 15556 721a 04       		.byte	0x4
 15557 721b 5C6C0000 		.4byte	0x6c5c
 15558 721f 66       		.uleb128 0x66
 15559 7220 04       		.byte	0x4
 15560 7221 5C710000 		.4byte	0x715c
 15561 7225 66       		.uleb128 0x66
 15562 7226 04       		.byte	0x4
 15563 7227 CE480000 		.4byte	0x48ce
 15564 722b 0F       		.uleb128 0xf
 15565 722c 04       		.byte	0x4
 15566 722d 5C710000 		.4byte	0x715c
 15567 7231 0F       		.uleb128 0xf
 15568 7232 04       		.byte	0x4
 15569 7233 28670000 		.4byte	0x6728
 15570 7237 66       		.uleb128 0x66
 15571 7238 04       		.byte	0x4
 15572 7239 616C0000 		.4byte	0x6c61
 15573 723d 66       		.uleb128 0x66
 15574 723e 04       		.byte	0x4
 15575 723f 666C0000 		.4byte	0x6c66
 15576 7243 0F       		.uleb128 0xf
 15577 7244 04       		.byte	0x4
 15578 7245 666C0000 		.4byte	0x6c66
 15579 7249 6A       		.uleb128 0x6a
 15580 724a 6B6C0000 		.4byte	0x6c6b
 15581 724e 03       		.byte	0x3
ARM GAS  /tmp/ccytVDiP.s 			page 275


 15582 724f 7C720000 		.4byte	0x727c
 15583 7253 4B       		.uleb128 0x4b
 15584 7254 6C660000 		.4byte	.LASF1195
 15585 7258 53690000 		.4byte	0x6953
 15586 725c 4B       		.uleb128 0x4b
 15587 725d DF2C0000 		.4byte	.LASF1196
 15588 7261 C4390000 		.4byte	0x39c4
 15589 7265 6B       		.uleb128 0x6b
 15590 7266 6C       		.uleb128 0x6c
 15591 7267 706400   		.ascii	"pd\000"
 15592 726a 3E       		.byte	0x3e
 15593 726b 21       		.byte	0x21
 15594 726c 7C720000 		.4byte	0x727c
 15595 7270 6C       		.uleb128 0x6c
 15596 7271 706200   		.ascii	"pb\000"
 15597 7274 3E       		.byte	0x3e
 15598 7275 22       		.byte	0x22
 15599 7276 87720000 		.4byte	0x7287
 15600 727a 00       		.byte	0
 15601 727b 00       		.byte	0
 15602 727c 1B       		.uleb128 0x1b
 15603 727d 81720000 		.4byte	0x7281
 15604 7281 0F       		.uleb128 0xf
 15605 7282 04       		.byte	0x4
 15606 7283 896C0000 		.4byte	0x6c89
 15607 7287 1B       		.uleb128 0x1b
 15608 7288 926E0000 		.4byte	0x6e92
 15609 728c 6A       		.uleb128 0x6a
 15610 728d 8E6C0000 		.4byte	0x6c8e
 15611 7291 03       		.byte	0x3
 15612 7292 BF720000 		.4byte	0x72bf
 15613 7296 4B       		.uleb128 0x4b
 15614 7297 6C660000 		.4byte	.LASF1195
 15615 729b CE480000 		.4byte	0x48ce
 15616 729f 4B       		.uleb128 0x4b
 15617 72a0 DF2C0000 		.4byte	.LASF1196
 15618 72a4 C4390000 		.4byte	0x39c4
 15619 72a8 6B       		.uleb128 0x6b
 15620 72a9 6C       		.uleb128 0x6c
 15621 72aa 706400   		.ascii	"pd\000"
 15622 72ad 3E       		.byte	0x3e
 15623 72ae 21       		.byte	0x21
 15624 72af BF720000 		.4byte	0x72bf
 15625 72b3 6C       		.uleb128 0x6c
 15626 72b4 706200   		.ascii	"pb\000"
 15627 72b7 3E       		.byte	0x3e
 15628 72b8 22       		.byte	0x22
 15629 72b9 87720000 		.4byte	0x7287
 15630 72bd 00       		.byte	0
 15631 72be 00       		.byte	0
 15632 72bf 1B       		.uleb128 0x1b
 15633 72c0 C4720000 		.4byte	0x72c4
 15634 72c4 0F       		.uleb128 0xf
 15635 72c5 04       		.byte	0x4
 15636 72c6 35690000 		.4byte	0x6935
 15637 72ca 6D       		.uleb128 0x6d
 15638 72cb 071E0000 		.4byte	0x1e07
ARM GAS  /tmp/ccytVDiP.s 			page 276


 15639 72cf 02       		.byte	0x2
 15640 72d0 D8720000 		.4byte	0x72d8
 15641 72d4 EB720000 		.4byte	0x72eb
 15642 72d8 6E       		.uleb128 0x6e
 15643 72d9 D23F0000 		.4byte	.LASF1199
 15644 72dd EB720000 		.4byte	0x72eb
 15645 72e1 6E       		.uleb128 0x6e
 15646 72e2 106C0000 		.4byte	.LASF1200
 15647 72e6 F0720000 		.4byte	0x72f0
 15648 72ea 00       		.byte	0
 15649 72eb 1B       		.uleb128 0x1b
 15650 72ec A96C0000 		.4byte	0x6ca9
 15651 72f0 1B       		.uleb128 0x1b
 15652 72f1 94000000 		.4byte	0x94
 15653 72f5 6F       		.uleb128 0x6f
 15654 72f6 CA720000 		.4byte	0x72ca
 15655 72fa E0600000 		.4byte	.LASF1211
 15656 72fe 00000000 		.4byte	.LFB127
 15657 7302 0C000000 		.4byte	.LFE127-.LFB127
 15658 7306 01       		.uleb128 0x1
 15659 7307 9C       		.byte	0x9c
 15660 7308 10730000 		.4byte	0x7310
 15661 730c 19730000 		.4byte	0x7319
 15662 7310 70       		.uleb128 0x70
 15663 7311 D8720000 		.4byte	0x72d8
 15664 7315 02       		.uleb128 0x2
 15665 7316 91       		.byte	0x91
 15666 7317 7C       		.sleb128 -4
 15667 7318 00       		.byte	0
 15668 7319 71       		.uleb128 0x71
 15669 731a 531E0000 		.4byte	0x1e53
 15670 731e 14       		.byte	0x14
 15671 731f 00000000 		.4byte	.LFB129
 15672 7323 0E000000 		.4byte	.LFE129-.LFB129
 15673 7327 01       		.uleb128 0x1
 15674 7328 9C       		.byte	0x9c
 15675 7329 45730000 		.4byte	0x7345
 15676 732d 72       		.uleb128 0x72
 15677 732e 02000000 		.4byte	.LBB26
 15678 7332 06000000 		.4byte	.LBE26-.LBB26
 15679 7336 73       		.uleb128 0x73
 15680 7337 746D7000 		.ascii	"tmp\000"
 15681 733b 02       		.byte	0x2
 15682 733c 16       		.byte	0x16
 15683 733d 440C0000 		.4byte	0xc44
 15684 7341 01       		.uleb128 0x1
 15685 7342 53       		.byte	0x53
 15686 7343 00       		.byte	0
 15687 7344 00       		.byte	0
 15688 7345 71       		.uleb128 0x71
 15689 7346 5F1E0000 		.4byte	0x1e5f
 15690 734a 1B       		.byte	0x1b
 15691 734b 00000000 		.4byte	.LFB130
 15692 734f 0E000000 		.4byte	.LFE130-.LFB130
 15693 7353 01       		.uleb128 0x1
 15694 7354 9C       		.byte	0x9c
 15695 7355 71730000 		.4byte	0x7371
ARM GAS  /tmp/ccytVDiP.s 			page 277


 15696 7359 72       		.uleb128 0x72
 15697 735a 06000000 		.4byte	.LBB29
 15698 735e 06000000 		.4byte	.LBE29-.LBB29
 15699 7362 73       		.uleb128 0x73
 15700 7363 746D7000 		.ascii	"tmp\000"
 15701 7367 02       		.byte	0x2
 15702 7368 1D       		.byte	0x1d
 15703 7369 440C0000 		.4byte	0xc44
 15704 736d 01       		.uleb128 0x1
 15705 736e 53       		.byte	0x53
 15706 736f 00       		.byte	0
 15707 7370 00       		.byte	0
 15708 7371 74       		.uleb128 0x74
 15709 7372 971E0000 		.4byte	0x1e97
 15710 7376 1B       		.byte	0x1b
 15711 7377 00000000 		.4byte	.LFB137
 15712 737b 08000000 		.4byte	.LFE137-.LFB137
 15713 737f 01       		.uleb128 0x1
 15714 7380 9C       		.byte	0x9c
 15715 7381 74       		.uleb128 0x74
 15716 7382 A31E0000 		.4byte	0x1ea3
 15717 7386 22       		.byte	0x22
 15718 7387 00000000 		.4byte	.LFB138
 15719 738b 08000000 		.4byte	.LFE138-.LFB138
 15720 738f 01       		.uleb128 0x1
 15721 7390 9C       		.byte	0x9c
 15722 7391 75       		.uleb128 0x75
 15723 7392 2E1F0000 		.4byte	0x1f2e
 15724 7396 35       		.byte	0x35
 15725 7397 00000000 		.4byte	.LFB236
 15726 739b 18000000 		.4byte	.LFE236-.LFB236
 15727 739f 01       		.uleb128 0x1
 15728 73a0 9C       		.byte	0x9c
 15729 73a1 A9730000 		.4byte	0x73a9
 15730 73a5 B6730000 		.4byte	0x73b6
 15731 73a9 76       		.uleb128 0x76
 15732 73aa D23F0000 		.4byte	.LASF1199
 15733 73ae B6730000 		.4byte	0x73b6
 15734 73b2 02       		.uleb128 0x2
 15735 73b3 91       		.byte	0x91
 15736 73b4 74       		.sleb128 -12
 15737 73b5 00       		.byte	0
 15738 73b6 1B       		.uleb128 0x1b
 15739 73b7 CE6C0000 		.4byte	0x6cce
 15740 73bb 77       		.uleb128 0x77
 15741 73bc 28210000 		.4byte	0x2128
 15742 73c0 59       		.byte	0x59
 15743 73c1 00000000 		.4byte	.LFB256
 15744 73c5 20000000 		.4byte	.LFE256-.LFB256
 15745 73c9 01       		.uleb128 0x1
 15746 73ca 9C       		.byte	0x9c
 15747 73cb D3730000 		.4byte	0x73d3
 15748 73cf E0730000 		.4byte	0x73e0
 15749 73d3 76       		.uleb128 0x76
 15750 73d4 D23F0000 		.4byte	.LASF1199
 15751 73d8 E0730000 		.4byte	0x73e0
 15752 73dc 02       		.uleb128 0x2
ARM GAS  /tmp/ccytVDiP.s 			page 278


 15753 73dd 91       		.byte	0x91
 15754 73de 7C       		.sleb128 -4
 15755 73df 00       		.byte	0
 15756 73e0 1B       		.uleb128 0x1b
 15757 73e1 DA6C0000 		.4byte	0x6cda
 15758 73e5 77       		.uleb128 0x77
 15759 73e6 DC210000 		.4byte	0x21dc
 15760 73ea 83       		.byte	0x83
 15761 73eb 00000000 		.4byte	.LFB262
 15762 73ef 16000000 		.4byte	.LFE262-.LFB262
 15763 73f3 01       		.uleb128 0x1
 15764 73f4 9C       		.byte	0x9c
 15765 73f5 FD730000 		.4byte	0x73fd
 15766 73f9 18740000 		.4byte	0x7418
 15767 73fd 76       		.uleb128 0x76
 15768 73fe D23F0000 		.4byte	.LASF1199
 15769 7402 18740000 		.4byte	0x7418
 15770 7406 02       		.uleb128 0x2
 15771 7407 91       		.byte	0x91
 15772 7408 7C       		.sleb128 -4
 15773 7409 78       		.uleb128 0x78
 15774 740a 72687300 		.ascii	"rhs\000"
 15775 740e 05       		.byte	0x5
 15776 740f 83       		.byte	0x83
 15777 7410 1D740000 		.4byte	0x741d
 15778 7414 02       		.uleb128 0x2
 15779 7415 91       		.byte	0x91
 15780 7416 78       		.sleb128 -8
 15781 7417 00       		.byte	0
 15782 7418 1B       		.uleb128 0x1b
 15783 7419 ED6C0000 		.4byte	0x6ced
 15784 741d 1B       		.uleb128 0x1b
 15785 741e F36C0000 		.4byte	0x6cf3
 15786 7422 71       		.uleb128 0x71
 15787 7423 B6220000 		.4byte	0x22b6
 15788 7427 B8       		.byte	0xb8
 15789 7428 00000000 		.4byte	.LFB276
 15790 742c 22000000 		.4byte	.LFE276-.LFB276
 15791 7430 01       		.uleb128 0x1
 15792 7431 9C       		.byte	0x9c
 15793 7432 45740000 		.4byte	0x7445
 15794 7436 79       		.uleb128 0x79
 15795 7437 D82E0000 		.4byte	.LASF1201
 15796 743b 05       		.byte	0x5
 15797 743c B8       		.byte	0xb8
 15798 743d 28230000 		.4byte	0x2328
 15799 7441 02       		.uleb128 0x2
 15800 7442 91       		.byte	0x91
 15801 7443 70       		.sleb128 -16
 15802 7444 00       		.byte	0
 15803 7445 77       		.uleb128 0x77
 15804 7446 3E3A0000 		.4byte	0x3a3e
 15805 744a 7A       		.byte	0x7a
 15806 744b 00000000 		.4byte	.LFB292
 15807 744f 12000000 		.4byte	.LFE292-.LFB292
 15808 7453 01       		.uleb128 0x1
 15809 7454 9C       		.byte	0x9c
ARM GAS  /tmp/ccytVDiP.s 			page 279


 15810 7455 5D740000 		.4byte	0x745d
 15811 7459 6A740000 		.4byte	0x746a
 15812 745d 76       		.uleb128 0x76
 15813 745e D23F0000 		.4byte	.LASF1199
 15814 7462 6A740000 		.4byte	0x746a
 15815 7466 02       		.uleb128 0x2
 15816 7467 91       		.byte	0x91
 15817 7468 7C       		.sleb128 -4
 15818 7469 00       		.byte	0
 15819 746a 1B       		.uleb128 0x1b
 15820 746b 626E0000 		.4byte	0x6e62
 15821 746f 7A       		.uleb128 0x7a
 15822 7470 E56A0000 		.4byte	0x6ae5
 15823 7474 00000000 		.4byte	.LFB303
 15824 7478 40000000 		.4byte	.LFE303-.LFB303
 15825 747c 01       		.uleb128 0x1
 15826 747d 9C       		.byte	0x9c
 15827 747e 86740000 		.4byte	0x7486
 15828 7482 A1740000 		.4byte	0x74a1
 15829 7486 76       		.uleb128 0x76
 15830 7487 D23F0000 		.4byte	.LASF1199
 15831 748b A1740000 		.4byte	0x74a1
 15832 748f 02       		.uleb128 0x2
 15833 7490 91       		.byte	0x91
 15834 7491 74       		.sleb128 -12
 15835 7492 79       		.uleb128 0x79
 15836 7493 1C180000 		.4byte	.LASF1202
 15837 7497 07       		.byte	0x7
 15838 7498 40       		.byte	0x40
 15839 7499 A6740000 		.4byte	0x74a6
 15840 749d 02       		.uleb128 0x2
 15841 749e 91       		.byte	0x91
 15842 749f 70       		.sleb128 -16
 15843 74a0 00       		.byte	0
 15844 74a1 1B       		.uleb128 0x1b
 15845 74a2 E6710000 		.4byte	0x71e6
 15846 74a6 1B       		.uleb128 0x1b
 15847 74a7 1A6F0000 		.4byte	0x6f1a
 15848 74ab 7A       		.uleb128 0x7a
 15849 74ac 716B0000 		.4byte	0x6b71
 15850 74b0 00000000 		.4byte	.LFB304
 15851 74b4 2A000000 		.4byte	.LFE304-.LFB304
 15852 74b8 01       		.uleb128 0x1
 15853 74b9 9C       		.byte	0x9c
 15854 74ba C2740000 		.4byte	0x74c2
 15855 74be F5740000 		.4byte	0x74f5
 15856 74c2 76       		.uleb128 0x76
 15857 74c3 D23F0000 		.4byte	.LASF1199
 15858 74c7 A1740000 		.4byte	0x74a1
 15859 74cb 02       		.uleb128 0x2
 15860 74cc 91       		.byte	0x91
 15861 74cd 6C       		.sleb128 -20
 15862 74ce 79       		.uleb128 0x79
 15863 74cf 1C180000 		.4byte	.LASF1202
 15864 74d3 07       		.byte	0x7
 15865 74d4 4A       		.byte	0x4a
 15866 74d5 F5740000 		.4byte	0x74f5
ARM GAS  /tmp/ccytVDiP.s 			page 280


 15867 74d9 02       		.uleb128 0x2
 15868 74da 91       		.byte	0x91
 15869 74db 68       		.sleb128 -24
 15870 74dc 72       		.uleb128 0x72
 15871 74dd 08000000 		.4byte	.LBB30
 15872 74e1 1A000000 		.4byte	.LBE30-.LBB30
 15873 74e5 7B       		.uleb128 0x7b
 15874 74e6 8D3F0000 		.4byte	.LASF1203
 15875 74ea 07       		.byte	0x7
 15876 74eb 4D       		.byte	0x4d
 15877 74ec 700C0000 		.4byte	0xc70
 15878 74f0 02       		.uleb128 0x2
 15879 74f1 91       		.byte	0x91
 15880 74f2 77       		.sleb128 -9
 15881 74f3 00       		.byte	0
 15882 74f4 00       		.byte	0
 15883 74f5 1B       		.uleb128 0x1b
 15884 74f6 1A6F0000 		.4byte	0x6f1a
 15885 74fa 71       		.uleb128 0x71
 15886 74fb 74440000 		.4byte	0x4474
 15887 74ff 71       		.byte	0x71
 15888 7500 00000000 		.4byte	.LFB334
 15889 7504 34000000 		.4byte	.LFE334-.LFB334
 15890 7508 01       		.uleb128 0x1
 15891 7509 9C       		.byte	0x9c
 15892 750a 7B750000 		.4byte	0x757b
 15893 750e 79       		.uleb128 0x79
 15894 750f A02E0000 		.4byte	.LASF1204
 15895 7513 08       		.byte	0x8
 15896 7514 71       		.byte	0x71
 15897 7515 B8000000 		.4byte	0xb8
 15898 7519 02       		.uleb128 0x2
 15899 751a 91       		.byte	0x91
 15900 751b 6C       		.sleb128 -20
 15901 751c 79       		.uleb128 0x79
 15902 751d EB5B0000 		.4byte	.LASF1205
 15903 7521 08       		.byte	0x8
 15904 7522 71       		.byte	0x71
 15905 7523 AD000000 		.4byte	0xad
 15906 7527 02       		.uleb128 0x2
 15907 7528 91       		.byte	0x91
 15908 7529 68       		.sleb128 -24
 15909 752a 79       		.uleb128 0x79
 15910 752b 940F0000 		.4byte	.LASF1206
 15911 752f 08       		.byte	0x8
 15912 7530 71       		.byte	0x71
 15913 7531 A2430000 		.4byte	0x43a2
 15914 7535 02       		.uleb128 0x2
 15915 7536 91       		.byte	0x91
 15916 7537 64       		.sleb128 -28
 15917 7538 79       		.uleb128 0x79
 15918 7539 5D1B0000 		.4byte	.LASF1207
 15919 753d 08       		.byte	0x8
 15920 753e 72       		.byte	0x72
 15921 753f AE430000 		.4byte	0x43ae
 15922 7543 02       		.uleb128 0x2
 15923 7544 91       		.byte	0x91
ARM GAS  /tmp/ccytVDiP.s 			page 281


 15924 7545 60       		.sleb128 -32
 15925 7546 79       		.uleb128 0x79
 15926 7547 68790000 		.4byte	.LASF1208
 15927 754b 08       		.byte	0x8
 15928 754c 72       		.byte	0x72
 15929 754d B8000000 		.4byte	0xb8
 15930 7551 02       		.uleb128 0x2
 15931 7552 91       		.byte	0x91
 15932 7553 00       		.sleb128 0
 15933 7554 79       		.uleb128 0x79
 15934 7555 DE250000 		.4byte	.LASF612
 15935 7559 08       		.byte	0x8
 15936 755a 73       		.byte	0x73
 15937 755b 13070000 		.4byte	0x713
 15938 755f 02       		.uleb128 0x2
 15939 7560 91       		.byte	0x91
 15940 7561 04       		.sleb128 4
 15941 7562 72       		.uleb128 0x72
 15942 7563 0C000000 		.4byte	.LBB31
 15943 7567 20000000 		.4byte	.LBE31-.LBB31
 15944 756b 7B       		.uleb128 0x7b
 15945 756c B11B0000 		.4byte	.LASF817
 15946 7570 08       		.byte	0x8
 15947 7571 75       		.byte	0x75
 15948 7572 376F0000 		.4byte	0x6f37
 15949 7576 02       		.uleb128 0x2
 15950 7577 91       		.byte	0x91
 15951 7578 74       		.sleb128 -12
 15952 7579 00       		.byte	0
 15953 757a 00       		.byte	0
 15954 757b 71       		.uleb128 0x71
 15955 757c 17450000 		.4byte	0x4517
 15956 7580 B4       		.byte	0xb4
 15957 7581 00000000 		.4byte	.LFB340
 15958 7585 64000000 		.4byte	.LFE340-.LFB340
 15959 7589 01       		.uleb128 0x1
 15960 758a 9C       		.byte	0x9c
 15961 758b 9E750000 		.4byte	0x759e
 15962 758f 79       		.uleb128 0x79
 15963 7590 E9760000 		.4byte	.LASF1209
 15964 7594 08       		.byte	0x8
 15965 7595 B4       		.byte	0xb4
 15966 7596 9E750000 		.4byte	0x759e
 15967 759a 02       		.uleb128 0x2
 15968 759b 91       		.byte	0x91
 15969 759c 74       		.sleb128 -12
 15970 759d 00       		.byte	0
 15971 759e 1B       		.uleb128 0x1b
 15972 759f F36C0000 		.4byte	0x6cf3
 15973 75a3 71       		.uleb128 0x71
 15974 75a4 50460000 		.4byte	0x4650
 15975 75a8 5A       		.byte	0x5a
 15976 75a9 00000000 		.4byte	.LFB345
 15977 75ad 2A000000 		.4byte	.LFE345-.LFB345
 15978 75b1 01       		.uleb128 0x1
 15979 75b2 9C       		.byte	0x9c
 15980 75b3 0C760000 		.4byte	0x760c
ARM GAS  /tmp/ccytVDiP.s 			page 282


 15981 75b7 79       		.uleb128 0x79
 15982 75b8 A02E0000 		.4byte	.LASF1204
 15983 75bc 09       		.byte	0x9
 15984 75bd 5A       		.byte	0x5a
 15985 75be B8000000 		.4byte	0xb8
 15986 75c2 02       		.uleb128 0x2
 15987 75c3 91       		.byte	0x91
 15988 75c4 74       		.sleb128 -12
 15989 75c5 79       		.uleb128 0x79
 15990 75c6 EB5B0000 		.4byte	.LASF1205
 15991 75ca 09       		.byte	0x9
 15992 75cb 5A       		.byte	0x5a
 15993 75cc AD000000 		.4byte	0xad
 15994 75d0 02       		.uleb128 0x2
 15995 75d1 91       		.byte	0x91
 15996 75d2 70       		.sleb128 -16
 15997 75d3 79       		.uleb128 0x79
 15998 75d4 940F0000 		.4byte	.LASF1206
 15999 75d8 09       		.byte	0x9
 16000 75d9 5B       		.byte	0x5b
 16001 75da 9C450000 		.4byte	0x459c
 16002 75de 02       		.uleb128 0x2
 16003 75df 91       		.byte	0x91
 16004 75e0 6C       		.sleb128 -20
 16005 75e1 79       		.uleb128 0x79
 16006 75e2 5D1B0000 		.4byte	.LASF1207
 16007 75e6 09       		.byte	0x9
 16008 75e7 5C       		.byte	0x5c
 16009 75e8 A8450000 		.4byte	0x45a8
 16010 75ec 02       		.uleb128 0x2
 16011 75ed 91       		.byte	0x91
 16012 75ee 68       		.sleb128 -24
 16013 75ef 79       		.uleb128 0x79
 16014 75f0 68790000 		.4byte	.LASF1208
 16015 75f4 09       		.byte	0x9
 16016 75f5 5C       		.byte	0x5c
 16017 75f6 B8000000 		.4byte	0xb8
 16018 75fa 02       		.uleb128 0x2
 16019 75fb 91       		.byte	0x91
 16020 75fc 00       		.sleb128 0
 16021 75fd 79       		.uleb128 0x79
 16022 75fe DE250000 		.4byte	.LASF612
 16023 7602 09       		.byte	0x9
 16024 7603 5C       		.byte	0x5c
 16025 7604 13070000 		.4byte	0x713
 16026 7608 02       		.uleb128 0x2
 16027 7609 91       		.byte	0x91
 16028 760a 04       		.sleb128 4
 16029 760b 00       		.byte	0
 16030 760c 71       		.uleb128 0x71
 16031 760d C5460000 		.4byte	0x46c5
 16032 7611 8C       		.byte	0x8c
 16033 7612 00000000 		.4byte	.LFB351
 16034 7616 12000000 		.4byte	.LFE351-.LFB351
 16035 761a 01       		.uleb128 0x1
 16036 761b 9C       		.byte	0x9c
 16037 761c 2F760000 		.4byte	0x762f
ARM GAS  /tmp/ccytVDiP.s 			page 283


 16038 7620 79       		.uleb128 0x79
 16039 7621 E9760000 		.4byte	.LASF1209
 16040 7625 09       		.byte	0x9
 16041 7626 8C       		.byte	0x8c
 16042 7627 2F760000 		.4byte	0x762f
 16043 762b 02       		.uleb128 0x2
 16044 762c 91       		.byte	0x91
 16045 762d 74       		.sleb128 -12
 16046 762e 00       		.byte	0
 16047 762f 1B       		.uleb128 0x1b
 16048 7630 F36C0000 		.4byte	0x6cf3
 16049 7634 77       		.uleb128 0x77
 16050 7635 26470000 		.4byte	0x4726
 16051 7639 24       		.byte	0x24
 16052 763a 00000000 		.4byte	.LFB353
 16053 763e 0E000000 		.4byte	.LFE353-.LFB353
 16054 7642 01       		.uleb128 0x1
 16055 7643 9C       		.byte	0x9c
 16056 7644 4C760000 		.4byte	0x764c
 16057 7648 59760000 		.4byte	0x7659
 16058 764c 76       		.uleb128 0x76
 16059 764d D23F0000 		.4byte	.LASF1199
 16060 7651 59760000 		.4byte	0x7659
 16061 7655 02       		.uleb128 0x2
 16062 7656 91       		.byte	0x91
 16063 7657 7C       		.sleb128 -4
 16064 7658 00       		.byte	0
 16065 7659 1B       		.uleb128 0x1b
 16066 765a 5B6F0000 		.4byte	0x6f5b
 16067 765e 75       		.uleb128 0x75
 16068 765f 63470000 		.4byte	0x4763
 16069 7663 32       		.byte	0x32
 16070 7664 00000000 		.4byte	.LFB355
 16071 7668 3C000000 		.4byte	.LFE355-.LFB355
 16072 766c 01       		.uleb128 0x1
 16073 766d 9C       		.byte	0x9c
 16074 766e 76760000 		.4byte	0x7676
 16075 7672 91760000 		.4byte	0x7691
 16076 7676 76       		.uleb128 0x76
 16077 7677 D23F0000 		.4byte	.LASF1199
 16078 767b 91760000 		.4byte	0x7691
 16079 767f 02       		.uleb128 0x2
 16080 7680 91       		.byte	0x91
 16081 7681 74       		.sleb128 -12
 16082 7682 79       		.uleb128 0x79
 16083 7683 D52D0000 		.4byte	.LASF1210
 16084 7687 0A       		.byte	0xa
 16085 7688 32       		.byte	0x32
 16086 7689 A6000000 		.4byte	0xa6
 16087 768d 02       		.uleb128 0x2
 16088 768e 91       		.byte	0x91
 16089 768f 70       		.sleb128 -16
 16090 7690 00       		.byte	0
 16091 7691 1B       		.uleb128 0x1b
 16092 7692 616F0000 		.4byte	0x6f61
 16093 7696 75       		.uleb128 0x75
 16094 7697 0F480000 		.4byte	0x480f
ARM GAS  /tmp/ccytVDiP.s 			page 284


 16095 769b 23       		.byte	0x23
 16096 769c 00000000 		.4byte	.LFB361
 16097 76a0 18000000 		.4byte	.LFE361-.LFB361
 16098 76a4 01       		.uleb128 0x1
 16099 76a5 9C       		.byte	0x9c
 16100 76a6 AE760000 		.4byte	0x76ae
 16101 76aa BB760000 		.4byte	0x76bb
 16102 76ae 76       		.uleb128 0x76
 16103 76af D23F0000 		.4byte	.LASF1199
 16104 76b3 BB760000 		.4byte	0x76bb
 16105 76b7 02       		.uleb128 0x2
 16106 76b8 91       		.byte	0x91
 16107 76b9 74       		.sleb128 -12
 16108 76ba 00       		.byte	0
 16109 76bb 1B       		.uleb128 0x1b
 16110 76bc 676F0000 		.4byte	0x6f67
 16111 76c0 75       		.uleb128 0x75
 16112 76c1 4C480000 		.4byte	0x484c
 16113 76c5 31       		.byte	0x31
 16114 76c6 00000000 		.4byte	.LFB363
 16115 76ca 18000000 		.4byte	.LFE363-.LFB363
 16116 76ce 01       		.uleb128 0x1
 16117 76cf 9C       		.byte	0x9c
 16118 76d0 D8760000 		.4byte	0x76d8
 16119 76d4 F3760000 		.4byte	0x76f3
 16120 76d8 76       		.uleb128 0x76
 16121 76d9 D23F0000 		.4byte	.LASF1199
 16122 76dd F3760000 		.4byte	0x76f3
 16123 76e1 02       		.uleb128 0x2
 16124 76e2 91       		.byte	0x91
 16125 76e3 74       		.sleb128 -12
 16126 76e4 79       		.uleb128 0x79
 16127 76e5 D52D0000 		.4byte	.LASF1210
 16128 76e9 0B       		.byte	0xb
 16129 76ea 31       		.byte	0x31
 16130 76eb A6000000 		.4byte	0xa6
 16131 76ef 02       		.uleb128 0x2
 16132 76f0 91       		.byte	0x91
 16133 76f1 70       		.sleb128 -16
 16134 76f2 00       		.byte	0
 16135 76f3 1B       		.uleb128 0x1b
 16136 76f4 6D6F0000 		.4byte	0x6f6d
 16137 76f8 75       		.uleb128 0x75
 16138 76f9 2B510000 		.4byte	0x512b
 16139 76fd 67       		.byte	0x67
 16140 76fe 00000000 		.4byte	.LFB380
 16141 7702 24000000 		.4byte	.LFE380-.LFB380
 16142 7706 01       		.uleb128 0x1
 16143 7707 9C       		.byte	0x9c
 16144 7708 10770000 		.4byte	0x7710
 16145 770c 1D770000 		.4byte	0x771d
 16146 7710 76       		.uleb128 0x76
 16147 7711 D23F0000 		.4byte	.LASF1199
 16148 7715 1D770000 		.4byte	0x771d
 16149 7719 02       		.uleb128 0x2
 16150 771a 91       		.byte	0x91
 16151 771b 74       		.sleb128 -12
ARM GAS  /tmp/ccytVDiP.s 			page 285


 16152 771c 00       		.byte	0
 16153 771d 1B       		.uleb128 0x1b
 16154 771e 2F700000 		.4byte	0x702f
 16155 7722 75       		.uleb128 0x75
 16156 7723 68510000 		.4byte	0x5168
 16157 7727 8C       		.byte	0x8c
 16158 7728 00000000 		.4byte	.LFB385
 16159 772c 1A000000 		.4byte	.LFE385-.LFB385
 16160 7730 01       		.uleb128 0x1
 16161 7731 9C       		.byte	0x9c
 16162 7732 3A770000 		.4byte	0x773a
 16163 7736 55770000 		.4byte	0x7755
 16164 773a 76       		.uleb128 0x76
 16165 773b D23F0000 		.4byte	.LASF1199
 16166 773f 24700000 		.4byte	0x7024
 16167 7743 02       		.uleb128 0x2
 16168 7744 91       		.byte	0x91
 16169 7745 74       		.sleb128 -12
 16170 7746 79       		.uleb128 0x79
 16171 7747 D52D0000 		.4byte	.LASF1210
 16172 774b 0C       		.byte	0xc
 16173 774c 8C       		.byte	0x8c
 16174 774d A6000000 		.4byte	0xa6
 16175 7751 02       		.uleb128 0x2
 16176 7752 91       		.byte	0x91
 16177 7753 70       		.sleb128 -16
 16178 7754 00       		.byte	0
 16179 7755 7A       		.uleb128 0x7a
 16180 7756 C2290000 		.4byte	0x29c2
 16181 775a 00000000 		.4byte	.LFB391
 16182 775e 1A000000 		.4byte	.LFE391-.LFB391
 16183 7762 01       		.uleb128 0x1
 16184 7763 9C       		.byte	0x9c
 16185 7764 6C770000 		.4byte	0x776c
 16186 7768 79770000 		.4byte	0x7779
 16187 776c 76       		.uleb128 0x76
 16188 776d D23F0000 		.4byte	.LASF1199
 16189 7771 79770000 		.4byte	0x7779
 16190 7775 02       		.uleb128 0x2
 16191 7776 91       		.byte	0x91
 16192 7777 74       		.sleb128 -12
 16193 7778 00       		.byte	0
 16194 7779 1B       		.uleb128 0x1b
 16195 777a 40710000 		.4byte	0x7140
 16196 777e 7A       		.uleb128 0x7a
 16197 777f E8290000 		.4byte	0x29e8
 16198 7783 00000000 		.4byte	.LFB392
 16199 7787 3C000000 		.4byte	.LFE392-.LFB392
 16200 778b 01       		.uleb128 0x1
 16201 778c 9C       		.byte	0x9c
 16202 778d 95770000 		.4byte	0x7795
 16203 7791 BE770000 		.4byte	0x77be
 16204 7795 76       		.uleb128 0x76
 16205 7796 D23F0000 		.4byte	.LASF1199
 16206 779a 266F0000 		.4byte	0x6f26
 16207 779e 02       		.uleb128 0x2
 16208 779f 91       		.byte	0x91
ARM GAS  /tmp/ccytVDiP.s 			page 286


 16209 77a0 6C       		.sleb128 -20
 16210 77a1 79       		.uleb128 0x79
 16211 77a2 1C180000 		.4byte	.LASF1202
 16212 77a6 0D       		.byte	0xd
 16213 77a7 47       		.byte	0x47
 16214 77a8 BE770000 		.4byte	0x77be
 16215 77ac 02       		.uleb128 0x2
 16216 77ad 91       		.byte	0x91
 16217 77ae 68       		.sleb128 -24
 16218 77af 79       		.uleb128 0x79
 16219 77b0 0A320000 		.4byte	.LASF1057
 16220 77b4 0D       		.byte	0xd
 16221 77b5 47       		.byte	0x47
 16222 77b6 C3770000 		.4byte	0x77c3
 16223 77ba 02       		.uleb128 0x2
 16224 77bb 91       		.byte	0x91
 16225 77bc 64       		.sleb128 -28
 16226 77bd 00       		.byte	0
 16227 77be 1B       		.uleb128 0x1b
 16228 77bf 1A6F0000 		.4byte	0x6f1a
 16229 77c3 1B       		.uleb128 0x1b
 16230 77c4 E76C0000 		.4byte	0x6ce7
 16231 77c8 7A       		.uleb128 0x7a
 16232 77c9 182A0000 		.4byte	0x2a18
 16233 77cd 00000000 		.4byte	.LFB393
 16234 77d1 56000000 		.4byte	.LFE393-.LFB393
 16235 77d5 01       		.uleb128 0x1
 16236 77d6 9C       		.byte	0x9c
 16237 77d7 DF770000 		.4byte	0x77df
 16238 77db 08780000 		.4byte	0x7808
 16239 77df 76       		.uleb128 0x76
 16240 77e0 D23F0000 		.4byte	.LASF1199
 16241 77e4 266F0000 		.4byte	0x6f26
 16242 77e8 02       		.uleb128 0x2
 16243 77e9 91       		.byte	0x91
 16244 77ea 74       		.sleb128 -12
 16245 77eb 78       		.uleb128 0x78
 16246 77ec 6D736700 		.ascii	"msg\000"
 16247 77f0 0D       		.byte	0xd
 16248 77f1 52       		.byte	0x52
 16249 77f2 08780000 		.4byte	0x7808
 16250 77f6 02       		.uleb128 0x2
 16251 77f7 91       		.byte	0x91
 16252 77f8 70       		.sleb128 -16
 16253 77f9 79       		.uleb128 0x79
 16254 77fa 0A320000 		.4byte	.LASF1057
 16255 77fe 0D       		.byte	0xd
 16256 77ff 52       		.byte	0x52
 16257 7800 0D780000 		.4byte	0x780d
 16258 7804 02       		.uleb128 0x2
 16259 7805 91       		.byte	0x91
 16260 7806 6C       		.sleb128 -20
 16261 7807 00       		.byte	0
 16262 7808 1B       		.uleb128 0x1b
 16263 7809 686E0000 		.4byte	0x6e68
 16264 780d 1B       		.uleb128 0x1b
 16265 780e F36C0000 		.4byte	0x6cf3
ARM GAS  /tmp/ccytVDiP.s 			page 287


 16266 7812 75       		.uleb128 0x75
 16267 7813 95360000 		.4byte	0x3695
 16268 7817 FA       		.byte	0xfa
 16269 7818 00000000 		.4byte	.LFB412
 16270 781c 28000000 		.4byte	.LFE412-.LFB412
 16271 7820 01       		.uleb128 0x1
 16272 7821 9C       		.byte	0x9c
 16273 7822 2A780000 		.4byte	0x782a
 16274 7826 4E780000 		.4byte	0x784e
 16275 782a 76       		.uleb128 0x76
 16276 782b D23F0000 		.4byte	.LASF1199
 16277 782f 4C6E0000 		.4byte	0x6e4c
 16278 7833 02       		.uleb128 0x2
 16279 7834 91       		.byte	0x91
 16280 7835 74       		.sleb128 -12
 16281 7836 72       		.uleb128 0x72
 16282 7837 06000000 		.4byte	.LBB32
 16283 783b 1C000000 		.4byte	.LBE32-.LBB32
 16284 783f 7B       		.uleb128 0x7b
 16285 7840 1C180000 		.4byte	.LASF1202
 16286 7844 0E       		.byte	0xe
 16287 7845 FC       		.byte	0xfc
 16288 7846 626E0000 		.4byte	0x6e62
 16289 784a 01       		.uleb128 0x1
 16290 784b 54       		.byte	0x54
 16291 784c 00       		.byte	0
 16292 784d 00       		.byte	0
 16293 784e 7C       		.uleb128 0x7c
 16294 784f 42570000 		.4byte	0x5742
 16295 7853 0F       		.byte	0xf
 16296 7854 09       		.byte	0x9
 16297 7855 02       		.byte	0x2
 16298 7856 5E780000 		.4byte	0x785e
 16299 785a 71780000 		.4byte	0x7871
 16300 785e 6E       		.uleb128 0x6e
 16301 785f D23F0000 		.4byte	.LASF1199
 16302 7863 71780000 		.4byte	0x7871
 16303 7867 6E       		.uleb128 0x6e
 16304 7868 106C0000 		.4byte	.LASF1200
 16305 786c 76780000 		.4byte	0x7876
 16306 7870 00       		.byte	0
 16307 7871 1B       		.uleb128 0x1b
 16308 7872 5E700000 		.4byte	0x705e
 16309 7876 1B       		.uleb128 0x1b
 16310 7877 94000000 		.4byte	0x94
 16311 787b 7D       		.uleb128 0x7d
 16312 787c 4E780000 		.4byte	0x784e
 16313 7880 27120000 		.4byte	.LASF1212
 16314 7884 00000000 		.4byte	.LFB538
 16315 7888 16000000 		.4byte	.LFE538-.LFB538
 16316 788c 01       		.uleb128 0x1
 16317 788d 9C       		.byte	0x9c
 16318 788e 96780000 		.4byte	0x7896
 16319 7892 9F780000 		.4byte	0x789f
 16320 7896 70       		.uleb128 0x70
 16321 7897 5E780000 		.4byte	0x785e
 16322 789b 02       		.uleb128 0x2
ARM GAS  /tmp/ccytVDiP.s 			page 288


 16323 789c 91       		.byte	0x91
 16324 789d 74       		.sleb128 -12
 16325 789e 00       		.byte	0
 16326 789f 7C       		.uleb128 0x7c
 16327 78a0 35580000 		.4byte	0x5835
 16328 78a4 10       		.byte	0x10
 16329 78a5 09       		.byte	0x9
 16330 78a6 02       		.byte	0x2
 16331 78a7 AF780000 		.4byte	0x78af
 16332 78ab C2780000 		.4byte	0x78c2
 16333 78af 6E       		.uleb128 0x6e
 16334 78b0 D23F0000 		.4byte	.LASF1199
 16335 78b4 C2780000 		.4byte	0x78c2
 16336 78b8 6E       		.uleb128 0x6e
 16337 78b9 106C0000 		.4byte	.LASF1200
 16338 78bd C7780000 		.4byte	0x78c7
 16339 78c1 00       		.byte	0
 16340 78c2 1B       		.uleb128 0x1b
 16341 78c3 6A700000 		.4byte	0x706a
 16342 78c7 1B       		.uleb128 0x1b
 16343 78c8 94000000 		.4byte	0x94
 16344 78cc 7D       		.uleb128 0x7d
 16345 78cd 9F780000 		.4byte	0x789f
 16346 78d1 F7260000 		.4byte	.LASF1213
 16347 78d5 00000000 		.4byte	.LFB552
 16348 78d9 20000000 		.4byte	.LFE552-.LFB552
 16349 78dd 01       		.uleb128 0x1
 16350 78de 9C       		.byte	0x9c
 16351 78df E7780000 		.4byte	0x78e7
 16352 78e3 F0780000 		.4byte	0x78f0
 16353 78e7 70       		.uleb128 0x70
 16354 78e8 AF780000 		.4byte	0x78af
 16355 78ec 02       		.uleb128 0x2
 16356 78ed 91       		.byte	0x91
 16357 78ee 74       		.sleb128 -12
 16358 78ef 00       		.byte	0
 16359 78f0 7E       		.uleb128 0x7e
 16360 78f1 FE660000 		.4byte	0x66fe
 16361 78f5 EA       		.byte	0xea
 16362 78f6 00000000 		.4byte	.LFB677
 16363 78fa 1C000000 		.4byte	.LFE677-.LFB677
 16364 78fe 01       		.uleb128 0x1
 16365 78ff 9C       		.byte	0x9c
 16366 7900 7F       		.uleb128 0x7f
 16367 7901 7E2A0000 		.4byte	.LASF1214
 16368 7905 12       		.byte	0x12
 16369 7906 39       		.byte	0x39
 16370 7907 A7720000 		.4byte	.LASF1215
 16371 790b 00000000 		.4byte	.LFB679
 16372 790f 32000000 		.4byte	.LFE679-.LFB679
 16373 7913 01       		.uleb128 0x1
 16374 7914 9C       		.byte	0x9c
 16375 7915 28790000 		.4byte	0x7928
 16376 7919 79       		.uleb128 0x79
 16377 791a C56A0000 		.4byte	.LASF385
 16378 791e 12       		.byte	0x12
 16379 791f 39       		.byte	0x39
ARM GAS  /tmp/ccytVDiP.s 			page 289


 16380 7920 D2180000 		.4byte	0x18d2
 16381 7924 02       		.uleb128 0x2
 16382 7925 91       		.byte	0x91
 16383 7926 74       		.sleb128 -12
 16384 7927 00       		.byte	0
 16385 7928 7F       		.uleb128 0x7f
 16386 7929 7B100000 		.4byte	.LASF1216
 16387 792d 12       		.byte	0x12
 16388 792e 41       		.byte	0x41
 16389 792f 970C0000 		.4byte	.LASF1217
 16390 7933 34000000 		.4byte	.LFB680
 16391 7937 36000000 		.4byte	.LFE680-.LFB680
 16392 793b 01       		.uleb128 0x1
 16393 793c 9C       		.byte	0x9c
 16394 793d 50790000 		.4byte	0x7950
 16395 7941 79       		.uleb128 0x79
 16396 7942 C56A0000 		.4byte	.LASF385
 16397 7946 12       		.byte	0x12
 16398 7947 41       		.byte	0x41
 16399 7948 D2180000 		.4byte	0x18d2
 16400 794c 02       		.uleb128 0x2
 16401 794d 91       		.byte	0x91
 16402 794e 74       		.sleb128 -12
 16403 794f 00       		.byte	0
 16404 7950 8001     		.uleb128 0x80
 16405 7952 9F410000 		.4byte	.LASF1218
 16406 7956 12       		.byte	0x12
 16407 7957 4D       		.byte	0x4d
 16408 7958 3E190000 		.4byte	.LASF1269
 16409 795c A30C0000 		.4byte	0xca3
 16410 7960 6C000000 		.4byte	.LFB681
 16411 7964 E0000000 		.4byte	.LFE681-.LFB681
 16412 7968 01       		.uleb128 0x1
 16413 7969 9C       		.byte	0x9c
 16414 796a C1790000 		.4byte	0x79c1
 16415 796e 78       		.uleb128 0x78
 16416 796f 61726700 		.ascii	"arg\000"
 16417 7973 12       		.byte	0x12
 16418 7974 4D       		.byte	0x4d
 16419 7975 B8000000 		.4byte	0xb8
 16420 7979 03       		.uleb128 0x3
 16421 797a 91       		.byte	0x91
 16422 797b B47F     		.sleb128 -76
 16423 797d 72       		.uleb128 0x72
 16424 797e 72000000 		.4byte	.LBB35
 16425 7982 BC000000 		.4byte	.LBE35-.LBB35
 16426 7986 7B       		.uleb128 0x7b
 16427 7987 55540000 		.4byte	.LASF839
 16428 798b 12       		.byte	0x12
 16429 798c 4E       		.byte	0x4e
 16430 798d 77500000 		.4byte	0x5077
 16431 7991 02       		.uleb128 0x2
 16432 7992 91       		.byte	0x91
 16433 7993 50       		.sleb128 -48
 16434 7994 73       		.uleb128 0x73
 16435 7995 70756200 		.ascii	"pub\000"
 16436 7999 12       		.byte	0x12
ARM GAS  /tmp/ccytVDiP.s 			page 290


 16437 799a 4F       		.byte	0x4f
 16438 799b 74690000 		.4byte	0x6974
 16439 799f 02       		.uleb128 0x2
 16440 79a0 91       		.byte	0x91
 16441 79a1 40       		.sleb128 -64
 16442 79a2 7B       		.uleb128 0x7b
 16443 79a3 1C180000 		.4byte	.LASF1202
 16444 79a7 12       		.byte	0x12
 16445 79a8 50       		.byte	0x50
 16446 79a9 BF710000 		.4byte	0x71bf
 16447 79ad 03       		.uleb128 0x3
 16448 79ae 91       		.byte	0x91
 16449 79af BC7F     		.sleb128 -68
 16450 79b1 7B       		.uleb128 0x7b
 16451 79b2 9F3D0000 		.4byte	.LASF1219
 16452 79b6 12       		.byte	0x12
 16453 79b7 51       		.byte	0x51
 16454 79b8 C1790000 		.4byte	0x79c1
 16455 79bc 02       		.uleb128 0x2
 16456 79bd 91       		.byte	0x91
 16457 79be 6C       		.sleb128 -20
 16458 79bf 00       		.byte	0
 16459 79c0 00       		.byte	0
 16460 79c1 0F       		.uleb128 0xf
 16461 79c2 04       		.byte	0x4
 16462 79c3 2E0C0000 		.4byte	0xc2e
 16463 79c7 8101     		.uleb128 0x81
 16464 79c9 17760000 		.4byte	.LASF1220
 16465 79cd 12       		.byte	0x12
 16466 79ce 66       		.byte	0x66
 16467 79cf 94000000 		.4byte	0x94
 16468 79d3 4C010000 		.4byte	.LFB682
 16469 79d7 74010000 		.4byte	.LFE682-.LFB682
 16470 79db 01       		.uleb128 0x1
 16471 79dc 9C       		.byte	0x9c
 16472 79dd 207A0000 		.4byte	0x7a20
 16473 79e1 72       		.uleb128 0x72
 16474 79e2 50010000 		.4byte	.LBB36
 16475 79e6 70010000 		.4byte	.LBE36-.LBB36
 16476 79ea 7B       		.uleb128 0x7b
 16477 79eb 445F0000 		.4byte	.LASF1076
 16478 79ef 12       		.byte	0x12
 16479 79f0 6F       		.byte	0x6f
 16480 79f1 B8000000 		.4byte	0xb8
 16481 79f5 02       		.uleb128 0x2
 16482 79f6 91       		.byte	0x91
 16483 79f7 74       		.sleb128 -12
 16484 79f8 7B       		.uleb128 0x7b
 16485 79f9 EF6B0000 		.4byte	.LASF1167
 16486 79fd 12       		.byte	0x12
 16487 79fe 92       		.byte	0x92
 16488 79ff 3A690000 		.4byte	0x693a
 16489 7a03 02       		.uleb128 0x2
 16490 7a04 91       		.byte	0x91
 16491 7a05 64       		.sleb128 -28
 16492 7a06 72       		.uleb128 0x72
 16493 7a07 7E010000 		.4byte	.LBB38
ARM GAS  /tmp/ccytVDiP.s 			page 291


 16494 7a0b 2C000000 		.4byte	.LBE38-.LBB38
 16495 7a0f 7B       		.uleb128 0x7b
 16496 7a10 3B400000 		.4byte	.LASF1221
 16497 7a14 12       		.byte	0x12
 16498 7a15 71       		.byte	0x71
 16499 7a16 2B120000 		.4byte	0x122b
 16500 7a1a 02       		.uleb128 0x2
 16501 7a1b 91       		.byte	0x91
 16502 7a1c 70       		.sleb128 -16
 16503 7a1d 00       		.byte	0
 16504 7a1e 00       		.byte	0
 16505 7a1f 00       		.byte	0
 16506 7a20 6D       		.uleb128 0x6d
 16507 7a21 2D230000 		.4byte	0x232d
 16508 7a25 02       		.byte	0x2
 16509 7a26 357A0000 		.4byte	0x7a35
 16510 7a2a 4B7A0000 		.4byte	0x7a4b
 16511 7a2e 3E       		.uleb128 0x3e
 16512 7a2f 5400     		.ascii	"T\000"
 16513 7a31 62000000 		.4byte	0x62
 16514 7a35 6E       		.uleb128 0x6e
 16515 7a36 D23F0000 		.4byte	.LASF1199
 16516 7a3a 18740000 		.4byte	0x7418
 16517 7a3e 8201     		.uleb128 0x82
 16518 7a40 3B2B0000 		.4byte	.LASF1222
 16519 7a44 05       		.byte	0x5
 16520 7a45 9F       		.byte	0x9f
 16521 7a46 62000000 		.4byte	0x62
 16522 7a4a 00       		.byte	0
 16523 7a4b 6F       		.uleb128 0x6f
 16524 7a4c 207A0000 		.4byte	0x7a20
 16525 7a50 4D090000 		.4byte	.LASF1223
 16526 7a54 00000000 		.4byte	.LFB684
 16527 7a58 14000000 		.4byte	.LFE684-.LFB684
 16528 7a5c 01       		.uleb128 0x1
 16529 7a5d 9C       		.byte	0x9c
 16530 7a5e 6D7A0000 		.4byte	0x7a6d
 16531 7a62 7E7A0000 		.4byte	0x7a7e
 16532 7a66 3E       		.uleb128 0x3e
 16533 7a67 5400     		.ascii	"T\000"
 16534 7a69 62000000 		.4byte	0x62
 16535 7a6d 70       		.uleb128 0x70
 16536 7a6e 357A0000 		.4byte	0x7a35
 16537 7a72 02       		.uleb128 0x2
 16538 7a73 91       		.byte	0x91
 16539 7a74 7C       		.sleb128 -4
 16540 7a75 70       		.uleb128 0x70
 16541 7a76 3E7A0000 		.4byte	0x7a3e
 16542 7a7a 02       		.uleb128 0x2
 16543 7a7b 91       		.byte	0x91
 16544 7a7c 78       		.sleb128 -8
 16545 7a7d 00       		.byte	0
 16546 7a7e 8301     		.uleb128 0x83
 16547 7a80 B7420000 		.4byte	0x42b7
 16548 7a84 00000000 		.4byte	.LFB692
 16549 7a88 0E000000 		.4byte	.LFE692-.LFB692
 16550 7a8c 01       		.uleb128 0x1
ARM GAS  /tmp/ccytVDiP.s 			page 292


 16551 7a8d 9C       		.byte	0x9c
 16552 7a8e 967A0000 		.4byte	0x7a96
 16553 7a92 A37A0000 		.4byte	0x7aa3
 16554 7a96 76       		.uleb128 0x76
 16555 7a97 D23F0000 		.4byte	.LASF1199
 16556 7a9b A37A0000 		.4byte	0x7aa3
 16557 7a9f 02       		.uleb128 0x2
 16558 7aa0 91       		.byte	0x91
 16559 7aa1 7C       		.sleb128 -4
 16560 7aa2 00       		.byte	0
 16561 7aa3 1B       		.uleb128 0x1b
 16562 7aa4 206F0000 		.4byte	0x6f20
 16563 7aa8 8301     		.uleb128 0x83
 16564 7aaa 76420000 		.4byte	0x4276
 16565 7aae 00000000 		.4byte	.LFB693
 16566 7ab2 5E000000 		.4byte	.LFE693-.LFB693
 16567 7ab6 01       		.uleb128 0x1
 16568 7ab7 9C       		.byte	0x9c
 16569 7ab8 C07A0000 		.4byte	0x7ac0
 16570 7abc DB7A0000 		.4byte	0x7adb
 16571 7ac0 76       		.uleb128 0x76
 16572 7ac1 D23F0000 		.4byte	.LASF1199
 16573 7ac5 DB7A0000 		.4byte	0x7adb
 16574 7ac9 02       		.uleb128 0x2
 16575 7aca 91       		.byte	0x91
 16576 7acb 7C       		.sleb128 -4
 16577 7acc 79       		.uleb128 0x79
 16578 7acd 505F0000 		.4byte	.LASF1224
 16579 7ad1 13       		.byte	0x13
 16580 7ad2 34       		.byte	0x34
 16581 7ad3 E07A0000 		.4byte	0x7ae0
 16582 7ad7 02       		.uleb128 0x2
 16583 7ad8 91       		.byte	0x91
 16584 7ad9 78       		.sleb128 -8
 16585 7ada 00       		.byte	0
 16586 7adb 1B       		.uleb128 0x1b
 16587 7adc 146F0000 		.4byte	0x6f14
 16588 7ae0 1B       		.uleb128 0x1b
 16589 7ae1 1A6F0000 		.4byte	0x6f1a
 16590 7ae5 8301     		.uleb128 0x83
 16591 7ae7 53420000 		.4byte	0x4253
 16592 7aeb 00000000 		.4byte	.LFB694
 16593 7aef 60000000 		.4byte	.LFE694-.LFB694
 16594 7af3 01       		.uleb128 0x1
 16595 7af4 9C       		.byte	0x9c
 16596 7af5 FD7A0000 		.4byte	0x7afd
 16597 7af9 187B0000 		.4byte	0x7b18
 16598 7afd 76       		.uleb128 0x76
 16599 7afe D23F0000 		.4byte	.LASF1199
 16600 7b02 DB7A0000 		.4byte	0x7adb
 16601 7b06 02       		.uleb128 0x2
 16602 7b07 91       		.byte	0x91
 16603 7b08 7C       		.sleb128 -4
 16604 7b09 79       		.uleb128 0x79
 16605 7b0a 505F0000 		.4byte	.LASF1224
 16606 7b0e 13       		.byte	0x13
 16607 7b0f 25       		.byte	0x25
ARM GAS  /tmp/ccytVDiP.s 			page 293


 16608 7b10 626E0000 		.4byte	0x6e62
 16609 7b14 02       		.uleb128 0x2
 16610 7b15 91       		.byte	0x91
 16611 7b16 78       		.sleb128 -8
 16612 7b17 00       		.byte	0
 16613 7b18 6D       		.uleb128 0x6d
 16614 7b19 116A0000 		.4byte	0x6a11
 16615 7b1d 02       		.byte	0x2
 16616 7b1e 267B0000 		.4byte	0x7b26
 16617 7b22 307B0000 		.4byte	0x7b30
 16618 7b26 6E       		.uleb128 0x6e
 16619 7b27 D23F0000 		.4byte	.LASF1199
 16620 7b2b 307B0000 		.4byte	0x7b30
 16621 7b2f 00       		.byte	0
 16622 7b30 1B       		.uleb128 0x1b
 16623 7b31 AD710000 		.4byte	0x71ad
 16624 7b35 7D       		.uleb128 0x7d
 16625 7b36 187B0000 		.4byte	0x7b18
 16626 7b3a 4E120000 		.4byte	.LASF1225
 16627 7b3e 00000000 		.4byte	.LFB706
 16628 7b42 24000000 		.4byte	.LFE706-.LFB706
 16629 7b46 01       		.uleb128 0x1
 16630 7b47 9C       		.byte	0x9c
 16631 7b48 507B0000 		.4byte	0x7b50
 16632 7b4c 597B0000 		.4byte	0x7b59
 16633 7b50 70       		.uleb128 0x70
 16634 7b51 267B0000 		.4byte	0x7b26
 16635 7b55 02       		.uleb128 0x2
 16636 7b56 91       		.byte	0x91
 16637 7b57 74       		.sleb128 -12
 16638 7b58 00       		.byte	0
 16639 7b59 6D       		.uleb128 0x6d
 16640 7b5a 2B6A0000 		.4byte	0x6a2b
 16641 7b5e 02       		.byte	0x2
 16642 7b5f 677B0000 		.4byte	0x7b67
 16643 7b63 7A7B0000 		.4byte	0x7b7a
 16644 7b67 6E       		.uleb128 0x6e
 16645 7b68 D23F0000 		.4byte	.LASF1199
 16646 7b6c 307B0000 		.4byte	0x7b30
 16647 7b70 6E       		.uleb128 0x6e
 16648 7b71 106C0000 		.4byte	.LASF1200
 16649 7b75 7A7B0000 		.4byte	0x7b7a
 16650 7b79 00       		.byte	0
 16651 7b7a 1B       		.uleb128 0x1b
 16652 7b7b 94000000 		.4byte	0x94
 16653 7b7f 7D       		.uleb128 0x7d
 16654 7b80 597B0000 		.4byte	0x7b59
 16655 7b84 F0290000 		.4byte	.LASF1226
 16656 7b88 00000000 		.4byte	.LFB709
 16657 7b8c 30000000 		.4byte	.LFE709-.LFB709
 16658 7b90 01       		.uleb128 0x1
 16659 7b91 9C       		.byte	0x9c
 16660 7b92 9A7B0000 		.4byte	0x7b9a
 16661 7b96 A37B0000 		.4byte	0x7ba3
 16662 7b9a 70       		.uleb128 0x70
 16663 7b9b 677B0000 		.4byte	0x7b67
 16664 7b9f 02       		.uleb128 0x2
ARM GAS  /tmp/ccytVDiP.s 			page 294


 16665 7ba0 91       		.byte	0x91
 16666 7ba1 74       		.sleb128 -12
 16667 7ba2 00       		.byte	0
 16668 7ba3 7D       		.uleb128 0x7d
 16669 7ba4 597B0000 		.4byte	0x7b59
 16670 7ba8 17330000 		.4byte	.LASF1227
 16671 7bac 00000000 		.4byte	.LFB711
 16672 7bb0 1C000000 		.4byte	.LFE711-.LFB711
 16673 7bb4 01       		.uleb128 0x1
 16674 7bb5 9C       		.byte	0x9c
 16675 7bb6 BE7B0000 		.4byte	0x7bbe
 16676 7bba C77B0000 		.4byte	0x7bc7
 16677 7bbe 70       		.uleb128 0x70
 16678 7bbf 677B0000 		.4byte	0x7b67
 16679 7bc3 02       		.uleb128 0x2
 16680 7bc4 91       		.byte	0x91
 16681 7bc5 74       		.sleb128 -12
 16682 7bc6 00       		.byte	0
 16683 7bc7 66       		.uleb128 0x66
 16684 7bc8 04       		.byte	0x4
 16685 7bc9 74690000 		.4byte	0x6974
 16686 7bcd 7A       		.uleb128 0x7a
 16687 7bce C1520000 		.4byte	0x52c1
 16688 7bd2 00000000 		.4byte	.LFB712
 16689 7bd6 28000000 		.4byte	.LFE712-.LFB712
 16690 7bda 01       		.uleb128 0x1
 16691 7bdb 9C       		.byte	0x9c
 16692 7bdc EC7B0000 		.4byte	0x7bec
 16693 7be0 237C0000 		.4byte	0x7c23
 16694 7be4 3E       		.uleb128 0x3e
 16695 7be5 4D5400   		.ascii	"MT\000"
 16696 7be8 53690000 		.4byte	0x6953
 16697 7bec 76       		.uleb128 0x76
 16698 7bed D23F0000 		.4byte	.LASF1199
 16699 7bf1 24700000 		.4byte	0x7024
 16700 7bf5 02       		.uleb128 0x2
 16701 7bf6 91       		.byte	0x91
 16702 7bf7 74       		.sleb128 -12
 16703 7bf8 78       		.uleb128 0x78
 16704 7bf9 70756200 		.ascii	"pub\000"
 16705 7bfd 0C       		.byte	0xc
 16706 7bfe 75       		.byte	0x75
 16707 7bff 237C0000 		.4byte	0x7c23
 16708 7c03 02       		.uleb128 0x2
 16709 7c04 91       		.byte	0x91
 16710 7c05 70       		.sleb128 -16
 16711 7c06 79       		.uleb128 0x79
 16712 7c07 DE250000 		.4byte	.LASF612
 16713 7c0b 0C       		.byte	0xc
 16714 7c0c 75       		.byte	0x75
 16715 7c0d 13070000 		.4byte	0x713
 16716 7c11 02       		.uleb128 0x2
 16717 7c12 91       		.byte	0x91
 16718 7c13 6C       		.sleb128 -20
 16719 7c14 79       		.uleb128 0x79
 16720 7c15 87770000 		.4byte	.LASF613
 16721 7c19 0C       		.byte	0xc
ARM GAS  /tmp/ccytVDiP.s 			page 295


 16722 7c1a 76       		.byte	0x76
 16723 7c1b 287C0000 		.4byte	0x7c28
 16724 7c1f 02       		.uleb128 0x2
 16725 7c20 91       		.byte	0x91
 16726 7c21 68       		.sleb128 -24
 16727 7c22 00       		.byte	0
 16728 7c23 1B       		.uleb128 0x1b
 16729 7c24 C77B0000 		.4byte	0x7bc7
 16730 7c28 1B       		.uleb128 0x1b
 16731 7c29 F36C0000 		.4byte	0x6cf3
 16732 7c2d 7A       		.uleb128 0x7a
 16733 7c2e A8690000 		.4byte	0x69a8
 16734 7c32 00000000 		.4byte	.LFB713
 16735 7c36 1C000000 		.4byte	.LFE713-.LFB713
 16736 7c3a 01       		.uleb128 0x1
 16737 7c3b 9C       		.byte	0x9c
 16738 7c3c 447C0000 		.4byte	0x7c44
 16739 7c40 5F7C0000 		.4byte	0x7c5f
 16740 7c44 76       		.uleb128 0x76
 16741 7c45 D23F0000 		.4byte	.LASF1199
 16742 7c49 307B0000 		.4byte	0x7b30
 16743 7c4d 02       		.uleb128 0x2
 16744 7c4e 91       		.byte	0x91
 16745 7c4f 74       		.sleb128 -12
 16746 7c50 79       		.uleb128 0x79
 16747 7c51 1C180000 		.4byte	.LASF1202
 16748 7c55 14       		.byte	0x14
 16749 7c56 19       		.byte	0x19
 16750 7c57 5F7C0000 		.4byte	0x7c5f
 16751 7c5b 02       		.uleb128 0x2
 16752 7c5c 91       		.byte	0x91
 16753 7c5d 70       		.sleb128 -16
 16754 7c5e 00       		.byte	0
 16755 7c5f 1B       		.uleb128 0x1b
 16756 7c60 B9710000 		.4byte	0x71b9
 16757 7c64 7A       		.uleb128 0x7a
 16758 7c65 EE690000 		.4byte	0x69ee
 16759 7c69 00000000 		.4byte	.LFB714
 16760 7c6d 1E000000 		.4byte	.LFE714-.LFB714
 16761 7c71 01       		.uleb128 0x1
 16762 7c72 9C       		.byte	0x9c
 16763 7c73 7B7C0000 		.4byte	0x7c7b
 16764 7c77 967C0000 		.4byte	0x7c96
 16765 7c7b 76       		.uleb128 0x76
 16766 7c7c D23F0000 		.4byte	.LASF1199
 16767 7c80 307B0000 		.4byte	0x7b30
 16768 7c84 02       		.uleb128 0x2
 16769 7c85 91       		.byte	0x91
 16770 7c86 74       		.sleb128 -12
 16771 7c87 78       		.uleb128 0x78
 16772 7c88 6D736700 		.ascii	"msg\000"
 16773 7c8c 14       		.byte	0x14
 16774 7c8d 28       		.byte	0x28
 16775 7c8e BF710000 		.4byte	0x71bf
 16776 7c92 02       		.uleb128 0x2
 16777 7c93 91       		.byte	0x91
 16778 7c94 70       		.sleb128 -16
ARM GAS  /tmp/ccytVDiP.s 			page 296


 16779 7c95 00       		.byte	0
 16780 7c96 7C       		.uleb128 0x7c
 16781 7c97 4B500000 		.4byte	0x504b
 16782 7c9b 15       		.byte	0x15
 16783 7c9c 0F       		.byte	0xf
 16784 7c9d 02       		.byte	0x2
 16785 7c9e A67C0000 		.4byte	0x7ca6
 16786 7ca2 B97C0000 		.4byte	0x7cb9
 16787 7ca6 6E       		.uleb128 0x6e
 16788 7ca7 D23F0000 		.4byte	.LASF1199
 16789 7cab B97C0000 		.4byte	0x7cb9
 16790 7caf 6E       		.uleb128 0x6e
 16791 7cb0 106C0000 		.4byte	.LASF1200
 16792 7cb4 BE7C0000 		.4byte	0x7cbe
 16793 7cb8 00       		.byte	0
 16794 7cb9 1B       		.uleb128 0x1b
 16795 7cba FA6F0000 		.4byte	0x6ffa
 16796 7cbe 1B       		.uleb128 0x1b
 16797 7cbf 94000000 		.4byte	0x94
 16798 7cc3 7D       		.uleb128 0x7d
 16799 7cc4 967C0000 		.4byte	0x7c96
 16800 7cc8 991D0000 		.4byte	.LASF1228
 16801 7ccc 00000000 		.4byte	.LFB719
 16802 7cd0 16000000 		.4byte	.LFE719-.LFB719
 16803 7cd4 01       		.uleb128 0x1
 16804 7cd5 9C       		.byte	0x9c
 16805 7cd6 DE7C0000 		.4byte	0x7cde
 16806 7cda E77C0000 		.4byte	0x7ce7
 16807 7cde 70       		.uleb128 0x70
 16808 7cdf A67C0000 		.4byte	0x7ca6
 16809 7ce3 02       		.uleb128 0x2
 16810 7ce4 91       		.byte	0x91
 16811 7ce5 74       		.sleb128 -12
 16812 7ce6 00       		.byte	0
 16813 7ce7 7C       		.uleb128 0x7c
 16814 7ce8 06340000 		.4byte	0x3406
 16815 7cec 15       		.byte	0x15
 16816 7ced 0F       		.byte	0xf
 16817 7cee 02       		.byte	0x2
 16818 7cef F77C0000 		.4byte	0x7cf7
 16819 7cf3 0A7D0000 		.4byte	0x7d0a
 16820 7cf7 6E       		.uleb128 0x6e
 16821 7cf8 D23F0000 		.4byte	.LASF1199
 16822 7cfc 0A7D0000 		.4byte	0x7d0a
 16823 7d00 6E       		.uleb128 0x6e
 16824 7d01 106C0000 		.4byte	.LASF1200
 16825 7d05 0F7D0000 		.4byte	0x7d0f
 16826 7d09 00       		.byte	0
 16827 7d0a 1B       		.uleb128 0x1b
 16828 7d0b 226E0000 		.4byte	0x6e22
 16829 7d0f 1B       		.uleb128 0x1b
 16830 7d10 94000000 		.4byte	0x94
 16831 7d14 7D       		.uleb128 0x7d
 16832 7d15 E77C0000 		.4byte	0x7ce7
 16833 7d19 B6110000 		.4byte	.LASF1229
 16834 7d1d 00000000 		.4byte	.LFB722
 16835 7d21 16000000 		.4byte	.LFE722-.LFB722
ARM GAS  /tmp/ccytVDiP.s 			page 297


 16836 7d25 01       		.uleb128 0x1
 16837 7d26 9C       		.byte	0x9c
 16838 7d27 2F7D0000 		.4byte	0x7d2f
 16839 7d2b 387D0000 		.4byte	0x7d38
 16840 7d2f 70       		.uleb128 0x70
 16841 7d30 F77C0000 		.4byte	0x7cf7
 16842 7d34 02       		.uleb128 0x2
 16843 7d35 91       		.byte	0x91
 16844 7d36 74       		.sleb128 -12
 16845 7d37 00       		.byte	0
 16846 7d38 7C       		.uleb128 0x7c
 16847 7d39 115E0000 		.4byte	0x5e11
 16848 7d3d 15       		.byte	0x15
 16849 7d3e 0F       		.byte	0xf
 16850 7d3f 02       		.byte	0x2
 16851 7d40 487D0000 		.4byte	0x7d48
 16852 7d44 5B7D0000 		.4byte	0x7d5b
 16853 7d48 6E       		.uleb128 0x6e
 16854 7d49 D23F0000 		.4byte	.LASF1199
 16855 7d4d 5B7D0000 		.4byte	0x7d5b
 16856 7d51 6E       		.uleb128 0x6e
 16857 7d52 106C0000 		.4byte	.LASF1200
 16858 7d56 607D0000 		.4byte	0x7d60
 16859 7d5a 00       		.byte	0
 16860 7d5b 1B       		.uleb128 0x1b
 16861 7d5c BD700000 		.4byte	0x70bd
 16862 7d60 1B       		.uleb128 0x1b
 16863 7d61 94000000 		.4byte	0x94
 16864 7d65 7D       		.uleb128 0x7d
 16865 7d66 387D0000 		.4byte	0x7d38
 16866 7d6a 95170000 		.4byte	.LASF1230
 16867 7d6e 00000000 		.4byte	.LFB725
 16868 7d72 16000000 		.4byte	.LFE725-.LFB725
 16869 7d76 01       		.uleb128 0x1
 16870 7d77 9C       		.byte	0x9c
 16871 7d78 807D0000 		.4byte	0x7d80
 16872 7d7c 897D0000 		.4byte	0x7d89
 16873 7d80 70       		.uleb128 0x70
 16874 7d81 487D0000 		.4byte	0x7d48
 16875 7d85 02       		.uleb128 0x2
 16876 7d86 91       		.byte	0x91
 16877 7d87 74       		.sleb128 -12
 16878 7d88 00       		.byte	0
 16879 7d89 7C       		.uleb128 0x7c
 16880 7d8a 34590000 		.4byte	0x5934
 16881 7d8e 16       		.byte	0x16
 16882 7d8f 09       		.byte	0x9
 16883 7d90 02       		.byte	0x2
 16884 7d91 997D0000 		.4byte	0x7d99
 16885 7d95 AC7D0000 		.4byte	0x7dac
 16886 7d99 6E       		.uleb128 0x6e
 16887 7d9a D23F0000 		.4byte	.LASF1199
 16888 7d9e AC7D0000 		.4byte	0x7dac
 16889 7da2 6E       		.uleb128 0x6e
 16890 7da3 106C0000 		.4byte	.LASF1200
 16891 7da7 B17D0000 		.4byte	0x7db1
 16892 7dab 00       		.byte	0
ARM GAS  /tmp/ccytVDiP.s 			page 298


 16893 7dac 1B       		.uleb128 0x1b
 16894 7dad 70700000 		.4byte	0x7070
 16895 7db1 1B       		.uleb128 0x1b
 16896 7db2 94000000 		.4byte	0x94
 16897 7db6 7D       		.uleb128 0x7d
 16898 7db7 897D0000 		.4byte	0x7d89
 16899 7dbb 075F0000 		.4byte	.LASF1231
 16900 7dbf 00000000 		.4byte	.LFB728
 16901 7dc3 20000000 		.4byte	.LFE728-.LFB728
 16902 7dc7 01       		.uleb128 0x1
 16903 7dc8 9C       		.byte	0x9c
 16904 7dc9 D17D0000 		.4byte	0x7dd1
 16905 7dcd DA7D0000 		.4byte	0x7dda
 16906 7dd1 70       		.uleb128 0x70
 16907 7dd2 997D0000 		.4byte	0x7d99
 16908 7dd6 02       		.uleb128 0x2
 16909 7dd7 91       		.byte	0x91
 16910 7dd8 74       		.sleb128 -12
 16911 7dd9 00       		.byte	0
 16912 7dda 7C       		.uleb128 0x7c
 16913 7ddb 84200000 		.4byte	0x2084
 16914 7ddf 04       		.byte	0x4
 16915 7de0 09       		.byte	0x9
 16916 7de1 02       		.byte	0x2
 16917 7de2 EA7D0000 		.4byte	0x7dea
 16918 7de6 FD7D0000 		.4byte	0x7dfd
 16919 7dea 6E       		.uleb128 0x6e
 16920 7deb D23F0000 		.4byte	.LASF1199
 16921 7def B6730000 		.4byte	0x73b6
 16922 7df3 6E       		.uleb128 0x6e
 16923 7df4 106C0000 		.4byte	.LASF1200
 16924 7df8 FD7D0000 		.4byte	0x7dfd
 16925 7dfc 00       		.byte	0
 16926 7dfd 1B       		.uleb128 0x1b
 16927 7dfe 94000000 		.4byte	0x94
 16928 7e02 7D       		.uleb128 0x7d
 16929 7e03 DA7D0000 		.4byte	0x7dda
 16930 7e07 6F2C0000 		.4byte	.LASF1232
 16931 7e0b 00000000 		.4byte	.LFB732
 16932 7e0f 16000000 		.4byte	.LFE732-.LFB732
 16933 7e13 01       		.uleb128 0x1
 16934 7e14 9C       		.byte	0x9c
 16935 7e15 1D7E0000 		.4byte	0x7e1d
 16936 7e19 267E0000 		.4byte	0x7e26
 16937 7e1d 70       		.uleb128 0x70
 16938 7e1e EA7D0000 		.4byte	0x7dea
 16939 7e22 02       		.uleb128 0x2
 16940 7e23 91       		.byte	0x91
 16941 7e24 74       		.sleb128 -12
 16942 7e25 00       		.byte	0
 16943 7e26 7C       		.uleb128 0x7c
 16944 7e27 8D290000 		.4byte	0x298d
 16945 7e2b 15       		.byte	0x15
 16946 7e2c 0F       		.byte	0xf
 16947 7e2d 02       		.byte	0x2
 16948 7e2e 367E0000 		.4byte	0x7e36
 16949 7e32 497E0000 		.4byte	0x7e49
ARM GAS  /tmp/ccytVDiP.s 			page 299


 16950 7e36 6E       		.uleb128 0x6e
 16951 7e37 D23F0000 		.4byte	.LASF1199
 16952 7e3b 497E0000 		.4byte	0x7e49
 16953 7e3f 6E       		.uleb128 0x6e
 16954 7e40 106C0000 		.4byte	.LASF1200
 16955 7e44 4E7E0000 		.4byte	0x7e4e
 16956 7e48 00       		.byte	0
 16957 7e49 1B       		.uleb128 0x1b
 16958 7e4a 406D0000 		.4byte	0x6d40
 16959 7e4e 1B       		.uleb128 0x1b
 16960 7e4f 94000000 		.4byte	0x94
 16961 7e53 7D       		.uleb128 0x7d
 16962 7e54 267E0000 		.4byte	0x7e26
 16963 7e58 0C540000 		.4byte	.LASF1233
 16964 7e5c 00000000 		.4byte	.LFB735
 16965 7e60 16000000 		.4byte	.LFE735-.LFB735
 16966 7e64 01       		.uleb128 0x1
 16967 7e65 9C       		.byte	0x9c
 16968 7e66 6E7E0000 		.4byte	0x7e6e
 16969 7e6a 777E0000 		.4byte	0x7e77
 16970 7e6e 70       		.uleb128 0x70
 16971 7e6f 367E0000 		.4byte	0x7e36
 16972 7e73 02       		.uleb128 0x2
 16973 7e74 91       		.byte	0x91
 16974 7e75 74       		.sleb128 -12
 16975 7e76 00       		.byte	0
 16976 7e77 7C       		.uleb128 0x7c
 16977 7e78 0D2F0000 		.4byte	0x2f0d
 16978 7e7c 15       		.byte	0x15
 16979 7e7d 0F       		.byte	0xf
 16980 7e7e 02       		.byte	0x2
 16981 7e7f 877E0000 		.4byte	0x7e87
 16982 7e83 9A7E0000 		.4byte	0x7e9a
 16983 7e87 6E       		.uleb128 0x6e
 16984 7e88 D23F0000 		.4byte	.LASF1199
 16985 7e8c 9A7E0000 		.4byte	0x7e9a
 16986 7e90 6E       		.uleb128 0x6e
 16987 7e91 106C0000 		.4byte	.LASF1200
 16988 7e95 9F7E0000 		.4byte	0x7e9f
 16989 7e99 00       		.byte	0
 16990 7e9a 1B       		.uleb128 0x1b
 16991 7e9b B16D0000 		.4byte	0x6db1
 16992 7e9f 1B       		.uleb128 0x1b
 16993 7ea0 94000000 		.4byte	0x94
 16994 7ea4 7D       		.uleb128 0x7d
 16995 7ea5 777E0000 		.4byte	0x7e77
 16996 7ea9 5E580000 		.4byte	.LASF1234
 16997 7ead 00000000 		.4byte	.LFB738
 16998 7eb1 16000000 		.4byte	.LFE738-.LFB738
 16999 7eb5 01       		.uleb128 0x1
 17000 7eb6 9C       		.byte	0x9c
 17001 7eb7 BF7E0000 		.4byte	0x7ebf
 17002 7ebb C87E0000 		.4byte	0x7ec8
 17003 7ebf 70       		.uleb128 0x70
 17004 7ec0 877E0000 		.4byte	0x7e87
 17005 7ec4 02       		.uleb128 0x2
 17006 7ec5 91       		.byte	0x91
ARM GAS  /tmp/ccytVDiP.s 			page 300


 17007 7ec6 74       		.sleb128 -12
 17008 7ec7 00       		.byte	0
 17009 7ec8 7C       		.uleb128 0x7c
 17010 7ec9 A5390000 		.4byte	0x39a5
 17011 7ecd 0E       		.byte	0xe
 17012 7ece 17       		.byte	0x17
 17013 7ecf 02       		.byte	0x2
 17014 7ed0 D87E0000 		.4byte	0x7ed8
 17015 7ed4 EB7E0000 		.4byte	0x7eeb
 17016 7ed8 6E       		.uleb128 0x6e
 17017 7ed9 D23F0000 		.4byte	.LASF1199
 17018 7edd 4C6E0000 		.4byte	0x6e4c
 17019 7ee1 6E       		.uleb128 0x6e
 17020 7ee2 106C0000 		.4byte	.LASF1200
 17021 7ee6 EB7E0000 		.4byte	0x7eeb
 17022 7eea 00       		.byte	0
 17023 7eeb 1B       		.uleb128 0x1b
 17024 7eec 94000000 		.4byte	0x94
 17025 7ef0 7D       		.uleb128 0x7d
 17026 7ef1 C87E0000 		.4byte	0x7ec8
 17027 7ef5 15570000 		.4byte	.LASF1235
 17028 7ef9 00000000 		.4byte	.LFB740
 17029 7efd 34000000 		.4byte	.LFE740-.LFB740
 17030 7f01 01       		.uleb128 0x1
 17031 7f02 9C       		.byte	0x9c
 17032 7f03 0B7F0000 		.4byte	0x7f0b
 17033 7f07 147F0000 		.4byte	0x7f14
 17034 7f0b 70       		.uleb128 0x70
 17035 7f0c D87E0000 		.4byte	0x7ed8
 17036 7f10 02       		.uleb128 0x2
 17037 7f11 91       		.byte	0x91
 17038 7f12 74       		.sleb128 -12
 17039 7f13 00       		.byte	0
 17040 7f14 7C       		.uleb128 0x7c
 17041 7f15 0E670000 		.4byte	0x670e
 17042 7f19 11       		.byte	0x11
 17043 7f1a 22       		.byte	0x22
 17044 7f1b 02       		.byte	0x2
 17045 7f1c 247F0000 		.4byte	0x7f24
 17046 7f20 377F0000 		.4byte	0x7f37
 17047 7f24 6E       		.uleb128 0x6e
 17048 7f25 D23F0000 		.4byte	.LASF1199
 17049 7f29 377F0000 		.4byte	0x7f37
 17050 7f2d 6E       		.uleb128 0x6e
 17051 7f2e 106C0000 		.4byte	.LASF1200
 17052 7f32 3C7F0000 		.4byte	0x7f3c
 17053 7f36 00       		.byte	0
 17054 7f37 1B       		.uleb128 0x1b
 17055 7f38 8A710000 		.4byte	0x718a
 17056 7f3c 1B       		.uleb128 0x1b
 17057 7f3d 94000000 		.4byte	0x94
 17058 7f41 7D       		.uleb128 0x7d
 17059 7f42 147F0000 		.4byte	0x7f14
 17060 7f46 A2600000 		.4byte	.LASF1236
 17061 7f4a 00000000 		.4byte	.LFB742
 17062 7f4e 72000000 		.4byte	.LFE742-.LFB742
 17063 7f52 01       		.uleb128 0x1
ARM GAS  /tmp/ccytVDiP.s 			page 301


 17064 7f53 9C       		.byte	0x9c
 17065 7f54 5C7F0000 		.4byte	0x7f5c
 17066 7f58 657F0000 		.4byte	0x7f65
 17067 7f5c 70       		.uleb128 0x70
 17068 7f5d 247F0000 		.4byte	0x7f24
 17069 7f61 02       		.uleb128 0x2
 17070 7f62 91       		.byte	0x91
 17071 7f63 74       		.sleb128 -12
 17072 7f64 00       		.byte	0
 17073 7f65 8401     		.uleb128 0x84
 17074 7f67 91510000 		.4byte	.LASF1270
 17075 7f6b C0020000 		.4byte	.LFB716
 17076 7f6f 78000000 		.4byte	.LFE716-.LFB716
 17077 7f73 01       		.uleb128 0x1
 17078 7f74 9C       		.byte	0x9c
 17079 7f75 967F0000 		.4byte	0x7f96
 17080 7f79 79       		.uleb128 0x79
 17081 7f7a 6A160000 		.4byte	.LASF1237
 17082 7f7e 12       		.byte	0x12
 17083 7f7f A1       		.byte	0xa1
 17084 7f80 94000000 		.4byte	0x94
 17085 7f84 02       		.uleb128 0x2
 17086 7f85 91       		.byte	0x91
 17087 7f86 74       		.sleb128 -12
 17088 7f87 79       		.uleb128 0x79
 17089 7f88 41200000 		.4byte	.LASF1238
 17090 7f8c 12       		.byte	0x12
 17091 7f8d A1       		.byte	0xa1
 17092 7f8e 94000000 		.4byte	0x94
 17093 7f92 02       		.uleb128 0x2
 17094 7f93 91       		.byte	0x91
 17095 7f94 70       		.sleb128 -16
 17096 7f95 00       		.byte	0
 17097 7f96 6D       		.uleb128 0x6d
 17098 7f97 DF670000 		.4byte	0x67df
 17099 7f9b 02       		.byte	0x2
 17100 7f9c A47F0000 		.4byte	0x7fa4
 17101 7fa0 B77F0000 		.4byte	0x7fb7
 17102 7fa4 6E       		.uleb128 0x6e
 17103 7fa5 D23F0000 		.4byte	.LASF1199
 17104 7fa9 B77F0000 		.4byte	0x7fb7
 17105 7fad 6E       		.uleb128 0x6e
 17106 7fae 106C0000 		.4byte	.LASF1200
 17107 7fb2 BC7F0000 		.4byte	0x7fbc
 17108 7fb6 00       		.byte	0
 17109 7fb7 1B       		.uleb128 0x1b
 17110 7fb8 31720000 		.4byte	0x7231
 17111 7fbc 1B       		.uleb128 0x1b
 17112 7fbd 94000000 		.4byte	0x94
 17113 7fc1 7D       		.uleb128 0x7d
 17114 7fc2 967F0000 		.4byte	0x7f96
 17115 7fc6 2F080000 		.4byte	.LASF1239
 17116 7fca 00000000 		.4byte	.LFB745
 17117 7fce 30000000 		.4byte	.LFE745-.LFB745
 17118 7fd2 01       		.uleb128 0x1
 17119 7fd3 9C       		.byte	0x9c
 17120 7fd4 DC7F0000 		.4byte	0x7fdc
ARM GAS  /tmp/ccytVDiP.s 			page 302


 17121 7fd8 E57F0000 		.4byte	0x7fe5
 17122 7fdc 70       		.uleb128 0x70
 17123 7fdd A47F0000 		.4byte	0x7fa4
 17124 7fe1 02       		.uleb128 0x2
 17125 7fe2 91       		.byte	0x91
 17126 7fe3 74       		.sleb128 -12
 17127 7fe4 00       		.byte	0
 17128 7fe5 7D       		.uleb128 0x7d
 17129 7fe6 967F0000 		.4byte	0x7f96
 17130 7fea B5550000 		.4byte	.LASF1240
 17131 7fee 00000000 		.4byte	.LFB747
 17132 7ff2 1C000000 		.4byte	.LFE747-.LFB747
 17133 7ff6 01       		.uleb128 0x1
 17134 7ff7 9C       		.byte	0x9c
 17135 7ff8 00800000 		.4byte	0x8000
 17136 7ffc 09800000 		.4byte	0x8009
 17137 8000 70       		.uleb128 0x70
 17138 8001 A47F0000 		.4byte	0x7fa4
 17139 8005 02       		.uleb128 0x2
 17140 8006 91       		.byte	0x91
 17141 8007 74       		.sleb128 -12
 17142 8008 00       		.byte	0
 17143 8009 6D       		.uleb128 0x6d
 17144 800a 02690000 		.4byte	0x6902
 17145 800e 02       		.byte	0x2
 17146 800f 17800000 		.4byte	0x8017
 17147 8013 2A800000 		.4byte	0x802a
 17148 8017 6E       		.uleb128 0x6e
 17149 8018 D23F0000 		.4byte	.LASF1199
 17150 801c 2A800000 		.4byte	0x802a
 17151 8020 6E       		.uleb128 0x6e
 17152 8021 106C0000 		.4byte	.LASF1200
 17153 8025 2F800000 		.4byte	0x802f
 17154 8029 00       		.byte	0
 17155 802a 1B       		.uleb128 0x1b
 17156 802b 0D720000 		.4byte	0x720d
 17157 802f 1B       		.uleb128 0x1b
 17158 8030 94000000 		.4byte	0x94
 17159 8034 7D       		.uleb128 0x7d
 17160 8035 09800000 		.4byte	0x8009
 17161 8039 230C0000 		.4byte	.LASF1241
 17162 803d 00000000 		.4byte	.LFB749
 17163 8041 30000000 		.4byte	.LFE749-.LFB749
 17164 8045 01       		.uleb128 0x1
 17165 8046 9C       		.byte	0x9c
 17166 8047 4F800000 		.4byte	0x804f
 17167 804b 58800000 		.4byte	0x8058
 17168 804f 70       		.uleb128 0x70
 17169 8050 17800000 		.4byte	0x8017
 17170 8054 02       		.uleb128 0x2
 17171 8055 91       		.byte	0x91
 17172 8056 74       		.sleb128 -12
 17173 8057 00       		.byte	0
 17174 8058 7D       		.uleb128 0x7d
 17175 8059 09800000 		.4byte	0x8009
 17176 805d 266F0000 		.4byte	.LASF1242
 17177 8061 00000000 		.4byte	.LFB751
ARM GAS  /tmp/ccytVDiP.s 			page 303


 17178 8065 1C000000 		.4byte	.LFE751-.LFB751
 17179 8069 01       		.uleb128 0x1
 17180 806a 9C       		.byte	0x9c
 17181 806b 73800000 		.4byte	0x8073
 17182 806f 7C800000 		.4byte	0x807c
 17183 8073 70       		.uleb128 0x70
 17184 8074 17800000 		.4byte	0x8017
 17185 8078 02       		.uleb128 0x2
 17186 8079 91       		.byte	0x91
 17187 807a 74       		.sleb128 -12
 17188 807b 00       		.byte	0
 17189 807c 8501     		.uleb128 0x85
 17190 807e B7300000 		.4byte	.LASF1271
 17191 8082 38030000 		.4byte	.LFB753
 17192 8086 0E000000 		.4byte	.LFE753-.LFB753
 17193 808a 01       		.uleb128 0x1
 17194 808b 9C       		.byte	0x9c
 17195 808c 8601     		.uleb128 0x86
 17196 808e 10150000 		.4byte	.LASF1243
 17197 8092 25       		.byte	0x25
 17198 8093 6F       		.byte	0x6f
 17199 8094 780F0000 		.4byte	0xf78
 17200 8098 8701     		.uleb128 0x87
 17201 809a 1D650000 		.4byte	.LASF1244
 17202 809e 3F       		.byte	0x3f
 17203 809f 9806     		.2byte	0x698
 17204 80a1 AF120000 		.4byte	0x12af
 17205 80a5 8801     		.uleb128 0x88
 17206 80a7 53443300 		.ascii	"SD3\000"
 17207 80ab 41       		.byte	0x41
 17208 80ac 1701     		.2byte	0x117
 17209 80ae C1150000 		.4byte	0x15c1
 17210 80b2 8601     		.uleb128 0x86
 17211 80b4 655B0000 		.4byte	.LASF1245
 17212 80b8 40       		.byte	0x40
 17213 80b9 14       		.byte	0x14
 17214 80ba 0C1C0000 		.4byte	0x1c0c
 17215 80be 8601     		.uleb128 0x86
 17216 80c0 5D1C0000 		.4byte	.LASF1246
 17217 80c4 40       		.byte	0x40
 17218 80c5 15       		.byte	0x15
 17219 80c6 A21B0000 		.4byte	0x1ba2
 17220 80ca 8601     		.uleb128 0x86
 17221 80cc 2A7A0000 		.4byte	.LASF1247
 17222 80d0 40       		.byte	0x40
 17223 80d1 16       		.byte	0x16
 17224 80d2 C21C0000 		.4byte	0x1cc2
 17225 80d6 0B       		.uleb128 0xb
 17226 80d7 37000000 		.4byte	0x37
 17227 80db E2800000 		.4byte	0x80e2
 17228 80df 8901     		.uleb128 0x89
 17229 80e1 00       		.byte	0
 17230 80e2 8601     		.uleb128 0x86
 17231 80e4 84260000 		.4byte	.LASF1248
 17232 80e8 38       		.byte	0x38
 17233 80e9 0A       		.byte	0xa
 17234 80ea D6800000 		.4byte	0x80d6
ARM GAS  /tmp/ccytVDiP.s 			page 304


 17235 80ee 8601     		.uleb128 0x86
 17236 80f0 FE750000 		.4byte	.LASF1249
 17237 80f4 38       		.byte	0x38
 17238 80f5 0B       		.byte	0xb
 17239 80f6 D6800000 		.4byte	0x80d6
 17240 80fa 8601     		.uleb128 0x86
 17241 80fc 1D400000 		.4byte	.LASF1250
 17242 8100 38       		.byte	0x38
 17243 8101 0D       		.byte	0xd
 17244 8102 D6800000 		.4byte	0x80d6
 17245 8106 8601     		.uleb128 0x86
 17246 8108 CD1D0000 		.4byte	.LASF1251
 17247 810c 38       		.byte	0x38
 17248 810d 0E       		.byte	0xe
 17249 810e D6800000 		.4byte	0x80d6
 17250 8112 0B       		.uleb128 0xb
 17251 8113 8D000000 		.4byte	0x8d
 17252 8117 22810000 		.4byte	0x8122
 17253 811b 0C       		.uleb128 0xc
 17254 811c 3B010000 		.4byte	0x13b
 17255 8120 B1       		.byte	0xb1
 17256 8121 00       		.byte	0
 17257 8122 7B       		.uleb128 0x7b
 17258 8123 B0290000 		.4byte	.LASF1252
 17259 8127 12       		.byte	0x12
 17260 8128 1B       		.byte	0x1b
 17261 8129 12810000 		.4byte	0x8112
 17262 812d 05       		.uleb128 0x5
 17263 812e 03       		.byte	0x3
 17264 812f 00000000 		.4byte	_ZL7wa_info
 17265 8133 7B       		.uleb128 0x7b
 17266 8134 C9200000 		.4byte	.LASF1253
 17267 8138 12       		.byte	0x12
 17268 8139 1F       		.byte	0x1f
 17269 813a 9D710000 		.4byte	0x719d
 17270 813e 05       		.uleb128 0x5
 17271 813f 03       		.byte	0x3
 17272 8140 90050000 		.4byte	_ZL14dbgtra_namebuf
 17273 8144 7B       		.uleb128 0x7b
 17274 8145 3F5D0000 		.4byte	.LASF1254
 17275 8149 12       		.byte	0x12
 17276 814a 21       		.byte	0x21
 17277 814b 4F600000 		.4byte	0x604f
 17278 814f 05       		.uleb128 0x5
 17279 8150 03       		.byte	0x3
 17280 8151 D0050000 		.4byte	_ZL6dbgtra
 17281 8155 7B       		.uleb128 0x7b
 17282 8156 89440000 		.4byte	.LASF1255
 17283 815a 12       		.byte	0x12
 17284 815b 28       		.byte	0x28
 17285 815c 12810000 		.4byte	0x8112
 17286 8160 05       		.uleb128 0x5
 17287 8161 03       		.byte	0x3
 17288 8162 38080000 		.4byte	_ZL12wa_rx_dbgtra
 17289 8166 7B       		.uleb128 0x7b
 17290 8167 7A1F0000 		.4byte	.LASF1256
 17291 816b 12       		.byte	0x12
ARM GAS  /tmp/ccytVDiP.s 			page 305


 17292 816c 29       		.byte	0x29
 17293 816d 12810000 		.4byte	0x8112
 17294 8171 05       		.uleb128 0x5
 17295 8172 03       		.byte	0x3
 17296 8173 C80D0000 		.4byte	_ZL12wa_tx_dbgtra
 17297 8177 8A01     		.uleb128 0x8a
 17298 8179 712D0000 		.4byte	.LASF1257
 17299 817d B8000000 		.4byte	0xb8
 17300 8181 8B01     		.uleb128 0x8b
 17301 8183 62620000 		.4byte	0x6262
 17302 8187 12       		.byte	0x12
 17303 8188 32       		.byte	0x32
 17304 8189 4B550000 		.4byte	.LASF1272
 17305 818d 05       		.uleb128 0x5
 17306 818e 03       		.byte	0x3
 17307 818f 00000000 		.4byte	_ZN3r2p10Middleware8instanceE
 17308 8193 00       		.byte	0
 17309              		.section	.debug_abbrev,"",%progbits
 17310              	.Ldebug_abbrev0:
 17311 0000 01       		.uleb128 0x1
 17312 0001 11       		.uleb128 0x11
 17313 0002 01       		.byte	0x1
 17314 0003 25       		.uleb128 0x25
 17315 0004 0E       		.uleb128 0xe
 17316 0005 13       		.uleb128 0x13
 17317 0006 0B       		.uleb128 0xb
 17318 0007 03       		.uleb128 0x3
 17319 0008 0E       		.uleb128 0xe
 17320 0009 1B       		.uleb128 0x1b
 17321 000a 0E       		.uleb128 0xe
 17322 000b 55       		.uleb128 0x55
 17323 000c 17       		.uleb128 0x17
 17324 000d 11       		.uleb128 0x11
 17325 000e 01       		.uleb128 0x1
 17326 000f 10       		.uleb128 0x10
 17327 0010 17       		.uleb128 0x17
 17328 0011 00       		.byte	0
 17329 0012 00       		.byte	0
 17330 0013 02       		.uleb128 0x2
 17331 0014 24       		.uleb128 0x24
 17332 0015 00       		.byte	0
 17333 0016 0B       		.uleb128 0xb
 17334 0017 0B       		.uleb128 0xb
 17335 0018 3E       		.uleb128 0x3e
 17336 0019 0B       		.uleb128 0xb
 17337 001a 03       		.uleb128 0x3
 17338 001b 0E       		.uleb128 0xe
 17339 001c 00       		.byte	0
 17340 001d 00       		.byte	0
 17341 001e 03       		.uleb128 0x3
 17342 001f 16       		.uleb128 0x16
 17343 0020 00       		.byte	0
 17344 0021 03       		.uleb128 0x3
 17345 0022 0E       		.uleb128 0xe
 17346 0023 3A       		.uleb128 0x3a
 17347 0024 0B       		.uleb128 0xb
 17348 0025 3B       		.uleb128 0x3b
ARM GAS  /tmp/ccytVDiP.s 			page 306


 17349 0026 0B       		.uleb128 0xb
 17350 0027 49       		.uleb128 0x49
 17351 0028 13       		.uleb128 0x13
 17352 0029 00       		.byte	0
 17353 002a 00       		.byte	0
 17354 002b 04       		.uleb128 0x4
 17355 002c 24       		.uleb128 0x24
 17356 002d 00       		.byte	0
 17357 002e 0B       		.uleb128 0xb
 17358 002f 0B       		.uleb128 0xb
 17359 0030 3E       		.uleb128 0x3e
 17360 0031 0B       		.uleb128 0xb
 17361 0032 03       		.uleb128 0x3
 17362 0033 08       		.uleb128 0x8
 17363 0034 00       		.byte	0
 17364 0035 00       		.byte	0
 17365 0036 05       		.uleb128 0x5
 17366 0037 0F       		.uleb128 0xf
 17367 0038 00       		.byte	0
 17368 0039 0B       		.uleb128 0xb
 17369 003a 0B       		.uleb128 0xb
 17370 003b 00       		.byte	0
 17371 003c 00       		.byte	0
 17372 003d 06       		.uleb128 0x6
 17373 003e 16       		.uleb128 0x16
 17374 003f 00       		.byte	0
 17375 0040 03       		.uleb128 0x3
 17376 0041 0E       		.uleb128 0xe
 17377 0042 3A       		.uleb128 0x3a
 17378 0043 0B       		.uleb128 0xb
 17379 0044 3B       		.uleb128 0x3b
 17380 0045 05       		.uleb128 0x5
 17381 0046 49       		.uleb128 0x49
 17382 0047 13       		.uleb128 0x13
 17383 0048 00       		.byte	0
 17384 0049 00       		.byte	0
 17385 004a 07       		.uleb128 0x7
 17386 004b 13       		.uleb128 0x13
 17387 004c 01       		.byte	0x1
 17388 004d 0B       		.uleb128 0xb
 17389 004e 0B       		.uleb128 0xb
 17390 004f 3A       		.uleb128 0x3a
 17391 0050 0B       		.uleb128 0xb
 17392 0051 3B       		.uleb128 0x3b
 17393 0052 0B       		.uleb128 0xb
 17394 0053 6E       		.uleb128 0x6e
 17395 0054 0E       		.uleb128 0xe
 17396 0055 01       		.uleb128 0x1
 17397 0056 13       		.uleb128 0x13
 17398 0057 00       		.byte	0
 17399 0058 00       		.byte	0
 17400 0059 08       		.uleb128 0x8
 17401 005a 17       		.uleb128 0x17
 17402 005b 01       		.byte	0x1
 17403 005c 0B       		.uleb128 0xb
 17404 005d 0B       		.uleb128 0xb
 17405 005e 3A       		.uleb128 0x3a
ARM GAS  /tmp/ccytVDiP.s 			page 307


 17406 005f 0B       		.uleb128 0xb
 17407 0060 3B       		.uleb128 0x3b
 17408 0061 0B       		.uleb128 0xb
 17409 0062 01       		.uleb128 0x1
 17410 0063 13       		.uleb128 0x13
 17411 0064 00       		.byte	0
 17412 0065 00       		.byte	0
 17413 0066 09       		.uleb128 0x9
 17414 0067 0D       		.uleb128 0xd
 17415 0068 00       		.byte	0
 17416 0069 03       		.uleb128 0x3
 17417 006a 0E       		.uleb128 0xe
 17418 006b 3A       		.uleb128 0x3a
 17419 006c 0B       		.uleb128 0xb
 17420 006d 3B       		.uleb128 0x3b
 17421 006e 0B       		.uleb128 0xb
 17422 006f 49       		.uleb128 0x49
 17423 0070 13       		.uleb128 0x13
 17424 0071 00       		.byte	0
 17425 0072 00       		.byte	0
 17426 0073 0A       		.uleb128 0xa
 17427 0074 0D       		.uleb128 0xd
 17428 0075 00       		.byte	0
 17429 0076 03       		.uleb128 0x3
 17430 0077 0E       		.uleb128 0xe
 17431 0078 3A       		.uleb128 0x3a
 17432 0079 0B       		.uleb128 0xb
 17433 007a 3B       		.uleb128 0x3b
 17434 007b 0B       		.uleb128 0xb
 17435 007c 49       		.uleb128 0x49
 17436 007d 13       		.uleb128 0x13
 17437 007e 38       		.uleb128 0x38
 17438 007f 0B       		.uleb128 0xb
 17439 0080 00       		.byte	0
 17440 0081 00       		.byte	0
 17441 0082 0B       		.uleb128 0xb
 17442 0083 01       		.uleb128 0x1
 17443 0084 01       		.byte	0x1
 17444 0085 49       		.uleb128 0x49
 17445 0086 13       		.uleb128 0x13
 17446 0087 01       		.uleb128 0x1
 17447 0088 13       		.uleb128 0x13
 17448 0089 00       		.byte	0
 17449 008a 00       		.byte	0
 17450 008b 0C       		.uleb128 0xc
 17451 008c 21       		.uleb128 0x21
 17452 008d 00       		.byte	0
 17453 008e 49       		.uleb128 0x49
 17454 008f 13       		.uleb128 0x13
 17455 0090 2F       		.uleb128 0x2f
 17456 0091 0B       		.uleb128 0xb
 17457 0092 00       		.byte	0
 17458 0093 00       		.byte	0
 17459 0094 0D       		.uleb128 0xd
 17460 0095 13       		.uleb128 0x13
 17461 0096 01       		.byte	0x1
 17462 0097 03       		.uleb128 0x3
ARM GAS  /tmp/ccytVDiP.s 			page 308


 17463 0098 0E       		.uleb128 0xe
 17464 0099 0B       		.uleb128 0xb
 17465 009a 0B       		.uleb128 0xb
 17466 009b 3A       		.uleb128 0x3a
 17467 009c 0B       		.uleb128 0xb
 17468 009d 3B       		.uleb128 0x3b
 17469 009e 0B       		.uleb128 0xb
 17470 009f 01       		.uleb128 0x1
 17471 00a0 13       		.uleb128 0x13
 17472 00a1 00       		.byte	0
 17473 00a2 00       		.byte	0
 17474 00a3 0E       		.uleb128 0xe
 17475 00a4 0D       		.uleb128 0xd
 17476 00a5 00       		.byte	0
 17477 00a6 03       		.uleb128 0x3
 17478 00a7 08       		.uleb128 0x8
 17479 00a8 3A       		.uleb128 0x3a
 17480 00a9 0B       		.uleb128 0xb
 17481 00aa 3B       		.uleb128 0x3b
 17482 00ab 0B       		.uleb128 0xb
 17483 00ac 49       		.uleb128 0x49
 17484 00ad 13       		.uleb128 0x13
 17485 00ae 38       		.uleb128 0x38
 17486 00af 0B       		.uleb128 0xb
 17487 00b0 00       		.byte	0
 17488 00b1 00       		.byte	0
 17489 00b2 0F       		.uleb128 0xf
 17490 00b3 0F       		.uleb128 0xf
 17491 00b4 00       		.byte	0
 17492 00b5 0B       		.uleb128 0xb
 17493 00b6 0B       		.uleb128 0xb
 17494 00b7 49       		.uleb128 0x49
 17495 00b8 13       		.uleb128 0x13
 17496 00b9 00       		.byte	0
 17497 00ba 00       		.byte	0
 17498 00bb 10       		.uleb128 0x10
 17499 00bc 13       		.uleb128 0x13
 17500 00bd 01       		.byte	0x1
 17501 00be 03       		.uleb128 0x3
 17502 00bf 0E       		.uleb128 0xe
 17503 00c0 0B       		.uleb128 0xb
 17504 00c1 05       		.uleb128 0x5
 17505 00c2 3A       		.uleb128 0x3a
 17506 00c3 0B       		.uleb128 0xb
 17507 00c4 3B       		.uleb128 0x3b
 17508 00c5 0B       		.uleb128 0xb
 17509 00c6 01       		.uleb128 0x1
 17510 00c7 13       		.uleb128 0x13
 17511 00c8 00       		.byte	0
 17512 00c9 00       		.byte	0
 17513 00ca 11       		.uleb128 0x11
 17514 00cb 0D       		.uleb128 0xd
 17515 00cc 00       		.byte	0
 17516 00cd 03       		.uleb128 0x3
 17517 00ce 0E       		.uleb128 0xe
 17518 00cf 3A       		.uleb128 0x3a
 17519 00d0 0B       		.uleb128 0xb
ARM GAS  /tmp/ccytVDiP.s 			page 309


 17520 00d1 3B       		.uleb128 0x3b
 17521 00d2 0B       		.uleb128 0xb
 17522 00d3 49       		.uleb128 0x49
 17523 00d4 13       		.uleb128 0x13
 17524 00d5 38       		.uleb128 0x38
 17525 00d6 05       		.uleb128 0x5
 17526 00d7 00       		.byte	0
 17527 00d8 00       		.byte	0
 17528 00d9 12       		.uleb128 0x12
 17529 00da 15       		.uleb128 0x15
 17530 00db 00       		.byte	0
 17531 00dc 00       		.byte	0
 17532 00dd 00       		.byte	0
 17533 00de 13       		.uleb128 0x13
 17534 00df 15       		.uleb128 0x15
 17535 00e0 01       		.byte	0x1
 17536 00e1 49       		.uleb128 0x49
 17537 00e2 13       		.uleb128 0x13
 17538 00e3 01       		.uleb128 0x1
 17539 00e4 13       		.uleb128 0x13
 17540 00e5 00       		.byte	0
 17541 00e6 00       		.byte	0
 17542 00e7 14       		.uleb128 0x14
 17543 00e8 05       		.uleb128 0x5
 17544 00e9 00       		.byte	0
 17545 00ea 49       		.uleb128 0x49
 17546 00eb 13       		.uleb128 0x13
 17547 00ec 00       		.byte	0
 17548 00ed 00       		.byte	0
 17549 00ee 15       		.uleb128 0x15
 17550 00ef 13       		.uleb128 0x13
 17551 00f0 01       		.byte	0x1
 17552 00f1 03       		.uleb128 0x3
 17553 00f2 0E       		.uleb128 0xe
 17554 00f3 0B       		.uleb128 0xb
 17555 00f4 05       		.uleb128 0x5
 17556 00f5 3A       		.uleb128 0x3a
 17557 00f6 0B       		.uleb128 0xb
 17558 00f7 3B       		.uleb128 0x3b
 17559 00f8 05       		.uleb128 0x5
 17560 00f9 01       		.uleb128 0x1
 17561 00fa 13       		.uleb128 0x13
 17562 00fb 00       		.byte	0
 17563 00fc 00       		.byte	0
 17564 00fd 16       		.uleb128 0x16
 17565 00fe 17       		.uleb128 0x17
 17566 00ff 01       		.byte	0x1
 17567 0100 0B       		.uleb128 0xb
 17568 0101 0B       		.uleb128 0xb
 17569 0102 3A       		.uleb128 0x3a
 17570 0103 0B       		.uleb128 0xb
 17571 0104 3B       		.uleb128 0x3b
 17572 0105 05       		.uleb128 0x5
 17573 0106 01       		.uleb128 0x1
 17574 0107 13       		.uleb128 0x13
 17575 0108 00       		.byte	0
 17576 0109 00       		.byte	0
ARM GAS  /tmp/ccytVDiP.s 			page 310


 17577 010a 17       		.uleb128 0x17
 17578 010b 13       		.uleb128 0x13
 17579 010c 01       		.byte	0x1
 17580 010d 0B       		.uleb128 0xb
 17581 010e 0B       		.uleb128 0xb
 17582 010f 3A       		.uleb128 0x3a
 17583 0110 0B       		.uleb128 0xb
 17584 0111 3B       		.uleb128 0x3b
 17585 0112 05       		.uleb128 0x5
 17586 0113 01       		.uleb128 0x1
 17587 0114 13       		.uleb128 0x13
 17588 0115 00       		.byte	0
 17589 0116 00       		.byte	0
 17590 0117 18       		.uleb128 0x18
 17591 0118 0D       		.uleb128 0xd
 17592 0119 00       		.byte	0
 17593 011a 03       		.uleb128 0x3
 17594 011b 0E       		.uleb128 0xe
 17595 011c 3A       		.uleb128 0x3a
 17596 011d 0B       		.uleb128 0xb
 17597 011e 3B       		.uleb128 0x3b
 17598 011f 05       		.uleb128 0x5
 17599 0120 49       		.uleb128 0x49
 17600 0121 13       		.uleb128 0x13
 17601 0122 38       		.uleb128 0x38
 17602 0123 0B       		.uleb128 0xb
 17603 0124 00       		.byte	0
 17604 0125 00       		.byte	0
 17605 0126 19       		.uleb128 0x19
 17606 0127 0D       		.uleb128 0xd
 17607 0128 00       		.byte	0
 17608 0129 03       		.uleb128 0x3
 17609 012a 0E       		.uleb128 0xe
 17610 012b 3A       		.uleb128 0x3a
 17611 012c 0B       		.uleb128 0xb
 17612 012d 3B       		.uleb128 0x3b
 17613 012e 05       		.uleb128 0x5
 17614 012f 49       		.uleb128 0x49
 17615 0130 13       		.uleb128 0x13
 17616 0131 00       		.byte	0
 17617 0132 00       		.byte	0
 17618 0133 1A       		.uleb128 0x1a
 17619 0134 0D       		.uleb128 0xd
 17620 0135 00       		.byte	0
 17621 0136 03       		.uleb128 0x3
 17622 0137 0E       		.uleb128 0xe
 17623 0138 3A       		.uleb128 0x3a
 17624 0139 0B       		.uleb128 0xb
 17625 013a 3B       		.uleb128 0x3b
 17626 013b 05       		.uleb128 0x5
 17627 013c 49       		.uleb128 0x49
 17628 013d 13       		.uleb128 0x13
 17629 013e 38       		.uleb128 0x38
 17630 013f 05       		.uleb128 0x5
 17631 0140 00       		.byte	0
 17632 0141 00       		.byte	0
 17633 0142 1B       		.uleb128 0x1b
ARM GAS  /tmp/ccytVDiP.s 			page 311


 17634 0143 26       		.uleb128 0x26
 17635 0144 00       		.byte	0
 17636 0145 49       		.uleb128 0x49
 17637 0146 13       		.uleb128 0x13
 17638 0147 00       		.byte	0
 17639 0148 00       		.byte	0
 17640 0149 1C       		.uleb128 0x1c
 17641 014a 13       		.uleb128 0x13
 17642 014b 01       		.byte	0x1
 17643 014c 03       		.uleb128 0x3
 17644 014d 0E       		.uleb128 0xe
 17645 014e 0B       		.uleb128 0xb
 17646 014f 0B       		.uleb128 0xb
 17647 0150 3A       		.uleb128 0x3a
 17648 0151 0B       		.uleb128 0xb
 17649 0152 3B       		.uleb128 0x3b
 17650 0153 05       		.uleb128 0x5
 17651 0154 01       		.uleb128 0x1
 17652 0155 13       		.uleb128 0x13
 17653 0156 00       		.byte	0
 17654 0157 00       		.byte	0
 17655 0158 1D       		.uleb128 0x1d
 17656 0159 15       		.uleb128 0x15
 17657 015a 01       		.byte	0x1
 17658 015b 01       		.uleb128 0x1
 17659 015c 13       		.uleb128 0x13
 17660 015d 00       		.byte	0
 17661 015e 00       		.byte	0
 17662 015f 1E       		.uleb128 0x1e
 17663 0160 39       		.uleb128 0x39
 17664 0161 01       		.byte	0x1
 17665 0162 03       		.uleb128 0x3
 17666 0163 08       		.uleb128 0x8
 17667 0164 3A       		.uleb128 0x3a
 17668 0165 0B       		.uleb128 0xb
 17669 0166 3B       		.uleb128 0x3b
 17670 0167 0B       		.uleb128 0xb
 17671 0168 01       		.uleb128 0x1
 17672 0169 13       		.uleb128 0x13
 17673 016a 00       		.byte	0
 17674 016b 00       		.byte	0
 17675 016c 1F       		.uleb128 0x1f
 17676 016d 08       		.uleb128 0x8
 17677 016e 00       		.byte	0
 17678 016f 3A       		.uleb128 0x3a
 17679 0170 0B       		.uleb128 0xb
 17680 0171 3B       		.uleb128 0x3b
 17681 0172 0B       		.uleb128 0xb
 17682 0173 18       		.uleb128 0x18
 17683 0174 13       		.uleb128 0x13
 17684 0175 00       		.byte	0
 17685 0176 00       		.byte	0
 17686 0177 20       		.uleb128 0x20
 17687 0178 2E       		.uleb128 0x2e
 17688 0179 01       		.byte	0x1
 17689 017a 3F       		.uleb128 0x3f
 17690 017b 19       		.uleb128 0x19
ARM GAS  /tmp/ccytVDiP.s 			page 312


 17691 017c 03       		.uleb128 0x3
 17692 017d 0E       		.uleb128 0xe
 17693 017e 3A       		.uleb128 0x3a
 17694 017f 0B       		.uleb128 0xb
 17695 0180 3B       		.uleb128 0x3b
 17696 0181 0B       		.uleb128 0xb
 17697 0182 3C       		.uleb128 0x3c
 17698 0183 19       		.uleb128 0x19
 17699 0184 01       		.uleb128 0x1
 17700 0185 13       		.uleb128 0x13
 17701 0186 00       		.byte	0
 17702 0187 00       		.byte	0
 17703 0188 21       		.uleb128 0x21
 17704 0189 2E       		.uleb128 0x2e
 17705 018a 01       		.byte	0x1
 17706 018b 3F       		.uleb128 0x3f
 17707 018c 19       		.uleb128 0x19
 17708 018d 03       		.uleb128 0x3
 17709 018e 0E       		.uleb128 0xe
 17710 018f 3A       		.uleb128 0x3a
 17711 0190 0B       		.uleb128 0xb
 17712 0191 3B       		.uleb128 0x3b
 17713 0192 0B       		.uleb128 0xb
 17714 0193 49       		.uleb128 0x49
 17715 0194 13       		.uleb128 0x13
 17716 0195 3C       		.uleb128 0x3c
 17717 0196 19       		.uleb128 0x19
 17718 0197 01       		.uleb128 0x1
 17719 0198 13       		.uleb128 0x13
 17720 0199 00       		.byte	0
 17721 019a 00       		.byte	0
 17722 019b 22       		.uleb128 0x22
 17723 019c 2E       		.uleb128 0x2e
 17724 019d 00       		.byte	0
 17725 019e 3F       		.uleb128 0x3f
 17726 019f 19       		.uleb128 0x19
 17727 01a0 03       		.uleb128 0x3
 17728 01a1 0E       		.uleb128 0xe
 17729 01a2 3A       		.uleb128 0x3a
 17730 01a3 0B       		.uleb128 0xb
 17731 01a4 3B       		.uleb128 0x3b
 17732 01a5 0B       		.uleb128 0xb
 17733 01a6 49       		.uleb128 0x49
 17734 01a7 13       		.uleb128 0x13
 17735 01a8 3C       		.uleb128 0x3c
 17736 01a9 19       		.uleb128 0x19
 17737 01aa 00       		.byte	0
 17738 01ab 00       		.byte	0
 17739 01ac 23       		.uleb128 0x23
 17740 01ad 0D       		.uleb128 0xd
 17741 01ae 00       		.byte	0
 17742 01af 03       		.uleb128 0x3
 17743 01b0 08       		.uleb128 0x8
 17744 01b1 3A       		.uleb128 0x3a
 17745 01b2 0B       		.uleb128 0xb
 17746 01b3 3B       		.uleb128 0x3b
 17747 01b4 05       		.uleb128 0x5
ARM GAS  /tmp/ccytVDiP.s 			page 313


 17748 01b5 49       		.uleb128 0x49
 17749 01b6 13       		.uleb128 0x13
 17750 01b7 38       		.uleb128 0x38
 17751 01b8 0B       		.uleb128 0xb
 17752 01b9 00       		.byte	0
 17753 01ba 00       		.byte	0
 17754 01bb 24       		.uleb128 0x24
 17755 01bc 35       		.uleb128 0x35
 17756 01bd 00       		.byte	0
 17757 01be 49       		.uleb128 0x49
 17758 01bf 13       		.uleb128 0x13
 17759 01c0 00       		.byte	0
 17760 01c1 00       		.byte	0
 17761 01c2 25       		.uleb128 0x25
 17762 01c3 17       		.uleb128 0x17
 17763 01c4 01       		.byte	0x1
 17764 01c5 03       		.uleb128 0x3
 17765 01c6 0E       		.uleb128 0xe
 17766 01c7 0B       		.uleb128 0xb
 17767 01c8 0B       		.uleb128 0xb
 17768 01c9 3A       		.uleb128 0x3a
 17769 01ca 0B       		.uleb128 0xb
 17770 01cb 3B       		.uleb128 0x3b
 17771 01cc 0B       		.uleb128 0xb
 17772 01cd 01       		.uleb128 0x1
 17773 01ce 13       		.uleb128 0x13
 17774 01cf 00       		.byte	0
 17775 01d0 00       		.byte	0
 17776 01d1 26       		.uleb128 0x26
 17777 01d2 13       		.uleb128 0x13
 17778 01d3 01       		.byte	0x1
 17779 01d4 0B       		.uleb128 0xb
 17780 01d5 0B       		.uleb128 0xb
 17781 01d6 3A       		.uleb128 0x3a
 17782 01d7 0B       		.uleb128 0xb
 17783 01d8 3B       		.uleb128 0x3b
 17784 01d9 0B       		.uleb128 0xb
 17785 01da 01       		.uleb128 0x1
 17786 01db 13       		.uleb128 0x13
 17787 01dc 00       		.byte	0
 17788 01dd 00       		.byte	0
 17789 01de 27       		.uleb128 0x27
 17790 01df 0D       		.uleb128 0xd
 17791 01e0 00       		.byte	0
 17792 01e1 03       		.uleb128 0x3
 17793 01e2 08       		.uleb128 0x8
 17794 01e3 3A       		.uleb128 0x3a
 17795 01e4 0B       		.uleb128 0xb
 17796 01e5 3B       		.uleb128 0x3b
 17797 01e6 0B       		.uleb128 0xb
 17798 01e7 49       		.uleb128 0x49
 17799 01e8 13       		.uleb128 0x13
 17800 01e9 00       		.byte	0
 17801 01ea 00       		.byte	0
 17802 01eb 28       		.uleb128 0x28
 17803 01ec 13       		.uleb128 0x13
 17804 01ed 01       		.byte	0x1
ARM GAS  /tmp/ccytVDiP.s 			page 314


 17805 01ee 0B       		.uleb128 0xb
 17806 01ef 0B       		.uleb128 0xb
 17807 01f0 3A       		.uleb128 0x3a
 17808 01f1 0B       		.uleb128 0xb
 17809 01f2 3B       		.uleb128 0x3b
 17810 01f3 05       		.uleb128 0x5
 17811 01f4 6E       		.uleb128 0x6e
 17812 01f5 0E       		.uleb128 0xe
 17813 01f6 01       		.uleb128 0x1
 17814 01f7 13       		.uleb128 0x13
 17815 01f8 00       		.byte	0
 17816 01f9 00       		.byte	0
 17817 01fa 29       		.uleb128 0x29
 17818 01fb 04       		.uleb128 0x4
 17819 01fc 01       		.byte	0x1
 17820 01fd 0B       		.uleb128 0xb
 17821 01fe 0B       		.uleb128 0xb
 17822 01ff 3A       		.uleb128 0x3a
 17823 0200 0B       		.uleb128 0xb
 17824 0201 3B       		.uleb128 0x3b
 17825 0202 0B       		.uleb128 0xb
 17826 0203 6E       		.uleb128 0x6e
 17827 0204 0E       		.uleb128 0xe
 17828 0205 01       		.uleb128 0x1
 17829 0206 13       		.uleb128 0x13
 17830 0207 00       		.byte	0
 17831 0208 00       		.byte	0
 17832 0209 2A       		.uleb128 0x2a
 17833 020a 28       		.uleb128 0x28
 17834 020b 00       		.byte	0
 17835 020c 03       		.uleb128 0x3
 17836 020d 0E       		.uleb128 0xe
 17837 020e 1C       		.uleb128 0x1c
 17838 020f 0D       		.uleb128 0xd
 17839 0210 00       		.byte	0
 17840 0211 00       		.byte	0
 17841 0212 2B       		.uleb128 0x2b
 17842 0213 0D       		.uleb128 0xd
 17843 0214 00       		.byte	0
 17844 0215 03       		.uleb128 0x3
 17845 0216 08       		.uleb128 0x8
 17846 0217 3A       		.uleb128 0x3a
 17847 0218 0B       		.uleb128 0xb
 17848 0219 3B       		.uleb128 0x3b
 17849 021a 0B       		.uleb128 0xb
 17850 021b 49       		.uleb128 0x49
 17851 021c 13       		.uleb128 0x13
 17852 021d 38       		.uleb128 0x38
 17853 021e 05       		.uleb128 0x5
 17854 021f 00       		.byte	0
 17855 0220 00       		.byte	0
 17856 0221 2C       		.uleb128 0x2c
 17857 0222 04       		.uleb128 0x4
 17858 0223 01       		.byte	0x1
 17859 0224 0B       		.uleb128 0xb
 17860 0225 0B       		.uleb128 0xb
 17861 0226 3A       		.uleb128 0x3a
ARM GAS  /tmp/ccytVDiP.s 			page 315


 17862 0227 0B       		.uleb128 0xb
 17863 0228 3B       		.uleb128 0x3b
 17864 0229 05       		.uleb128 0x5
 17865 022a 6E       		.uleb128 0x6e
 17866 022b 0E       		.uleb128 0xe
 17867 022c 01       		.uleb128 0x1
 17868 022d 13       		.uleb128 0x13
 17869 022e 00       		.byte	0
 17870 022f 00       		.byte	0
 17871 0230 2D       		.uleb128 0x2d
 17872 0231 02       		.uleb128 0x2
 17873 0232 01       		.byte	0x1
 17874 0233 03       		.uleb128 0x3
 17875 0234 0E       		.uleb128 0xe
 17876 0235 0B       		.uleb128 0xb
 17877 0236 0B       		.uleb128 0xb
 17878 0237 3A       		.uleb128 0x3a
 17879 0238 0B       		.uleb128 0xb
 17880 0239 3B       		.uleb128 0x3b
 17881 023a 0B       		.uleb128 0xb
 17882 023b 01       		.uleb128 0x1
 17883 023c 13       		.uleb128 0x13
 17884 023d 00       		.byte	0
 17885 023e 00       		.byte	0
 17886 023f 2E       		.uleb128 0x2e
 17887 0240 2E       		.uleb128 0x2e
 17888 0241 01       		.byte	0x1
 17889 0242 3F       		.uleb128 0x3f
 17890 0243 19       		.uleb128 0x19
 17891 0244 03       		.uleb128 0x3
 17892 0245 0E       		.uleb128 0xe
 17893 0246 3A       		.uleb128 0x3a
 17894 0247 0B       		.uleb128 0xb
 17895 0248 3B       		.uleb128 0x3b
 17896 0249 0B       		.uleb128 0xb
 17897 024a 49       		.uleb128 0x49
 17898 024b 13       		.uleb128 0x13
 17899 024c 3C       		.uleb128 0x3c
 17900 024d 19       		.uleb128 0x19
 17901 024e 64       		.uleb128 0x64
 17902 024f 13       		.uleb128 0x13
 17903 0250 01       		.uleb128 0x1
 17904 0251 13       		.uleb128 0x13
 17905 0252 00       		.byte	0
 17906 0253 00       		.byte	0
 17907 0254 2F       		.uleb128 0x2f
 17908 0255 05       		.uleb128 0x5
 17909 0256 00       		.byte	0
 17910 0257 49       		.uleb128 0x49
 17911 0258 13       		.uleb128 0x13
 17912 0259 34       		.uleb128 0x34
 17913 025a 19       		.uleb128 0x19
 17914 025b 00       		.byte	0
 17915 025c 00       		.byte	0
 17916 025d 30       		.uleb128 0x30
 17917 025e 2E       		.uleb128 0x2e
 17918 025f 01       		.byte	0x1
ARM GAS  /tmp/ccytVDiP.s 			page 316


 17919 0260 3F       		.uleb128 0x3f
 17920 0261 19       		.uleb128 0x19
 17921 0262 03       		.uleb128 0x3
 17922 0263 0E       		.uleb128 0xe
 17923 0264 3A       		.uleb128 0x3a
 17924 0265 0B       		.uleb128 0xb
 17925 0266 3B       		.uleb128 0x3b
 17926 0267 0B       		.uleb128 0xb
 17927 0268 49       		.uleb128 0x49
 17928 0269 13       		.uleb128 0x13
 17929 026a 32       		.uleb128 0x32
 17930 026b 0B       		.uleb128 0xb
 17931 026c 3C       		.uleb128 0x3c
 17932 026d 19       		.uleb128 0x19
 17933 026e 64       		.uleb128 0x64
 17934 026f 13       		.uleb128 0x13
 17935 0270 01       		.uleb128 0x1
 17936 0271 13       		.uleb128 0x13
 17937 0272 00       		.byte	0
 17938 0273 00       		.byte	0
 17939 0274 31       		.uleb128 0x31
 17940 0275 2E       		.uleb128 0x2e
 17941 0276 01       		.byte	0x1
 17942 0277 3F       		.uleb128 0x3f
 17943 0278 19       		.uleb128 0x19
 17944 0279 03       		.uleb128 0x3
 17945 027a 0E       		.uleb128 0xe
 17946 027b 3A       		.uleb128 0x3a
 17947 027c 0B       		.uleb128 0xb
 17948 027d 3B       		.uleb128 0x3b
 17949 027e 0B       		.uleb128 0xb
 17950 027f 49       		.uleb128 0x49
 17951 0280 13       		.uleb128 0x13
 17952 0281 32       		.uleb128 0x32
 17953 0282 0B       		.uleb128 0xb
 17954 0283 3C       		.uleb128 0x3c
 17955 0284 19       		.uleb128 0x19
 17956 0285 64       		.uleb128 0x64
 17957 0286 13       		.uleb128 0x13
 17958 0287 00       		.byte	0
 17959 0288 00       		.byte	0
 17960 0289 32       		.uleb128 0x32
 17961 028a 1C       		.uleb128 0x1c
 17962 028b 00       		.byte	0
 17963 028c 49       		.uleb128 0x49
 17964 028d 13       		.uleb128 0x13
 17965 028e 38       		.uleb128 0x38
 17966 028f 0B       		.uleb128 0xb
 17967 0290 00       		.byte	0
 17968 0291 00       		.byte	0
 17969 0292 33       		.uleb128 0x33
 17970 0293 2E       		.uleb128 0x2e
 17971 0294 00       		.byte	0
 17972 0295 3F       		.uleb128 0x3f
 17973 0296 19       		.uleb128 0x19
 17974 0297 03       		.uleb128 0x3
 17975 0298 0E       		.uleb128 0xe
ARM GAS  /tmp/ccytVDiP.s 			page 317


 17976 0299 3A       		.uleb128 0x3a
 17977 029a 0B       		.uleb128 0xb
 17978 029b 3B       		.uleb128 0x3b
 17979 029c 0B       		.uleb128 0xb
 17980 029d 6E       		.uleb128 0x6e
 17981 029e 0E       		.uleb128 0xe
 17982 029f 32       		.uleb128 0x32
 17983 02a0 0B       		.uleb128 0xb
 17984 02a1 3C       		.uleb128 0x3c
 17985 02a2 19       		.uleb128 0x19
 17986 02a3 00       		.byte	0
 17987 02a4 00       		.byte	0
 17988 02a5 34       		.uleb128 0x34
 17989 02a6 04       		.uleb128 0x4
 17990 02a7 01       		.byte	0x1
 17991 02a8 0B       		.uleb128 0xb
 17992 02a9 0B       		.uleb128 0xb
 17993 02aa 3A       		.uleb128 0x3a
 17994 02ab 0B       		.uleb128 0xb
 17995 02ac 3B       		.uleb128 0x3b
 17996 02ad 0B       		.uleb128 0xb
 17997 02ae 00       		.byte	0
 17998 02af 00       		.byte	0
 17999 02b0 35       		.uleb128 0x35
 18000 02b1 16       		.uleb128 0x16
 18001 02b2 00       		.byte	0
 18002 02b3 03       		.uleb128 0x3
 18003 02b4 0E       		.uleb128 0xe
 18004 02b5 3A       		.uleb128 0x3a
 18005 02b6 0B       		.uleb128 0xb
 18006 02b7 3B       		.uleb128 0x3b
 18007 02b8 0B       		.uleb128 0xb
 18008 02b9 49       		.uleb128 0x49
 18009 02ba 13       		.uleb128 0x13
 18010 02bb 32       		.uleb128 0x32
 18011 02bc 0B       		.uleb128 0xb
 18012 02bd 00       		.byte	0
 18013 02be 00       		.byte	0
 18014 02bf 36       		.uleb128 0x36
 18015 02c0 2E       		.uleb128 0x2e
 18016 02c1 01       		.byte	0x1
 18017 02c2 3F       		.uleb128 0x3f
 18018 02c3 19       		.uleb128 0x19
 18019 02c4 03       		.uleb128 0x3
 18020 02c5 0E       		.uleb128 0xe
 18021 02c6 3A       		.uleb128 0x3a
 18022 02c7 0B       		.uleb128 0xb
 18023 02c8 3B       		.uleb128 0x3b
 18024 02c9 0B       		.uleb128 0xb
 18025 02ca 6E       		.uleb128 0x6e
 18026 02cb 0E       		.uleb128 0xe
 18027 02cc 49       		.uleb128 0x49
 18028 02cd 13       		.uleb128 0x13
 18029 02ce 32       		.uleb128 0x32
 18030 02cf 0B       		.uleb128 0xb
 18031 02d0 3C       		.uleb128 0x3c
 18032 02d1 19       		.uleb128 0x19
ARM GAS  /tmp/ccytVDiP.s 			page 318


 18033 02d2 64       		.uleb128 0x64
 18034 02d3 13       		.uleb128 0x13
 18035 02d4 01       		.uleb128 0x1
 18036 02d5 13       		.uleb128 0x13
 18037 02d6 00       		.byte	0
 18038 02d7 00       		.byte	0
 18039 02d8 37       		.uleb128 0x37
 18040 02d9 2E       		.uleb128 0x2e
 18041 02da 01       		.byte	0x1
 18042 02db 3F       		.uleb128 0x3f
 18043 02dc 19       		.uleb128 0x19
 18044 02dd 03       		.uleb128 0x3
 18045 02de 0E       		.uleb128 0xe
 18046 02df 3A       		.uleb128 0x3a
 18047 02e0 0B       		.uleb128 0xb
 18048 02e1 3B       		.uleb128 0x3b
 18049 02e2 0B       		.uleb128 0xb
 18050 02e3 6E       		.uleb128 0x6e
 18051 02e4 0E       		.uleb128 0xe
 18052 02e5 32       		.uleb128 0x32
 18053 02e6 0B       		.uleb128 0xb
 18054 02e7 3C       		.uleb128 0x3c
 18055 02e8 19       		.uleb128 0x19
 18056 02e9 64       		.uleb128 0x64
 18057 02ea 13       		.uleb128 0x13
 18058 02eb 01       		.uleb128 0x1
 18059 02ec 13       		.uleb128 0x13
 18060 02ed 00       		.byte	0
 18061 02ee 00       		.byte	0
 18062 02ef 38       		.uleb128 0x38
 18063 02f0 2E       		.uleb128 0x2e
 18064 02f1 01       		.byte	0x1
 18065 02f2 3F       		.uleb128 0x3f
 18066 02f3 19       		.uleb128 0x19
 18067 02f4 03       		.uleb128 0x3
 18068 02f5 0E       		.uleb128 0xe
 18069 02f6 49       		.uleb128 0x49
 18070 02f7 13       		.uleb128 0x13
 18071 02f8 34       		.uleb128 0x34
 18072 02f9 19       		.uleb128 0x19
 18073 02fa 32       		.uleb128 0x32
 18074 02fb 0B       		.uleb128 0xb
 18075 02fc 3C       		.uleb128 0x3c
 18076 02fd 19       		.uleb128 0x19
 18077 02fe 64       		.uleb128 0x64
 18078 02ff 13       		.uleb128 0x13
 18079 0300 00       		.byte	0
 18080 0301 00       		.byte	0
 18081 0302 39       		.uleb128 0x39
 18082 0303 0D       		.uleb128 0xd
 18083 0304 00       		.byte	0
 18084 0305 03       		.uleb128 0x3
 18085 0306 08       		.uleb128 0x8
 18086 0307 3A       		.uleb128 0x3a
 18087 0308 0B       		.uleb128 0xb
 18088 0309 3B       		.uleb128 0x3b
 18089 030a 0B       		.uleb128 0xb
ARM GAS  /tmp/ccytVDiP.s 			page 319


 18090 030b 49       		.uleb128 0x49
 18091 030c 13       		.uleb128 0x13
 18092 030d 38       		.uleb128 0x38
 18093 030e 0B       		.uleb128 0xb
 18094 030f 32       		.uleb128 0x32
 18095 0310 0B       		.uleb128 0xb
 18096 0311 00       		.byte	0
 18097 0312 00       		.byte	0
 18098 0313 3A       		.uleb128 0x3a
 18099 0314 0D       		.uleb128 0xd
 18100 0315 00       		.byte	0
 18101 0316 03       		.uleb128 0x3
 18102 0317 0E       		.uleb128 0xe
 18103 0318 3A       		.uleb128 0x3a
 18104 0319 0B       		.uleb128 0xb
 18105 031a 3B       		.uleb128 0x3b
 18106 031b 0B       		.uleb128 0xb
 18107 031c 49       		.uleb128 0x49
 18108 031d 13       		.uleb128 0x13
 18109 031e 3F       		.uleb128 0x3f
 18110 031f 19       		.uleb128 0x19
 18111 0320 32       		.uleb128 0x32
 18112 0321 0B       		.uleb128 0xb
 18113 0322 3C       		.uleb128 0x3c
 18114 0323 19       		.uleb128 0x19
 18115 0324 00       		.byte	0
 18116 0325 00       		.byte	0
 18117 0326 3B       		.uleb128 0x3b
 18118 0327 2E       		.uleb128 0x2e
 18119 0328 01       		.byte	0x1
 18120 0329 3F       		.uleb128 0x3f
 18121 032a 19       		.uleb128 0x19
 18122 032b 03       		.uleb128 0x3
 18123 032c 0E       		.uleb128 0xe
 18124 032d 3A       		.uleb128 0x3a
 18125 032e 0B       		.uleb128 0xb
 18126 032f 3B       		.uleb128 0x3b
 18127 0330 0B       		.uleb128 0xb
 18128 0331 49       		.uleb128 0x49
 18129 0332 13       		.uleb128 0x13
 18130 0333 32       		.uleb128 0x32
 18131 0334 0B       		.uleb128 0xb
 18132 0335 3C       		.uleb128 0x3c
 18133 0336 19       		.uleb128 0x19
 18134 0337 63       		.uleb128 0x63
 18135 0338 19       		.uleb128 0x19
 18136 0339 64       		.uleb128 0x64
 18137 033a 13       		.uleb128 0x13
 18138 033b 01       		.uleb128 0x1
 18139 033c 13       		.uleb128 0x13
 18140 033d 00       		.byte	0
 18141 033e 00       		.byte	0
 18142 033f 3C       		.uleb128 0x3c
 18143 0340 2E       		.uleb128 0x2e
 18144 0341 01       		.byte	0x1
 18145 0342 3F       		.uleb128 0x3f
 18146 0343 19       		.uleb128 0x19
ARM GAS  /tmp/ccytVDiP.s 			page 320


 18147 0344 03       		.uleb128 0x3
 18148 0345 08       		.uleb128 0x8
 18149 0346 3A       		.uleb128 0x3a
 18150 0347 0B       		.uleb128 0xb
 18151 0348 3B       		.uleb128 0x3b
 18152 0349 0B       		.uleb128 0xb
 18153 034a 6E       		.uleb128 0x6e
 18154 034b 0E       		.uleb128 0xe
 18155 034c 49       		.uleb128 0x49
 18156 034d 13       		.uleb128 0x13
 18157 034e 32       		.uleb128 0x32
 18158 034f 0B       		.uleb128 0xb
 18159 0350 3C       		.uleb128 0x3c
 18160 0351 19       		.uleb128 0x19
 18161 0352 01       		.uleb128 0x1
 18162 0353 13       		.uleb128 0x13
 18163 0354 00       		.byte	0
 18164 0355 00       		.byte	0
 18165 0356 3D       		.uleb128 0x3d
 18166 0357 2E       		.uleb128 0x2e
 18167 0358 00       		.byte	0
 18168 0359 3F       		.uleb128 0x3f
 18169 035a 19       		.uleb128 0x19
 18170 035b 03       		.uleb128 0x3
 18171 035c 08       		.uleb128 0x8
 18172 035d 3A       		.uleb128 0x3a
 18173 035e 0B       		.uleb128 0xb
 18174 035f 3B       		.uleb128 0x3b
 18175 0360 0B       		.uleb128 0xb
 18176 0361 6E       		.uleb128 0x6e
 18177 0362 0E       		.uleb128 0xe
 18178 0363 49       		.uleb128 0x49
 18179 0364 13       		.uleb128 0x13
 18180 0365 32       		.uleb128 0x32
 18181 0366 0B       		.uleb128 0xb
 18182 0367 3C       		.uleb128 0x3c
 18183 0368 19       		.uleb128 0x19
 18184 0369 00       		.byte	0
 18185 036a 00       		.byte	0
 18186 036b 3E       		.uleb128 0x3e
 18187 036c 2F       		.uleb128 0x2f
 18188 036d 00       		.byte	0
 18189 036e 03       		.uleb128 0x3
 18190 036f 08       		.uleb128 0x8
 18191 0370 49       		.uleb128 0x49
 18192 0371 13       		.uleb128 0x13
 18193 0372 00       		.byte	0
 18194 0373 00       		.byte	0
 18195 0374 3F       		.uleb128 0x3f
 18196 0375 13       		.uleb128 0x13
 18197 0376 01       		.byte	0x1
 18198 0377 03       		.uleb128 0x3
 18199 0378 0E       		.uleb128 0xe
 18200 0379 0B       		.uleb128 0xb
 18201 037a 0B       		.uleb128 0xb
 18202 037b 3A       		.uleb128 0x3a
 18203 037c 0B       		.uleb128 0xb
ARM GAS  /tmp/ccytVDiP.s 			page 321


 18204 037d 3B       		.uleb128 0x3b
 18205 037e 0B       		.uleb128 0xb
 18206 037f 32       		.uleb128 0x32
 18207 0380 0B       		.uleb128 0xb
 18208 0381 01       		.uleb128 0x1
 18209 0382 13       		.uleb128 0x13
 18210 0383 00       		.byte	0
 18211 0384 00       		.byte	0
 18212 0385 40       		.uleb128 0x40
 18213 0386 2E       		.uleb128 0x2e
 18214 0387 01       		.byte	0x1
 18215 0388 3F       		.uleb128 0x3f
 18216 0389 19       		.uleb128 0x19
 18217 038a 03       		.uleb128 0x3
 18218 038b 0E       		.uleb128 0xe
 18219 038c 3A       		.uleb128 0x3a
 18220 038d 0B       		.uleb128 0xb
 18221 038e 3B       		.uleb128 0x3b
 18222 038f 0B       		.uleb128 0xb
 18223 0390 49       		.uleb128 0x49
 18224 0391 13       		.uleb128 0x13
 18225 0392 3C       		.uleb128 0x3c
 18226 0393 19       		.uleb128 0x19
 18227 0394 64       		.uleb128 0x64
 18228 0395 13       		.uleb128 0x13
 18229 0396 00       		.byte	0
 18230 0397 00       		.byte	0
 18231 0398 41       		.uleb128 0x41
 18232 0399 13       		.uleb128 0x13
 18233 039a 00       		.byte	0
 18234 039b 03       		.uleb128 0x3
 18235 039c 0E       		.uleb128 0xe
 18236 039d 3C       		.uleb128 0x3c
 18237 039e 19       		.uleb128 0x19
 18238 039f 00       		.byte	0
 18239 03a0 00       		.byte	0
 18240 03a1 42       		.uleb128 0x42
 18241 03a2 02       		.uleb128 0x2
 18242 03a3 00       		.byte	0
 18243 03a4 03       		.uleb128 0x3
 18244 03a5 0E       		.uleb128 0xe
 18245 03a6 3C       		.uleb128 0x3c
 18246 03a7 19       		.uleb128 0x19
 18247 03a8 00       		.byte	0
 18248 03a9 00       		.byte	0
 18249 03aa 43       		.uleb128 0x43
 18250 03ab 02       		.uleb128 0x2
 18251 03ac 01       		.byte	0x1
 18252 03ad 03       		.uleb128 0x3
 18253 03ae 0E       		.uleb128 0xe
 18254 03af 0B       		.uleb128 0xb
 18255 03b0 0B       		.uleb128 0xb
 18256 03b1 3A       		.uleb128 0x3a
 18257 03b2 0B       		.uleb128 0xb
 18258 03b3 3B       		.uleb128 0x3b
 18259 03b4 0B       		.uleb128 0xb
 18260 03b5 32       		.uleb128 0x32
ARM GAS  /tmp/ccytVDiP.s 			page 322


 18261 03b6 0B       		.uleb128 0xb
 18262 03b7 01       		.uleb128 0x1
 18263 03b8 13       		.uleb128 0x13
 18264 03b9 00       		.byte	0
 18265 03ba 00       		.byte	0
 18266 03bb 44       		.uleb128 0x44
 18267 03bc 2E       		.uleb128 0x2e
 18268 03bd 01       		.byte	0x1
 18269 03be 3F       		.uleb128 0x3f
 18270 03bf 19       		.uleb128 0x19
 18271 03c0 03       		.uleb128 0x3
 18272 03c1 0E       		.uleb128 0xe
 18273 03c2 3A       		.uleb128 0x3a
 18274 03c3 0B       		.uleb128 0xb
 18275 03c4 3B       		.uleb128 0x3b
 18276 03c5 0B       		.uleb128 0xb
 18277 03c6 6E       		.uleb128 0x6e
 18278 03c7 0E       		.uleb128 0xe
 18279 03c8 49       		.uleb128 0x49
 18280 03c9 13       		.uleb128 0x13
 18281 03ca 3C       		.uleb128 0x3c
 18282 03cb 19       		.uleb128 0x19
 18283 03cc 64       		.uleb128 0x64
 18284 03cd 13       		.uleb128 0x13
 18285 03ce 01       		.uleb128 0x1
 18286 03cf 13       		.uleb128 0x13
 18287 03d0 00       		.byte	0
 18288 03d1 00       		.byte	0
 18289 03d2 45       		.uleb128 0x45
 18290 03d3 2E       		.uleb128 0x2e
 18291 03d4 01       		.byte	0x1
 18292 03d5 3F       		.uleb128 0x3f
 18293 03d6 19       		.uleb128 0x19
 18294 03d7 03       		.uleb128 0x3
 18295 03d8 0E       		.uleb128 0xe
 18296 03d9 3A       		.uleb128 0x3a
 18297 03da 0B       		.uleb128 0xb
 18298 03db 3B       		.uleb128 0x3b
 18299 03dc 0B       		.uleb128 0xb
 18300 03dd 6E       		.uleb128 0x6e
 18301 03de 0E       		.uleb128 0xe
 18302 03df 49       		.uleb128 0x49
 18303 03e0 13       		.uleb128 0x13
 18304 03e1 32       		.uleb128 0x32
 18305 03e2 0B       		.uleb128 0xb
 18306 03e3 3C       		.uleb128 0x3c
 18307 03e4 19       		.uleb128 0x19
 18308 03e5 64       		.uleb128 0x64
 18309 03e6 13       		.uleb128 0x13
 18310 03e7 00       		.byte	0
 18311 03e8 00       		.byte	0
 18312 03e9 46       		.uleb128 0x46
 18313 03ea 2E       		.uleb128 0x2e
 18314 03eb 01       		.byte	0x1
 18315 03ec 3F       		.uleb128 0x3f
 18316 03ed 19       		.uleb128 0x19
 18317 03ee 03       		.uleb128 0x3
ARM GAS  /tmp/ccytVDiP.s 			page 323


 18318 03ef 0E       		.uleb128 0xe
 18319 03f0 3A       		.uleb128 0x3a
 18320 03f1 0B       		.uleb128 0xb
 18321 03f2 3B       		.uleb128 0x3b
 18322 03f3 05       		.uleb128 0x5
 18323 03f4 6E       		.uleb128 0x6e
 18324 03f5 0E       		.uleb128 0xe
 18325 03f6 49       		.uleb128 0x49
 18326 03f7 13       		.uleb128 0x13
 18327 03f8 32       		.uleb128 0x32
 18328 03f9 0B       		.uleb128 0xb
 18329 03fa 3C       		.uleb128 0x3c
 18330 03fb 19       		.uleb128 0x19
 18331 03fc 64       		.uleb128 0x64
 18332 03fd 13       		.uleb128 0x13
 18333 03fe 01       		.uleb128 0x1
 18334 03ff 13       		.uleb128 0x13
 18335 0400 00       		.byte	0
 18336 0401 00       		.byte	0
 18337 0402 47       		.uleb128 0x47
 18338 0403 2E       		.uleb128 0x2e
 18339 0404 01       		.byte	0x1
 18340 0405 3F       		.uleb128 0x3f
 18341 0406 19       		.uleb128 0x19
 18342 0407 03       		.uleb128 0x3
 18343 0408 0E       		.uleb128 0xe
 18344 0409 3A       		.uleb128 0x3a
 18345 040a 0B       		.uleb128 0xb
 18346 040b 3B       		.uleb128 0x3b
 18347 040c 05       		.uleb128 0x5
 18348 040d 6E       		.uleb128 0x6e
 18349 040e 0E       		.uleb128 0xe
 18350 040f 32       		.uleb128 0x32
 18351 0410 0B       		.uleb128 0xb
 18352 0411 3C       		.uleb128 0x3c
 18353 0412 19       		.uleb128 0x19
 18354 0413 64       		.uleb128 0x64
 18355 0414 13       		.uleb128 0x13
 18356 0415 01       		.uleb128 0x1
 18357 0416 13       		.uleb128 0x13
 18358 0417 00       		.byte	0
 18359 0418 00       		.byte	0
 18360 0419 48       		.uleb128 0x48
 18361 041a 2E       		.uleb128 0x2e
 18362 041b 01       		.byte	0x1
 18363 041c 3F       		.uleb128 0x3f
 18364 041d 19       		.uleb128 0x19
 18365 041e 03       		.uleb128 0x3
 18366 041f 08       		.uleb128 0x8
 18367 0420 3A       		.uleb128 0x3a
 18368 0421 0B       		.uleb128 0xb
 18369 0422 3B       		.uleb128 0x3b
 18370 0423 05       		.uleb128 0x5
 18371 0424 6E       		.uleb128 0x6e
 18372 0425 0E       		.uleb128 0xe
 18373 0426 49       		.uleb128 0x49
 18374 0427 13       		.uleb128 0x13
ARM GAS  /tmp/ccytVDiP.s 			page 324


 18375 0428 32       		.uleb128 0x32
 18376 0429 0B       		.uleb128 0xb
 18377 042a 3C       		.uleb128 0x3c
 18378 042b 19       		.uleb128 0x19
 18379 042c 64       		.uleb128 0x64
 18380 042d 13       		.uleb128 0x13
 18381 042e 01       		.uleb128 0x1
 18382 042f 13       		.uleb128 0x13
 18383 0430 00       		.byte	0
 18384 0431 00       		.byte	0
 18385 0432 49       		.uleb128 0x49
 18386 0433 2E       		.uleb128 0x2e
 18387 0434 01       		.byte	0x1
 18388 0435 3F       		.uleb128 0x3f
 18389 0436 19       		.uleb128 0x19
 18390 0437 03       		.uleb128 0x3
 18391 0438 0E       		.uleb128 0xe
 18392 0439 3A       		.uleb128 0x3a
 18393 043a 0B       		.uleb128 0xb
 18394 043b 3B       		.uleb128 0x3b
 18395 043c 05       		.uleb128 0x5
 18396 043d 49       		.uleb128 0x49
 18397 043e 13       		.uleb128 0x13
 18398 043f 32       		.uleb128 0x32
 18399 0440 0B       		.uleb128 0xb
 18400 0441 3C       		.uleb128 0x3c
 18401 0442 19       		.uleb128 0x19
 18402 0443 64       		.uleb128 0x64
 18403 0444 13       		.uleb128 0x13
 18404 0445 01       		.uleb128 0x1
 18405 0446 13       		.uleb128 0x13
 18406 0447 00       		.byte	0
 18407 0448 00       		.byte	0
 18408 0449 4A       		.uleb128 0x4a
 18409 044a 2E       		.uleb128 0x2e
 18410 044b 01       		.byte	0x1
 18411 044c 3F       		.uleb128 0x3f
 18412 044d 19       		.uleb128 0x19
 18413 044e 03       		.uleb128 0x3
 18414 044f 0E       		.uleb128 0xe
 18415 0450 49       		.uleb128 0x49
 18416 0451 13       		.uleb128 0x13
 18417 0452 34       		.uleb128 0x34
 18418 0453 19       		.uleb128 0x19
 18419 0454 32       		.uleb128 0x32
 18420 0455 0B       		.uleb128 0xb
 18421 0456 3C       		.uleb128 0x3c
 18422 0457 19       		.uleb128 0x19
 18423 0458 64       		.uleb128 0x64
 18424 0459 13       		.uleb128 0x13
 18425 045a 01       		.uleb128 0x1
 18426 045b 13       		.uleb128 0x13
 18427 045c 00       		.byte	0
 18428 045d 00       		.byte	0
 18429 045e 4B       		.uleb128 0x4b
 18430 045f 2F       		.uleb128 0x2f
 18431 0460 00       		.byte	0
ARM GAS  /tmp/ccytVDiP.s 			page 325


 18432 0461 03       		.uleb128 0x3
 18433 0462 0E       		.uleb128 0xe
 18434 0463 49       		.uleb128 0x49
 18435 0464 13       		.uleb128 0x13
 18436 0465 00       		.byte	0
 18437 0466 00       		.byte	0
 18438 0467 4C       		.uleb128 0x4c
 18439 0468 02       		.uleb128 0x2
 18440 0469 01       		.byte	0x1
 18441 046a 03       		.uleb128 0x3
 18442 046b 0E       		.uleb128 0xe
 18443 046c 3C       		.uleb128 0x3c
 18444 046d 19       		.uleb128 0x19
 18445 046e 01       		.uleb128 0x1
 18446 046f 13       		.uleb128 0x13
 18447 0470 00       		.byte	0
 18448 0471 00       		.byte	0
 18449 0472 4D       		.uleb128 0x4d
 18450 0473 2E       		.uleb128 0x2e
 18451 0474 01       		.byte	0x1
 18452 0475 3F       		.uleb128 0x3f
 18453 0476 19       		.uleb128 0x19
 18454 0477 03       		.uleb128 0x3
 18455 0478 0E       		.uleb128 0xe
 18456 0479 3A       		.uleb128 0x3a
 18457 047a 0B       		.uleb128 0xb
 18458 047b 3B       		.uleb128 0x3b
 18459 047c 0B       		.uleb128 0xb
 18460 047d 6E       		.uleb128 0x6e
 18461 047e 0E       		.uleb128 0xe
 18462 047f 49       		.uleb128 0x49
 18463 0480 13       		.uleb128 0x13
 18464 0481 4C       		.uleb128 0x4c
 18465 0482 0B       		.uleb128 0xb
 18466 0483 4D       		.uleb128 0x4d
 18467 0484 18       		.uleb128 0x18
 18468 0485 1D       		.uleb128 0x1d
 18469 0486 13       		.uleb128 0x13
 18470 0487 32       		.uleb128 0x32
 18471 0488 0B       		.uleb128 0xb
 18472 0489 3C       		.uleb128 0x3c
 18473 048a 19       		.uleb128 0x19
 18474 048b 64       		.uleb128 0x64
 18475 048c 13       		.uleb128 0x13
 18476 048d 01       		.uleb128 0x1
 18477 048e 13       		.uleb128 0x13
 18478 048f 00       		.byte	0
 18479 0490 00       		.byte	0
 18480 0491 4E       		.uleb128 0x4e
 18481 0492 2E       		.uleb128 0x2e
 18482 0493 01       		.byte	0x1
 18483 0494 3F       		.uleb128 0x3f
 18484 0495 19       		.uleb128 0x19
 18485 0496 03       		.uleb128 0x3
 18486 0497 0E       		.uleb128 0xe
 18487 0498 3A       		.uleb128 0x3a
 18488 0499 0B       		.uleb128 0xb
ARM GAS  /tmp/ccytVDiP.s 			page 326


 18489 049a 3B       		.uleb128 0x3b
 18490 049b 0B       		.uleb128 0xb
 18491 049c 6E       		.uleb128 0x6e
 18492 049d 0E       		.uleb128 0xe
 18493 049e 49       		.uleb128 0x49
 18494 049f 13       		.uleb128 0x13
 18495 04a0 4C       		.uleb128 0x4c
 18496 04a1 0B       		.uleb128 0xb
 18497 04a2 4D       		.uleb128 0x4d
 18498 04a3 18       		.uleb128 0x18
 18499 04a4 1D       		.uleb128 0x1d
 18500 04a5 13       		.uleb128 0x13
 18501 04a6 32       		.uleb128 0x32
 18502 04a7 0B       		.uleb128 0xb
 18503 04a8 3C       		.uleb128 0x3c
 18504 04a9 19       		.uleb128 0x19
 18505 04aa 64       		.uleb128 0x64
 18506 04ab 13       		.uleb128 0x13
 18507 04ac 00       		.byte	0
 18508 04ad 00       		.byte	0
 18509 04ae 4F       		.uleb128 0x4f
 18510 04af 2E       		.uleb128 0x2e
 18511 04b0 01       		.byte	0x1
 18512 04b1 3F       		.uleb128 0x3f
 18513 04b2 19       		.uleb128 0x19
 18514 04b3 03       		.uleb128 0x3
 18515 04b4 0E       		.uleb128 0xe
 18516 04b5 3A       		.uleb128 0x3a
 18517 04b6 0B       		.uleb128 0xb
 18518 04b7 3B       		.uleb128 0x3b
 18519 04b8 0B       		.uleb128 0xb
 18520 04b9 6E       		.uleb128 0x6e
 18521 04ba 0E       		.uleb128 0xe
 18522 04bb 3C       		.uleb128 0x3c
 18523 04bc 19       		.uleb128 0x19
 18524 04bd 64       		.uleb128 0x64
 18525 04be 13       		.uleb128 0x13
 18526 04bf 01       		.uleb128 0x1
 18527 04c0 13       		.uleb128 0x13
 18528 04c1 00       		.byte	0
 18529 04c2 00       		.byte	0
 18530 04c3 50       		.uleb128 0x50
 18531 04c4 2E       		.uleb128 0x2e
 18532 04c5 01       		.byte	0x1
 18533 04c6 3F       		.uleb128 0x3f
 18534 04c7 19       		.uleb128 0x19
 18535 04c8 03       		.uleb128 0x3
 18536 04c9 0E       		.uleb128 0xe
 18537 04ca 3A       		.uleb128 0x3a
 18538 04cb 0B       		.uleb128 0xb
 18539 04cc 3B       		.uleb128 0x3b
 18540 04cd 0B       		.uleb128 0xb
 18541 04ce 6E       		.uleb128 0x6e
 18542 04cf 0E       		.uleb128 0xe
 18543 04d0 49       		.uleb128 0x49
 18544 04d1 13       		.uleb128 0x13
 18545 04d2 32       		.uleb128 0x32
ARM GAS  /tmp/ccytVDiP.s 			page 327


 18546 04d3 0B       		.uleb128 0xb
 18547 04d4 3C       		.uleb128 0x3c
 18548 04d5 19       		.uleb128 0x19
 18549 04d6 01       		.uleb128 0x1
 18550 04d7 13       		.uleb128 0x13
 18551 04d8 00       		.byte	0
 18552 04d9 00       		.byte	0
 18553 04da 51       		.uleb128 0x51
 18554 04db 2E       		.uleb128 0x2e
 18555 04dc 01       		.byte	0x1
 18556 04dd 3F       		.uleb128 0x3f
 18557 04de 19       		.uleb128 0x19
 18558 04df 03       		.uleb128 0x3
 18559 04e0 0E       		.uleb128 0xe
 18560 04e1 3A       		.uleb128 0x3a
 18561 04e2 0B       		.uleb128 0xb
 18562 04e3 3B       		.uleb128 0x3b
 18563 04e4 0B       		.uleb128 0xb
 18564 04e5 6E       		.uleb128 0x6e
 18565 04e6 0E       		.uleb128 0xe
 18566 04e7 32       		.uleb128 0x32
 18567 04e8 0B       		.uleb128 0xb
 18568 04e9 3C       		.uleb128 0x3c
 18569 04ea 19       		.uleb128 0x19
 18570 04eb 01       		.uleb128 0x1
 18571 04ec 13       		.uleb128 0x13
 18572 04ed 00       		.byte	0
 18573 04ee 00       		.byte	0
 18574 04ef 52       		.uleb128 0x52
 18575 04f0 2E       		.uleb128 0x2e
 18576 04f1 01       		.byte	0x1
 18577 04f2 3F       		.uleb128 0x3f
 18578 04f3 19       		.uleb128 0x19
 18579 04f4 03       		.uleb128 0x3
 18580 04f5 0E       		.uleb128 0xe
 18581 04f6 3A       		.uleb128 0x3a
 18582 04f7 0B       		.uleb128 0xb
 18583 04f8 3B       		.uleb128 0x3b
 18584 04f9 0B       		.uleb128 0xb
 18585 04fa 6E       		.uleb128 0x6e
 18586 04fb 0E       		.uleb128 0xe
 18587 04fc 49       		.uleb128 0x49
 18588 04fd 13       		.uleb128 0x13
 18589 04fe 32       		.uleb128 0x32
 18590 04ff 0B       		.uleb128 0xb
 18591 0500 3C       		.uleb128 0x3c
 18592 0501 19       		.uleb128 0x19
 18593 0502 00       		.byte	0
 18594 0503 00       		.byte	0
 18595 0504 53       		.uleb128 0x53
 18596 0505 02       		.uleb128 0x2
 18597 0506 01       		.byte	0x1
 18598 0507 03       		.uleb128 0x3
 18599 0508 0E       		.uleb128 0xe
 18600 0509 0B       		.uleb128 0xb
 18601 050a 0B       		.uleb128 0xb
 18602 050b 3A       		.uleb128 0x3a
ARM GAS  /tmp/ccytVDiP.s 			page 328


 18603 050c 0B       		.uleb128 0xb
 18604 050d 3B       		.uleb128 0x3b
 18605 050e 0B       		.uleb128 0xb
 18606 050f 1D       		.uleb128 0x1d
 18607 0510 13       		.uleb128 0x13
 18608 0511 01       		.uleb128 0x1
 18609 0512 13       		.uleb128 0x13
 18610 0513 00       		.byte	0
 18611 0514 00       		.byte	0
 18612 0515 54       		.uleb128 0x54
 18613 0516 1C       		.uleb128 0x1c
 18614 0517 00       		.byte	0
 18615 0518 49       		.uleb128 0x49
 18616 0519 13       		.uleb128 0x13
 18617 051a 38       		.uleb128 0x38
 18618 051b 0B       		.uleb128 0xb
 18619 051c 32       		.uleb128 0x32
 18620 051d 0B       		.uleb128 0xb
 18621 051e 00       		.byte	0
 18622 051f 00       		.byte	0
 18623 0520 55       		.uleb128 0x55
 18624 0521 2E       		.uleb128 0x2e
 18625 0522 01       		.byte	0x1
 18626 0523 3F       		.uleb128 0x3f
 18627 0524 19       		.uleb128 0x19
 18628 0525 03       		.uleb128 0x3
 18629 0526 0E       		.uleb128 0xe
 18630 0527 3A       		.uleb128 0x3a
 18631 0528 0B       		.uleb128 0xb
 18632 0529 3B       		.uleb128 0x3b
 18633 052a 0B       		.uleb128 0xb
 18634 052b 49       		.uleb128 0x49
 18635 052c 13       		.uleb128 0x13
 18636 052d 4C       		.uleb128 0x4c
 18637 052e 0B       		.uleb128 0xb
 18638 052f 1D       		.uleb128 0x1d
 18639 0530 13       		.uleb128 0x13
 18640 0531 32       		.uleb128 0x32
 18641 0532 0B       		.uleb128 0xb
 18642 0533 3C       		.uleb128 0x3c
 18643 0534 19       		.uleb128 0x19
 18644 0535 64       		.uleb128 0x64
 18645 0536 13       		.uleb128 0x13
 18646 0537 00       		.byte	0
 18647 0538 00       		.byte	0
 18648 0539 56       		.uleb128 0x56
 18649 053a 2E       		.uleb128 0x2e
 18650 053b 00       		.byte	0
 18651 053c 3F       		.uleb128 0x3f
 18652 053d 19       		.uleb128 0x19
 18653 053e 03       		.uleb128 0x3
 18654 053f 0E       		.uleb128 0xe
 18655 0540 3A       		.uleb128 0x3a
 18656 0541 0B       		.uleb128 0xb
 18657 0542 3B       		.uleb128 0x3b
 18658 0543 0B       		.uleb128 0xb
 18659 0544 6E       		.uleb128 0x6e
ARM GAS  /tmp/ccytVDiP.s 			page 329


 18660 0545 0E       		.uleb128 0xe
 18661 0546 49       		.uleb128 0x49
 18662 0547 13       		.uleb128 0x13
 18663 0548 32       		.uleb128 0x32
 18664 0549 0B       		.uleb128 0xb
 18665 054a 3C       		.uleb128 0x3c
 18666 054b 19       		.uleb128 0x19
 18667 054c 00       		.byte	0
 18668 054d 00       		.byte	0
 18669 054e 57       		.uleb128 0x57
 18670 054f 04       		.uleb128 0x4
 18671 0550 01       		.byte	0x1
 18672 0551 03       		.uleb128 0x3
 18673 0552 0E       		.uleb128 0xe
 18674 0553 0B       		.uleb128 0xb
 18675 0554 0B       		.uleb128 0xb
 18676 0555 3A       		.uleb128 0x3a
 18677 0556 0B       		.uleb128 0xb
 18678 0557 3B       		.uleb128 0x3b
 18679 0558 0B       		.uleb128 0xb
 18680 0559 32       		.uleb128 0x32
 18681 055a 0B       		.uleb128 0xb
 18682 055b 01       		.uleb128 0x1
 18683 055c 13       		.uleb128 0x13
 18684 055d 00       		.byte	0
 18685 055e 00       		.byte	0
 18686 055f 58       		.uleb128 0x58
 18687 0560 0D       		.uleb128 0xd
 18688 0561 00       		.byte	0
 18689 0562 03       		.uleb128 0x3
 18690 0563 0E       		.uleb128 0xe
 18691 0564 3A       		.uleb128 0x3a
 18692 0565 0B       		.uleb128 0xb
 18693 0566 3B       		.uleb128 0x3b
 18694 0567 0B       		.uleb128 0xb
 18695 0568 49       		.uleb128 0x49
 18696 0569 13       		.uleb128 0x13
 18697 056a 0B       		.uleb128 0xb
 18698 056b 0B       		.uleb128 0xb
 18699 056c 0D       		.uleb128 0xd
 18700 056d 0B       		.uleb128 0xb
 18701 056e 0C       		.uleb128 0xc
 18702 056f 0B       		.uleb128 0xb
 18703 0570 38       		.uleb128 0x38
 18704 0571 0B       		.uleb128 0xb
 18705 0572 00       		.byte	0
 18706 0573 00       		.byte	0
 18707 0574 59       		.uleb128 0x59
 18708 0575 17       		.uleb128 0x17
 18709 0576 01       		.byte	0x1
 18710 0577 0B       		.uleb128 0xb
 18711 0578 0B       		.uleb128 0xb
 18712 0579 3A       		.uleb128 0x3a
 18713 057a 0B       		.uleb128 0xb
 18714 057b 3B       		.uleb128 0x3b
 18715 057c 0B       		.uleb128 0xb
 18716 057d 32       		.uleb128 0x32
ARM GAS  /tmp/ccytVDiP.s 			page 330


 18717 057e 0B       		.uleb128 0xb
 18718 057f 01       		.uleb128 0x1
 18719 0580 13       		.uleb128 0x13
 18720 0581 00       		.byte	0
 18721 0582 00       		.byte	0
 18722 0583 5A       		.uleb128 0x5a
 18723 0584 0D       		.uleb128 0xd
 18724 0585 00       		.byte	0
 18725 0586 49       		.uleb128 0x49
 18726 0587 13       		.uleb128 0x13
 18727 0588 38       		.uleb128 0x38
 18728 0589 0B       		.uleb128 0xb
 18729 058a 32       		.uleb128 0x32
 18730 058b 0B       		.uleb128 0xb
 18731 058c 00       		.byte	0
 18732 058d 00       		.byte	0
 18733 058e 5B       		.uleb128 0x5b
 18734 058f 0D       		.uleb128 0xd
 18735 0590 00       		.byte	0
 18736 0591 03       		.uleb128 0x3
 18737 0592 0E       		.uleb128 0xe
 18738 0593 3A       		.uleb128 0x3a
 18739 0594 0B       		.uleb128 0xb
 18740 0595 3B       		.uleb128 0x3b
 18741 0596 0B       		.uleb128 0xb
 18742 0597 49       		.uleb128 0x49
 18743 0598 13       		.uleb128 0x13
 18744 0599 38       		.uleb128 0x38
 18745 059a 0B       		.uleb128 0xb
 18746 059b 32       		.uleb128 0x32
 18747 059c 0B       		.uleb128 0xb
 18748 059d 00       		.byte	0
 18749 059e 00       		.byte	0
 18750 059f 5C       		.uleb128 0x5c
 18751 05a0 04       		.uleb128 0x4
 18752 05a1 01       		.byte	0x1
 18753 05a2 0B       		.uleb128 0xb
 18754 05a3 0B       		.uleb128 0xb
 18755 05a4 3A       		.uleb128 0x3a
 18756 05a5 0B       		.uleb128 0xb
 18757 05a6 3B       		.uleb128 0x3b
 18758 05a7 0B       		.uleb128 0xb
 18759 05a8 32       		.uleb128 0x32
 18760 05a9 0B       		.uleb128 0xb
 18761 05aa 01       		.uleb128 0x1
 18762 05ab 13       		.uleb128 0x13
 18763 05ac 00       		.byte	0
 18764 05ad 00       		.byte	0
 18765 05ae 5D       		.uleb128 0x5d
 18766 05af 2E       		.uleb128 0x2e
 18767 05b0 01       		.byte	0x1
 18768 05b1 3F       		.uleb128 0x3f
 18769 05b2 19       		.uleb128 0x19
 18770 05b3 03       		.uleb128 0x3
 18771 05b4 08       		.uleb128 0x8
 18772 05b5 3A       		.uleb128 0x3a
 18773 05b6 0B       		.uleb128 0xb
ARM GAS  /tmp/ccytVDiP.s 			page 331


 18774 05b7 3B       		.uleb128 0x3b
 18775 05b8 0B       		.uleb128 0xb
 18776 05b9 6E       		.uleb128 0x6e
 18777 05ba 0E       		.uleb128 0xe
 18778 05bb 49       		.uleb128 0x49
 18779 05bc 13       		.uleb128 0x13
 18780 05bd 32       		.uleb128 0x32
 18781 05be 0B       		.uleb128 0xb
 18782 05bf 3C       		.uleb128 0x3c
 18783 05c0 19       		.uleb128 0x19
 18784 05c1 64       		.uleb128 0x64
 18785 05c2 13       		.uleb128 0x13
 18786 05c3 01       		.uleb128 0x1
 18787 05c4 13       		.uleb128 0x13
 18788 05c5 00       		.byte	0
 18789 05c6 00       		.byte	0
 18790 05c7 5E       		.uleb128 0x5e
 18791 05c8 2E       		.uleb128 0x2e
 18792 05c9 01       		.byte	0x1
 18793 05ca 3F       		.uleb128 0x3f
 18794 05cb 19       		.uleb128 0x19
 18795 05cc 03       		.uleb128 0x3
 18796 05cd 0E       		.uleb128 0xe
 18797 05ce 3A       		.uleb128 0x3a
 18798 05cf 0B       		.uleb128 0xb
 18799 05d0 3B       		.uleb128 0x3b
 18800 05d1 0B       		.uleb128 0xb
 18801 05d2 6E       		.uleb128 0x6e
 18802 05d3 0E       		.uleb128 0xe
 18803 05d4 32       		.uleb128 0x32
 18804 05d5 0B       		.uleb128 0xb
 18805 05d6 3C       		.uleb128 0x3c
 18806 05d7 19       		.uleb128 0x19
 18807 05d8 00       		.byte	0
 18808 05d9 00       		.byte	0
 18809 05da 5F       		.uleb128 0x5f
 18810 05db 0D       		.uleb128 0xd
 18811 05dc 00       		.byte	0
 18812 05dd 03       		.uleb128 0x3
 18813 05de 0E       		.uleb128 0xe
 18814 05df 49       		.uleb128 0x49
 18815 05e0 13       		.uleb128 0x13
 18816 05e1 38       		.uleb128 0x38
 18817 05e2 0B       		.uleb128 0xb
 18818 05e3 34       		.uleb128 0x34
 18819 05e4 19       		.uleb128 0x19
 18820 05e5 32       		.uleb128 0x32
 18821 05e6 0B       		.uleb128 0xb
 18822 05e7 00       		.byte	0
 18823 05e8 00       		.byte	0
 18824 05e9 60       		.uleb128 0x60
 18825 05ea 2E       		.uleb128 0x2e
 18826 05eb 01       		.byte	0x1
 18827 05ec 3F       		.uleb128 0x3f
 18828 05ed 19       		.uleb128 0x19
 18829 05ee 03       		.uleb128 0x3
 18830 05ef 0E       		.uleb128 0xe
ARM GAS  /tmp/ccytVDiP.s 			page 332


 18831 05f0 3A       		.uleb128 0x3a
 18832 05f1 0B       		.uleb128 0xb
 18833 05f2 3B       		.uleb128 0x3b
 18834 05f3 0B       		.uleb128 0xb
 18835 05f4 49       		.uleb128 0x49
 18836 05f5 13       		.uleb128 0x13
 18837 05f6 4C       		.uleb128 0x4c
 18838 05f7 0B       		.uleb128 0xb
 18839 05f8 1D       		.uleb128 0x1d
 18840 05f9 13       		.uleb128 0x13
 18841 05fa 32       		.uleb128 0x32
 18842 05fb 0B       		.uleb128 0xb
 18843 05fc 3C       		.uleb128 0x3c
 18844 05fd 19       		.uleb128 0x19
 18845 05fe 64       		.uleb128 0x64
 18846 05ff 13       		.uleb128 0x13
 18847 0600 01       		.uleb128 0x1
 18848 0601 13       		.uleb128 0x13
 18849 0602 00       		.byte	0
 18850 0603 00       		.byte	0
 18851 0604 61       		.uleb128 0x61
 18852 0605 04       		.uleb128 0x4
 18853 0606 01       		.byte	0x1
 18854 0607 0B       		.uleb128 0xb
 18855 0608 0B       		.uleb128 0xb
 18856 0609 3A       		.uleb128 0x3a
 18857 060a 0B       		.uleb128 0xb
 18858 060b 3B       		.uleb128 0x3b
 18859 060c 0B       		.uleb128 0xb
 18860 060d 01       		.uleb128 0x1
 18861 060e 13       		.uleb128 0x13
 18862 060f 00       		.byte	0
 18863 0610 00       		.byte	0
 18864 0611 62       		.uleb128 0x62
 18865 0612 02       		.uleb128 0x2
 18866 0613 01       		.byte	0x1
 18867 0614 03       		.uleb128 0x3
 18868 0615 0E       		.uleb128 0xe
 18869 0616 0B       		.uleb128 0xb
 18870 0617 05       		.uleb128 0x5
 18871 0618 3A       		.uleb128 0x3a
 18872 0619 0B       		.uleb128 0xb
 18873 061a 3B       		.uleb128 0x3b
 18874 061b 0B       		.uleb128 0xb
 18875 061c 01       		.uleb128 0x1
 18876 061d 13       		.uleb128 0x13
 18877 061e 00       		.byte	0
 18878 061f 00       		.byte	0
 18879 0620 63       		.uleb128 0x63
 18880 0621 2E       		.uleb128 0x2e
 18881 0622 01       		.byte	0x1
 18882 0623 3F       		.uleb128 0x3f
 18883 0624 19       		.uleb128 0x19
 18884 0625 03       		.uleb128 0x3
 18885 0626 08       		.uleb128 0x8
 18886 0627 3A       		.uleb128 0x3a
 18887 0628 0B       		.uleb128 0xb
ARM GAS  /tmp/ccytVDiP.s 			page 333


 18888 0629 3B       		.uleb128 0x3b
 18889 062a 0B       		.uleb128 0xb
 18890 062b 6E       		.uleb128 0x6e
 18891 062c 0E       		.uleb128 0xe
 18892 062d 32       		.uleb128 0x32
 18893 062e 0B       		.uleb128 0xb
 18894 062f 3C       		.uleb128 0x3c
 18895 0630 19       		.uleb128 0x19
 18896 0631 64       		.uleb128 0x64
 18897 0632 13       		.uleb128 0x13
 18898 0633 01       		.uleb128 0x1
 18899 0634 13       		.uleb128 0x13
 18900 0635 00       		.byte	0
 18901 0636 00       		.byte	0
 18902 0637 64       		.uleb128 0x64
 18903 0638 2E       		.uleb128 0x2e
 18904 0639 01       		.byte	0x1
 18905 063a 3F       		.uleb128 0x3f
 18906 063b 19       		.uleb128 0x19
 18907 063c 03       		.uleb128 0x3
 18908 063d 0E       		.uleb128 0xe
 18909 063e 3A       		.uleb128 0x3a
 18910 063f 0B       		.uleb128 0xb
 18911 0640 3B       		.uleb128 0x3b
 18912 0641 0B       		.uleb128 0xb
 18913 0642 6E       		.uleb128 0x6e
 18914 0643 0E       		.uleb128 0xe
 18915 0644 49       		.uleb128 0x49
 18916 0645 13       		.uleb128 0x13
 18917 0646 3C       		.uleb128 0x3c
 18918 0647 19       		.uleb128 0x19
 18919 0648 01       		.uleb128 0x1
 18920 0649 13       		.uleb128 0x13
 18921 064a 00       		.byte	0
 18922 064b 00       		.byte	0
 18923 064c 65       		.uleb128 0x65
 18924 064d 2E       		.uleb128 0x2e
 18925 064e 01       		.byte	0x1
 18926 064f 3F       		.uleb128 0x3f
 18927 0650 19       		.uleb128 0x19
 18928 0651 03       		.uleb128 0x3
 18929 0652 0E       		.uleb128 0xe
 18930 0653 3A       		.uleb128 0x3a
 18931 0654 0B       		.uleb128 0xb
 18932 0655 3B       		.uleb128 0x3b
 18933 0656 0B       		.uleb128 0xb
 18934 0657 3C       		.uleb128 0x3c
 18935 0658 19       		.uleb128 0x19
 18936 0659 00       		.byte	0
 18937 065a 00       		.byte	0
 18938 065b 66       		.uleb128 0x66
 18939 065c 10       		.uleb128 0x10
 18940 065d 00       		.byte	0
 18941 065e 0B       		.uleb128 0xb
 18942 065f 0B       		.uleb128 0xb
 18943 0660 49       		.uleb128 0x49
 18944 0661 13       		.uleb128 0x13
ARM GAS  /tmp/ccytVDiP.s 			page 334


 18945 0662 00       		.byte	0
 18946 0663 00       		.byte	0
 18947 0664 67       		.uleb128 0x67
 18948 0665 26       		.uleb128 0x26
 18949 0666 00       		.byte	0
 18950 0667 00       		.byte	0
 18951 0668 00       		.byte	0
 18952 0669 68       		.uleb128 0x68
 18953 066a 18       		.uleb128 0x18
 18954 066b 00       		.byte	0
 18955 066c 00       		.byte	0
 18956 066d 00       		.byte	0
 18957 066e 69       		.uleb128 0x69
 18958 066f 0F       		.uleb128 0xf
 18959 0670 00       		.byte	0
 18960 0671 0B       		.uleb128 0xb
 18961 0672 0B       		.uleb128 0xb
 18962 0673 03       		.uleb128 0x3
 18963 0674 0E       		.uleb128 0xe
 18964 0675 49       		.uleb128 0x49
 18965 0676 13       		.uleb128 0x13
 18966 0677 00       		.byte	0
 18967 0678 00       		.byte	0
 18968 0679 6A       		.uleb128 0x6a
 18969 067a 2E       		.uleb128 0x2e
 18970 067b 01       		.byte	0x1
 18971 067c 47       		.uleb128 0x47
 18972 067d 13       		.uleb128 0x13
 18973 067e 20       		.uleb128 0x20
 18974 067f 0B       		.uleb128 0xb
 18975 0680 01       		.uleb128 0x1
 18976 0681 13       		.uleb128 0x13
 18977 0682 00       		.byte	0
 18978 0683 00       		.byte	0
 18979 0684 6B       		.uleb128 0x6b
 18980 0685 0B       		.uleb128 0xb
 18981 0686 01       		.byte	0x1
 18982 0687 00       		.byte	0
 18983 0688 00       		.byte	0
 18984 0689 6C       		.uleb128 0x6c
 18985 068a 34       		.uleb128 0x34
 18986 068b 00       		.byte	0
 18987 068c 03       		.uleb128 0x3
 18988 068d 08       		.uleb128 0x8
 18989 068e 3A       		.uleb128 0x3a
 18990 068f 0B       		.uleb128 0xb
 18991 0690 3B       		.uleb128 0x3b
 18992 0691 0B       		.uleb128 0xb
 18993 0692 49       		.uleb128 0x49
 18994 0693 13       		.uleb128 0x13
 18995 0694 00       		.byte	0
 18996 0695 00       		.byte	0
 18997 0696 6D       		.uleb128 0x6d
 18998 0697 2E       		.uleb128 0x2e
 18999 0698 01       		.byte	0x1
 19000 0699 47       		.uleb128 0x47
 19001 069a 13       		.uleb128 0x13
ARM GAS  /tmp/ccytVDiP.s 			page 335


 19002 069b 20       		.uleb128 0x20
 19003 069c 0B       		.uleb128 0xb
 19004 069d 64       		.uleb128 0x64
 19005 069e 13       		.uleb128 0x13
 19006 069f 01       		.uleb128 0x1
 19007 06a0 13       		.uleb128 0x13
 19008 06a1 00       		.byte	0
 19009 06a2 00       		.byte	0
 19010 06a3 6E       		.uleb128 0x6e
 19011 06a4 05       		.uleb128 0x5
 19012 06a5 00       		.byte	0
 19013 06a6 03       		.uleb128 0x3
 19014 06a7 0E       		.uleb128 0xe
 19015 06a8 49       		.uleb128 0x49
 19016 06a9 13       		.uleb128 0x13
 19017 06aa 34       		.uleb128 0x34
 19018 06ab 19       		.uleb128 0x19
 19019 06ac 00       		.byte	0
 19020 06ad 00       		.byte	0
 19021 06ae 6F       		.uleb128 0x6f
 19022 06af 2E       		.uleb128 0x2e
 19023 06b0 01       		.byte	0x1
 19024 06b1 31       		.uleb128 0x31
 19025 06b2 13       		.uleb128 0x13
 19026 06b3 6E       		.uleb128 0x6e
 19027 06b4 0E       		.uleb128 0xe
 19028 06b5 11       		.uleb128 0x11
 19029 06b6 01       		.uleb128 0x1
 19030 06b7 12       		.uleb128 0x12
 19031 06b8 06       		.uleb128 0x6
 19032 06b9 40       		.uleb128 0x40
 19033 06ba 18       		.uleb128 0x18
 19034 06bb 64       		.uleb128 0x64
 19035 06bc 13       		.uleb128 0x13
 19036 06bd 9742     		.uleb128 0x2117
 19037 06bf 19       		.uleb128 0x19
 19038 06c0 01       		.uleb128 0x1
 19039 06c1 13       		.uleb128 0x13
 19040 06c2 00       		.byte	0
 19041 06c3 00       		.byte	0
 19042 06c4 70       		.uleb128 0x70
 19043 06c5 05       		.uleb128 0x5
 19044 06c6 00       		.byte	0
 19045 06c7 31       		.uleb128 0x31
 19046 06c8 13       		.uleb128 0x13
 19047 06c9 02       		.uleb128 0x2
 19048 06ca 18       		.uleb128 0x18
 19049 06cb 00       		.byte	0
 19050 06cc 00       		.byte	0
 19051 06cd 71       		.uleb128 0x71
 19052 06ce 2E       		.uleb128 0x2e
 19053 06cf 01       		.byte	0x1
 19054 06d0 47       		.uleb128 0x47
 19055 06d1 13       		.uleb128 0x13
 19056 06d2 3B       		.uleb128 0x3b
 19057 06d3 0B       		.uleb128 0xb
 19058 06d4 11       		.uleb128 0x11
ARM GAS  /tmp/ccytVDiP.s 			page 336


 19059 06d5 01       		.uleb128 0x1
 19060 06d6 12       		.uleb128 0x12
 19061 06d7 06       		.uleb128 0x6
 19062 06d8 40       		.uleb128 0x40
 19063 06d9 18       		.uleb128 0x18
 19064 06da 9642     		.uleb128 0x2116
 19065 06dc 19       		.uleb128 0x19
 19066 06dd 01       		.uleb128 0x1
 19067 06de 13       		.uleb128 0x13
 19068 06df 00       		.byte	0
 19069 06e0 00       		.byte	0
 19070 06e1 72       		.uleb128 0x72
 19071 06e2 0B       		.uleb128 0xb
 19072 06e3 01       		.byte	0x1
 19073 06e4 11       		.uleb128 0x11
 19074 06e5 01       		.uleb128 0x1
 19075 06e6 12       		.uleb128 0x12
 19076 06e7 06       		.uleb128 0x6
 19077 06e8 00       		.byte	0
 19078 06e9 00       		.byte	0
 19079 06ea 73       		.uleb128 0x73
 19080 06eb 34       		.uleb128 0x34
 19081 06ec 00       		.byte	0
 19082 06ed 03       		.uleb128 0x3
 19083 06ee 08       		.uleb128 0x8
 19084 06ef 3A       		.uleb128 0x3a
 19085 06f0 0B       		.uleb128 0xb
 19086 06f1 3B       		.uleb128 0x3b
 19087 06f2 0B       		.uleb128 0xb
 19088 06f3 49       		.uleb128 0x49
 19089 06f4 13       		.uleb128 0x13
 19090 06f5 02       		.uleb128 0x2
 19091 06f6 18       		.uleb128 0x18
 19092 06f7 00       		.byte	0
 19093 06f8 00       		.byte	0
 19094 06f9 74       		.uleb128 0x74
 19095 06fa 2E       		.uleb128 0x2e
 19096 06fb 00       		.byte	0
 19097 06fc 47       		.uleb128 0x47
 19098 06fd 13       		.uleb128 0x13
 19099 06fe 3B       		.uleb128 0x3b
 19100 06ff 0B       		.uleb128 0xb
 19101 0700 11       		.uleb128 0x11
 19102 0701 01       		.uleb128 0x1
 19103 0702 12       		.uleb128 0x12
 19104 0703 06       		.uleb128 0x6
 19105 0704 40       		.uleb128 0x40
 19106 0705 18       		.uleb128 0x18
 19107 0706 9642     		.uleb128 0x2116
 19108 0708 19       		.uleb128 0x19
 19109 0709 00       		.byte	0
 19110 070a 00       		.byte	0
 19111 070b 75       		.uleb128 0x75
 19112 070c 2E       		.uleb128 0x2e
 19113 070d 01       		.byte	0x1
 19114 070e 47       		.uleb128 0x47
 19115 070f 13       		.uleb128 0x13
ARM GAS  /tmp/ccytVDiP.s 			page 337


 19116 0710 3B       		.uleb128 0x3b
 19117 0711 0B       		.uleb128 0xb
 19118 0712 11       		.uleb128 0x11
 19119 0713 01       		.uleb128 0x1
 19120 0714 12       		.uleb128 0x12
 19121 0715 06       		.uleb128 0x6
 19122 0716 40       		.uleb128 0x40
 19123 0717 18       		.uleb128 0x18
 19124 0718 64       		.uleb128 0x64
 19125 0719 13       		.uleb128 0x13
 19126 071a 9642     		.uleb128 0x2116
 19127 071c 19       		.uleb128 0x19
 19128 071d 01       		.uleb128 0x1
 19129 071e 13       		.uleb128 0x13
 19130 071f 00       		.byte	0
 19131 0720 00       		.byte	0
 19132 0721 76       		.uleb128 0x76
 19133 0722 05       		.uleb128 0x5
 19134 0723 00       		.byte	0
 19135 0724 03       		.uleb128 0x3
 19136 0725 0E       		.uleb128 0xe
 19137 0726 49       		.uleb128 0x49
 19138 0727 13       		.uleb128 0x13
 19139 0728 34       		.uleb128 0x34
 19140 0729 19       		.uleb128 0x19
 19141 072a 02       		.uleb128 0x2
 19142 072b 18       		.uleb128 0x18
 19143 072c 00       		.byte	0
 19144 072d 00       		.byte	0
 19145 072e 77       		.uleb128 0x77
 19146 072f 2E       		.uleb128 0x2e
 19147 0730 01       		.byte	0x1
 19148 0731 47       		.uleb128 0x47
 19149 0732 13       		.uleb128 0x13
 19150 0733 3B       		.uleb128 0x3b
 19151 0734 0B       		.uleb128 0xb
 19152 0735 11       		.uleb128 0x11
 19153 0736 01       		.uleb128 0x1
 19154 0737 12       		.uleb128 0x12
 19155 0738 06       		.uleb128 0x6
 19156 0739 40       		.uleb128 0x40
 19157 073a 18       		.uleb128 0x18
 19158 073b 64       		.uleb128 0x64
 19159 073c 13       		.uleb128 0x13
 19160 073d 9742     		.uleb128 0x2117
 19161 073f 19       		.uleb128 0x19
 19162 0740 01       		.uleb128 0x1
 19163 0741 13       		.uleb128 0x13
 19164 0742 00       		.byte	0
 19165 0743 00       		.byte	0
 19166 0744 78       		.uleb128 0x78
 19167 0745 05       		.uleb128 0x5
 19168 0746 00       		.byte	0
 19169 0747 03       		.uleb128 0x3
 19170 0748 08       		.uleb128 0x8
 19171 0749 3A       		.uleb128 0x3a
 19172 074a 0B       		.uleb128 0xb
ARM GAS  /tmp/ccytVDiP.s 			page 338


 19173 074b 3B       		.uleb128 0x3b
 19174 074c 0B       		.uleb128 0xb
 19175 074d 49       		.uleb128 0x49
 19176 074e 13       		.uleb128 0x13
 19177 074f 02       		.uleb128 0x2
 19178 0750 18       		.uleb128 0x18
 19179 0751 00       		.byte	0
 19180 0752 00       		.byte	0
 19181 0753 79       		.uleb128 0x79
 19182 0754 05       		.uleb128 0x5
 19183 0755 00       		.byte	0
 19184 0756 03       		.uleb128 0x3
 19185 0757 0E       		.uleb128 0xe
 19186 0758 3A       		.uleb128 0x3a
 19187 0759 0B       		.uleb128 0xb
 19188 075a 3B       		.uleb128 0x3b
 19189 075b 0B       		.uleb128 0xb
 19190 075c 49       		.uleb128 0x49
 19191 075d 13       		.uleb128 0x13
 19192 075e 02       		.uleb128 0x2
 19193 075f 18       		.uleb128 0x18
 19194 0760 00       		.byte	0
 19195 0761 00       		.byte	0
 19196 0762 7A       		.uleb128 0x7a
 19197 0763 2E       		.uleb128 0x2e
 19198 0764 01       		.byte	0x1
 19199 0765 47       		.uleb128 0x47
 19200 0766 13       		.uleb128 0x13
 19201 0767 11       		.uleb128 0x11
 19202 0768 01       		.uleb128 0x1
 19203 0769 12       		.uleb128 0x12
 19204 076a 06       		.uleb128 0x6
 19205 076b 40       		.uleb128 0x40
 19206 076c 18       		.uleb128 0x18
 19207 076d 64       		.uleb128 0x64
 19208 076e 13       		.uleb128 0x13
 19209 076f 9642     		.uleb128 0x2116
 19210 0771 19       		.uleb128 0x19
 19211 0772 01       		.uleb128 0x1
 19212 0773 13       		.uleb128 0x13
 19213 0774 00       		.byte	0
 19214 0775 00       		.byte	0
 19215 0776 7B       		.uleb128 0x7b
 19216 0777 34       		.uleb128 0x34
 19217 0778 00       		.byte	0
 19218 0779 03       		.uleb128 0x3
 19219 077a 0E       		.uleb128 0xe
 19220 077b 3A       		.uleb128 0x3a
 19221 077c 0B       		.uleb128 0xb
 19222 077d 3B       		.uleb128 0x3b
 19223 077e 0B       		.uleb128 0xb
 19224 077f 49       		.uleb128 0x49
 19225 0780 13       		.uleb128 0x13
 19226 0781 02       		.uleb128 0x2
 19227 0782 18       		.uleb128 0x18
 19228 0783 00       		.byte	0
 19229 0784 00       		.byte	0
ARM GAS  /tmp/ccytVDiP.s 			page 339


 19230 0785 7C       		.uleb128 0x7c
 19231 0786 2E       		.uleb128 0x2e
 19232 0787 01       		.byte	0x1
 19233 0788 47       		.uleb128 0x47
 19234 0789 13       		.uleb128 0x13
 19235 078a 3A       		.uleb128 0x3a
 19236 078b 0B       		.uleb128 0xb
 19237 078c 3B       		.uleb128 0x3b
 19238 078d 0B       		.uleb128 0xb
 19239 078e 20       		.uleb128 0x20
 19240 078f 0B       		.uleb128 0xb
 19241 0790 64       		.uleb128 0x64
 19242 0791 13       		.uleb128 0x13
 19243 0792 01       		.uleb128 0x1
 19244 0793 13       		.uleb128 0x13
 19245 0794 00       		.byte	0
 19246 0795 00       		.byte	0
 19247 0796 7D       		.uleb128 0x7d
 19248 0797 2E       		.uleb128 0x2e
 19249 0798 01       		.byte	0x1
 19250 0799 31       		.uleb128 0x31
 19251 079a 13       		.uleb128 0x13
 19252 079b 6E       		.uleb128 0x6e
 19253 079c 0E       		.uleb128 0xe
 19254 079d 11       		.uleb128 0x11
 19255 079e 01       		.uleb128 0x1
 19256 079f 12       		.uleb128 0x12
 19257 07a0 06       		.uleb128 0x6
 19258 07a1 40       		.uleb128 0x40
 19259 07a2 18       		.uleb128 0x18
 19260 07a3 64       		.uleb128 0x64
 19261 07a4 13       		.uleb128 0x13
 19262 07a5 9642     		.uleb128 0x2116
 19263 07a7 19       		.uleb128 0x19
 19264 07a8 01       		.uleb128 0x1
 19265 07a9 13       		.uleb128 0x13
 19266 07aa 00       		.byte	0
 19267 07ab 00       		.byte	0
 19268 07ac 7E       		.uleb128 0x7e
 19269 07ad 2E       		.uleb128 0x2e
 19270 07ae 00       		.byte	0
 19271 07af 47       		.uleb128 0x47
 19272 07b0 13       		.uleb128 0x13
 19273 07b1 3B       		.uleb128 0x3b
 19274 07b2 0B       		.uleb128 0xb
 19275 07b3 11       		.uleb128 0x11
 19276 07b4 01       		.uleb128 0x1
 19277 07b5 12       		.uleb128 0x12
 19278 07b6 06       		.uleb128 0x6
 19279 07b7 40       		.uleb128 0x40
 19280 07b8 18       		.uleb128 0x18
 19281 07b9 9742     		.uleb128 0x2117
 19282 07bb 19       		.uleb128 0x19
 19283 07bc 00       		.byte	0
 19284 07bd 00       		.byte	0
 19285 07be 7F       		.uleb128 0x7f
 19286 07bf 2E       		.uleb128 0x2e
ARM GAS  /tmp/ccytVDiP.s 			page 340


 19287 07c0 01       		.byte	0x1
 19288 07c1 3F       		.uleb128 0x3f
 19289 07c2 19       		.uleb128 0x19
 19290 07c3 03       		.uleb128 0x3
 19291 07c4 0E       		.uleb128 0xe
 19292 07c5 3A       		.uleb128 0x3a
 19293 07c6 0B       		.uleb128 0xb
 19294 07c7 3B       		.uleb128 0x3b
 19295 07c8 0B       		.uleb128 0xb
 19296 07c9 6E       		.uleb128 0x6e
 19297 07ca 0E       		.uleb128 0xe
 19298 07cb 11       		.uleb128 0x11
 19299 07cc 01       		.uleb128 0x1
 19300 07cd 12       		.uleb128 0x12
 19301 07ce 06       		.uleb128 0x6
 19302 07cf 40       		.uleb128 0x40
 19303 07d0 18       		.uleb128 0x18
 19304 07d1 9642     		.uleb128 0x2116
 19305 07d3 19       		.uleb128 0x19
 19306 07d4 01       		.uleb128 0x1
 19307 07d5 13       		.uleb128 0x13
 19308 07d6 00       		.byte	0
 19309 07d7 00       		.byte	0
 19310 07d8 8001     		.uleb128 0x80
 19311 07da 2E       		.uleb128 0x2e
 19312 07db 01       		.byte	0x1
 19313 07dc 3F       		.uleb128 0x3f
 19314 07dd 19       		.uleb128 0x19
 19315 07de 03       		.uleb128 0x3
 19316 07df 0E       		.uleb128 0xe
 19317 07e0 3A       		.uleb128 0x3a
 19318 07e1 0B       		.uleb128 0xb
 19319 07e2 3B       		.uleb128 0x3b
 19320 07e3 0B       		.uleb128 0xb
 19321 07e4 6E       		.uleb128 0x6e
 19322 07e5 0E       		.uleb128 0xe
 19323 07e6 49       		.uleb128 0x49
 19324 07e7 13       		.uleb128 0x13
 19325 07e8 11       		.uleb128 0x11
 19326 07e9 01       		.uleb128 0x1
 19327 07ea 12       		.uleb128 0x12
 19328 07eb 06       		.uleb128 0x6
 19329 07ec 40       		.uleb128 0x40
 19330 07ed 18       		.uleb128 0x18
 19331 07ee 9642     		.uleb128 0x2116
 19332 07f0 19       		.uleb128 0x19
 19333 07f1 01       		.uleb128 0x1
 19334 07f2 13       		.uleb128 0x13
 19335 07f3 00       		.byte	0
 19336 07f4 00       		.byte	0
 19337 07f5 8101     		.uleb128 0x81
 19338 07f7 2E       		.uleb128 0x2e
 19339 07f8 01       		.byte	0x1
 19340 07f9 3F       		.uleb128 0x3f
 19341 07fa 19       		.uleb128 0x19
 19342 07fb 03       		.uleb128 0x3
 19343 07fc 0E       		.uleb128 0xe
ARM GAS  /tmp/ccytVDiP.s 			page 341


 19344 07fd 3A       		.uleb128 0x3a
 19345 07fe 0B       		.uleb128 0xb
 19346 07ff 3B       		.uleb128 0x3b
 19347 0800 0B       		.uleb128 0xb
 19348 0801 49       		.uleb128 0x49
 19349 0802 13       		.uleb128 0x13
 19350 0803 11       		.uleb128 0x11
 19351 0804 01       		.uleb128 0x1
 19352 0805 12       		.uleb128 0x12
 19353 0806 06       		.uleb128 0x6
 19354 0807 40       		.uleb128 0x40
 19355 0808 18       		.uleb128 0x18
 19356 0809 9642     		.uleb128 0x2116
 19357 080b 19       		.uleb128 0x19
 19358 080c 01       		.uleb128 0x1
 19359 080d 13       		.uleb128 0x13
 19360 080e 00       		.byte	0
 19361 080f 00       		.byte	0
 19362 0810 8201     		.uleb128 0x82
 19363 0812 05       		.uleb128 0x5
 19364 0813 00       		.byte	0
 19365 0814 03       		.uleb128 0x3
 19366 0815 0E       		.uleb128 0xe
 19367 0816 3A       		.uleb128 0x3a
 19368 0817 0B       		.uleb128 0xb
 19369 0818 3B       		.uleb128 0x3b
 19370 0819 0B       		.uleb128 0xb
 19371 081a 49       		.uleb128 0x49
 19372 081b 13       		.uleb128 0x13
 19373 081c 00       		.byte	0
 19374 081d 00       		.byte	0
 19375 081e 8301     		.uleb128 0x83
 19376 0820 2E       		.uleb128 0x2e
 19377 0821 01       		.byte	0x1
 19378 0822 47       		.uleb128 0x47
 19379 0823 13       		.uleb128 0x13
 19380 0824 11       		.uleb128 0x11
 19381 0825 01       		.uleb128 0x1
 19382 0826 12       		.uleb128 0x12
 19383 0827 06       		.uleb128 0x6
 19384 0828 40       		.uleb128 0x40
 19385 0829 18       		.uleb128 0x18
 19386 082a 64       		.uleb128 0x64
 19387 082b 13       		.uleb128 0x13
 19388 082c 9742     		.uleb128 0x2117
 19389 082e 19       		.uleb128 0x19
 19390 082f 01       		.uleb128 0x1
 19391 0830 13       		.uleb128 0x13
 19392 0831 00       		.byte	0
 19393 0832 00       		.byte	0
 19394 0833 8401     		.uleb128 0x84
 19395 0835 2E       		.uleb128 0x2e
 19396 0836 01       		.byte	0x1
 19397 0837 03       		.uleb128 0x3
 19398 0838 0E       		.uleb128 0xe
 19399 0839 34       		.uleb128 0x34
 19400 083a 19       		.uleb128 0x19
ARM GAS  /tmp/ccytVDiP.s 			page 342


 19401 083b 11       		.uleb128 0x11
 19402 083c 01       		.uleb128 0x1
 19403 083d 12       		.uleb128 0x12
 19404 083e 06       		.uleb128 0x6
 19405 083f 40       		.uleb128 0x40
 19406 0840 18       		.uleb128 0x18
 19407 0841 9642     		.uleb128 0x2116
 19408 0843 19       		.uleb128 0x19
 19409 0844 01       		.uleb128 0x1
 19410 0845 13       		.uleb128 0x13
 19411 0846 00       		.byte	0
 19412 0847 00       		.byte	0
 19413 0848 8501     		.uleb128 0x85
 19414 084a 2E       		.uleb128 0x2e
 19415 084b 00       		.byte	0
 19416 084c 03       		.uleb128 0x3
 19417 084d 0E       		.uleb128 0xe
 19418 084e 34       		.uleb128 0x34
 19419 084f 19       		.uleb128 0x19
 19420 0850 11       		.uleb128 0x11
 19421 0851 01       		.uleb128 0x1
 19422 0852 12       		.uleb128 0x12
 19423 0853 06       		.uleb128 0x6
 19424 0854 40       		.uleb128 0x40
 19425 0855 18       		.uleb128 0x18
 19426 0856 9642     		.uleb128 0x2116
 19427 0858 19       		.uleb128 0x19
 19428 0859 00       		.byte	0
 19429 085a 00       		.byte	0
 19430 085b 8601     		.uleb128 0x86
 19431 085d 34       		.uleb128 0x34
 19432 085e 00       		.byte	0
 19433 085f 03       		.uleb128 0x3
 19434 0860 0E       		.uleb128 0xe
 19435 0861 3A       		.uleb128 0x3a
 19436 0862 0B       		.uleb128 0xb
 19437 0863 3B       		.uleb128 0x3b
 19438 0864 0B       		.uleb128 0xb
 19439 0865 49       		.uleb128 0x49
 19440 0866 13       		.uleb128 0x13
 19441 0867 3F       		.uleb128 0x3f
 19442 0868 19       		.uleb128 0x19
 19443 0869 3C       		.uleb128 0x3c
 19444 086a 19       		.uleb128 0x19
 19445 086b 00       		.byte	0
 19446 086c 00       		.byte	0
 19447 086d 8701     		.uleb128 0x87
 19448 086f 34       		.uleb128 0x34
 19449 0870 00       		.byte	0
 19450 0871 03       		.uleb128 0x3
 19451 0872 0E       		.uleb128 0xe
 19452 0873 3A       		.uleb128 0x3a
 19453 0874 0B       		.uleb128 0xb
 19454 0875 3B       		.uleb128 0x3b
 19455 0876 05       		.uleb128 0x5
 19456 0877 49       		.uleb128 0x49
 19457 0878 13       		.uleb128 0x13
ARM GAS  /tmp/ccytVDiP.s 			page 343


 19458 0879 3F       		.uleb128 0x3f
 19459 087a 19       		.uleb128 0x19
 19460 087b 3C       		.uleb128 0x3c
 19461 087c 19       		.uleb128 0x19
 19462 087d 00       		.byte	0
 19463 087e 00       		.byte	0
 19464 087f 8801     		.uleb128 0x88
 19465 0881 34       		.uleb128 0x34
 19466 0882 00       		.byte	0
 19467 0883 03       		.uleb128 0x3
 19468 0884 08       		.uleb128 0x8
 19469 0885 3A       		.uleb128 0x3a
 19470 0886 0B       		.uleb128 0xb
 19471 0887 3B       		.uleb128 0x3b
 19472 0888 05       		.uleb128 0x5
 19473 0889 49       		.uleb128 0x49
 19474 088a 13       		.uleb128 0x13
 19475 088b 3F       		.uleb128 0x3f
 19476 088c 19       		.uleb128 0x19
 19477 088d 3C       		.uleb128 0x3c
 19478 088e 19       		.uleb128 0x19
 19479 088f 00       		.byte	0
 19480 0890 00       		.byte	0
 19481 0891 8901     		.uleb128 0x89
 19482 0893 21       		.uleb128 0x21
 19483 0894 00       		.byte	0
 19484 0895 00       		.byte	0
 19485 0896 00       		.byte	0
 19486 0897 8A01     		.uleb128 0x8a
 19487 0899 34       		.uleb128 0x34
 19488 089a 00       		.byte	0
 19489 089b 03       		.uleb128 0x3
 19490 089c 0E       		.uleb128 0xe
 19491 089d 49       		.uleb128 0x49
 19492 089e 13       		.uleb128 0x13
 19493 089f 3F       		.uleb128 0x3f
 19494 08a0 19       		.uleb128 0x19
 19495 08a1 34       		.uleb128 0x34
 19496 08a2 19       		.uleb128 0x19
 19497 08a3 3C       		.uleb128 0x3c
 19498 08a4 19       		.uleb128 0x19
 19499 08a5 00       		.byte	0
 19500 08a6 00       		.byte	0
 19501 08a7 8B01     		.uleb128 0x8b
 19502 08a9 34       		.uleb128 0x34
 19503 08aa 00       		.byte	0
 19504 08ab 47       		.uleb128 0x47
 19505 08ac 13       		.uleb128 0x13
 19506 08ad 3A       		.uleb128 0x3a
 19507 08ae 0B       		.uleb128 0xb
 19508 08af 3B       		.uleb128 0x3b
 19509 08b0 0B       		.uleb128 0xb
 19510 08b1 6E       		.uleb128 0x6e
 19511 08b2 0E       		.uleb128 0xe
 19512 08b3 02       		.uleb128 0x2
 19513 08b4 18       		.uleb128 0x18
 19514 08b5 00       		.byte	0
ARM GAS  /tmp/ccytVDiP.s 			page 344


 19515 08b6 00       		.byte	0
 19516 08b7 00       		.byte	0
 19517              		.section	.debug_aranges,"",%progbits
 19518 0000 BC010000 		.4byte	0x1bc
 19519 0004 0200     		.2byte	0x2
 19520 0006 00000000 		.4byte	.Ldebug_info0
 19521 000a 04       		.byte	0x4
 19522 000b 00       		.byte	0
 19523 000c 0000     		.2byte	0
 19524 000e 0000     		.2byte	0
 19525 0010 00000000 		.4byte	.Ltext0
 19526 0014 46030000 		.4byte	.Letext0-.Ltext0
 19527 0018 00000000 		.4byte	.LFB127
 19528 001c 0C000000 		.4byte	.LFE127-.LFB127
 19529 0020 00000000 		.4byte	.LFB129
 19530 0024 0E000000 		.4byte	.LFE129-.LFB129
 19531 0028 00000000 		.4byte	.LFB130
 19532 002c 0E000000 		.4byte	.LFE130-.LFB130
 19533 0030 00000000 		.4byte	.LFB137
 19534 0034 08000000 		.4byte	.LFE137-.LFB137
 19535 0038 00000000 		.4byte	.LFB138
 19536 003c 08000000 		.4byte	.LFE138-.LFB138
 19537 0040 00000000 		.4byte	.LFB236
 19538 0044 18000000 		.4byte	.LFE236-.LFB236
 19539 0048 00000000 		.4byte	.LFB256
 19540 004c 20000000 		.4byte	.LFE256-.LFB256
 19541 0050 00000000 		.4byte	.LFB262
 19542 0054 16000000 		.4byte	.LFE262-.LFB262
 19543 0058 00000000 		.4byte	.LFB276
 19544 005c 22000000 		.4byte	.LFE276-.LFB276
 19545 0060 00000000 		.4byte	.LFB292
 19546 0064 12000000 		.4byte	.LFE292-.LFB292
 19547 0068 00000000 		.4byte	.LFB303
 19548 006c 40000000 		.4byte	.LFE303-.LFB303
 19549 0070 00000000 		.4byte	.LFB304
 19550 0074 2A000000 		.4byte	.LFE304-.LFB304
 19551 0078 00000000 		.4byte	.LFB334
 19552 007c 34000000 		.4byte	.LFE334-.LFB334
 19553 0080 00000000 		.4byte	.LFB340
 19554 0084 64000000 		.4byte	.LFE340-.LFB340
 19555 0088 00000000 		.4byte	.LFB345
 19556 008c 2A000000 		.4byte	.LFE345-.LFB345
 19557 0090 00000000 		.4byte	.LFB351
 19558 0094 12000000 		.4byte	.LFE351-.LFB351
 19559 0098 00000000 		.4byte	.LFB353
 19560 009c 0E000000 		.4byte	.LFE353-.LFB353
 19561 00a0 00000000 		.4byte	.LFB355
 19562 00a4 3C000000 		.4byte	.LFE355-.LFB355
 19563 00a8 00000000 		.4byte	.LFB361
 19564 00ac 18000000 		.4byte	.LFE361-.LFB361
 19565 00b0 00000000 		.4byte	.LFB363
 19566 00b4 18000000 		.4byte	.LFE363-.LFB363
 19567 00b8 00000000 		.4byte	.LFB380
 19568 00bc 24000000 		.4byte	.LFE380-.LFB380
 19569 00c0 00000000 		.4byte	.LFB385
 19570 00c4 1A000000 		.4byte	.LFE385-.LFB385
 19571 00c8 00000000 		.4byte	.LFB391
ARM GAS  /tmp/ccytVDiP.s 			page 345


 19572 00cc 1A000000 		.4byte	.LFE391-.LFB391
 19573 00d0 00000000 		.4byte	.LFB392
 19574 00d4 3C000000 		.4byte	.LFE392-.LFB392
 19575 00d8 00000000 		.4byte	.LFB393
 19576 00dc 56000000 		.4byte	.LFE393-.LFB393
 19577 00e0 00000000 		.4byte	.LFB412
 19578 00e4 28000000 		.4byte	.LFE412-.LFB412
 19579 00e8 00000000 		.4byte	.LFB538
 19580 00ec 16000000 		.4byte	.LFE538-.LFB538
 19581 00f0 00000000 		.4byte	.LFB552
 19582 00f4 20000000 		.4byte	.LFE552-.LFB552
 19583 00f8 00000000 		.4byte	.LFB677
 19584 00fc 1C000000 		.4byte	.LFE677-.LFB677
 19585 0100 00000000 		.4byte	.LFB684
 19586 0104 14000000 		.4byte	.LFE684-.LFB684
 19587 0108 00000000 		.4byte	.LFB692
 19588 010c 0E000000 		.4byte	.LFE692-.LFB692
 19589 0110 00000000 		.4byte	.LFB693
 19590 0114 5E000000 		.4byte	.LFE693-.LFB693
 19591 0118 00000000 		.4byte	.LFB694
 19592 011c 60000000 		.4byte	.LFE694-.LFB694
 19593 0120 00000000 		.4byte	.LFB706
 19594 0124 24000000 		.4byte	.LFE706-.LFB706
 19595 0128 00000000 		.4byte	.LFB709
 19596 012c 30000000 		.4byte	.LFE709-.LFB709
 19597 0130 00000000 		.4byte	.LFB711
 19598 0134 1C000000 		.4byte	.LFE711-.LFB711
 19599 0138 00000000 		.4byte	.LFB712
 19600 013c 28000000 		.4byte	.LFE712-.LFB712
 19601 0140 00000000 		.4byte	.LFB713
 19602 0144 1C000000 		.4byte	.LFE713-.LFB713
 19603 0148 00000000 		.4byte	.LFB714
 19604 014c 1E000000 		.4byte	.LFE714-.LFB714
 19605 0150 00000000 		.4byte	.LFB719
 19606 0154 16000000 		.4byte	.LFE719-.LFB719
 19607 0158 00000000 		.4byte	.LFB722
 19608 015c 16000000 		.4byte	.LFE722-.LFB722
 19609 0160 00000000 		.4byte	.LFB725
 19610 0164 16000000 		.4byte	.LFE725-.LFB725
 19611 0168 00000000 		.4byte	.LFB728
 19612 016c 20000000 		.4byte	.LFE728-.LFB728
 19613 0170 00000000 		.4byte	.LFB732
 19614 0174 16000000 		.4byte	.LFE732-.LFB732
 19615 0178 00000000 		.4byte	.LFB735
 19616 017c 16000000 		.4byte	.LFE735-.LFB735
 19617 0180 00000000 		.4byte	.LFB738
 19618 0184 16000000 		.4byte	.LFE738-.LFB738
 19619 0188 00000000 		.4byte	.LFB740
 19620 018c 34000000 		.4byte	.LFE740-.LFB740
 19621 0190 00000000 		.4byte	.LFB742
 19622 0194 72000000 		.4byte	.LFE742-.LFB742
 19623 0198 00000000 		.4byte	.LFB745
 19624 019c 30000000 		.4byte	.LFE745-.LFB745
 19625 01a0 00000000 		.4byte	.LFB747
 19626 01a4 1C000000 		.4byte	.LFE747-.LFB747
 19627 01a8 00000000 		.4byte	.LFB749
 19628 01ac 30000000 		.4byte	.LFE749-.LFB749
ARM GAS  /tmp/ccytVDiP.s 			page 346


 19629 01b0 00000000 		.4byte	.LFB751
 19630 01b4 1C000000 		.4byte	.LFE751-.LFB751
 19631 01b8 00000000 		.4byte	0
 19632 01bc 00000000 		.4byte	0
 19633              		.section	.debug_ranges,"",%progbits
 19634              	.Ldebug_ranges0:
 19635 0000 00000000 		.4byte	.Ltext0
 19636 0004 46030000 		.4byte	.Letext0
 19637 0008 00000000 		.4byte	.LFB127
 19638 000c 0C000000 		.4byte	.LFE127
 19639 0010 00000000 		.4byte	.LFB129
 19640 0014 0E000000 		.4byte	.LFE129
 19641 0018 00000000 		.4byte	.LFB130
 19642 001c 0E000000 		.4byte	.LFE130
 19643 0020 00000000 		.4byte	.LFB137
 19644 0024 08000000 		.4byte	.LFE137
 19645 0028 00000000 		.4byte	.LFB138
 19646 002c 08000000 		.4byte	.LFE138
 19647 0030 00000000 		.4byte	.LFB236
 19648 0034 18000000 		.4byte	.LFE236
 19649 0038 00000000 		.4byte	.LFB256
 19650 003c 20000000 		.4byte	.LFE256
 19651 0040 00000000 		.4byte	.LFB262
 19652 0044 16000000 		.4byte	.LFE262
 19653 0048 00000000 		.4byte	.LFB276
 19654 004c 22000000 		.4byte	.LFE276
 19655 0050 00000000 		.4byte	.LFB292
 19656 0054 12000000 		.4byte	.LFE292
 19657 0058 00000000 		.4byte	.LFB303
 19658 005c 40000000 		.4byte	.LFE303
 19659 0060 00000000 		.4byte	.LFB304
 19660 0064 2A000000 		.4byte	.LFE304
 19661 0068 00000000 		.4byte	.LFB334
 19662 006c 34000000 		.4byte	.LFE334
 19663 0070 00000000 		.4byte	.LFB340
 19664 0074 64000000 		.4byte	.LFE340
 19665 0078 00000000 		.4byte	.LFB345
 19666 007c 2A000000 		.4byte	.LFE345
 19667 0080 00000000 		.4byte	.LFB351
 19668 0084 12000000 		.4byte	.LFE351
 19669 0088 00000000 		.4byte	.LFB353
 19670 008c 0E000000 		.4byte	.LFE353
 19671 0090 00000000 		.4byte	.LFB355
 19672 0094 3C000000 		.4byte	.LFE355
 19673 0098 00000000 		.4byte	.LFB361
 19674 009c 18000000 		.4byte	.LFE361
 19675 00a0 00000000 		.4byte	.LFB363
 19676 00a4 18000000 		.4byte	.LFE363
 19677 00a8 00000000 		.4byte	.LFB380
 19678 00ac 24000000 		.4byte	.LFE380
 19679 00b0 00000000 		.4byte	.LFB385
 19680 00b4 1A000000 		.4byte	.LFE385
 19681 00b8 00000000 		.4byte	.LFB391
 19682 00bc 1A000000 		.4byte	.LFE391
 19683 00c0 00000000 		.4byte	.LFB392
 19684 00c4 3C000000 		.4byte	.LFE392
 19685 00c8 00000000 		.4byte	.LFB393
ARM GAS  /tmp/ccytVDiP.s 			page 347


 19686 00cc 56000000 		.4byte	.LFE393
 19687 00d0 00000000 		.4byte	.LFB412
 19688 00d4 28000000 		.4byte	.LFE412
 19689 00d8 00000000 		.4byte	.LFB538
 19690 00dc 16000000 		.4byte	.LFE538
 19691 00e0 00000000 		.4byte	.LFB552
 19692 00e4 20000000 		.4byte	.LFE552
 19693 00e8 00000000 		.4byte	.LFB677
 19694 00ec 1C000000 		.4byte	.LFE677
 19695 00f0 00000000 		.4byte	.LFB684
 19696 00f4 14000000 		.4byte	.LFE684
 19697 00f8 00000000 		.4byte	.LFB692
 19698 00fc 0E000000 		.4byte	.LFE692
 19699 0100 00000000 		.4byte	.LFB693
 19700 0104 5E000000 		.4byte	.LFE693
 19701 0108 00000000 		.4byte	.LFB694
 19702 010c 60000000 		.4byte	.LFE694
 19703 0110 00000000 		.4byte	.LFB706
 19704 0114 24000000 		.4byte	.LFE706
 19705 0118 00000000 		.4byte	.LFB709
 19706 011c 30000000 		.4byte	.LFE709
 19707 0120 00000000 		.4byte	.LFB711
 19708 0124 1C000000 		.4byte	.LFE711
 19709 0128 00000000 		.4byte	.LFB712
 19710 012c 28000000 		.4byte	.LFE712
 19711 0130 00000000 		.4byte	.LFB713
 19712 0134 1C000000 		.4byte	.LFE713
 19713 0138 00000000 		.4byte	.LFB714
 19714 013c 1E000000 		.4byte	.LFE714
 19715 0140 00000000 		.4byte	.LFB719
 19716 0144 16000000 		.4byte	.LFE719
 19717 0148 00000000 		.4byte	.LFB722
 19718 014c 16000000 		.4byte	.LFE722
 19719 0150 00000000 		.4byte	.LFB725
 19720 0154 16000000 		.4byte	.LFE725
 19721 0158 00000000 		.4byte	.LFB728
 19722 015c 20000000 		.4byte	.LFE728
 19723 0160 00000000 		.4byte	.LFB732
 19724 0164 16000000 		.4byte	.LFE732
 19725 0168 00000000 		.4byte	.LFB735
 19726 016c 16000000 		.4byte	.LFE735
 19727 0170 00000000 		.4byte	.LFB738
 19728 0174 16000000 		.4byte	.LFE738
 19729 0178 00000000 		.4byte	.LFB740
 19730 017c 34000000 		.4byte	.LFE740
 19731 0180 00000000 		.4byte	.LFB742
 19732 0184 72000000 		.4byte	.LFE742
 19733 0188 00000000 		.4byte	.LFB745
 19734 018c 30000000 		.4byte	.LFE745
 19735 0190 00000000 		.4byte	.LFB747
 19736 0194 1C000000 		.4byte	.LFE747
 19737 0198 00000000 		.4byte	.LFB749
 19738 019c 30000000 		.4byte	.LFE749
 19739 01a0 00000000 		.4byte	.LFB751
 19740 01a4 1C000000 		.4byte	.LFE751
 19741 01a8 00000000 		.4byte	0
 19742 01ac 00000000 		.4byte	0
ARM GAS  /tmp/ccytVDiP.s 			page 348


 19743              		.section	.debug_line,"",%progbits
 19744              	.Ldebug_line0:
 19745 0000 9F0C0000 		.section	.debug_str,"MS",%progbits,1
 19745      0200E107 
 19745      00000201 
 19745      FB0E0D00 
 19745      01010101 
 19746              	.LASF427:
 19747 0000 416C6C6F 		.ascii	"Allocator\000"
 19747      6361746F 
 19747      7200
 19748              	.LASF632:
 19749 000a 5F5A4E4B 		.ascii	"_ZNK3r2p5Topic13is_forwardingEv\000"
 19749      33723270 
 19749      35546F70 
 19749      69633133 
 19749      69735F66 
 19750              	.LASF284:
 19751 002a 6576656E 		.ascii	"event\000"
 19751      7400
 19752              	.LASF930:
 19753 0030 50616765 		.ascii	"PageID\000"
 19753      494400
 19754              	.LASF199:
 19755 0037 696E7463 		.ascii	"intctx\000"
 19755      747800
 19756              	.LASF598:
 19757 003e 5F5A4E4B 		.ascii	"_ZNK3r2p10StaticListINS_5TopicEE5countEv\000"
 19757      33723270 
 19757      31305374 
 19757      61746963 
 19757      4C697374 
 19758              	.LASF519:
 19759 0067 5F5A4E4B 		.ascii	"_ZNK3r2p10StaticListINS_15LocalSubscriberEE5countEv"
 19759      33723270 
 19759      31305374 
 19759      61746963 
 19759      4C697374 
 19760 009a 00       		.ascii	"\000"
 19761              	.LASF164:
 19762 009b 6D73675F 		.ascii	"msg_t\000"
 19762      7400
 19763              	.LASF1004:
 19764 00a1 5F5A4E4B 		.ascii	"_ZNK3r2p10StaticListINS_9TransportEE15is_empty_unsa"
 19764      33723270 
 19764      31305374 
 19764      61746963 
 19764      4C697374 
 19765 00d4 66654576 		.ascii	"feEv\000"
 19765      00
 19766              	.LASF503:
 19767 00d9 5F5A4E4B 		.ascii	"_ZNK3r2p10StaticListINS_15LocalSubscriberEE17find_f"
 19767      33723270 
 19767      31305374 
 19767      61746963 
 19767      4C697374 
 19768 010c 69727374 		.ascii	"irst_unsafeEPFbRKS1_E\000"
ARM GAS  /tmp/ccytVDiP.s 			page 349


 19768      5F756E73 
 19768      61666545 
 19768      50466252 
 19768      4B53315F 
 19769              	.LASF712:
 19770 0122 53746174 		.ascii	"StaticList<r2p::LocalPublisher>\000"
 19770      69634C69 
 19770      73743C72 
 19770      32703A3A 
 19770      4C6F6361 
 19771              	.LASF831:
 19772 0142 5F5A4E4B 		.ascii	"_ZNK3r2p9SpinEvent10get_threadEv\000"
 19772      33723270 
 19772      39537069 
 19772      6E457665 
 19772      6E743130 
 19773              	.LASF705:
 19774 0163 5F5A4E33 		.ascii	"_ZN3r2p7Message16get_payload_sizeEj\000"
 19774      72327037 
 19774      4D657373 
 19774      61676531 
 19774      36676574 
 19775              	.LASF977:
 19776 0187 6A756D70 		.ascii	"jump_to\000"
 19776      5F746F00 
 19777              	.LASF618:
 19778 018f 72656D6F 		.ascii	"remote_subscribers\000"
 19778      74655F73 
 19778      75627363 
 19778      72696265 
 19778      727300
 19779              	.LASF710:
 19780 01a2 52656D6F 		.ascii	"RemotePublisher\000"
 19780      74655075 
 19780      626C6973 
 19780      68657200 
 19781              	.LASF283:
 19782 01b2 53657269 		.ascii	"SerialDriver\000"
 19782      616C4472 
 19782      69766572 
 19782      00
 19783              	.LASF950:
 19784 01bf 5F5A4E33 		.ascii	"_ZN3r2p8Flasher_5eraseEt\000"
 19784      72327038 
 19784      466C6173 
 19784      6865725F 
 19784      35657261 
 19785              	.LASF714:
 19786 01d8 5F5A4E33 		.ascii	"_ZN3r2p10StaticListINS_14LocalPublisherEE13ConstIte"
 19786      72327031 
 19786      30537461 
 19786      7469634C 
 19786      69737449 
 19787 020b 7261746F 		.ascii	"ratoraSERKS3_\000"
 19787      72615345 
 19787      524B5333 
 19787      5F00
ARM GAS  /tmp/ccytVDiP.s 			page 350


 19788              	.LASF678:
 19789 0219 5F5A4E33 		.ascii	"_ZN3r2p5Topic9advertiseERNS_15RemotePublisherERKNS_"
 19789      72327035 
 19789      546F7069 
 19789      63396164 
 19789      76657274 
 19790 024c 3454696D 		.ascii	"4TimeE\000"
 19790      654500
 19791              	.LASF3:
 19792 0253 5F5F7569 		.ascii	"__uint8_t\000"
 19792      6E74385F 
 19792      7400
 19793              	.LASF914:
 19794 025d 5F5A4E33 		.ascii	"_ZN3r2p4Node6notifyEj\000"
 19794      72327034 
 19794      4E6F6465 
 19794      366E6F74 
 19794      69667945 
 19795              	.LASF1138:
 19796 0273 646F5F63 		.ascii	"do_cmd_subscribe_response\000"
 19796      6D645F73 
 19796      75627363 
 19796      72696265 
 19796      5F726573 
 19797              	.LASF820:
 19798 028d 6765745F 		.ascii	"get_thread\000"
 19798      74687265 
 19798      616400
 19799              	.LASF695:
 19800 0298 5F5A4E33 		.ascii	"_ZN3r2p7Message12reset_unsafeEv\000"
 19800      72327037 
 19800      4D657373 
 19800      61676531 
 19800      32726573 
 19801              	.LASF743:
 19802 02b8 5F5A4E4B 		.ascii	"_ZNK3r2p10StaticListINS_14LocalPublisherEE8index_of"
 19802      33723270 
 19802      31305374 
 19802      61746963 
 19802      4C697374 
 19803 02eb 45524B53 		.ascii	"ERKS1_\000"
 19803      315F00
 19804              	.LASF125:
 19805 02f2 66706F73 		.ascii	"fpos_t\000"
 19805      5F7400
 19806              	.LASF1147:
 19807 02f9 5F5A4E33 		.ascii	"_ZN3r2p10Middleware18is_bootloader_modeEv\000"
 19807      72327031 
 19807      304D6964 
 19807      646C6577 
 19807      61726531 
 19808              	.LASF69:
 19809 0323 5F6D6273 		.ascii	"_mbstate\000"
 19809      74617465 
 19809      00
 19810              	.LASF859:
 19811 032c 5F5A4E4B 		.ascii	"_ZNK3r2p10StaticListINS_4NodeEE13ConstIteratordeEv\000"
ARM GAS  /tmp/ccytVDiP.s 			page 351


 19811      33723270 
 19811      31305374 
 19811      61746963 
 19811      4C697374 
 19812              	.LASF48:
 19813 035f 5F617465 		.ascii	"_atexit\000"
 19813      78697400 
 19814              	.LASF871:
 19815 0367 5F5A4E4B 		.ascii	"_ZNK3r2p10StaticListINS_4NodeEE15index_of_unsafeERK"
 19815      33723270 
 19815      31305374 
 19815      61746963 
 19815      4C697374 
 19816 039a 53315F00 		.ascii	"S1_\000"
 19817              	.LASF1021:
 19818 039e 5F5A4E4B 		.ascii	"_ZNK3r2p10StaticListINS_9TransportEE5countEv\000"
 19818      33723270 
 19818      31305374 
 19818      61746963 
 19818      4C697374 
 19819              	.LASF1104:
 19820 03cb 5F5A4E33 		.ascii	"_ZN3r2p10Middleware5startEv\000"
 19820      72327031 
 19820      304D6964 
 19820      646C6577 
 19820      61726535 
 19821              	.LASF1072:
 19822 03e7 6D676D74 		.ascii	"mgmt_sub\000"
 19822      5F737562 
 19822      00
 19823              	.LASF1155:
 19824 03f0 7E426173 		.ascii	"~BaseSubscriber\000"
 19824      65537562 
 19824      73637269 
 19824      62657200 
 19825              	.LASF911:
 19826 0400 6E6F7469 		.ascii	"notify_stop_unsafe\000"
 19826      66795F73 
 19826      746F705F 
 19826      756E7361 
 19826      666500
 19827              	.LASF220:
 19828 0413 6D656D67 		.ascii	"memgetfunc_t\000"
 19828      65746675 
 19828      6E635F74 
 19828      00
 19829              	.LASF423:
 19830 0420 6765745F 		.ascii	"get_impl\000"
 19830      696D706C 
 19830      00
 19831              	.LASF597:
 19832 0429 5F5A4E4B 		.ascii	"_ZNK3r2p10StaticListINS_5TopicEE8is_emptyEv\000"
 19832      33723270 
 19832      31305374 
 19832      61746963 
 19832      4C697374 
 19833              	.LASF689:
ARM GAS  /tmp/ccytVDiP.s 			page 352


 19834 0455 6765745F 		.ascii	"get_raw_data\000"
 19834      7261775F 
 19834      64617461 
 19834      00
 19835              	.LASF405:
 19836 0462 4E616D69 		.ascii	"NamingTraits<r2p::Topic>\000"
 19836      6E675472 
 19836      61697473 
 19836      3C723270 
 19836      3A3A546F 
 19837              	.LASF821:
 19838 047b 5F5A4E4B 		.ascii	"_ZNK3r2p10SpinEvent_10get_threadEv\000"
 19838      33723270 
 19838      31305370 
 19838      696E4576 
 19838      656E745F 
 19839              	.LASF590:
 19840 049e 5F5A4E33 		.ascii	"_ZN3r2p10StaticListINS_5TopicEE12begin_unsafeEv\000"
 19840      72327031 
 19840      30537461 
 19840      7469634C 
 19840      69737449 
 19841              	.LASF672:
 19842 04ce 666F7277 		.ascii	"forward_copy\000"
 19842      6172645F 
 19842      636F7079 
 19842      00
 19843              	.LASF954:
 19844 04db 5F5A4E33 		.ascii	"_ZN3r2p8Flasher_5writeEtPVKt\000"
 19844      72327038 
 19844      466C6173 
 19844      6865725F 
 19844      35777269 
 19845              	.LASF532:
 19846 04f8 5F5A4E33 		.ascii	"_ZN3r2p10StaticListINS_15LocalSubscriberEE5beginEv\000"
 19846      72327031 
 19846      30537461 
 19846      7469634C 
 19846      69737449 
 19847              	.LASF912:
 19848 052b 5F5A4E33 		.ascii	"_ZN3r2p4Node18notify_stop_unsafeEv\000"
 19848      72327034 
 19848      4E6F6465 
 19848      31386E6F 
 19848      74696679 
 19849              	.LASF38:
 19850 054e 5F5F746D 		.ascii	"__tm_mon\000"
 19850      5F6D6F6E 
 19850      00
 19851              	.LASF46:
 19852 0557 5F666E74 		.ascii	"_fntypes\000"
 19852      79706573 
 19852      00
 19853              	.LASF212:
 19854 0560 6D5F6E65 		.ascii	"m_next\000"
 19854      787400
 19855              	.LASF880:
ARM GAS  /tmp/ccytVDiP.s 			page 353


 19856 0567 5F5A4E4B 		.ascii	"_ZNK3r2p10StaticListINS_4NodeEE14restart_unsafeERNS"
 19856      33723270 
 19856      31305374 
 19856      61746963 
 19856      4C697374 
 19857 059a 325F3139 		.ascii	"2_19ConstIteratorUnsafeE\000"
 19857      436F6E73 
 19857      74497465 
 19857      7261746F 
 19857      72556E73 
 19858              	.LASF874:
 19859 05b3 5F5A4E4B 		.ascii	"_ZNK3r2p10StaticListINS_4NodeEE17find_first_unsafeE"
 19859      33723270 
 19859      31305374 
 19859      61746963 
 19859      4C697374 
 19860 05e6 50466252 		.ascii	"PFbRKS1_PKvES6_\000"
 19860      4B53315F 
 19860      504B7645 
 19860      53365F00 
 19861              	.LASF98:
 19862 05f6 5F696E63 		.ascii	"_inc\000"
 19862      00
 19863              	.LASF49:
 19864 05fb 5F696E64 		.ascii	"_ind\000"
 19864      00
 19865              	.LASF849:
 19866 0600 72657365 		.ascii	"reserved_\000"
 19866      72766564 
 19866      5F00
 19867              	.LASF260:
 19868 060a 72656164 		.ascii	"read\000"
 19868      00
 19869              	.LASF436:
 19870 060f 746F5F73 		.ascii	"to_s_raw\000"
 19870      5F726177 
 19870      00
 19871              	.LASF828:
 19872 0618 77616974 		.ascii	"wait\000"
 19872      00
 19873              	.LASF865:
 19874 061d 5F5A4E4B 		.ascii	"_ZNK3r2p10StaticListINS_4NodeEE15get_head_unsafeEv\000"
 19874      33723270 
 19874      31305374 
 19874      61746963 
 19874      4C697374 
 19875              	.LASF127:
 19876 0650 66656F66 		.ascii	"feof\000"
 19876      00
 19877              	.LASF545:
 19878 0655 5F5A4E33 		.ascii	"_ZN3r2p15LocalSubscriber12fetch_unsafeERPNS_7Messag"
 19878      72327031 
 19878      354C6F63 
 19878      616C5375 
 19878      62736372 
 19879 0688 6545524E 		.ascii	"eERNS_4TimeE\000"
 19879      535F3454 
ARM GAS  /tmp/ccytVDiP.s 			page 354


 19879      696D6545 
 19879      00
 19880              	.LASF957:
 19881 0695 61646472 		.ascii	"address_of\000"
 19881      6573735F 
 19881      6F6600
 19882              	.LASF153:
 19883 06a0 75696E74 		.ascii	"uint16_t\000"
 19883      31365F74 
 19883      00
 19884              	.LASF872:
 19885 06a9 5F5A4E4B 		.ascii	"_ZNK3r2p10StaticListINS_4NodeEE15contains_unsafeERK"
 19885      33723270 
 19885      31305374 
 19885      61746963 
 19885      4C697374 
 19886 06dc 53315F00 		.ascii	"S1_\000"
 19887              	.LASF834:
 19888 06e0 5F5A4E33 		.ascii	"_ZN3r2p9SpinEvent6signalEj\000"
 19888      72327039 
 19888      5370696E 
 19888      4576656E 
 19888      74367369 
 19889              	.LASF376:
 19890 06fb 736F665F 		.ascii	"sof_cb\000"
 19890      636200
 19891              	.LASF703:
 19892 0702 6765745F 		.ascii	"get_msg_from_raw_data\000"
 19892      6D73675F 
 19892      66726F6D 
 19892      5F726177 
 19892      5F646174 
 19893              	.LASF55:
 19894 0718 5F666C61 		.ascii	"_flags\000"
 19894      677300
 19895              	.LASF555:
 19896 071f 5F5A4E4B 		.ascii	"_ZNK3r2p10StaticListINS_16RemoteSubscriberEE17find_"
 19896      33723270 
 19896      31305374 
 19896      61746963 
 19896      4C697374 
 19897 0752 66697273 		.ascii	"first_unsafeEPFbRKS1_E\000"
 19897      745F756E 
 19897      73616665 
 19897      45504662 
 19897      524B5331 
 19898              	.LASF226:
 19899 0769 6E657874 		.ascii	"next\000"
 19899      00
 19900              	.LASF601:
 19901 076e 5F5A4E4B 		.ascii	"_ZNK3r2p10StaticListINS_5TopicEE8index_ofERKS1_\000"
 19901      33723270 
 19901      31305374 
 19901      61746963 
 19901      4C697374 
 19902              	.LASF941:
 19903 079e 5F5A4E33 		.ascii	"_ZN3r2p8Flasher_5flashEPKhS2_j\000"
ARM GAS  /tmp/ccytVDiP.s 			page 355


 19903      72327038 
 19903      466C6173 
 19903      6865725F 
 19903      35666C61 
 19904              	.LASF755:
 19905 07bd 6C656E67 		.ascii	"length\000"
 19905      746800
 19906              	.LASF994:
 19907 07c4 636F756E 		.ascii	"counter\000"
 19907      74657200 
 19908              	.LASF762:
 19909 07cc 6765745F 		.ascii	"get_length\000"
 19909      6C656E67 
 19909      746800
 19910              	.LASF214:
 19911 07d7 656C5F6E 		.ascii	"el_next\000"
 19911      65787400 
 19912              	.LASF295:
 19913 07df 696E5F70 		.ascii	"in_params\000"
 19913      6172616D 
 19913      7300
 19914              	.LASF1185:
 19915 07e9 5F5A4E33 		.ascii	"_ZN3r2p13BasePublisher23publish_remotely_unsafeERNS"
 19915      72327031 
 19915      33426173 
 19915      65507562 
 19915      6C697368 
 19916 081c 5F374D65 		.ascii	"_7MessageE\000"
 19916      73736167 
 19916      654500
 19917              	.LASF108:
 19918 0827 5F637674 		.ascii	"_cvtlen\000"
 19918      6C656E00 
 19919              	.LASF1239:
 19920 082f 5F5A4E33 		.ascii	"_ZN3r2p9PublisherINS_7MgmtMsgEED2Ev\000"
 19920      72327039 
 19920      5075626C 
 19920      69736865 
 19920      72494E53 
 19921              	.LASF981:
 19922 0853 5F5A4E33 		.ascii	"_ZN3r2p6Mutex_14acquire_unsafeEv\000"
 19922      72327036 
 19922      4D757465 
 19922      785F3134 
 19922      61637175 
 19923              	.LASF459:
 19924 0874 54696D65 		.ascii	"Time<long int>\000"
 19924      3C6C6F6E 
 19924      6720696E 
 19924      743E00
 19925              	.LASF112:
 19926 0883 5F736967 		.ascii	"_sig_func\000"
 19926      5F66756E 
 19926      6300
 19927              	.LASF1191:
 19928 088d 5F5A4E33 		.ascii	"_ZN3r2p13BasePublisher16publish_remotelyERNS_7Messa"
 19928      72327031 
ARM GAS  /tmp/ccytVDiP.s 			page 356


 19928      33426173 
 19928      65507562 
 19928      6C697368 
 19929 08c0 67654500 		.ascii	"geE\000"
 19930              	.LASF1028:
 19931 08c4 5F5A4E33 		.ascii	"_ZN3r2p10StaticListINS_9TransportEE5beginEv\000"
 19931      72327031 
 19931      30537461 
 19931      7469634C 
 19931      69737449 
 19932              	.LASF177:
 19933 08f0 705F6E65 		.ascii	"p_newer\000"
 19933      77657200 
 19934              	.LASF1008:
 19935 08f8 5F5A4E33 		.ascii	"_ZN3r2p10StaticListINS_9TransportEE13unlink_unsafeE"
 19935      72327031 
 19935      30537461 
 19935      7469634C 
 19935      69737449 
 19936 092b 524E5332 		.ascii	"RNS2_4LinkE\000"
 19936      5F344C69 
 19936      6E6B4500 
 19937              	.LASF635:
 19938 0937 6861735F 		.ascii	"has_remote_publishers\000"
 19938      72656D6F 
 19938      74655F70 
 19938      75626C69 
 19938      73686572 
 19939              	.LASF1223:
 19940 094d 5F5A4E33 		.ascii	"_ZN3r2p4TimeC2IlEET_\000"
 19940      72327034 
 19940      54696D65 
 19940      4332496C 
 19940      4545545F 
 19941              	.LASF741:
 19942 0962 5F5A4E33 		.ascii	"_ZN3r2p10StaticListINS_14LocalPublisherEE4linkERNS2"
 19942      72327031 
 19942      30537461 
 19942      7469634C 
 19942      69737449 
 19943 0995 5F344C69 		.ascii	"_4LinkE\000"
 19943      6E6B4500 
 19944              	.LASF558:
 19945 099d 5F5A4E33 		.ascii	"_ZN3r2p10StaticListINS_16RemoteSubscriberEE10end_un"
 19945      72327031 
 19945      30537461 
 19945      7469634C 
 19945      69737449 
 19946 09d0 73616665 		.ascii	"safeEv\000"
 19946      457600
 19947              	.LASF958:
 19948 09d7 5F5A4E33 		.ascii	"_ZN3r2p8Flasher_10address_ofEt\000"
 19948      72327038 
 19948      466C6173 
 19948      6865725F 
 19948      31306164 
 19949              	.LASF443:
ARM GAS  /tmp/ccytVDiP.s 			page 357


 19950 09f6 5F5A4E4B 		.ascii	"_ZNK3r2p4Time5to_msEv\000"
 19950      33723270 
 19950      3454696D 
 19950      6535746F 
 19950      5F6D7345 
 19951              	.LASF826:
 19952 0a0c 7369676E 		.ascii	"signal\000"
 19952      616C00
 19953              	.LASF68:
 19954 0a13 5F6C6F63 		.ascii	"_lock\000"
 19954      6B00
 19955              	.LASF64:
 19956 0a19 5F6E6275 		.ascii	"_nbuf\000"
 19956      6600
 19957              	.LASF949:
 19958 0a1f 5F5A4E33 		.ascii	"_ZN3r2p8Flasher_9is_erasedEt\000"
 19958      72327038 
 19958      466C6173 
 19958      6865725F 
 19958      3969735F 
 19959              	.LASF674:
 19960 0a3c 65787465 		.ascii	"extend_pool\000"
 19960      6E645F70 
 19960      6F6F6C00 
 19961              	.LASF93:
 19962 0a48 5F756E75 		.ascii	"_unused\000"
 19962      73656400 
 19963              	.LASF804:
 19964 0a50 48494748 		.ascii	"HIGHEST\000"
 19964      45535400 
 19965              	.LASF790:
 19966 0a58 5F5A4E33 		.ascii	"_ZN3r2p7Thread_4selfEv\000"
 19966      72327037 
 19966      54687265 
 19966      61645F34 
 19966      73656C66 
 19967              	.LASF936:
 19968 0a6f 666C6173 		.ascii	"flash_aligned\000"
 19968      685F616C 
 19968      69676E65 
 19968      6400
 19969              	.LASF1129:
 19970 0a7d 5F5A4E33 		.ascii	"_ZN3r2p10Middleware11touch_topicEPKcj\000"
 19970      72327031 
 19970      304D6964 
 19970      646C6577 
 19970      61726531 
 19971              	.LASF1267:
 19972 0aa3 73746174 		.ascii	"static_cast_check<r2p::MgmtMsg, r2p::Message>\000"
 19972      69635F63 
 19972      6173745F 
 19972      63686563 
 19972      6B3C7232 
 19973              	.LASF1012:
 19974 0ad1 5F5A4E4B 		.ascii	"_ZNK3r2p10StaticListINS_9TransportEE17find_first_un"
 19974      33723270 
 19974      31305374 
ARM GAS  /tmp/ccytVDiP.s 			page 358


 19974      61746963 
 19974      4C697374 
 19975 0b04 73616665 		.ascii	"safeEPFbRKS1_PKvES6_\000"
 19975      45504662 
 19975      524B5331 
 19975      5F504B76 
 19975      4553365F 
 19976              	.LASF687:
 19977 0b19 52656663 		.ascii	"RefcountType\000"
 19977      6F756E74 
 19977      54797065 
 19977      00
 19978              	.LASF560:
 19979 0b26 5F5A4E4B 		.ascii	"_ZNK3r2p10StaticListINS_16RemoteSubscriberEE12begin"
 19979      33723270 
 19979      31305374 
 19979      61746963 
 19979      4C697374 
 19980 0b59 5F756E73 		.ascii	"_unsafeEv\000"
 19980      61666545 
 19980      7600
 19981              	.LASF551:
 19982 0b63 5F5A4E33 		.ascii	"_ZN3r2p10StaticListINS_16RemoteSubscriberEE16link_t"
 19982      72327031 
 19982      30537461 
 19982      7469634C 
 19982      69737449 
 19983 0b96 61696C5F 		.ascii	"ail_unsafeERNS2_4LinkE\000"
 19983      756E7361 
 19983      66654552 
 19983      4E53325F 
 19983      344C696E 
 19984              	.LASF744:
 19985 0bad 5F5A4E4B 		.ascii	"_ZNK3r2p10StaticListINS_14LocalPublisherEE8contains"
 19985      33723270 
 19985      31305374 
 19985      61746963 
 19985      4C697374 
 19986 0be0 45524B53 		.ascii	"ERKS1_\000"
 19986      315F00
 19987              	.LASF906:
 19988 0be7 5F5A4E4B 		.ascii	"_ZNK3r2p4Node11get_enabledEv\000"
 19988      33723270 
 19988      344E6F64 
 19988      65313167 
 19988      65745F65 
 19989              	.LASF697:
 19990 0c04 5F5A4E33 		.ascii	"_ZN3r2p7Message7releaseEv\000"
 19990      72327037 
 19990      4D657373 
 19990      61676537 
 19990      72656C65 
 19991              	.LASF159:
 19992 0c1e 626F6F6C 		.ascii	"bool\000"
 19992      00
 19993              	.LASF1241:
 19994 0c23 5F5A4E33 		.ascii	"_ZN3r2p16SubscriberExtBufINS_7MgmtMsgEED2Ev\000"
ARM GAS  /tmp/ccytVDiP.s 			page 359


 19994      72327031 
 19994      36537562 
 19994      73637269 
 19994      62657245 
 19995              	.LASF270:
 19996 0c4f 4F545950 		.ascii	"OTYPER\000"
 19996      455200
 19997              	.LASF677:
 19998 0c56 5F5A4E33 		.ascii	"_ZN3r2p5Topic9advertiseERNS_14LocalPublisherERKNS_4"
 19998      72327035 
 19998      546F7069 
 19998      63396164 
 19998      76657274 
 19999 0c89 54696D65 		.ascii	"TimeE\000"
 19999      4500
 20000              	.LASF391:
 20001 0c8f 73747263 		.ascii	"strcoll\000"
 20001      6F6C6C00 
 20002              	.LASF1217:
 20003 0c97 5F5A3139 		.ascii	"_Z19usb_lld_connect_busP9USBDriver\000"
 20003      7573625F 
 20003      6C6C645F 
 20003      636F6E6E 
 20003      6563745F 
 20004              	.LASF101:
 20005 0cba 5F637572 		.ascii	"_current_locale\000"
 20005      72656E74 
 20005      5F6C6F63 
 20005      616C6500 
 20006              	.LASF1087:
 20007 0cca 626F6F74 		.ascii	"boot_mode_magic\000"
 20007      5F6D6F64 
 20007      655F6D61 
 20007      67696300 
 20008              	.LASF1188:
 20009 0cda 7075626C 		.ascii	"publish_locally\000"
 20009      6973685F 
 20009      6C6F6361 
 20009      6C6C7900 
 20010              	.LASF1061:
 20011 0cea 6E6F6465 		.ascii	"nodes\000"
 20011      7300
 20012              	.LASF873:
 20013 0cf0 5F5A4E4B 		.ascii	"_ZNK3r2p10StaticListINS_4NodeEE17find_first_unsafeE"
 20013      33723270 
 20013      31305374 
 20013      61746963 
 20013      4C697374 
 20014 0d23 50466252 		.ascii	"PFbRKS1_E\000"
 20014      4B53315F 
 20014      4500
 20015              	.LASF154:
 20016 0d2d 696E7433 		.ascii	"int32_t\000"
 20016      325F7400 
 20017              	.LASF864:
 20018 0d35 5F5A4E4B 		.ascii	"_ZNK3r2p10StaticListINS_4NodeEE13ConstIterator8is_v"
 20018      33723270 
ARM GAS  /tmp/ccytVDiP.s 			page 360


 20018      31305374 
 20018      61746963 
 20018      4C697374 
 20019 0d68 616C6964 		.ascii	"alidEv\000"
 20019      457600
 20020              	.LASF660:
 20021 0d6f 666F7277 		.ascii	"forward_copy_unsafe\000"
 20021      6172645F 
 20021      636F7079 
 20021      5F756E73 
 20021      61666500 
 20022              	.LASF167:
 20023 0d83 73797374 		.ascii	"systime_t\000"
 20023      696D655F 
 20023      7400
 20024              	.LASF1159:
 20025 0d8d 43616C6C 		.ascii	"Callback\000"
 20025      6261636B 
 20025      00
 20026              	.LASF726:
 20027 0d96 5F5A4E33 		.ascii	"_ZN3r2p10StaticListINS_14LocalPublisherEE16link_tai"
 20027      72327031 
 20027      30537461 
 20027      7469634C 
 20027      69737449 
 20028 0dc9 6C5F756E 		.ascii	"l_unsafeERNS2_4LinkE\000"
 20028      73616665 
 20028      45524E53 
 20028      325F344C 
 20028      696E6B45 
 20029              	.LASF123:
 20030 0dde 5F616464 		.ascii	"_add\000"
 20030      00
 20031              	.LASF792:
 20032 0de3 7365745F 		.ascii	"set_priority\000"
 20032      7072696F 
 20032      72697479 
 20032      00
 20033              	.LASF739:
 20034 0df0 5F5A4E4B 		.ascii	"_ZNK3r2p10StaticListINS_14LocalPublisherEE8is_empty"
 20034      33723270 
 20034      31305374 
 20034      61746963 
 20034      4C697374 
 20035 0e23 457600   		.ascii	"Ev\000"
 20036              	.LASF216:
 20037 0e26 656C5F6D 		.ascii	"el_mask\000"
 20037      61736B00 
 20038              	.LASF875:
 20039 0e2e 5F5A4E33 		.ascii	"_ZN3r2p10StaticListINS_4NodeEE12begin_unsafeEv\000"
 20039      72327031 
 20039      30537461 
 20039      7469634C 
 20039      69737449 
 20040              	.LASF895:
 20041 0e5d 5F5A4E4B 		.ascii	"_ZNK3r2p10StaticListINS_4NodeEE7restartERNS2_13Cons"
 20041      33723270 
ARM GAS  /tmp/ccytVDiP.s 			page 361


 20041      31305374 
 20041      61746963 
 20041      4C697374 
 20042 0e90 74497465 		.ascii	"tIteratorE\000"
 20042      7261746F 
 20042      724500
 20043              	.LASF607:
 20044 0e9b 5F5A4E33 		.ascii	"_ZN3r2p10StaticListINS_5TopicEE7restartERNS2_8Itera"
 20044      72327031 
 20044      30537461 
 20044      7469634C 
 20044      69737449 
 20045 0ece 746F7245 		.ascii	"torE\000"
 20045      00
 20046              	.LASF1037:
 20047 0ed3 6765745F 		.ascii	"get_topic\000"
 20047      746F7069 
 20047      6300
 20048              	.LASF891:
 20049 0edd 5F5A4E33 		.ascii	"_ZN3r2p10StaticListINS_4NodeEE3endEv\000"
 20049      72327031 
 20049      30537461 
 20049      7469634C 
 20049      69737449 
 20050              	.LASF504:
 20051 0f02 5F5A4E4B 		.ascii	"_ZNK3r2p10StaticListINS_15LocalSubscriberEE17find_f"
 20051      33723270 
 20051      31305374 
 20051      61746963 
 20051      4C697374 
 20052 0f35 69727374 		.ascii	"irst_unsafeEPFbRKS1_PKvES6_\000"
 20052      5F756E73 
 20052      61666545 
 20052      50466252 
 20052      4B53315F 
 20053              	.LASF1033:
 20054 0f51 5F5A4E4B 		.ascii	"_ZNK3r2p10StaticListINS_9TransportEE7restartERNS2_1"
 20054      33723270 
 20054      31305374 
 20054      61746963 
 20054      4C697374 
 20055 0f84 33436F6E 		.ascii	"3ConstIteratorE\000"
 20055      73744974 
 20055      65726174 
 20055      6F724500 
 20056              	.LASF1206:
 20057 0f94 7072696F 		.ascii	"priority\000"
 20057      72697479 
 20057      00
 20058              	.LASF1060:
 20059 0f9d 6D6F6475 		.ascii	"module_namep\000"
 20059      6C655F6E 
 20059      616D6570 
 20059      00
 20060              	.LASF986:
 20061 0faa 7E4D7574 		.ascii	"~Mutex_\000"
 20061      65785F00 
ARM GAS  /tmp/ccytVDiP.s 			page 362


 20062              	.LASF1258:
 20063 0fb2 474E5520 		.ascii	"GNU C++ 4.9.3 20141119 (release) [ARM/embedded-4_9-"
 20063      432B2B20 
 20063      342E392E 
 20063      33203230 
 20063      31343131 
 20064 0fe5 6272616E 		.ascii	"branch revision 218278] -mcpu=cortex-m4 -mno-thumb-"
 20064      63682072 
 20064      65766973 
 20064      696F6E20 
 20064      32313832 
 20065 1018 696E7465 		.ascii	"interwork -mthumb -ggdb -O0 -fomit-frame-pointer -f"
 20065      72776F72 
 20065      6B202D6D 
 20065      7468756D 
 20065      62202D67 
 20066 104b 6E6F2D72 		.ascii	"no-rtti -fno-exceptions -fno-threadsafe-statics\000"
 20066      74746920 
 20066      2D666E6F 
 20066      2D657863 
 20066      65707469 
 20067              	.LASF1216:
 20068 107b 7573625F 		.ascii	"usb_lld_connect_bus\000"
 20068      6C6C645F 
 20068      636F6E6E 
 20068      6563745F 
 20068      62757300 
 20069              	.LASF248:
 20070 108f 496E7075 		.ascii	"InputQueue\000"
 20070      74517565 
 20070      756500
 20071              	.LASF247:
 20072 109a 716E6F74 		.ascii	"qnotify_t\000"
 20072      6966795F 
 20072      7400
 20073              	.LASF1042:
 20074 10a4 5F5A4E33 		.ascii	"_ZN3r2p14BaseSubscriber13notify_unsafeERNS_7Message"
 20074      72327031 
 20074      34426173 
 20074      65537562 
 20074      73637269 
 20075 10d7 45524B4E 		.ascii	"ERKNS_4TimeE\000"
 20075      535F3454 
 20075      696D6545 
 20075      00
 20076              	.LASF636:
 20077 10e4 5F5A4E4B 		.ascii	"_ZNK3r2p5Topic21has_remote_publishersEv\000"
 20077      33723270 
 20077      35546F70 
 20077      69633231 
 20077      6861735F 
 20078              	.LASF602:
 20079 110c 5F5A4E4B 		.ascii	"_ZNK3r2p10StaticListINS_5TopicEE8containsERKS1_\000"
 20079      33723270 
 20079      31305374 
 20079      61746963 
 20079      4C697374 
ARM GAS  /tmp/ccytVDiP.s 			page 363


 20080              	.LASF221:
 20081 113c 4D656D6F 		.ascii	"MemoryHeap\000"
 20081      72794865 
 20081      617000
 20082              	.LASF242:
 20083 1147 715F746F 		.ascii	"q_top\000"
 20083      7000
 20084              	.LASF57:
 20085 114d 5F6C6266 		.ascii	"_lbfsize\000"
 20085      73697A65 
 20085      00
 20086              	.LASF335:
 20087 1156 75645F73 		.ascii	"ud_string\000"
 20087      7472696E 
 20087      6700
 20088              	.LASF690:
 20089 1160 5F5A4E4B 		.ascii	"_ZNK3r2p7Message12get_raw_dataEv\000"
 20089      33723270 
 20089      374D6573 
 20089      73616765 
 20089      31326765 
 20090              	.LASF1016:
 20091 1181 5F5A4E4B 		.ascii	"_ZNK3r2p10StaticListINS_9TransportEE12begin_unsafeE"
 20091      33723270 
 20091      31305374 
 20091      61746963 
 20091      4C697374 
 20092 11b4 7600     		.ascii	"v\000"
 20093              	.LASF1229:
 20094 11b6 5F5A4E33 		.ascii	"_ZN3r2p10StaticListINS_5TopicEED2Ev\000"
 20094      72327031 
 20094      30537461 
 20094      7469634C 
 20094      69737449 
 20095              	.LASF300:
 20096 11da 65703065 		.ascii	"ep0endcb\000"
 20096      6E646362 
 20096      00
 20097              	.LASF855:
 20098 11e3 74797065 		.ascii	"type\000"
 20098      00
 20099              	.LASF642:
 20100 11e8 5F5A4E4B 		.ascii	"_ZNK3r2p5Topic22has_remote_subscribersEv\000"
 20100      33723270 
 20100      35546F70 
 20100      69633232 
 20100      6861735F 
 20101              	.LASF616:
 20102 1211 6E756D5F 		.ascii	"num_remote_publishers\000"
 20102      72656D6F 
 20102      74655F70 
 20102      75626C69 
 20102      73686572 
 20103              	.LASF1212:
 20104 1227 5F5A4E33 		.ascii	"_ZN3r2p6Mutex_D2Ev\000"
 20104      72327036 
 20104      4D757465 
ARM GAS  /tmp/ccytVDiP.s 			page 364


 20104      785F4432 
 20104      457600
 20105              	.LASF1098:
 20106 123a 6765745F 		.ascii	"get_boot_topic\000"
 20106      626F6F74 
 20106      5F746F70 
 20106      696300
 20107              	.LASF837:
 20108 1249 50617468 		.ascii	"Path\000"
 20108      00
 20109              	.LASF1225:
 20110 124e 5F5A4E33 		.ascii	"_ZN3r2p9PublisherINS_11String64MsgEEC2Ev\000"
 20110      72327039 
 20110      5075626C 
 20110      69736865 
 20110      72494E53 
 20111              	.LASF876:
 20112 1277 5F5A4E33 		.ascii	"_ZN3r2p10StaticListINS_4NodeEE10end_unsafeEv\000"
 20112      72327031 
 20112      30537461 
 20112      7469634C 
 20112      69737449 
 20113              	.LASF1131:
 20114 12a4 5F5A4E33 		.ascii	"_ZN3r2p10Middleware12mgmt_threadfEPv\000"
 20114      72327031 
 20114      304D6964 
 20114      646C6577 
 20114      61726531 
 20115              	.LASF733:
 20116 12c9 5F5A4E33 		.ascii	"_ZN3r2p10StaticListINS_14LocalPublisherEE10end_unsa"
 20116      72327031 
 20116      30537461 
 20116      7469634C 
 20116      69737449 
 20117 12fc 66654576 		.ascii	"feEv\000"
 20117      00
 20118              	.LASF483:
 20119 1301 5F5A4E4B 		.ascii	"_ZNK3r2p10StaticListINS_15LocalSubscriberEE13ConstI"
 20119      33723270 
 20119      31305374 
 20119      61746963 
 20119      4C697374 
 20120 1334 74657261 		.ascii	"terator8is_validEv\000"
 20120      746F7238 
 20120      69735F76 
 20120      616C6964 
 20120      457600
 20121              	.LASF387:
 20122 1347 62756C6B 		.ascii	"bulk_out\000"
 20122      5F6F7574 
 20122      00
 20123              	.LASF267:
 20124 1350 31324750 		.ascii	"12GPIO_TypeDef\000"
 20124      494F5F54 
 20124      79706544 
 20124      656600
 20125              	.LASF966:
ARM GAS  /tmp/ccytVDiP.s 			page 365


 20126 135f 5F5A4E33 		.ascii	"_ZN3r2p8Flasher_17get_program_startEv\000"
 20126      72327038 
 20126      466C6173 
 20126      6865725F 
 20126      31376765 
 20127              	.LASF338:
 20128 1385 75736265 		.ascii	"usbepcallback_t\000"
 20128      7063616C 
 20128      6C626163 
 20128      6B5F7400 
 20129              	.LASF67:
 20130 1395 5F646174 		.ascii	"_data\000"
 20130      6100
 20131              	.LASF505:
 20132 139b 62656769 		.ascii	"begin_unsafe\000"
 20132      6E5F756E 
 20132      73616665 
 20132      00
 20133              	.LASF1161:
 20134 13a8 6765745F 		.ascii	"get_callback\000"
 20134      63616C6C 
 20134      6261636B 
 20134      00
 20135              	.LASF644:
 20136 13b5 5F5A4E4B 		.ascii	"_ZNK3r2p5Topic15has_subscribersEv\000"
 20136      33723270 
 20136      35546F70 
 20136      69633135 
 20136      6861735F 
 20137              	.LASF541:
 20138 13d7 4974656D 		.ascii	"Item\000"
 20138      00
 20139              	.LASF418:
 20140 13dc 66726565 		.ascii	"free\000"
 20140      00
 20141              	.LASF972:
 20142 13e1 5F5A4E33 		.ascii	"_ZN3r2p8Flasher_13get_ram_startEv\000"
 20142      72327038 
 20142      466C6173 
 20142      6865725F 
 20142      31336765 
 20143              	.LASF441:
 20144 1403 5F5A4E4B 		.ascii	"_ZNK3r2p4Time5to_usEv\000"
 20144      33723270 
 20144      3454696D 
 20144      6535746F 
 20144      5F757345 
 20145              	.LASF539:
 20146 1419 53746174 		.ascii	"StaticList\000"
 20146      69634C69 
 20146      737400
 20147              	.LASF626:
 20148 1424 5F5A4E4B 		.ascii	"_ZNK3r2p5Topic13get_type_sizeEv\000"
 20148      33723270 
 20148      35546F70 
 20148      69633133 
 20148      6765745F 
ARM GAS  /tmp/ccytVDiP.s 			page 366


 20149              	.LASF1151:
 20150 1444 5F5A4E33 		.ascii	"_ZN3r2p9PublisherINS_7MgmtMsgEE5allocERPS1_\000"
 20150      72327039 
 20150      5075626C 
 20150      69736865 
 20150      72494E53 
 20151              	.LASF1265:
 20152 1470 5F5A4E33 		.ascii	"_ZN3r2p8Flasher_3endEv\000"
 20152      72327038 
 20152      466C6173 
 20152      6865725F 
 20152      33656E64 
 20153              	.LASF185:
 20154 1487 705F7761 		.ascii	"p_waiting\000"
 20154      6974696E 
 20154      6700
 20155              	.LASF654:
 20156 1491 5F5A4E33 		.ascii	"_ZN3r2p5Topic14release_unsafeERNS_7MessageE\000"
 20156      72327035 
 20156      546F7069 
 20156      63313472 
 20156      656C6561 
 20157              	.LASF1183:
 20158 14bd 5F5A4E33 		.ascii	"_ZN3r2p13BasePublisher22publish_locally_unsafeERNS_"
 20158      72327031 
 20158      33426173 
 20158      65507562 
 20158      6C697368 
 20159 14f0 374D6573 		.ascii	"7MessageE\000"
 20159      73616765 
 20159      4500
 20160              	.LASF239:
 20161 14fa 715F7761 		.ascii	"q_waiting\000"
 20161      6974696E 
 20161      6700
 20162              	.LASF1148:
 20163 1504 7E4D6964 		.ascii	"~Middleware\000"
 20163      646C6577 
 20163      61726500 
 20164              	.LASF1243:
 20165 1510 726C6973 		.ascii	"rlist\000"
 20165      7400
 20166              	.LASF665:
 20167 1516 5F5A4E33 		.ascii	"_ZN3r2p5Topic5allocEv\000"
 20167      72327035 
 20167      546F7069 
 20167      6335616C 
 20167      6C6F6345 
 20168              	.LASF996:
 20169 152c 5F5A4E33 		.ascii	"_ZN3r2p7ReMutex10initializeEv\000"
 20169      72327037 
 20169      52654D75 
 20169      74657831 
 20169      30696E69 
 20170              	.LASF453:
 20171 154a 5F5A4E33 		.ascii	"_ZN3r2p4TimemIERKS0_\000"
 20171      72327034 
ARM GAS  /tmp/ccytVDiP.s 			page 367


 20171      54696D65 
 20171      6D494552 
 20171      4B53305F 
 20172              	.LASF144:
 20173 155f 72656E61 		.ascii	"rename\000"
 20173      6D6500
 20174              	.LASF71:
 20175 1566 5F726565 		.ascii	"_reent\000"
 20175      6E7400
 20176              	.LASF358:
 20177 156d 7278706B 		.ascii	"rxpkts\000"
 20177      747300
 20178              	.LASF1003:
 20179 1574 5F5A4E4B 		.ascii	"_ZNK3r2p10StaticListINS_9TransportEE15get_head_unsa"
 20179      33723270 
 20179      31305374 
 20179      61746963 
 20179      4C697374 
 20180 15a7 66654576 		.ascii	"feEv\000"
 20180      00
 20181              	.LASF355:
 20182 15ac 72787175 		.ascii	"rxqueued\000"
 20182      65756564 
 20182      00
 20183              	.LASF776:
 20184 15b5 52657475 		.ascii	"Return\000"
 20184      726E00
 20185              	.LASF195:
 20186 15bc 31315468 		.ascii	"11ThreadsList\000"
 20186      72656164 
 20186      734C6973 
 20186      7400
 20187              	.LASF1114:
 20188 15ca 5F5A4E33 		.ascii	"_ZN3r2p10Middleware13reboot_remoteEPKcb\000"
 20188      72327031 
 20188      304D6964 
 20188      646C6577 
 20188      61726531 
 20189              	.LASF114:
 20190 15f2 5F5F7366 		.ascii	"__sf\000"
 20190      00
 20191              	.LASF707:
 20192 15f7 4C6F6361 		.ascii	"LocalPublisher\000"
 20192      6C507562 
 20192      6C697368 
 20192      657200
 20193              	.LASF646:
 20194 1606 5F5A4E4B 		.ascii	"_ZNK3r2p5Topic26is_awaiting_advertisementsEv\000"
 20194      33723270 
 20194      35546F70 
 20194      69633236 
 20194      69735F61 
 20195              	.LASF582:
 20196 1633 5F5A4E4B 		.ascii	"_ZNK3r2p10StaticListINS_5TopicEE12count_unsafeEv\000"
 20196      33723270 
 20196      31305374 
 20196      61746963 
ARM GAS  /tmp/ccytVDiP.s 			page 368


 20196      4C697374 
 20197              	.LASF52:
 20198 1664 5F626173 		.ascii	"_base\000"
 20198      6500
 20199              	.LASF1237:
 20200 166a 5F5F696E 		.ascii	"__initialize_p\000"
 20200      69746961 
 20200      6C697A65 
 20200      5F7000
 20201              	.LASF134:
 20202 1679 66726561 		.ascii	"fread\000"
 20202      6400
 20203              	.LASF956:
 20204 167f 5F5A4E33 		.ascii	"_ZN3r2p8Flasher_15write_if_neededEtPVKt\000"
 20204      72327038 
 20204      466C6173 
 20204      6865725F 
 20204      31357772 
 20205              	.LASF80:
 20206 16a7 5F6D6274 		.ascii	"_mbtowc_state\000"
 20206      6F77635F 
 20206      73746174 
 20206      6500
 20207              	.LASF1157:
 20208 16b5 4D657373 		.ascii	"MessageType\000"
 20208      61676554 
 20208      79706500 
 20209              	.LASF694:
 20210 16c1 72657365 		.ascii	"reset_unsafe\000"
 20210      745F756E 
 20210      73616665 
 20210      00
 20211              	.LASF419:
 20212 16ce 5F5A4E33 		.ascii	"_ZN3r2p11MemoryPool_11free_unsafeEPv\000"
 20212      72327031 
 20212      314D656D 
 20212      6F727950 
 20212      6F6F6C5F 
 20213              	.LASF1182:
 20214 16f3 7075626C 		.ascii	"publish_locally_unsafe\000"
 20214      6973685F 
 20214      6C6F6361 
 20214      6C6C795F 
 20214      756E7361 
 20215              	.LASF130:
 20216 170a 66676574 		.ascii	"fgetc\000"
 20216      6300
 20217              	.LASF533:
 20218 1710 72657374 		.ascii	"restart\000"
 20218      61727400 
 20219              	.LASF438:
 20220 1718 746F5F6D 		.ascii	"to_m_raw\000"
 20220      5F726177 
 20220      00
 20221              	.LASF279:
 20222 1721 53445F55 		.ascii	"SD_UNINIT\000"
 20222      4E494E49 
ARM GAS  /tmp/ccytVDiP.s 			page 369


 20222      5400
 20223              	.LASF1181:
 20224 172b 5F5A4E33 		.ascii	"_ZN3r2p13BasePublisher14publish_unsafeERNS_7Message"
 20224      72327031 
 20224      33426173 
 20224      65507562 
 20224      6C697368 
 20225 175e 4500     		.ascii	"E\000"
 20226              	.LASF1005:
 20227 1760 5F5A4E4B 		.ascii	"_ZNK3r2p10StaticListINS_9TransportEE12count_unsafeE"
 20227      33723270 
 20227      31305374 
 20227      61746963 
 20227      4C697374 
 20228 1793 7600     		.ascii	"v\000"
 20229              	.LASF1230:
 20230 1795 5F5A4E33 		.ascii	"_ZN3r2p10StaticListINS_9TransportEED2Ev\000"
 20230      72327031 
 20230      30537461 
 20230      7469634C 
 20230      69737449 
 20231              	.LASF1065:
 20232 17bd 6D676D74 		.ascii	"mgmt_topic\000"
 20232      5F746F70 
 20232      696300
 20233              	.LASF132:
 20234 17c8 66676574 		.ascii	"fgets\000"
 20234      7300
 20235              	.LASF163:
 20236 17ce 74707269 		.ascii	"tprio_t\000"
 20236      6F5F7400 
 20237              	.LASF1112:
 20238 17d6 5F5A4E33 		.ascii	"_ZN3r2p10Middleware11stop_remoteEPKc\000"
 20238      72327031 
 20238      304D6964 
 20238      646C6577 
 20238      61726531 
 20239              	.LASF1090:
 20240 17fb 6765745F 		.ascii	"get_nodes\000"
 20240      6E6F6465 
 20240      7300
 20241              	.LASF234:
 20242 1805 6D705F6F 		.ascii	"mp_object_size\000"
 20242      626A6563 
 20242      745F7369 
 20242      7A6500
 20243              	.LASF485:
 20244 1814 4D617463 		.ascii	"Matches\000"
 20244      68657300 
 20245              	.LASF1202:
 20246 181c 6D736770 		.ascii	"msgp\000"
 20246      00
 20247              	.LASF823:
 20248 1821 5F5A4E33 		.ascii	"_ZN3r2p10SpinEvent_10set_threadEPNS_6ThreadE\000"
 20248      72327031 
 20248      30537069 
 20248      6E457665 
ARM GAS  /tmp/ccytVDiP.s 			page 370


 20248      6E745F31 
 20249              	.LASF1126:
 20250 184e 66696E64 		.ascii	"find_node\000"
 20250      5F6E6F64 
 20250      6500
 20251              	.LASF761:
 20252 1858 5F5A4E33 		.ascii	"_ZN3r2p10ArrayQueueIPNS_7MessageEE11skip_unsafeEv\000"
 20252      72327031 
 20252      30417272 
 20252      61795175 
 20252      65756549 
 20253              	.LASF135:
 20254 188a 6672656F 		.ascii	"freopen\000"
 20254      70656E00 
 20255              	.LASF33:
 20256 1892 5F5F746D 		.ascii	"__tm\000"
 20256      00
 20257              	.LASF940:
 20258 1897 666C6173 		.ascii	"flash\000"
 20258      6800
 20259              	.LASF495:
 20260 189d 5F5A4E33 		.ascii	"_ZN3r2p10StaticListINS_15LocalSubscriberEE16link_ta"
 20260      72327031 
 20260      30537461 
 20260      7469634C 
 20260      69737449 
 20261 18d0 696C5F75 		.ascii	"il_unsafeERNS2_4LinkE\000"
 20261      6E736166 
 20261      6545524E 
 20261      53325F34 
 20261      4C696E6B 
 20262              	.LASF236:
 20263 18e6 4D656D6F 		.ascii	"MemoryPool\000"
 20263      7279506F 
 20263      6F6C00
 20264              	.LASF301:
 20265 18f1 73657475 		.ascii	"setup\000"
 20265      7000
 20266              	.LASF464:
 20267 18f7 68656164 		.ascii	"headp\000"
 20267      7000
 20268              	.LASF41:
 20269 18fd 5F5F746D 		.ascii	"__tm_yday\000"
 20269      5F796461 
 20269      7900
 20270              	.LASF947:
 20271 1907 5F5A4E33 		.ascii	"_ZN3r2p8Flasher_16is_within_boundsEPKv\000"
 20271      72327038 
 20271      466C6173 
 20271      6865725F 
 20271      31366973 
 20272              	.LASF383:
 20273 192e 53657269 		.ascii	"SerialUSBDriver\000"
 20273      616C5553 
 20273      42447269 
 20273      76657200 
 20274              	.LASF1269:
ARM GAS  /tmp/ccytVDiP.s 			page 371


 20275 193e 5F5A3133 		.ascii	"_Z13test_pub_nodePv\000"
 20275      74657374 
 20275      5F707562 
 20275      5F6E6F64 
 20275      65507600 
 20276              	.LASF229:
 20277 1952 616C6967 		.ascii	"align\000"
 20277      6E00
 20278              	.LASF945:
 20279 1958 5F5A4E33 		.ascii	"_ZN3r2p8Flasher_10is_alignedEPKv\000"
 20279      72327038 
 20279      466C6173 
 20279      6865725F 
 20279      31306973 
 20280              	.LASF381:
 20281 1979 5344555F 		.ascii	"SDU_READY\000"
 20281      52454144 
 20281      5900
 20282              	.LASF522:
 20283 1983 756E6C69 		.ascii	"unlink\000"
 20283      6E6B00
 20284              	.LASF473:
 20285 198a 6F706572 		.ascii	"operator*\000"
 20285      61746F72 
 20285      2A00
 20286              	.LASF1175:
 20287 1994 5F767074 		.ascii	"_vptr.BasePublisher\000"
 20287      722E4261 
 20287      73655075 
 20287      626C6973 
 20287      68657200 
 20288              	.LASF400:
 20289 19a8 5F5A4E33 		.ascii	"_ZN3r2p8SysLock_7acquireEv\000"
 20289      72327038 
 20289      5379734C 
 20289      6F636B5F 
 20289      37616371 
 20290              	.LASF237:
 20291 19c3 7466756E 		.ascii	"tfunc_t\000"
 20291      635F7400 
 20292              	.LASF842:
 20293 19cb 7061796C 		.ascii	"payload_size\000"
 20293      6F61645F 
 20293      73697A65 
 20293      00
 20294              	.LASF1056:
 20295 19d8 50756253 		.ascii	"PubSubStep\000"
 20295      75625374 
 20295      657000
 20296              	.LASF448:
 20297 19e3 6F706572 		.ascii	"operator=\000"
 20297      61746F72 
 20297      3D00
 20298              	.LASF4:
 20299 19ed 5F5F7569 		.ascii	"__uint16_t\000"
 20299      6E743136 
 20299      5F7400
ARM GAS  /tmp/ccytVDiP.s 			page 372


 20300              	.LASF347:
 20301 19f8 74787175 		.ascii	"txqueued\000"
 20301      65756564 
 20301      00
 20302              	.LASF187:
 20303 1a01 705F6D73 		.ascii	"p_msg\000"
 20303      6700
 20304              	.LASF72:
 20305 1a07 5F756E75 		.ascii	"_unused_rand\000"
 20305      7365645F 
 20305      72616E64 
 20305      00
 20306              	.LASF592:
 20307 1a14 5F5A4E33 		.ascii	"_ZN3r2p10StaticListINS_5TopicEE14restart_unsafeERNS"
 20307      72327031 
 20307      30537461 
 20307      7469634C 
 20307      69737449 
 20308 1a47 325F3134 		.ascii	"2_14IteratorUnsafeE\000"
 20308      49746572 
 20308      61746F72 
 20308      556E7361 
 20308      66654500 
 20309              	.LASF468:
 20310 1a5b 63757270 		.ascii	"curp\000"
 20310      00
 20311              	.LASF813:
 20312 1a60 5F5A4E33 		.ascii	"_ZN3r2p6Thread5yieldEv\000"
 20312      72327036 
 20312      54687265 
 20312      61643579 
 20312      69656C64 
 20313              	.LASF382:
 20314 1a77 73647573 		.ascii	"sdustate_t\000"
 20314      74617465 
 20314      5F7400
 20315              	.LASF341:
 20316 1a82 75736267 		.ascii	"usbgetdescriptor_t\000"
 20316      65746465 
 20316      73637269 
 20316      70746F72 
 20316      5F7400
 20317              	.LASF729:
 20318 1a95 5F5A4E4B 		.ascii	"_ZNK3r2p10StaticListINS_14LocalPublisherEE15contain"
 20318      33723270 
 20318      31305374 
 20318      61746963 
 20318      4C697374 
 20319 1ac8 735F756E 		.ascii	"s_unsafeERKS1_\000"
 20319      73616665 
 20319      45524B53 
 20319      315F00
 20320              	.LASF572:
 20321 1ad7 5F5A4E33 		.ascii	"_ZN3r2p10StaticListINS_16RemoteSubscriberEE5beginEv"
 20321      72327031 
 20321      30537461 
 20321      7469634C 
ARM GAS  /tmp/ccytVDiP.s 			page 373


 20321      69737449 
 20322 1b0a 00       		.ascii	"\000"
 20323              	.LASF1139:
 20324 1b0b 5F5A4E33 		.ascii	"_ZN3r2p10Middleware25do_cmd_subscribe_responseERKNS"
 20324      72327031 
 20324      304D6964 
 20324      646C6577 
 20324      61726532 
 20325 1b3e 5F374D67 		.ascii	"_7MgmtMsgE\000"
 20325      6D744D73 
 20325      674500
 20326              	.LASF313:
 20327 1b49 5553425F 		.ascii	"USB_ACTIVE\000"
 20327      41435449 
 20327      564500
 20328              	.LASF310:
 20329 1b54 5553425F 		.ascii	"USB_STOP\000"
 20329      53544F50 
 20329      00
 20330              	.LASF1207:
 20331 1b5d 74687265 		.ascii	"threadf\000"
 20331      61646600 
 20332              	.LASF445:
 20333 1b65 5F5A4E4B 		.ascii	"_ZNK3r2p4Time4to_sEv\000"
 20333      33723270 
 20333      3454696D 
 20333      6534746F 
 20333      5F734576 
 20334              	.LASF1105:
 20335 1b7a 73746F70 		.ascii	"stop\000"
 20335      00
 20336              	.LASF573:
 20337 1b7f 5F5A4E33 		.ascii	"_ZN3r2p10StaticListINS_16RemoteSubscriberEE3endEv\000"
 20337      72327031 
 20337      30537461 
 20337      7469634C 
 20337      69737449 
 20338              	.LASF817:
 20339 1bb1 74687265 		.ascii	"threadp\000"
 20339      61647000 
 20340              	.LASF1140:
 20341 1bb9 626F6F74 		.ascii	"boot_threadf\000"
 20341      5F746872 
 20341      65616466 
 20341      00
 20342              	.LASF1171:
 20343 1bc6 5F5A4E33 		.ascii	"_ZN3r2p9PublisherINS_11String64MsgEE5allocERPS1_\000"
 20343      72327039 
 20343      5075626C 
 20343      69736865 
 20343      72494E53 
 20344              	.LASF105:
 20345 1bf7 5F726573 		.ascii	"_result_k\000"
 20345      756C745F 
 20345      6B00
 20346              	.LASF350:
 20347 1c01 6D6F6465 		.ascii	"mode\000"
ARM GAS  /tmp/ccytVDiP.s 			page 374


 20347      00
 20348              	.LASF97:
 20349 1c06 5F737464 		.ascii	"_stderr\000"
 20349      65727200 
 20350              	.LASF104:
 20351 1c0e 5F726573 		.ascii	"_result\000"
 20351      756C7400 
 20352              	.LASF1070:
 20353 1c16 6D676D74 		.ascii	"mgmt_node\000"
 20353      5F6E6F64 
 20353      6500
 20354              	.LASF1113:
 20355 1c20 7265626F 		.ascii	"reboot_remote\000"
 20355      6F745F72 
 20355      656D6F74 
 20355      6500
 20356              	.LASF45:
 20357 1c2e 5F64736F 		.ascii	"_dso_handle\000"
 20357      5F68616E 
 20357      646C6500 
 20358              	.LASF824:
 20359 1c3a 7369676E 		.ascii	"signal_unsafe\000"
 20359      616C5F75 
 20359      6E736166 
 20359      6500
 20360              	.LASF40:
 20361 1c48 5F5F746D 		.ascii	"__tm_wday\000"
 20361      5F776461 
 20361      7900
 20362              	.LASF42:
 20363 1c52 5F5F746D 		.ascii	"__tm_isdst\000"
 20363      5F697364 
 20363      737400
 20364              	.LASF1246:
 20365 1c5d 75736263 		.ascii	"usbcfg\000"
 20365      666700
 20366              	.LASF415:
 20367 1c64 66726565 		.ascii	"free_unsafe\000"
 20367      5F756E73 
 20367      61666500 
 20368              	.LASF198:
 20369 1c70 73746B61 		.ascii	"stkalign_t\000"
 20369      6C69676E 
 20369      5F7400
 20370              	.LASF1106:
 20371 1c7b 5F5A4E33 		.ascii	"_ZN3r2p10Middleware4stopEv\000"
 20371      72327031 
 20371      304D6964 
 20371      646C6577 
 20371      61726534 
 20372              	.LASF1100:
 20373 1c96 69735F73 		.ascii	"is_stopped\000"
 20373      746F7070 
 20373      656400
 20374              	.LASF277:
 20375 1ca1 4750494F 		.ascii	"GPIO_TypeDef\000"
 20375      5F547970 
ARM GAS  /tmp/ccytVDiP.s 			page 375


 20375      65446566 
 20375      00
 20376              	.LASF919:
 20377 1cae 5F5A4E33 		.ascii	"_ZN3r2p4Node9advertiseERNS_14LocalPublisherEPKcRKNS"
 20377      72327034 
 20377      4E6F6465 
 20377      39616476 
 20377      65727469 
 20378 1ce1 5F345469 		.ascii	"_4TimeEj\000"
 20378      6D65456A 
 20378      00
 20379              	.LASF530:
 20380 1cea 5F5A4E4B 		.ascii	"_ZNK3r2p10StaticListINS_15LocalSubscriberEE10find_f"
 20380      33723270 
 20380      31305374 
 20380      61746963 
 20380      4C697374 
 20381 1d1d 69727374 		.ascii	"irstEPFbRKS1_PKvES6_\000"
 20381      45504662 
 20381      524B5331 
 20381      5F504B76 
 20381      4553365F 
 20382              	.LASF362:
 20383 1d32 73657475 		.ascii	"setup_cb\000"
 20383      705F6362 
 20383      00
 20384              	.LASF1:
 20385 1d3b 756E7369 		.ascii	"unsigned char\000"
 20385      676E6564 
 20385      20636861 
 20385      7200
 20386              	.LASF96:
 20387 1d49 5F737464 		.ascii	"_stdout\000"
 20387      6F757400 
 20388              	.LASF253:
 20389 1d51 52544F52 		.ascii	"RTOR\000"
 20389      00
 20390              	.LASF344:
 20391 1d56 74787175 		.ascii	"txqueue\000"
 20391      65756500 
 20392              	.LASF424:
 20393 1d5e 5F5A4E33 		.ascii	"_ZN3r2p11MemoryPool_8get_implEv\000"
 20393      72327031 
 20393      314D656D 
 20393      6F727950 
 20393      6F6F6C5F 
 20394              	.LASF1259:
 20395 1d7e 6D61696E 		.ascii	"main.cpp\000"
 20395      2E637070 
 20395      00
 20396              	.LASF932:
 20397 1d87 65726173 		.ascii	"erased_word\000"
 20397      65645F77 
 20397      6F726400 
 20398              	.LASF800:
 20399 1d93 52454144 		.ascii	"READY\000"
 20399      5900
ARM GAS  /tmp/ccytVDiP.s 			page 376


 20400              	.LASF1228:
 20401 1d99 5F5A4E33 		.ascii	"_ZN3r2p10StaticListINS_4NodeEED2Ev\000"
 20401      72327031 
 20401      30537461 
 20401      7469634C 
 20401      69737449 
 20402              	.LASF87:
 20403 1dbc 5F6D6273 		.ascii	"_mbsrtowcs_state\000"
 20403      72746F77 
 20403      63735F73 
 20403      74617465 
 20403      00
 20404              	.LASF1251:
 20405 1dcd 5F5F7261 		.ascii	"__ram_end__\000"
 20405      6D5F656E 
 20405      645F5F00 
 20406              	.LASF910:
 20407 1dd9 5F5A4E33 		.ascii	"_ZN3r2p4Node13notify_unsafeEj\000"
 20407      72327034 
 20407      4E6F6465 
 20407      31336E6F 
 20407      74696679 
 20408              	.LASF31:
 20409 1df7 5F776473 		.ascii	"_wds\000"
 20409      00
 20410              	.LASF641:
 20411 1dfc 6861735F 		.ascii	"has_remote_subscribers\000"
 20411      72656D6F 
 20411      74655F73 
 20411      75627363 
 20411      72696265 
 20412              	.LASF939:
 20413 1e13 5F5A4E33 		.ascii	"_ZN3r2p8Flasher_13erase_alignedEPKtj\000"
 20413      72327038 
 20413      466C6173 
 20413      6865725F 
 20413      31336572 
 20414              	.LASF1198:
 20415 1e38 666C6F61 		.ascii	"float\000"
 20415      7400
 20416              	.LASF770:
 20417 1e3e 736B6970 		.ascii	"skip\000"
 20417      00
 20418              	.LASF401:
 20419 1e43 5F5A4E33 		.ascii	"_ZN3r2p8SysLock_7releaseEv\000"
 20419      72327038 
 20419      5379734C 
 20419      6F636B5F 
 20419      3772656C 
 20420              	.LASF692:
 20421 1e5e 5F5A4E33 		.ascii	"_ZN3r2p7Message14acquire_unsafeEv\000"
 20421      72327037 
 20421      4D657373 
 20421      61676531 
 20421      34616371 
 20422              	.LASF535:
 20423 1e80 5F5A4E4B 		.ascii	"_ZNK3r2p10StaticListINS_15LocalSubscriberEE5beginEv"
ARM GAS  /tmp/ccytVDiP.s 			page 377


 20423      33723270 
 20423      31305374 
 20423      61746963 
 20423      4C697374 
 20424 1eb3 00       		.ascii	"\000"
 20425              	.LASF1059:
 20426 1eb4 424F4F54 		.ascii	"BOOT_MODE_MAGIC\000"
 20426      5F4D4F44 
 20426      455F4D41 
 20426      47494300 
 20427              	.LASF574:
 20428 1ec4 5F5A4E33 		.ascii	"_ZN3r2p10StaticListINS_16RemoteSubscriberEE7restart"
 20428      72327031 
 20428      30537461 
 20428      7469634C 
 20428      69737449 
 20429 1ef7 45524E53 		.ascii	"ERNS2_8IteratorE\000"
 20429      325F3849 
 20429      74657261 
 20429      746F7245 
 20429      00
 20430              	.LASF53:
 20431 1f08 5F73697A 		.ascii	"_size\000"
 20431      6500
 20432              	.LASF1264:
 20433 1f0e 5072696F 		.ascii	"PriorityEnum\000"
 20433      72697479 
 20433      456E756D 
 20433      00
 20434              	.LASF230:
 20435 1f1b 706F6F6C 		.ascii	"pool_header\000"
 20435      5F686561 
 20435      64657200 
 20436              	.LASF816:
 20437 1f27 5370696E 		.ascii	"SpinEvent_\000"
 20437      4576656E 
 20437      745F00
 20438              	.LASF990:
 20439 1f32 5F5A4E33 		.ascii	"_ZN3r2p5Mutex7acquireEv\000"
 20439      72327035 
 20439      4D757465 
 20439      78376163 
 20439      71756972 
 20440              	.LASF780:
 20441 1f4a 636F6D70 		.ascii	"compute_stack_size\000"
 20441      7574655F 
 20441      73746163 
 20441      6B5F7369 
 20441      7A6500
 20442              	.LASF176:
 20443 1f5d 705F6374 		.ascii	"p_ctx\000"
 20443      7800
 20444              	.LASF668:
 20445 1f63 6E6F7469 		.ascii	"notify_locals\000"
 20445      66795F6C 
 20445      6F63616C 
 20445      7300
ARM GAS  /tmp/ccytVDiP.s 			page 378


 20446              	.LASF775:
 20447 1f71 46756E63 		.ascii	"Function\000"
 20447      74696F6E 
 20447      00
 20448              	.LASF1256:
 20449 1f7a 77615F74 		.ascii	"wa_tx_dbgtra\000"
 20449      785F6462 
 20449      67747261 
 20449      00
 20450              	.LASF625:
 20451 1f87 6765745F 		.ascii	"get_type_size\000"
 20451      74797065 
 20451      5F73697A 
 20451      6500
 20452              	.LASF60:
 20453 1f95 5F777269 		.ascii	"_write\000"
 20453      746500
 20454              	.LASF146:
 20455 1f9c 73657462 		.ascii	"setbuf\000"
 20455      756600
 20456              	.LASF608:
 20457 1fa3 5F5A4E4B 		.ascii	"_ZNK3r2p10StaticListINS_5TopicEE5beginEv\000"
 20457      33723270 
 20457      31305374 
 20457      61746963 
 20457      4C697374 
 20458              	.LASF593:
 20459 1fcc 5F5A4E4B 		.ascii	"_ZNK3r2p10StaticListINS_5TopicEE12begin_unsafeEv\000"
 20459      33723270 
 20459      31305374 
 20459      61746963 
 20459      4C697374 
 20460              	.LASF858:
 20461 1ffd 5F5A4E4B 		.ascii	"_ZNK3r2p10StaticListINS_4NodeEE13ConstIteratorptEv\000"
 20461      33723270 
 20461      31305374 
 20461      61746963 
 20461      4C697374 
 20462              	.LASF896:
 20463 2030 4E6F6465 		.ascii	"Node\000"
 20463      00
 20464              	.LASF1111:
 20465 2035 73746F70 		.ascii	"stop_remote\000"
 20465      5F72656D 
 20465      6F746500 
 20466              	.LASF1238:
 20467 2041 5F5F7072 		.ascii	"__priority\000"
 20467      696F7269 
 20467      747900
 20468              	.LASF899:
 20469 204c 74696D65 		.ascii	"timeout\000"
 20469      6F757400 
 20470              	.LASF462:
 20471 2054 6974656D 		.ascii	"itemp\000"
 20471      7000
 20472              	.LASF484:
 20473 205a 50726564 		.ascii	"Predicate\000"
ARM GAS  /tmp/ccytVDiP.s 			page 379


 20473      69636174 
 20473      6500
 20474              	.LASF1031:
 20475 2064 5F5A4E4B 		.ascii	"_ZNK3r2p10StaticListINS_9TransportEE5beginEv\000"
 20475      33723270 
 20475      31305374 
 20475      61746963 
 20475      4C697374 
 20476              	.LASF1079:
 20477 2091 626F6F74 		.ascii	"boot_priority\000"
 20477      5F707269 
 20477      6F726974 
 20477      7900
 20478              	.LASF156:
 20479 209f 75696E74 		.ascii	"uint64_t\000"
 20479      36345F74 
 20479      00
 20480              	.LASF1091:
 20481 20a8 5F5A4E4B 		.ascii	"_ZNK3r2p10Middleware9get_nodesEv\000"
 20481      33723270 
 20481      31304D69 
 20481      64646C65 
 20481      77617265 
 20482              	.LASF1253:
 20483 20c9 64626774 		.ascii	"dbgtra_namebuf\000"
 20483      72615F6E 
 20483      616D6562 
 20483      756600
 20484              	.LASF629:
 20485 20d8 6765745F 		.ascii	"get_max_queue_length\000"
 20485      6D61785F 
 20485      71756575 
 20485      655F6C65 
 20485      6E677468 
 20486              	.LASF611:
 20487 20ed 546F7069 		.ascii	"Topic\000"
 20487      6300
 20488              	.LASF168:
 20489 20f3 54687265 		.ascii	"Thread\000"
 20489      616400
 20490              	.LASF447:
 20491 20fa 5F5A4E4B 		.ascii	"_ZNK3r2p4Time4to_mEv\000"
 20491      33723270 
 20491      3454696D 
 20491      6534746F 
 20491      5F6D4576 
 20492              	.LASF670:
 20493 210f 6E6F7469 		.ascii	"notify_remotes\000"
 20493      66795F72 
 20493      656D6F74 
 20493      657300
 20494              	.LASF517:
 20495 211e 5F5A4E4B 		.ascii	"_ZNK3r2p10StaticListINS_15LocalSubscriberEE8is_empt"
 20495      33723270 
 20495      31305374 
 20495      61746963 
 20495      4C697374 
ARM GAS  /tmp/ccytVDiP.s 			page 380


 20496 2151 79457600 		.ascii	"yEv\000"
 20497              	.LASF357:
 20498 2155 7278636E 		.ascii	"rxcnt\000"
 20498      7400
 20499              	.LASF208:
 20500 215b 52656164 		.ascii	"ReadyList\000"
 20500      794C6973 
 20500      7400
 20501              	.LASF1194:
 20502 2165 73746174 		.ascii	"static_cast_check<r2p::String64Msg, r2p::Message>\000"
 20502      69635F63 
 20502      6173745F 
 20502      63686563 
 20502      6B3C7232 
 20503              	.LASF1038:
 20504 2197 5F5A4E4B 		.ascii	"_ZNK3r2p14BaseSubscriber9get_topicEv\000"
 20504      33723270 
 20504      31344261 
 20504      73655375 
 20504      62736372 
 20505              	.LASF372:
 20506 21bc 39555342 		.ascii	"9USBConfig\000"
 20506      436F6E66 
 20506      696700
 20507              	.LASF898:
 20508 21c7 73756273 		.ascii	"subscribers\000"
 20508      63726962 
 20508      65727300 
 20509              	.LASF349:
 20510 21d3 7478636E 		.ascii	"txcnt\000"
 20510      7400
 20511              	.LASF339:
 20512 21d9 75736265 		.ascii	"usbeventcb_t\000"
 20512      76656E74 
 20512      63625F74 
 20512      00
 20513              	.LASF720:
 20514 21e6 5F5A4E4B 		.ascii	"_ZNK3r2p10StaticListINS_14LocalPublisherEE13ConstIt"
 20514      33723270 
 20514      31305374 
 20514      61746963 
 20514      4C697374 
 20515 2219 65726174 		.ascii	"eratorneERKS3_\000"
 20515      6F726E65 
 20515      45524B53 
 20515      335F00
 20516              	.LASF39:
 20517 2228 5F5F746D 		.ascii	"__tm_year\000"
 20517      5F796561 
 20517      7200
 20518              	.LASF742:
 20519 2232 5F5A4E33 		.ascii	"_ZN3r2p10StaticListINS_14LocalPublisherEE6unlinkERN"
 20519      72327031 
 20519      30537461 
 20519      7469634C 
 20519      69737449 
 20520 2265 53325F34 		.ascii	"S2_4LinkE\000"
ARM GAS  /tmp/ccytVDiP.s 			page 381


 20520      4C696E6B 
 20520      4500
 20521              	.LASF763:
 20522 226f 5F5A4E4B 		.ascii	"_ZNK3r2p10ArrayQueueIPNS_7MessageEE10get_lengthEv\000"
 20522      33723270 
 20522      31304172 
 20522      72617951 
 20522      75657565 
 20523              	.LASF145:
 20524 22a1 72657769 		.ascii	"rewind\000"
 20524      6E6400
 20525              	.LASF753:
 20526 22a8 41727261 		.ascii	"ArrayQueue<r2p::Message*>\000"
 20526      79517565 
 20526      75653C72 
 20526      32703A3A 
 20526      4D657373 
 20527              	.LASF266:
 20528 22c2 42617365 		.ascii	"BaseChannel\000"
 20528      4368616E 
 20528      6E656C00 
 20529              	.LASF982:
 20530 22ce 5F5A4E33 		.ascii	"_ZN3r2p6Mutex_14release_unsafeEv\000"
 20530      72327036 
 20530      4D757465 
 20530      785F3134 
 20530      72656C65 
 20531              	.LASF440:
 20532 22ef 746F5F75 		.ascii	"to_us\000"
 20532      7300
 20533              	.LASF408:
 20534 22f5 696D706C 		.ascii	"impl\000"
 20534      00
 20535              	.LASF1040:
 20536 22fa 6E6F7469 		.ascii	"notify_subscribed\000"
 20536      66795F73 
 20536      75627363 
 20536      72696265 
 20536      6400
 20537              	.LASF353:
 20538 230c 72786275 		.ascii	"rxbuf\000"
 20538      6600
 20539              	.LASF801:
 20540 2312 49444C45 		.ascii	"IDLE\000"
 20540      00
 20541              	.LASF122:
 20542 2317 5F6D756C 		.ascii	"_mult\000"
 20542      7400
 20543              	.LASF412:
 20544 231d 5F5A4E4B 		.ascii	"_ZNK3r2p11MemoryPool_13get_allocatorEv\000"
 20544      33723270 
 20544      31314D65 
 20544      6D6F7279 
 20544      506F6F6C 
 20545              	.LASF600:
 20546 2344 5F5A4E33 		.ascii	"_ZN3r2p10StaticListINS_5TopicEE6unlinkERNS2_4LinkE\000"
 20546      72327031 
ARM GAS  /tmp/ccytVDiP.s 			page 382


 20546      30537461 
 20546      7469634C 
 20546      69737449 
 20547              	.LASF809:
 20548 2377 5F5A4E33 		.ascii	"_ZN3r2p6Thread11create_heapEPvjmPFlS1_ES1_PKc\000"
 20548      72327036 
 20548      54687265 
 20548      61643131 
 20548      63726561 
 20549              	.LASF935:
 20550 23a5 5F5A4E33 		.ascii	"_ZN3r2p8Flasher_5beginEv\000"
 20550      72327038 
 20550      466C6173 
 20550      6865725F 
 20550      35626567 
 20551              	.LASF886:
 20552 23be 5F5A4E4B 		.ascii	"_ZNK3r2p10StaticListINS_4NodeEE8index_ofERKS1_\000"
 20552      33723270 
 20552      31305374 
 20552      61746963 
 20552      4C697374 
 20553              	.LASF379:
 20554 23ed 5344555F 		.ascii	"SDU_UNINIT\000"
 20554      554E494E 
 20554      495400
 20555              	.LASF494:
 20556 23f8 5F5A4E33 		.ascii	"_ZN3r2p10StaticListINS_15LocalSubscriberEE11link_un"
 20556      72327031 
 20556      30537461 
 20556      7469634C 
 20556      69737449 
 20557 242b 73616665 		.ascii	"safeERNS2_4LinkE\000"
 20557      45524E53 
 20557      325F344C 
 20557      696E6B45 
 20557      00
 20558              	.LASF360:
 20559 243c 31375553 		.ascii	"17USBEndpointConfig\000"
 20559      42456E64 
 20559      706F696E 
 20559      74436F6E 
 20559      66696700 
 20560              	.LASF85:
 20561 2450 5F6D6272 		.ascii	"_mbrlen_state\000"
 20561      6C656E5F 
 20561      73746174 
 20561      6500
 20562              	.LASF991:
 20563 245e 5F5A4E33 		.ascii	"_ZN3r2p5Mutex7releaseEv\000"
 20563      72327035 
 20563      4D757465 
 20563      78377265 
 20563      6C656173 
 20564              	.LASF417:
 20565 2476 5F5A4E33 		.ascii	"_ZN3r2p11MemoryPool_5allocEv\000"
 20565      72327031 
 20565      314D656D 
ARM GAS  /tmp/ccytVDiP.s 			page 383


 20565      6F727950 
 20565      6F6F6C5F 
 20566              	.LASF209:
 20567 2493 4D757465 		.ascii	"Mutex\000"
 20567      7800
 20568              	.LASF731:
 20569 2499 5F5A4E4B 		.ascii	"_ZNK3r2p10StaticListINS_14LocalPublisherEE17find_fi"
 20569      33723270 
 20569      31305374 
 20569      61746963 
 20569      4C697374 
 20570 24cc 7273745F 		.ascii	"rst_unsafeEPFbRKS1_PKvES6_\000"
 20570      756E7361 
 20570      66654550 
 20570      4662524B 
 20570      53315F50 
 20571              	.LASF1010:
 20572 24e7 5F5A4E4B 		.ascii	"_ZNK3r2p10StaticListINS_9TransportEE15contains_unsa"
 20572      33723270 
 20572      31305374 
 20572      61746963 
 20572      4C697374 
 20573 251a 66654552 		.ascii	"feERKS1_\000"
 20573      4B53315F 
 20573      00
 20574              	.LASF513:
 20575 2523 5F5A4E4B 		.ascii	"_ZNK3r2p10StaticListINS_15LocalSubscriberEE14restar"
 20575      33723270 
 20575      31305374 
 20575      61746963 
 20575      4C697374 
 20576 2556 745F756E 		.ascii	"t_unsafeERNS2_19ConstIteratorUnsafeE\000"
 20576      73616665 
 20576      45524E53 
 20576      325F3139 
 20576      436F6E73 
 20577              	.LASF373:
 20578 257b 6576656E 		.ascii	"event_cb\000"
 20578      745F6362 
 20578      00
 20579              	.LASF364:
 20580 2584 6F75745F 		.ascii	"out_cb\000"
 20580      636200
 20581              	.LASF822:
 20582 258b 7365745F 		.ascii	"set_thread\000"
 20582      74687265 
 20582      616400
 20583              	.LASF296:
 20584 2596 6F75745F 		.ascii	"out_params\000"
 20584      70617261 
 20584      6D7300
 20585              	.LASF542:
 20586 25a1 6765745F 		.ascii	"get_queue_length\000"
 20586      71756575 
 20586      655F6C65 
 20586      6E677468 
 20586      00
ARM GAS  /tmp/ccytVDiP.s 			page 384


 20587              	.LASF138:
 20588 25b2 6674656C 		.ascii	"ftell\000"
 20588      6C00
 20589              	.LASF95:
 20590 25b8 5F737464 		.ascii	"_stdin\000"
 20590      696E00
 20591              	.LASF430:
 20592 25bf 494E4649 		.ascii	"INFINITE\000"
 20592      4E495445 
 20592      00
 20593              	.LASF324:
 20594 25c8 31307573 		.ascii	"10usbevent_t\000"
 20594      62657665 
 20594      6E745F74 
 20594      00
 20595              	.LASF92:
 20596 25d5 5F6E6D61 		.ascii	"_nmalloc\000"
 20596      6C6C6F63 
 20596      00
 20597              	.LASF612:
 20598 25de 6E616D65 		.ascii	"namep\000"
 20598      7000
 20599              	.LASF561:
 20600 25e4 5F5A4E4B 		.ascii	"_ZNK3r2p10StaticListINS_16RemoteSubscriberEE10end_u"
 20600      33723270 
 20600      31305374 
 20600      61746963 
 20600      4C697374 
 20601 2617 6E736166 		.ascii	"nsafeEv\000"
 20601      65457600 
 20602              	.LASF490:
 20603 261f 636F756E 		.ascii	"count_unsafe\000"
 20603      745F756E 
 20603      73616665 
 20603      00
 20604              	.LASF520:
 20605 262c 6C696E6B 		.ascii	"link\000"
 20605      00
 20606              	.LASF929:
 20607 2631 70616765 		.ascii	"page_modified\000"
 20607      5F6D6F64 
 20607      69666965 
 20607      6400
 20608              	.LASF204:
 20609 263f 725F6374 		.ascii	"r_ctx\000"
 20609      7800
 20610              	.LASF1043:
 20611 2645 5F5A4E33 		.ascii	"_ZN3r2p14BaseSubscriber12fetch_unsafeERPNS_7Message"
 20611      72327031 
 20611      34426173 
 20611      65537562 
 20611      73637269 
 20612 2678 45524E53 		.ascii	"ERNS_4TimeE\000"
 20612      5F345469 
 20612      6D654500 
 20613              	.LASF1248:
 20614 2684 5F5F7072 		.ascii	"__program_start__\000"
ARM GAS  /tmp/ccytVDiP.s 			page 385


 20614      6F677261 
 20614      6D5F7374 
 20614      6172745F 
 20614      5F00
 20615              	.LASF908:
 20616 2696 5F5A4E33 		.ascii	"_ZN3r2p4Node11set_enabledEb\000"
 20616      72327034 
 20616      4E6F6465 
 20616      31317365 
 20616      745F656E 
 20617              	.LASF428:
 20618 26b2 54797065 		.ascii	"Type\000"
 20618      00
 20619              	.LASF547:
 20620 26b7 5F5A4E4B 		.ascii	"_ZNK3r2p10StaticListINS_16RemoteSubscriberEE15get_h"
 20620      33723270 
 20620      31305374 
 20620      61746963 
 20620      4C697374 
 20621 26ea 6561645F 		.ascii	"ead_unsafeEv\000"
 20621      756E7361 
 20621      66654576 
 20621      00
 20622              	.LASF1213:
 20623 26f7 5F5A4E33 		.ascii	"_ZN3r2p5MutexD2Ev\000"
 20623      72327035 
 20623      4D757465 
 20623      78443245 
 20623      7600
 20624              	.LASF186:
 20625 2709 705F6D73 		.ascii	"p_msgqueue\000"
 20625      67717565 
 20625      756500
 20626              	.LASF995:
 20627 2714 6D757465 		.ascii	"mutex\000"
 20627      7800
 20628              	.LASF228:
 20629 271a 73697A65 		.ascii	"size\000"
 20629      00
 20630              	.LASF465:
 20631 271f 49746572 		.ascii	"IteratorUnsafe\000"
 20631      61746F72 
 20631      556E7361 
 20631      666500
 20632              	.LASF124:
 20633 272e 46494C45 		.ascii	"FILE\000"
 20633      00
 20634              	.LASF398:
 20635 2733 61637175 		.ascii	"acquire\000"
 20635      69726500 
 20636              	.LASF879:
 20637 273b 5F5A4E4B 		.ascii	"_ZNK3r2p10StaticListINS_4NodeEE10end_unsafeEv\000"
 20637      33723270 
 20637      31305374 
 20637      61746963 
 20637      4C697374 
 20638              	.LASF1054:
ARM GAS  /tmp/ccytVDiP.s 			page 386


 20639 2769 52544341 		.ascii	"RTCANTransport\000"
 20639      4E547261 
 20639      6E73706F 
 20639      727400
 20640              	.LASF778:
 20641 2778 5F5A4E4B 		.ascii	"_ZNK3r2p7Thread_8get_nameEv\000"
 20641      33723270 
 20641      37546872 
 20641      6561645F 
 20641      38676574 
 20642              	.LASF735:
 20643 2794 5F5A4E4B 		.ascii	"_ZNK3r2p10StaticListINS_14LocalPublisherEE12begin_u"
 20643      33723270 
 20643      31305374 
 20643      61746963 
 20643      4C697374 
 20644 27c7 6E736166 		.ascii	"nsafeEv\000"
 20644      65457600 
 20645              	.LASF289:
 20646 27cf 636C6F63 		.ascii	"clock\000"
 20646      6B00
 20647              	.LASF599:
 20648 27d5 5F5A4E33 		.ascii	"_ZN3r2p10StaticListINS_5TopicEE4linkERNS2_4LinkE\000"
 20648      72327031 
 20648      30537461 
 20648      7469634C 
 20648      69737449 
 20649              	.LASF268:
 20650 2806 636C6561 		.ascii	"clear\000"
 20650      7200
 20651              	.LASF802:
 20652 280c 4C4F5745 		.ascii	"LOWEST\000"
 20652      535400
 20653              	.LASF149:
 20654 2813 746D7066 		.ascii	"tmpfile\000"
 20654      696C6500 
 20655              	.LASF17:
 20656 281b 5F6F6666 		.ascii	"_off_t\000"
 20656      5F7400
 20657              	.LASF280:
 20658 2822 53445F53 		.ascii	"SD_STOP\000"
 20658      544F5000 
 20659              	.LASF704:
 20660 282a 5F5A4E33 		.ascii	"_ZN3r2p7Message21get_msg_from_raw_dataEPKh\000"
 20660      72327037 
 20660      4D657373 
 20660      61676532 
 20660      31676574 
 20661              	.LASF15:
 20662 2855 73697A65 		.ascii	"size_t\000"
 20662      5F7400
 20663              	.LASF75:
 20664 285c 5F6C6F63 		.ascii	"_localtime_buf\000"
 20664      616C7469 
 20664      6D655F62 
 20664      756600
 20665              	.LASF706:
ARM GAS  /tmp/ccytVDiP.s 			page 387


 20666 286b 5F5A4E33 		.ascii	"_ZN3r2p7Message13get_type_sizeEj\000"
 20666      72327037 
 20666      4D657373 
 20666      61676531 
 20666      33676574 
 20667              	.LASF1019:
 20668 288c 5F5A4E4B 		.ascii	"_ZNK3r2p10StaticListINS_9TransportEE8get_headEv\000"
 20668      33723270 
 20668      31305374 
 20668      61746963 
 20668      4C697374 
 20669              	.LASF585:
 20670 28bc 5F5A4E33 		.ascii	"_ZN3r2p10StaticListINS_5TopicEE13unlink_unsafeERNS2"
 20670      72327031 
 20670      30537461 
 20670      7469634C 
 20670      69737449 
 20671 28ef 5F344C69 		.ascii	"_4LinkE\000"
 20671      6E6B4500 
 20672              	.LASF1080:
 20673 28f7 69746572 		.ascii	"iter_nodes\000"
 20673      5F6E6F64 
 20673      657300
 20674              	.LASF1141:
 20675 2902 5F5A4E33 		.ascii	"_ZN3r2p10Middleware12boot_threadfEPv\000"
 20675      72327031 
 20675      304D6964 
 20675      646C6577 
 20675      61726531 
 20676              	.LASF429:
 20677 2927 494D4D45 		.ascii	"IMMEDIATE\000"
 20677      44494154 
 20677      4500
 20678              	.LASF22:
 20679 2931 5F5F636F 		.ascii	"__count\000"
 20679      756E7400 
 20680              	.LASF194:
 20681 2939 54687265 		.ascii	"ThreadsQueue\000"
 20681      61647351 
 20681      75657565 
 20681      00
 20682              	.LASF152:
 20683 2946 75696E74 		.ascii	"uint8_t\000"
 20683      385F7400 
 20684              	.LASF1022:
 20685 294e 5F5A4E33 		.ascii	"_ZN3r2p10StaticListINS_9TransportEE4linkERNS2_4Link"
 20685      72327031 
 20685      30537461 
 20685      7469634C 
 20685      69737449 
 20686 2981 4500     		.ascii	"E\000"
 20687              	.LASF953:
 20688 2983 5F5A4E33 		.ascii	"_ZN3r2p8Flasher_4readEtPt\000"
 20688      72327038 
 20688      466C6173 
 20688      6865725F 
 20688      34726561 
ARM GAS  /tmp/ccytVDiP.s 			page 388


 20689              	.LASF969:
 20690 299d 6765745F 		.ascii	"get_program_length\000"
 20690      70726F67 
 20690      72616D5F 
 20690      6C656E67 
 20690      746800
 20691              	.LASF1252:
 20692 29b0 77615F69 		.ascii	"wa_info\000"
 20692      6E666F00 
 20693              	.LASF927:
 20694 29b8 44617461 		.ascii	"Data\000"
 20694      00
 20695              	.LASF206:
 20696 29bd 725F6F6C 		.ascii	"r_older\000"
 20696      64657200 
 20697              	.LASF174:
 20698 29c5 705F7072 		.ascii	"p_prev\000"
 20698      657600
 20699              	.LASF1125:
 20700 29cc 5F5A4E33 		.ascii	"_ZN3r2p10Middleware10find_topicEPKc\000"
 20700      72327031 
 20700      304D6964 
 20700      646C6577 
 20700      61726531 
 20701              	.LASF1226:
 20702 29f0 5F5A4E33 		.ascii	"_ZN3r2p9PublisherINS_11String64MsgEED2Ev\000"
 20702      72327039 
 20702      5075626C 
 20702      69736865 
 20702      72494E53 
 20703              	.LASF684:
 20704 2a19 5F5A4E33 		.ascii	"_ZN3r2p5Topic8has_nameERKS0_PKc\000"
 20704      72327035 
 20704      546F7069 
 20704      63386861 
 20704      735F6E61 
 20705              	.LASF727:
 20706 2a39 5F5A4E33 		.ascii	"_ZN3r2p10StaticListINS_14LocalPublisherEE13unlink_u"
 20706      72327031 
 20706      30537461 
 20706      7469634C 
 20706      69737449 
 20707 2a6c 6E736166 		.ascii	"nsafeERNS2_4LinkE\000"
 20707      6545524E 
 20707      53325F34 
 20707      4C696E6B 
 20707      4500
 20708              	.LASF1214:
 20709 2a7e 7573625F 		.ascii	"usb_lld_disconnect_bus\000"
 20709      6C6C645F 
 20709      64697363 
 20709      6F6E6E65 
 20709      63745F62 
 20710              	.LASF525:
 20711 2a95 5F5A4E4B 		.ascii	"_ZNK3r2p10StaticListINS_15LocalSubscriberEE8index_o"
 20711      33723270 
 20711      31305374 
ARM GAS  /tmp/ccytVDiP.s 			page 389


 20711      61746963 
 20711      4C697374 
 20712 2ac8 6645524B 		.ascii	"fERKS1_\000"
 20712      53315F00 
 20713              	.LASF1121:
 20714 2ad0 5F5A4E33 		.ascii	"_ZN3r2p10Middleware9subscribeERNS_16RemoteSubscribe"
 20714      72327031 
 20714      304D6964 
 20714      646C6577 
 20714      61726539 
 20715 2b03 7245504B 		.ascii	"rEPKcPNS_7MessageEjj\000"
 20715      63504E53 
 20715      5F374D65 
 20715      73736167 
 20715      65456A6A 
 20716              	.LASF1170:
 20717 2b18 5075626C 		.ascii	"Publisher<r2p::String64Msg>\000"
 20717      69736865 
 20717      723C7232 
 20717      703A3A53 
 20717      7472696E 
 20718              	.LASF142:
 20719 2b34 70657272 		.ascii	"perror\000"
 20719      6F7200
 20720              	.LASF1222:
 20721 2b3b 6D696372 		.ascii	"microseconds\000"
 20721      6F736563 
 20721      6F6E6473 
 20721      00
 20722              	.LASF931:
 20723 2b48 70616765 		.ascii	"page\000"
 20723      00
 20724              	.LASF544:
 20725 2b4d 5F5A4E4B 		.ascii	"_ZNK3r2p15LocalSubscriber16get_queue_lengthEv\000"
 20725      33723270 
 20725      31354C6F 
 20725      63616C53 
 20725      75627363 
 20726              	.LASF883:
 20727 2b7b 5F5A4E4B 		.ascii	"_ZNK3r2p10StaticListINS_4NodeEE5countEv\000"
 20727      33723270 
 20727      31305374 
 20727      61746963 
 20727      4C697374 
 20728              	.LASF170:
 20729 2ba3 65786974 		.ascii	"exitcode\000"
 20729      636F6465 
 20729      00
 20730              	.LASF109:
 20731 2bac 5F637674 		.ascii	"_cvtbuf\000"
 20731      62756600 
 20732              	.LASF368:
 20733 2bb4 6F75745F 		.ascii	"out_state\000"
 20733      73746174 
 20733      6500
 20734              	.LASF882:
 20735 2bbe 5F5A4E4B 		.ascii	"_ZNK3r2p10StaticListINS_4NodeEE8is_emptyEv\000"
ARM GAS  /tmp/ccytVDiP.s 			page 390


 20735      33723270 
 20735      31305374 
 20735      61746963 
 20735      4C697374 
 20736              	.LASF887:
 20737 2be9 5F5A4E4B 		.ascii	"_ZNK3r2p10StaticListINS_4NodeEE8containsERKS1_\000"
 20737      33723270 
 20737      31305374 
 20737      61746963 
 20737      4C697374 
 20738              	.LASF1032:
 20739 2c18 5F5A4E4B 		.ascii	"_ZNK3r2p10StaticListINS_9TransportEE3endEv\000"
 20739      33723270 
 20739      31305374 
 20739      61746963 
 20739      4C697374 
 20740              	.LASF631:
 20741 2c43 69735F66 		.ascii	"is_forwarding\000"
 20741      6F727761 
 20741      7264696E 
 20741      6700
 20742              	.LASF1122:
 20743 2c51 636F6E66 		.ascii	"confirm_stop\000"
 20743      69726D5F 
 20743      73746F70 
 20743      00
 20744              	.LASF756:
 20745 2c5e 7461696C 		.ascii	"tailp\000"
 20745      7000
 20746              	.LASF319:
 20747 2c64 5553425F 		.ascii	"USB_EP0_RX\000"
 20747      4550305F 
 20747      525800
 20748              	.LASF1232:
 20749 2c6f 5F5A4E33 		.ascii	"_ZN3r2p11MemoryPool_D2Ev\000"
 20749      72327031 
 20749      314D656D 
 20749      6F727950 
 20749      6F6F6C5F 
 20750              	.LASF737:
 20751 2c88 5F5A4E4B 		.ascii	"_ZNK3r2p10StaticListINS_14LocalPublisherEE14restart"
 20751      33723270 
 20751      31305374 
 20751      61746963 
 20751      4C697374 
 20752 2cbb 5F756E73 		.ascii	"_unsafeERNS2_19ConstIteratorUnsafeE\000"
 20752      61666545 
 20752      524E5332 
 20752      5F313943 
 20752      6F6E7374 
 20753              	.LASF1196:
 20754 2cdf 42617365 		.ascii	"Base\000"
 20754      00
 20755              	.LASF671:
 20756 2ce4 5F5A4E33 		.ascii	"_ZN3r2p5Topic14notify_remotesERNS_7MessageERKNS_4Ti"
 20756      72327035 
 20756      546F7069 
ARM GAS  /tmp/ccytVDiP.s 			page 391


 20756      6331346E 
 20756      6F746966 
 20757 2d17 6D654500 		.ascii	"meE\000"
 20758              	.LASF1152:
 20759 2d1b 7075626C 		.ascii	"publish\000"
 20759      69736800 
 20760              	.LASF964:
 20761 2d23 5F5A4E33 		.ascii	"_ZN3r2p8Flasher_10align_nextEPKh\000"
 20761      72327038 
 20761      466C6173 
 20761      6865725F 
 20761      3130616C 
 20762              	.LASF606:
 20763 2d44 5F5A4E33 		.ascii	"_ZN3r2p10StaticListINS_5TopicEE3endEv\000"
 20763      72327031 
 20763      30537461 
 20763      7469634C 
 20763      69737449 
 20764              	.LASF803:
 20765 2d6a 4E4F524D 		.ascii	"NORMAL\000"
 20765      414C00
 20766              	.LASF1257:
 20767 2d71 5F5F6473 		.ascii	"__dso_handle\000"
 20767      6F5F6861 
 20767      6E646C65 
 20767      00
 20768              	.LASF218:
 20769 2d7e 4576656E 		.ascii	"EventSource\000"
 20769      74536F75 
 20769      72636500 
 20770              	.LASF563:
 20771 2d8a 5F5A4E4B 		.ascii	"_ZNK3r2p10StaticListINS_16RemoteSubscriberEE8get_he"
 20771      33723270 
 20771      31305374 
 20771      61746963 
 20771      4C697374 
 20772 2dbd 61644576 		.ascii	"adEv\000"
 20772      00
 20773              	.LASF1077:
 20774 2dc2 626F6F74 		.ascii	"boot_stacklen\000"
 20774      5F737461 
 20774      636B6C65 
 20774      6E00
 20775              	.LASF251:
 20776 2dd0 47545052 		.ascii	"GTPR\000"
 20776      00
 20777              	.LASF1210:
 20778 2dd5 6576656E 		.ascii	"event_index\000"
 20778      745F696E 
 20778      64657800 
 20779              	.LASF614:
 20780 2de1 6D73675F 		.ascii	"msg_pool\000"
 20780      706F6F6C 
 20780      00
 20781              	.LASF1066:
 20782 2dea 6D676D74 		.ascii	"mgmt_stackp\000"
 20782      5F737461 
ARM GAS  /tmp/ccytVDiP.s 			page 392


 20782      636B7000 
 20783              	.LASF271:
 20784 2df6 4F535045 		.ascii	"OSPEEDR\000"
 20784      45445200 
 20785              	.LASF21:
 20786 2dfe 5F5F7763 		.ascii	"__wchb\000"
 20786      686200
 20787              	.LASF86:
 20788 2e05 5F6D6272 		.ascii	"_mbrtowc_state\000"
 20788      746F7763 
 20788      5F737461 
 20788      746500
 20789              	.LASF732:
 20790 2e14 5F5A4E33 		.ascii	"_ZN3r2p10StaticListINS_14LocalPublisherEE12begin_un"
 20790      72327031 
 20790      30537461 
 20790      7469634C 
 20790      69737449 
 20791 2e47 73616665 		.ascii	"safeEv\000"
 20791      457600
 20792              	.LASF201:
 20793 2e4e 39526561 		.ascii	"9ReadyList\000"
 20793      64794C69 
 20793      737400
 20794              	.LASF768:
 20795 2e59 66657463 		.ascii	"fetch\000"
 20795      6800
 20796              	.LASF36:
 20797 2e5f 5F5F746D 		.ascii	"__tm_hour\000"
 20797      5F686F75 
 20797      7200
 20798              	.LASF290:
 20799 2e69 53657269 		.ascii	"SerialDriverVMT\000"
 20799      616C4472 
 20799      69766572 
 20799      564D5400 
 20800              	.LASF918:
 20801 2e79 5F5A4E33 		.ascii	"_ZN3r2p4Node4spinERKNS_4TimeE\000"
 20801      72327034 
 20801      4E6F6465 
 20801      34737069 
 20801      6E45524B 
 20802              	.LASF526:
 20803 2e97 636F6E74 		.ascii	"contains\000"
 20803      61696E73 
 20803      00
 20804              	.LASF1204:
 20805 2ea0 68656170 		.ascii	"heapp\000"
 20805      7000
 20806              	.LASF321:
 20807 2ea6 5553425F 		.ascii	"USB_EP0_ERROR\000"
 20807      4550305F 
 20807      4552524F 
 20807      5200
 20808              	.LASF19:
 20809 2eb4 77696E74 		.ascii	"wint_t\000"
 20809      5F7400
ARM GAS  /tmp/ccytVDiP.s 			page 393


 20810              	.LASF1109:
 20811 2ebb 7072656C 		.ascii	"preload_bootloader_mode\000"
 20811      6F61645F 
 20811      626F6F74 
 20811      6C6F6164 
 20811      65725F6D 
 20812              	.LASF110:
 20813 2ed3 5F6E6577 		.ascii	"_new\000"
 20813      00
 20814              	.LASF1201:
 20815 2ed8 6D696C6C 		.ascii	"milliseconds\000"
 20815      69736563 
 20815      6F6E6473 
 20815      00
 20816              	.LASF980:
 20817 2ee5 5F5A4E33 		.ascii	"_ZN3r2p6Mutex_10initializeEv\000"
 20817      72327036 
 20817      4D757465 
 20817      785F3130 
 20817      696E6974 
 20818              	.LASF118:
 20819 2f02 5F6E696F 		.ascii	"_niobs\000"
 20819      627300
 20820              	.LASF794:
 20821 2f09 7969656C 		.ascii	"yield\000"
 20821      6400
 20822              	.LASF933:
 20823 2f0f 7365745F 		.ascii	"set_page_buffer\000"
 20823      70616765 
 20823      5F627566 
 20823      66657200 
 20824              	.LASF811:
 20825 2f1f 5F5A4E33 		.ascii	"_ZN3r2p6Thread12get_priorityEv\000"
 20825      72327036 
 20825      54687265 
 20825      61643132 
 20825      6765745F 
 20826              	.LASF420:
 20827 2f3e 5F5A4E33 		.ascii	"_ZN3r2p11MemoryPool_4freeEPv\000"
 20827      72327031 
 20827      314D656D 
 20827      6F727950 
 20827      6F6F6C5F 
 20828              	.LASF1130:
 20829 2f5b 6D676D74 		.ascii	"mgmt_threadf\000"
 20829      5F746872 
 20829      65616466 
 20829      00
 20830              	.LASF1268:
 20831 2f68 5F5F7674 		.ascii	"__vtbl_ptr_type\000"
 20831      626C5F70 
 20831      74725F74 
 20831      79706500 
 20832              	.LASF943:
 20833 2f78 5F5A4E33 		.ascii	"_ZN3r2p8Flasher_5eraseEPKhj\000"
 20833      72327038 
 20833      466C6173 
ARM GAS  /tmp/ccytVDiP.s 			page 394


 20833      6865725F 
 20833      35657261 
 20834              	.LASF470:
 20835 2f94 5F5A4E33 		.ascii	"_ZN3r2p10StaticListINS_15LocalSubscriberEE13ConstIt"
 20835      72327031 
 20835      30537461 
 20835      7469634C 
 20835      69737449 
 20836 2fc7 65726174 		.ascii	"eratoraSERKS3_\000"
 20836      6F726153 
 20836      45524B53 
 20836      335F00
 20837              	.LASF207:
 20838 2fd6 725F6375 		.ascii	"r_current\000"
 20838      7272656E 
 20838      7400
 20839              	.LASF94:
 20840 2fe0 5F657272 		.ascii	"_errno\000"
 20840      6E6F00
 20841              	.LASF316:
 20842 2fe7 5553425F 		.ascii	"USB_EP0_TX\000"
 20842      4550305F 
 20842      545800
 20843              	.LASF297:
 20844 2ff2 65703073 		.ascii	"ep0state\000"
 20844      74617465 
 20844      00
 20845              	.LASF1153:
 20846 2ffb 5F5A4E33 		.ascii	"_ZN3r2p9PublisherINS_7MgmtMsgEE7publishERS1_\000"
 20846      72327039 
 20846      5075626C 
 20846      69736865 
 20846      72494E53 
 20847              	.LASF37:
 20848 3028 5F5F746D 		.ascii	"__tm_mday\000"
 20848      5F6D6461 
 20848      7900
 20849              	.LASF1097:
 20850 3032 5F5A4E33 		.ascii	"_ZN3r2p10Middleware14get_mgmt_topicEv\000"
 20850      72327031 
 20850      304D6964 
 20850      646C6577 
 20850      61726531 
 20851              	.LASF1110:
 20852 3058 5F5A4E33 		.ascii	"_ZN3r2p10Middleware23preload_bootloader_modeEb\000"
 20852      72327031 
 20852      304D6964 
 20852      646C6577 
 20852      61726532 
 20853              	.LASF1176:
 20854 3087 5F5A4E4B 		.ascii	"_ZNK3r2p13BasePublisher9get_topicEv\000"
 20854      33723270 
 20854      31334261 
 20854      73655075 
 20854      626C6973 
 20855              	.LASF366:
 20856 30ab 6F75745F 		.ascii	"out_maxsize\000"
ARM GAS  /tmp/ccytVDiP.s 			page 395


 20856      6D617873 
 20856      697A6500 
 20857              	.LASF1271:
 20858 30b7 5F474C4F 		.ascii	"_GLOBAL__sub_I__ZN3r2p10Middleware8instanceE\000"
 20858      42414C5F 
 20858      5F737562 
 20858      5F495F5F 
 20858      5A4E3372 
 20859              	.LASF386:
 20860 30e4 62756C6B 		.ascii	"bulk_in\000"
 20860      5F696E00 
 20861              	.LASF323:
 20862 30ec 31337573 		.ascii	"13usbep0state_t\000"
 20862      62657030 
 20862      73746174 
 20862      655F7400 
 20863              	.LASF846:
 20864 30fc 73746F70 		.ascii	"stopped\000"
 20864      70656400 
 20865              	.LASF432:
 20866 3104 746F5F75 		.ascii	"to_us_raw\000"
 20866      735F7261 
 20866      7700
 20867              	.LASF169:
 20868 310e 7264796D 		.ascii	"rdymsg\000"
 20868      736700
 20869              	.LASF44:
 20870 3115 5F666E61 		.ascii	"_fnargs\000"
 20870      72677300 
 20871              	.LASF1085:
 20872 311d 696E7374 		.ascii	"instance\000"
 20872      616E6365 
 20872      00
 20873              	.LASF192:
 20874 3126 31305F6D 		.ascii	"10_mbstate_t\000"
 20874      62737461 
 20874      74655F74 
 20874      00
 20875              	.LASF840:
 20876 3133 746F7069 		.ascii	"topic\000"
 20876      6300
 20877              	.LASF894:
 20878 3139 5F5A4E4B 		.ascii	"_ZNK3r2p10StaticListINS_4NodeEE3endEv\000"
 20878      33723270 
 20878      31305374 
 20878      61746963 
 20878      4C697374 
 20879              	.LASF869:
 20880 315f 5F5A4E33 		.ascii	"_ZN3r2p10StaticListINS_4NodeEE16link_tail_unsafeERN"
 20880      72327031 
 20880      30537461 
 20880      7469634C 
 20880      69737449 
 20881 3192 53325F34 		.ascii	"S2_4LinkE\000"
 20881      4C696E6B 
 20881      4500
 20882              	.LASF351:
ARM GAS  /tmp/ccytVDiP.s 			page 396


 20883 319c 55534249 		.ascii	"USBInEndpointState\000"
 20883      6E456E64 
 20883      706F696E 
 20883      74537461 
 20883      746500
 20884              	.LASF175:
 20885 31af 705F7072 		.ascii	"p_prio\000"
 20885      696F00
 20886              	.LASF536:
 20887 31b6 5F5A4E33 		.ascii	"_ZN3r2p10StaticListINS_15LocalSubscriberEE3endEv\000"
 20887      72327031 
 20887      30537461 
 20887      7469634C 
 20887      69737449 
 20888              	.LASF664:
 20889 31e7 5F5A4E4B 		.ascii	"_ZNK3r2p5Topic16compute_deadlineEv\000"
 20889      33723270 
 20889      35546F70 
 20889      69633136 
 20889      636F6D70 
 20890              	.LASF1057:
 20891 320a 74696D65 		.ascii	"timestamp\000"
 20891      7374616D 
 20891      7000
 20892              	.LASF902:
 20893 3214 5F5A4E4B 		.ascii	"_ZNK3r2p4Node14get_publishersEv\000"
 20893      33723270 
 20893      344E6F64 
 20893      65313467 
 20893      65745F70 
 20894              	.LASF1001:
 20895 3234 7E52654D 		.ascii	"~ReMutex\000"
 20895      75746578 
 20895      00
 20896              	.LASF653:
 20897 323d 72656C65 		.ascii	"release_unsafe\000"
 20897      6173655F 
 20897      756E7361 
 20897      666500
 20898              	.LASF868:
 20899 324c 5F5A4E33 		.ascii	"_ZN3r2p10StaticListINS_4NodeEE11link_unsafeERNS2_4L"
 20899      72327031 
 20899      30537461 
 20899      7469634C 
 20899      69737449 
 20900 327f 696E6B45 		.ascii	"inkE\000"
 20900      00
 20901              	.LASF662:
 20902 3284 636F6D70 		.ascii	"compute_deadline\000"
 20902      7574655F 
 20902      64656164 
 20902      6C696E65 
 20902      00
 20903              	.LASF688:
 20904 3295 72656663 		.ascii	"refcount\000"
 20904      6F756E74 
 20904      00
ARM GAS  /tmp/ccytVDiP.s 			page 397


 20905              	.LASF11:
 20906 329e 5F5F7569 		.ascii	"__uint64_t\000"
 20906      6E743634 
 20906      5F7400
 20907              	.LASF1193:
 20908 32a9 5F5A4E33 		.ascii	"_ZN3r2p13BasePublisher9has_topicERKS0_PKc\000"
 20908      72327031 
 20908      33426173 
 20908      65507562 
 20908      6C697368 
 20909              	.LASF1184:
 20910 32d3 7075626C 		.ascii	"publish_remotely_unsafe\000"
 20910      6973685F 
 20910      72656D6F 
 20910      74656C79 
 20910      5F756E73 
 20911              	.LASF28:
 20912 32eb 5F6E6578 		.ascii	"_next\000"
 20912      7400
 20913              	.LASF410:
 20914 32f1 6765745F 		.ascii	"get_allocator\000"
 20914      616C6C6F 
 20914      6361746F 
 20914      7200
 20915              	.LASF1174:
 20916 32ff 42617365 		.ascii	"BasePublisher\000"
 20916      5075626C 
 20916      69736865 
 20916      7200
 20917              	.LASF713:
 20918 330d 436F6E73 		.ascii	"ConstLink\000"
 20918      744C696E 
 20918      6B00
 20919              	.LASF1227:
 20920 3317 5F5A4E33 		.ascii	"_ZN3r2p9PublisherINS_11String64MsgEED0Ev\000"
 20920      72327039 
 20920      5075626C 
 20920      69736865 
 20920      72494E53 
 20921              	.LASF320:
 20922 3340 5553425F 		.ascii	"USB_EP0_SENDING_STS\000"
 20922      4550305F 
 20922      53454E44 
 20922      494E475F 
 20922      53545300 
 20923              	.LASF83:
 20924 3354 5F736967 		.ascii	"_signal_buf\000"
 20924      6E616C5F 
 20924      62756600 
 20925              	.LASF567:
 20926 3360 5F5A4E33 		.ascii	"_ZN3r2p10StaticListINS_16RemoteSubscriberEE6unlinkE"
 20926      72327031 
 20926      30537461 
 20926      7469634C 
 20926      69737449 
 20927 3393 524E5332 		.ascii	"RNS2_4LinkE\000"
 20927      5F344C69 
ARM GAS  /tmp/ccytVDiP.s 			page 398


 20927      6E6B4500 
 20928              	.LASF1136:
 20929 339f 646F5F63 		.ascii	"do_cmd_subscribe_request\000"
 20929      6D645F73 
 20929      75627363 
 20929      72696265 
 20929      5F726571 
 20930              	.LASF496:
 20931 33b8 756E6C69 		.ascii	"unlink_unsafe\000"
 20931      6E6B5F75 
 20931      6E736166 
 20931      6500
 20932              	.LASF388:
 20933 33c6 696E745F 		.ascii	"int_in\000"
 20933      696E00
 20934              	.LASF1134:
 20935 33cd 646F5F63 		.ascii	"do_cmd_advertise\000"
 20935      6D645F61 
 20935      64766572 
 20935      74697365 
 20935      00
 20936              	.LASF971:
 20937 33de 6765745F 		.ascii	"get_ram_start\000"
 20937      72616D5F 
 20937      73746172 
 20937      7400
 20938              	.LASF303:
 20939 33ec 61646472 		.ascii	"address\000"
 20939      65737300 
 20940              	.LASF58:
 20941 33f4 5F636F6F 		.ascii	"_cookie\000"
 20941      6B696500 
 20942              	.LASF782:
 20943 33fc 63726561 		.ascii	"create_static\000"
 20943      74655F73 
 20943      74617469 
 20943      6300
 20944              	.LASF806:
 20945 340a 5F5A4E4B 		.ascii	"_ZNK3r2p6Thread8get_nameEv\000"
 20945      33723270 
 20945      36546872 
 20945      65616438 
 20945      6765745F 
 20946              	.LASF322:
 20947 3425 75736265 		.ascii	"usbep0state_t\000"
 20947      70307374 
 20947      6174655F 
 20947      7400
 20948              	.LASF1154:
 20949 3433 5F5A4E33 		.ascii	"_ZN3r2p9PublisherINS_7MgmtMsgEE7publishEPS1_\000"
 20949      72327039 
 20949      5075626C 
 20949      69736865 
 20949      72494E53 
 20950              	.LASF241:
 20951 3460 715F6275 		.ascii	"q_buffer\000"
 20951      66666572 
ARM GAS  /tmp/ccytVDiP.s 			page 399


 20951      00
 20952              	.LASF173:
 20953 3469 705F6E65 		.ascii	"p_next\000"
 20953      787400
 20954              	.LASF510:
 20955 3470 5F5A4E33 		.ascii	"_ZN3r2p10StaticListINS_15LocalSubscriberEE14restart"
 20955      72327031 
 20955      30537461 
 20955      7469634C 
 20955      69737449 
 20956 34a3 5F756E73 		.ascii	"_unsafeERNS2_14IteratorUnsafeE\000"
 20956      61666545 
 20956      524E5332 
 20956      5F313449 
 20956      74657261 
 20957              	.LASF1263:
 20958 34c2 5F5A4E33 		.ascii	"_ZN3r2p15LocalSubscriber13notify_unsafeERNS_7Messag"
 20958      72327031 
 20958      354C6F63 
 20958      616C5375 
 20958      62736372 
 20959 34f5 6545524B 		.ascii	"eERKNS_4TimeE\000"
 20959      4E535F34 
 20959      54696D65 
 20959      4500
 20960              	.LASF617:
 20961 3503 6C6F6361 		.ascii	"local_subscribers\000"
 20961      6C5F7375 
 20961      62736372 
 20961      69626572 
 20961      7300
 20962              	.LASF1035:
 20963 3515 5F767074 		.ascii	"_vptr.BaseSubscriber\000"
 20963      722E4261 
 20963      73655375 
 20963      62736372 
 20963      69626572 
 20964              	.LASF566:
 20965 352a 5F5A4E33 		.ascii	"_ZN3r2p10StaticListINS_16RemoteSubscriberEE4linkERN"
 20965      72327031 
 20965      30537461 
 20965      7469634C 
 20965      69737449 
 20966 355d 53325F34 		.ascii	"S2_4LinkE\000"
 20966      4C696E6B 
 20966      4500
 20967              	.LASF291:
 20968 3567 55534244 		.ascii	"USBDriver\000"
 20968      72697665 
 20968      7200
 20969              	.LASF1069:
 20970 3571 6D676D74 		.ascii	"mgmt_priority\000"
 20970      5F707269 
 20970      6F726974 
 20970      7900
 20971              	.LASF126:
 20972 357f 66636C6F 		.ascii	"fclose\000"
ARM GAS  /tmp/ccytVDiP.s 			page 400


 20972      736500
 20973              	.LASF377:
 20974 3586 55534243 		.ascii	"USBConfig\000"
 20974      6F6E6669 
 20974      6700
 20975              	.LASF589:
 20976 3590 5F5A4E4B 		.ascii	"_ZNK3r2p10StaticListINS_5TopicEE17find_first_unsafe"
 20976      33723270 
 20976      31305374 
 20976      61746963 
 20976      4C697374 
 20977 35c3 45504662 		.ascii	"EPFbRKS1_PKvES6_\000"
 20977      524B5331 
 20977      5F504B76 
 20977      4553365F 
 20977      00
 20978              	.LASF666:
 20979 35d4 5F5A4E33 		.ascii	"_ZN3r2p5Topic7releaseERNS_7MessageE\000"
 20979      72327035 
 20979      546F7069 
 20979      63377265 
 20979      6C656173 
 20980              	.LASF591:
 20981 35f8 5F5A4E33 		.ascii	"_ZN3r2p10StaticListINS_5TopicEE10end_unsafeEv\000"
 20981      72327031 
 20981      30537461 
 20981      7469634C 
 20981      69737449 
 20982              	.LASF754:
 20983 3626 61727261 		.ascii	"arrayp\000"
 20983      797000
 20984              	.LASF1103:
 20985 362d 73746172 		.ascii	"start\000"
 20985      7400
 20986              	.LASF759:
 20987 3633 5F5A4E33 		.ascii	"_ZN3r2p10ArrayQueueIPNS_7MessageEE12fetch_unsafeERS"
 20987      72327031 
 20987      30417272 
 20987      61795175 
 20987      65756549 
 20988 3666 325F00   		.ascii	"2_\000"
 20989              	.LASF584:
 20990 3669 5F5A4E33 		.ascii	"_ZN3r2p10StaticListINS_5TopicEE16link_tail_unsafeER"
 20990      72327031 
 20990      30537461 
 20990      7469634C 
 20990      69737449 
 20991 369c 4E53325F 		.ascii	"NS2_4LinkE\000"
 20991      344C696E 
 20991      6B4500
 20992              	.LASF1186:
 20993 36a7 5F5A4E33 		.ascii	"_ZN3r2p13BasePublisher5allocERPNS_7MessageE\000"
 20993      72327031 
 20993      33426173 
 20993      65507562 
 20993      6C697368 
 20994              	.LASF392:
ARM GAS  /tmp/ccytVDiP.s 			page 401


 20995 36d3 73747265 		.ascii	"strerror\000"
 20995      72726F72 
 20995      00
 20996              	.LASF552:
 20997 36dc 5F5A4E33 		.ascii	"_ZN3r2p10StaticListINS_16RemoteSubscriberEE13unlink"
 20997      72327031 
 20997      30537461 
 20997      7469634C 
 20997      69737449 
 20998 370f 5F756E73 		.ascii	"_unsafeERNS2_4LinkE\000"
 20998      61666545 
 20998      524E5332 
 20998      5F344C69 
 20998      6E6B4500 
 20999              	.LASF777:
 21000 3723 41726775 		.ascii	"Argument\000"
 21000      6D656E74 
 21000      00
 21001              	.LASF287:
 21002 372c 6F717565 		.ascii	"oqueue\000"
 21002      756500
 21003              	.LASF394:
 21004 3733 73747278 		.ascii	"strxfrm\000"
 21004      66726D00 
 21005              	.LASF162:
 21006 373b 74726566 		.ascii	"trefs_t\000"
 21006      735F7400 
 21007              	.LASF938:
 21008 3743 65726173 		.ascii	"erase_aligned\000"
 21008      655F616C 
 21008      69676E65 
 21008      6400
 21009              	.LASF191:
 21010 3751 705F6D70 		.ascii	"p_mpool\000"
 21010      6F6F6C00 
 21011              	.LASF1144:
 21012 3759 69735F72 		.ascii	"is_rebooted\000"
 21012      65626F6F 
 21012      74656400 
 21013              	.LASF1046:
 21014 3765 5F5A4E33 		.ascii	"_ZN3r2p14BaseSubscriber5fetchERPNS_7MessageERNS_4Ti"
 21014      72327031 
 21014      34426173 
 21014      65537562 
 21014      73637269 
 21015 3798 6D654500 		.ascii	"meE\000"
 21016              	.LASF970:
 21017 379c 5F5A4E33 		.ascii	"_ZN3r2p8Flasher_18get_program_lengthEv\000"
 21017      72327038 
 21017      466C6173 
 21017      6865725F 
 21017      31386765 
 21018              	.LASF34:
 21019 37c3 5F5F746D 		.ascii	"__tm_sec\000"
 21019      5F736563 
 21019      00
 21020              	.LASF529:
ARM GAS  /tmp/ccytVDiP.s 			page 402


 21021 37cc 5F5A4E4B 		.ascii	"_ZNK3r2p10StaticListINS_15LocalSubscriberEE10find_f"
 21021      33723270 
 21021      31305374 
 21021      61746963 
 21021      4C697374 
 21022 37ff 69727374 		.ascii	"irstEPFbRKS1_E\000"
 21022      45504662 
 21022      524B5331 
 21022      5F4500
 21023              	.LASF43:
 21024 380e 5F6F6E5F 		.ascii	"_on_exit_args\000"
 21024      65786974 
 21024      5F617267 
 21024      7300
 21025              	.LASF1093:
 21026 381c 5F5A4E4B 		.ascii	"_ZNK3r2p10Middleware10get_topicsEv\000"
 21026      33723270 
 21026      31304D69 
 21026      64646C65 
 21026      77617265 
 21027              	.LASF652:
 21028 383f 5F5A4E33 		.ascii	"_ZN3r2p5Topic12alloc_unsafeEv\000"
 21028      72327035 
 21028      546F7069 
 21028      63313261 
 21028      6C6C6F63 
 21029              	.LASF848:
 21030 385d 626F6F74 		.ascii	"boot_mode\000"
 21030      5F6D6F64 
 21030      6500
 21031              	.LASF200:
 21032 3867 636F6E74 		.ascii	"context\000"
 21032      65787400 
 21033              	.LASF952:
 21034 386f 5F5A4E33 		.ascii	"_ZN3r2p8Flasher_7compareEtPVKt\000"
 21034      72327038 
 21034      466C6173 
 21034      6865725F 
 21034      37636F6D 
 21035              	.LASF160:
 21036 388e 746D6F64 		.ascii	"tmode_t\000"
 21036      655F7400 
 21037              	.LASF538:
 21038 3896 5F5A4E4B 		.ascii	"_ZNK3r2p10StaticListINS_15LocalSubscriberEE7restart"
 21038      33723270 
 21038      31305374 
 21038      61746963 
 21038      4C697374 
 21039 38c9 45524E53 		.ascii	"ERNS2_13ConstIteratorE\000"
 21039      325F3133 
 21039      436F6E73 
 21039      74497465 
 21039      7261746F 
 21040              	.LASF913:
 21041 38e0 6E6F7469 		.ascii	"notify\000"
 21041      667900
 21042              	.LASF231:
ARM GAS  /tmp/ccytVDiP.s 			page 403


 21043 38e7 70685F6E 		.ascii	"ph_next\000"
 21043      65787400 
 21044              	.LASF460:
 21045 38ef 53746174 		.ascii	"StaticList<r2p::LocalSubscriber>\000"
 21045      69634C69 
 21045      73743C72 
 21045      32703A3A 
 21045      4C6F6361 
 21046              	.LASF442:
 21047 3910 746F5F6D 		.ascii	"to_ms\000"
 21047      7300
 21048              	.LASF395:
 21049 3916 556E636F 		.ascii	"Uncopyable\000"
 21049      70796162 
 21049      6C6500
 21050              	.LASF461:
 21051 3921 6E657874 		.ascii	"nextp\000"
 21051      7000
 21052              	.LASF273:
 21053 3927 42535252 		.ascii	"BSRR\000"
 21053      00
 21054              	.LASF829:
 21055 392c 5F5A4E33 		.ascii	"_ZN3r2p10SpinEvent_4waitERKNS_4TimeE\000"
 21055      72327031 
 21055      30537069 
 21055      6E457665 
 21055      6E745F34 
 21056              	.LASF1142:
 21057 3951 646F5F62 		.ascii	"do_boot_thread\000"
 21057      6F6F745F 
 21057      74687265 
 21057      616400
 21058              	.LASF603:
 21059 3960 5F5A4E4B 		.ascii	"_ZNK3r2p10StaticListINS_5TopicEE10find_firstEPFbRKS"
 21059      33723270 
 21059      31305374 
 21059      61746963 
 21059      4C697374 
 21060 3993 315F4500 		.ascii	"1_E\000"
 21061              	.LASF315:
 21062 3997 5553425F 		.ascii	"USB_EP0_WAITING_SETUP\000"
 21062      4550305F 
 21062      57414954 
 21062      494E475F 
 21062      53455455 
 21063              	.LASF375:
 21064 39ad 72657175 		.ascii	"requests_hook_cb\000"
 21064      65737473 
 21064      5F686F6F 
 21064      6B5F6362 
 21064      00
 21065              	.LASF984:
 21066 39be 5F5A4E33 		.ascii	"_ZN3r2p6Mutex_7releaseEv\000"
 21066      72327036 
 21066      4D757465 
 21066      785F3772 
 21066      656C6561 
ARM GAS  /tmp/ccytVDiP.s 			page 404


 21067              	.LASF88:
 21068 39d7 5F776372 		.ascii	"_wcrtomb_state\000"
 21068      746F6D62 
 21068      5F737461 
 21068      746500
 21069              	.LASF965:
 21070 39e6 6765745F 		.ascii	"get_program_start\000"
 21070      70726F67 
 21070      72616D5F 
 21070      73746172 
 21070      7400
 21071              	.LASF348:
 21072 39f8 74787369 		.ascii	"txsize\000"
 21072      7A6500
 21073              	.LASF1067:
 21074 39ff 6D676D74 		.ascii	"mgmt_stacklen\000"
 21074      5F737461 
 21074      636B6C65 
 21074      6E00
 21075              	.LASF581:
 21076 3a0d 5F5A4E4B 		.ascii	"_ZNK3r2p10StaticListINS_5TopicEE15is_empty_unsafeEv"
 21076      33723270 
 21076      31305374 
 21076      61746963 
 21076      4C697374 
 21077 3a40 00       		.ascii	"\000"
 21078              	.LASF512:
 21079 3a41 5F5A4E4B 		.ascii	"_ZNK3r2p10StaticListINS_15LocalSubscriberEE10end_un"
 21079      33723270 
 21079      31305374 
 21079      61746963 
 21079      4C697374 
 21080 3a74 73616665 		.ascii	"safeEv\000"
 21080      457600
 21081              	.LASF870:
 21082 3a7b 5F5A4E33 		.ascii	"_ZN3r2p10StaticListINS_4NodeEE13unlink_unsafeERNS2_"
 21082      72327031 
 21082      30537461 
 21082      7469634C 
 21082      69737449 
 21083 3aae 344C696E 		.ascii	"4LinkE\000"
 21083      6B4500
 21084              	.LASF833:
 21085 3ab5 5F5A4E33 		.ascii	"_ZN3r2p9SpinEvent13signal_unsafeEj\000"
 21085      72327039 
 21085      5370696E 
 21085      4576656E 
 21085      74313373 
 21086              	.LASF466:
 21087 3ad8 436F6E73 		.ascii	"ConstIteratorUnsafe\000"
 21087      74497465 
 21087      7261746F 
 21087      72556E73 
 21087      61666500 
 21088              	.LASF827:
 21089 3aec 5F5A4E33 		.ascii	"_ZN3r2p10SpinEvent_6signalEj\000"
 21089      72327031 
ARM GAS  /tmp/ccytVDiP.s 			page 405


 21089      30537069 
 21089      6E457665 
 21089      6E745F36 
 21090              	.LASF696:
 21091 3b09 5F5A4E33 		.ascii	"_ZN3r2p7Message7acquireEv\000"
 21091      72327037 
 21091      4D657373 
 21091      61676537 
 21091      61637175 
 21092              	.LASF787:
 21093 3b23 5F5A4E33 		.ascii	"_ZN3r2p7Thread_11create_poolERNS_11MemoryPool_EmPFl"
 21093      72327037 
 21093      54687265 
 21093      61645F31 
 21093      31637265 
 21094 3b56 50764553 		.ascii	"PvES3_PKc\000"
 21094      335F504B 
 21094      6300
 21095              	.LASF210:
 21096 3b60 6D5F7175 		.ascii	"m_queue\000"
 21096      65756500 
 21097              	.LASF832:
 21098 3b68 5F5A4E33 		.ascii	"_ZN3r2p9SpinEvent10set_threadEPNS_6ThreadE\000"
 21098      72327039 
 21098      5370696E 
 21098      4576656E 
 21098      74313073 
 21099              	.LASF577:
 21100 3b93 5F5A4E4B 		.ascii	"_ZNK3r2p10StaticListINS_16RemoteSubscriberEE7restar"
 21100      33723270 
 21100      31305374 
 21100      61746963 
 21100      4C697374 
 21101 3bc6 7445524E 		.ascii	"tERNS2_13ConstIteratorE\000"
 21101      53325F31 
 21101      33436F6E 
 21101      73744974 
 21101      65726174 
 21102              	.LASF647:
 21103 3bde 69735F61 		.ascii	"is_awaiting_subscriptions\000"
 21103      77616974 
 21103      696E675F 
 21103      73756273 
 21103      63726970 
 21104              	.LASF141:
 21105 3bf8 636C6561 		.ascii	"clearerr\000"
 21105      72657272 
 21105      00
 21106              	.LASF311:
 21107 3c01 5553425F 		.ascii	"USB_READY\000"
 21107      52454144 
 21107      5900
 21108              	.LASF1137:
 21109 3c0b 5F5A4E33 		.ascii	"_ZN3r2p10Middleware24do_cmd_subscribe_requestERKNS_"
 21109      72327031 
 21109      304D6964 
 21109      646C6577 
ARM GAS  /tmp/ccytVDiP.s 			page 406


 21109      61726532 
 21110 3c3e 374D676D 		.ascii	"7MgmtMsgE\000"
 21110      744D7367 
 21110      4500
 21111              	.LASF508:
 21112 3c48 5F5A4E33 		.ascii	"_ZN3r2p10StaticListINS_15LocalSubscriberEE10end_uns"
 21112      72327031 
 21112      30537461 
 21112      7469634C 
 21112      69737449 
 21113 3c7b 61666545 		.ascii	"afeEv\000"
 21113      7600
 21114              	.LASF850:
 21115 3c81 6E616D65 		.ascii	"name\000"
 21115      00
 21116              	.LASF889:
 21117 3c86 5F5A4E4B 		.ascii	"_ZNK3r2p10StaticListINS_4NodeEE10find_firstEPFbRKS1"
 21117      33723270 
 21117      31305374 
 21117      61746963 
 21117      4C697374 
 21118 3cb9 5F504B76 		.ascii	"_PKvES6_\000"
 21118      4553365F 
 21118      00
 21119              	.LASF480:
 21120 3cc2 6F706572 		.ascii	"operator!=\000"
 21120      61746F72 
 21120      213D00
 21121              	.LASF151:
 21122 3ccd 756E6765 		.ascii	"ungetc\000"
 21122      746300
 21123              	.LASF507:
 21124 3cd4 656E645F 		.ascii	"end_unsafe\000"
 21124      756E7361 
 21124      666500
 21125              	.LASF534:
 21126 3cdf 5F5A4E33 		.ascii	"_ZN3r2p10StaticListINS_15LocalSubscriberEE7restartE"
 21126      72327031 
 21126      30537461 
 21126      7469634C 
 21126      69737449 
 21127 3d12 524E5332 		.ascii	"RNS2_8IteratorE\000"
 21127      5F384974 
 21127      65726174 
 21127      6F724500 
 21128              	.LASF750:
 21129 3d22 5F5A4E4B 		.ascii	"_ZNK3r2p10StaticListINS_14LocalPublisherEE5beginEv\000"
 21129      33723270 
 21129      31305374 
 21129      61746963 
 21129      4C697374 
 21130              	.LASF27:
 21131 3d55 5F5F554C 		.ascii	"__ULong\000"
 21131      6F6E6700 
 21132              	.LASF384:
 21133 3d5d 31355365 		.ascii	"15SerialUSBConfig\000"
 21133      7269616C 
ARM GAS  /tmp/ccytVDiP.s 			page 407


 21133      55534243 
 21133      6F6E6669 
 21133      6700
 21134              	.LASF205:
 21135 3d6f 725F6E65 		.ascii	"r_newer\000"
 21135      77657200 
 21136              	.LASF330:
 21137 3d77 5553425F 		.ascii	"USB_EVENT_STALLED\000"
 21137      4556454E 
 21137      545F5354 
 21137      414C4C45 
 21137      4400
 21138              	.LASF1058:
 21139 3d89 7472616E 		.ascii	"transportp\000"
 21139      73706F72 
 21139      747000
 21140              	.LASF1063:
 21141 3d94 7472616E 		.ascii	"transports\000"
 21141      73706F72 
 21141      747300
 21142              	.LASF1219:
 21143 3d9f 75756964 		.ascii	"uuid\000"
 21143      00
 21144              	.LASF934:
 21145 3da4 5F5A4E33 		.ascii	"_ZN3r2p8Flasher_15set_page_bufferEPt\000"
 21145      72327038 
 21145      466C6173 
 21145      6865725F 
 21145      31357365 
 21146              	.LASF1094:
 21147 3dc9 6765745F 		.ascii	"get_transports\000"
 21147      7472616E 
 21147      73706F72 
 21147      747300
 21148              	.LASF356:
 21149 3dd8 72787369 		.ascii	"rxsize\000"
 21149      7A6500
 21150              	.LASF327:
 21151 3ddf 5553425F 		.ascii	"USB_EVENT_CONFIGURED\000"
 21151      4556454E 
 21151      545F434F 
 21151      4E464947 
 21151      55524544 
 21152              	.LASF633:
 21153 3df4 6861735F 		.ascii	"has_local_publishers\000"
 21153      6C6F6361 
 21153      6C5F7075 
 21153      626C6973 
 21153      68657273 
 21154              	.LASF521:
 21155 3e09 5F5A4E33 		.ascii	"_ZN3r2p10StaticListINS_15LocalSubscriberEE4linkERNS"
 21155      72327031 
 21155      30537461 
 21155      7469634C 
 21155      69737449 
 21156 3e3c 325F344C 		.ascii	"2_4LinkE\000"
 21156      696E6B45 
ARM GAS  /tmp/ccytVDiP.s 			page 408


 21156      00
 21157              	.LASF261:
 21158 3e45 70757474 		.ascii	"putt\000"
 21158      00
 21159              	.LASF73:
 21160 3e4a 5F737472 		.ascii	"_strtok_last\000"
 21160      746F6B5F 
 21160      6C617374 
 21160      00
 21161              	.LASF308:
 21162 3e57 31307573 		.ascii	"10usbstate_t\000"
 21162      62737461 
 21162      74655F74 
 21162      00
 21163              	.LASF698:
 21164 3e64 72657365 		.ascii	"reset\000"
 21164      7400
 21165              	.LASF559:
 21166 3e6a 5F5A4E33 		.ascii	"_ZN3r2p10StaticListINS_16RemoteSubscriberEE14restar"
 21166      72327031 
 21166      30537461 
 21166      7469634C 
 21166      69737449 
 21167 3e9d 745F756E 		.ascii	"t_unsafeERNS2_14IteratorUnsafeE\000"
 21167      73616665 
 21167      45524E53 
 21167      325F3134 
 21167      49746572 
 21168              	.LASF333:
 21169 3ebd 31335553 		.ascii	"13USBDescriptor\000"
 21169      42446573 
 21169      63726970 
 21169      746F7200 
 21170              	.LASF925:
 21171 3ecd 466C6173 		.ascii	"Flasher_\000"
 21171      6865725F 
 21171      00
 21172              	.LASF24:
 21173 3ed6 73697A65 		.ascii	"sizetype\000"
 21173      74797065 
 21173      00
 21174              	.LASF1051:
 21175 3edf 44656275 		.ascii	"DebugTransport\000"
 21175      67547261 
 21175      6E73706F 
 21175      727400
 21176              	.LASF121:
 21177 3eee 5F736565 		.ascii	"_seed\000"
 21177      6400
 21178              	.LASF454:
 21179 3ef4 5F5A4E33 		.ascii	"_ZN3r2p4Time2usEl\000"
 21179      72327034 
 21179      54696D65 
 21179      32757345 
 21179      6C00
 21180              	.LASF61:
 21181 3f06 5F736565 		.ascii	"_seek\000"
ARM GAS  /tmp/ccytVDiP.s 			page 409


 21181      6B00
 21182              	.LASF278:
 21183 3f0c 696F706F 		.ascii	"ioportmask_t\000"
 21183      72746D61 
 21183      736B5F74 
 21183      00
 21184              	.LASF328:
 21185 3f19 5553425F 		.ascii	"USB_EVENT_SUSPEND\000"
 21185      4556454E 
 21185      545F5355 
 21185      5350454E 
 21185      4400
 21186              	.LASF903:
 21187 3f2b 6765745F 		.ascii	"get_subscribers\000"
 21187      73756273 
 21187      63726962 
 21187      65727300 
 21188              	.LASF213:
 21189 3f3b 4576656E 		.ascii	"EventListener\000"
 21189      744C6973 
 21189      74656E65 
 21189      7200
 21190              	.LASF699:
 21191 3f49 5F5A4E33 		.ascii	"_ZN3r2p7Message5resetEv\000"
 21191      72327037 
 21191      4D657373 
 21191      61676535 
 21191      72657365 
 21192              	.LASF1074:
 21193 3f61 6D676D74 		.ascii	"mgmt_msg_buf\000"
 21193      5F6D7367 
 21193      5F627566 
 21193      00
 21194              	.LASF5:
 21195 3f6e 73686F72 		.ascii	"short unsigned int\000"
 21195      7420756E 
 21195      7369676E 
 21195      65642069 
 21195      6E7400
 21196              	.LASF0:
 21197 3f81 7369676E 		.ascii	"signed char\000"
 21197      65642063 
 21197      68617200 
 21198              	.LASF1203:
 21199 3f8d 73756363 		.ascii	"success\000"
 21199      65737300 
 21200              	.LASF1261:
 21201 3f95 68656170 		.ascii	"heap_header\000"
 21201      5F686561 
 21201      64657200 
 21202              	.LASF1124:
 21203 3fa1 66696E64 		.ascii	"find_topic\000"
 21203      5F746F70 
 21203      696300
 21204              	.LASF1099:
 21205 3fac 5F5A4E33 		.ascii	"_ZN3r2p10Middleware14get_boot_topicEv\000"
 21205      72327031 
ARM GAS  /tmp/ccytVDiP.s 			page 410


 21205      304D6964 
 21205      646C6577 
 21205      61726531 
 21206              	.LASF1199:
 21207 3fd2 74686973 		.ascii	"this\000"
 21207      00
 21208              	.LASF184:
 21209 3fd7 705F7469 		.ascii	"p_time\000"
 21209      6D6500
 21210              	.LASF1064:
 21211 3fde 6C697374 		.ascii	"lists_lock\000"
 21211      735F6C6F 
 21211      636B00
 21212              	.LASF580:
 21213 3fe9 5F5A4E4B 		.ascii	"_ZNK3r2p10StaticListINS_5TopicEE15get_head_unsafeEv"
 21213      33723270 
 21213      31305374 
 21213      61746963 
 21213      4C697374 
 21214 401c 00       		.ascii	"\000"
 21215              	.LASF1250:
 21216 401d 5F5F7261 		.ascii	"__ram_start__\000"
 21216      6D5F7374 
 21216      6172745F 
 21216      5F00
 21217              	.LASF416:
 21218 402b 616C6C6F 		.ascii	"alloc\000"
 21218      6300
 21219              	.LASF1048:
 21220 4031 6861735F 		.ascii	"has_topic\000"
 21220      746F7069 
 21220      6300
 21221              	.LASF1221:
 21222 403b 73746163 		.ascii	"stackp\000"
 21222      6B7000
 21223              	.LASF502:
 21224 4042 66696E64 		.ascii	"find_first_unsafe\000"
 21224      5F666972 
 21224      73745F75 
 21224      6E736166 
 21224      6500
 21225              	.LASF302:
 21226 4054 73746174 		.ascii	"status\000"
 21226      757300
 21227              	.LASF967:
 21228 405b 6765745F 		.ascii	"get_program_end\000"
 21228      70726F67 
 21228      72616D5F 
 21228      656E6400 
 21229              	.LASF716:
 21230 406b 5F5A4E4B 		.ascii	"_ZNK3r2p10StaticListINS_14LocalPublisherEE13ConstIt"
 21230      33723270 
 21230      31305374 
 21230      61746963 
 21230      4C697374 
 21231 409e 65726174 		.ascii	"eratordeEv\000"
 21231      6F726465 
ARM GAS  /tmp/ccytVDiP.s 			page 411


 21231      457600
 21232              	.LASF799:
 21233 40a9 5F5A4E33 		.ascii	"_ZN3r2p7Thread_4joinERS0_\000"
 21233      72327037 
 21233      54687265 
 21233      61645F34 
 21233      6A6F696E 
 21234              	.LASF518:
 21235 40c3 636F756E 		.ascii	"count\000"
 21235      7400
 21236              	.LASF336:
 21237 40c9 55534244 		.ascii	"USBDescriptor\000"
 21237      65736372 
 21237      6970746F 
 21237      7200
 21238              	.LASF481:
 21239 40d7 5F5A4E4B 		.ascii	"_ZNK3r2p10StaticListINS_15LocalSubscriberEE13ConstI"
 21239      33723270 
 21239      31305374 
 21239      61746963 
 21239      4C697374 
 21240 410a 74657261 		.ascii	"teratorneERKS3_\000"
 21240      746F726E 
 21240      6545524B 
 21240      53335F00 
 21241              	.LASF1164:
 21242 411a 5F5A4E33 		.ascii	"_ZN3r2p16SubscriberExtBufINS_7MgmtMsgEE5fetchERPS1_"
 21242      72327031 
 21242      36537562 
 21242      73637269 
 21242      62657245 
 21243 414d 524E535F 		.ascii	"RNS_4TimeE\000"
 21243      3454696D 
 21243      654500
 21244              	.LASF657:
 21245 4158 5F5A4E33 		.ascii	"_ZN3r2p5Topic20notify_locals_unsafeERNS_7MessageERK"
 21245      72327035 
 21245      546F7069 
 21245      6332306E 
 21245      6F746966 
 21246 418b 4E535F34 		.ascii	"NS_4TimeE\000"
 21246      54696D65 
 21246      4500
 21247              	.LASF107:
 21248 4195 5F667265 		.ascii	"_freelist\000"
 21248      656C6973 
 21248      7400
 21249              	.LASF1218:
 21250 419f 74657374 		.ascii	"test_pub_node\000"
 21250      5F707562 
 21250      5F6E6F64 
 21250      6500
 21251              	.LASF1018:
 21252 41ad 5F5A4E4B 		.ascii	"_ZNK3r2p10StaticListINS_9TransportEE14restart_unsaf"
 21252      33723270 
 21252      31305374 
 21252      61746963 
ARM GAS  /tmp/ccytVDiP.s 			page 412


 21252      4C697374 
 21253 41e0 6545524E 		.ascii	"eERNS2_19ConstIteratorUnsafeE\000"
 21253      53325F31 
 21253      39436F6E 
 21253      73744974 
 21253      65726174 
 21254              	.LASF881:
 21255 41fe 5F5A4E4B 		.ascii	"_ZNK3r2p10StaticListINS_4NodeEE8get_headEv\000"
 21255      33723270 
 21255      31305374 
 21255      61746963 
 21255      4C697374 
 21256              	.LASF847:
 21257 4229 7265626F 		.ascii	"rebooted\000"
 21257      6F746564 
 21257      00
 21258              	.LASF669:
 21259 4232 5F5A4E33 		.ascii	"_ZN3r2p5Topic13notify_localsERNS_7MessageERKNS_4Tim"
 21259      72327035 
 21259      546F7069 
 21259      6331336E 
 21259      6F746966 
 21260 4265 654500   		.ascii	"eE\000"
 21261              	.LASF605:
 21262 4268 5F5A4E33 		.ascii	"_ZN3r2p10StaticListINS_5TopicEE5beginEv\000"
 21262      72327031 
 21262      30537461 
 21262      7469634C 
 21262      69737449 
 21263              	.LASF1015:
 21264 4290 5F5A4E33 		.ascii	"_ZN3r2p10StaticListINS_9TransportEE14restart_unsafe"
 21264      72327031 
 21264      30537461 
 21264      7469634C 
 21264      69737449 
 21265 42c3 45524E53 		.ascii	"ERNS2_14IteratorUnsafeE\000"
 21265      325F3134 
 21265      49746572 
 21265      61746F72 
 21265      556E7361 
 21266              	.LASF553:
 21267 42db 5F5A4E4B 		.ascii	"_ZNK3r2p10StaticListINS_16RemoteSubscriberEE15index"
 21267      33723270 
 21267      31305374 
 21267      61746963 
 21267      4C697374 
 21268 430e 5F6F665F 		.ascii	"_of_unsafeERKS1_\000"
 21268      756E7361 
 21268      66654552 
 21268      4B53315F 
 21268      00
 21269              	.LASF693:
 21270 431f 5F5A4E33 		.ascii	"_ZN3r2p7Message14release_unsafeEv\000"
 21270      72327037 
 21270      4D657373 
 21270      61676531 
 21270      3472656C 
ARM GAS  /tmp/ccytVDiP.s 			page 413


 21271              	.LASF997:
 21272 4341 5F5A4E33 		.ascii	"_ZN3r2p7ReMutex14acquire_unsafeEv\000"
 21272      72327037 
 21272      52654D75 
 21272      74657831 
 21272      34616371 
 21273              	.LASF211:
 21274 4363 6D5F6F77 		.ascii	"m_owner\000"
 21274      6E657200 
 21275              	.LASF196:
 21276 436b 54687265 		.ascii	"ThreadsList\000"
 21276      6164734C 
 21276      69737400 
 21277              	.LASF66:
 21278 4377 5F6F6666 		.ascii	"_offset\000"
 21278      73657400 
 21279              	.LASF543:
 21280 437f 66657463 		.ascii	"fetch_unsafe\000"
 21280      685F756E 
 21280      73616665 
 21280      00
 21281              	.LASF867:
 21282 438c 5F5A4E4B 		.ascii	"_ZNK3r2p10StaticListINS_4NodeEE12count_unsafeEv\000"
 21282      33723270 
 21282      31305374 
 21282      61746963 
 21282      4C697374 
 21283              	.LASF702:
 21284 43bc 5F5A4E33 		.ascii	"_ZN3r2p7Message4copyERS0_RKS0_j\000"
 21284      72327037 
 21284      4D657373 
 21284      61676534 
 21284      636F7079 
 21285              	.LASF588:
 21286 43dc 5F5A4E4B 		.ascii	"_ZNK3r2p10StaticListINS_5TopicEE17find_first_unsafe"
 21286      33723270 
 21286      31305374 
 21286      61746963 
 21286      4C697374 
 21287 440f 45504662 		.ascii	"EPFbRKS1_E\000"
 21287      524B5331 
 21287      5F4500
 21288              	.LASF1052:
 21289 441a 4D474D54 		.ascii	"MGMT_BUFFER_LENGTH\000"
 21289      5F425546 
 21289      4645525F 
 21289      4C454E47 
 21289      544800
 21290              	.LASF498:
 21291 442d 696E6465 		.ascii	"index_of_unsafe\000"
 21291      785F6F66 
 21291      5F756E73 
 21291      61666500 
 21292              	.LASF285:
 21293 443d 73746174 		.ascii	"state\000"
 21293      6500
 21294              	.LASF1260:
ARM GAS  /tmp/ccytVDiP.s 			page 414


 21295 4443 2F686F6D 		.ascii	"/home/tino/workspace/openrobots/Middleware_v2-new/\000"
 21295      652F7469 
 21295      6E6F2F77 
 21295      6F726B73 
 21295      70616365 
 21296              	.LASF907:
 21297 4476 7365745F 		.ascii	"set_enabled\000"
 21297      656E6162 
 21297      6C656400 
 21298              	.LASF51:
 21299 4482 5F5F7362 		.ascii	"__sbuf\000"
 21299      756600
 21300              	.LASF1255:
 21301 4489 77615F72 		.ascii	"wa_rx_dbgtra\000"
 21301      785F6462 
 21301      67747261 
 21301      00
 21302              	.LASF752:
 21303 4496 5F5A4E4B 		.ascii	"_ZNK3r2p10StaticListINS_14LocalPublisherEE7restartE"
 21303      33723270 
 21303      31305374 
 21303      61746963 
 21303      4C697374 
 21304 44c9 524E5332 		.ascii	"RNS2_13ConstIteratorE\000"
 21304      5F313343 
 21304      6F6E7374 
 21304      49746572 
 21304      61746F72 
 21305              	.LASF413:
 21306 44df 616C6C6F 		.ascii	"alloc_unsafe\000"
 21306      635F756E 
 21306      73616665 
 21306      00
 21307              	.LASF332:
 21308 44ec 31335553 		.ascii	"13USART_TypeDef\000"
 21308      4152545F 
 21308      54797065 
 21308      44656600 
 21309              	.LASF318:
 21310 44fc 5553425F 		.ascii	"USB_EP0_WAITING_STS\000"
 21310      4550305F 
 21310      57414954 
 21310      494E475F 
 21310      53545300 
 21311              	.LASF82:
 21312 4510 5F6C3634 		.ascii	"_l64a_buf\000"
 21312      615F6275 
 21312      6600
 21313              	.LASF853:
 21314 451a 70617468 		.ascii	"path\000"
 21314      00
 21315              	.LASF909:
 21316 451f 6E6F7469 		.ascii	"notify_unsafe\000"
 21316      66795F75 
 21316      6E736166 
 21316      6500
 21317              	.LASF807:
ARM GAS  /tmp/ccytVDiP.s 			page 415


 21318 452d 5F5A4E33 		.ascii	"_ZN3r2p6Thread18compute_stack_sizeEj\000"
 21318      72327036 
 21318      54687265 
 21318      61643138 
 21318      636F6D70 
 21319              	.LASF576:
 21320 4552 5F5A4E4B 		.ascii	"_ZNK3r2p10StaticListINS_16RemoteSubscriberEE3endEv\000"
 21320      33723270 
 21320      31305374 
 21320      61746963 
 21320      4C697374 
 21321              	.LASF795:
 21322 4585 5F5A4E33 		.ascii	"_ZN3r2p7Thread_5yieldEv\000"
 21322      72327037 
 21322      54687265 
 21322      61645F35 
 21322      7969656C 
 21323              	.LASF815:
 21324 459d 5F5A4E33 		.ascii	"_ZN3r2p6Thread4joinERS0_\000"
 21324      72327036 
 21324      54687265 
 21324      6164346A 
 21324      6F696E45 
 21325              	.LASF747:
 21326 45b6 5F5A4E33 		.ascii	"_ZN3r2p10StaticListINS_14LocalPublisherEE5beginEv\000"
 21326      72327031 
 21326      30537461 
 21326      7469634C 
 21326      69737449 
 21327              	.LASF414:
 21328 45e8 5F5A4E33 		.ascii	"_ZN3r2p11MemoryPool_12alloc_unsafeEv\000"
 21328      72327031 
 21328      314D656D 
 21328      6F727950 
 21328      6F6F6C5F 
 21329              	.LASF843:
 21330 460d 71756575 		.ascii	"queue_length\000"
 21330      655F6C65 
 21330      6E677468 
 21330      00
 21331              	.LASF506:
 21332 461a 5F5A4E33 		.ascii	"_ZN3r2p10StaticListINS_15LocalSubscriberEE12begin_u"
 21332      72327031 
 21332      30537461 
 21332      7469634C 
 21332      69737449 
 21333 464d 6E736166 		.ascii	"nsafeEv\000"
 21333      65457600 
 21334              	.LASF524:
 21335 4655 696E6465 		.ascii	"index_of\000"
 21335      785F6F66 
 21335      00
 21336              	.LASF222:
 21337 465e 6D656D6F 		.ascii	"memory_heap\000"
 21337      72795F68 
 21337      65617000 
 21338              	.LASF1165:
ARM GAS  /tmp/ccytVDiP.s 			page 416


 21339 466a 5F5A4E33 		.ascii	"_ZN3r2p16SubscriberExtBufINS_7MgmtMsgEE7releaseERS1"
 21339      72327031 
 21339      36537562 
 21339      73637269 
 21339      62657245 
 21340 469d 5F00     		.ascii	"_\000"
 21341              	.LASF1133:
 21342 469f 5F5A4E33 		.ascii	"_ZN3r2p10Middleware14do_mgmt_threadEv\000"
 21342      72327031 
 21342      304D6964 
 21342      646C6577 
 21342      61726531 
 21343              	.LASF948:
 21344 46c5 69735F65 		.ascii	"is_erased\000"
 21344      72617365 
 21344      6400
 21345              	.LASF554:
 21346 46cf 5F5A4E4B 		.ascii	"_ZNK3r2p10StaticListINS_16RemoteSubscriberEE15conta"
 21346      33723270 
 21346      31305374 
 21346      61746963 
 21346      4C697374 
 21347 4702 696E735F 		.ascii	"ins_unsafeERKS1_\000"
 21347      756E7361 
 21347      66654552 
 21347      4B53315F 
 21347      00
 21348              	.LASF622:
 21349 4713 5F5A4E4B 		.ascii	"_ZNK3r2p5Topic8get_nameEv\000"
 21349      33723270 
 21349      35546F70 
 21349      69633867 
 21349      65745F6E 
 21350              	.LASF74:
 21351 472d 5F617363 		.ascii	"_asctime_buf\000"
 21351      74696D65 
 21351      5F627566 
 21351      00
 21352              	.LASF922:
 21353 473a 5F5A4E33 		.ascii	"_ZN3r2p4Node8has_nameERKS0_PKc\000"
 21353      72327034 
 21353      4E6F6465 
 21353      38686173 
 21353      5F6E616D 
 21354              	.LASF651:
 21355 4759 5F5A4E4B 		.ascii	"_ZNK3r2p5Topic23compute_deadline_unsafeEv\000"
 21355      33723270 
 21355      35546F70 
 21355      69633233 
 21355      636F6D70 
 21356              	.LASF20:
 21357 4783 5F5F7763 		.ascii	"__wch\000"
 21357      6800
 21358              	.LASF836:
 21359 4789 4D676D74 		.ascii	"MgmtMsg\000"
 21359      4D736700 
 21360              	.LASF233:
ARM GAS  /tmp/ccytVDiP.s 			page 417


 21361 4791 6D705F6E 		.ascii	"mp_next\000"
 21361      65787400 
 21362              	.LASF1132:
 21363 4799 646F5F6D 		.ascii	"do_mgmt_thread\000"
 21363      676D745F 
 21363      74687265 
 21363      616400
 21364              	.LASF89:
 21365 47a8 5F776373 		.ascii	"_wcsrtombs_state\000"
 21365      72746F6D 
 21365      62735F73 
 21365      74617465 
 21365      00
 21366              	.LASF682:
 21367 47b9 70617463 		.ascii	"patch_pubsub_msg\000"
 21367      685F7075 
 21367      62737562 
 21367      5F6D7367 
 21367      00
 21368              	.LASF760:
 21369 47ca 736B6970 		.ascii	"skip_unsafe\000"
 21369      5F756E73 
 21369      61666500 
 21370              	.LASF974:
 21371 47d6 5F5A4E33 		.ascii	"_ZN3r2p8Flasher_11get_ram_endEv\000"
 21371      72327038 
 21371      466C6173 
 21371      6865725F 
 21371      31316765 
 21372              	.LASF1034:
 21373 47f6 42617365 		.ascii	"BaseSubscriber\000"
 21373      53756273 
 21373      63726962 
 21373      657200
 21374              	.LASF621:
 21375 4805 6765745F 		.ascii	"get_name\000"
 21375      6E616D65 
 21375      00
 21376              	.LASF143:
 21377 480e 72656D6F 		.ascii	"remove\000"
 21377      766500
 21378              	.LASF700:
 21379 4815 636F7079 		.ascii	"copy\000"
 21379      00
 21380              	.LASF235:
 21381 481a 6D705F70 		.ascii	"mp_provider\000"
 21381      726F7669 
 21381      64657200 
 21382              	.LASF16:
 21383 4826 5F4C4F43 		.ascii	"_LOCK_RECURSIVE_T\000"
 21383      4B5F5245 
 21383      43555253 
 21383      4956455F 
 21383      5400
 21384              	.LASF786:
 21385 4838 63726561 		.ascii	"create_pool\000"
 21385      74655F70 
ARM GAS  /tmp/ccytVDiP.s 			page 418


 21385      6F6F6C00 
 21386              	.LASF640:
 21387 4844 5F5A4E4B 		.ascii	"_ZNK3r2p5Topic21has_local_subscribersEv\000"
 21387      33723270 
 21387      35546F70 
 21387      69633231 
 21387      6861735F 
 21388              	.LASF1025:
 21389 486c 5F5A4E4B 		.ascii	"_ZNK3r2p10StaticListINS_9TransportEE8containsERKS1_"
 21389      33723270 
 21389      31305374 
 21389      61746963 
 21389      4C697374 
 21390 489f 00       		.ascii	"\000"
 21391              	.LASF183:
 21392 48a0 705F7265 		.ascii	"p_refs\000"
 21392      667300
 21393              	.LASF361:
 21394 48a7 65705F6D 		.ascii	"ep_mode\000"
 21394      6F646500 
 21395              	.LASF893:
 21396 48af 5F5A4E4B 		.ascii	"_ZNK3r2p10StaticListINS_4NodeEE5beginEv\000"
 21396      33723270 
 21396      31305374 
 21396      61746963 
 21396      4C697374 
 21397              	.LASF7:
 21398 48d7 6C6F6E67 		.ascii	"long int\000"
 21398      20696E74 
 21398      00
 21399              	.LASF1190:
 21400 48e0 7075626C 		.ascii	"publish_remotely\000"
 21400      6973685F 
 21400      72656D6F 
 21400      74656C79 
 21400      00
 21401              	.LASF131:
 21402 48f1 66676574 		.ascii	"fgetpos\000"
 21402      706F7300 
 21403              	.LASF1023:
 21404 48f9 5F5A4E33 		.ascii	"_ZN3r2p10StaticListINS_9TransportEE6unlinkERNS2_4Li"
 21404      72327031 
 21404      30537461 
 21404      7469634C 
 21404      69737449 
 21405 492c 6E6B4500 		.ascii	"nkE\000"
 21406              	.LASF457:
 21407 4930 5F5A4E33 		.ascii	"_ZN3r2p4Time1mEl\000"
 21407      72327034 
 21407      54696D65 
 21407      316D456C 
 21407      00
 21408              	.LASF299:
 21409 4941 6570306E 		.ascii	"ep0n\000"
 21409      00
 21410              	.LASF81:
 21411 4946 5F776374 		.ascii	"_wctomb_state\000"
ARM GAS  /tmp/ccytVDiP.s 			page 419


 21411      6F6D625F 
 21411      73746174 
 21411      6500
 21412              	.LASF548:
 21413 4954 5F5A4E4B 		.ascii	"_ZNK3r2p10StaticListINS_16RemoteSubscriberEE15is_em"
 21413      33723270 
 21413      31305374 
 21413      61746963 
 21413      4C697374 
 21414 4987 7074795F 		.ascii	"pty_unsafeEv\000"
 21414      756E7361 
 21414      66654576 
 21414      00
 21415              	.LASF240:
 21416 4994 715F636F 		.ascii	"q_counter\000"
 21416      756E7465 
 21416      7200
 21417              	.LASF474:
 21418 499e 5F5A4E4B 		.ascii	"_ZNK3r2p10StaticListINS_15LocalSubscriberEE13ConstI"
 21418      33723270 
 21418      31305374 
 21418      61746963 
 21418      4C697374 
 21419 49d1 74657261 		.ascii	"teratordeEv\000"
 21419      746F7264 
 21419      65457600 
 21420              	.LASF390:
 21421 49dd 53657269 		.ascii	"SerialUSBDriverVMT\000"
 21421      616C5553 
 21421      42447269 
 21421      76657256 
 21421      4D5400
 21422              	.LASF523:
 21423 49f0 5F5A4E33 		.ascii	"_ZN3r2p10StaticListINS_15LocalSubscriberEE6unlinkER"
 21423      72327031 
 21423      30537461 
 21423      7469634C 
 21423      69737449 
 21424 4a23 4E53325F 		.ascii	"NS2_4LinkE\000"
 21424      344C696E 
 21424      6B4500
 21425              	.LASF946:
 21426 4a2e 69735F77 		.ascii	"is_within_bounds\000"
 21426      69746869 
 21426      6E5F626F 
 21426      756E6473 
 21426      00
 21427              	.LASF528:
 21428 4a3f 66696E64 		.ascii	"find_first\000"
 21428      5F666972 
 21428      737400
 21429              	.LASF139:
 21430 4a4a 67657463 		.ascii	"getc\000"
 21430      00
 21431              	.LASF1044:
 21432 4a4f 5F5A4E33 		.ascii	"_ZN3r2p14BaseSubscriber14release_unsafeERNS_7Messag"
 21432      72327031 
ARM GAS  /tmp/ccytVDiP.s 			page 420


 21432      34426173 
 21432      65537562 
 21432      73637269 
 21433 4a82 654500   		.ascii	"eE\000"
 21434              	.LASF511:
 21435 4a85 5F5A4E4B 		.ascii	"_ZNK3r2p10StaticListINS_15LocalSubscriberEE12begin_"
 21435      33723270 
 21435      31305374 
 21435      61746963 
 21435      4C697374 
 21436 4ab8 756E7361 		.ascii	"unsafeEv\000"
 21436      66654576 
 21436      00
 21437              	.LASF119:
 21438 4ac1 5F696F62 		.ascii	"_iobs\000"
 21438      7300
 21439              	.LASF99:
 21440 4ac7 5F656D65 		.ascii	"_emergency\000"
 21440      7267656E 
 21440      637900
 21441              	.LASF262:
 21442 4ad2 67657474 		.ascii	"gett\000"
 21442      00
 21443              	.LASF639:
 21444 4ad7 6861735F 		.ascii	"has_local_subscribers\000"
 21444      6C6F6361 
 21444      6C5F7375 
 21444      62736372 
 21444      69626572 
 21445              	.LASF708:
 21446 4aed 62795F6E 		.ascii	"by_node\000"
 21446      6F646500 
 21447              	.LASF244:
 21448 4af5 715F7264 		.ascii	"q_rdptr\000"
 21448      70747200 
 21449              	.LASF406:
 21450 4afd 4D41585F 		.ascii	"MAX_LENGTH\000"
 21450      4C454E47 
 21450      544800
 21451              	.LASF91:
 21452 4b08 5F6E6578 		.ascii	"_nextf\000"
 21452      746600
 21453              	.LASF259:
 21454 4b0f 77726974 		.ascii	"write\000"
 21454      6500
 21455              	.LASF77:
 21456 4b15 5F72616E 		.ascii	"_rand_next\000"
 21456      645F6E65 
 21456      787400
 21457              	.LASF286:
 21458 4b20 69717565 		.ascii	"iqueue\000"
 21458      756500
 21459              	.LASF363:
 21460 4b27 696E5F63 		.ascii	"in_cb\000"
 21460      6200
 21461              	.LASF527:
 21462 4b2d 5F5A4E4B 		.ascii	"_ZNK3r2p10StaticListINS_15LocalSubscriberEE8contain"
ARM GAS  /tmp/ccytVDiP.s 			page 421


 21462      33723270 
 21462      31305374 
 21462      61746963 
 21462      4C697374 
 21463 4b60 7345524B 		.ascii	"sERKS1_\000"
 21463      53315F00 
 21464              	.LASF274:
 21465 4b68 4C434B52 		.ascii	"LCKR\000"
 21465      00
 21466              	.LASF282:
 21467 4b6d 73647374 		.ascii	"sdstate_t\000"
 21467      6174655F 
 21467      7400
 21468              	.LASF155:
 21469 4b77 75696E74 		.ascii	"uint32_t\000"
 21469      33325F74 
 21469      00
 21470              	.LASF469:
 21471 4b80 436F6E73 		.ascii	"ConstIterator\000"
 21471      74497465 
 21471      7261746F 
 21471      7200
 21472              	.LASF1089:
 21473 4b8e 5F5A4E4B 		.ascii	"_ZNK3r2p10Middleware15get_module_nameEv\000"
 21473      33723270 
 21473      31304D69 
 21473      64646C65 
 21473      77617265 
 21474              	.LASF784:
 21475 4bb6 63726561 		.ascii	"create_heap\000"
 21475      74655F68 
 21475      65617000 
 21476              	.LASF449:
 21477 4bc2 5F5A4E33 		.ascii	"_ZN3r2p4TimeaSERKS0_\000"
 21477      72327034 
 21477      54696D65 
 21477      61534552 
 21477      4B53305F 
 21478              	.LASF29:
 21479 4bd7 5F6D6178 		.ascii	"_maxwds\000"
 21479      77647300 
 21480              	.LASF340:
 21481 4bdf 75736272 		.ascii	"usbreqhandler_t\000"
 21481      65716861 
 21481      6E646C65 
 21481      725F7400 
 21482              	.LASF1055:
 21483 4bef 4D696464 		.ascii	"Middleware\000"
 21483      6C657761 
 21483      726500
 21484              	.LASF488:
 21485 4bfa 5F5A4E4B 		.ascii	"_ZNK3r2p10StaticListINS_15LocalSubscriberEE15get_he"
 21485      33723270 
 21485      31305374 
 21485      61746963 
 21485      4C697374 
 21486 4c2d 61645F75 		.ascii	"ad_unsafeEv\000"
ARM GAS  /tmp/ccytVDiP.s 			page 422


 21486      6E736166 
 21486      65457600 
 21487              	.LASF1049:
 21488 4c39 5F5A4E33 		.ascii	"_ZN3r2p14BaseSubscriber9has_topicERKS0_PKc\000"
 21488      72327031 
 21488      34426173 
 21488      65537562 
 21488      73637269 
 21489              	.LASF992:
 21490 4c64 7E4D7574 		.ascii	"~Mutex\000"
 21490      657800
 21491              	.LASF540:
 21492 4c6b 7E537461 		.ascii	"~StaticList\000"
 21492      7469634C 
 21492      69737400 
 21493              	.LASF157:
 21494 4c77 75696E74 		.ascii	"uintptr_t\000"
 21494      7074725F 
 21494      7400
 21495              	.LASF667:
 21496 4c81 5F5A4E33 		.ascii	"_ZN3r2p5Topic4freeERNS_7MessageE\000"
 21496      72327035 
 21496      546F7069 
 21496      63346672 
 21496      65654552 
 21497              	.LASF393:
 21498 4ca2 73747274 		.ascii	"strtok\000"
 21498      6F6B00
 21499              	.LASF1189:
 21500 4ca9 5F5A4E33 		.ascii	"_ZN3r2p13BasePublisher15publish_locallyERNS_7Messag"
 21500      72327031 
 21500      33426173 
 21500      65507562 
 21500      6C697368 
 21501 4cdc 654500   		.ascii	"eE\000"
 21502              	.LASF926:
 21503 4cdf 574F5244 		.ascii	"WORD_ALIGNMENT\000"
 21503      5F414C49 
 21503      474E4D45 
 21503      4E5400
 21504              	.LASF197:
 21505 4cee 72656761 		.ascii	"regarm_t\000"
 21505      726D5F74 
 21505      00
 21506              	.LASF165:
 21507 4cf7 6576656E 		.ascii	"eventmask_t\000"
 21507      746D6173 
 21507      6B5F7400 
 21508              	.LASF325:
 21509 4d03 5553425F 		.ascii	"USB_EVENT_RESET\000"
 21509      4556454E 
 21509      545F5245 
 21509      53455400 
 21510              	.LASF985:
 21511 4d13 5F5A4E33 		.ascii	"_ZN3r2p6Mutex_8get_implEv\000"
 21511      72327036 
 21511      4D757465 
ARM GAS  /tmp/ccytVDiP.s 			page 423


 21511      785F3867 
 21511      65745F69 
 21512              	.LASF767:
 21513 4d2d 5F5A4E33 		.ascii	"_ZN3r2p10ArrayQueueIPNS_7MessageEE4postES2_\000"
 21513      72327031 
 21513      30417272 
 21513      61795175 
 21513      65756549 
 21514              	.LASF434:
 21515 4d59 746F5F6D 		.ascii	"to_ms_raw\000"
 21515      735F7261 
 21515      7700
 21516              	.LASF655:
 21517 4d63 5F5A4E33 		.ascii	"_ZN3r2p5Topic11free_unsafeERNS_7MessageE\000"
 21517      72327035 
 21517      546F7069 
 21517      63313166 
 21517      7265655F 
 21518              	.LASF312:
 21519 4d8c 5553425F 		.ascii	"USB_SELECTED\000"
 21519      53454C45 
 21519      43544544 
 21519      00
 21520              	.LASF575:
 21521 4d99 5F5A4E4B 		.ascii	"_ZNK3r2p10StaticListINS_16RemoteSubscriberEE5beginE"
 21521      33723270 
 21521      31305374 
 21521      61746963 
 21521      4C697374 
 21522 4dcc 7600     		.ascii	"v\000"
 21523              	.LASF999:
 21524 4dce 5F5A4E33 		.ascii	"_ZN3r2p7ReMutex7acquireEv\000"
 21524      72327037 
 21524      52654D75 
 21524      74657837 
 21524      61637175 
 21525              	.LASF774:
 21526 4de8 5072696F 		.ascii	"Priority\000"
 21526      72697479 
 21526      00
 21527              	.LASF9:
 21528 4df1 6C6F6E67 		.ascii	"long unsigned int\000"
 21528      20756E73 
 21528      69676E65 
 21528      6420696E 
 21528      7400
 21529              	.LASF955:
 21530 4e03 77726974 		.ascii	"write_if_needed\000"
 21530      655F6966 
 21530      5F6E6565 
 21530      64656400 
 21531              	.LASF158:
 21532 4e13 626F6F6C 		.ascii	"bool_t\000"
 21532      5F7400
 21533              	.LASF709:
 21534 4e1a 7E4C6F63 		.ascii	"~LocalPublisher\000"
 21534      616C5075 
ARM GAS  /tmp/ccytVDiP.s 			page 424


 21534      626C6973 
 21534      68657200 
 21535              	.LASF812:
 21536 4e2a 5F5A4E33 		.ascii	"_ZN3r2p6Thread12set_priorityEm\000"
 21536      72327036 
 21536      54687265 
 21536      61643132 
 21536      7365745F 
 21537              	.LASF1180:
 21538 4e49 7075626C 		.ascii	"publish_unsafe\000"
 21538      6973685F 
 21538      756E7361 
 21538      666500
 21539              	.LASF904:
 21540 4e58 5F5A4E4B 		.ascii	"_ZNK3r2p4Node15get_subscribersEv\000"
 21540      33723270 
 21540      344E6F64 
 21540      65313567 
 21540      65745F73 
 21541              	.LASF422:
 21542 4e79 5F5A4E33 		.ascii	"_ZN3r2p11MemoryPool_6extendEPvj\000"
 21542      72327031 
 21542      314D656D 
 21542      6F727950 
 21542      6F6F6C5F 
 21543              	.LASF450:
 21544 4e99 6F706572 		.ascii	"operator+=\000"
 21544      61746F72 
 21544      2B3D00
 21545              	.LASF243:
 21546 4ea4 715F7772 		.ascii	"q_wrptr\000"
 21546      70747200 
 21547              	.LASF150:
 21548 4eac 746D706E 		.ascii	"tmpnam\000"
 21548      616D00
 21549              	.LASF499:
 21550 4eb3 5F5A4E4B 		.ascii	"_ZNK3r2p10StaticListINS_15LocalSubscriberEE15index_"
 21550      33723270 
 21550      31305374 
 21550      61746963 
 21550      4C697374 
 21551 4ee6 6F665F75 		.ascii	"of_unsafeERKS1_\000"
 21551      6E736166 
 21551      6545524B 
 21551      53315F00 
 21552              	.LASF659:
 21553 4ef6 5F5A4E33 		.ascii	"_ZN3r2p5Topic21notify_remotes_unsafeERNS_7MessageER"
 21553      72327035 
 21553      546F7069 
 21553      6332316E 
 21553      6F746966 
 21554 4f29 4B4E535F 		.ascii	"KNS_4TimeE\000"
 21554      3454696D 
 21554      654500
 21555              	.LASF128:
 21556 4f34 66657272 		.ascii	"ferror\000"
 21556      6F7200
ARM GAS  /tmp/ccytVDiP.s 			page 425


 21557              	.LASF1187:
 21558 4f3b 5F5A4E33 		.ascii	"_ZN3r2p13BasePublisher7publishERNS_7MessageE\000"
 21558      72327031 
 21558      33426173 
 21558      65507562 
 21558      6C697368 
 21559              	.LASF455:
 21560 4f68 5F5A4E33 		.ascii	"_ZN3r2p4Time2msEl\000"
 21560      72327034 
 21560      54696D65 
 21560      326D7345 
 21560      6C00
 21561              	.LASF380:
 21562 4f7a 5344555F 		.ascii	"SDU_STOP\000"
 21562      53544F50 
 21562      00
 21563              	.LASF734:
 21564 4f83 5F5A4E33 		.ascii	"_ZN3r2p10StaticListINS_14LocalPublisherEE14restart_"
 21564      72327031 
 21564      30537461 
 21564      7469634C 
 21564      69737449 
 21565 4fb6 756E7361 		.ascii	"unsafeERNS2_14IteratorUnsafeE\000"
 21565      66654552 
 21565      4E53325F 
 21565      31344974 
 21565      65726174 
 21566              	.LASF475:
 21567 4fd4 6F706572 		.ascii	"operator++\000"
 21567      61746F72 
 21567      2B2B00
 21568              	.LASF711:
 21569 4fdf 5472616E 		.ascii	"Transport\000"
 21569      73706F72 
 21569      7400
 21570              	.LASF783:
 21571 4fe9 5F5A4E33 		.ascii	"_ZN3r2p7Thread_13create_staticEPvjmPFlS1_ES1_PKc\000"
 21571      72327037 
 21571      54687265 
 21571      61645F31 
 21571      33637265 
 21572              	.LASF810:
 21573 501a 5F5A4E33 		.ascii	"_ZN3r2p6Thread4selfEv\000"
 21573      72327036 
 21573      54687265 
 21573      61643473 
 21573      656C6645 
 21574              	.LASF730:
 21575 5030 5F5A4E4B 		.ascii	"_ZNK3r2p10StaticListINS_14LocalPublisherEE17find_fi"
 21575      33723270 
 21575      31305374 
 21575      61746963 
 21575      4C697374 
 21576 5063 7273745F 		.ascii	"rst_unsafeEPFbRKS1_E\000"
 21576      756E7361 
 21576      66654550 
 21576      4662524B 
ARM GAS  /tmp/ccytVDiP.s 			page 426


 21576      53315F45 
 21577              	.LASF331:
 21578 5078 75736265 		.ascii	"usbevent_t\000"
 21578      76656E74 
 21578      5F7400
 21579              	.LASF62:
 21580 5083 5F636C6F 		.ascii	"_close\000"
 21580      736500
 21581              	.LASF482:
 21582 508a 69735F76 		.ascii	"is_valid\000"
 21582      616C6964 
 21582      00
 21583              	.LASF115:
 21584 5093 63686172 		.ascii	"char\000"
 21584      00
 21585              	.LASF1127:
 21586 5098 5F5A4E33 		.ascii	"_ZN3r2p10Middleware9find_nodeEPKc\000"
 21586      72327031 
 21586      304D6964 
 21586      646C6577 
 21586      61726539 
 21587              	.LASF397:
 21588 50ba 5379734C 		.ascii	"SysLock_\000"
 21588      6F636B5F 
 21588      00
 21589              	.LASF845:
 21590 50c3 4D6F6475 		.ascii	"Module\000"
 21590      6C6500
 21591              	.LASF202:
 21592 50ca 725F7175 		.ascii	"r_queue\000"
 21592      65756500 
 21593              	.LASF117:
 21594 50d2 5F676C75 		.ascii	"_glue\000"
 21594      6500
 21595              	.LASF758:
 21596 50d8 5F5A4E33 		.ascii	"_ZN3r2p10ArrayQueueIPNS_7MessageEE11post_unsafeES2_"
 21596      72327031 
 21596      30417272 
 21596      61795175 
 21596      65756549 
 21597 510b 00       		.ascii	"\000"
 21598              	.LASF619:
 21599 510c 6D61785F 		.ascii	"max_queue_length\000"
 21599      71756575 
 21599      655F6C65 
 21599      6E677468 
 21599      00
 21600              	.LASF1092:
 21601 511d 6765745F 		.ascii	"get_topics\000"
 21601      746F7069 
 21601      637300
 21602              	.LASF1096:
 21603 5128 6765745F 		.ascii	"get_mgmt_topic\000"
 21603      6D676D74 
 21603      5F746F70 
 21603      696300
 21604              	.LASF818:
ARM GAS  /tmp/ccytVDiP.s 			page 427


 21605 5137 4D61736B 		.ascii	"Mask\000"
 21605      00
 21606              	.LASF649:
 21607 513c 636F6D70 		.ascii	"compute_deadline_unsafe\000"
 21607      7574655F 
 21607      64656164 
 21607      6C696E65 
 21607      5F756E73 
 21608              	.LASF1108:
 21609 5154 5F5A4E33 		.ascii	"_ZN3r2p10Middleware6rebootEv\000"
 21609      72327031 
 21609      304D6964 
 21609      646C6577 
 21609      61726536 
 21610              	.LASF791:
 21611 5171 5F5A4E33 		.ascii	"_ZN3r2p7Thread_12get_priorityEv\000"
 21611      72327037 
 21611      54687265 
 21611      61645F31 
 21611      32676574 
 21612              	.LASF1270:
 21613 5191 5F5F7374 		.ascii	"__static_initialization_and_destruction_0\000"
 21613      61746963 
 21613      5F696E69 
 21613      7469616C 
 21613      697A6174 
 21614              	.LASF288:
 21615 51bb 75736172 		.ascii	"usart\000"
 21615      7400
 21616              	.LASF1020:
 21617 51c1 5F5A4E4B 		.ascii	"_ZNK3r2p10StaticListINS_9TransportEE8is_emptyEv\000"
 21617      33723270 
 21617      31305374 
 21617      61746963 
 21617      4C697374 
 21618              	.LASF1120:
 21619 51f1 5F5A4E33 		.ascii	"_ZN3r2p10Middleware9subscribeERNS_15LocalSubscriber"
 21619      72327031 
 21619      304D6964 
 21619      646C6577 
 21619      61726539 
 21620 5224 45504B63 		.ascii	"EPKcPNS_7MessageEjj\000"
 21620      504E535F 
 21620      374D6573 
 21620      73616765 
 21620      456A6A00 
 21621              	.LASF246:
 21622 5238 715F6C69 		.ascii	"q_link\000"
 21622      6E6B00
 21623              	.LASF808:
 21624 523f 5F5A4E33 		.ascii	"_ZN3r2p6Thread13create_staticEPvjmPFlS1_ES1_PKc\000"
 21624      72327036 
 21624      54687265 
 21624      61643133 
 21624      63726561 
 21625              	.LASF993:
 21626 526f 52654D75 		.ascii	"ReMutex\000"
ARM GAS  /tmp/ccytVDiP.s 			page 428


 21626      74657800 
 21627              	.LASF501:
 21628 5277 5F5A4E4B 		.ascii	"_ZNK3r2p10StaticListINS_15LocalSubscriberEE15contai"
 21628      33723270 
 21628      31305374 
 21628      61746963 
 21628      4C697374 
 21629 52aa 6E735F75 		.ascii	"ns_unsafeERKS1_\000"
 21629      6E736166 
 21629      6545524B 
 21629      53315F00 
 21630              	.LASF789:
 21631 52ba 6765745F 		.ascii	"get_priority\000"
 21631      7072696F 
 21631      72697479 
 21631      00
 21632              	.LASF452:
 21633 52c7 6F706572 		.ascii	"operator-=\000"
 21633      61746F72 
 21633      2D3D00
 21634              	.LASF471:
 21635 52d2 6F706572 		.ascii	"operator->\000"
 21635      61746F72 
 21635      2D3E00
 21636              	.LASF32:
 21637 52dd 5F426967 		.ascii	"_Bigint\000"
 21637      696E7400 
 21638              	.LASF959:
 21639 52e5 70616765 		.ascii	"page_of\000"
 21639      5F6F6600 
 21640              	.LASF740:
 21641 52ed 5F5A4E4B 		.ascii	"_ZNK3r2p10StaticListINS_14LocalPublisherEE5countEv\000"
 21641      33723270 
 21641      31305374 
 21641      61746963 
 21641      4C697374 
 21642              	.LASF1013:
 21643 5320 5F5A4E33 		.ascii	"_ZN3r2p10StaticListINS_9TransportEE12begin_unsafeEv"
 21643      72327031 
 21643      30537461 
 21643      7469634C 
 21643      69737449 
 21644 5353 00       		.ascii	"\000"
 21645              	.LASF724:
 21646 5354 5F5A4E4B 		.ascii	"_ZNK3r2p10StaticListINS_14LocalPublisherEE12count_u"
 21646      33723270 
 21646      31305374 
 21646      61746963 
 21646      4C697374 
 21647 5387 6E736166 		.ascii	"nsafeEv\000"
 21647      65457600 
 21648              	.LASF1177:
 21649 538f 6E6F7469 		.ascii	"notify_advertised\000"
 21649      66795F61 
 21649      64766572 
 21649      74697365 
 21649      6400
ARM GAS  /tmp/ccytVDiP.s 			page 429


 21650              	.LASF638:
 21651 53a1 5F5A4E4B 		.ascii	"_ZNK3r2p5Topic14has_publishersEv\000"
 21651      33723270 
 21651      35546F70 
 21651      69633134 
 21651      6861735F 
 21652              	.LASF193:
 21653 53c2 31325468 		.ascii	"12ThreadsQueue\000"
 21653      72656164 
 21653      73517565 
 21653      756500
 21654              	.LASF748:
 21655 53d1 5F5A4E33 		.ascii	"_ZN3r2p10StaticListINS_14LocalPublisherEE3endEv\000"
 21655      72327031 
 21655      30537461 
 21655      7469634C 
 21655      69737449 
 21656              	.LASF1075:
 21657 5401 626F6F74 		.ascii	"boot_topic\000"
 21657      5F746F70 
 21657      696300
 21658              	.LASF1233:
 21659 540c 5F5A4E33 		.ascii	"_ZN3r2p10StaticListINS_15LocalSubscriberEED2Ev\000"
 21659      72327031 
 21659      30537461 
 21659      7469634C 
 21659      69737449 
 21660              	.LASF1000:
 21661 543b 5F5A4E33 		.ascii	"_ZN3r2p7ReMutex7releaseEv\000"
 21661      72327037 
 21661      52654D75 
 21661      74657837 
 21661      72656C65 
 21662              	.LASF839:
 21663 5455 6E6F6465 		.ascii	"node\000"
 21663      00
 21664              	.LASF304:
 21665 545a 636F6E66 		.ascii	"configuration\000"
 21665      69677572 
 21665      6174696F 
 21665      6E00
 21666              	.LASF13:
 21667 5468 5F5F7569 		.ascii	"__uintptr_t\000"
 21667      6E747074 
 21667      725F7400 
 21668              	.LASF1168:
 21669 5474 53747269 		.ascii	"String64Msg\000"
 21669      6E673634 
 21669      4D736700 
 21670              	.LASF111:
 21671 5480 5F617465 		.ascii	"_atexit0\000"
 21671      78697430 
 21671      00
 21672              	.LASF477:
 21673 5489 5F5A4E33 		.ascii	"_ZN3r2p10StaticListINS_15LocalSubscriberEE13ConstIt"
 21673      72327031 
 21673      30537461 
ARM GAS  /tmp/ccytVDiP.s 			page 430


 21673      7469634C 
 21673      69737449 
 21674 54bc 65726174 		.ascii	"eratorppEi\000"
 21674      6F727070 
 21674      456900
 21675              	.LASF749:
 21676 54c7 5F5A4E33 		.ascii	"_ZN3r2p10StaticListINS_14LocalPublisherEE7restartER"
 21676      72327031 
 21676      30537461 
 21676      7469634C 
 21676      69737449 
 21677 54fa 4E53325F 		.ascii	"NS2_8IteratorE\000"
 21677      38497465 
 21677      7261746F 
 21677      724500
 21678              	.LASF819:
 21679 5509 43685468 		.ascii	"ChThread\000"
 21679      72656164 
 21679      00
 21680              	.LASF736:
 21681 5512 5F5A4E4B 		.ascii	"_ZNK3r2p10StaticListINS_14LocalPublisherEE10end_uns"
 21681      33723270 
 21681      31305374 
 21681      61746963 
 21681      4C697374 
 21682 5545 61666545 		.ascii	"afeEv\000"
 21682      7600
 21683              	.LASF1272:
 21684 554b 5F5A4E33 		.ascii	"_ZN3r2p10Middleware8instanceE\000"
 21684      72327031 
 21684      304D6964 
 21684      646C6577 
 21684      61726538 
 21685              	.LASF409:
 21686 5569 6765745F 		.ascii	"get_item_size\000"
 21686      6974656D 
 21686      5F73697A 
 21686      6500
 21687              	.LASF476:
 21688 5577 5F5A4E33 		.ascii	"_ZN3r2p10StaticListINS_15LocalSubscriberEE13ConstIt"
 21688      72327031 
 21688      30537461 
 21688      7469634C 
 21688      69737449 
 21689 55aa 65726174 		.ascii	"eratorppEv\000"
 21689      6F727070 
 21689      457600
 21690              	.LASF1240:
 21691 55b5 5F5A4E33 		.ascii	"_ZN3r2p9PublisherINS_7MgmtMsgEED0Ev\000"
 21691      72327039 
 21691      5075626C 
 21691      69736865 
 21691      72494E53 
 21692              	.LASF1162:
 21693 55d9 5F5A4E4B 		.ascii	"_ZNK3r2p16SubscriberExtBufINS_7MgmtMsgEE12get_callb"
 21693      33723270 
 21693      31365375 
ARM GAS  /tmp/ccytVDiP.s 			page 431


 21693      62736372 
 21693      69626572 
 21694 560c 61636B45 		.ascii	"ackEv\000"
 21694      7600
 21695              	.LASF564:
 21696 5612 5F5A4E4B 		.ascii	"_ZNK3r2p10StaticListINS_16RemoteSubscriberEE8is_emp"
 21696      33723270 
 21696      31305374 
 21696      61746963 
 21696      4C697374 
 21697 5645 74794576 		.ascii	"tyEv\000"
 21697      00
 21698              	.LASF788:
 21699 564a 73656C66 		.ascii	"self\000"
 21699      00
 21700              	.LASF84:
 21701 564f 5F676574 		.ascii	"_getdate_err\000"
 21701      64617465 
 21701      5F657272 
 21701      00
 21702              	.LASF680:
 21703 565c 5F5A4E33 		.ascii	"_ZN3r2p5Topic9subscribeERNS_15LocalSubscriberEj\000"
 21703      72327035 
 21703      546F7069 
 21703      63397375 
 21703      62736372 
 21704              	.LASF656:
 21705 568c 6E6F7469 		.ascii	"notify_locals_unsafe\000"
 21705      66795F6C 
 21705      6F63616C 
 21705      735F756E 
 21705      73616665 
 21706              	.LASF136:
 21707 56a1 66736565 		.ascii	"fseek\000"
 21707      6B00
 21708              	.LASF1145:
 21709 56a7 5F5A4E33 		.ascii	"_ZN3r2p10Middleware11is_rebootedEv\000"
 21709      72327031 
 21709      304D6964 
 21709      646C6577 
 21709      61726531 
 21710              	.LASF403:
 21711 56ca 5F5A4E33 		.ascii	"_ZN3r2p7SysLock7acquireEv\000"
 21711      72327037 
 21711      5379734C 
 21711      6F636B37 
 21711      61637175 
 21712              	.LASF180:
 21713 56e4 705F7374 		.ascii	"p_stklimit\000"
 21713      6B6C696D 
 21713      697400
 21714              	.LASF225:
 21715 56ef 685F6D74 		.ascii	"h_mtx\000"
 21715      7800
 21716              	.LASF989:
 21717 56f5 5F5A4E33 		.ascii	"_ZN3r2p5Mutex14release_unsafeEv\000"
 21717      72327035 
ARM GAS  /tmp/ccytVDiP.s 			page 432


 21717      4D757465 
 21717      78313472 
 21717      656C6561 
 21718              	.LASF1235:
 21719 5715 5F5A4E33 		.ascii	"_ZN3r2p5TopicD2Ev\000"
 21719      72327035 
 21719      546F7069 
 21719      63443245 
 21719      7600
 21720              	.LASF1006:
 21721 5727 5F5A4E33 		.ascii	"_ZN3r2p10StaticListINS_9TransportEE11link_unsafeERN"
 21721      72327031 
 21721      30537461 
 21721      7469634C 
 21721      69737449 
 21722 575a 53325F34 		.ascii	"S2_4LinkE\000"
 21722      4C696E6B 
 21722      4500
 21723              	.LASF317:
 21724 5764 5553425F 		.ascii	"USB_EP0_WAITING_TX0\000"
 21724      4550305F 
 21724      57414954 
 21724      494E475F 
 21724      54583000 
 21725              	.LASF797:
 21726 5778 5F5A4E33 		.ascii	"_ZN3r2p7Thread_5sleepERKNS_4TimeE\000"
 21726      72327037 
 21726      54687265 
 21726      61645F35 
 21726      736C6565 
 21727              	.LASF298:
 21728 579a 6570306E 		.ascii	"ep0next\000"
 21728      65787400 
 21729              	.LASF497:
 21730 57a2 5F5A4E33 		.ascii	"_ZN3r2p10StaticListINS_15LocalSubscriberEE13unlink_"
 21730      72327031 
 21730      30537461 
 21730      7469634C 
 21730      69737449 
 21731 57d5 756E7361 		.ascii	"unsafeERNS2_4LinkE\000"
 21731      66654552 
 21731      4E53325F 
 21731      344C696E 
 21731      6B4500
 21732              	.LASF549:
 21733 57e8 5F5A4E4B 		.ascii	"_ZNK3r2p10StaticListINS_16RemoteSubscriberEE12count"
 21733      33723270 
 21733      31305374 
 21733      61746963 
 21733      4C697374 
 21734 581b 5F756E73 		.ascii	"_unsafeEv\000"
 21734      61666545 
 21734      7600
 21735              	.LASF676:
 21736 5825 61647665 		.ascii	"advertise\000"
 21736      72746973 
 21736      6500
ARM GAS  /tmp/ccytVDiP.s 			page 433


 21737              	.LASF426:
 21738 582f 54696D65 		.ascii	"Time\000"
 21738      00
 21739              	.LASF675:
 21740 5834 5F5A4E33 		.ascii	"_ZN3r2p5Topic11extend_poolEPNS_7MessageEj\000"
 21740      72327035 
 21740      546F7069 
 21740      63313165 
 21740      7874656E 
 21741              	.LASF1234:
 21742 585e 5F5A4E33 		.ascii	"_ZN3r2p10StaticListINS_16RemoteSubscriberEED2Ev\000"
 21742      72327031 
 21742      30537461 
 21742      7469634C 
 21742      69737449 
 21743              	.LASF492:
 21744 588e 6C696E6B 		.ascii	"link_unsafe\000"
 21744      5F756E73 
 21744      61666500 
 21745              	.LASF276:
 21746 589a 41465248 		.ascii	"AFRH\000"
 21746      00
 21747              	.LASF917:
 21748 589f 7370696E 		.ascii	"spin\000"
 21748      00
 21749              	.LASF275:
 21750 58a4 4146524C 		.ascii	"AFRL\000"
 21750      00
 21751              	.LASF556:
 21752 58a9 5F5A4E4B 		.ascii	"_ZNK3r2p10StaticListINS_16RemoteSubscriberEE17find_"
 21752      33723270 
 21752      31305374 
 21752      61746963 
 21752      4C697374 
 21753 58dc 66697273 		.ascii	"first_unsafeEPFbRKS1_PKvES6_\000"
 21753      745F756E 
 21753      73616665 
 21753      45504662 
 21753      524B5331 
 21754              	.LASF307:
 21755 58f9 39736473 		.ascii	"9sdstate_t\000"
 21755      74617465 
 21755      5F7400
 21756              	.LASF681:
 21757 5904 5F5A4E33 		.ascii	"_ZN3r2p5Topic9subscribeERNS_16RemoteSubscriberEj\000"
 21757      72327035 
 21757      546F7069 
 21757      63397375 
 21757      62736372 
 21758              	.LASF65:
 21759 5935 5F626C6B 		.ascii	"_blksize\000"
 21759      73697A65 
 21759      00
 21760              	.LASF725:
 21761 593e 5F5A4E33 		.ascii	"_ZN3r2p10StaticListINS_14LocalPublisherEE11link_uns"
 21761      72327031 
 21761      30537461 
ARM GAS  /tmp/ccytVDiP.s 			page 434


 21761      7469634C 
 21761      69737449 
 21762 5971 61666545 		.ascii	"afeERNS2_4LinkE\000"
 21762      524E5332 
 21762      5F344C69 
 21762      6E6B4500 
 21763              	.LASF63:
 21764 5981 5F756275 		.ascii	"_ubuf\000"
 21764      6600
 21765              	.LASF292:
 21766 5987 636F6E66 		.ascii	"config\000"
 21766      696700
 21767              	.LASF961:
 21768 598e 616C6967 		.ascii	"align_prev\000"
 21768      6E5F7072 
 21768      657600
 21769              	.LASF79:
 21770 5999 5F6D626C 		.ascii	"_mblen_state\000"
 21770      656E5F73 
 21770      74617465 
 21770      00
 21771              	.LASF113:
 21772 59a6 5F5F7367 		.ascii	"__sglue\000"
 21772      6C756500 
 21773              	.LASF825:
 21774 59ae 5F5A4E33 		.ascii	"_ZN3r2p10SpinEvent_13signal_unsafeEj\000"
 21774      72327031 
 21774      30537069 
 21774      6E457665 
 21774      6E745F31 
 21775              	.LASF1128:
 21776 59d3 746F7563 		.ascii	"touch_topic\000"
 21776      685F746F 
 21776      70696300 
 21777              	.LASF562:
 21778 59df 5F5A4E4B 		.ascii	"_ZNK3r2p10StaticListINS_16RemoteSubscriberEE14resta"
 21778      33723270 
 21778      31305374 
 21778      61746963 
 21778      4C697374 
 21779 5a12 72745F75 		.ascii	"rt_unsafeERNS2_19ConstIteratorUnsafeE\000"
 21779      6E736166 
 21779      6545524E 
 21779      53325F31 
 21779      39436F6E 
 21780              	.LASF1071:
 21781 5a38 6D676D74 		.ascii	"mgmt_pub\000"
 21781      5F707562 
 21781      00
 21782              	.LASF137:
 21783 5a41 66736574 		.ascii	"fsetpos\000"
 21783      706F7300 
 21784              	.LASF103:
 21785 5a49 5F5F636C 		.ascii	"__cleanup\000"
 21785      65616E75 
 21785      7000
 21786              	.LASF976:
ARM GAS  /tmp/ccytVDiP.s 			page 435


 21787 5a53 5F5A4E33 		.ascii	"_ZN3r2p8Flasher_14get_ram_lengthEv\000"
 21787      72327038 
 21787      466C6173 
 21787      6865725F 
 21787      31346765 
 21788              	.LASF686:
 21789 5a76 4D657373 		.ascii	"Message\000"
 21789      61676500 
 21790              	.LASF1027:
 21791 5a7e 5F5A4E4B 		.ascii	"_ZNK3r2p10StaticListINS_9TransportEE10find_firstEPF"
 21791      33723270 
 21791      31305374 
 21791      61746963 
 21791      4C697374 
 21792 5ab1 62524B53 		.ascii	"bRKS1_PKvES6_\000"
 21792      315F504B 
 21792      76455336 
 21792      5F00
 21793              	.LASF171:
 21794 5abf 77746F62 		.ascii	"wtobjp\000"
 21794      6A7000
 21795              	.LASF18:
 21796 5ac6 5F66706F 		.ascii	"_fpos_t\000"
 21796      735F7400 
 21797              	.LASF628:
 21798 5ace 5F5A4E4B 		.ascii	"_ZNK3r2p5Topic16get_payload_sizeEv\000"
 21798      33723270 
 21798      35546F70 
 21798      69633136 
 21798      6765745F 
 21799              	.LASF56:
 21800 5af1 5F66696C 		.ascii	"_file\000"
 21800      6500
 21801              	.LASF979:
 21802 5af7 696E6974 		.ascii	"initialize\000"
 21802      69616C69 
 21802      7A6500
 21803              	.LASF190:
 21804 5b02 705F7265 		.ascii	"p_realprio\000"
 21804      616C7072 
 21804      696F00
 21805              	.LASF411:
 21806 5b0d 5F5A4E4B 		.ascii	"_ZNK3r2p11MemoryPool_13get_item_sizeEv\000"
 21806      33723270 
 21806      31314D65 
 21806      6D6F7279 
 21806      506F6F6C 
 21807              	.LASF814:
 21808 5b34 5F5A4E33 		.ascii	"_ZN3r2p6Thread5sleepERKNS_4TimeE\000"
 21808      72327036 
 21808      54687265 
 21808      61643573 
 21808      6C656570 
 21809              	.LASF389:
 21810 5b55 53657269 		.ascii	"SerialUSBConfig\000"
 21810      616C5553 
 21810      42436F6E 
ARM GAS  /tmp/ccytVDiP.s 			page 436


 21810      66696700 
 21811              	.LASF1245:
 21812 5b65 53445531 		.ascii	"SDU1\000"
 21812      00
 21813              	.LASF456:
 21814 5b6a 5F5A4E33 		.ascii	"_ZN3r2p4Time1sEl\000"
 21814      72327034 
 21814      54696D65 
 21814      3173456C 
 21814      00
 21815              	.LASF245:
 21816 5b7b 715F6E6F 		.ascii	"q_notify\000"
 21816      74696679 
 21816      00
 21817              	.LASF264:
 21818 5b84 72656164 		.ascii	"readt\000"
 21818      7400
 21819              	.LASF399:
 21820 5b8a 72656C65 		.ascii	"release\000"
 21820      61736500 
 21821              	.LASF54:
 21822 5b92 5F5F7346 		.ascii	"__sFILE\000"
 21822      494C4500 
 21823              	.LASF1107:
 21824 5b9a 7265626F 		.ascii	"reboot\000"
 21824      6F7400
 21825              	.LASF1045:
 21826 5ba1 5F5A4E33 		.ascii	"_ZN3r2p14BaseSubscriber6notifyERNS_7MessageERKNS_4T"
 21826      72327031 
 21826      34426173 
 21826      65537562 
 21826      73637269 
 21827 5bd4 696D6545 		.ascii	"imeE\000"
 21827      00
 21828              	.LASF942:
 21829 5bd9 65726173 		.ascii	"erase\000"
 21829      6500
 21830              	.LASF1197:
 21831 5bdf 646F7562 		.ascii	"double\000"
 21831      6C6500
 21832              	.LASF50:
 21833 5be6 5F666E73 		.ascii	"_fns\000"
 21833      00
 21834              	.LASF1205:
 21835 5beb 73746163 		.ascii	"stacklen\000"
 21835      6B6C656E 
 21835      00
 21836              	.LASF359:
 21837 5bf4 5553424F 		.ascii	"USBOutEndpointState\000"
 21837      7574456E 
 21837      64706F69 
 21837      6E745374 
 21837      61746500 
 21838              	.LASF571:
 21839 5c08 5F5A4E4B 		.ascii	"_ZNK3r2p10StaticListINS_16RemoteSubscriberEE10find_"
 21839      33723270 
 21839      31305374 
ARM GAS  /tmp/ccytVDiP.s 			page 437


 21839      61746963 
 21839      4C697374 
 21840 5c3b 66697273 		.ascii	"firstEPFbRKS1_PKvES6_\000"
 21840      74455046 
 21840      62524B53 
 21840      315F504B 
 21840      76455336 
 21841              	.LASF404:
 21842 5c51 5F5A4E33 		.ascii	"_ZN3r2p7SysLock7releaseEv\000"
 21842      72327037 
 21842      5379734C 
 21842      6F636B37 
 21842      72656C65 
 21843              	.LASF224:
 21844 5c6b 685F6672 		.ascii	"h_free\000"
 21844      656500
 21845              	.LASF1158:
 21846 5c72 53756273 		.ascii	"SubscriberExtBuf<r2p::MgmtMsg>\000"
 21846      63726962 
 21846      65724578 
 21846      74427566 
 21846      3C723270 
 21847              	.LASF25:
 21848 5c91 5F6D6273 		.ascii	"_mbstate_t\000"
 21848      74617465 
 21848      5F7400
 21849              	.LASF90:
 21850 5c9c 5F685F65 		.ascii	"_h_errno\000"
 21850      72726E6F 
 21850      00
 21851              	.LASF890:
 21852 5ca5 5F5A4E33 		.ascii	"_ZN3r2p10StaticListINS_4NodeEE5beginEv\000"
 21852      72327031 
 21852      30537461 
 21852      7469634C 
 21852      69737449 
 21853              	.LASF723:
 21854 5ccc 5F5A4E4B 		.ascii	"_ZNK3r2p10StaticListINS_14LocalPublisherEE15is_empt"
 21854      33723270 
 21854      31305374 
 21854      61746963 
 21854      4C697374 
 21855 5cff 795F756E 		.ascii	"y_unsafeEv\000"
 21855      73616665 
 21855      457600
 21856              	.LASF764:
 21857 5d0a 6765745F 		.ascii	"get_count\000"
 21857      636F756E 
 21857      7400
 21858              	.LASF645:
 21859 5d14 69735F61 		.ascii	"is_awaiting_advertisements\000"
 21859      77616974 
 21859      696E675F 
 21859      61647665 
 21859      72746973 
 21860              	.LASF830:
 21861 5d2f 5370696E 		.ascii	"SpinEvent\000"
ARM GAS  /tmp/ccytVDiP.s 			page 438


 21861      4576656E 
 21861      7400
 21862              	.LASF921:
 21863 5d39 7E4E6F64 		.ascii	"~Node\000"
 21863      6500
 21864              	.LASF1254:
 21865 5d3f 64626774 		.ascii	"dbgtra\000"
 21865      726100
 21866              	.LASF852:
 21867 5d46 7061796C 		.ascii	"payload\000"
 21867      6F616400 
 21868              	.LASF738:
 21869 5d4e 5F5A4E4B 		.ascii	"_ZNK3r2p10StaticListINS_14LocalPublisherEE8get_head"
 21869      33723270 
 21869      31305374 
 21869      61746963 
 21869      4C697374 
 21870 5d81 457600   		.ascii	"Ev\000"
 21871              	.LASF683:
 21872 5d84 6861735F 		.ascii	"has_name\000"
 21872      6E616D65 
 21872      00
 21873              	.LASF998:
 21874 5d8d 5F5A4E33 		.ascii	"_ZN3r2p7ReMutex14release_unsafeEv\000"
 21874      72327037 
 21874      52654D75 
 21874      74657831 
 21874      3472656C 
 21875              	.LASF272:
 21876 5daf 50555044 		.ascii	"PUPDR\000"
 21876      5200
 21877              	.LASF6:
 21878 5db5 5F5F696E 		.ascii	"__int32_t\000"
 21878      7433325F 
 21878      7400
 21879              	.LASF691:
 21880 5dbf 61637175 		.ascii	"acquire_unsafe\000"
 21880      6972655F 
 21880      756E7361 
 21880      666500
 21881              	.LASF648:
 21882 5dce 5F5A4E4B 		.ascii	"_ZNK3r2p5Topic25is_awaiting_subscriptionsEv\000"
 21882      33723270 
 21882      35546F70 
 21882      69633235 
 21882      69735F61 
 21883              	.LASF8:
 21884 5dfa 5F5F7569 		.ascii	"__uint32_t\000"
 21884      6E743332 
 21884      5F7400
 21885              	.LASF715:
 21886 5e05 5F5A4E4B 		.ascii	"_ZNK3r2p10StaticListINS_14LocalPublisherEE13ConstIt"
 21886      33723270 
 21886      31305374 
 21886      61746963 
 21886      4C697374 
 21887 5e38 65726174 		.ascii	"eratorptEv\000"
ARM GAS  /tmp/ccytVDiP.s 			page 439


 21887      6F727074 
 21887      457600
 21888              	.LASF583:
 21889 5e43 5F5A4E33 		.ascii	"_ZN3r2p10StaticListINS_5TopicEE11link_unsafeERNS2_4"
 21889      72327031 
 21889      30537461 
 21889      7469634C 
 21889      69737449 
 21890 5e76 4C696E6B 		.ascii	"LinkE\000"
 21890      4500
 21891              	.LASF1169:
 21892 5e7c 64617461 		.ascii	"data\000"
 21892      00
 21893              	.LASF1007:
 21894 5e81 5F5A4E33 		.ascii	"_ZN3r2p10StaticListINS_9TransportEE16link_tail_unsa"
 21894      72327031 
 21894      30537461 
 21894      7469634C 
 21894      69737449 
 21895 5eb4 66654552 		.ascii	"feERNS2_4LinkE\000"
 21895      4E53325F 
 21895      344C696E 
 21895      6B4500
 21896              	.LASF1179:
 21897 5ec3 5F5A4E33 		.ascii	"_ZN3r2p13BasePublisher12alloc_unsafeERPNS_7MessageE"
 21897      72327031 
 21897      33426173 
 21897      65507562 
 21897      6C697368 
 21898 5ef6 00       		.ascii	"\000"
 21899              	.LASF23:
 21900 5ef7 5F5F7661 		.ascii	"__value\000"
 21900      6C756500 
 21901              	.LASF182:
 21902 5eff 705F666C 		.ascii	"p_flags\000"
 21902      61677300 
 21903              	.LASF1231:
 21904 5f07 5F5A4E33 		.ascii	"_ZN3r2p7ReMutexD2Ev\000"
 21904      72327037 
 21904      52654D75 
 21904      74657844 
 21904      32457600 
 21905              	.LASF500:
 21906 5f1b 636F6E74 		.ascii	"contains_unsafe\000"
 21906      61696E73 
 21906      5F756E73 
 21906      61666500 
 21907              	.LASF47:
 21908 5f2b 5F69735F 		.ascii	"_is_cxa\000"
 21908      63786100 
 21909              	.LASF1082:
 21910 5f33 69746572 		.ascii	"iter_subscribers\000"
 21910      5F737562 
 21910      73637269 
 21910      62657273 
 21910      00
 21911              	.LASF1076:
ARM GAS  /tmp/ccytVDiP.s 			page 440


 21912 5f44 626F6F74 		.ascii	"boot_stackp\000"
 21912      5F737461 
 21912      636B7000 
 21913              	.LASF1224:
 21914 5f50 6974656D 		.ascii	"item\000"
 21914      00
 21915              	.LASF346:
 21916 5f55 71756575 		.ascii	"queue\000"
 21916      6500
 21917              	.LASF1118:
 21918 5f5b 5F5A4E33 		.ascii	"_ZN3r2p10Middleware9advertiseERNS_14LocalPublisherE"
 21918      72327031 
 21918      304D6964 
 21918      646C6577 
 21918      61726539 
 21919 5f8e 504B6352 		.ascii	"PKcRKNS_4TimeEj\000"
 21919      4B4E535F 
 21919      3454696D 
 21919      65456A00 
 21920              	.LASF594:
 21921 5f9e 5F5A4E4B 		.ascii	"_ZNK3r2p10StaticListINS_5TopicEE10end_unsafeEv\000"
 21921      33723270 
 21921      31305374 
 21921      61746963 
 21921      4C697374 
 21922              	.LASF227:
 21923 5fcd 68656170 		.ascii	"heap\000"
 21923      00
 21924              	.LASF701:
 21925 5fd2 5F5A4E4B 		.ascii	"_ZNK3r2p5Topic16patch_pubsub_msgERNS_7MessageERNS_9"
 21925      33723270 
 21925      35546F70 
 21925      69633136 
 21925      70617463 
 21926 6005 5472616E 		.ascii	"TransportE\000"
 21926      73706F72 
 21926      744500
 21927              	.LASF1101:
 21928 6010 5F5A4E4B 		.ascii	"_ZNK3r2p10Middleware10is_stoppedEv\000"
 21928      33723270 
 21928      31304D69 
 21928      64646C65 
 21928      77617265 
 21929              	.LASF106:
 21930 6033 5F703573 		.ascii	"_p5s\000"
 21930      00
 21931              	.LASF765:
 21932 6038 5F5A4E4B 		.ascii	"_ZNK3r2p10ArrayQueueIPNS_7MessageEE9get_countEv\000"
 21932      33723270 
 21932      31304172 
 21932      72617951 
 21932      75657565 
 21933              	.LASF188:
 21934 6068 705F6570 		.ascii	"p_epending\000"
 21934      656E6469 
 21934      6E6700
 21935              	.LASF771:
ARM GAS  /tmp/ccytVDiP.s 			page 441


 21936 6073 5F5A4E33 		.ascii	"_ZN3r2p10ArrayQueueIPNS_7MessageEE4skipEv\000"
 21936      72327031 
 21936      30417272 
 21936      61795175 
 21936      65756549 
 21937              	.LASF766:
 21938 609d 706F7374 		.ascii	"post\000"
 21938      00
 21939              	.LASF1236:
 21940 60a2 5F5A4E33 		.ascii	"_ZN3r2p10MiddlewareD2Ev\000"
 21940      72327031 
 21940      304D6964 
 21940      646C6577 
 21940      61726544 
 21941              	.LASF269:
 21942 60ba 4D4F4445 		.ascii	"MODER\000"
 21942      5200
 21943              	.LASF793:
 21944 60c0 5F5A4E33 		.ascii	"_ZN3r2p7Thread_12set_priorityEm\000"
 21944      72327037 
 21944      54687265 
 21944      61645F31 
 21944      32736574 
 21945              	.LASF1211:
 21946 60e0 5F5A4E33 		.ascii	"_ZN3r2p10UncopyableD2Ev\000"
 21946      72327031 
 21946      30556E63 
 21946      6F707961 
 21946      626C6544 
 21947              	.LASF1119:
 21948 60f8 5F5A4E33 		.ascii	"_ZN3r2p10Middleware9advertiseERNS_15RemotePublisher"
 21948      72327031 
 21948      304D6964 
 21948      646C6577 
 21948      61726539 
 21949 612b 45504B63 		.ascii	"EPKcRKNS_4TimeEj\000"
 21949      524B4E53 
 21949      5F345469 
 21949      6D65456A 
 21949      00
 21950              	.LASF147:
 21951 613c 73657476 		.ascii	"setvbuf\000"
 21951      62756600 
 21952              	.LASF1143:
 21953 6144 5F5A4E33 		.ascii	"_ZN3r2p10Middleware14do_boot_threadEv\000"
 21953      72327031 
 21953      304D6964 
 21953      646C6577 
 21953      61726531 
 21954              	.LASF250:
 21955 616a 52455345 		.ascii	"RESERVED1\000"
 21955      52564544 
 21955      3100
 21956              	.LASF252:
 21957 6174 52455345 		.ascii	"RESERVED2\000"
 21957      52564544 
 21957      3200
ARM GAS  /tmp/ccytVDiP.s 			page 442


 21958              	.LASF254:
 21959 617e 52455345 		.ascii	"RESERVED3\000"
 21959      52564544 
 21959      3300
 21960              	.LASF255:
 21961 6188 52455345 		.ascii	"RESERVED4\000"
 21961      52564544 
 21961      3400
 21962              	.LASF256:
 21963 6192 52455345 		.ascii	"RESERVED5\000"
 21963      52564544 
 21963      3500
 21964              	.LASF663:
 21965 619c 5F5A4E4B 		.ascii	"_ZNK3r2p5Topic16compute_deadlineERKNS_4TimeE\000"
 21965      33723270 
 21965      35546F70 
 21965      69633136 
 21965      636F6D70 
 21966              	.LASF371:
 21967 61c9 55534245 		.ascii	"USBEndpointConfig\000"
 21967      6E64706F 
 21967      696E7443 
 21967      6F6E6669 
 21967      6700
 21968              	.LASF352:
 21969 61db 31395553 		.ascii	"19USBOutEndpointState\000"
 21969      424F7574 
 21969      456E6470 
 21969      6F696E74 
 21969      53746174 
 21970              	.LASF491:
 21971 61f1 5F5A4E4B 		.ascii	"_ZNK3r2p10StaticListINS_15LocalSubscriberEE12count_"
 21971      33723270 
 21971      31305374 
 21971      61746963 
 21971      4C697374 
 21972 6224 756E7361 		.ascii	"unsafeEv\000"
 21972      66654576 
 21972      00
 21973              	.LASF354:
 21974 622d 72787175 		.ascii	"rxqueue\000"
 21974      65756500 
 21975              	.LASF923:
 21976 6235 61647665 		.ascii	"advertise<r2p::String64Msg>\000"
 21976      72746973 
 21976      653C7232 
 21976      703A3A53 
 21976      7472696E 
 21977              	.LASF718:
 21978 6251 5F5A4E33 		.ascii	"_ZN3r2p10StaticListINS_14LocalPublisherEE13ConstIte"
 21978      72327031 
 21978      30537461 
 21978      7469634C 
 21978      69737449 
 21979 6284 7261746F 		.ascii	"ratorppEi\000"
 21979      72707045 
 21979      6900
ARM GAS  /tmp/ccytVDiP.s 			page 443


 21980              	.LASF1178:
 21981 628e 5F5A4E33 		.ascii	"_ZN3r2p13BasePublisher17notify_advertisedERNS_5Topi"
 21981      72327031 
 21981      33426173 
 21981      65507562 
 21981      6C697368 
 21982 62c1 634500   		.ascii	"cE\000"
 21983              	.LASF987:
 21984 62c4 5F5A4E33 		.ascii	"_ZN3r2p5Mutex10initializeEv\000"
 21984      72327035 
 21984      4D757465 
 21984      78313069 
 21984      6E697469 
 21985              	.LASF215:
 21986 62e0 656C5F6C 		.ascii	"el_listener\000"
 21986      69737465 
 21986      6E657200 
 21987              	.LASF345:
 21988 62ec 6C696E65 		.ascii	"linear\000"
 21988      617200
 21989              	.LASF717:
 21990 62f3 5F5A4E33 		.ascii	"_ZN3r2p10StaticListINS_14LocalPublisherEE13ConstIte"
 21990      72327031 
 21990      30537461 
 21990      7469634C 
 21990      69737449 
 21991 6326 7261746F 		.ascii	"ratorppEv\000"
 21991      72707045 
 21991      7600
 21992              	.LASF1116:
 21993 6330 5F5A4E33 		.ascii	"_ZN3r2p10Middleware3addERNS_9TransportE\000"
 21993      72327031 
 21993      304D6964 
 21993      646C6577 
 21993      61726533 
 21994              	.LASF757:
 21995 6358 706F7374 		.ascii	"post_unsafe\000"
 21995      5F756E73 
 21995      61666500 
 21996              	.LASF546:
 21997 6364 53746174 		.ascii	"StaticList<r2p::RemoteSubscriber>\000"
 21997      69634C69 
 21997      73743C72 
 21997      32703A3A 
 21997      52656D6F 
 21998              	.LASF425:
 21999 6386 7E4D656D 		.ascii	"~MemoryPool_\000"
 21999      6F727950 
 21999      6F6F6C5F 
 21999      00
 22000              	.LASF578:
 22001 6393 52656D6F 		.ascii	"RemoteSubscriber\000"
 22001      74655375 
 22001      62736372 
 22001      69626572 
 22001      00
 22002              	.LASF863:
ARM GAS  /tmp/ccytVDiP.s 			page 444


 22003 63a4 5F5A4E4B 		.ascii	"_ZNK3r2p10StaticListINS_4NodeEE13ConstIteratorneERK"
 22003      33723270 
 22003      31305374 
 22003      61746963 
 22003      4C697374 
 22004 63d7 53335F00 		.ascii	"S3_\000"
 22005              	.LASF493:
 22006 63db 6C696E6B 		.ascii	"link_tail_unsafe\000"
 22006      5F746169 
 22006      6C5F756E 
 22006      73616665 
 22006      00
 22007              	.LASF779:
 22008 63ec 5F5A4E33 		.ascii	"_ZN3r2p7Thread_8get_implEv\000"
 22008      72327037 
 22008      54687265 
 22008      61645F38 
 22008      6765745F 
 22009              	.LASF1029:
 22010 6407 5F5A4E33 		.ascii	"_ZN3r2p10StaticListINS_9TransportEE3endEv\000"
 22010      72327031 
 22010      30537461 
 22010      7469634C 
 22010      69737449 
 22011              	.LASF586:
 22012 6431 5F5A4E4B 		.ascii	"_ZNK3r2p10StaticListINS_5TopicEE15index_of_unsafeER"
 22012      33723270 
 22012      31305374 
 22012      61746963 
 22012      4C697374 
 22013 6464 4B53315F 		.ascii	"KS1_\000"
 22013      00
 22014              	.LASF960:
 22015 6469 5F5A4E33 		.ascii	"_ZN3r2p8Flasher_7page_ofEPKh\000"
 22015      72327038 
 22015      466C6173 
 22015      6865725F 
 22015      37706167 
 22016              	.LASF203:
 22017 6486 725F7072 		.ascii	"r_prio\000"
 22017      696F00
 22018              	.LASF1163:
 22019 648d 5F5A4E33 		.ascii	"_ZN3r2p16SubscriberExtBufINS_7MgmtMsgEE5fetchERPS1_"
 22019      72327031 
 22019      36537562 
 22019      73637269 
 22019      62657245 
 22020 64c0 00       		.ascii	"\000"
 22021              	.LASF305:
 22022 64c1 706D6E65 		.ascii	"pmnext\000"
 22022      787400
 22023              	.LASF745:
 22024 64c8 5F5A4E4B 		.ascii	"_ZNK3r2p10StaticListINS_14LocalPublisherEE10find_fi"
 22024      33723270 
 22024      31305374 
 22024      61746963 
 22024      4C697374 
ARM GAS  /tmp/ccytVDiP.s 			page 445


 22025 64fb 72737445 		.ascii	"rstEPFbRKS1_E\000"
 22025      50466252 
 22025      4B53315F 
 22025      4500
 22026              	.LASF467:
 22027 6509 49746572 		.ascii	"Iterator\000"
 22027      61746F72 
 22027      00
 22028              	.LASF963:
 22029 6512 616C6967 		.ascii	"align_next\000"
 22029      6E5F6E65 
 22029      787400
 22030              	.LASF1244:
 22031 651d 49544D5F 		.ascii	"ITM_RxBuffer\000"
 22031      52784275 
 22031      66666572 
 22031      00
 22032              	.LASF232:
 22033 652a 31304D65 		.ascii	"10MemoryPool\000"
 22033      6D6F7279 
 22033      506F6F6C 
 22033      00
 22034              	.LASF12:
 22035 6537 6C6F6E67 		.ascii	"long long unsigned int\000"
 22035      206C6F6E 
 22035      6720756E 
 22035      7369676E 
 22035      65642069 
 22036              	.LASF862:
 22037 654e 5F5A4E4B 		.ascii	"_ZNK3r2p10StaticListINS_4NodeEE13ConstIteratoreqERK"
 22037      33723270 
 22037      31305374 
 22037      61746963 
 22037      4C697374 
 22038 6581 53335F00 		.ascii	"S3_\000"
 22039              	.LASF610:
 22040 6585 5F5A4E4B 		.ascii	"_ZNK3r2p10StaticListINS_5TopicEE7restartERNS2_13Con"
 22040      33723270 
 22040      31305374 
 22040      61746963 
 22040      4C697374 
 22041 65b8 73744974 		.ascii	"stIteratorE\000"
 22041      65726174 
 22041      6F724500 
 22042              	.LASF579:
 22043 65c4 53746174 		.ascii	"StaticList<r2p::Topic>\000"
 22043      69634C69 
 22043      73743C72 
 22043      32703A3A 
 22043      546F7069 
 22044              	.LASF1266:
 22045 65db 5F5A4E33 		.ascii	"_ZN3r2p8Flasher_7jump_toEPKh\000"
 22045      72327038 
 22045      466C6173 
 22045      6865725F 
 22045      376A756D 
 22046              	.LASF1068:
ARM GAS  /tmp/ccytVDiP.s 			page 446


 22047 65f8 6D676D74 		.ascii	"mgmt_threadp\000"
 22047      5F746872 
 22047      65616470 
 22047      00
 22048              	.LASF1036:
 22049 6605 746F7069 		.ascii	"topicp\000"
 22049      637000
 22050              	.LASF685:
 22051 660c 7E546F70 		.ascii	"~Topic\000"
 22051      696300
 22052              	.LASF1062:
 22053 6613 746F7069 		.ascii	"topics\000"
 22053      637300
 22054              	.LASF841:
 22055 661a 50756253 		.ascii	"PubSub\000"
 22055      756200
 22056              	.LASF369:
 22057 6621 65705F62 		.ascii	"ep_buffers\000"
 22057      75666665 
 22057      727300
 22058              	.LASF219:
 22059 662c 65735F6E 		.ascii	"es_next\000"
 22059      65787400 
 22060              	.LASF76:
 22061 6634 5F67616D 		.ascii	"_gamma_signgam\000"
 22061      6D615F73 
 22061      69676E67 
 22061      616D00
 22062              	.LASF975:
 22063 6643 6765745F 		.ascii	"get_ram_length\000"
 22063      72616D5F 
 22063      6C656E67 
 22063      746800
 22064              	.LASF421:
 22065 6652 65787465 		.ascii	"extend\000"
 22065      6E6400
 22066              	.LASF402:
 22067 6659 5379734C 		.ascii	"SysLock\000"
 22067      6F636B00 
 22068              	.LASF772:
 22069 6661 41727261 		.ascii	"ArrayQueue\000"
 22069      79517565 
 22069      756500
 22070              	.LASF1195:
 22071 666c 54657374 		.ascii	"Test\000"
 22071      00
 22072              	.LASF565:
 22073 6671 5F5A4E4B 		.ascii	"_ZNK3r2p10StaticListINS_16RemoteSubscriberEE5countE"
 22073      33723270 
 22073      31305374 
 22073      61746963 
 22073      4C697374 
 22074 66a4 7600     		.ascii	"v\000"
 22075              	.LASF568:
 22076 66a6 5F5A4E4B 		.ascii	"_ZNK3r2p10StaticListINS_16RemoteSubscriberEE8index_"
 22076      33723270 
 22076      31305374 
ARM GAS  /tmp/ccytVDiP.s 			page 447


 22076      61746963 
 22076      4C697374 
 22077 66d9 6F664552 		.ascii	"ofERKS1_\000"
 22077      4B53315F 
 22077      00
 22078              	.LASF892:
 22079 66e2 5F5A4E33 		.ascii	"_ZN3r2p10StaticListINS_4NodeEE7restartERNS2_8Iterat"
 22079      72327031 
 22079      30537461 
 22079      7469634C 
 22079      69737449 
 22080 6715 6F724500 		.ascii	"orE\000"
 22081              	.LASF838:
 22082 6719 6D6F6475 		.ascii	"module\000"
 22082      6C6500
 22083              	.LASF557:
 22084 6720 5F5A4E33 		.ascii	"_ZN3r2p10StaticListINS_16RemoteSubscriberEE12begin_"
 22084      72327031 
 22084      30537461 
 22084      7469634C 
 22084      69737449 
 22085 6753 756E7361 		.ascii	"unsafeEv\000"
 22085      66654576 
 22085      00
 22086              	.LASF100:
 22087 675c 5F637572 		.ascii	"_current_category\000"
 22087      72656E74 
 22087      5F636174 
 22087      65676F72 
 22087      7900
 22088              	.LASF587:
 22089 676e 5F5A4E4B 		.ascii	"_ZNK3r2p10StaticListINS_5TopicEE15contains_unsafeER"
 22089      33723270 
 22089      31305374 
 22089      61746963 
 22089      4C697374 
 22090 67a1 4B53315F 		.ascii	"KS1_\000"
 22090      00
 22091              	.LASF796:
 22092 67a6 736C6565 		.ascii	"sleep\000"
 22092      7000
 22093              	.LASF1095:
 22094 67ac 5F5A4E4B 		.ascii	"_ZNK3r2p10Middleware14get_transportsEv\000"
 22094      33723270 
 22094      31304D69 
 22094      64646C65 
 22094      77617265 
 22095              	.LASF172:
 22096 67d3 65776D61 		.ascii	"ewmask\000"
 22096      736B00
 22097              	.LASF472:
 22098 67da 5F5A4E4B 		.ascii	"_ZNK3r2p10StaticListINS_15LocalSubscriberEE13ConstI"
 22098      33723270 
 22098      31305374 
 22098      61746963 
 22098      4C697374 
 22099 680d 74657261 		.ascii	"teratorptEv\000"
ARM GAS  /tmp/ccytVDiP.s 			page 448


 22099      746F7270 
 22099      74457600 
 22100              	.LASF769:
 22101 6819 5F5A4E33 		.ascii	"_ZN3r2p10ArrayQueueIPNS_7MessageEE5fetchERS2_\000"
 22101      72327031 
 22101      30417272 
 22101      61795175 
 22101      65756549 
 22102              	.LASF133:
 22103 6847 666F7065 		.ascii	"fopen\000"
 22103      6E00
 22104              	.LASF1123:
 22105 684d 5F5A4E33 		.ascii	"_ZN3r2p10Middleware12confirm_stopERKNS_4NodeE\000"
 22105      72327031 
 22105      304D6964 
 22105      646C6577 
 22105      61726531 
 22106              	.LASF217:
 22107 687b 656C5F66 		.ascii	"el_flags\000"
 22107      6C616773 
 22107      00
 22108              	.LASF378:
 22109 6884 31307364 		.ascii	"10sdustate_t\000"
 22109      75737461 
 22109      74655F74 
 22109      00
 22110              	.LASF1014:
 22111 6891 5F5A4E33 		.ascii	"_ZN3r2p10StaticListINS_9TransportEE10end_unsafeEv\000"
 22111      72327031 
 22111      30537461 
 22111      7469634C 
 22111      69737449 
 22112              	.LASF798:
 22113 68c3 6A6F696E 		.ascii	"join\000"
 22113      00
 22114              	.LASF1156:
 22115 68c8 7E507562 		.ascii	"~Publisher\000"
 22115      6C697368 
 22115      657200
 22116              	.LASF620:
 22117 68d3 62795F6D 		.ascii	"by_middleware\000"
 22117      6964646C 
 22117      65776172 
 22117      6500
 22118              	.LASF189:
 22119 68e1 705F6D74 		.ascii	"p_mtxlist\000"
 22119      786C6973 
 22119      7400
 22120              	.LASF439:
 22121 68eb 5F5A4E4B 		.ascii	"_ZNK3r2p4Time8to_m_rawEv\000"
 22121      33723270 
 22121      3454696D 
 22121      6538746F 
 22121      5F6D5F72 
 22122              	.LASF857:
 22123 6904 5F5A4E33 		.ascii	"_ZN3r2p10StaticListINS_4NodeEE13ConstIteratoraSERKS"
 22123      72327031 
ARM GAS  /tmp/ccytVDiP.s 			page 449


 22123      30537461 
 22123      7469634C 
 22123      69737449 
 22124 6937 335F00   		.ascii	"3_\000"
 22125              	.LASF888:
 22126 693a 5F5A4E4B 		.ascii	"_ZNK3r2p10StaticListINS_4NodeEE10find_firstEPFbRKS1"
 22126      33723270 
 22126      31305374 
 22126      61746963 
 22126      4C697374 
 22127 696d 5F4500   		.ascii	"_E\000"
 22128              	.LASF161:
 22129 6970 74737461 		.ascii	"tstate_t\000"
 22129      74655F74 
 22129      00
 22130              	.LASF1002:
 22131 6979 53746174 		.ascii	"StaticList<r2p::Transport>\000"
 22131      69634C69 
 22131      73743C72 
 22131      32703A3A 
 22131      5472616E 
 22132              	.LASF451:
 22133 6994 5F5A4E33 		.ascii	"_ZN3r2p4TimepLERKS0_\000"
 22133      72327034 
 22133      54696D65 
 22133      704C4552 
 22133      4B53305F 
 22134              	.LASF983:
 22135 69a9 5F5A4E33 		.ascii	"_ZN3r2p6Mutex_7acquireEv\000"
 22135      72327036 
 22135      4D757465 
 22135      785F3761 
 22135      63717569 
 22136              	.LASF630:
 22137 69c2 5F5A4E4B 		.ascii	"_ZNK3r2p5Topic20get_max_queue_lengthEv\000"
 22137      33723270 
 22137      35546F70 
 22137      69633230 
 22137      6765745F 
 22138              	.LASF293:
 22139 69e9 7472616E 		.ascii	"transmitting\000"
 22139      736D6974 
 22139      74696E67 
 22139      00
 22140              	.LASF844:
 22141 69f6 7261775F 		.ascii	"raw_params\000"
 22141      70617261 
 22141      6D7300
 22142              	.LASF885:
 22143 6a01 5F5A4E33 		.ascii	"_ZN3r2p10StaticListINS_4NodeEE6unlinkERNS2_4LinkE\000"
 22143      72327031 
 22143      30537461 
 22143      7469634C 
 22143      69737449 
 22144              	.LASF924:
 22145 6a33 5F5A4E33 		.ascii	"_ZN3r2p4Node9advertiseINS_11String64MsgEEEbRNS_9Pub"
 22145      72327034 
ARM GAS  /tmp/ccytVDiP.s 			page 450


 22145      4E6F6465 
 22145      39616476 
 22145      65727469 
 22146 6a66 6C697368 		.ascii	"lisherIT_EEPKcRKNS_4TimeE\000"
 22146      65724954 
 22146      5F454550 
 22146      4B63524B 
 22146      4E535F34 
 22147              	.LASF1017:
 22148 6a80 5F5A4E4B 		.ascii	"_ZNK3r2p10StaticListINS_9TransportEE10end_unsafeEv\000"
 22148      33723270 
 22148      31305374 
 22148      61746963 
 22148      4C697374 
 22149              	.LASF179:
 22150 6ab3 705F6E61 		.ascii	"p_name\000"
 22150      6D6500
 22151              	.LASF102:
 22152 6aba 5F5F7364 		.ascii	"__sdidinit\000"
 22152      6964696E 
 22152      697400
 22153              	.LASF385:
 22154 6ac5 75736270 		.ascii	"usbp\000"
 22154      00
 22155              	.LASF1117:
 22156 6aca 5F5A4E33 		.ascii	"_ZN3r2p10Middleware3addERNS_5TopicE\000"
 22156      72327031 
 22156      304D6964 
 22156      646C6577 
 22156      61726533 
 22157              	.LASF944:
 22158 6aee 69735F61 		.ascii	"is_aligned\000"
 22158      6C69676E 
 22158      656400
 22159              	.LASF314:
 22160 6af9 75736273 		.ascii	"usbstate_t\000"
 22160      74617465 
 22160      5F7400
 22161              	.LASF877:
 22162 6b04 5F5A4E33 		.ascii	"_ZN3r2p10StaticListINS_4NodeEE14restart_unsafeERNS2"
 22162      72327031 
 22162      30537461 
 22162      7469634C 
 22162      69737449 
 22163 6b37 5F313449 		.ascii	"_14IteratorUnsafeE\000"
 22163      74657261 
 22163      746F7255 
 22163      6E736166 
 22163      654500
 22164              	.LASF435:
 22165 6b4a 5F5A4E4B 		.ascii	"_ZNK3r2p4Time9to_ms_rawEv\000"
 22165      33723270 
 22165      3454696D 
 22165      6539746F 
 22165      5F6D735F 
 22166              	.LASF624:
 22167 6b64 5F5A4E4B 		.ascii	"_ZNK3r2p5Topic19get_publish_timeoutEv\000"
ARM GAS  /tmp/ccytVDiP.s 			page 451


 22167      33723270 
 22167      35546F70 
 22167      69633139 
 22167      6765745F 
 22168              	.LASF437:
 22169 6b8a 5F5A4E4B 		.ascii	"_ZNK3r2p4Time8to_s_rawEv\000"
 22169      33723270 
 22169      3454696D 
 22169      6538746F 
 22169      5F735F72 
 22170              	.LASF916:
 22171 6ba3 5F5A4E33 		.ascii	"_ZN3r2p4Node11notify_stopEv\000"
 22171      72327034 
 22171      4E6F6465 
 22171      31316E6F 
 22171      74696679 
 22172              	.LASF26:
 22173 6bbf 5F666C6F 		.ascii	"_flock_t\000"
 22173      636B5F74 
 22173      00
 22174              	.LASF634:
 22175 6bc8 5F5A4E4B 		.ascii	"_ZNK3r2p5Topic20has_local_publishersEv\000"
 22175      33723270 
 22175      35546F70 
 22175      69633230 
 22175      6861735F 
 22176              	.LASF1167:
 22177 6bef 6C656473 		.ascii	"ledsub_conf\000"
 22177      75625F63 
 22177      6F6E6600 
 22178              	.LASF342:
 22179 6bfb 31385553 		.ascii	"18USBInEndpointState\000"
 22179      42496E45 
 22179      6E64706F 
 22179      696E7453 
 22179      74617465 
 22180              	.LASF1200:
 22181 6c10 5F5F696E 		.ascii	"__in_chrg\000"
 22181      5F636872 
 22181      6700
 22182              	.LASF854:
 22183 6c1a 70756273 		.ascii	"pubsub\000"
 22183      756200
 22184              	.LASF719:
 22185 6c21 5F5A4E4B 		.ascii	"_ZNK3r2p10StaticListINS_14LocalPublisherEE13ConstIt"
 22185      33723270 
 22185      31305374 
 22185      61746963 
 22185      4C697374 
 22186 6c54 65726174 		.ascii	"eratoreqERKS3_\000"
 22186      6F726571 
 22186      45524B53 
 22186      335F00
 22187              	.LASF1115:
 22188 6c63 5F5A4E33 		.ascii	"_ZN3r2p10Middleware3addERNS_4NodeE\000"
 22188      72327031 
 22188      304D6964 
ARM GAS  /tmp/ccytVDiP.s 			page 452


 22188      646C6577 
 22188      61726533 
 22189              	.LASF650:
 22190 6c86 5F5A4E4B 		.ascii	"_ZNK3r2p5Topic23compute_deadline_unsafeERKNS_4TimeE"
 22190      33723270 
 22190      35546F70 
 22190      69633233 
 22190      636F6D70 
 22191 6cb9 00       		.ascii	"\000"
 22192              	.LASF570:
 22193 6cba 5F5A4E4B 		.ascii	"_ZNK3r2p10StaticListINS_16RemoteSubscriberEE10find_"
 22193      33723270 
 22193      31305374 
 22193      61746963 
 22193      4C697374 
 22194 6ced 66697273 		.ascii	"firstEPFbRKS1_E\000"
 22194      74455046 
 22194      62524B53 
 22194      315F4500 
 22195              	.LASF140:
 22196 6cfd 67657473 		.ascii	"gets\000"
 22196      00
 22197              	.LASF463:
 22198 6d02 4C696E6B 		.ascii	"Link\000"
 22198      00
 22199              	.LASF728:
 22200 6d07 5F5A4E4B 		.ascii	"_ZNK3r2p10StaticListINS_14LocalPublisherEE15index_o"
 22200      33723270 
 22200      31305374 
 22200      61746963 
 22200      4C697374 
 22201 6d3a 665F756E 		.ascii	"f_unsafeERKS1_\000"
 22201      73616665 
 22201      45524B53 
 22201      315F00
 22202              	.LASF1084:
 22203 6d49 6E756D5F 		.ascii	"num_running_nodes\000"
 22203      72756E6E 
 22203      696E675F 
 22203      6E6F6465 
 22203      7300
 22204              	.LASF609:
 22205 6d5b 5F5A4E4B 		.ascii	"_ZNK3r2p10StaticListINS_5TopicEE3endEv\000"
 22205      33723270 
 22205      31305374 
 22205      61746963 
 22205      4C697374 
 22206              	.LASF514:
 22207 6d82 6765745F 		.ascii	"get_head\000"
 22207      68656164 
 22207      00
 22208              	.LASF1146:
 22209 6d8b 69735F62 		.ascii	"is_bootloader_mode\000"
 22209      6F6F746C 
 22209      6F616465 
 22209      725F6D6F 
 22209      646500
ARM GAS  /tmp/ccytVDiP.s 			page 453


 22210              	.LASF643:
 22211 6d9e 6861735F 		.ascii	"has_subscribers\000"
 22211      73756273 
 22211      63726962 
 22211      65727300 
 22212              	.LASF223:
 22213 6dae 685F7072 		.ascii	"h_provider\000"
 22213      6F766964 
 22213      657200
 22214              	.LASF263:
 22215 6db9 77726974 		.ascii	"writet\000"
 22215      657400
 22216              	.LASF265:
 22217 6dc0 31314261 		.ascii	"11BaseChannel\000"
 22217      73654368 
 22217      616E6E65 
 22217      6C00
 22218              	.LASF1009:
 22219 6dce 5F5A4E4B 		.ascii	"_ZNK3r2p10StaticListINS_9TransportEE15index_of_unsa"
 22219      33723270 
 22219      31305374 
 22219      61746963 
 22219      4C697374 
 22220 6e01 66654552 		.ascii	"feERKS1_\000"
 22220      4B53315F 
 22220      00
 22221              	.LASF407:
 22222 6e0a 4D656D6F 		.ascii	"MemoryPool_\000"
 22222      7279506F 
 22222      6F6C5F00 
 22223              	.LASF951:
 22224 6e16 636F6D70 		.ascii	"compare\000"
 22224      61726500 
 22225              	.LASF10:
 22226 6e1e 6C6F6E67 		.ascii	"long long int\000"
 22226      206C6F6E 
 22226      6720696E 
 22226      7400
 22227              	.LASF805:
 22228 6e2c 494E5445 		.ascii	"INTERRUPT\000"
 22228      52525550 
 22228      5400
 22229              	.LASF623:
 22230 6e36 6765745F 		.ascii	"get_publish_timeout\000"
 22230      7075626C 
 22230      6973685F 
 22230      74696D65 
 22230      6F757400 
 22231              	.LASF1053:
 22232 6e4a 424F4F54 		.ascii	"BOOT_BUFFER_LENGTH\000"
 22232      5F425546 
 22232      4645525F 
 22232      4C454E47 
 22232      544800
 22233              	.LASF595:
 22234 6e5d 5F5A4E4B 		.ascii	"_ZNK3r2p10StaticListINS_5TopicEE14restart_unsafeERN"
 22234      33723270 
ARM GAS  /tmp/ccytVDiP.s 			page 454


 22234      31305374 
 22234      61746963 
 22234      4C697374 
 22235 6e90 53325F31 		.ascii	"S2_19ConstIteratorUnsafeE\000"
 22235      39436F6E 
 22235      73744974 
 22235      65726174 
 22235      6F72556E 
 22236              	.LASF70:
 22237 6eaa 5F666C61 		.ascii	"_flags2\000"
 22237      67733200 
 22238              	.LASF550:
 22239 6eb2 5F5A4E33 		.ascii	"_ZN3r2p10StaticListINS_16RemoteSubscriberEE11link_u"
 22239      72327031 
 22239      30537461 
 22239      7469634C 
 22239      69737449 
 22240 6ee5 6E736166 		.ascii	"nsafeERNS2_4LinkE\000"
 22240      6545524E 
 22240      53325F34 
 22240      4C696E6B 
 22240      4500
 22241              	.LASF785:
 22242 6ef7 5F5A4E33 		.ascii	"_ZN3r2p7Thread_11create_heapEPvjmPFlS1_ES1_PKc\000"
 22242      72327037 
 22242      54687265 
 22242      61645F31 
 22242      31637265 
 22243              	.LASF1242:
 22244 6f26 5F5A4E33 		.ascii	"_ZN3r2p16SubscriberExtBufINS_7MgmtMsgEED0Ev\000"
 22244      72327031 
 22244      36537562 
 22244      73637269 
 22244      62657245 
 22245              	.LASF479:
 22246 6f52 5F5A4E4B 		.ascii	"_ZNK3r2p10StaticListINS_15LocalSubscriberEE13ConstI"
 22246      33723270 
 22246      31305374 
 22246      61746963 
 22246      4C697374 
 22247 6f85 74657261 		.ascii	"teratoreqERKS3_\000"
 22247      746F7265 
 22247      7145524B 
 22247      53335F00 
 22248              	.LASF866:
 22249 6f95 5F5A4E4B 		.ascii	"_ZNK3r2p10StaticListINS_4NodeEE15is_empty_unsafeEv\000"
 22249      33723270 
 22249      31305374 
 22249      61746963 
 22249      4C697374 
 22250              	.LASF1083:
 22251 6fc8 69746572 		.ascii	"iter_lasttime\000"
 22251      5F6C6173 
 22251      7474696D 
 22251      6500
 22252              	.LASF856:
 22253 6fd6 53746174 		.ascii	"StaticList<r2p::Node>\000"
ARM GAS  /tmp/ccytVDiP.s 			page 455


 22253      69634C69 
 22253      73743C72 
 22253      32703A3A 
 22253      4E6F6465 
 22254              	.LASF148:
 22255 6fec 67657463 		.ascii	"getchar\000"
 22255      68617200 
 22256              	.LASF615:
 22257 6ff4 6E756D5F 		.ascii	"num_local_publishers\000"
 22257      6C6F6361 
 22257      6C5F7075 
 22257      626C6973 
 22257      68657273 
 22258              	.LASF166:
 22259 7009 666C6167 		.ascii	"flagsmask_t\000"
 22259      736D6173 
 22259      6B5F7400 
 22260              	.LASF326:
 22261 7015 5553425F 		.ascii	"USB_EVENT_ADDRESS\000"
 22261      4556454E 
 22261      545F4144 
 22261      44524553 
 22261      5300
 22262              	.LASF374:
 22263 7027 6765745F 		.ascii	"get_descriptor_cb\000"
 22263      64657363 
 22263      72697074 
 22263      6F725F63 
 22263      6200
 22264              	.LASF238:
 22265 7039 47656E65 		.ascii	"GenericQueue\000"
 22265      72696351 
 22265      75657565 
 22265      00
 22266              	.LASF900:
 22267 7046 5F5A4E4B 		.ascii	"_ZNK3r2p4Node8get_nameEv\000"
 22267      33723270 
 22267      344E6F64 
 22267      65386765 
 22267      745F6E61 
 22268              	.LASF637:
 22269 705f 6861735F 		.ascii	"has_publishers\000"
 22269      7075626C 
 22269      69736865 
 22269      727300
 22270              	.LASF721:
 22271 706e 5F5A4E4B 		.ascii	"_ZNK3r2p10StaticListINS_14LocalPublisherEE13ConstIt"
 22271      33723270 
 22271      31305374 
 22271      61746963 
 22271      4C697374 
 22272 70a1 65726174 		.ascii	"erator8is_validEv\000"
 22272      6F723869 
 22272      735F7661 
 22272      6C696445 
 22272      7600
 22273              	.LASF1086:
ARM GAS  /tmp/ccytVDiP.s 			page 456


 22274 70b3 7265626F 		.ascii	"rebooted_magic\000"
 22274      6F746564 
 22274      5F6D6167 
 22274      696300
 22275              	.LASF722:
 22276 70c2 5F5A4E4B 		.ascii	"_ZNK3r2p10StaticListINS_14LocalPublisherEE15get_hea"
 22276      33723270 
 22276      31305374 
 22276      61746963 
 22276      4C697374 
 22277 70f5 645F756E 		.ascii	"d_unsafeEv\000"
 22277      73616665 
 22277      457600
 22278              	.LASF569:
 22279 7100 5F5A4E4B 		.ascii	"_ZNK3r2p10StaticListINS_16RemoteSubscriberEE8contai"
 22279      33723270 
 22279      31305374 
 22279      61746963 
 22279      4C697374 
 22280 7133 6E734552 		.ascii	"nsERKS1_\000"
 22280      4B53315F 
 22280      00
 22281              	.LASF516:
 22282 713c 69735F65 		.ascii	"is_empty\000"
 22282      6D707479 
 22282      00
 22283              	.LASF604:
 22284 7145 5F5A4E4B 		.ascii	"_ZNK3r2p10StaticListINS_5TopicEE10find_firstEPFbRKS"
 22284      33723270 
 22284      31305374 
 22284      61746963 
 22284      4C697374 
 22285 7178 315F504B 		.ascii	"1_PKvES6_\000"
 22285      76455336 
 22285      5F00
 22286              	.LASF978:
 22287 7182 4D757465 		.ascii	"Mutex_\000"
 22287      785F00
 22288              	.LASF673:
 22289 7189 5F5A4E33 		.ascii	"_ZN3r2p5Topic12forward_copyERKNS_7MessageERKNS_4Tim"
 22289      72327035 
 22289      546F7069 
 22289      63313266 
 22289      6F727761 
 22290 71bc 654500   		.ascii	"eE\000"
 22291              	.LASF1173:
 22292 71bf 5F5A4E33 		.ascii	"_ZN3r2p9PublisherINS_11String64MsgEE7publishEPS1_\000"
 22292      72327039 
 22292      5075626C 
 22292      69736865 
 22292      72494E53 
 22293              	.LASF878:
 22294 71f1 5F5A4E4B 		.ascii	"_ZNK3r2p10StaticListINS_4NodeEE12begin_unsafeEv\000"
 22294      33723270 
 22294      31305374 
 22294      61746963 
 22294      4C697374 
ARM GAS  /tmp/ccytVDiP.s 			page 457


 22295              	.LASF343:
 22296 7221 74786275 		.ascii	"txbuf\000"
 22296      6600
 22297              	.LASF661:
 22298 7227 5F5A4E33 		.ascii	"_ZN3r2p5Topic19forward_copy_unsafeERKNS_7MessageERK"
 22298      72327035 
 22298      546F7069 
 22298      63313966 
 22298      6F727761 
 22299 725a 4E535F34 		.ascii	"NS_4TimeE\000"
 22299      54696D65 
 22299      4500
 22300              	.LASF329:
 22301 7264 5553425F 		.ascii	"USB_EVENT_WAKEUP\000"
 22301      4556454E 
 22301      545F5741 
 22301      4B455550 
 22301      00
 22302              	.LASF1172:
 22303 7275 5F5A4E33 		.ascii	"_ZN3r2p9PublisherINS_11String64MsgEE7publishERS1_\000"
 22303      72327039 
 22303      5075626C 
 22303      69736865 
 22303      72494E53 
 22304              	.LASF1215:
 22305 72a7 5F5A3232 		.ascii	"_Z22usb_lld_disconnect_busP9USBDriver\000"
 22305      7573625F 
 22305      6C6C645F 
 22305      64697363 
 22305      6F6E6E65 
 22306              	.LASF751:
 22307 72cd 5F5A4E4B 		.ascii	"_ZNK3r2p10StaticListINS_14LocalPublisherEE3endEv\000"
 22307      33723270 
 22307      31305374 
 22307      61746963 
 22307      4C697374 
 22308              	.LASF489:
 22309 72fe 5F5A4E4B 		.ascii	"_ZNK3r2p10StaticListINS_15LocalSubscriberEE15is_emp"
 22309      33723270 
 22309      31305374 
 22309      61746963 
 22309      4C697374 
 22310 7331 74795F75 		.ascii	"ty_unsafeEv\000"
 22310      6E736166 
 22310      65457600 
 22311              	.LASF178:
 22312 733d 705F6F6C 		.ascii	"p_older\000"
 22312      64657200 
 22313              	.LASF1030:
 22314 7345 5F5A4E33 		.ascii	"_ZN3r2p10StaticListINS_9TransportEE7restartERNS2_8I"
 22314      72327031 
 22314      30537461 
 22314      7469634C 
 22314      69737449 
 22315 7378 74657261 		.ascii	"teratorE\000"
 22315      746F7245 
 22315      00
ARM GAS  /tmp/ccytVDiP.s 			page 458


 22316              	.LASF249:
 22317 7381 4F757470 		.ascii	"OutputQueue\000"
 22317      75745175 
 22317      65756500 
 22318              	.LASF1262:
 22319 738d 5F5A4E33 		.ascii	"_ZN3r2p4Time3nowEv\000"
 22319      72327034 
 22319      54696D65 
 22319      336E6F77 
 22319      457600
 22320              	.LASF370:
 22321 73a0 73657475 		.ascii	"setup_buf\000"
 22321      705F6275 
 22321      6600
 22322              	.LASF458:
 22323 73aa 5F5A4E33 		.ascii	"_ZN3r2p4Time2hzEd\000"
 22323      72327034 
 22323      54696D65 
 22323      32687A45 
 22323      6400
 22324              	.LASF487:
 22325 73bc 69735F65 		.ascii	"is_empty_unsafe\000"
 22325      6D707479 
 22325      5F756E73 
 22325      61666500 
 22326              	.LASF884:
 22327 73cc 5F5A4E33 		.ascii	"_ZN3r2p10StaticListINS_4NodeEE4linkERNS2_4LinkE\000"
 22327      72327031 
 22327      30537461 
 22327      7469634C 
 22327      69737449 
 22328              	.LASF1047:
 22329 73fc 5F5A4E33 		.ascii	"_ZN3r2p14BaseSubscriber7releaseERNS_7MessageE\000"
 22329      72327031 
 22329      34426173 
 22329      65537562 
 22329      73637269 
 22330              	.LASF968:
 22331 742a 5F5A4E33 		.ascii	"_ZN3r2p8Flasher_15get_program_endEv\000"
 22331      72327038 
 22331      466C6173 
 22331      6865725F 
 22331      31356765 
 22332              	.LASF901:
 22333 744e 6765745F 		.ascii	"get_publishers\000"
 22333      7075626C 
 22333      69736865 
 22333      727300
 22334              	.LASF1135:
 22335 745d 5F5A4E33 		.ascii	"_ZN3r2p10Middleware16do_cmd_advertiseERKNS_7MgmtMsg"
 22335      72327031 
 22335      304D6964 
 22335      646C6577 
 22335      61726531 
 22336 7490 4500     		.ascii	"E\000"
 22337              	.LASF962:
 22338 7492 5F5A4E33 		.ascii	"_ZN3r2p8Flasher_10align_prevEPKh\000"
ARM GAS  /tmp/ccytVDiP.s 			page 459


 22338      72327038 
 22338      466C6173 
 22338      6865725F 
 22338      3130616C 
 22339              	.LASF627:
 22340 74b3 6765745F 		.ascii	"get_payload_size\000"
 22340      7061796C 
 22340      6F61645F 
 22340      73697A65 
 22340      00
 22341              	.LASF658:
 22342 74c4 6E6F7469 		.ascii	"notify_remotes_unsafe\000"
 22342      66795F72 
 22342      656D6F74 
 22342      65735F75 
 22342      6E736166 
 22343              	.LASF294:
 22344 74da 72656365 		.ascii	"receiving\000"
 22344      6976696E 
 22344      6700
 22345              	.LASF1024:
 22346 74e4 5F5A4E4B 		.ascii	"_ZNK3r2p10StaticListINS_9TransportEE8index_ofERKS1_"
 22346      33723270 
 22346      31305374 
 22346      61746963 
 22346      4C697374 
 22347 7517 00       		.ascii	"\000"
 22348              	.LASF433:
 22349 7518 5F5A4E4B 		.ascii	"_ZNK3r2p4Time9to_us_rawEv\000"
 22349      33723270 
 22349      3454696D 
 22349      6539746F 
 22349      5F75735F 
 22350              	.LASF679:
 22351 7532 73756273 		.ascii	"subscribe\000"
 22351      63726962 
 22351      6500
 22352              	.LASF116:
 22353 753c 5F5F4649 		.ascii	"__FILE\000"
 22353      4C4500
 22354              	.LASF306:
 22355 7543 75736265 		.ascii	"usbep_t\000"
 22355      705F7400 
 22356              	.LASF1102:
 22357 754b 5F5A4E33 		.ascii	"_ZN3r2p10Middleware10initializeEPvjmS1_jm\000"
 22357      72327031 
 22357      304D6964 
 22357      646C6577 
 22357      61726531 
 22358              	.LASF1041:
 22359 7575 5F5A4E33 		.ascii	"_ZN3r2p14BaseSubscriber17notify_subscribedERNS_5Top"
 22359      72327031 
 22359      34426173 
 22359      65537562 
 22359      73637269 
 22360 75a8 69634500 		.ascii	"icE\000"
 22361              	.LASF515:
ARM GAS  /tmp/ccytVDiP.s 			page 460


 22362 75ac 5F5A4E4B 		.ascii	"_ZNK3r2p10StaticListINS_15LocalSubscriberEE8get_hea"
 22362      33723270 
 22362      31305374 
 22362      61746963 
 22362      4C697374 
 22363 75df 64457600 		.ascii	"dEv\000"
 22364              	.LASF973:
 22365 75e3 6765745F 		.ascii	"get_ram_end\000"
 22365      72616D5F 
 22365      656E6400 
 22366              	.LASF30:
 22367 75ef 5F736967 		.ascii	"_sign\000"
 22367      6E00
 22368              	.LASF367:
 22369 75f5 696E5F73 		.ascii	"in_state\000"
 22369      74617465 
 22369      00
 22370              	.LASF1249:
 22371 75fe 5F5F7072 		.ascii	"__program_end__\000"
 22371      6F677261 
 22371      6D5F656E 
 22371      645F5F00 
 22372              	.LASF35:
 22373 760e 5F5F746D 		.ascii	"__tm_min\000"
 22373      5F6D696E 
 22373      00
 22374              	.LASF1220:
 22375 7617 6D61696E 		.ascii	"main\000"
 22375      00
 22376              	.LASF1011:
 22377 761c 5F5A4E4B 		.ascii	"_ZNK3r2p10StaticListINS_9TransportEE17find_first_un"
 22377      33723270 
 22377      31305374 
 22377      61746963 
 22377      4C697374 
 22378 764f 73616665 		.ascii	"safeEPFbRKS1_E\000"
 22378      45504662 
 22378      524B5331 
 22378      5F4500
 22379              	.LASF1088:
 22380 765e 6765745F 		.ascii	"get_module_name\000"
 22380      6D6F6475 
 22380      6C655F6E 
 22380      616D6500 
 22381              	.LASF928:
 22382 766e 70616765 		.ascii	"page_bufp\000"
 22382      5F627566 
 22382      7000
 22383              	.LASF781:
 22384 7678 5F5A4E33 		.ascii	"_ZN3r2p7Thread_18compute_stack_sizeEj\000"
 22384      72327037 
 22384      54687265 
 22384      61645F31 
 22384      38636F6D 
 22385              	.LASF446:
 22386 769e 746F5F6D 		.ascii	"to_m\000"
 22386      00
ARM GAS  /tmp/ccytVDiP.s 			page 461


 22387              	.LASF1150:
 22388 76a3 5075626C 		.ascii	"Publisher\000"
 22388      69736865 
 22388      7200
 22389              	.LASF1050:
 22390 76ad 4C6F6361 		.ascii	"LocalSubscriber\000"
 22390      6C537562 
 22390      73637269 
 22390      62657200 
 22391              	.LASF915:
 22392 76bd 6E6F7469 		.ascii	"notify_stop\000"
 22392      66795F73 
 22392      746F7000 
 22393              	.LASF1081:
 22394 76c9 69746572 		.ascii	"iter_publishers\000"
 22394      5F707562 
 22394      6C697368 
 22394      65727300 
 22395              	.LASF444:
 22396 76d9 746F5F73 		.ascii	"to_s\000"
 22396      00
 22397              	.LASF478:
 22398 76de 6F706572 		.ascii	"operator==\000"
 22398      61746F72 
 22398      3D3D00
 22399              	.LASF1209:
 22400 76e9 64656C61 		.ascii	"delay\000"
 22400      7900
 22401              	.LASF905:
 22402 76ef 6765745F 		.ascii	"get_enabled\000"
 22402      656E6162 
 22402      6C656400 
 22403              	.LASF1166:
 22404 76fb 7E537562 		.ascii	"~SubscriberExtBuf\000"
 22404      73637269 
 22404      62657245 
 22404      78744275 
 22404      6600
 22405              	.LASF1026:
 22406 770d 5F5A4E4B 		.ascii	"_ZNK3r2p10StaticListINS_9TransportEE10find_firstEPF"
 22406      33723270 
 22406      31305374 
 22406      61746963 
 22406      4C697374 
 22407 7740 62524B53 		.ascii	"bRKS1_E\000"
 22407      315F4500 
 22408              	.LASF1078:
 22409 7748 626F6F74 		.ascii	"boot_threadp\000"
 22409      5F746872 
 22409      65616470 
 22409      00
 22410              	.LASF861:
 22411 7755 5F5A4E33 		.ascii	"_ZN3r2p10StaticListINS_4NodeEE13ConstIteratorppEi\000"
 22411      72327031 
 22411      30537461 
 22411      7469634C 
 22411      69737449 
ARM GAS  /tmp/ccytVDiP.s 			page 462


 22412              	.LASF613:
 22413 7787 7075626C 		.ascii	"publish_timeout\000"
 22413      6973685F 
 22413      74696D65 
 22413      6F757400 
 22414              	.LASF1039:
 22415 7797 5F5A4E4B 		.ascii	"_ZNK3r2p14BaseSubscriber16get_queue_lengthEv\000"
 22415      33723270 
 22415      31344261 
 22415      73655375 
 22415      62736372 
 22416              	.LASF920:
 22417 77c4 5F5A4E33 		.ascii	"_ZN3r2p4Node9subscribeERNS_15LocalSubscriberEPKcPNS"
 22417      72327034 
 22417      4E6F6465 
 22417      39737562 
 22417      73637269 
 22418 77f7 5F374D65 		.ascii	"_7MessageEj\000"
 22418      73736167 
 22418      65456A00 
 22419              	.LASF860:
 22420 7803 5F5A4E33 		.ascii	"_ZN3r2p10StaticListINS_4NodeEE13ConstIteratorppEv\000"
 22420      72327031 
 22420      30537461 
 22420      7469634C 
 22420      69737449 
 22421              	.LASF14:
 22422 7835 756E7369 		.ascii	"unsigned int\000"
 22422      676E6564 
 22422      20696E74 
 22422      00
 22423              	.LASF78:
 22424 7842 5F723438 		.ascii	"_r48\000"
 22424      00
 22425              	.LASF835:
 22426 7847 5F5A4E33 		.ascii	"_ZN3r2p9SpinEvent4waitERKNS_4TimeE\000"
 22426      72327039 
 22426      5370696E 
 22426      4576656E 
 22426      74347761 
 22427              	.LASF396:
 22428 786a 7E556E63 		.ascii	"~Uncopyable\000"
 22428      6F707961 
 22428      626C6500 
 22429              	.LASF309:
 22430 7876 5553425F 		.ascii	"USB_UNINIT\000"
 22430      554E494E 
 22430      495400
 22431              	.LASF129:
 22432 7881 66666C75 		.ascii	"fflush\000"
 22432      736800
 22433              	.LASF596:
 22434 7888 5F5A4E4B 		.ascii	"_ZNK3r2p10StaticListINS_5TopicEE8get_headEv\000"
 22434      33723270 
 22434      31305374 
 22434      61746963 
 22434      4C697374 
ARM GAS  /tmp/ccytVDiP.s 			page 463


 22435              	.LASF537:
 22436 78b4 5F5A4E4B 		.ascii	"_ZNK3r2p10StaticListINS_15LocalSubscriberEE3endEv\000"
 22436      33723270 
 22436      31305374 
 22436      61746963 
 22436      4C697374 
 22437              	.LASF1149:
 22438 78e6 5075626C 		.ascii	"Publisher<r2p::MgmtMsg>\000"
 22438      69736865 
 22438      723C7232 
 22438      703A3A4D 
 22438      676D744D 
 22439              	.LASF773:
 22440 78fe 54687265 		.ascii	"Thread_\000"
 22440      61645F00 
 22441              	.LASF2:
 22442 7906 73686F72 		.ascii	"short int\000"
 22442      7420696E 
 22442      7400
 22443              	.LASF531:
 22444 7910 62656769 		.ascii	"begin\000"
 22444      6E00
 22445              	.LASF337:
 22446 7916 75736263 		.ascii	"usbcallback_t\000"
 22446      616C6C62 
 22446      61636B5F 
 22446      7400
 22447              	.LASF59:
 22448 7924 5F726561 		.ascii	"_read\000"
 22448      6400
 22449              	.LASF257:
 22450 792a 55534152 		.ascii	"USART_TypeDef\000"
 22450      545F5479 
 22450      70654465 
 22450      6600
 22451              	.LASF937:
 22452 7938 5F5A4E33 		.ascii	"_ZN3r2p8Flasher_13flash_alignedEPKtS2_j\000"
 22452      72327038 
 22452      466C6173 
 22452      6865725F 
 22452      3133666C 
 22453              	.LASF120:
 22454 7960 5F72616E 		.ascii	"_rand48\000"
 22454      64343800 
 22455              	.LASF1208:
 22456 7968 61726770 		.ascii	"argp\000"
 22456      00
 22457              	.LASF746:
 22458 796d 5F5A4E4B 		.ascii	"_ZNK3r2p10StaticListINS_14LocalPublisherEE10find_fi"
 22458      33723270 
 22458      31305374 
 22458      61746963 
 22458      4C697374 
 22459 79a0 72737445 		.ascii	"rstEPFbRKS1_PKvES6_\000"
 22459      50466252 
 22459      4B53315F 
 22459      504B7645 
ARM GAS  /tmp/ccytVDiP.s 			page 464


 22459      53365F00 
 22460              	.LASF486:
 22461 79b4 6765745F 		.ascii	"get_head_unsafe\000"
 22461      68656164 
 22461      5F756E73 
 22461      61666500 
 22462              	.LASF897:
 22463 79c4 7075626C 		.ascii	"publishers\000"
 22463      69736865 
 22463      727300
 22464              	.LASF334:
 22465 79cf 75645F73 		.ascii	"ud_size\000"
 22465      697A6500 
 22466              	.LASF988:
 22467 79d7 5F5A4E33 		.ascii	"_ZN3r2p5Mutex14acquire_unsafeEv\000"
 22467      72327035 
 22467      4D757465 
 22467      78313461 
 22467      63717569 
 22468              	.LASF431:
 22469 79f7 494E4649 		.ascii	"INFINITEN\000"
 22469      4E495445 
 22469      4E00
 22470              	.LASF365:
 22471 7a01 696E5F6D 		.ascii	"in_maxsize\000"
 22471      61787369 
 22471      7A6500
 22472              	.LASF1192:
 22473 7a0c 7E426173 		.ascii	"~BasePublisher\000"
 22473      65507562 
 22473      6C697368 
 22473      657200
 22474              	.LASF509:
 22475 7a1b 72657374 		.ascii	"restart_unsafe\000"
 22475      6172745F 
 22475      756E7361 
 22475      666500
 22476              	.LASF1247:
 22477 7a2a 73657275 		.ascii	"serusbcfg\000"
 22477      73626366 
 22477      6700
 22478              	.LASF1160:
 22479 7a34 53756273 		.ascii	"SubscriberExtBuf\000"
 22479      63726962 
 22479      65724578 
 22479      74427566 
 22479      00
 22480              	.LASF851:
 22481 7a45 666C6167 		.ascii	"flags\000"
 22481      7300
 22482              	.LASF181:
 22483 7a4b 705F7374 		.ascii	"p_state\000"
 22483      61746500 
 22484              	.LASF1073:
 22485 7a53 6D676D74 		.ascii	"mgmt_queue_buf\000"
 22485      5F717565 
 22485      75655F62 
ARM GAS  /tmp/ccytVDiP.s 			page 465


 22485      756600
 22486              	.LASF258:
 22487 7a62 42617365 		.ascii	"BaseChannelVMT\000"
 22487      4368616E 
 22487      6E656C56 
 22487      4D5400
 22488              	.LASF281:
 22489 7a71 53445F52 		.ascii	"SD_READY\000"
 22489      45414459 
 22489      00
 22490              		.hidden	__dso_handle
 22491              		.ident	"GCC: (GNU Tools for ARM Embedded Processors) 4.9.3 20141119 (release) [ARM/embedded-4_9-br
ARM GAS  /tmp/ccytVDiP.s 			page 466


DEFINED SYMBOLS
                            *ABS*:00000000 main.cpp
     /tmp/ccytVDiP.s:19     .text._ZN3r2p10UncopyableD2Ev:00000000 $t
     /tmp/ccytVDiP.s:24     .text._ZN3r2p10UncopyableD2Ev:00000000 _ZN3r2p10UncopyableD2Ev
     /tmp/ccytVDiP.s:24     .text._ZN3r2p10UncopyableD2Ev:00000000 _ZN3r2p10UncopyableD1Ev
     /tmp/ccytVDiP.s:48     .text._ZN3r2p8SysLock_7acquireEv:00000000 $t
     /tmp/ccytVDiP.s:53     .text._ZN3r2p8SysLock_7acquireEv:00000000 _ZN3r2p8SysLock_7acquireEv
     /tmp/ccytVDiP.s:83     .text._ZN3r2p8SysLock_7releaseEv:00000000 $t
     /tmp/ccytVDiP.s:88     .text._ZN3r2p8SysLock_7releaseEv:00000000 _ZN3r2p8SysLock_7releaseEv
     /tmp/ccytVDiP.s:117    .text._ZN3r2p7SysLock7acquireEv:00000000 $t
     /tmp/ccytVDiP.s:122    .text._ZN3r2p7SysLock7acquireEv:00000000 _ZN3r2p7SysLock7acquireEv
     /tmp/ccytVDiP.s:141    .text._ZN3r2p7SysLock7releaseEv:00000000 $t
     /tmp/ccytVDiP.s:146    .text._ZN3r2p7SysLock7releaseEv:00000000 _ZN3r2p7SysLock7releaseEv
     /tmp/ccytVDiP.s:164    .text._ZN3r2p11MemoryPool_12alloc_unsafeEv:00000000 $t
     /tmp/ccytVDiP.s:169    .text._ZN3r2p11MemoryPool_12alloc_unsafeEv:00000000 _ZN3r2p11MemoryPool_12alloc_unsafeEv
     /tmp/ccytVDiP.s:197    .text._ZNK3r2p4Time8to_s_rawEv:00000000 $t
     /tmp/ccytVDiP.s:202    .text._ZNK3r2p4Time8to_s_rawEv:00000000 _ZNK3r2p4Time8to_s_rawEv
     /tmp/ccytVDiP.s:230    .text._ZNK3r2p4Time8to_s_rawEv:0000001c $d
     /tmp/ccytVDiP.s:235    .text._ZN3r2p4TimeaSERKS0_:00000000 $t
     /tmp/ccytVDiP.s:240    .text._ZN3r2p4TimeaSERKS0_:00000000 _ZN3r2p4TimeaSERKS0_
     /tmp/ccytVDiP.s:268    .text._ZN3r2p4Time2msEl:00000000 $t
     /tmp/ccytVDiP.s:273    .text._ZN3r2p4Time2msEl:00000000 _ZN3r2p4Time2msEl
     /tmp/ccytVDiP.s:1627   .text._ZN3r2p4TimeC2IlEET_:00000000 _ZN3r2p4TimeC1IlEET_
     /tmp/ccytVDiP.s:303    .text._ZN3r2p7Message12reset_unsafeEv:00000000 $t
     /tmp/ccytVDiP.s:308    .text._ZN3r2p7Message12reset_unsafeEv:00000000 _ZN3r2p7Message12reset_unsafeEv
     /tmp/ccytVDiP.s:334    .rodata:00000000 $d
     /tmp/ccytVDiP.s:338    .text._ZN3r2p13BasePublisher12alloc_unsafeERPNS_7MessageE:00000000 $t
     /tmp/ccytVDiP.s:343    .text._ZN3r2p13BasePublisher12alloc_unsafeERPNS_7MessageE:00000000 _ZN3r2p13BasePublisher12alloc_unsafeERPNS_7MessageE
     /tmp/ccytVDiP.s:1016   .text._ZN3r2p5Topic12alloc_unsafeEv:00000000 _ZN3r2p5Topic12alloc_unsafeEv
     /tmp/ccytVDiP.s:391    .text._ZN3r2p13BasePublisher12alloc_unsafeERPNS_7MessageE:0000003c $d
     /tmp/ccytVDiP.s:396    .text._ZN3r2p13BasePublisher5allocERPNS_7MessageE:00000000 $t
     /tmp/ccytVDiP.s:401    .text._ZN3r2p13BasePublisher5allocERPNS_7MessageE:00000000 _ZN3r2p13BasePublisher5allocERPNS_7MessageE
     /tmp/ccytVDiP.s:438    .text._ZN3r2p7Thread_11create_heapEPvjmPFlS1_ES1_PKc:00000000 $t
     /tmp/ccytVDiP.s:443    .text._ZN3r2p7Thread_11create_heapEPvjmPFlS1_ES1_PKc:00000000 _ZN3r2p7Thread_11create_heapEPvjmPFlS1_ES1_PKc
     /tmp/ccytVDiP.s:491    .text._ZN3r2p7Thread_5sleepERKNS_4TimeE:00000000 $t
     /tmp/ccytVDiP.s:496    .text._ZN3r2p7Thread_5sleepERKNS_4TimeE:00000000 _ZN3r2p7Thread_5sleepERKNS_4TimeE
     /tmp/ccytVDiP.s:555    .text._ZN3r2p7Thread_5sleepERKNS_4TimeE:0000005c $d
     /tmp/ccytVDiP.s:561    .text._ZN3r2p6Thread11create_heapEPvjmPFlS1_ES1_PKc:00000000 $t
     /tmp/ccytVDiP.s:566    .text._ZN3r2p6Thread11create_heapEPvjmPFlS1_ES1_PKc:00000000 _ZN3r2p6Thread11create_heapEPvjmPFlS1_ES1_PKc
     /tmp/ccytVDiP.s:603    .text._ZN3r2p6Thread5sleepERKNS_4TimeE:00000000 $t
     /tmp/ccytVDiP.s:608    .text._ZN3r2p6Thread5sleepERKNS_4TimeE:00000000 _ZN3r2p6Thread5sleepERKNS_4TimeE
     /tmp/ccytVDiP.s:632    .text._ZNK3r2p10SpinEvent_10get_threadEv:00000000 $t
     /tmp/ccytVDiP.s:637    .text._ZNK3r2p10SpinEvent_10get_threadEv:00000000 _ZNK3r2p10SpinEvent_10get_threadEv
     /tmp/ccytVDiP.s:661    .text._ZN3r2p10SpinEvent_13signal_unsafeEj:00000000 $t
     /tmp/ccytVDiP.s:666    .text._ZN3r2p10SpinEvent_13signal_unsafeEj:00000000 _ZN3r2p10SpinEvent_13signal_unsafeEj
     /tmp/ccytVDiP.s:711    .text._ZN3r2p10SpinEvent_13signal_unsafeEj:00000038 $d
     /tmp/ccytVDiP.s:716    .text._ZNK3r2p9SpinEvent10get_threadEv:00000000 $t
     /tmp/ccytVDiP.s:721    .text._ZNK3r2p9SpinEvent10get_threadEv:00000000 _ZNK3r2p9SpinEvent10get_threadEv
     /tmp/ccytVDiP.s:749    .text._ZN3r2p9SpinEvent13signal_unsafeEj:00000000 $t
     /tmp/ccytVDiP.s:754    .text._ZN3r2p9SpinEvent13signal_unsafeEj:00000000 _ZN3r2p9SpinEvent13signal_unsafeEj
     /tmp/ccytVDiP.s:781    .text._ZNK3r2p4Node11get_enabledEv:00000000 $t
     /tmp/ccytVDiP.s:786    .text._ZNK3r2p4Node11get_enabledEv:00000000 _ZNK3r2p4Node11get_enabledEv
     /tmp/ccytVDiP.s:820    .text._ZN3r2p4Node13notify_unsafeEj:00000000 $t
     /tmp/ccytVDiP.s:825    .text._ZN3r2p4Node13notify_unsafeEj:00000000 _ZN3r2p4Node13notify_unsafeEj
     /tmp/ccytVDiP.s:853    .text._ZNK3r2p15LocalSubscriber16get_queue_lengthEv:00000000 $t
     /tmp/ccytVDiP.s:858    .text._ZNK3r2p15LocalSubscriber16get_queue_lengthEv:00000000 _ZNK3r2p15LocalSubscriber16get_queue_lengthEv
     /tmp/ccytVDiP.s:1662   .text._ZNK3r2p10ArrayQueueIPNS_7MessageEE10get_lengthEv:00000000 _ZNK3r2p10ArrayQueueIPNS_7MessageEE10get_lengthEv
ARM GAS  /tmp/ccytVDiP.s 			page 467


     /tmp/ccytVDiP.s:887    .text._ZN3r2p15LocalSubscriber12fetch_unsafeERPNS_7MessageERNS_4TimeE:00000000 $t
     /tmp/ccytVDiP.s:892    .text._ZN3r2p15LocalSubscriber12fetch_unsafeERPNS_7MessageERNS_4TimeE:00000000 _ZN3r2p15LocalSubscriber12fetch_unsafeERPNS_7MessageERNS_4TimeE
     /tmp/ccytVDiP.s:1691   .text._ZN3r2p10ArrayQueueIPNS_7MessageEE12fetch_unsafeERS2_:00000000 _ZN3r2p10ArrayQueueIPNS_7MessageEE12fetch_unsafeERS2_
     /tmp/ccytVDiP.s:940    .text._ZN3r2p15LocalSubscriber13notify_unsafeERNS_7MessageERKNS_4TimeE:00000000 $t
     /tmp/ccytVDiP.s:945    .text._ZN3r2p15LocalSubscriber13notify_unsafeERNS_7MessageERKNS_4TimeE:00000000 _ZN3r2p15LocalSubscriber13notify_unsafeERNS_7MessageERKNS_4TimeE
     /tmp/ccytVDiP.s:1768   .text._ZN3r2p10ArrayQueueIPNS_7MessageEE11post_unsafeES2_:00000000 _ZN3r2p10ArrayQueueIPNS_7MessageEE11post_unsafeES2_
     /tmp/ccytVDiP.s:1011   .text._ZN3r2p5Topic12alloc_unsafeEv:00000000 $t
     /tmp/ccytVDiP.s:1061   .text._ZN3r2p6Mutex_D2Ev:00000000 $t
     /tmp/ccytVDiP.s:1066   .text._ZN3r2p6Mutex_D2Ev:00000000 _ZN3r2p6Mutex_D2Ev
     /tmp/ccytVDiP.s:1066   .text._ZN3r2p6Mutex_D2Ev:00000000 _ZN3r2p6Mutex_D1Ev
     /tmp/ccytVDiP.s:1096   .text._ZN3r2p5MutexD2Ev:00000000 $t
     /tmp/ccytVDiP.s:1101   .text._ZN3r2p5MutexD2Ev:00000000 _ZN3r2p5MutexD2Ev
     /tmp/ccytVDiP.s:1101   .text._ZN3r2p5MutexD2Ev:00000000 _ZN3r2p5MutexD1Ev
     /tmp/ccytVDiP.s:1135   .text._ZN3r2p10Middleware18is_bootloader_modeEv:00000000 $t
     /tmp/ccytVDiP.s:1140   .text._ZN3r2p10Middleware18is_bootloader_modeEv:00000000 _ZN3r2p10Middleware18is_bootloader_modeEv
     /tmp/ccytVDiP.s:1163   .text._ZN3r2p10Middleware18is_bootloader_modeEv:00000014 $d
     /tmp/ccytVDiP.s:1169   .bss:00000000 $d
     /tmp/ccytVDiP.s:1170   .bss:00000000 _ZL7wa_info
     /tmp/ccytVDiP.s:1173   .bss:00000590 _ZL14dbgtra_namebuf
     /tmp/ccytVDiP.s:1176   .bss:000005d0 _ZL6dbgtra
     /tmp/ccytVDiP.s:1179   .bss:00000838 _ZL12wa_rx_dbgtra
     /tmp/ccytVDiP.s:1182   .bss:00000dc8 _ZL12wa_tx_dbgtra
     /tmp/ccytVDiP.s:1188   .bss:00001358 _ZN3r2p10Middleware8instanceE
     /tmp/ccytVDiP.s:1191   .text:00000000 $t
     /tmp/ccytVDiP.s:1196   .text:00000000 _Z22usb_lld_disconnect_busP9USBDriver
     /tmp/ccytVDiP.s:1236   .text:00000034 _Z19usb_lld_connect_busP9USBDriver
     /tmp/ccytVDiP.s:1286   .text:0000006c _Z13test_pub_nodePv
     /tmp/ccytVDiP.s:1846   .text._ZN3r2p9PublisherINS_11String64MsgEEC2Ev:00000000 _ZN3r2p9PublisherINS_11String64MsgEEC1Ev
     /tmp/ccytVDiP.s:1972   .text._ZN3r2p4Node9advertiseINS_11String64MsgEEEbRNS_9PublisherIT_EEPKcRKNS_4TimeE:00000000 _ZN3r2p4Node9advertiseINS_11String64MsgEEEbRNS_9PublisherIT_EEPKcRKNS_4TimeE
     /tmp/ccytVDiP.s:2012   .text._ZN3r2p9PublisherINS_11String64MsgEE5allocERPS1_:00000000 _ZN3r2p9PublisherINS_11String64MsgEE5allocERPS1_
     /tmp/ccytVDiP.s:2046   .text._ZN3r2p9PublisherINS_11String64MsgEE7publishEPS1_:00000000 _ZN3r2p9PublisherINS_11String64MsgEE7publishEPS1_
     /tmp/ccytVDiP.s:1890   .text._ZN3r2p9PublisherINS_11String64MsgEED2Ev:00000000 _ZN3r2p9PublisherINS_11String64MsgEED1Ev
     /tmp/ccytVDiP.s:1410   .text:00000134 $d
     /tmp/ccytVDiP.s:1424   .text:0000014c $t
     /tmp/ccytVDiP.s:1429   .text:0000014c main
     /tmp/ccytVDiP.s:1604   .text:0000028c $d
     /tmp/ccytVDiP.s:1622   .text._ZN3r2p4TimeC2IlEET_:00000000 $t
     /tmp/ccytVDiP.s:1627   .text._ZN3r2p4TimeC2IlEET_:00000000 _ZN3r2p4TimeC2IlEET_
     /tmp/ccytVDiP.s:1657   .text._ZNK3r2p10ArrayQueueIPNS_7MessageEE10get_lengthEv:00000000 $t
     /tmp/ccytVDiP.s:1686   .text._ZN3r2p10ArrayQueueIPNS_7MessageEE12fetch_unsafeERS2_:00000000 $t
     /tmp/ccytVDiP.s:1763   .text._ZN3r2p10ArrayQueueIPNS_7MessageEE11post_unsafeES2_:00000000 $t
     /tmp/ccytVDiP.s:1841   .text._ZN3r2p9PublisherINS_11String64MsgEEC2Ev:00000000 $t
     /tmp/ccytVDiP.s:1846   .text._ZN3r2p9PublisherINS_11String64MsgEEC2Ev:00000000 _ZN3r2p9PublisherINS_11String64MsgEEC2Ev
     /tmp/ccytVDiP.s:1878   .text._ZN3r2p9PublisherINS_11String64MsgEEC2Ev:00000020 $d
     /tmp/ccytVDiP.s:2080   .rodata._ZTVN3r2p9PublisherINS_11String64MsgEEE:00000000 _ZTVN3r2p9PublisherINS_11String64MsgEEE
     /tmp/ccytVDiP.s:1885   .text._ZN3r2p9PublisherINS_11String64MsgEED2Ev:00000000 $t
     /tmp/ccytVDiP.s:1890   .text._ZN3r2p9PublisherINS_11String64MsgEED2Ev:00000000 _ZN3r2p9PublisherINS_11String64MsgEED2Ev
     /tmp/ccytVDiP.s:1928   .text._ZN3r2p9PublisherINS_11String64MsgEED2Ev:0000002c $d
     /tmp/ccytVDiP.s:1935   .text._ZN3r2p9PublisherINS_11String64MsgEED0Ev:00000000 $t
     /tmp/ccytVDiP.s:1940   .text._ZN3r2p9PublisherINS_11String64MsgEED0Ev:00000000 _ZN3r2p9PublisherINS_11String64MsgEED0Ev
     /tmp/ccytVDiP.s:1967   .text._ZN3r2p4Node9advertiseINS_11String64MsgEEEbRNS_9PublisherIT_EEPKcRKNS_4TimeE:00000000 $t
     /tmp/ccytVDiP.s:2007   .text._ZN3r2p9PublisherINS_11String64MsgEE5allocERPS1_:00000000 $t
     /tmp/ccytVDiP.s:2041   .text._ZN3r2p9PublisherINS_11String64MsgEE7publishEPS1_:00000000 $t
     /tmp/ccytVDiP.s:2077   .rodata._ZTVN3r2p9PublisherINS_11String64MsgEEE:00000000 $d
     /tmp/ccytVDiP.s:2090   .rodata._ZTVN3r2p16SubscriberExtBufINS_7MgmtMsgEEE:00000000 _ZTVN3r2p16SubscriberExtBufINS_7MgmtMsgEEE
     /tmp/ccytVDiP.s:2087   .rodata._ZTVN3r2p16SubscriberExtBufINS_7MgmtMsgEEE:00000000 $d
     /tmp/ccytVDiP.s:2639   .text._ZN3r2p16SubscriberExtBufINS_7MgmtMsgEED2Ev:00000000 _ZN3r2p16SubscriberExtBufINS_7MgmtMsgEED1Ev
ARM GAS  /tmp/ccytVDiP.s 			page 468


     /tmp/ccytVDiP.s:2690   .text._ZN3r2p16SubscriberExtBufINS_7MgmtMsgEED0Ev:00000000 _ZN3r2p16SubscriberExtBufINS_7MgmtMsgEED0Ev
     /tmp/ccytVDiP.s:2105   .rodata._ZTVN3r2p9PublisherINS_7MgmtMsgEEE:00000000 _ZTVN3r2p9PublisherINS_7MgmtMsgEEE
     /tmp/ccytVDiP.s:2102   .rodata._ZTVN3r2p9PublisherINS_7MgmtMsgEEE:00000000 $d
     /tmp/ccytVDiP.s:2557   .text._ZN3r2p9PublisherINS_7MgmtMsgEED2Ev:00000000 _ZN3r2p9PublisherINS_7MgmtMsgEED1Ev
     /tmp/ccytVDiP.s:2607   .text._ZN3r2p9PublisherINS_7MgmtMsgEED0Ev:00000000 _ZN3r2p9PublisherINS_7MgmtMsgEED0Ev
     /tmp/ccytVDiP.s:2111   .text._ZN3r2p10StaticListINS_4NodeEED2Ev:00000000 $t
     /tmp/ccytVDiP.s:2116   .text._ZN3r2p10StaticListINS_4NodeEED2Ev:00000000 _ZN3r2p10StaticListINS_4NodeEED2Ev
     /tmp/ccytVDiP.s:2116   .text._ZN3r2p10StaticListINS_4NodeEED2Ev:00000000 _ZN3r2p10StaticListINS_4NodeEED1Ev
     /tmp/ccytVDiP.s:2146   .text._ZN3r2p10StaticListINS_5TopicEED2Ev:00000000 $t
     /tmp/ccytVDiP.s:2151   .text._ZN3r2p10StaticListINS_5TopicEED2Ev:00000000 _ZN3r2p10StaticListINS_5TopicEED2Ev
     /tmp/ccytVDiP.s:2151   .text._ZN3r2p10StaticListINS_5TopicEED2Ev:00000000 _ZN3r2p10StaticListINS_5TopicEED1Ev
     /tmp/ccytVDiP.s:2180   .text._ZN3r2p10StaticListINS_9TransportEED2Ev:00000000 $t
     /tmp/ccytVDiP.s:2185   .text._ZN3r2p10StaticListINS_9TransportEED2Ev:00000000 _ZN3r2p10StaticListINS_9TransportEED2Ev
     /tmp/ccytVDiP.s:2185   .text._ZN3r2p10StaticListINS_9TransportEED2Ev:00000000 _ZN3r2p10StaticListINS_9TransportEED1Ev
     /tmp/ccytVDiP.s:2214   .text._ZN3r2p7ReMutexD2Ev:00000000 $t
     /tmp/ccytVDiP.s:2219   .text._ZN3r2p7ReMutexD2Ev:00000000 _ZN3r2p7ReMutexD2Ev
     /tmp/ccytVDiP.s:2219   .text._ZN3r2p7ReMutexD2Ev:00000000 _ZN3r2p7ReMutexD1Ev
     /tmp/ccytVDiP.s:2253   .text._ZN3r2p11MemoryPool_D2Ev:00000000 $t
     /tmp/ccytVDiP.s:2258   .text._ZN3r2p11MemoryPool_D2Ev:00000000 _ZN3r2p11MemoryPool_D2Ev
     /tmp/ccytVDiP.s:2258   .text._ZN3r2p11MemoryPool_D2Ev:00000000 _ZN3r2p11MemoryPool_D1Ev
     /tmp/ccytVDiP.s:2287   .text._ZN3r2p10StaticListINS_15LocalSubscriberEED2Ev:00000000 $t
     /tmp/ccytVDiP.s:2292   .text._ZN3r2p10StaticListINS_15LocalSubscriberEED2Ev:00000000 _ZN3r2p10StaticListINS_15LocalSubscriberEED2Ev
     /tmp/ccytVDiP.s:2292   .text._ZN3r2p10StaticListINS_15LocalSubscriberEED2Ev:00000000 _ZN3r2p10StaticListINS_15LocalSubscriberEED1Ev
     /tmp/ccytVDiP.s:2321   .text._ZN3r2p10StaticListINS_16RemoteSubscriberEED2Ev:00000000 $t
     /tmp/ccytVDiP.s:2326   .text._ZN3r2p10StaticListINS_16RemoteSubscriberEED2Ev:00000000 _ZN3r2p10StaticListINS_16RemoteSubscriberEED2Ev
     /tmp/ccytVDiP.s:2326   .text._ZN3r2p10StaticListINS_16RemoteSubscriberEED2Ev:00000000 _ZN3r2p10StaticListINS_16RemoteSubscriberEED1Ev
     /tmp/ccytVDiP.s:2355   .text._ZN3r2p5TopicD2Ev:00000000 $t
     /tmp/ccytVDiP.s:2360   .text._ZN3r2p5TopicD2Ev:00000000 _ZN3r2p5TopicD2Ev
     /tmp/ccytVDiP.s:2360   .text._ZN3r2p5TopicD2Ev:00000000 _ZN3r2p5TopicD1Ev
     /tmp/ccytVDiP.s:2401   .text._ZN3r2p10MiddlewareD2Ev:00000000 $t
     /tmp/ccytVDiP.s:2406   .text._ZN3r2p10MiddlewareD2Ev:00000000 _ZN3r2p10MiddlewareD2Ev
     /tmp/ccytVDiP.s:2406   .text._ZN3r2p10MiddlewareD2Ev:00000000 _ZN3r2p10MiddlewareD1Ev
     /tmp/ccytVDiP.s:2481   .text:000002c0 $t
     /tmp/ccytVDiP.s:2485   .text:000002c0 _Z41__static_initialization_and_destruction_0ii
     /tmp/ccytVDiP.s:2538   .text:00000310 $d
     /tmp/ccytVDiP.s:2552   .text._ZN3r2p9PublisherINS_7MgmtMsgEED2Ev:00000000 $t
     /tmp/ccytVDiP.s:2557   .text._ZN3r2p9PublisherINS_7MgmtMsgEED2Ev:00000000 _ZN3r2p9PublisherINS_7MgmtMsgEED2Ev
     /tmp/ccytVDiP.s:2595   .text._ZN3r2p9PublisherINS_7MgmtMsgEED2Ev:0000002c $d
     /tmp/ccytVDiP.s:2602   .text._ZN3r2p9PublisherINS_7MgmtMsgEED0Ev:00000000 $t
     /tmp/ccytVDiP.s:2634   .text._ZN3r2p16SubscriberExtBufINS_7MgmtMsgEED2Ev:00000000 $t
     /tmp/ccytVDiP.s:2639   .text._ZN3r2p16SubscriberExtBufINS_7MgmtMsgEED2Ev:00000000 _ZN3r2p16SubscriberExtBufINS_7MgmtMsgEED2Ev
     /tmp/ccytVDiP.s:2678   .text._ZN3r2p16SubscriberExtBufINS_7MgmtMsgEED2Ev:0000002c $d
     /tmp/ccytVDiP.s:2685   .text._ZN3r2p16SubscriberExtBufINS_7MgmtMsgEED0Ev:00000000 $t
     /tmp/ccytVDiP.s:2717   .text:00000338 $t
     /tmp/ccytVDiP.s:2721   .text:00000338 _GLOBAL__sub_I__ZN3r2p10Middleware8instanceE
     /tmp/ccytVDiP.s:2740   .init_array:00000000 $d
                     .debug_frame:00000010 $d
                           .group:00000000 _ZN3r2p10UncopyableD5Ev
                           .group:00000000 _ZN3r2p6Mutex_D5Ev
                           .group:00000000 _ZN3r2p5MutexD5Ev
                           .group:00000000 _ZN3r2p4TimeC5IlEET_
                           .group:00000000 _ZN3r2p9PublisherINS_11String64MsgEEC5Ev
                           .group:00000000 _ZN3r2p9PublisherINS_11String64MsgEED5Ev
                           .group:00000000 _ZN3r2p10StaticListINS_4NodeEED5Ev
                           .group:00000000 _ZN3r2p10StaticListINS_5TopicEED5Ev
                           .group:00000000 _ZN3r2p10StaticListINS_9TransportEED5Ev
                           .group:00000000 _ZN3r2p7ReMutexD5Ev
ARM GAS  /tmp/ccytVDiP.s 			page 469


                           .group:00000000 _ZN3r2p11MemoryPool_D5Ev
                           .group:00000000 _ZN3r2p10StaticListINS_15LocalSubscriberEED5Ev
                           .group:00000000 _ZN3r2p10StaticListINS_16RemoteSubscriberEED5Ev
                           .group:00000000 _ZN3r2p5TopicD5Ev
                           .group:00000000 _ZN3r2p10MiddlewareD5Ev
                           .group:00000000 _ZN3r2p9PublisherINS_7MgmtMsgEED5Ev
                           .group:00000000 _ZN3r2p16SubscriberExtBufINS_7MgmtMsgEED5Ev

UNDEFINED SYMBOLS
dbg_check_lock
dbg_check_unlock
chPoolAllocI
chDbgPanic
chThdCreateFromHeap
chThdSleep
chThdYield
chEvtSignalI
_ZN3r2p4Time3nowEv
_ZN3r2p10Middleware15boot_mode_magicE
_pal_lld_setgroupmode
_ZN3r2p4NodeC1EPKcb
sprintf
_ZN3r2p4NodeD1Ev
rlist
_ZN3r2p4Time8INFINITEE
halInit
chSysInit
_Znaj
_ZN3r2p10Middleware10initializeEPvjmS1_jm
sduObjectInit
sduStart
usbStart
sdStart
_ZN3r2p14DebugTransport10initializeEPvjmS1_jm
_ZN3r2p10Middleware5startEv
SDU1
serusbcfg
usbcfg
SD3
_ZN3r2p11ledsub_nodeEPv
_ZN3r2p14LocalPublisherC2Ev
_ZN3r2p14LocalPublisherD2Ev
_ZdlPv
_ZN3r2p4Node9advertiseERNS_14LocalPublisherEPKcRKNS_4TimeEj
_ZN3r2p13BasePublisher7publishERNS_7MessageE
_ZN3r2p15LocalSubscriber6notifyERNS_7MessageERKNS_4TimeE
_ZN3r2p15LocalSubscriber5fetchERPNS_7MessageERNS_4TimeE
_ZN3r2p14DebugTransportC1EPKcP11BaseChannelPc
__aeabi_atexit
_ZN3r2p10MiddlewareC1EPKcS2_PNS0_10PubSubStepEj
_ZN3r2p14DebugTransportD1Ev
__dso_handle
_ZN3r2p15LocalSubscriberD2Ev
