ARM GAS  /tmp/ccjDI51a.s 			page 1


   1              		.syntax unified
   2              		.cpu cortex-m4
   3              		.fpu softvfp
   4              		.eabi_attribute 20, 1
   5              		.eabi_attribute 21, 1
   6              		.eabi_attribute 23, 3
   7              		.eabi_attribute 24, 1
   8              		.eabi_attribute 25, 1
   9              		.eabi_attribute 26, 1
  10              		.eabi_attribute 30, 6
  11              		.eabi_attribute 34, 1
  12              		.eabi_attribute 18, 4
  13              		.thumb
  14              		.file	"memstreams.c"
  15              		.text
  16              	.Ltext0:
  17              		.cfi_sections	.debug_frame
  18              		.align	2
  19              		.thumb
  20              		.thumb_func
  21              		.type	writes, %function
  22              	writes:
  23              	.LFB7:
  24              		.file 1 "/opt/R2P/core/ChibiOS_2.6.5/os/various/memstreams.c"
  25              		.loc 1 46 0
  26              		.cfi_startproc
  27              		@ args = 0, pretend = 0, frame = 24
  28              		@ frame_needed = 0, uses_anonymous_args = 0
  29 0000 00B5     		push	{lr}
  30              		.cfi_def_cfa_offset 4
  31              		.cfi_offset 14, -4
  32 0002 87B0     		sub	sp, sp, #28
  33              		.cfi_def_cfa_offset 32
  34 0004 0390     		str	r0, [sp, #12]
  35 0006 0291     		str	r1, [sp, #8]
  36 0008 0192     		str	r2, [sp, #4]
  37              		.loc 1 47 0
  38 000a 039B     		ldr	r3, [sp, #12]
  39 000c 0593     		str	r3, [sp, #20]
  40              		.loc 1 49 0
  41 000e 059B     		ldr	r3, [sp, #20]
  42 0010 9A68     		ldr	r2, [r3, #8]
  43 0012 059B     		ldr	r3, [sp, #20]
  44 0014 DB68     		ldr	r3, [r3, #12]
  45 0016 D21A     		subs	r2, r2, r3
  46 0018 019B     		ldr	r3, [sp, #4]
  47 001a 9A42     		cmp	r2, r3
  48 001c 05D2     		bcs	.L2
  49              		.loc 1 50 0
  50 001e 059B     		ldr	r3, [sp, #20]
  51 0020 9A68     		ldr	r2, [r3, #8]
  52 0022 059B     		ldr	r3, [sp, #20]
  53 0024 DB68     		ldr	r3, [r3, #12]
  54 0026 D31A     		subs	r3, r2, r3
  55 0028 0193     		str	r3, [sp, #4]
  56              	.L2:
  57              		.loc 1 51 0
ARM GAS  /tmp/ccjDI51a.s 			page 2


  58 002a 059B     		ldr	r3, [sp, #20]
  59 002c 5A68     		ldr	r2, [r3, #4]
  60 002e 059B     		ldr	r3, [sp, #20]
  61 0030 DB68     		ldr	r3, [r3, #12]
  62 0032 1344     		add	r3, r3, r2
  63 0034 1846     		mov	r0, r3
  64 0036 0299     		ldr	r1, [sp, #8]
  65 0038 019A     		ldr	r2, [sp, #4]
  66 003a FFF7FEFF 		bl	memcpy
  67              		.loc 1 52 0
  68 003e 059B     		ldr	r3, [sp, #20]
  69 0040 DA68     		ldr	r2, [r3, #12]
  70 0042 019B     		ldr	r3, [sp, #4]
  71 0044 1A44     		add	r2, r2, r3
  72 0046 059B     		ldr	r3, [sp, #20]
  73 0048 DA60     		str	r2, [r3, #12]
  74              		.loc 1 53 0
  75 004a 019B     		ldr	r3, [sp, #4]
  76              		.loc 1 54 0
  77 004c 1846     		mov	r0, r3
  78 004e 07B0     		add	sp, sp, #28
  79              		.cfi_def_cfa_offset 4
  80              		@ sp needed
  81 0050 5DF804FB 		ldr	pc, [sp], #4
  82              		.cfi_endproc
  83              	.LFE7:
  84              		.size	writes, .-writes
  85              		.align	2
  86              		.thumb
  87              		.thumb_func
  88              		.type	reads, %function
  89              	reads:
  90              	.LFB8:
  91              		.loc 1 56 0
  92              		.cfi_startproc
  93              		@ args = 0, pretend = 0, frame = 24
  94              		@ frame_needed = 0, uses_anonymous_args = 0
  95 0054 00B5     		push	{lr}
  96              		.cfi_def_cfa_offset 4
  97              		.cfi_offset 14, -4
  98 0056 87B0     		sub	sp, sp, #28
  99              		.cfi_def_cfa_offset 32
 100 0058 0390     		str	r0, [sp, #12]
 101 005a 0291     		str	r1, [sp, #8]
 102 005c 0192     		str	r2, [sp, #4]
 103              		.loc 1 57 0
 104 005e 039B     		ldr	r3, [sp, #12]
 105 0060 0593     		str	r3, [sp, #20]
 106              		.loc 1 59 0
 107 0062 059B     		ldr	r3, [sp, #20]
 108 0064 DA68     		ldr	r2, [r3, #12]
 109 0066 059B     		ldr	r3, [sp, #20]
 110 0068 1B69     		ldr	r3, [r3, #16]
 111 006a D21A     		subs	r2, r2, r3
 112 006c 019B     		ldr	r3, [sp, #4]
 113 006e 9A42     		cmp	r2, r3
 114 0070 05D2     		bcs	.L5
ARM GAS  /tmp/ccjDI51a.s 			page 3


 115              		.loc 1 60 0
 116 0072 059B     		ldr	r3, [sp, #20]
 117 0074 DA68     		ldr	r2, [r3, #12]
 118 0076 059B     		ldr	r3, [sp, #20]
 119 0078 1B69     		ldr	r3, [r3, #16]
 120 007a D31A     		subs	r3, r2, r3
 121 007c 0193     		str	r3, [sp, #4]
 122              	.L5:
 123              		.loc 1 61 0
 124 007e 059B     		ldr	r3, [sp, #20]
 125 0080 5A68     		ldr	r2, [r3, #4]
 126 0082 059B     		ldr	r3, [sp, #20]
 127 0084 1B69     		ldr	r3, [r3, #16]
 128 0086 1344     		add	r3, r3, r2
 129 0088 0298     		ldr	r0, [sp, #8]
 130 008a 1946     		mov	r1, r3
 131 008c 019A     		ldr	r2, [sp, #4]
 132 008e FFF7FEFF 		bl	memcpy
 133              		.loc 1 62 0
 134 0092 059B     		ldr	r3, [sp, #20]
 135 0094 1A69     		ldr	r2, [r3, #16]
 136 0096 019B     		ldr	r3, [sp, #4]
 137 0098 1A44     		add	r2, r2, r3
 138 009a 059B     		ldr	r3, [sp, #20]
 139 009c 1A61     		str	r2, [r3, #16]
 140              		.loc 1 63 0
 141 009e 019B     		ldr	r3, [sp, #4]
 142              		.loc 1 64 0
 143 00a0 1846     		mov	r0, r3
 144 00a2 07B0     		add	sp, sp, #28
 145              		.cfi_def_cfa_offset 4
 146              		@ sp needed
 147 00a4 5DF804FB 		ldr	pc, [sp], #4
 148              		.cfi_endproc
 149              	.LFE8:
 150              		.size	reads, .-reads
 151              		.align	2
 152              		.thumb
 153              		.thumb_func
 154              		.type	put, %function
 155              	put:
 156              	.LFB9:
 157              		.loc 1 66 0
 158              		.cfi_startproc
 159              		@ args = 0, pretend = 0, frame = 16
 160              		@ frame_needed = 0, uses_anonymous_args = 0
 161              		@ link register save eliminated.
 162 00a8 84B0     		sub	sp, sp, #16
 163              		.cfi_def_cfa_offset 16
 164 00aa 0190     		str	r0, [sp, #4]
 165 00ac 0B46     		mov	r3, r1
 166 00ae 8DF80330 		strb	r3, [sp, #3]
 167              		.loc 1 67 0
 168 00b2 019B     		ldr	r3, [sp, #4]
 169 00b4 0393     		str	r3, [sp, #12]
 170              		.loc 1 69 0
 171 00b6 039B     		ldr	r3, [sp, #12]
ARM GAS  /tmp/ccjDI51a.s 			page 4


 172 00b8 9A68     		ldr	r2, [r3, #8]
 173 00ba 039B     		ldr	r3, [sp, #12]
 174 00bc DB68     		ldr	r3, [r3, #12]
 175 00be 9A42     		cmp	r2, r3
 176 00c0 02D1     		bne	.L8
 177              		.loc 1 70 0
 178 00c2 6FF00103 		mvn	r3, #1
 179 00c6 0DE0     		b	.L9
 180              	.L8:
 181              		.loc 1 71 0
 182 00c8 039B     		ldr	r3, [sp, #12]
 183 00ca 5A68     		ldr	r2, [r3, #4]
 184 00cc 039B     		ldr	r3, [sp, #12]
 185 00ce DB68     		ldr	r3, [r3, #12]
 186 00d0 1344     		add	r3, r3, r2
 187 00d2 9DF80320 		ldrb	r2, [sp, #3]
 188 00d6 1A70     		strb	r2, [r3]
 189              		.loc 1 72 0
 190 00d8 039B     		ldr	r3, [sp, #12]
 191 00da DB68     		ldr	r3, [r3, #12]
 192 00dc 5A1C     		adds	r2, r3, #1
 193 00de 039B     		ldr	r3, [sp, #12]
 194 00e0 DA60     		str	r2, [r3, #12]
 195              		.loc 1 73 0
 196 00e2 0023     		movs	r3, #0
 197              	.L9:
 198              		.loc 1 74 0
 199 00e4 1846     		mov	r0, r3
 200 00e6 04B0     		add	sp, sp, #16
 201              		.cfi_def_cfa_offset 0
 202              		@ sp needed
 203 00e8 7047     		bx	lr
 204              		.cfi_endproc
 205              	.LFE9:
 206              		.size	put, .-put
 207 00ea 00BF     		.align	2
 208              		.thumb
 209              		.thumb_func
 210              		.type	get, %function
 211              	get:
 212              	.LFB10:
 213              		.loc 1 76 0
 214              		.cfi_startproc
 215              		@ args = 0, pretend = 0, frame = 16
 216              		@ frame_needed = 0, uses_anonymous_args = 0
 217              		@ link register save eliminated.
 218 00ec 84B0     		sub	sp, sp, #16
 219              		.cfi_def_cfa_offset 16
 220 00ee 0190     		str	r0, [sp, #4]
 221              		.loc 1 78 0
 222 00f0 019B     		ldr	r3, [sp, #4]
 223 00f2 0393     		str	r3, [sp, #12]
 224              		.loc 1 80 0
 225 00f4 039B     		ldr	r3, [sp, #12]
 226 00f6 DA68     		ldr	r2, [r3, #12]
 227 00f8 039B     		ldr	r3, [sp, #12]
 228 00fa 1B69     		ldr	r3, [r3, #16]
ARM GAS  /tmp/ccjDI51a.s 			page 5


 229 00fc 9A42     		cmp	r2, r3
 230 00fe 02D1     		bne	.L11
 231              		.loc 1 81 0
 232 0100 6FF00103 		mvn	r3, #1
 233 0104 0EE0     		b	.L12
 234              	.L11:
 235              		.loc 1 82 0
 236 0106 039B     		ldr	r3, [sp, #12]
 237 0108 5A68     		ldr	r2, [r3, #4]
 238 010a 039B     		ldr	r3, [sp, #12]
 239 010c 1B69     		ldr	r3, [r3, #16]
 240 010e 1344     		add	r3, r3, r2
 241 0110 1B78     		ldrb	r3, [r3]
 242 0112 8DF80B30 		strb	r3, [sp, #11]
 243              		.loc 1 83 0
 244 0116 039B     		ldr	r3, [sp, #12]
 245 0118 1B69     		ldr	r3, [r3, #16]
 246 011a 5A1C     		adds	r2, r3, #1
 247 011c 039B     		ldr	r3, [sp, #12]
 248 011e 1A61     		str	r2, [r3, #16]
 249              		.loc 1 84 0
 250 0120 9DF80B30 		ldrb	r3, [sp, #11]	@ zero_extendqisi2
 251              	.L12:
 252              		.loc 1 85 0
 253 0124 1846     		mov	r0, r3
 254 0126 04B0     		add	sp, sp, #16
 255              		.cfi_def_cfa_offset 0
 256              		@ sp needed
 257 0128 7047     		bx	lr
 258              		.cfi_endproc
 259              	.LFE10:
 260              		.size	get, .-get
 261              		.section	.rodata
 262              		.align	2
 263              		.type	vmt, %object
 264              		.size	vmt, 16
 265              	vmt:
 266 0000 00000000 		.word	writes
 267 0004 00000000 		.word	reads
 268 0008 00000000 		.word	put
 269 000c 00000000 		.word	get
 270              		.text
 271 012a 00BF     		.align	2
 272              		.global	msObjectInit
 273              		.thumb
 274              		.thumb_func
 275              		.type	msObjectInit, %function
 276              	msObjectInit:
 277              	.LFB11:
 278              		.loc 1 104 0
 279              		.cfi_startproc
 280              		@ args = 0, pretend = 0, frame = 16
 281              		@ frame_needed = 0, uses_anonymous_args = 0
 282              		@ link register save eliminated.
 283 012c 84B0     		sub	sp, sp, #16
 284              		.cfi_def_cfa_offset 16
 285 012e 0390     		str	r0, [sp, #12]
ARM GAS  /tmp/ccjDI51a.s 			page 6


 286 0130 0291     		str	r1, [sp, #8]
 287 0132 0192     		str	r2, [sp, #4]
 288 0134 0093     		str	r3, [sp]
 289              		.loc 1 106 0
 290 0136 039B     		ldr	r3, [sp, #12]
 291 0138 074A     		ldr	r2, .L14
 292 013a 1A60     		str	r2, [r3]
 293              		.loc 1 107 0
 294 013c 039B     		ldr	r3, [sp, #12]
 295 013e 029A     		ldr	r2, [sp, #8]
 296 0140 5A60     		str	r2, [r3, #4]
 297              		.loc 1 108 0
 298 0142 039B     		ldr	r3, [sp, #12]
 299 0144 019A     		ldr	r2, [sp, #4]
 300 0146 9A60     		str	r2, [r3, #8]
 301              		.loc 1 109 0
 302 0148 039B     		ldr	r3, [sp, #12]
 303 014a 009A     		ldr	r2, [sp]
 304 014c DA60     		str	r2, [r3, #12]
 305              		.loc 1 110 0
 306 014e 039B     		ldr	r3, [sp, #12]
 307 0150 0022     		movs	r2, #0
 308 0152 1A61     		str	r2, [r3, #16]
 309              		.loc 1 111 0
 310 0154 04B0     		add	sp, sp, #16
 311              		.cfi_def_cfa_offset 0
 312              		@ sp needed
 313 0156 7047     		bx	lr
 314              	.L15:
 315              		.align	2
 316              	.L14:
 317 0158 00000000 		.word	vmt
 318              		.cfi_endproc
 319              	.LFE11:
 320              		.size	msObjectInit, .-msObjectInit
 321              	.Letext0:
 322              		.file 2 "/opt/R2P/tools/gcc-arm-none-eabi-4_9-2014q4/lib/gcc/arm-none-eabi/4.9.3/include/stddef.h"
 323              		.file 3 "/opt/R2P/tools/gcc-arm-none-eabi-4_9-2014q4/arm-none-eabi/include/machine/_default_types.
 324              		.file 4 "/opt/R2P/tools/gcc-arm-none-eabi-4_9-2014q4/arm-none-eabi/include/stdint.h"
 325              		.file 5 "/opt/R2P/core/ChibiOS_2.6.5/os/ports/GCC/ARMCMx/chtypes.h"
 326              		.file 6 "/opt/R2P/core/ChibiOS_2.6.5/os/various/memstreams.h"