ARM GAS  /tmp/ccjDI51a.s 			page 1


   1              		.syntax unified
   2              		.cpu cortex-m4
   3              		.fpu softvfp
   4              		.eabi_attribute 20, 1
   5              		.eabi_attribute 21, 1
   6              		.eabi_attribute 23, 3
   7              		.eabi_attribute 24, 1
   8              		.eabi_attribute 25, 1
   9              		.eabi_attribute 26, 1
  10              		.eabi_attribute 30, 6
  11              		.eabi_attribute 34, 1
  12              		.eabi_attribute 18, 4
  13              		.thumb
  14              		.file	"memstreams.c"
  15              		.text
  16              	.Ltext0:
  17              		.cfi_sections	.debug_frame
  18              		.align	2
  19              		.thumb
  20              		.thumb_func
  21              		.type	writes, %function
  22              	writes:
  23              	.LFB7:
  24              		.file 1 "/opt/R2P/core/ChibiOS_2.6.5/os/various/memstreams.c"
  25              		.loc 1 46 0
  26              		.cfi_startproc
  27              		@ args = 0, pretend = 0, frame = 24
  28              		@ frame_needed = 0, uses_anonymous_args = 0
  29 0000 00B5     		push	{lr}
  30              		.cfi_def_cfa_offset 4
  31              		.cfi_offset 14, -4
  32 0002 87B0     		sub	sp, sp, #28
  33              		.cfi_def_cfa_offset 32
  34 0004 0390     		str	r0, [sp, #12]
  35 0006 0291     		str	r1, [sp, #8]
  36 0008 0192     		str	r2, [sp, #4]
  37              		.loc 1 47 0
  38 000a 039B     		ldr	r3, [sp, #12]
  39 000c 0593     		str	r3, [sp, #20]
  40              		.loc 1 49 0
  41 000e 059B     		ldr	r3, [sp, #20]
  42 0010 9A68     		ldr	r2, [r3, #8]
  43 0012 059B     		ldr	r3, [sp, #20]
  44 0014 DB68     		ldr	r3, [r3, #12]
  45 0016 D21A     		subs	r2, r2, r3
  46 0018 019B     		ldr	r3, [sp, #4]
  47 001a 9A42     		cmp	r2, r3
  48 001c 05D2     		bcs	.L2
  49              		.loc 1 50 0
  50 001e 059B     		ldr	r3, [sp, #20]
  51 0020 9A68     		ldr	r2, [r3, #8]
  52 0022 059B     		ldr	r3, [sp, #20]
  53 0024 DB68     		ldr	r3, [r3, #12]
  54 0026 D31A     		subs	r3, r2, r3
  55 0028 0193     		str	r3, [sp, #4]
  56              	.L2:
  57              		.loc 1 51 0
ARM GAS  /tmp/ccjDI51a.s 			page 2


  58 002a 059B     		ldr	r3, [sp, #20]
  59 002c 5A68     		ldr	r2, [r3, #4]
  60 002e 059B     		ldr	r3, [sp, #20]
  61 0030 DB68     		ldr	r3, [r3, #12]
  62 0032 1344     		add	r3, r3, r2
  63 0034 1846     		mov	r0, r3
  64 0036 0299     		ldr	r1, [sp, #8]
  65 0038 019A     		ldr	r2, [sp, #4]
  66 003a FFF7FEFF 		bl	memcpy
  67              		.loc 1 52 0
  68 003e 059B     		ldr	r3, [sp, #20]
  69 0040 DA68     		ldr	r2, [r3, #12]
  70 0042 019B     		ldr	r3, [sp, #4]
  71 0044 1A44     		add	r2, r2, r3
  72 0046 059B     		ldr	r3, [sp, #20]
  73 0048 DA60     		str	r2, [r3, #12]
  74              		.loc 1 53 0
  75 004a 019B     		ldr	r3, [sp, #4]
  76              		.loc 1 54 0
  77 004c 1846     		mov	r0, r3
  78 004e 07B0     		add	sp, sp, #28
  79              		.cfi_def_cfa_offset 4
  80              		@ sp needed
  81 0050 5DF804FB 		ldr	pc, [sp], #4
  82              		.cfi_endproc
  83              	.LFE7:
  84              		.size	writes, .-writes
  85              		.align	2
  86              		.thumb
  87              		.thumb_func
  88              		.type	reads, %function
  89              	reads:
  90              	.LFB8:
  91              		.loc 1 56 0
  92              		.cfi_startproc
  93              		@ args = 0, pretend = 0, frame = 24
  94              		@ frame_needed = 0, uses_anonymous_args = 0
  95 0054 00B5     		push	{lr}
  96              		.cfi_def_cfa_offset 4
  97              		.cfi_offset 14, -4
  98 0056 87B0     		sub	sp, sp, #28
  99              		.cfi_def_cfa_offset 32
 100 0058 0390     		str	r0, [sp, #12]
 101 005a 0291     		str	r1, [sp, #8]
 102 005c 0192     		str	r2, [sp, #4]
 103              		.loc 1 57 0
 104 005e 039B     		ldr	r3, [sp, #12]
 105 0060 0593     		str	r3, [sp, #20]
 106              		.loc 1 59 0
 107 0062 059B     		ldr	r3, [sp, #20]
 108 0064 DA68     		ldr	r2, [r3, #12]
 109 0066 059B     		ldr	r3, [sp, #20]
 110 0068 1B69     		ldr	r3, [r3, #16]
 111 006a D21A     		subs	r2, r2, r3
 112 006c 019B     		ldr	r3, [sp, #4]
 113 006e 9A42     		cmp	r2, r3
 114 0070 05D2     		bcs	.L5
ARM GAS  /tmp/ccjDI51a.s 			page 3


 115              		.loc 1 60 0
 116 0072 059B     		ldr	r3, [sp, #20]
 117 0074 DA68     		ldr	r2, [r3, #12]
 118 0076 059B     		ldr	r3, [sp, #20]
 119 0078 1B69     		ldr	r3, [r3, #16]
 120 007a D31A     		subs	r3, r2, r3
 121 007c 0193     		str	r3, [sp, #4]
 122              	.L5:
 123              		.loc 1 61 0
 124 007e 059B     		ldr	r3, [sp, #20]
 125 0080 5A68     		ldr	r2, [r3, #4]
 126 0082 059B     		ldr	r3, [sp, #20]
 127 0084 1B69     		ldr	r3, [r3, #16]
 128 0086 1344     		add	r3, r3, r2
 129 0088 0298     		ldr	r0, [sp, #8]
 130 008a 1946     		mov	r1, r3
 131 008c 019A     		ldr	r2, [sp, #4]
 132 008e FFF7FEFF 		bl	memcpy
 133              		.loc 1 62 0
 134 0092 059B     		ldr	r3, [sp, #20]
 135 0094 1A69     		ldr	r2, [r3, #16]
 136 0096 019B     		ldr	r3, [sp, #4]
 137 0098 1A44     		add	r2, r2, r3
 138 009a 059B     		ldr	r3, [sp, #20]
 139 009c 1A61     		str	r2, [r3, #16]
 140              		.loc 1 63 0
 141 009e 019B     		ldr	r3, [sp, #4]
 142              		.loc 1 64 0
 143 00a0 1846     		mov	r0, r3
 144 00a2 07B0     		add	sp, sp, #28
 145              		.cfi_def_cfa_offset 4
 146              		@ sp needed
 147 00a4 5DF804FB 		ldr	pc, [sp], #4
 148              		.cfi_endproc
 149              	.LFE8:
 150              		.size	reads, .-reads
 151              		.align	2
 152              		.thumb
 153              		.thumb_func
 154              		.type	put, %function
 155              	put:
 156              	.LFB9:
 157              		.loc 1 66 0
 158              		.cfi_startproc
 159              		@ args = 0, pretend = 0, frame = 16
 160              		@ frame_needed = 0, uses_anonymous_args = 0
 161              		@ link register save eliminated.
 162 00a8 84B0     		sub	sp, sp, #16
 163              		.cfi_def_cfa_offset 16
 164 00aa 0190     		str	r0, [sp, #4]
 165 00ac 0B46     		mov	r3, r1
 166 00ae 8DF80330 		strb	r3, [sp, #3]
 167              		.loc 1 67 0
 168 00b2 019B     		ldr	r3, [sp, #4]
 169 00b4 0393     		str	r3, [sp, #12]
 170              		.loc 1 69 0
 171 00b6 039B     		ldr	r3, [sp, #12]
ARM GAS  /tmp/ccjDI51a.s 			page 4


 172 00b8 9A68     		ldr	r2, [r3, #8]
 173 00ba 039B     		ldr	r3, [sp, #12]
 174 00bc DB68     		ldr	r3, [r3, #12]
 175 00be 9A42     		cmp	r2, r3
 176 00c0 02D1     		bne	.L8
 177              		.loc 1 70 0
 178 00c2 6FF00103 		mvn	r3, #1
 179 00c6 0DE0     		b	.L9
 180              	.L8:
 181              		.loc 1 71 0
 182 00c8 039B     		ldr	r3, [sp, #12]
 183 00ca 5A68     		ldr	r2, [r3, #4]
 184 00cc 039B     		ldr	r3, [sp, #12]
 185 00ce DB68     		ldr	r3, [r3, #12]
 186 00d0 1344     		add	r3, r3, r2
 187 00d2 9DF80320 		ldrb	r2, [sp, #3]
 188 00d6 1A70     		strb	r2, [r3]
 189              		.loc 1 72 0
 190 00d8 039B     		ldr	r3, [sp, #12]
 191 00da DB68     		ldr	r3, [r3, #12]
 192 00dc 5A1C     		adds	r2, r3, #1
 193 00de 039B     		ldr	r3, [sp, #12]
 194 00e0 DA60     		str	r2, [r3, #12]
 195              		.loc 1 73 0
 196 00e2 0023     		movs	r3, #0
 197              	.L9:
 198              		.loc 1 74 0
 199 00e4 1846     		mov	r0, r3
 200 00e6 04B0     		add	sp, sp, #16
 201              		.cfi_def_cfa_offset 0
 202              		@ sp needed
 203 00e8 7047     		bx	lr
 204              		.cfi_endproc
 205              	.LFE9:
 206              		.size	put, .-put
 207 00ea 00BF     		.align	2
 208              		.thumb
 209              		.thumb_func
 210              		.type	get, %function
 211              	get:
 212              	.LFB10:
 213              		.loc 1 76 0
 214              		.cfi_startproc
 215              		@ args = 0, pretend = 0, frame = 16
 216              		@ frame_needed = 0, uses_anonymous_args = 0
 217              		@ link register save eliminated.
 218 00ec 84B0     		sub	sp, sp, #16
 219              		.cfi_def_cfa_offset 16
 220 00ee 0190     		str	r0, [sp, #4]
 221              		.loc 1 78 0
 222 00f0 019B     		ldr	r3, [sp, #4]
 223 00f2 0393     		str	r3, [sp, #12]
 224              		.loc 1 80 0
 225 00f4 039B     		ldr	r3, [sp, #12]
 226 00f6 DA68     		ldr	r2, [r3, #12]
 227 00f8 039B     		ldr	r3, [sp, #12]
 228 00fa 1B69     		ldr	r3, [r3, #16]
ARM GAS  /tmp/ccjDI51a.s 			page 5


 229 00fc 9A42     		cmp	r2, r3
 230 00fe 02D1     		bne	.L11
 231              		.loc 1 81 0
 232 0100 6FF00103 		mvn	r3, #1
 233 0104 0EE0     		b	.L12
 234              	.L11:
 235              		.loc 1 82 0
 236 0106 039B     		ldr	r3, [sp, #12]
 237 0108 5A68     		ldr	r2, [r3, #4]
 238 010a 039B     		ldr	r3, [sp, #12]
 239 010c 1B69     		ldr	r3, [r3, #16]
 240 010e 1344     		add	r3, r3, r2
 241 0110 1B78     		ldrb	r3, [r3]
 242 0112 8DF80B30 		strb	r3, [sp, #11]
 243              		.loc 1 83 0
 244 0116 039B     		ldr	r3, [sp, #12]
 245 0118 1B69     		ldr	r3, [r3, #16]
 246 011a 5A1C     		adds	r2, r3, #1
 247 011c 039B     		ldr	r3, [sp, #12]
 248 011e 1A61     		str	r2, [r3, #16]
 249              		.loc 1 84 0
 250 0120 9DF80B30 		ldrb	r3, [sp, #11]	@ zero_extendqisi2
 251              	.L12:
 252              		.loc 1 85 0
 253 0124 1846     		mov	r0, r3
 254 0126 04B0     		add	sp, sp, #16
 255              		.cfi_def_cfa_offset 0
 256              		@ sp needed
 257 0128 7047     		bx	lr
 258              		.cfi_endproc
 259              	.LFE10:
 260              		.size	get, .-get
 261              		.section	.rodata
 262              		.align	2
 263              		.type	vmt, %object
 264              		.size	vmt, 16
 265              	vmt:
 266 0000 00000000 		.word	writes
 267 0004 00000000 		.word	reads
 268 0008 00000000 		.word	put
 269 000c 00000000 		.word	get
 270              		.text
 271 012a 00BF     		.align	2
 272              		.global	msObjectInit
 273              		.thumb
 274              		.thumb_func
 275              		.type	msObjectInit, %function
 276              	msObjectInit:
 277              	.LFB11:
 278              		.loc 1 104 0
 279              		.cfi_startproc
 280              		@ args = 0, pretend = 0, frame = 16
 281              		@ frame_needed = 0, uses_anonymous_args = 0
 282              		@ link register save eliminated.
 283 012c 84B0     		sub	sp, sp, #16
 284              		.cfi_def_cfa_offset 16
 285 012e 0390     		str	r0, [sp, #12]
ARM GAS  /tmp/ccjDI51a.s 			page 6


 286 0130 0291     		str	r1, [sp, #8]
 287 0132 0192     		str	r2, [sp, #4]
 288 0134 0093     		str	r3, [sp]
 289              		.loc 1 106 0
 290 0136 039B     		ldr	r3, [sp, #12]
 291 0138 074A     		ldr	r2, .L14
 292 013a 1A60     		str	r2, [r3]
 293              		.loc 1 107 0
 294 013c 039B     		ldr	r3, [sp, #12]
 295 013e 029A     		ldr	r2, [sp, #8]
 296 0140 5A60     		str	r2, [r3, #4]
 297              		.loc 1 108 0
 298 0142 039B     		ldr	r3, [sp, #12]
 299 0144 019A     		ldr	r2, [sp, #4]
 300 0146 9A60     		str	r2, [r3, #8]
 301              		.loc 1 109 0
 302 0148 039B     		ldr	r3, [sp, #12]
 303 014a 009A     		ldr	r2, [sp]
 304 014c DA60     		str	r2, [r3, #12]
 305              		.loc 1 110 0
 306 014e 039B     		ldr	r3, [sp, #12]
 307 0150 0022     		movs	r2, #0
 308 0152 1A61     		str	r2, [r3, #16]
 309              		.loc 1 111 0
 310 0154 04B0     		add	sp, sp, #16
 311              		.cfi_def_cfa_offset 0
 312              		@ sp needed
 313 0156 7047     		bx	lr
 314              	.L15:
 315              		.align	2
 316              	.L14:
 317 0158 00000000 		.word	vmt
 318              		.cfi_endproc
 319              	.LFE11:
 320              		.size	msObjectInit, .-msObjectInit
 321              	.Letext0:
 322              		.file 2 "/opt/R2P/tools/gcc-arm-none-eabi-4_9-2014q4/lib/gcc/arm-none-eabi/4.9.3/include/stddef.h"
 323              		.file 3 "/opt/R2P/tools/gcc-arm-none-eabi-4_9-2014q4/arm-none-eabi/include/machine/_default_types.
 324              		.file 4 "/opt/R2P/tools/gcc-arm-none-eabi-4_9-2014q4/arm-none-eabi/include/stdint.h"
 325              		.file 5 "/opt/R2P/core/ChibiOS_2.6.5/os/ports/GCC/ARMCMx/chtypes.h"
 326              		.file 6 "/opt/R2P/core/ChibiOS_2.6.5/os/various/memstreams.h"
 327              		.section	.debug_info,"",%progbits
 328              	.Ldebug_info0:
 329 0000 56030000 		.4byte	0x356
 330 0004 0400     		.2byte	0x4
 331 0006 00000000 		.4byte	.Ldebug_abbrev0
 332 000a 04       		.byte	0x4
 333 000b 01       		.uleb128 0x1
 334 000c 9C000000 		.4byte	.LASF26
 335 0010 01       		.byte	0x1
 336 0011 1B000000 		.4byte	.LASF27
 337 0015 00000000 		.4byte	.Ltext0
 338 0019 5C010000 		.4byte	.Letext0-.Ltext0
 339 001d 00000000 		.4byte	.Ldebug_line0
 340 0021 02       		.uleb128 0x2
 341 0022 04       		.byte	0x4
 342 0023 05       		.byte	0x5
ARM GAS  /tmp/ccjDI51a.s 			page 7


 343 0024 696E7400 		.ascii	"int\000"
 344 0028 03       		.uleb128 0x3
 345 0029 0A000000 		.4byte	.LASF2
 346 002d 02       		.byte	0x2
 347 002e D4       		.byte	0xd4
 348 002f 33000000 		.4byte	0x33
 349 0033 04       		.uleb128 0x4
 350 0034 04       		.byte	0x4
 351 0035 07       		.byte	0x7
 352 0036 55010000 		.4byte	.LASF0
 353 003a 04       		.uleb128 0x4
 354 003b 01       		.byte	0x1
 355 003c 06       		.byte	0x6
 356 003d 56000000 		.4byte	.LASF1
 357 0041 03       		.uleb128 0x3
 358 0042 00000000 		.4byte	.LASF3
 359 0046 03       		.byte	0x3
 360 0047 1D       		.byte	0x1d
 361 0048 4C000000 		.4byte	0x4c
 362 004c 04       		.uleb128 0x4
 363 004d 01       		.byte	0x1
 364 004e 08       		.byte	0x8
 365 004f 8E000000 		.4byte	.LASF4
 366 0053 04       		.uleb128 0x4
 367 0054 02       		.byte	0x2
 368 0055 05       		.byte	0x5
 369 0056 B2010000 		.4byte	.LASF5
 370 005a 04       		.uleb128 0x4
 371 005b 02       		.byte	0x2
 372 005c 07       		.byte	0x7
 373 005d 68000000 		.4byte	.LASF6
 374 0061 03       		.uleb128 0x3
 375 0062 11000000 		.4byte	.LASF7
 376 0066 03       		.byte	0x3
 377 0067 3F       		.byte	0x3f
 378 0068 6C000000 		.4byte	0x6c
 379 006c 04       		.uleb128 0x4
 380 006d 04       		.byte	0x4
 381 006e 05       		.byte	0x5
 382 006f C3010000 		.4byte	.LASF8
 383 0073 04       		.uleb128 0x4
 384 0074 04       		.byte	0x4
 385 0075 07       		.byte	0x7
 386 0076 43010000 		.4byte	.LASF9
 387 007a 04       		.uleb128 0x4
 388 007b 08       		.byte	0x8
 389 007c 05       		.byte	0x5
 390 007d 98010000 		.4byte	.LASF10
 391 0081 04       		.uleb128 0x4
 392 0082 08       		.byte	0x8
 393 0083 07       		.byte	0x7
 394 0084 62010000 		.4byte	.LASF11
 395 0088 04       		.uleb128 0x4
 396 0089 04       		.byte	0x4
 397 008a 07       		.byte	0x7
 398 008b 8F010000 		.4byte	.LASF12
 399 008f 05       		.uleb128 0x5
ARM GAS  /tmp/ccjDI51a.s 			page 8


 400 0090 04       		.byte	0x4
 401 0091 04       		.uleb128 0x4
 402 0092 01       		.byte	0x1
 403 0093 08       		.byte	0x8
 404 0094 A6010000 		.4byte	.LASF13
 405 0098 03       		.uleb128 0x3
 406 0099 79010000 		.4byte	.LASF14
 407 009d 04       		.byte	0x4
 408 009e 15       		.byte	0x15
 409 009f 41000000 		.4byte	0x41
 410 00a3 03       		.uleb128 0x3
 411 00a4 87010000 		.4byte	.LASF15
 412 00a8 04       		.byte	0x4
 413 00a9 2C       		.byte	0x2c
 414 00aa 61000000 		.4byte	0x61
 415 00ae 04       		.uleb128 0x4
 416 00af 01       		.byte	0x1
 417 00b0 02       		.byte	0x2
 418 00b1 DE010000 		.4byte	.LASF16
 419 00b5 03       		.uleb128 0x3
 420 00b6 81010000 		.4byte	.LASF17
 421 00ba 05       		.byte	0x5
 422 00bb 31       		.byte	0x31
 423 00bc A3000000 		.4byte	0xa3
 424 00c0 06       		.uleb128 0x6
 425 00c1 04       		.byte	0x4
 426 00c2 C6000000 		.4byte	0xc6
 427 00c6 07       		.uleb128 0x7
 428 00c7 B5000000 		.4byte	0xb5
 429 00cb D5000000 		.4byte	0xd5
 430 00cf 08       		.uleb128 0x8
 431 00d0 8F000000 		.4byte	0x8f
 432 00d4 00       		.byte	0
 433 00d5 06       		.uleb128 0x6
 434 00d6 04       		.byte	0x4
 435 00d7 98000000 		.4byte	0x98
 436 00db 07       		.uleb128 0x7
 437 00dc 28000000 		.4byte	0x28
 438 00e0 F4000000 		.4byte	0xf4
 439 00e4 08       		.uleb128 0x8
 440 00e5 8F000000 		.4byte	0x8f
 441 00e9 08       		.uleb128 0x8
 442 00ea F4000000 		.4byte	0xf4
 443 00ee 08       		.uleb128 0x8
 444 00ef 28000000 		.4byte	0x28
 445 00f3 00       		.byte	0
 446 00f4 06       		.uleb128 0x6
 447 00f5 04       		.byte	0x4
 448 00f6 FA000000 		.4byte	0xfa
 449 00fa 09       		.uleb128 0x9
 450 00fb 98000000 		.4byte	0x98
 451 00ff 06       		.uleb128 0x6
 452 0100 04       		.byte	0x4
 453 0101 DB000000 		.4byte	0xdb
 454 0105 07       		.uleb128 0x7
 455 0106 28000000 		.4byte	0x28
 456 010a 1E010000 		.4byte	0x11e
ARM GAS  /tmp/ccjDI51a.s 			page 9


 457 010e 08       		.uleb128 0x8
 458 010f 8F000000 		.4byte	0x8f
 459 0113 08       		.uleb128 0x8
 460 0114 D5000000 		.4byte	0xd5
 461 0118 08       		.uleb128 0x8
 462 0119 28000000 		.4byte	0x28
 463 011d 00       		.byte	0
 464 011e 06       		.uleb128 0x6
 465 011f 04       		.byte	0x4
 466 0120 05010000 		.4byte	0x105
 467 0124 07       		.uleb128 0x7
 468 0125 B5000000 		.4byte	0xb5
 469 0129 38010000 		.4byte	0x138
 470 012d 08       		.uleb128 0x8
 471 012e 8F000000 		.4byte	0x8f
 472 0132 08       		.uleb128 0x8
 473 0133 98000000 		.4byte	0x98
 474 0137 00       		.byte	0
 475 0138 06       		.uleb128 0x6
 476 0139 04       		.byte	0x4
 477 013a 24010000 		.4byte	0x124
 478 013e 0A       		.uleb128 0xa
 479 013f 81000000 		.4byte	.LASF28
 480 0143 10       		.byte	0x10
 481 0144 06       		.byte	0x6
 482 0145 3D       		.byte	0x3d
 483 0146 7B010000 		.4byte	0x17b
 484 014a 0B       		.uleb128 0xb
 485 014b 7B000000 		.4byte	.LASF18
 486 014f 06       		.byte	0x6
 487 0150 3E       		.byte	0x3e
 488 0151 FF000000 		.4byte	0xff
 489 0155 00       		.byte	0
 490 0156 0B       		.uleb128 0xb
 491 0157 3E010000 		.4byte	.LASF19
 492 015b 06       		.byte	0x6
 493 015c 3E       		.byte	0x3e
 494 015d 1E010000 		.4byte	0x11e
 495 0161 04       		.byte	0x4
 496 0162 0C       		.uleb128 0xc
 497 0163 70757400 		.ascii	"put\000"
 498 0167 06       		.byte	0x6
 499 0168 3E       		.byte	0x3e
 500 0169 38010000 		.4byte	0x138
 501 016d 08       		.byte	0x8
 502 016e 0C       		.uleb128 0xc
 503 016f 67657400 		.ascii	"get\000"
 504 0173 06       		.byte	0x6
 505 0174 3E       		.byte	0x3e
 506 0175 C0000000 		.4byte	0xc0
 507 0179 0C       		.byte	0xc
 508 017a 00       		.byte	0
 509 017b 0D       		.uleb128 0xd
 510 017c 14       		.byte	0x14
 511 017d 06       		.byte	0x6
 512 017e 46       		.byte	0x46
 513 017f C0010000 		.4byte	0x1c0
ARM GAS  /tmp/ccjDI51a.s 			page 10


 514 0183 0C       		.uleb128 0xc
 515 0184 766D7400 		.ascii	"vmt\000"
 516 0188 06       		.byte	0x6
 517 0189 48       		.byte	0x48
 518 018a C0010000 		.4byte	0x1c0
 519 018e 00       		.byte	0
 520 018f 0B       		.uleb128 0xb
 521 0190 BC010000 		.4byte	.LASF20
 522 0194 06       		.byte	0x6
 523 0195 49       		.byte	0x49
 524 0196 D5000000 		.4byte	0xd5
 525 019a 04       		.byte	0x4
 526 019b 0B       		.uleb128 0xb
 527 019c D9010000 		.4byte	.LASF21
 528 01a0 06       		.byte	0x6
 529 01a1 49       		.byte	0x49
 530 01a2 28000000 		.4byte	0x28
 531 01a6 08       		.byte	0x8
 532 01a7 0C       		.uleb128 0xc
 533 01a8 656F7300 		.ascii	"eos\000"
 534 01ac 06       		.byte	0x6
 535 01ad 49       		.byte	0x49
 536 01ae 28000000 		.4byte	0x28
 537 01b2 0C       		.byte	0xc
 538 01b3 0B       		.uleb128 0xb
 539 01b4 AB010000 		.4byte	.LASF22
 540 01b8 06       		.byte	0x6
 541 01b9 49       		.byte	0x49
 542 01ba 28000000 		.4byte	0x28
 543 01be 10       		.byte	0x10
 544 01bf 00       		.byte	0
 545 01c0 06       		.uleb128 0x6
 546 01c1 04       		.byte	0x4
 547 01c2 C6010000 		.4byte	0x1c6
 548 01c6 09       		.uleb128 0x9
 549 01c7 3E010000 		.4byte	0x13e
 550 01cb 03       		.uleb128 0x3
 551 01cc CC010000 		.4byte	.LASF23
 552 01d0 06       		.byte	0x6
 553 01d1 4A       		.byte	0x4a
 554 01d2 7B010000 		.4byte	0x17b
 555 01d6 0E       		.uleb128 0xe
 556 01d7 4F000000 		.4byte	.LASF24
 557 01db 01       		.byte	0x1
 558 01dc 2E       		.byte	0x2e
 559 01dd 28000000 		.4byte	0x28
 560 01e1 00000000 		.4byte	.LFB7
 561 01e5 54000000 		.4byte	.LFE7-.LFB7
 562 01e9 01       		.uleb128 0x1
 563 01ea 9C       		.byte	0x9c
 564 01eb 24020000 		.4byte	0x224
 565 01ef 0F       		.uleb128 0xf
 566 01f0 697000   		.ascii	"ip\000"
 567 01f3 01       		.byte	0x1
 568 01f4 2E       		.byte	0x2e
 569 01f5 8F000000 		.4byte	0x8f
 570 01f9 02       		.uleb128 0x2
ARM GAS  /tmp/ccjDI51a.s 			page 11


 571 01fa 91       		.byte	0x91
 572 01fb 6C       		.sleb128 -20
 573 01fc 0F       		.uleb128 0xf
 574 01fd 627000   		.ascii	"bp\000"
 575 0200 01       		.byte	0x1
 576 0201 2E       		.byte	0x2e
 577 0202 F4000000 		.4byte	0xf4
 578 0206 02       		.uleb128 0x2
 579 0207 91       		.byte	0x91
 580 0208 68       		.sleb128 -24
 581 0209 0F       		.uleb128 0xf
 582 020a 6E00     		.ascii	"n\000"
 583 020c 01       		.byte	0x1
 584 020d 2E       		.byte	0x2e
 585 020e 28000000 		.4byte	0x28
 586 0212 02       		.uleb128 0x2
 587 0213 91       		.byte	0x91
 588 0214 64       		.sleb128 -28
 589 0215 10       		.uleb128 0x10
 590 0216 6D737000 		.ascii	"msp\000"
 591 021a 01       		.byte	0x1
 592 021b 2F       		.byte	0x2f
 593 021c 24020000 		.4byte	0x224
 594 0220 02       		.uleb128 0x2
 595 0221 91       		.byte	0x91
 596 0222 74       		.sleb128 -12
 597 0223 00       		.byte	0
 598 0224 06       		.uleb128 0x6
 599 0225 04       		.byte	0x4
 600 0226 CB010000 		.4byte	0x1cb
 601 022a 0E       		.uleb128 0xe
 602 022b 62000000 		.4byte	.LASF25
 603 022f 01       		.byte	0x1
 604 0230 38       		.byte	0x38
 605 0231 28000000 		.4byte	0x28
 606 0235 54000000 		.4byte	.LFB8
 607 0239 54000000 		.4byte	.LFE8-.LFB8
 608 023d 01       		.uleb128 0x1
 609 023e 9C       		.byte	0x9c
 610 023f 78020000 		.4byte	0x278
 611 0243 0F       		.uleb128 0xf
 612 0244 697000   		.ascii	"ip\000"
 613 0247 01       		.byte	0x1
 614 0248 38       		.byte	0x38
 615 0249 8F000000 		.4byte	0x8f
 616 024d 02       		.uleb128 0x2
 617 024e 91       		.byte	0x91
 618 024f 6C       		.sleb128 -20
 619 0250 0F       		.uleb128 0xf
 620 0251 627000   		.ascii	"bp\000"
 621 0254 01       		.byte	0x1
 622 0255 38       		.byte	0x38
 623 0256 D5000000 		.4byte	0xd5
 624 025a 02       		.uleb128 0x2
 625 025b 91       		.byte	0x91
 626 025c 68       		.sleb128 -24
 627 025d 0F       		.uleb128 0xf
ARM GAS  /tmp/ccjDI51a.s 			page 12


 628 025e 6E00     		.ascii	"n\000"
 629 0260 01       		.byte	0x1
 630 0261 38       		.byte	0x38
 631 0262 28000000 		.4byte	0x28
 632 0266 02       		.uleb128 0x2
 633 0267 91       		.byte	0x91
 634 0268 64       		.sleb128 -28
 635 0269 10       		.uleb128 0x10
 636 026a 6D737000 		.ascii	"msp\000"
 637 026e 01       		.byte	0x1
 638 026f 39       		.byte	0x39
 639 0270 24020000 		.4byte	0x224
 640 0274 02       		.uleb128 0x2
 641 0275 91       		.byte	0x91
 642 0276 74       		.sleb128 -12
 643 0277 00       		.byte	0
 644 0278 11       		.uleb128 0x11
 645 0279 70757400 		.ascii	"put\000"
 646 027d 01       		.byte	0x1
 647 027e 42       		.byte	0x42
 648 027f B5000000 		.4byte	0xb5
 649 0283 A8000000 		.4byte	.LFB9
 650 0287 42000000 		.4byte	.LFE9-.LFB9
 651 028b 01       		.uleb128 0x1
 652 028c 9C       		.byte	0x9c
 653 028d B9020000 		.4byte	0x2b9
 654 0291 0F       		.uleb128 0xf
 655 0292 697000   		.ascii	"ip\000"
 656 0295 01       		.byte	0x1
 657 0296 42       		.byte	0x42
 658 0297 8F000000 		.4byte	0x8f
 659 029b 02       		.uleb128 0x2
 660 029c 91       		.byte	0x91
 661 029d 74       		.sleb128 -12
 662 029e 0F       		.uleb128 0xf
 663 029f 6200     		.ascii	"b\000"
 664 02a1 01       		.byte	0x1
 665 02a2 42       		.byte	0x42
 666 02a3 98000000 		.4byte	0x98
 667 02a7 02       		.uleb128 0x2
 668 02a8 91       		.byte	0x91
 669 02a9 73       		.sleb128 -13
 670 02aa 10       		.uleb128 0x10
 671 02ab 6D737000 		.ascii	"msp\000"
 672 02af 01       		.byte	0x1
 673 02b0 43       		.byte	0x43
 674 02b1 24020000 		.4byte	0x224
 675 02b5 02       		.uleb128 0x2
 676 02b6 91       		.byte	0x91
 677 02b7 7C       		.sleb128 -4
 678 02b8 00       		.byte	0
 679 02b9 11       		.uleb128 0x11
 680 02ba 67657400 		.ascii	"get\000"
 681 02be 01       		.byte	0x1
 682 02bf 4C       		.byte	0x4c
 683 02c0 B5000000 		.4byte	0xb5
 684 02c4 EC000000 		.4byte	.LFB10
ARM GAS  /tmp/ccjDI51a.s 			page 13


 685 02c8 3E000000 		.4byte	.LFE10-.LFB10
 686 02cc 01       		.uleb128 0x1
 687 02cd 9C       		.byte	0x9c
 688 02ce FA020000 		.4byte	0x2fa
 689 02d2 0F       		.uleb128 0xf
 690 02d3 697000   		.ascii	"ip\000"
 691 02d6 01       		.byte	0x1
 692 02d7 4C       		.byte	0x4c
 693 02d8 8F000000 		.4byte	0x8f
 694 02dc 02       		.uleb128 0x2
 695 02dd 91       		.byte	0x91
 696 02de 74       		.sleb128 -12
 697 02df 10       		.uleb128 0x10
 698 02e0 6200     		.ascii	"b\000"
 699 02e2 01       		.byte	0x1
 700 02e3 4D       		.byte	0x4d
 701 02e4 98000000 		.4byte	0x98
 702 02e8 02       		.uleb128 0x2
 703 02e9 91       		.byte	0x91
 704 02ea 7B       		.sleb128 -5
 705 02eb 10       		.uleb128 0x10
 706 02ec 6D737000 		.ascii	"msp\000"
 707 02f0 01       		.byte	0x1
 708 02f1 4E       		.byte	0x4e
 709 02f2 24020000 		.4byte	0x224
 710 02f6 02       		.uleb128 0x2
 711 02f7 91       		.byte	0x91
 712 02f8 7C       		.sleb128 -4
 713 02f9 00       		.byte	0
 714 02fa 12       		.uleb128 0x12
 715 02fb 31010000 		.4byte	.LASF29
 716 02ff 01       		.byte	0x1
 717 0300 67       		.byte	0x67
 718 0301 2C010000 		.4byte	.LFB11
 719 0305 30000000 		.4byte	.LFE11-.LFB11
 720 0309 01       		.uleb128 0x1
 721 030a 9C       		.byte	0x9c
 722 030b 48030000 		.4byte	0x348
 723 030f 0F       		.uleb128 0xf
 724 0310 6D737000 		.ascii	"msp\000"
 725 0314 01       		.byte	0x1
 726 0315 67       		.byte	0x67
 727 0316 24020000 		.4byte	0x224
 728 031a 02       		.uleb128 0x2
 729 031b 91       		.byte	0x91
 730 031c 7C       		.sleb128 -4
 731 031d 13       		.uleb128 0x13
 732 031e BC010000 		.4byte	.LASF20
 733 0322 01       		.byte	0x1
 734 0323 67       		.byte	0x67
 735 0324 D5000000 		.4byte	0xd5
 736 0328 02       		.uleb128 0x2
 737 0329 91       		.byte	0x91
 738 032a 78       		.sleb128 -8
 739 032b 13       		.uleb128 0x13
 740 032c D9010000 		.4byte	.LASF21
 741 0330 01       		.byte	0x1
ARM GAS  /tmp/ccjDI51a.s 			page 14


 742 0331 68       		.byte	0x68
 743 0332 28000000 		.4byte	0x28
 744 0336 02       		.uleb128 0x2
 745 0337 91       		.byte	0x91
 746 0338 74       		.sleb128 -12
 747 0339 0F       		.uleb128 0xf
 748 033a 656F7300 		.ascii	"eos\000"
 749 033e 01       		.byte	0x1
 750 033f 68       		.byte	0x68
 751 0340 28000000 		.4byte	0x28
 752 0344 02       		.uleb128 0x2
 753 0345 91       		.byte	0x91
 754 0346 70       		.sleb128 -16
 755 0347 00       		.byte	0
 756 0348 10       		.uleb128 0x10
 757 0349 766D7400 		.ascii	"vmt\000"
 758 034d 01       		.byte	0x1
 759 034e 57       		.byte	0x57
 760 034f C6010000 		.4byte	0x1c6
 761 0353 05       		.uleb128 0x5
 762 0354 03       		.byte	0x3
 763 0355 00000000 		.4byte	vmt
 764 0359 00       		.byte	0
 765              		.section	.debug_abbrev,"",%progbits
 766              	.Ldebug_abbrev0:
 767 0000 01       		.uleb128 0x1
 768 0001 11       		.uleb128 0x11
 769 0002 01       		.byte	0x1
 770 0003 25       		.uleb128 0x25
 771 0004 0E       		.uleb128 0xe
 772 0005 13       		.uleb128 0x13
 773 0006 0B       		.uleb128 0xb
 774 0007 03       		.uleb128 0x3
 775 0008 0E       		.uleb128 0xe
 776 0009 11       		.uleb128 0x11
 777 000a 01       		.uleb128 0x1
 778 000b 12       		.uleb128 0x12
 779 000c 06       		.uleb128 0x6
 780 000d 10       		.uleb128 0x10
 781 000e 17       		.uleb128 0x17
 782 000f 00       		.byte	0
 783 0010 00       		.byte	0
 784 0011 02       		.uleb128 0x2
 785 0012 24       		.uleb128 0x24
 786 0013 00       		.byte	0
 787 0014 0B       		.uleb128 0xb
 788 0015 0B       		.uleb128 0xb
 789 0016 3E       		.uleb128 0x3e
 790 0017 0B       		.uleb128 0xb
 791 0018 03       		.uleb128 0x3
 792 0019 08       		.uleb128 0x8
 793 001a 00       		.byte	0
 794 001b 00       		.byte	0
 795 001c 03       		.uleb128 0x3
 796 001d 16       		.uleb128 0x16
 797 001e 00       		.byte	0
 798 001f 03       		.uleb128 0x3
ARM GAS  /tmp/ccjDI51a.s 			page 15


 799 0020 0E       		.uleb128 0xe
 800 0021 3A       		.uleb128 0x3a
 801 0022 0B       		.uleb128 0xb
 802 0023 3B       		.uleb128 0x3b
 803 0024 0B       		.uleb128 0xb
 804 0025 49       		.uleb128 0x49
 805 0026 13       		.uleb128 0x13
 806 0027 00       		.byte	0
 807 0028 00       		.byte	0
 808 0029 04       		.uleb128 0x4
 809 002a 24       		.uleb128 0x24
 810 002b 00       		.byte	0
 811 002c 0B       		.uleb128 0xb
 812 002d 0B       		.uleb128 0xb
 813 002e 3E       		.uleb128 0x3e
 814 002f 0B       		.uleb128 0xb
 815 0030 03       		.uleb128 0x3
 816 0031 0E       		.uleb128 0xe
 817 0032 00       		.byte	0
 818 0033 00       		.byte	0
 819 0034 05       		.uleb128 0x5
 820 0035 0F       		.uleb128 0xf
 821 0036 00       		.byte	0
 822 0037 0B       		.uleb128 0xb
 823 0038 0B       		.uleb128 0xb
 824 0039 00       		.byte	0
 825 003a 00       		.byte	0
 826 003b 06       		.uleb128 0x6
 827 003c 0F       		.uleb128 0xf
 828 003d 00       		.byte	0
 829 003e 0B       		.uleb128 0xb
 830 003f 0B       		.uleb128 0xb
 831 0040 49       		.uleb128 0x49
 832 0041 13       		.uleb128 0x13
 833 0042 00       		.byte	0
 834 0043 00       		.byte	0
 835 0044 07       		.uleb128 0x7
 836 0045 15       		.uleb128 0x15
 837 0046 01       		.byte	0x1
 838 0047 27       		.uleb128 0x27
 839 0048 19       		.uleb128 0x19
 840 0049 49       		.uleb128 0x49
 841 004a 13       		.uleb128 0x13
 842 004b 01       		.uleb128 0x1
 843 004c 13       		.uleb128 0x13
 844 004d 00       		.byte	0
 845 004e 00       		.byte	0
 846 004f 08       		.uleb128 0x8
 847 0050 05       		.uleb128 0x5
 848 0051 00       		.byte	0
 849 0052 49       		.uleb128 0x49
 850 0053 13       		.uleb128 0x13
 851 0054 00       		.byte	0
 852 0055 00       		.byte	0
 853 0056 09       		.uleb128 0x9
 854 0057 26       		.uleb128 0x26
 855 0058 00       		.byte	0
ARM GAS  /tmp/ccjDI51a.s 			page 16


 856 0059 49       		.uleb128 0x49
 857 005a 13       		.uleb128 0x13
 858 005b 00       		.byte	0
 859 005c 00       		.byte	0
 860 005d 0A       		.uleb128 0xa
 861 005e 13       		.uleb128 0x13
 862 005f 01       		.byte	0x1
 863 0060 03       		.uleb128 0x3
 864 0061 0E       		.uleb128 0xe
 865 0062 0B       		.uleb128 0xb
 866 0063 0B       		.uleb128 0xb
 867 0064 3A       		.uleb128 0x3a
 868 0065 0B       		.uleb128 0xb
 869 0066 3B       		.uleb128 0x3b
 870 0067 0B       		.uleb128 0xb
 871 0068 01       		.uleb128 0x1
 872 0069 13       		.uleb128 0x13
 873 006a 00       		.byte	0
 874 006b 00       		.byte	0
 875 006c 0B       		.uleb128 0xb
 876 006d 0D       		.uleb128 0xd
 877 006e 00       		.byte	0
 878 006f 03       		.uleb128 0x3
 879 0070 0E       		.uleb128 0xe
 880 0071 3A       		.uleb128 0x3a
 881 0072 0B       		.uleb128 0xb
 882 0073 3B       		.uleb128 0x3b
 883 0074 0B       		.uleb128 0xb
 884 0075 49       		.uleb128 0x49
 885 0076 13       		.uleb128 0x13
 886 0077 38       		.uleb128 0x38
 887 0078 0B       		.uleb128 0xb
 888 0079 00       		.byte	0
 889 007a 00       		.byte	0
 890 007b 0C       		.uleb128 0xc
 891 007c 0D       		.uleb128 0xd
 892 007d 00       		.byte	0
 893 007e 03       		.uleb128 0x3
 894 007f 08       		.uleb128 0x8
 895 0080 3A       		.uleb128 0x3a
 896 0081 0B       		.uleb128 0xb
 897 0082 3B       		.uleb128 0x3b
 898 0083 0B       		.uleb128 0xb
 899 0084 49       		.uleb128 0x49
 900 0085 13       		.uleb128 0x13
 901 0086 38       		.uleb128 0x38
 902 0087 0B       		.uleb128 0xb
 903 0088 00       		.byte	0
 904 0089 00       		.byte	0
 905 008a 0D       		.uleb128 0xd
 906 008b 13       		.uleb128 0x13
 907 008c 01       		.byte	0x1
 908 008d 0B       		.uleb128 0xb
 909 008e 0B       		.uleb128 0xb
 910 008f 3A       		.uleb128 0x3a
 911 0090 0B       		.uleb128 0xb
 912 0091 3B       		.uleb128 0x3b
ARM GAS  /tmp/ccjDI51a.s 			page 17


 913 0092 0B       		.uleb128 0xb
 914 0093 01       		.uleb128 0x1
 915 0094 13       		.uleb128 0x13
 916 0095 00       		.byte	0
 917 0096 00       		.byte	0
 918 0097 0E       		.uleb128 0xe
 919 0098 2E       		.uleb128 0x2e
 920 0099 01       		.byte	0x1
 921 009a 03       		.uleb128 0x3
 922 009b 0E       		.uleb128 0xe
 923 009c 3A       		.uleb128 0x3a
 924 009d 0B       		.uleb128 0xb
 925 009e 3B       		.uleb128 0x3b
 926 009f 0B       		.uleb128 0xb
 927 00a0 27       		.uleb128 0x27
 928 00a1 19       		.uleb128 0x19
 929 00a2 49       		.uleb128 0x49
 930 00a3 13       		.uleb128 0x13
 931 00a4 11       		.uleb128 0x11
 932 00a5 01       		.uleb128 0x1
 933 00a6 12       		.uleb128 0x12
 934 00a7 06       		.uleb128 0x6
 935 00a8 40       		.uleb128 0x40
 936 00a9 18       		.uleb128 0x18
 937 00aa 9642     		.uleb128 0x2116
 938 00ac 19       		.uleb128 0x19
 939 00ad 01       		.uleb128 0x1
 940 00ae 13       		.uleb128 0x13
 941 00af 00       		.byte	0
 942 00b0 00       		.byte	0
 943 00b1 0F       		.uleb128 0xf
 944 00b2 05       		.uleb128 0x5
 945 00b3 00       		.byte	0
 946 00b4 03       		.uleb128 0x3
 947 00b5 08       		.uleb128 0x8
 948 00b6 3A       		.uleb128 0x3a
 949 00b7 0B       		.uleb128 0xb
 950 00b8 3B       		.uleb128 0x3b
 951 00b9 0B       		.uleb128 0xb
 952 00ba 49       		.uleb128 0x49
 953 00bb 13       		.uleb128 0x13
 954 00bc 02       		.uleb128 0x2
 955 00bd 18       		.uleb128 0x18
 956 00be 00       		.byte	0
 957 00bf 00       		.byte	0
 958 00c0 10       		.uleb128 0x10
 959 00c1 34       		.uleb128 0x34
 960 00c2 00       		.byte	0
 961 00c3 03       		.uleb128 0x3
 962 00c4 08       		.uleb128 0x8
 963 00c5 3A       		.uleb128 0x3a
 964 00c6 0B       		.uleb128 0xb
 965 00c7 3B       		.uleb128 0x3b
 966 00c8 0B       		.uleb128 0xb
 967 00c9 49       		.uleb128 0x49
 968 00ca 13       		.uleb128 0x13
 969 00cb 02       		.uleb128 0x2
ARM GAS  /tmp/ccjDI51a.s 			page 18


 970 00cc 18       		.uleb128 0x18
 971 00cd 00       		.byte	0
 972 00ce 00       		.byte	0
 973 00cf 11       		.uleb128 0x11
 974 00d0 2E       		.uleb128 0x2e
 975 00d1 01       		.byte	0x1
 976 00d2 03       		.uleb128 0x3
 977 00d3 08       		.uleb128 0x8
 978 00d4 3A       		.uleb128 0x3a
 979 00d5 0B       		.uleb128 0xb
 980 00d6 3B       		.uleb128 0x3b
 981 00d7 0B       		.uleb128 0xb
 982 00d8 27       		.uleb128 0x27
 983 00d9 19       		.uleb128 0x19
 984 00da 49       		.uleb128 0x49
 985 00db 13       		.uleb128 0x13
 986 00dc 11       		.uleb128 0x11
 987 00dd 01       		.uleb128 0x1
 988 00de 12       		.uleb128 0x12
 989 00df 06       		.uleb128 0x6
 990 00e0 40       		.uleb128 0x40
 991 00e1 18       		.uleb128 0x18
 992 00e2 9742     		.uleb128 0x2117
 993 00e4 19       		.uleb128 0x19
 994 00e5 01       		.uleb128 0x1
 995 00e6 13       		.uleb128 0x13
 996 00e7 00       		.byte	0
 997 00e8 00       		.byte	0
 998 00e9 12       		.uleb128 0x12
 999 00ea 2E       		.uleb128 0x2e
 1000 00eb 01       		.byte	0x1
 1001 00ec 3F       		.uleb128 0x3f
 1002 00ed 19       		.uleb128 0x19
 1003 00ee 03       		.uleb128 0x3
 1004 00ef 0E       		.uleb128 0xe
 1005 00f0 3A       		.uleb128 0x3a
 1006 00f1 0B       		.uleb128 0xb
 1007 00f2 3B       		.uleb128 0x3b
 1008 00f3 0B       		.uleb128 0xb
 1009 00f4 27       		.uleb128 0x27
 1010 00f5 19       		.uleb128 0x19
 1011 00f6 11       		.uleb128 0x11
 1012 00f7 01       		.uleb128 0x1
 1013 00f8 12       		.uleb128 0x12
 1014 00f9 06       		.uleb128 0x6
 1015 00fa 40       		.uleb128 0x40
 1016 00fb 18       		.uleb128 0x18
 1017 00fc 9742     		.uleb128 0x2117
 1018 00fe 19       		.uleb128 0x19
 1019 00ff 01       		.uleb128 0x1
 1020 0100 13       		.uleb128 0x13
 1021 0101 00       		.byte	0
 1022 0102 00       		.byte	0
 1023 0103 13       		.uleb128 0x13
 1024 0104 05       		.uleb128 0x5
 1025 0105 00       		.byte	0
 1026 0106 03       		.uleb128 0x3
ARM GAS  /tmp/ccjDI51a.s 			page 19


 1027 0107 0E       		.uleb128 0xe
 1028 0108 3A       		.uleb128 0x3a
 1029 0109 0B       		.uleb128 0xb
 1030 010a 3B       		.uleb128 0x3b
 1031 010b 0B       		.uleb128 0xb
 1032 010c 49       		.uleb128 0x49
 1033 010d 13       		.uleb128 0x13
 1034 010e 02       		.uleb128 0x2
 1035 010f 18       		.uleb128 0x18
 1036 0110 00       		.byte	0
 1037 0111 00       		.byte	0
 1038 0112 00       		.byte	0
 1039              		.section	.debug_aranges,"",%progbits
 1040 0000 1C000000 		.4byte	0x1c
 1041 0004 0200     		.2byte	0x2
 1042 0006 00000000 		.4byte	.Ldebug_info0
 1043 000a 04       		.byte	0x4
 1044 000b 00       		.byte	0
 1045 000c 0000     		.2byte	0
 1046 000e 0000     		.2byte	0
 1047 0010 00000000 		.4byte	.Ltext0
 1048 0014 5C010000 		.4byte	.Letext0-.Ltext0
 1049 0018 00000000 		.4byte	0
 1050 001c 00000000 		.4byte	0
 1051              		.section	.debug_line,"",%progbits
 1052              	.Ldebug_line0:
 1053 0000 DC010000 		.section	.debug_str,"MS",%progbits,1
 1053      02009F01 
 1053      00000201 
 1053      FB0E0D00 
 1053      01010101 
 1054              	.LASF3:
 1055 0000 5F5F7569 		.ascii	"__uint8_t\000"
 1055      6E74385F 
 1055      7400
 1056              	.LASF2:
 1057 000a 73697A65 		.ascii	"size_t\000"
 1057      5F7400
 1058              	.LASF7:
 1059 0011 5F5F696E 		.ascii	"__int32_t\000"
 1059      7433325F 
 1059      7400
 1060              	.LASF27:
 1061 001b 2F6F7074 		.ascii	"/opt/R2P/core/ChibiOS_2.6.5/os/various/memstreams.c"
 1061      2F523250 
 1061      2F636F72 
 1061      652F4368 
 1061      6962694F 
 1062 004e 00       		.ascii	"\000"
 1063              	.LASF24:
 1064 004f 77726974 		.ascii	"writes\000"
 1064      657300
 1065              	.LASF1:
 1066 0056 7369676E 		.ascii	"signed char\000"
 1066      65642063 
 1066      68617200 
 1067              	.LASF25:
ARM GAS  /tmp/ccjDI51a.s 			page 20


 1068 0062 72656164 		.ascii	"reads\000"
 1068      7300
 1069              	.LASF6:
 1070 0068 73686F72 		.ascii	"short unsigned int\000"
 1070      7420756E 
 1070      7369676E 
 1070      65642069 
 1070      6E7400
 1071              	.LASF18:
 1072 007b 77726974 		.ascii	"write\000"
 1072      6500
 1073              	.LASF28:
 1074 0081 4D656D53 		.ascii	"MemStreamVMT\000"
 1074      74726561 
 1074      6D564D54 
 1074      00
 1075              	.LASF4:
 1076 008e 756E7369 		.ascii	"unsigned char\000"
 1076      676E6564 
 1076      20636861 
 1076      7200
 1077              	.LASF26:
 1078 009c 474E5520 		.ascii	"GNU C 4.9.3 20141119 (release) [ARM/embedded-4_9-br"
 1078      4320342E 
 1078      392E3320 
 1078      32303134 
 1078      31313139 
 1079 00cf 616E6368 		.ascii	"anch revision 218278] -mcpu=cortex-m4 -mno-thumb-in"
 1079      20726576 
 1079      6973696F 
 1079      6E203231 
 1079      38323738 
 1080 0102 74657277 		.ascii	"terwork -mthumb -ggdb -O0 -fomit-frame-pointer\000"
 1080      6F726B20 
 1080      2D6D7468 
 1080      756D6220 
 1080      2D676764 
 1081              	.LASF29:
 1082 0131 6D734F62 		.ascii	"msObjectInit\000"
 1082      6A656374 
 1082      496E6974 
 1082      00
 1083              	.LASF19:
 1084 013e 72656164 		.ascii	"read\000"
 1084      00
 1085              	.LASF9:
 1086 0143 6C6F6E67 		.ascii	"long unsigned int\000"
 1086      20756E73 
 1086      69676E65 
 1086      6420696E 
 1086      7400
 1087              	.LASF0:
 1088 0155 756E7369 		.ascii	"unsigned int\000"
 1088      676E6564 
 1088      20696E74 
 1088      00
 1089              	.LASF11:
ARM GAS  /tmp/ccjDI51a.s 			page 21


 1090 0162 6C6F6E67 		.ascii	"long long unsigned int\000"
 1090      206C6F6E 
 1090      6720756E 
 1090      7369676E 
 1090      65642069 
 1091              	.LASF14:
 1092 0179 75696E74 		.ascii	"uint8_t\000"
 1092      385F7400 
 1093              	.LASF17:
 1094 0181 6D73675F 		.ascii	"msg_t\000"
 1094      7400
 1095              	.LASF15:
 1096 0187 696E7433 		.ascii	"int32_t\000"
 1096      325F7400 
 1097              	.LASF12:
 1098 018f 73697A65 		.ascii	"sizetype\000"
 1098      74797065 
 1098      00
 1099              	.LASF10:
 1100 0198 6C6F6E67 		.ascii	"long long int\000"
 1100      206C6F6E 
 1100      6720696E 
 1100      7400
 1101              	.LASF13:
 1102 01a6 63686172 		.ascii	"char\000"
 1102      00
 1103              	.LASF22:
 1104 01ab 6F666673 		.ascii	"offset\000"
 1104      657400
 1105              	.LASF5:
 1106 01b2 73686F72 		.ascii	"short int\000"
 1106      7420696E 
 1106      7400
 1107              	.LASF20:
 1108 01bc 62756666 		.ascii	"buffer\000"
 1108      657200
 1109              	.LASF8:
 1110 01c3 6C6F6E67 		.ascii	"long int\000"
 1110      20696E74 
 1110      00
 1111              	.LASF23:
 1112 01cc 4D656D6F 		.ascii	"MemoryStream\000"
 1112      72795374 
 1112      7265616D 
 1112      00
 1113              	.LASF21:
 1114 01d9 73697A65 		.ascii	"size\000"
 1114      00
 1115              	.LASF16:
 1116 01de 5F426F6F 		.ascii	"_Bool\000"
 1116      6C00
 1117              		.ident	"GCC: (GNU Tools for ARM Embedded Processors) 4.9.3 20141119 (release) [ARM/embedded-4_9-br
ARM GAS  /tmp/ccjDI51a.s 			page 22


DEFINED SYMBOLS
                            *ABS*:00000000 memstreams.c
     /tmp/ccjDI51a.s:18     .text:00000000 $t
     /tmp/ccjDI51a.s:22     .text:00000000 writes
     /tmp/ccjDI51a.s:89     .text:00000054 reads
     /tmp/ccjDI51a.s:155    .text:000000a8 put
     /tmp/ccjDI51a.s:211    .text:000000ec get
     /tmp/ccjDI51a.s:262    .rodata:00000000 $d
     /tmp/ccjDI51a.s:265    .rodata:00000000 vmt
     /tmp/ccjDI51a.s:276    .text:0000012c msObjectInit
     /tmp/ccjDI51a.s:317    .text:00000158 $d
                     .debug_frame:00000010 $d

UNDEFINED SYMBOLS
memcpy
