ARM GAS  /tmp/ccIvsbEf.s 			page 1


   1              		.syntax unified
   2              		.cpu cortex-m4
   3              		.fpu softvfp
   4              		.eabi_attribute 20, 1
   5              		.eabi_attribute 21, 1
   6              		.eabi_attribute 23, 3
   7              		.eabi_attribute 24, 1
   8              		.eabi_attribute 25, 1
   9              		.eabi_attribute 26, 1
  10              		.eabi_attribute 30, 6
  11              		.eabi_attribute 34, 1
  12              		.eabi_attribute 18, 4
  13              		.thumb
  14              		.file	"Middleware.cpp"
  15              		.text
  16              	.Ltext0:
  17              		.cfi_sections	.debug_frame
  18              		.section	.text._ZN3r2p10UncopyableC2Ev,"axG",%progbits,_ZN3r2p10UncopyableC5Ev,comdat
  19              		.align	2
  20              		.weak	_ZN3r2p10UncopyableC2Ev
  21              		.thumb
  22              		.thumb_func
  23              		.type	_ZN3r2p10UncopyableC2Ev, %function
  24              	_ZN3r2p10UncopyableC2Ev:
  25              	.LFB6:
  26              		.file 1 "/opt/R2P/core/Middleware/include/r2p/Uncopyable.hpp"
  27              		.loc 1 20 0
  28              		.cfi_startproc
  29              		@ args = 0, pretend = 0, frame = 8
  30              		@ frame_needed = 0, uses_anonymous_args = 0
  31              		@ link register save eliminated.
  32 0000 82B0     		sub	sp, sp, #8
  33              		.cfi_def_cfa_offset 8
  34 0002 0190     		str	r0, [sp, #4]
  35              		.loc 1 20 0
  36 0004 019B     		ldr	r3, [sp, #4]
  37 0006 1846     		mov	r0, r3
  38 0008 02B0     		add	sp, sp, #8
  39              		.cfi_def_cfa_offset 0
  40              		@ sp needed
  41 000a 7047     		bx	lr
  42              		.cfi_endproc
  43              	.LFE6:
  44              		.size	_ZN3r2p10UncopyableC2Ev, .-_ZN3r2p10UncopyableC2Ev
  45              		.weak	_ZN3r2p10UncopyableC1Ev
  46              		.thumb_set _ZN3r2p10UncopyableC1Ev,_ZN3r2p10UncopyableC2Ev
  47              		.section	.text._ZN3r2p10UncopyableD2Ev,"axG",%progbits,_ZN3r2p10UncopyableD5Ev,comdat
  48              		.align	2
  49              		.weak	_ZN3r2p10UncopyableD2Ev
  50              		.thumb
  51              		.thumb_func
  52              		.type	_ZN3r2p10UncopyableD2Ev, %function
  53              	_ZN3r2p10UncopyableD2Ev:
  54              	.LFB9:
  55              		.loc 1 21 0
  56              		.cfi_startproc
  57              		@ args = 0, pretend = 0, frame = 8
ARM GAS  /tmp/ccIvsbEf.s 			page 2


  58              		@ frame_needed = 0, uses_anonymous_args = 0
  59              		@ link register save eliminated.
  60 0000 82B0     		sub	sp, sp, #8
  61              		.cfi_def_cfa_offset 8
  62 0002 0190     		str	r0, [sp, #4]
  63              		.loc 1 21 0
  64 0004 019B     		ldr	r3, [sp, #4]
  65 0006 1846     		mov	r0, r3
  66 0008 02B0     		add	sp, sp, #8
  67              		.cfi_def_cfa_offset 0
  68              		@ sp needed
  69 000a 7047     		bx	lr
  70              		.cfi_endproc
  71              	.LFE9:
  72              		.size	_ZN3r2p10UncopyableD2Ev, .-_ZN3r2p10UncopyableD2Ev
  73              		.weak	_ZN3r2p10UncopyableD1Ev
  74              		.thumb_set _ZN3r2p10UncopyableD1Ev,_ZN3r2p10UncopyableD2Ev
  75              		.section	.text._ZN3r2p8SysLock_7acquireEv,"axG",%progbits,_ZN3r2p8SysLock_7acquireEv,comdat
  76              		.align	2
  77              		.weak	_ZN3r2p8SysLock_7acquireEv
  78              		.thumb
  79              		.thumb_func
  80              		.type	_ZN3r2p8SysLock_7acquireEv, %function
  81              	_ZN3r2p8SysLock_7acquireEv:
  82              	.LFB18:
  83              		.file 2 "/opt/R2P/core/Middleware/port/chibios/include/r2p/impl/SysLock_.hpp"
  84              		.loc 2 20 0
  85              		.cfi_startproc
  86              		@ args = 0, pretend = 0, frame = 0
  87              		@ frame_needed = 0, uses_anonymous_args = 0
  88 0000 08B5     		push	{r3, lr}
  89              		.cfi_def_cfa_offset 8
  90              		.cfi_offset 3, -8
  91              		.cfi_offset 14, -4
  92              	.LBB49:
  93              	.LBB50:
  94              	.LBB51:
  95              		.loc 2 22 0
  96 0002 2023     		movs	r3, #32
  97              	@ 22 "/opt/R2P/core/Middleware/port/chibios/include/r2p/impl/SysLock_.hpp" 1
  98 0004 83F31188 		msr     BASEPRI, r3
  99              	@ 0 "" 2
 100              		.thumb
 101              	.LBE51:
 102 0008 FFF7FEFF 		bl	dbg_check_lock
 103              	.LBE50:
 104              	.LBE49:
 105              		.loc 2 23 0
 106 000c 08BD     		pop	{r3, pc}
 107              		.cfi_endproc
 108              	.LFE18:
 109              		.size	_ZN3r2p8SysLock_7acquireEv, .-_ZN3r2p8SysLock_7acquireEv
 110 000e 00BF     		.section	.text._ZN3r2p8SysLock_7releaseEv,"axG",%progbits,_ZN3r2p8SysLock_7releaseEv,comdat
 111              		.align	2
 112              		.weak	_ZN3r2p8SysLock_7releaseEv
 113              		.thumb
 114              		.thumb_func
ARM GAS  /tmp/ccIvsbEf.s 			page 3


 115              		.type	_ZN3r2p8SysLock_7releaseEv, %function
 116              	_ZN3r2p8SysLock_7releaseEv:
 117              	.LFB19:
 118              		.loc 2 27 0
 119              		.cfi_startproc
 120              		@ args = 0, pretend = 0, frame = 0
 121              		@ frame_needed = 0, uses_anonymous_args = 0
 122 0000 08B5     		push	{r3, lr}
 123              		.cfi_def_cfa_offset 8
 124              		.cfi_offset 3, -8
 125              		.cfi_offset 14, -4
 126              	.LBB52:
 127              	.LBB53:
 128              		.loc 2 29 0
 129 0002 FFF7FEFF 		bl	dbg_check_unlock
 130              	.LBB54:
 131 0006 0023     		movs	r3, #0
 132              	@ 29 "/opt/R2P/core/Middleware/port/chibios/include/r2p/impl/SysLock_.hpp" 1
 133 0008 83F31188 		msr     BASEPRI, r3
 134              	@ 0 "" 2
 135              		.thumb
 136              	.LBE54:
 137              	.LBE53:
 138              	.LBE52:
 139              		.loc 2 30 0
 140 000c 08BD     		pop	{r3, pc}
 141              		.cfi_endproc
 142              	.LFE19:
 143              		.size	_ZN3r2p8SysLock_7releaseEv, .-_ZN3r2p8SysLock_7releaseEv
 144 000e 00BF     		.section	.text._ZN3r2p7SysLock5ScopeC2Ev,"axG",%progbits,_ZN3r2p7SysLock5ScopeC5Ev,comdat
 145              		.align	2
 146              		.weak	_ZN3r2p7SysLock5ScopeC2Ev
 147              		.thumb
 148              		.thumb_func
 149              		.type	_ZN3r2p7SysLock5ScopeC2Ev, %function
 150              	_ZN3r2p7SysLock5ScopeC2Ev:
 151              	.LFB21:
 152              		.file 3 "/opt/R2P/core/Middleware/include/r2p/SysLock.hpp"
 153              		.loc 3 13 0
 154              		.cfi_startproc
 155              		@ args = 0, pretend = 0, frame = 8
 156              		@ frame_needed = 0, uses_anonymous_args = 0
 157 0000 00B5     		push	{lr}
 158              		.cfi_def_cfa_offset 4
 159              		.cfi_offset 14, -4
 160 0002 83B0     		sub	sp, sp, #12
 161              		.cfi_def_cfa_offset 16
 162 0004 0190     		str	r0, [sp, #4]
 163              	.LBB55:
 164              		.loc 3 13 0
 165 0006 0198     		ldr	r0, [sp, #4]
 166 0008 FFF7FEFF 		bl	_ZN3r2p10UncopyableC2Ev
 167 000c FFF7FEFF 		bl	_ZN3r2p7SysLock7acquireEv
 168              	.LBE55:
 169 0010 019B     		ldr	r3, [sp, #4]
 170 0012 1846     		mov	r0, r3
 171 0014 03B0     		add	sp, sp, #12
ARM GAS  /tmp/ccIvsbEf.s 			page 4


 172              		.cfi_def_cfa_offset 4
 173              		@ sp needed
 174 0016 5DF804FB 		ldr	pc, [sp], #4
 175              		.cfi_endproc
 176              	.LFE21:
 177              		.size	_ZN3r2p7SysLock5ScopeC2Ev, .-_ZN3r2p7SysLock5ScopeC2Ev
 178              		.weak	_ZN3r2p7SysLock5ScopeC1Ev
 179              		.thumb_set _ZN3r2p7SysLock5ScopeC1Ev,_ZN3r2p7SysLock5ScopeC2Ev
 180 001a 00BF     		.section	.text._ZN3r2p7SysLock5ScopeD2Ev,"axG",%progbits,_ZN3r2p7SysLock5ScopeD5Ev,comdat
 181              		.align	2
 182              		.weak	_ZN3r2p7SysLock5ScopeD2Ev
 183              		.thumb
 184              		.thumb_func
 185              		.type	_ZN3r2p7SysLock5ScopeD2Ev, %function
 186              	_ZN3r2p7SysLock5ScopeD2Ev:
 187              	.LFB24:
 188              		.loc 3 14 0
 189              		.cfi_startproc
 190              		@ args = 0, pretend = 0, frame = 8
 191              		@ frame_needed = 0, uses_anonymous_args = 0
 192 0000 00B5     		push	{lr}
 193              		.cfi_def_cfa_offset 4
 194              		.cfi_offset 14, -4
 195 0002 83B0     		sub	sp, sp, #12
 196              		.cfi_def_cfa_offset 16
 197 0004 0190     		str	r0, [sp, #4]
 198              	.LBB56:
 199              		.loc 3 14 0
 200 0006 FFF7FEFF 		bl	_ZN3r2p7SysLock7releaseEv
 201 000a 0198     		ldr	r0, [sp, #4]
 202 000c FFF7FEFF 		bl	_ZN3r2p10UncopyableD2Ev
 203              	.LBE56:
 204 0010 019B     		ldr	r3, [sp, #4]
 205 0012 1846     		mov	r0, r3
 206 0014 03B0     		add	sp, sp, #12
 207              		.cfi_def_cfa_offset 4
 208              		@ sp needed
 209 0016 5DF804FB 		ldr	pc, [sp], #4
 210              		.cfi_endproc
 211              	.LFE24:
 212              		.size	_ZN3r2p7SysLock5ScopeD2Ev, .-_ZN3r2p7SysLock5ScopeD2Ev
 213              		.weak	_ZN3r2p7SysLock5ScopeD1Ev
 214              		.thumb_set _ZN3r2p7SysLock5ScopeD1Ev,_ZN3r2p7SysLock5ScopeD2Ev
 215 001a 00BF     		.section	.text._ZN3r2p7SysLock7acquireEv,"axG",%progbits,_ZN3r2p7SysLock7acquireEv,comdat
 216              		.align	2
 217              		.weak	_ZN3r2p7SysLock7acquireEv
 218              		.thumb
 219              		.thumb_func
 220              		.type	_ZN3r2p7SysLock7acquireEv, %function
 221              	_ZN3r2p7SysLock7acquireEv:
 222              	.LFB26:
 223              		.loc 3 27 0
 224              		.cfi_startproc
 225              		@ args = 0, pretend = 0, frame = 0
 226              		@ frame_needed = 0, uses_anonymous_args = 0
 227 0000 08B5     		push	{r3, lr}
 228              		.cfi_def_cfa_offset 8
ARM GAS  /tmp/ccIvsbEf.s 			page 5


 229              		.cfi_offset 3, -8
 230              		.cfi_offset 14, -4
 231              		.loc 3 29 0
 232 0002 FFF7FEFF 		bl	_ZN3r2p8SysLock_7acquireEv
 233              		.loc 3 30 0
 234 0006 08BD     		pop	{r3, pc}
 235              		.cfi_endproc
 236              	.LFE26:
 237              		.size	_ZN3r2p7SysLock7acquireEv, .-_ZN3r2p7SysLock7acquireEv
 238              		.section	.text._ZN3r2p7SysLock7releaseEv,"axG",%progbits,_ZN3r2p7SysLock7releaseEv,comdat
 239              		.align	2
 240              		.weak	_ZN3r2p7SysLock7releaseEv
 241              		.thumb
 242              		.thumb_func
 243              		.type	_ZN3r2p7SysLock7releaseEv, %function
 244              	_ZN3r2p7SysLock7releaseEv:
 245              	.LFB27:
 246              		.loc 3 34 0
 247              		.cfi_startproc
 248              		@ args = 0, pretend = 0, frame = 0
 249              		@ frame_needed = 0, uses_anonymous_args = 0
 250 0000 08B5     		push	{r3, lr}
 251              		.cfi_def_cfa_offset 8
 252              		.cfi_offset 3, -8
 253              		.cfi_offset 14, -4
 254              		.loc 3 36 0
 255 0002 FFF7FEFF 		bl	_ZN3r2p8SysLock_7releaseEv
 256              		.loc 3 37 0
 257 0006 08BD     		pop	{r3, pc}
 258              		.cfi_endproc
 259              	.LFE27:
 260              		.size	_ZN3r2p7SysLock7releaseEv, .-_ZN3r2p7SysLock7releaseEv
 261              		.section	.text._ZNK3r2p11MemoryPool_13get_item_sizeEv,"axG",%progbits,_ZNK3r2p11MemoryPool_13get_i
 262              		.align	2
 263              		.weak	_ZNK3r2p11MemoryPool_13get_item_sizeEv
 264              		.thumb
 265              		.thumb_func
 266              		.type	_ZNK3r2p11MemoryPool_13get_item_sizeEv, %function
 267              	_ZNK3r2p11MemoryPool_13get_item_sizeEv:
 268              	.LFB123:
 269              		.file 4 "/opt/R2P/core/Middleware/port/chibios/include/r2p/impl/MemoryPool_.hpp"
 270              		.loc 4 39 0
 271              		.cfi_startproc
 272              		@ args = 0, pretend = 0, frame = 8
 273              		@ frame_needed = 0, uses_anonymous_args = 0
 274              		@ link register save eliminated.
 275 0000 82B0     		sub	sp, sp, #8
 276              		.cfi_def_cfa_offset 8
 277 0002 0190     		str	r0, [sp, #4]
 278              		.loc 4 41 0
 279 0004 019B     		ldr	r3, [sp, #4]
 280 0006 5B68     		ldr	r3, [r3, #4]
 281              		.loc 4 42 0
 282 0008 1846     		mov	r0, r3
 283 000a 02B0     		add	sp, sp, #8
 284              		.cfi_def_cfa_offset 0
 285              		@ sp needed
ARM GAS  /tmp/ccIvsbEf.s 			page 6


 286 000c 7047     		bx	lr
 287              		.cfi_endproc
 288              	.LFE123:
 289              		.size	_ZNK3r2p11MemoryPool_13get_item_sizeEv, .-_ZNK3r2p11MemoryPool_13get_item_sizeEv
 290 000e 00BF     		.section	.text._ZN3r2p11MemoryPool_12alloc_unsafeEv,"axG",%progbits,_ZN3r2p11MemoryPool_12alloc_un
 291              		.align	2
 292              		.weak	_ZN3r2p11MemoryPool_12alloc_unsafeEv
 293              		.thumb
 294              		.thumb_func
 295              		.type	_ZN3r2p11MemoryPool_12alloc_unsafeEv, %function
 296              	_ZN3r2p11MemoryPool_12alloc_unsafeEv:
 297              	.LFB125:
 298              		.loc 4 53 0
 299              		.cfi_startproc
 300              		@ args = 0, pretend = 0, frame = 8
 301              		@ frame_needed = 0, uses_anonymous_args = 0
 302 0000 00B5     		push	{lr}
 303              		.cfi_def_cfa_offset 4
 304              		.cfi_offset 14, -4
 305 0002 83B0     		sub	sp, sp, #12
 306              		.cfi_def_cfa_offset 16
 307 0004 0190     		str	r0, [sp, #4]
 308              		.loc 4 55 0
 309 0006 019B     		ldr	r3, [sp, #4]
 310 0008 1846     		mov	r0, r3
 311 000a FFF7FEFF 		bl	chPoolAllocI
 312 000e 0346     		mov	r3, r0
 313              		.loc 4 56 0
 314 0010 1846     		mov	r0, r3
 315 0012 03B0     		add	sp, sp, #12
 316              		.cfi_def_cfa_offset 4
 317              		@ sp needed
 318 0014 5DF804FB 		ldr	pc, [sp], #4
 319              		.cfi_endproc
 320              	.LFE125:
 321              		.size	_ZN3r2p11MemoryPool_12alloc_unsafeEv, .-_ZN3r2p11MemoryPool_12alloc_unsafeEv
 322              		.section	.text._ZN3r2p11MemoryPool_6extendEPvj,"axG",%progbits,_ZN3r2p11MemoryPool_6extendEPvj,com
 323              		.align	2
 324              		.weak	_ZN3r2p11MemoryPool_6extendEPvj
 325              		.thumb
 326              		.thumb_func
 327              		.type	_ZN3r2p11MemoryPool_6extendEPvj, %function
 328              	_ZN3r2p11MemoryPool_6extendEPvj:
 329              	.LFB129:
 330              		.loc 4 85 0
 331              		.cfi_startproc
 332              		@ args = 0, pretend = 0, frame = 16
 333              		@ frame_needed = 0, uses_anonymous_args = 0
 334 0000 00B5     		push	{lr}
 335              		.cfi_def_cfa_offset 4
 336              		.cfi_offset 14, -4
 337 0002 85B0     		sub	sp, sp, #20
 338              		.cfi_def_cfa_offset 24
 339 0004 0390     		str	r0, [sp, #12]
 340 0006 0291     		str	r1, [sp, #8]
 341 0008 0192     		str	r2, [sp, #4]
 342              		.loc 4 87 0
ARM GAS  /tmp/ccIvsbEf.s 			page 7


 343 000a 039B     		ldr	r3, [sp, #12]
 344 000c 1846     		mov	r0, r3
 345 000e 0299     		ldr	r1, [sp, #8]
 346 0010 019A     		ldr	r2, [sp, #4]
 347 0012 FFF7FEFF 		bl	chPoolLoadArray
 348              		.loc 4 88 0
 349 0016 05B0     		add	sp, sp, #20
 350              		.cfi_def_cfa_offset 4
 351              		@ sp needed
 352 0018 5DF804FB 		ldr	pc, [sp], #4
 353              		.cfi_endproc
 354              	.LFE129:
 355              		.size	_ZN3r2p11MemoryPool_6extendEPvj, .-_ZN3r2p11MemoryPool_6extendEPvj
 356              		.section	.text._ZNK3r2p4Time8to_s_rawEv,"axG",%progbits,_ZNK3r2p4Time8to_s_rawEv,comdat
 357              		.align	2
 358              		.weak	_ZNK3r2p4Time8to_s_rawEv
 359              		.thumb
 360              		.thumb_func
 361              		.type	_ZNK3r2p4Time8to_s_rawEv, %function
 362              	_ZNK3r2p4Time8to_s_rawEv:
 363              	.LFB145:
 364              		.file 5 "/opt/R2P/core/Middleware/include/r2p/Time.hpp"
 365              		.loc 5 89 0
 366              		.cfi_startproc
 367              		@ args = 0, pretend = 0, frame = 8
 368              		@ frame_needed = 0, uses_anonymous_args = 0
 369              		@ link register save eliminated.
 370 0000 82B0     		sub	sp, sp, #8
 371              		.cfi_def_cfa_offset 8
 372 0002 0190     		str	r0, [sp, #4]
 373              		.loc 5 91 0
 374 0004 019B     		ldr	r3, [sp, #4]
 375 0006 1B68     		ldr	r3, [r3]
 376 0008 044A     		ldr	r2, .L24
 377 000a 82FB0312 		smull	r1, r2, r2, r3
 378 000e 9214     		asrs	r2, r2, #18
 379 0010 DB17     		asrs	r3, r3, #31
 380 0012 D31A     		subs	r3, r2, r3
 381              		.loc 5 92 0
 382 0014 1846     		mov	r0, r3
 383 0016 02B0     		add	sp, sp, #8
 384              		.cfi_def_cfa_offset 0
 385              		@ sp needed
 386 0018 7047     		bx	lr
 387              	.L25:
 388 001a 00BF     		.align	2
 389              	.L24:
 390 001c 83DE1B43 		.word	1125899907
 391              		.cfi_endproc
 392              	.LFE145:
 393              		.size	_ZNK3r2p4Time8to_s_rawEv, .-_ZNK3r2p4Time8to_s_rawEv
 394              		.section	.text._ZN3r2p4TimeaSERKS0_,"axG",%progbits,_ZN3r2p4TimeaSERKS0_,comdat
 395              		.align	2
 396              		.weak	_ZN3r2p4TimeaSERKS0_
 397              		.thumb
 398              		.thumb_func
 399              		.type	_ZN3r2p4TimeaSERKS0_, %function
ARM GAS  /tmp/ccIvsbEf.s 			page 8


 400              	_ZN3r2p4TimeaSERKS0_:
 401              	.LFB151:
 402              		.loc 5 131 0
 403              		.cfi_startproc
 404              		@ args = 0, pretend = 0, frame = 8
 405              		@ frame_needed = 0, uses_anonymous_args = 0
 406              		@ link register save eliminated.
 407 0000 82B0     		sub	sp, sp, #8
 408              		.cfi_def_cfa_offset 8
 409 0002 0190     		str	r0, [sp, #4]
 410 0004 0091     		str	r1, [sp]
 411              		.loc 5 133 0
 412 0006 009B     		ldr	r3, [sp]
 413 0008 1A68     		ldr	r2, [r3]
 414 000a 019B     		ldr	r3, [sp, #4]
 415 000c 1A60     		str	r2, [r3]
 416              		.loc 5 134 0
 417 000e 019B     		ldr	r3, [sp, #4]
 418              		.loc 5 135 0
 419 0010 1846     		mov	r0, r3
 420 0012 02B0     		add	sp, sp, #8
 421              		.cfi_def_cfa_offset 0
 422              		@ sp needed
 423 0014 7047     		bx	lr
 424              		.cfi_endproc
 425              	.LFE151:
 426              		.size	_ZN3r2p4TimeaSERKS0_, .-_ZN3r2p4TimeaSERKS0_
 427 0016 00BF     		.section	.text._ZN3r2p4TimeC2Ev,"axG",%progbits,_ZN3r2p4TimeC5Ev,comdat
 428              		.align	2
 429              		.weak	_ZN3r2p4TimeC2Ev
 430              		.thumb
 431              		.thumb_func
 432              		.type	_ZN3r2p4TimeC2Ev, %function
 433              	_ZN3r2p4TimeC2Ev:
 434              	.LFB155:
 435              		.loc 5 155 0
 436              		.cfi_startproc
 437              		@ args = 0, pretend = 0, frame = 8
 438              		@ frame_needed = 0, uses_anonymous_args = 0
 439              		@ link register save eliminated.
 440 0000 82B0     		sub	sp, sp, #8
 441              		.cfi_def_cfa_offset 8
 442 0002 0190     		str	r0, [sp, #4]
 443              	.LBB57:
 444              		.loc 5 155 0
 445 0004 019B     		ldr	r3, [sp, #4]
 446 0006 0022     		movs	r2, #0
 447 0008 1A60     		str	r2, [r3]
 448              	.LBE57:
 449 000a 019B     		ldr	r3, [sp, #4]
 450 000c 1846     		mov	r0, r3
 451 000e 02B0     		add	sp, sp, #8
 452              		.cfi_def_cfa_offset 0
 453              		@ sp needed
 454 0010 7047     		bx	lr
 455              		.cfi_endproc
 456              	.LFE155:
ARM GAS  /tmp/ccIvsbEf.s 			page 9


 457              		.size	_ZN3r2p4TimeC2Ev, .-_ZN3r2p4TimeC2Ev
 458              		.weak	_ZN3r2p4TimeC1Ev
 459              		.thumb_set _ZN3r2p4TimeC1Ev,_ZN3r2p4TimeC2Ev
 460 0012 00BF     		.section	.text._ZN3r2p4TimeC2ERKS0_,"axG",%progbits,_ZN3r2p4TimeC5ERKS0_,comdat
 461              		.align	2
 462              		.weak	_ZN3r2p4TimeC2ERKS0_
 463              		.thumb
 464              		.thumb_func
 465              		.type	_ZN3r2p4TimeC2ERKS0_, %function
 466              	_ZN3r2p4TimeC2ERKS0_:
 467              	.LFB162:
 468              		.loc 5 173 0
 469              		.cfi_startproc
 470              		@ args = 0, pretend = 0, frame = 8
 471              		@ frame_needed = 0, uses_anonymous_args = 0
 472              		@ link register save eliminated.
 473 0000 82B0     		sub	sp, sp, #8
 474              		.cfi_def_cfa_offset 8
 475 0002 0190     		str	r0, [sp, #4]
 476 0004 0091     		str	r1, [sp]
 477              	.LBB58:
 478              		.loc 5 173 0
 479 0006 009B     		ldr	r3, [sp]
 480 0008 1A68     		ldr	r2, [r3]
 481 000a 019B     		ldr	r3, [sp, #4]
 482 000c 1A60     		str	r2, [r3]
 483              	.LBE58:
 484 000e 019B     		ldr	r3, [sp, #4]
 485 0010 1846     		mov	r0, r3
 486 0012 02B0     		add	sp, sp, #8
 487              		.cfi_def_cfa_offset 0
 488              		@ sp needed
 489 0014 7047     		bx	lr
 490              		.cfi_endproc
 491              	.LFE162:
 492              		.size	_ZN3r2p4TimeC2ERKS0_, .-_ZN3r2p4TimeC2ERKS0_
 493              		.weak	_ZN3r2p4TimeC1ERKS0_
 494              		.thumb_set _ZN3r2p4TimeC1ERKS0_,_ZN3r2p4TimeC2ERKS0_
 495 0016 00BF     		.section	.text._ZN3r2p4Time2msEl,"axG",%progbits,_ZN3r2p4Time2msEl,comdat
 496              		.align	2
 497              		.weak	_ZN3r2p4Time2msEl
 498              		.thumb
 499              		.thumb_func
 500              		.type	_ZN3r2p4Time2msEl, %function
 501              	_ZN3r2p4Time2msEl:
 502              	.LFB165:
 503              		.loc 5 184 0
 504              		.cfi_startproc
 505              		@ args = 0, pretend = 0, frame = 8
 506              		@ frame_needed = 0, uses_anonymous_args = 0
 507 0000 00B5     		push	{lr}
 508              		.cfi_def_cfa_offset 4
 509              		.cfi_offset 14, -4
 510 0002 83B0     		sub	sp, sp, #12
 511              		.cfi_def_cfa_offset 16
 512 0004 0190     		str	r0, [sp, #4]
 513 0006 0091     		str	r1, [sp]
ARM GAS  /tmp/ccIvsbEf.s 			page 10


 514              		.loc 5 186 0
 515 0008 009B     		ldr	r3, [sp]
 516 000a 4FF47A72 		mov	r2, #1000
 517 000e 02FB03F3 		mul	r3, r2, r3
 518 0012 0198     		ldr	r0, [sp, #4]
 519 0014 1946     		mov	r1, r3
 520 0016 FFF7FEFF 		bl	_ZN3r2p4TimeC1IlEET_
 521              		.loc 5 187 0
 522 001a 0198     		ldr	r0, [sp, #4]
 523 001c 03B0     		add	sp, sp, #12
 524              		.cfi_def_cfa_offset 4
 525              		@ sp needed
 526 001e 5DF804FB 		ldr	pc, [sp], #4
 527              		.cfi_endproc
 528              	.LFE165:
 529              		.size	_ZN3r2p4Time2msEl, .-_ZN3r2p4Time2msEl
 530 0022 00BF     		.section	.text._ZN3r2pgeERKNS_4TimeES2_,"axG",%progbits,_ZN3r2pgeERKNS_4TimeES2_,comdat
 531              		.align	2
 532              		.weak	_ZN3r2pgeERKNS_4TimeES2_
 533              		.thumb
 534              		.thumb_func
 535              		.type	_ZN3r2pgeERKNS_4TimeES2_, %function
 536              	_ZN3r2pgeERKNS_4TimeES2_:
 537              	.LFB172:
 538              		.loc 5 235 0
 539              		.cfi_startproc
 540              		@ args = 0, pretend = 0, frame = 8
 541              		@ frame_needed = 0, uses_anonymous_args = 0
 542              		@ link register save eliminated.
 543 0000 82B0     		sub	sp, sp, #8
 544              		.cfi_def_cfa_offset 8
 545 0002 0190     		str	r0, [sp, #4]
 546 0004 0091     		str	r1, [sp]
 547              		.loc 5 237 0
 548 0006 019B     		ldr	r3, [sp, #4]
 549 0008 1A68     		ldr	r2, [r3]
 550 000a 009B     		ldr	r3, [sp]
 551 000c 1B68     		ldr	r3, [r3]
 552 000e 9A42     		cmp	r2, r3
 553 0010 ACBF     		ite	ge
 554 0012 0123     		movge	r3, #1
 555 0014 0023     		movlt	r3, #0
 556 0016 DBB2     		uxtb	r3, r3
 557              		.loc 5 238 0
 558 0018 1846     		mov	r0, r3
 559 001a 02B0     		add	sp, sp, #8
 560              		.cfi_def_cfa_offset 0
 561              		@ sp needed
 562 001c 7047     		bx	lr
 563              		.cfi_endproc
 564              	.LFE172:
 565              		.size	_ZN3r2pgeERKNS_4TimeES2_, .-_ZN3r2pgeERKNS_4TimeES2_
 566 001e 00BF     		.section	.text._ZN3r2pplERKNS_4TimeES2_,"axG",%progbits,_ZN3r2pplERKNS_4TimeES2_,comdat
 567              		.align	2
 568              		.weak	_ZN3r2pplERKNS_4TimeES2_
 569              		.thumb
 570              		.thumb_func
ARM GAS  /tmp/ccIvsbEf.s 			page 11


 571              		.type	_ZN3r2pplERKNS_4TimeES2_, %function
 572              	_ZN3r2pplERKNS_4TimeES2_:
 573              	.LFB175:
 574              		.loc 5 256 0
 575              		.cfi_startproc
 576              		@ args = 0, pretend = 0, frame = 16
 577              		@ frame_needed = 0, uses_anonymous_args = 0
 578 0000 00B5     		push	{lr}
 579              		.cfi_def_cfa_offset 4
 580              		.cfi_offset 14, -4
 581 0002 85B0     		sub	sp, sp, #20
 582              		.cfi_def_cfa_offset 24
 583 0004 0390     		str	r0, [sp, #12]
 584 0006 0291     		str	r1, [sp, #8]
 585 0008 0192     		str	r2, [sp, #4]
 586              		.loc 5 258 0
 587 000a 029B     		ldr	r3, [sp, #8]
 588 000c 1A68     		ldr	r2, [r3]
 589 000e 019B     		ldr	r3, [sp, #4]
 590 0010 1B68     		ldr	r3, [r3]
 591 0012 1344     		add	r3, r3, r2
 592 0014 0398     		ldr	r0, [sp, #12]
 593 0016 1946     		mov	r1, r3
 594 0018 FFF7FEFF 		bl	_ZN3r2p4TimeC1IlEET_
 595              		.loc 5 259 0
 596 001c 0398     		ldr	r0, [sp, #12]
 597 001e 05B0     		add	sp, sp, #20
 598              		.cfi_def_cfa_offset 4
 599              		@ sp needed
 600 0020 5DF804FB 		ldr	pc, [sp], #4
 601              		.cfi_endproc
 602              	.LFE175:
 603              		.size	_ZN3r2pplERKNS_4TimeES2_, .-_ZN3r2pplERKNS_4TimeES2_
 604              		.section	.text._ZN3r2pmiERKNS_4TimeES2_,"axG",%progbits,_ZN3r2pmiERKNS_4TimeES2_,comdat
 605              		.align	2
 606              		.weak	_ZN3r2pmiERKNS_4TimeES2_
 607              		.thumb
 608              		.thumb_func
 609              		.type	_ZN3r2pmiERKNS_4TimeES2_, %function
 610              	_ZN3r2pmiERKNS_4TimeES2_:
 611              	.LFB176:
 612              		.loc 5 263 0
 613              		.cfi_startproc
 614              		@ args = 0, pretend = 0, frame = 16
 615              		@ frame_needed = 0, uses_anonymous_args = 0
 616 0000 00B5     		push	{lr}
 617              		.cfi_def_cfa_offset 4
 618              		.cfi_offset 14, -4
 619 0002 85B0     		sub	sp, sp, #20
 620              		.cfi_def_cfa_offset 24
 621 0004 0390     		str	r0, [sp, #12]
 622 0006 0291     		str	r1, [sp, #8]
 623 0008 0192     		str	r2, [sp, #4]
 624              		.loc 5 265 0
 625 000a 029B     		ldr	r3, [sp, #8]
 626 000c 1A68     		ldr	r2, [r3]
 627 000e 019B     		ldr	r3, [sp, #4]
ARM GAS  /tmp/ccIvsbEf.s 			page 12


 628 0010 1B68     		ldr	r3, [r3]
 629 0012 D31A     		subs	r3, r2, r3
 630 0014 0398     		ldr	r0, [sp, #12]
 631 0016 1946     		mov	r1, r3
 632 0018 FFF7FEFF 		bl	_ZN3r2p4TimeC1IlEET_
 633              		.loc 5 266 0
 634 001c 0398     		ldr	r0, [sp, #12]
 635 001e 05B0     		add	sp, sp, #20
 636              		.cfi_def_cfa_offset 4
 637              		@ sp needed
 638 0020 5DF804FB 		ldr	pc, [sp], #4
 639              		.cfi_endproc
 640              	.LFE176:
 641              		.size	_ZN3r2pmiERKNS_4TimeES2_, .-_ZN3r2pmiERKNS_4TimeES2_
 642              		.section	.text._ZN3r2p7Message12reset_unsafeEv,"axG",%progbits,_ZN3r2p7Message12reset_unsafeEv,com
 643              		.align	2
 644              		.weak	_ZN3r2p7Message12reset_unsafeEv
 645              		.thumb
 646              		.thumb_func
 647              		.type	_ZN3r2p7Message12reset_unsafeEv, %function
 648              	_ZN3r2p7Message12reset_unsafeEv:
 649              	.LFB181:
 650              		.file 6 "/opt/R2P/core/Middleware/include/r2p/Message.hpp"
 651              		.loc 6 122 0
 652              		.cfi_startproc
 653              		@ args = 0, pretend = 0, frame = 8
 654              		@ frame_needed = 0, uses_anonymous_args = 0
 655              		@ link register save eliminated.
 656 0000 82B0     		sub	sp, sp, #8
 657              		.cfi_def_cfa_offset 8
 658 0002 0190     		str	r0, [sp, #4]
 659              		.loc 6 127 0
 660 0004 019B     		ldr	r3, [sp, #4]
 661 0006 0022     		movs	r2, #0
 662 0008 1A70     		strb	r2, [r3]
 663 000a 0022     		movs	r2, #0
 664 000c 5A70     		strb	r2, [r3, #1]
 665              		.loc 6 128 0
 666 000e 02B0     		add	sp, sp, #8
 667              		.cfi_def_cfa_offset 0
 668              		@ sp needed
 669 0010 7047     		bx	lr
 670              		.cfi_endproc
 671              	.LFE181:
 672              		.size	_ZN3r2p7Message12reset_unsafeEv, .-_ZN3r2p7Message12reset_unsafeEv
 673 0012 00BF     		.section	.text._ZN3r2p7MessageC2Ev,"axG",%progbits,_ZN3r2p7MessageC5Ev,comdat
 674              		.align	2
 675              		.weak	_ZN3r2p7MessageC2Ev
 676              		.thumb
 677              		.thumb_func
 678              		.type	_ZN3r2p7MessageC2Ev, %function
 679              	_ZN3r2p7MessageC2Ev:
 680              	.LFB183:
 681              		.loc 6 132 0
 682              		.cfi_startproc
 683              		@ args = 0, pretend = 0, frame = 8
 684              		@ frame_needed = 0, uses_anonymous_args = 0
ARM GAS  /tmp/ccIvsbEf.s 			page 13


 685              		@ link register save eliminated.
 686 0000 82B0     		sub	sp, sp, #8
 687              		.cfi_def_cfa_offset 8
 688 0002 0190     		str	r0, [sp, #4]
 689              	.LBB59:
 690              		.loc 6 137 0
 691 0004 019B     		ldr	r3, [sp, #4]
 692 0006 0022     		movs	r2, #0
 693 0008 1A70     		strb	r2, [r3]
 694 000a 0022     		movs	r2, #0
 695 000c 5A70     		strb	r2, [r3, #1]
 696              	.LBE59:
 697              		.loc 6 138 0
 698 000e 019B     		ldr	r3, [sp, #4]
 699 0010 1846     		mov	r0, r3
 700 0012 02B0     		add	sp, sp, #8
 701              		.cfi_def_cfa_offset 0
 702              		@ sp needed
 703 0014 7047     		bx	lr
 704              		.cfi_endproc
 705              	.LFE183:
 706              		.size	_ZN3r2p7MessageC2Ev, .-_ZN3r2p7MessageC2Ev
 707              		.weak	_ZN3r2p7MessageC1Ev
 708              		.thumb_set _ZN3r2p7MessageC1Ev,_ZN3r2p7MessageC2Ev
 709 0016 00BF     		.section	.text._ZN3r2p7Message16get_payload_sizeEj,"axG",%progbits,_ZN3r2p7Message16get_payload_si
 710              		.align	2
 711              		.weak	_ZN3r2p7Message16get_payload_sizeEj
 712              		.thumb
 713              		.thumb_func
 714              		.type	_ZN3r2p7Message16get_payload_sizeEj, %function
 715              	_ZN3r2p7Message16get_payload_sizeEj:
 716              	.LFB185:
 717              		.loc 6 142 0
 718              		.cfi_startproc
 719              		@ args = 0, pretend = 0, frame = 8
 720              		@ frame_needed = 0, uses_anonymous_args = 0
 721              		@ link register save eliminated.
 722 0000 82B0     		sub	sp, sp, #8
 723              		.cfi_def_cfa_offset 8
 724 0002 0190     		str	r0, [sp, #4]
 725              		.loc 6 147 0
 726 0004 019B     		ldr	r3, [sp, #4]
 727 0006 023B     		subs	r3, r3, #2
 728              		.loc 6 149 0
 729 0008 1846     		mov	r0, r3
 730 000a 02B0     		add	sp, sp, #8
 731              		.cfi_def_cfa_offset 0
 732              		@ sp needed
 733 000c 7047     		bx	lr
 734              		.cfi_endproc
 735              	.LFE185:
 736              		.size	_ZN3r2p7Message16get_payload_sizeEj, .-_ZN3r2p7Message16get_payload_sizeEj
 737 000e 00BF     		.section	.text._ZNK3r2p13BasePublisher9get_topicEv,"axG",%progbits,_ZNK3r2p13BasePublisher9get_top
 738              		.align	2
 739              		.weak	_ZNK3r2p13BasePublisher9get_topicEv
 740              		.thumb
 741              		.thumb_func
ARM GAS  /tmp/ccIvsbEf.s 			page 14


 742              		.type	_ZNK3r2p13BasePublisher9get_topicEv, %function
 743              	_ZNK3r2p13BasePublisher9get_topicEv:
 744              	.LFB190:
 745              		.file 7 "/opt/R2P/core/Middleware/include/r2p/BasePublisher.hpp"
 746              		.loc 7 48 0
 747              		.cfi_startproc
 748              		@ args = 0, pretend = 0, frame = 8
 749              		@ frame_needed = 0, uses_anonymous_args = 0
 750              		@ link register save eliminated.
 751 0000 82B0     		sub	sp, sp, #8
 752              		.cfi_def_cfa_offset 8
 753 0002 0190     		str	r0, [sp, #4]
 754              		.loc 7 50 0
 755 0004 019B     		ldr	r3, [sp, #4]
 756 0006 5B68     		ldr	r3, [r3, #4]
 757              		.loc 7 51 0
 758 0008 1846     		mov	r0, r3
 759 000a 02B0     		add	sp, sp, #8
 760              		.cfi_def_cfa_offset 0
 761              		@ sp needed
 762 000c 7047     		bx	lr
 763              		.cfi_endproc
 764              	.LFE190:
 765              		.size	_ZNK3r2p13BasePublisher9get_topicEv, .-_ZNK3r2p13BasePublisher9get_topicEv
 766 000e 00BF     		.section	.rodata
 767              		.align	2
 768              	.LC0:
 769 0000 5232505F 		.ascii	"R2P_ASSERT()\000"
 769      41535345 
 769      52542829 
 769      00
 770              		.section	.text._ZN3r2p13BasePublisher17notify_advertisedERNS_5TopicE,"axG",%progbits,_ZN3r2p13Base
 771              		.align	2
 772              		.weak	_ZN3r2p13BasePublisher17notify_advertisedERNS_5TopicE
 773              		.thumb
 774              		.thumb_func
 775              		.type	_ZN3r2p13BasePublisher17notify_advertisedERNS_5TopicE, %function
 776              	_ZN3r2p13BasePublisher17notify_advertisedERNS_5TopicE:
 777              	.LFB191:
 778              		.loc 7 55 0
 779              		.cfi_startproc
 780              		@ args = 0, pretend = 0, frame = 8
 781              		@ frame_needed = 0, uses_anonymous_args = 0
 782 0000 00B5     		push	{lr}
 783              		.cfi_def_cfa_offset 4
 784              		.cfi_offset 14, -4
 785 0002 83B0     		sub	sp, sp, #12
 786              		.cfi_def_cfa_offset 16
 787 0004 0190     		str	r0, [sp, #4]
 788 0006 0091     		str	r1, [sp]
 789              		.loc 7 57 0
 790 0008 019B     		ldr	r3, [sp, #4]
 791 000a 5B68     		ldr	r3, [r3, #4]
 792 000c 002B     		cmp	r3, #0
 793 000e 02D0     		beq	.L51
 794              		.loc 7 57 0 is_stmt 0 discriminator 1
 795 0010 0448     		ldr	r0, .L52
ARM GAS  /tmp/ccIvsbEf.s 			page 15


 796 0012 FFF7FEFF 		bl	chDbgPanic
 797              	.L51:
 798              		.loc 7 59 0 is_stmt 1
 799 0016 019B     		ldr	r3, [sp, #4]
 800 0018 009A     		ldr	r2, [sp]
 801 001a 5A60     		str	r2, [r3, #4]
 802              		.loc 7 60 0
 803 001c 03B0     		add	sp, sp, #12
 804              		.cfi_def_cfa_offset 4
 805              		@ sp needed
 806 001e 5DF804FB 		ldr	pc, [sp], #4
 807              	.L53:
 808 0022 00BF     		.align	2
 809              	.L52:
 810 0024 00000000 		.word	.LC0
 811              		.cfi_endproc
 812              	.LFE191:
 813              		.size	_ZN3r2p13BasePublisher17notify_advertisedERNS_5TopicE, .-_ZN3r2p13BasePublisher17notify_adve
 814              		.section	.text._ZN3r2p13BasePublisher12alloc_unsafeERPNS_7MessageE,"axG",%progbits,_ZN3r2p13BasePu
 815              		.align	2
 816              		.weak	_ZN3r2p13BasePublisher12alloc_unsafeERPNS_7MessageE
 817              		.thumb
 818              		.thumb_func
 819              		.type	_ZN3r2p13BasePublisher12alloc_unsafeERPNS_7MessageE, %function
 820              	_ZN3r2p13BasePublisher12alloc_unsafeERPNS_7MessageE:
 821              	.LFB192:
 822              		.loc 7 64 0
 823              		.cfi_startproc
 824              		@ args = 0, pretend = 0, frame = 8
 825              		@ frame_needed = 0, uses_anonymous_args = 0
 826 0000 00B5     		push	{lr}
 827              		.cfi_def_cfa_offset 4
 828              		.cfi_offset 14, -4
 829 0002 83B0     		sub	sp, sp, #12
 830              		.cfi_def_cfa_offset 16
 831 0004 0190     		str	r0, [sp, #4]
 832 0006 0091     		str	r1, [sp]
 833              		.loc 7 66 0
 834 0008 019B     		ldr	r3, [sp, #4]
 835 000a 5B68     		ldr	r3, [r3, #4]
 836 000c 002B     		cmp	r3, #0
 837 000e 02D1     		bne	.L55
 838              		.loc 7 66 0 is_stmt 0 discriminator 1
 839 0010 0A48     		ldr	r0, .L57
 840 0012 FFF7FEFF 		bl	chDbgPanic
 841              	.L55:
 842              		.loc 7 68 0 is_stmt 1
 843 0016 019B     		ldr	r3, [sp, #4]
 844 0018 5B68     		ldr	r3, [r3, #4]
 845 001a 1846     		mov	r0, r3
 846 001c FFF7FEFF 		bl	_ZN3r2p5Topic12alloc_unsafeEv
 847 0020 0246     		mov	r2, r0
 848 0022 009B     		ldr	r3, [sp]
 849 0024 1A60     		str	r2, [r3]
 850              		.loc 7 69 0
 851 0026 009B     		ldr	r3, [sp]
 852 0028 1B68     		ldr	r3, [r3]
ARM GAS  /tmp/ccIvsbEf.s 			page 16


 853 002a 002B     		cmp	r3, #0
 854 002c 14BF     		ite	ne
 855 002e 0123     		movne	r3, #1
 856 0030 0023     		moveq	r3, #0
 857 0032 DBB2     		uxtb	r3, r3
 858              		.loc 7 70 0
 859 0034 1846     		mov	r0, r3
 860 0036 03B0     		add	sp, sp, #12
 861              		.cfi_def_cfa_offset 4
 862              		@ sp needed
 863 0038 5DF804FB 		ldr	pc, [sp], #4
 864              	.L58:
 865              		.align	2
 866              	.L57:
 867 003c 00000000 		.word	.LC0
 868              		.cfi_endproc
 869              	.LFE192:
 870              		.size	_ZN3r2p13BasePublisher12alloc_unsafeERPNS_7MessageE, .-_ZN3r2p13BasePublisher12alloc_unsafeE
 871              		.section	.text._ZN3r2p13BasePublisher5allocERPNS_7MessageE,"axG",%progbits,_ZN3r2p13BasePublisher5
 872              		.align	2
 873              		.weak	_ZN3r2p13BasePublisher5allocERPNS_7MessageE
 874              		.thumb
 875              		.thumb_func
 876              		.type	_ZN3r2p13BasePublisher5allocERPNS_7MessageE, %function
 877              	_ZN3r2p13BasePublisher5allocERPNS_7MessageE:
 878              	.LFB193:
 879              		.loc 7 74 0
 880              		.cfi_startproc
 881              		@ args = 0, pretend = 0, frame = 16
 882              		@ frame_needed = 0, uses_anonymous_args = 0
 883 0000 00B5     		push	{lr}
 884              		.cfi_def_cfa_offset 4
 885              		.cfi_offset 14, -4
 886 0002 85B0     		sub	sp, sp, #20
 887              		.cfi_def_cfa_offset 24
 888 0004 0190     		str	r0, [sp, #4]
 889 0006 0091     		str	r1, [sp]
 890              	.LBB60:
 891              		.loc 7 76 0
 892 0008 FFF7FEFF 		bl	_ZN3r2p7SysLock7acquireEv
 893              		.loc 7 77 0
 894 000c 0198     		ldr	r0, [sp, #4]
 895 000e 0099     		ldr	r1, [sp]
 896 0010 FFF7FEFF 		bl	_ZN3r2p13BasePublisher12alloc_unsafeERPNS_7MessageE
 897 0014 0346     		mov	r3, r0
 898 0016 8DF80F30 		strb	r3, [sp, #15]
 899              		.loc 7 78 0
 900 001a FFF7FEFF 		bl	_ZN3r2p7SysLock7releaseEv
 901              		.loc 7 79 0
 902 001e 9DF80F30 		ldrb	r3, [sp, #15]	@ zero_extendqisi2
 903              	.LBE60:
 904              		.loc 7 80 0
 905 0022 1846     		mov	r0, r3
 906 0024 05B0     		add	sp, sp, #20
 907              		.cfi_def_cfa_offset 4
 908              		@ sp needed
 909 0026 5DF804FB 		ldr	pc, [sp], #4
ARM GAS  /tmp/ccIvsbEf.s 			page 17


 910              		.cfi_endproc
 911              	.LFE193:
 912              		.size	_ZN3r2p13BasePublisher5allocERPNS_7MessageE, .-_ZN3r2p13BasePublisher5allocERPNS_7MessageE
 913 002a 00BF     		.section	.text._ZN3r2p13BasePublisher16publish_remotelyERNS_7MessageE,"axG",%progbits,_ZN3r2p13Bas
 914              		.align	2
 915              		.weak	_ZN3r2p13BasePublisher16publish_remotelyERNS_7MessageE
 916              		.thumb
 917              		.thumb_func
 918              		.type	_ZN3r2p13BasePublisher16publish_remotelyERNS_7MessageE, %function
 919              	_ZN3r2p13BasePublisher16publish_remotelyERNS_7MessageE:
 920              	.LFB195:
 921              		.loc 7 93 0
 922              		.cfi_startproc
 923              		@ args = 0, pretend = 0, frame = 16
 924              		@ frame_needed = 0, uses_anonymous_args = 0
 925 0000 10B5     		push	{r4, lr}
 926              		.cfi_def_cfa_offset 8
 927              		.cfi_offset 4, -8
 928              		.cfi_offset 14, -4
 929 0002 84B0     		sub	sp, sp, #16
 930              		.cfi_def_cfa_offset 24
 931 0004 0190     		str	r0, [sp, #4]
 932 0006 0091     		str	r1, [sp]
 933              		.loc 7 95 0
 934 0008 019B     		ldr	r3, [sp, #4]
 935 000a 5B68     		ldr	r3, [r3, #4]
 936 000c 002B     		cmp	r3, #0
 937 000e 02D1     		bne	.L62
 938              		.loc 7 95 0 is_stmt 0 discriminator 1
 939 0010 0948     		ldr	r0, .L64
 940 0012 FFF7FEFF 		bl	chDbgPanic
 941              	.L62:
 942              		.loc 7 97 0 is_stmt 1
 943 0016 019B     		ldr	r3, [sp, #4]
 944 0018 5C68     		ldr	r4, [r3, #4]
 945 001a 03AB     		add	r3, sp, #12
 946 001c 1846     		mov	r0, r3
 947 001e FFF7FEFF 		bl	_ZN3r2p4Time3nowEv
 948 0022 03AB     		add	r3, sp, #12
 949 0024 2046     		mov	r0, r4
 950 0026 0099     		ldr	r1, [sp]
 951 0028 1A46     		mov	r2, r3
 952 002a FFF7FEFF 		bl	_ZN3r2p5Topic14notify_remotesERNS_7MessageERKNS_4TimeE
 953 002e 0346     		mov	r3, r0
 954              		.loc 7 98 0
 955 0030 1846     		mov	r0, r3
 956 0032 04B0     		add	sp, sp, #16
 957              		.cfi_def_cfa_offset 8
 958              		@ sp needed
 959 0034 10BD     		pop	{r4, pc}
 960              	.L65:
 961 0036 00BF     		.align	2
 962              	.L64:
 963 0038 00000000 		.word	.LC0
 964              		.cfi_endproc
 965              	.LFE195:
 966              		.size	_ZN3r2p13BasePublisher16publish_remotelyERNS_7MessageE, .-_ZN3r2p13BasePublisher16publish_re
ARM GAS  /tmp/ccIvsbEf.s 			page 18


 967              		.section	.text._ZNK3r2p14BaseSubscriber9get_topicEv,"axG",%progbits,_ZNK3r2p14BaseSubscriber9get_t
 968              		.align	2
 969              		.weak	_ZNK3r2p14BaseSubscriber9get_topicEv
 970              		.thumb
 971              		.thumb_func
 972              		.type	_ZNK3r2p14BaseSubscriber9get_topicEv, %function
 973              	_ZNK3r2p14BaseSubscriber9get_topicEv:
 974              	.LFB217:
 975              		.file 8 "/opt/R2P/core/Middleware/include/r2p/BaseSubscriber.hpp"
 976              		.loc 8 42 0
 977              		.cfi_startproc
 978              		@ args = 0, pretend = 0, frame = 8
 979              		@ frame_needed = 0, uses_anonymous_args = 0
 980              		@ link register save eliminated.
 981 0000 82B0     		sub	sp, sp, #8
 982              		.cfi_def_cfa_offset 8
 983 0002 0190     		str	r0, [sp, #4]
 984              		.loc 8 44 0
 985 0004 019B     		ldr	r3, [sp, #4]
 986 0006 5B68     		ldr	r3, [r3, #4]
 987              		.loc 8 45 0
 988 0008 1846     		mov	r0, r3
 989 000a 02B0     		add	sp, sp, #8
 990              		.cfi_def_cfa_offset 0
 991              		@ sp needed
 992 000c 7047     		bx	lr
 993              		.cfi_endproc
 994              	.LFE217:
 995              		.size	_ZNK3r2p14BaseSubscriber9get_topicEv, .-_ZNK3r2p14BaseSubscriber9get_topicEv
 996 000e 00BF     		.section	.text._ZN3r2p14BaseSubscriber17notify_subscribedERNS_5TopicE,"axG",%progbits,_ZN3r2p14Bas
 997              		.align	2
 998              		.weak	_ZN3r2p14BaseSubscriber17notify_subscribedERNS_5TopicE
 999              		.thumb
 1000              		.thumb_func
 1001              		.type	_ZN3r2p14BaseSubscriber17notify_subscribedERNS_5TopicE, %function
 1002              	_ZN3r2p14BaseSubscriber17notify_subscribedERNS_5TopicE:
 1003              	.LFB218:
 1004              		.loc 8 49 0
 1005              		.cfi_startproc
 1006              		@ args = 0, pretend = 0, frame = 8
 1007              		@ frame_needed = 0, uses_anonymous_args = 0
 1008 0000 00B5     		push	{lr}
 1009              		.cfi_def_cfa_offset 4
 1010              		.cfi_offset 14, -4
 1011 0002 83B0     		sub	sp, sp, #12
 1012              		.cfi_def_cfa_offset 16
 1013 0004 0190     		str	r0, [sp, #4]
 1014 0006 0091     		str	r1, [sp]
 1015              		.loc 8 51 0
 1016 0008 019B     		ldr	r3, [sp, #4]
 1017 000a 5B68     		ldr	r3, [r3, #4]
 1018 000c 002B     		cmp	r3, #0
 1019 000e 02D0     		beq	.L69
 1020              		.loc 8 51 0 is_stmt 0 discriminator 1
 1021 0010 0448     		ldr	r0, .L70
 1022 0012 FFF7FEFF 		bl	chDbgPanic
 1023              	.L69:
ARM GAS  /tmp/ccIvsbEf.s 			page 19


 1024              		.loc 8 53 0 is_stmt 1
 1025 0016 019B     		ldr	r3, [sp, #4]
 1026 0018 009A     		ldr	r2, [sp]
 1027 001a 5A60     		str	r2, [r3, #4]
 1028              		.loc 8 54 0
 1029 001c 03B0     		add	sp, sp, #12
 1030              		.cfi_def_cfa_offset 4
 1031              		@ sp needed
 1032 001e 5DF804FB 		ldr	pc, [sp], #4
 1033              	.L71:
 1034 0022 00BF     		.align	2
 1035              	.L70:
 1036 0024 00000000 		.word	.LC0
 1037              		.cfi_endproc
 1038              	.LFE218:
 1039              		.size	_ZN3r2p14BaseSubscriber17notify_subscribedERNS_5TopicE, .-_ZN3r2p14BaseSubscriber17notify_su
 1040              		.section	.text._ZN3r2p7Thread_13create_staticEPvjmPFlS1_ES1_PKc,"axG",%progbits,_ZN3r2p7Thread_13c
 1041              		.align	2
 1042              		.weak	_ZN3r2p7Thread_13create_staticEPvjmPFlS1_ES1_PKc
 1043              		.thumb
 1044              		.thumb_func
 1045              		.type	_ZN3r2p7Thread_13create_staticEPvjmPFlS1_ES1_PKc, %function
 1046              	_ZN3r2p7Thread_13create_staticEPvjmPFlS1_ES1_PKc:
 1047              	.LFB222:
 1048              		.file 9 "/opt/R2P/core/Middleware/port/chibios/include/r2p/impl/Thread_.hpp"
 1049              		.loc 9 95 0
 1050              		.cfi_startproc
 1051              		@ args = 8, pretend = 0, frame = 24
 1052              		@ frame_needed = 0, uses_anonymous_args = 0
 1053 0000 00B5     		push	{lr}
 1054              		.cfi_def_cfa_offset 4
 1055              		.cfi_offset 14, -4
 1056 0002 89B0     		sub	sp, sp, #36
 1057              		.cfi_def_cfa_offset 40
 1058 0004 0590     		str	r0, [sp, #20]
 1059 0006 0491     		str	r1, [sp, #16]
 1060 0008 0392     		str	r2, [sp, #12]
 1061 000a 0293     		str	r3, [sp, #8]
 1062              	.LBB61:
 1063              		.loc 9 100 0
 1064 000c 0A9B     		ldr	r3, [sp, #40]
 1065 000e 0093     		str	r3, [sp]
 1066 0010 0598     		ldr	r0, [sp, #20]
 1067 0012 0499     		ldr	r1, [sp, #16]
 1068 0014 039A     		ldr	r2, [sp, #12]
 1069 0016 029B     		ldr	r3, [sp, #8]
 1070 0018 FFF7FEFF 		bl	chThdCreateStatic
 1071 001c 0790     		str	r0, [sp, #28]
 1072              		.loc 9 102 0
 1073 001e 079B     		ldr	r3, [sp, #28]
 1074 0020 002B     		cmp	r3, #0
 1075 0022 02D0     		beq	.L73
 1076              		.loc 9 103 0
 1077 0024 079B     		ldr	r3, [sp, #28]
 1078 0026 0B9A     		ldr	r2, [sp, #44]
 1079 0028 9A61     		str	r2, [r3, #24]
 1080              	.L73:
ARM GAS  /tmp/ccIvsbEf.s 			page 20


 1081              		.loc 9 108 0
 1082 002a 079B     		ldr	r3, [sp, #28]
 1083              	.LBE61:
 1084              		.loc 9 109 0
 1085 002c 1846     		mov	r0, r3
 1086 002e 09B0     		add	sp, sp, #36
 1087              		.cfi_def_cfa_offset 4
 1088              		@ sp needed
 1089 0030 5DF804FB 		ldr	pc, [sp], #4
 1090              		.cfi_endproc
 1091              	.LFE222:
 1092              		.size	_ZN3r2p7Thread_13create_staticEPvjmPFlS1_ES1_PKc, .-_ZN3r2p7Thread_13create_staticEPvjmPFlS1
 1093              		.section	.text._ZN3r2p7Thread_4selfEv,"axG",%progbits,_ZN3r2p7Thread_4selfEv,comdat
 1094              		.align	2
 1095              		.weak	_ZN3r2p7Thread_4selfEv
 1096              		.thumb
 1097              		.thumb_func
 1098              		.type	_ZN3r2p7Thread_4selfEv, %function
 1099              	_ZN3r2p7Thread_4selfEv:
 1100              	.LFB225:
 1101              		.loc 9 152 0
 1102              		.cfi_startproc
 1103              		@ args = 0, pretend = 0, frame = 0
 1104              		@ frame_needed = 0, uses_anonymous_args = 0
 1105              		@ link register save eliminated.
 1106              		.loc 9 154 0
 1107 0000 014B     		ldr	r3, .L77
 1108 0002 9B69     		ldr	r3, [r3, #24]
 1109              		.loc 9 155 0
 1110 0004 1846     		mov	r0, r3
 1111 0006 7047     		bx	lr
 1112              	.L78:
 1113              		.align	2
 1114              	.L77:
 1115 0008 00000000 		.word	rlist
 1116              		.cfi_endproc
 1117              	.LFE225:
 1118              		.size	_ZN3r2p7Thread_4selfEv, .-_ZN3r2p7Thread_4selfEv
 1119              		.section	.text._ZN3r2p7Thread_5sleepERKNS_4TimeE,"axG",%progbits,_ZN3r2p7Thread_5sleepERKNS_4TimeE
 1120              		.align	2
 1121              		.weak	_ZN3r2p7Thread_5sleepERKNS_4TimeE
 1122              		.thumb
 1123              		.thumb_func
 1124              		.type	_ZN3r2p7Thread_5sleepERKNS_4TimeE, %function
 1125              	_ZN3r2p7Thread_5sleepERKNS_4TimeE:
 1126              	.LFB229:
 1127              		.loc 9 180 0
 1128              		.cfi_startproc
 1129              		@ args = 0, pretend = 0, frame = 8
 1130              		@ frame_needed = 0, uses_anonymous_args = 0
 1131 0000 00B5     		push	{lr}
 1132              		.cfi_def_cfa_offset 4
 1133              		.cfi_offset 14, -4
 1134 0002 83B0     		sub	sp, sp, #12
 1135              		.cfi_def_cfa_offset 16
 1136 0004 0190     		str	r0, [sp, #4]
 1137              		.loc 9 182 0
ARM GAS  /tmp/ccIvsbEf.s 			page 21


 1138 0006 019B     		ldr	r3, [sp, #4]
 1139 0008 1B68     		ldr	r3, [r3]
 1140 000a 002B     		cmp	r3, #0
 1141 000c 21DD     		ble	.L80
 1142              		.loc 9 183 0
 1143 000e 019B     		ldr	r3, [sp, #4]
 1144 0010 1B68     		ldr	r3, [r3]
 1145 0012 124A     		ldr	r2, .L84
 1146 0014 9342     		cmp	r3, r2
 1147 0016 10DC     		bgt	.L81
 1148              		.loc 9 184 0
 1149 0018 019B     		ldr	r3, [sp, #4]
 1150 001a 1B68     		ldr	r3, [r3]
 1151 001c 1A46     		mov	r2, r3
 1152 001e 4FF47A73 		mov	r3, #1000
 1153 0022 03FB02F3 		mul	r3, r3, r2
 1154 0026 013B     		subs	r3, r3, #1
 1155 0028 0D4A     		ldr	r2, .L84+4
 1156 002a A2FB0323 		umull	r2, r3, r2, r3
 1157 002e 9B0C     		lsrs	r3, r3, #18
 1158 0030 0133     		adds	r3, r3, #1
 1159 0032 1846     		mov	r0, r3
 1160 0034 FFF7FEFF 		bl	chThdSleep
 1161 0038 0DE0     		b	.L79
 1162              	.L81:
 1163              		.loc 9 186 0
 1164 003a 0198     		ldr	r0, [sp, #4]
 1165 003c FFF7FEFF 		bl	_ZNK3r2p4Time8to_s_rawEv
 1166 0040 0246     		mov	r2, r0
 1167 0042 4FF47A73 		mov	r3, #1000
 1168 0046 03FB02F3 		mul	r3, r3, r2
 1169 004a 1846     		mov	r0, r3
 1170 004c FFF7FEFF 		bl	chThdSleep
 1171 0050 01E0     		b	.L79
 1172              	.L80:
 1173              		.loc 9 189 0
 1174 0052 FFF7FEFF 		bl	chThdYield
 1175              	.L79:
 1176              		.loc 9 191 0
 1177 0056 03B0     		add	sp, sp, #12
 1178              		.cfi_def_cfa_offset 4
 1179              		@ sp needed
 1180 0058 5DF804FB 		ldr	pc, [sp], #4
 1181              	.L85:
 1182              		.align	2
 1183              	.L84:
 1184 005c 3F420F00 		.word	999999
 1185 0060 83DE1B43 		.word	1125899907
 1186              		.cfi_endproc
 1187              	.LFE229:
 1188              		.size	_ZN3r2p7Thread_5sleepERKNS_4TimeE, .-_ZN3r2p7Thread_5sleepERKNS_4TimeE
 1189              		.section	.text._ZN3r2p6Thread13create_staticEPvjmPFlS1_ES1_PKc,"axG",%progbits,_ZN3r2p6Thread13cre
 1190              		.align	2
 1191              		.weak	_ZN3r2p6Thread13create_staticEPvjmPFlS1_ES1_PKc
 1192              		.thumb
 1193              		.thumb_func
 1194              		.type	_ZN3r2p6Thread13create_staticEPvjmPFlS1_ES1_PKc, %function
ARM GAS  /tmp/ccIvsbEf.s 			page 22


 1195              	_ZN3r2p6Thread13create_staticEPvjmPFlS1_ES1_PKc:
 1196              	.LFB233:
 1197              		.file 10 "/opt/R2P/core/Middleware/include/r2p/Thread.hpp"
 1198              		.loc 10 81 0
 1199              		.cfi_startproc
 1200              		@ args = 8, pretend = 0, frame = 16
 1201              		@ frame_needed = 0, uses_anonymous_args = 0
 1202 0000 00B5     		push	{lr}
 1203              		.cfi_def_cfa_offset 4
 1204              		.cfi_offset 14, -4
 1205 0002 87B0     		sub	sp, sp, #28
 1206              		.cfi_def_cfa_offset 32
 1207 0004 0590     		str	r0, [sp, #20]
 1208 0006 0491     		str	r1, [sp, #16]
 1209 0008 0392     		str	r2, [sp, #12]
 1210 000a 0293     		str	r3, [sp, #8]
 1211              		.loc 10 85 0
 1212 000c 089B     		ldr	r3, [sp, #32]
 1213 000e 0093     		str	r3, [sp]
 1214 0010 099B     		ldr	r3, [sp, #36]
 1215 0012 0193     		str	r3, [sp, #4]
 1216 0014 0598     		ldr	r0, [sp, #20]
 1217 0016 0499     		ldr	r1, [sp, #16]
 1218 0018 039A     		ldr	r2, [sp, #12]
 1219 001a 029B     		ldr	r3, [sp, #8]
 1220 001c FFF7FEFF 		bl	_ZN3r2p7Thread_13create_staticEPvjmPFlS1_ES1_PKc
 1221 0020 0346     		mov	r3, r0
 1222              		.loc 10 86 0
 1223 0022 1846     		mov	r0, r3
 1224 0024 07B0     		add	sp, sp, #28
 1225              		.cfi_def_cfa_offset 4
 1226              		@ sp needed
 1227 0026 5DF804FB 		ldr	pc, [sp], #4
 1228              		.cfi_endproc
 1229              	.LFE233:
 1230              		.size	_ZN3r2p6Thread13create_staticEPvjmPFlS1_ES1_PKc, .-_ZN3r2p6Thread13create_staticEPvjmPFlS1_E
 1231 002a 00BF     		.section	.text._ZN3r2p6Thread4selfEv,"axG",%progbits,_ZN3r2p6Thread4selfEv,comdat
 1232              		.align	2
 1233              		.weak	_ZN3r2p6Thread4selfEv
 1234              		.thumb
 1235              		.thumb_func
 1236              		.type	_ZN3r2p6Thread4selfEv, %function
 1237              	_ZN3r2p6Thread4selfEv:
 1238              	.LFB236:
 1239              		.loc 10 112 0
 1240              		.cfi_startproc
 1241              		@ args = 0, pretend = 0, frame = 0
 1242              		@ frame_needed = 0, uses_anonymous_args = 0
 1243 0000 08B5     		push	{r3, lr}
 1244              		.cfi_def_cfa_offset 8
 1245              		.cfi_offset 3, -8
 1246              		.cfi_offset 14, -4
 1247              		.loc 10 114 0
 1248 0002 FFF7FEFF 		bl	_ZN3r2p7Thread_4selfEv
 1249 0006 0346     		mov	r3, r0
 1250              		.loc 10 115 0
 1251 0008 1846     		mov	r0, r3
ARM GAS  /tmp/ccIvsbEf.s 			page 23


 1252 000a 08BD     		pop	{r3, pc}
 1253              		.cfi_endproc
 1254              	.LFE236:
 1255              		.size	_ZN3r2p6Thread4selfEv, .-_ZN3r2p6Thread4selfEv
 1256              		.section	.text._ZN3r2p6Thread5sleepERKNS_4TimeE,"axG",%progbits,_ZN3r2p6Thread5sleepERKNS_4TimeE,c
 1257              		.align	2
 1258              		.weak	_ZN3r2p6Thread5sleepERKNS_4TimeE
 1259              		.thumb
 1260              		.thumb_func
 1261              		.type	_ZN3r2p6Thread5sleepERKNS_4TimeE, %function
 1262              	_ZN3r2p6Thread5sleepERKNS_4TimeE:
 1263              	.LFB240:
 1264              		.loc 10 140 0
 1265              		.cfi_startproc
 1266              		@ args = 0, pretend = 0, frame = 8
 1267              		@ frame_needed = 0, uses_anonymous_args = 0
 1268 0000 00B5     		push	{lr}
 1269              		.cfi_def_cfa_offset 4
 1270              		.cfi_offset 14, -4
 1271 0002 83B0     		sub	sp, sp, #12
 1272              		.cfi_def_cfa_offset 16
 1273 0004 0190     		str	r0, [sp, #4]
 1274              		.loc 10 142 0
 1275 0006 0198     		ldr	r0, [sp, #4]
 1276 0008 FFF7FEFF 		bl	_ZN3r2p7Thread_5sleepERKNS_4TimeE
 1277              		.loc 10 143 0
 1278 000c 03B0     		add	sp, sp, #12
 1279              		.cfi_def_cfa_offset 4
 1280              		@ sp needed
 1281 000e 5DF804FB 		ldr	pc, [sp], #4
 1282              		.cfi_endproc
 1283              	.LFE240:
 1284              		.size	_ZN3r2p6Thread5sleepERKNS_4TimeE, .-_ZN3r2p6Thread5sleepERKNS_4TimeE
 1285 0012 00BF     		.section	.text._ZNK3r2p10SpinEvent_10get_threadEv,"axG",%progbits,_ZNK3r2p10SpinEvent_10get_thread
 1286              		.align	2
 1287              		.weak	_ZNK3r2p10SpinEvent_10get_threadEv
 1288              		.thumb
 1289              		.thumb_func
 1290              		.type	_ZNK3r2p10SpinEvent_10get_threadEv, %function
 1291              	_ZNK3r2p10SpinEvent_10get_threadEv:
 1292              	.LFB242:
 1293              		.file 11 "/opt/R2P/core/Middleware/port/chibios/include/r2p/impl/SpinEvent_.hpp"
 1294              		.loc 11 36 0
 1295              		.cfi_startproc
 1296              		@ args = 0, pretend = 0, frame = 8
 1297              		@ frame_needed = 0, uses_anonymous_args = 0
 1298              		@ link register save eliminated.
 1299 0000 82B0     		sub	sp, sp, #8
 1300              		.cfi_def_cfa_offset 8
 1301 0002 0190     		str	r0, [sp, #4]
 1302              		.loc 11 38 0
 1303 0004 019B     		ldr	r3, [sp, #4]
 1304 0006 1B68     		ldr	r3, [r3]
 1305              		.loc 11 39 0
 1306 0008 1846     		mov	r0, r3
 1307 000a 02B0     		add	sp, sp, #8
 1308              		.cfi_def_cfa_offset 0
ARM GAS  /tmp/ccIvsbEf.s 			page 24


 1309              		@ sp needed
 1310 000c 7047     		bx	lr
 1311              		.cfi_endproc
 1312              	.LFE242:
 1313              		.size	_ZNK3r2p10SpinEvent_10get_threadEv, .-_ZNK3r2p10SpinEvent_10get_threadEv
 1314 000e 00BF     		.section	.text._ZN3r2p10SpinEvent_10set_threadEPNS_6ThreadE,"axG",%progbits,_ZN3r2p10SpinEvent_10s
 1315              		.align	2
 1316              		.weak	_ZN3r2p10SpinEvent_10set_threadEPNS_6ThreadE
 1317              		.thumb
 1318              		.thumb_func
 1319              		.type	_ZN3r2p10SpinEvent_10set_threadEPNS_6ThreadE, %function
 1320              	_ZN3r2p10SpinEvent_10set_threadEPNS_6ThreadE:
 1321              	.LFB243:
 1322              		.loc 11 43 0
 1323              		.cfi_startproc
 1324              		@ args = 0, pretend = 0, frame = 8
 1325              		@ frame_needed = 0, uses_anonymous_args = 0
 1326              		@ link register save eliminated.
 1327 0000 82B0     		sub	sp, sp, #8
 1328              		.cfi_def_cfa_offset 8
 1329 0002 0190     		str	r0, [sp, #4]
 1330 0004 0091     		str	r1, [sp]
 1331              		.loc 11 45 0
 1332 0006 019B     		ldr	r3, [sp, #4]
 1333 0008 009A     		ldr	r2, [sp]
 1334 000a 1A60     		str	r2, [r3]
 1335              		.loc 11 46 0
 1336 000c 02B0     		add	sp, sp, #8
 1337              		.cfi_def_cfa_offset 0
 1338              		@ sp needed
 1339 000e 7047     		bx	lr
 1340              		.cfi_endproc
 1341              	.LFE243:
 1342              		.size	_ZN3r2p10SpinEvent_10set_threadEPNS_6ThreadE, .-_ZN3r2p10SpinEvent_10set_threadEPNS_6ThreadE
 1343              		.section	.text._ZN3r2p10SpinEvent_13signal_unsafeEj,"axG",%progbits,_ZN3r2p10SpinEvent_13signal_un
 1344              		.align	2
 1345              		.weak	_ZN3r2p10SpinEvent_13signal_unsafeEj
 1346              		.thumb
 1347              		.thumb_func
 1348              		.type	_ZN3r2p10SpinEvent_13signal_unsafeEj, %function
 1349              	_ZN3r2p10SpinEvent_13signal_unsafeEj:
 1350              	.LFB244:
 1351              		.loc 11 50 0
 1352              		.cfi_startproc
 1353              		@ args = 0, pretend = 0, frame = 8
 1354              		@ frame_needed = 0, uses_anonymous_args = 0
 1355 0000 00B5     		push	{lr}
 1356              		.cfi_def_cfa_offset 4
 1357              		.cfi_offset 14, -4
 1358 0002 83B0     		sub	sp, sp, #12
 1359              		.cfi_def_cfa_offset 16
 1360 0004 0190     		str	r0, [sp, #4]
 1361 0006 0091     		str	r1, [sp]
 1362              		.loc 11 52 0
 1363 0008 019B     		ldr	r3, [sp, #4]
 1364 000a 1B68     		ldr	r3, [r3]
 1365 000c 002B     		cmp	r3, #0
ARM GAS  /tmp/ccIvsbEf.s 			page 25


 1366 000e 10D0     		beq	.L94
 1367              		.loc 11 53 0
 1368 0010 2022     		movs	r2, #32
 1369 0012 009B     		ldr	r3, [sp]
 1370 0014 9A42     		cmp	r2, r3
 1371 0016 02D8     		bhi	.L96
 1372              		.loc 11 53 0 is_stmt 0 discriminator 1
 1373 0018 0748     		ldr	r0, .L97
 1374 001a FFF7FEFF 		bl	chDbgPanic
 1375              	.L96:
 1376              		.loc 11 54 0 is_stmt 1
 1377 001e 019B     		ldr	r3, [sp, #4]
 1378 0020 1968     		ldr	r1, [r3]
 1379 0022 009B     		ldr	r3, [sp]
 1380 0024 0122     		movs	r2, #1
 1381 0026 02FA03F3 		lsl	r3, r2, r3
 1382 002a 0846     		mov	r0, r1
 1383 002c 1946     		mov	r1, r3
 1384 002e FFF7FEFF 		bl	chEvtSignalI
 1385              	.L94:
 1386              		.loc 11 56 0
 1387 0032 03B0     		add	sp, sp, #12
 1388              		.cfi_def_cfa_offset 4
 1389              		@ sp needed
 1390 0034 5DF804FB 		ldr	pc, [sp], #4
 1391              	.L98:
 1392              		.align	2
 1393              	.L97:
 1394 0038 00000000 		.word	.LC0
 1395              		.cfi_endproc
 1396              	.LFE244:
 1397              		.size	_ZN3r2p10SpinEvent_13signal_unsafeEj, .-_ZN3r2p10SpinEvent_13signal_unsafeEj
 1398              		.section	.text._ZN3r2p10SpinEvent_6signalEj,"axG",%progbits,_ZN3r2p10SpinEvent_6signalEj,comdat
 1399              		.align	2
 1400              		.weak	_ZN3r2p10SpinEvent_6signalEj
 1401              		.thumb
 1402              		.thumb_func
 1403              		.type	_ZN3r2p10SpinEvent_6signalEj, %function
 1404              	_ZN3r2p10SpinEvent_6signalEj:
 1405              	.LFB245:
 1406              		.loc 11 60 0
 1407              		.cfi_startproc
 1408              		@ args = 0, pretend = 0, frame = 8
 1409              		@ frame_needed = 0, uses_anonymous_args = 0
 1410 0000 00B5     		push	{lr}
 1411              		.cfi_def_cfa_offset 4
 1412              		.cfi_offset 14, -4
 1413 0002 83B0     		sub	sp, sp, #12
 1414              		.cfi_def_cfa_offset 16
 1415 0004 0190     		str	r0, [sp, #4]
 1416 0006 0091     		str	r1, [sp]
 1417              	.LBB62:
 1418              	.LBB63:
 1419              	.LBB64:
 1420              		.loc 11 62 0
 1421 0008 2023     		movs	r3, #32
 1422              	@ 62 "/opt/R2P/core/Middleware/port/chibios/include/r2p/impl/SpinEvent_.hpp" 1
ARM GAS  /tmp/ccIvsbEf.s 			page 26


 1423 000a 83F31188 		msr     BASEPRI, r3
 1424              	@ 0 "" 2
 1425              		.thumb
 1426              	.LBE64:
 1427 000e FFF7FEFF 		bl	dbg_check_lock
 1428              	.LBE63:
 1429              		.loc 11 63 0
 1430 0012 0198     		ldr	r0, [sp, #4]
 1431 0014 0099     		ldr	r1, [sp]
 1432 0016 FFF7FEFF 		bl	_ZN3r2p10SpinEvent_13signal_unsafeEj
 1433              	.LBB65:
 1434              		.loc 11 64 0
 1435 001a FFF7FEFF 		bl	dbg_check_unlock
 1436              	.LBB66:
 1437 001e 0023     		movs	r3, #0
 1438              	@ 64 "/opt/R2P/core/Middleware/port/chibios/include/r2p/impl/SpinEvent_.hpp" 1
 1439 0020 83F31188 		msr     BASEPRI, r3
 1440              	@ 0 "" 2
 1441              		.thumb
 1442              	.LBE66:
 1443              	.LBE65:
 1444              	.LBE62:
 1445              		.loc 11 65 0
 1446 0024 03B0     		add	sp, sp, #12
 1447              		.cfi_def_cfa_offset 4
 1448              		@ sp needed
 1449 0026 5DF804FB 		ldr	pc, [sp], #4
 1450              		.cfi_endproc
 1451              	.LFE245:
 1452              		.size	_ZN3r2p10SpinEvent_6signalEj, .-_ZN3r2p10SpinEvent_6signalEj
 1453 002a 00BF     		.section	.text._ZNK3r2p9SpinEvent10get_threadEv,"axG",%progbits,_ZNK3r2p9SpinEvent10get_threadEv,c
 1454              		.align	2
 1455              		.weak	_ZNK3r2p9SpinEvent10get_threadEv
 1456              		.thumb
 1457              		.thumb_func
 1458              		.type	_ZNK3r2p9SpinEvent10get_threadEv, %function
 1459              	_ZNK3r2p9SpinEvent10get_threadEv:
 1460              	.LFB250:
 1461              		.file 12 "/opt/R2P/core/Middleware/include/r2p/SpinEvent.hpp"
 1462              		.loc 12 35 0
 1463              		.cfi_startproc
 1464              		@ args = 0, pretend = 0, frame = 8
 1465              		@ frame_needed = 0, uses_anonymous_args = 0
 1466 0000 00B5     		push	{lr}
 1467              		.cfi_def_cfa_offset 4
 1468              		.cfi_offset 14, -4
 1469 0002 83B0     		sub	sp, sp, #12
 1470              		.cfi_def_cfa_offset 16
 1471 0004 0190     		str	r0, [sp, #4]
 1472              		.loc 12 37 0
 1473 0006 019B     		ldr	r3, [sp, #4]
 1474 0008 1846     		mov	r0, r3
 1475 000a FFF7FEFF 		bl	_ZNK3r2p10SpinEvent_10get_threadEv
 1476 000e 0346     		mov	r3, r0
 1477              		.loc 12 38 0
 1478 0010 1846     		mov	r0, r3
 1479 0012 03B0     		add	sp, sp, #12
ARM GAS  /tmp/ccIvsbEf.s 			page 27


 1480              		.cfi_def_cfa_offset 4
 1481              		@ sp needed
 1482 0014 5DF804FB 		ldr	pc, [sp], #4
 1483              		.cfi_endproc
 1484              	.LFE250:
 1485              		.size	_ZNK3r2p9SpinEvent10get_threadEv, .-_ZNK3r2p9SpinEvent10get_threadEv
 1486              		.section	.text._ZN3r2p9SpinEvent10set_threadEPNS_6ThreadE,"axG",%progbits,_ZN3r2p9SpinEvent10set_t
 1487              		.align	2
 1488              		.weak	_ZN3r2p9SpinEvent10set_threadEPNS_6ThreadE
 1489              		.thumb
 1490              		.thumb_func
 1491              		.type	_ZN3r2p9SpinEvent10set_threadEPNS_6ThreadE, %function
 1492              	_ZN3r2p9SpinEvent10set_threadEPNS_6ThreadE:
 1493              	.LFB251:
 1494              		.loc 12 42 0
 1495              		.cfi_startproc
 1496              		@ args = 0, pretend = 0, frame = 8
 1497              		@ frame_needed = 0, uses_anonymous_args = 0
 1498 0000 00B5     		push	{lr}
 1499              		.cfi_def_cfa_offset 4
 1500              		.cfi_offset 14, -4
 1501 0002 83B0     		sub	sp, sp, #12
 1502              		.cfi_def_cfa_offset 16
 1503 0004 0190     		str	r0, [sp, #4]
 1504 0006 0091     		str	r1, [sp]
 1505              		.loc 12 44 0
 1506 0008 019B     		ldr	r3, [sp, #4]
 1507 000a 1846     		mov	r0, r3
 1508 000c 0099     		ldr	r1, [sp]
 1509 000e FFF7FEFF 		bl	_ZN3r2p10SpinEvent_10set_threadEPNS_6ThreadE
 1510              		.loc 12 45 0
 1511 0012 03B0     		add	sp, sp, #12
 1512              		.cfi_def_cfa_offset 4
 1513              		@ sp needed
 1514 0014 5DF804FB 		ldr	pc, [sp], #4
 1515              		.cfi_endproc
 1516              	.LFE251:
 1517              		.size	_ZN3r2p9SpinEvent10set_threadEPNS_6ThreadE, .-_ZN3r2p9SpinEvent10set_threadEPNS_6ThreadE
 1518              		.section	.text._ZN3r2p9SpinEvent13signal_unsafeEj,"axG",%progbits,_ZN3r2p9SpinEvent13signal_unsafe
 1519              		.align	2
 1520              		.weak	_ZN3r2p9SpinEvent13signal_unsafeEj
 1521              		.thumb
 1522              		.thumb_func
 1523              		.type	_ZN3r2p9SpinEvent13signal_unsafeEj, %function
 1524              	_ZN3r2p9SpinEvent13signal_unsafeEj:
 1525              	.LFB252:
 1526              		.loc 12 49 0
 1527              		.cfi_startproc
 1528              		@ args = 0, pretend = 0, frame = 8
 1529              		@ frame_needed = 0, uses_anonymous_args = 0
 1530 0000 00B5     		push	{lr}
 1531              		.cfi_def_cfa_offset 4
 1532              		.cfi_offset 14, -4
 1533 0002 83B0     		sub	sp, sp, #12
 1534              		.cfi_def_cfa_offset 16
 1535 0004 0190     		str	r0, [sp, #4]
 1536 0006 0091     		str	r1, [sp]
ARM GAS  /tmp/ccIvsbEf.s 			page 28


 1537              		.loc 12 51 0
 1538 0008 019B     		ldr	r3, [sp, #4]
 1539 000a 1846     		mov	r0, r3
 1540 000c 0099     		ldr	r1, [sp]
 1541 000e FFF7FEFF 		bl	_ZN3r2p10SpinEvent_13signal_unsafeEj
 1542              		.loc 12 52 0
 1543 0012 03B0     		add	sp, sp, #12
 1544              		.cfi_def_cfa_offset 4
 1545              		@ sp needed
 1546 0014 5DF804FB 		ldr	pc, [sp], #4
 1547              		.cfi_endproc
 1548              	.LFE252:
 1549              		.size	_ZN3r2p9SpinEvent13signal_unsafeEj, .-_ZN3r2p9SpinEvent13signal_unsafeEj
 1550              		.section	.text._ZN3r2p9SpinEvent6signalEj,"axG",%progbits,_ZN3r2p9SpinEvent6signalEj,comdat
 1551              		.align	2
 1552              		.weak	_ZN3r2p9SpinEvent6signalEj
 1553              		.thumb
 1554              		.thumb_func
 1555              		.type	_ZN3r2p9SpinEvent6signalEj, %function
 1556              	_ZN3r2p9SpinEvent6signalEj:
 1557              	.LFB253:
 1558              		.loc 12 56 0
 1559              		.cfi_startproc
 1560              		@ args = 0, pretend = 0, frame = 8
 1561              		@ frame_needed = 0, uses_anonymous_args = 0
 1562 0000 00B5     		push	{lr}
 1563              		.cfi_def_cfa_offset 4
 1564              		.cfi_offset 14, -4
 1565 0002 83B0     		sub	sp, sp, #12
 1566              		.cfi_def_cfa_offset 16
 1567 0004 0190     		str	r0, [sp, #4]
 1568 0006 0091     		str	r1, [sp]
 1569              		.loc 12 58 0
 1570 0008 019B     		ldr	r3, [sp, #4]
 1571 000a 1846     		mov	r0, r3
 1572 000c 0099     		ldr	r1, [sp]
 1573 000e FFF7FEFF 		bl	_ZN3r2p10SpinEvent_6signalEj
 1574              		.loc 12 59 0
 1575 0012 03B0     		add	sp, sp, #12
 1576              		.cfi_def_cfa_offset 4
 1577              		@ sp needed
 1578 0014 5DF804FB 		ldr	pc, [sp], #4
 1579              		.cfi_endproc
 1580              	.LFE253:
 1581              		.size	_ZN3r2p9SpinEvent6signalEj, .-_ZN3r2p9SpinEvent6signalEj
 1582              		.section	.text._ZNK3r2p4Node8get_nameEv,"axG",%progbits,_ZNK3r2p4Node8get_nameEv,comdat
 1583              		.align	2
 1584              		.weak	_ZNK3r2p4Node8get_nameEv
 1585              		.thumb
 1586              		.thumb_func
 1587              		.type	_ZNK3r2p4Node8get_nameEv, %function
 1588              	_ZNK3r2p4Node8get_nameEv:
 1589              	.LFB266:
 1590              		.file 13 "/opt/R2P/core/Middleware/include/r2p/Node.hpp"
 1591              		.loc 13 82 0
 1592              		.cfi_startproc
 1593              		@ args = 0, pretend = 0, frame = 8
ARM GAS  /tmp/ccIvsbEf.s 			page 29


 1594              		@ frame_needed = 0, uses_anonymous_args = 0
 1595              		@ link register save eliminated.
 1596 0000 82B0     		sub	sp, sp, #8
 1597              		.cfi_def_cfa_offset 8
 1598 0002 0190     		str	r0, [sp, #4]
 1599              		.loc 13 84 0
 1600 0004 019B     		ldr	r3, [sp, #4]
 1601 0006 1B68     		ldr	r3, [r3]
 1602              		.loc 13 85 0
 1603 0008 1846     		mov	r0, r3
 1604 000a 02B0     		add	sp, sp, #8
 1605              		.cfi_def_cfa_offset 0
 1606              		@ sp needed
 1607 000c 7047     		bx	lr
 1608              		.cfi_endproc
 1609              	.LFE266:
 1610              		.size	_ZNK3r2p4Node8get_nameEv, .-_ZNK3r2p4Node8get_nameEv
 1611 000e 00BF     		.section	.text._ZNK3r2p4Node14get_publishersEv,"axG",%progbits,_ZNK3r2p4Node14get_publishersEv,com
 1612              		.align	2
 1613              		.weak	_ZNK3r2p4Node14get_publishersEv
 1614              		.thumb
 1615              		.thumb_func
 1616              		.type	_ZNK3r2p4Node14get_publishersEv, %function
 1617              	_ZNK3r2p4Node14get_publishersEv:
 1618              	.LFB267:
 1619              		.loc 13 89 0
 1620              		.cfi_startproc
 1621              		@ args = 0, pretend = 0, frame = 8
 1622              		@ frame_needed = 0, uses_anonymous_args = 0
 1623              		@ link register save eliminated.
 1624 0000 82B0     		sub	sp, sp, #8
 1625              		.cfi_def_cfa_offset 8
 1626 0002 0190     		str	r0, [sp, #4]
 1627              		.loc 13 91 0
 1628 0004 019B     		ldr	r3, [sp, #4]
 1629 0006 0433     		adds	r3, r3, #4
 1630              		.loc 13 92 0
 1631 0008 1846     		mov	r0, r3
 1632 000a 02B0     		add	sp, sp, #8
 1633              		.cfi_def_cfa_offset 0
 1634              		@ sp needed
 1635 000c 7047     		bx	lr
 1636              		.cfi_endproc
 1637              	.LFE267:
 1638              		.size	_ZNK3r2p4Node14get_publishersEv, .-_ZNK3r2p4Node14get_publishersEv
 1639 000e 00BF     		.section	.text._ZNK3r2p4Node15get_subscribersEv,"axG",%progbits,_ZNK3r2p4Node15get_subscribersEv,c
 1640              		.align	2
 1641              		.weak	_ZNK3r2p4Node15get_subscribersEv
 1642              		.thumb
 1643              		.thumb_func
 1644              		.type	_ZNK3r2p4Node15get_subscribersEv, %function
 1645              	_ZNK3r2p4Node15get_subscribersEv:
 1646              	.LFB268:
 1647              		.loc 13 96 0
 1648              		.cfi_startproc
 1649              		@ args = 0, pretend = 0, frame = 8
 1650              		@ frame_needed = 0, uses_anonymous_args = 0
ARM GAS  /tmp/ccIvsbEf.s 			page 30


 1651              		@ link register save eliminated.
 1652 0000 82B0     		sub	sp, sp, #8
 1653              		.cfi_def_cfa_offset 8
 1654 0002 0190     		str	r0, [sp, #4]
 1655              		.loc 13 98 0
 1656 0004 019B     		ldr	r3, [sp, #4]
 1657 0006 0833     		adds	r3, r3, #8
 1658              		.loc 13 99 0
 1659 0008 1846     		mov	r0, r3
 1660 000a 02B0     		add	sp, sp, #8
 1661              		.cfi_def_cfa_offset 0
 1662              		@ sp needed
 1663 000c 7047     		bx	lr
 1664              		.cfi_endproc
 1665              	.LFE268:
 1666              		.size	_ZNK3r2p4Node15get_subscribersEv, .-_ZNK3r2p4Node15get_subscribersEv
 1667 000e 00BF     		.section	.text._ZNK3r2p4Node11get_enabledEv,"axG",%progbits,_ZNK3r2p4Node11get_enabledEv,comdat
 1668              		.align	2
 1669              		.weak	_ZNK3r2p4Node11get_enabledEv
 1670              		.thumb
 1671              		.thumb_func
 1672              		.type	_ZNK3r2p4Node11get_enabledEv, %function
 1673              	_ZNK3r2p4Node11get_enabledEv:
 1674              	.LFB269:
 1675              		.loc 13 103 0
 1676              		.cfi_startproc
 1677              		@ args = 0, pretend = 0, frame = 8
 1678              		@ frame_needed = 0, uses_anonymous_args = 0
 1679 0000 00B5     		push	{lr}
 1680              		.cfi_def_cfa_offset 4
 1681              		.cfi_offset 14, -4
 1682 0002 83B0     		sub	sp, sp, #12
 1683              		.cfi_def_cfa_offset 16
 1684 0004 0190     		str	r0, [sp, #4]
 1685              		.loc 13 105 0
 1686 0006 019B     		ldr	r3, [sp, #4]
 1687 0008 0C33     		adds	r3, r3, #12
 1688 000a 1846     		mov	r0, r3
 1689 000c FFF7FEFF 		bl	_ZNK3r2p9SpinEvent10get_threadEv
 1690 0010 0346     		mov	r3, r0
 1691 0012 002B     		cmp	r3, #0
 1692 0014 14BF     		ite	ne
 1693 0016 0123     		movne	r3, #1
 1694 0018 0023     		moveq	r3, #0
 1695 001a DBB2     		uxtb	r3, r3
 1696              		.loc 13 106 0
 1697 001c 1846     		mov	r0, r3
 1698 001e 03B0     		add	sp, sp, #12
 1699              		.cfi_def_cfa_offset 4
 1700              		@ sp needed
 1701 0020 5DF804FB 		ldr	pc, [sp], #4
 1702              		.cfi_endproc
 1703              	.LFE269:
 1704              		.size	_ZNK3r2p4Node11get_enabledEv, .-_ZNK3r2p4Node11get_enabledEv
 1705              		.section	.text._ZN3r2p4Node11set_enabledEb,"axG",%progbits,_ZN3r2p4Node11set_enabledEb,comdat
 1706              		.align	2
 1707              		.weak	_ZN3r2p4Node11set_enabledEb
ARM GAS  /tmp/ccIvsbEf.s 			page 31


 1708              		.thumb
 1709              		.thumb_func
 1710              		.type	_ZN3r2p4Node11set_enabledEb, %function
 1711              	_ZN3r2p4Node11set_enabledEb:
 1712              	.LFB270:
 1713              		.loc 13 110 0
 1714              		.cfi_startproc
 1715              		@ args = 0, pretend = 0, frame = 8
 1716              		@ frame_needed = 0, uses_anonymous_args = 0
 1717 0000 10B5     		push	{r4, lr}
 1718              		.cfi_def_cfa_offset 8
 1719              		.cfi_offset 4, -8
 1720              		.cfi_offset 14, -4
 1721 0002 82B0     		sub	sp, sp, #8
 1722              		.cfi_def_cfa_offset 16
 1723 0004 0190     		str	r0, [sp, #4]
 1724 0006 0B46     		mov	r3, r1
 1725 0008 8DF80330 		strb	r3, [sp, #3]
 1726              		.loc 13 112 0
 1727 000c 019B     		ldr	r3, [sp, #4]
 1728 000e 03F10C04 		add	r4, r3, #12
 1729 0012 9DF80330 		ldrb	r3, [sp, #3]	@ zero_extendqisi2
 1730 0016 002B     		cmp	r3, #0
 1731 0018 03D0     		beq	.L114
 1732              		.loc 13 112 0 is_stmt 0 discriminator 1
 1733 001a FFF7FEFF 		bl	_ZN3r2p6Thread4selfEv
 1734 001e 0346     		mov	r3, r0
 1735 0020 00E0     		b	.L115
 1736              	.L114:
 1737              		.loc 13 112 0 discriminator 2
 1738 0022 0023     		movs	r3, #0
 1739              	.L115:
 1740              		.loc 13 112 0 discriminator 4
 1741 0024 2046     		mov	r0, r4
 1742 0026 1946     		mov	r1, r3
 1743 0028 FFF7FEFF 		bl	_ZN3r2p9SpinEvent10set_threadEPNS_6ThreadE
 1744              		.loc 13 113 0 is_stmt 1 discriminator 4
 1745 002c 02B0     		add	sp, sp, #8
 1746              		.cfi_def_cfa_offset 8
 1747              		@ sp needed
 1748 002e 10BD     		pop	{r4, pc}
 1749              		.cfi_endproc
 1750              	.LFE270:
 1751              		.size	_ZN3r2p4Node11set_enabledEb, .-_ZN3r2p4Node11set_enabledEb
 1752              		.section	.text._ZN3r2p4Node13notify_unsafeEj,"axG",%progbits,_ZN3r2p4Node13notify_unsafeEj,comdat
 1753              		.align	2
 1754              		.weak	_ZN3r2p4Node13notify_unsafeEj
 1755              		.thumb
 1756              		.thumb_func
 1757              		.type	_ZN3r2p4Node13notify_unsafeEj, %function
 1758              	_ZN3r2p4Node13notify_unsafeEj:
 1759              	.LFB274:
 1760              		.loc 13 140 0
 1761              		.cfi_startproc
 1762              		@ args = 0, pretend = 0, frame = 8
 1763              		@ frame_needed = 0, uses_anonymous_args = 0
 1764 0000 00B5     		push	{lr}
ARM GAS  /tmp/ccIvsbEf.s 			page 32


 1765              		.cfi_def_cfa_offset 4
 1766              		.cfi_offset 14, -4
 1767 0002 83B0     		sub	sp, sp, #12
 1768              		.cfi_def_cfa_offset 16
 1769 0004 0190     		str	r0, [sp, #4]
 1770 0006 0091     		str	r1, [sp]
 1771              		.loc 13 142 0
 1772 0008 019B     		ldr	r3, [sp, #4]
 1773 000a 0C33     		adds	r3, r3, #12
 1774 000c 1846     		mov	r0, r3
 1775 000e 0099     		ldr	r1, [sp]
 1776 0010 FFF7FEFF 		bl	_ZN3r2p9SpinEvent13signal_unsafeEj
 1777              		.loc 13 143 0
 1778 0014 03B0     		add	sp, sp, #12
 1779              		.cfi_def_cfa_offset 4
 1780              		@ sp needed
 1781 0016 5DF804FB 		ldr	pc, [sp], #4
 1782              		.cfi_endproc
 1783              	.LFE274:
 1784              		.size	_ZN3r2p4Node13notify_unsafeEj, .-_ZN3r2p4Node13notify_unsafeEj
 1785 001a 00BF     		.section	.text._ZN3r2p4Node11notify_stopEv,"axG",%progbits,_ZN3r2p4Node11notify_stopEv,comdat
 1786              		.align	2
 1787              		.weak	_ZN3r2p4Node11notify_stopEv
 1788              		.thumb
 1789              		.thumb_func
 1790              		.type	_ZN3r2p4Node11notify_stopEv, %function
 1791              	_ZN3r2p4Node11notify_stopEv:
 1792              	.LFB277:
 1793              		.loc 13 162 0
 1794              		.cfi_startproc
 1795              		@ args = 0, pretend = 0, frame = 8
 1796              		@ frame_needed = 0, uses_anonymous_args = 0
 1797 0000 00B5     		push	{lr}
 1798              		.cfi_def_cfa_offset 4
 1799              		.cfi_offset 14, -4
 1800 0002 83B0     		sub	sp, sp, #12
 1801              		.cfi_def_cfa_offset 16
 1802 0004 0190     		str	r0, [sp, #4]
 1803              		.loc 13 165 0
 1804 0006 019B     		ldr	r3, [sp, #4]
 1805 0008 0C33     		adds	r3, r3, #12
 1806 000a 1846     		mov	r0, r3
 1807 000c 1F21     		movs	r1, #31
 1808 000e FFF7FEFF 		bl	_ZN3r2p9SpinEvent6signalEj
 1809              		.loc 13 166 0
 1810 0012 03B0     		add	sp, sp, #12
 1811              		.cfi_def_cfa_offset 4
 1812              		@ sp needed
 1813 0014 5DF804FB 		ldr	pc, [sp], #4
 1814              		.cfi_endproc
 1815              	.LFE277:
 1816              		.size	_ZN3r2p4Node11notify_stopEv, .-_ZN3r2p4Node11notify_stopEv
 1817              		.section	.text._ZN3r2p4Node8has_nameERKS0_PKc,"axG",%progbits,_ZN3r2p4Node8has_nameERKS0_PKc,comda
 1818              		.align	2
 1819              		.weak	_ZN3r2p4Node8has_nameERKS0_PKc
 1820              		.thumb
 1821              		.thumb_func
ARM GAS  /tmp/ccIvsbEf.s 			page 33


 1822              		.type	_ZN3r2p4Node8has_nameERKS0_PKc, %function
 1823              	_ZN3r2p4Node8has_nameERKS0_PKc:
 1824              	.LFB278:
 1825              		.loc 13 170 0
 1826              		.cfi_startproc
 1827              		@ args = 0, pretend = 0, frame = 8
 1828              		@ frame_needed = 0, uses_anonymous_args = 0
 1829 0000 00B5     		push	{lr}
 1830              		.cfi_def_cfa_offset 4
 1831              		.cfi_offset 14, -4
 1832 0002 83B0     		sub	sp, sp, #12
 1833              		.cfi_def_cfa_offset 16
 1834 0004 0190     		str	r0, [sp, #4]
 1835 0006 0091     		str	r1, [sp]
 1836              		.loc 13 172 0
 1837 0008 009B     		ldr	r3, [sp]
 1838 000a 002B     		cmp	r3, #0
 1839 000c 0DD0     		beq	.L119
 1840              		.loc 13 173 0 discriminator 1
 1841 000e 0198     		ldr	r0, [sp, #4]
 1842 0010 FFF7FEFF 		bl	_ZNK3r2p4Node8get_nameEv
 1843 0014 0346     		mov	r3, r0
 1844 0016 1846     		mov	r0, r3
 1845 0018 0099     		ldr	r1, [sp]
 1846 001a 0822     		movs	r2, #8
 1847 001c FFF7FEFF 		bl	strncmp
 1848 0020 0346     		mov	r3, r0
 1849              		.loc 13 172 0 discriminator 1
 1850 0022 002B     		cmp	r3, #0
 1851 0024 01D1     		bne	.L119
 1852              		.loc 13 172 0 is_stmt 0 discriminator 3
 1853 0026 0123     		movs	r3, #1
 1854 0028 00E0     		b	.L120
 1855              	.L119:
 1856              		.loc 13 172 0 discriminator 4
 1857 002a 0023     		movs	r3, #0
 1858              	.L120:
 1859              		.loc 13 174 0 is_stmt 1
 1860 002c 1846     		mov	r0, r3
 1861 002e 03B0     		add	sp, sp, #12
 1862              		.cfi_def_cfa_offset 4
 1863              		@ sp needed
 1864 0030 5DF804FB 		ldr	pc, [sp], #4
 1865              		.cfi_endproc
 1866              	.LFE278:
 1867              		.size	_ZN3r2p4Node8has_nameERKS0_PKc, .-_ZN3r2p4Node8has_nameERKS0_PKc
 1868              		.section	.text._ZNK3r2p15LocalSubscriber16get_queue_lengthEv,"axG",%progbits,_ZNK3r2p15LocalSubscr
 1869              		.align	2
 1870              		.weak	_ZNK3r2p15LocalSubscriber16get_queue_lengthEv
 1871              		.thumb
 1872              		.thumb_func
 1873              		.type	_ZNK3r2p15LocalSubscriber16get_queue_lengthEv, %function
 1874              	_ZNK3r2p15LocalSubscriber16get_queue_lengthEv:
 1875              	.LFB280:
 1876              		.file 14 "/opt/R2P/core/Middleware/include/r2p/LocalSubscriber.hpp"
 1877              		.loc 14 64 0
 1878              		.cfi_startproc
ARM GAS  /tmp/ccIvsbEf.s 			page 34


 1879              		@ args = 0, pretend = 0, frame = 8
 1880              		@ frame_needed = 0, uses_anonymous_args = 0
 1881 0000 00B5     		push	{lr}
 1882              		.cfi_def_cfa_offset 4
 1883              		.cfi_offset 14, -4
 1884 0002 83B0     		sub	sp, sp, #12
 1885              		.cfi_def_cfa_offset 16
 1886 0004 0190     		str	r0, [sp, #4]
 1887              		.loc 14 66 0
 1888 0006 019B     		ldr	r3, [sp, #4]
 1889 0008 1033     		adds	r3, r3, #16
 1890 000a 1846     		mov	r0, r3
 1891 000c FFF7FEFF 		bl	_ZNK3r2p10ArrayQueueIPNS_7MessageEE10get_lengthEv
 1892 0010 0346     		mov	r3, r0
 1893              		.loc 14 67 0
 1894 0012 1846     		mov	r0, r3
 1895 0014 03B0     		add	sp, sp, #12
 1896              		.cfi_def_cfa_offset 4
 1897              		@ sp needed
 1898 0016 5DF804FB 		ldr	pc, [sp], #4
 1899              		.cfi_endproc
 1900              	.LFE280:
 1901              		.size	_ZNK3r2p15LocalSubscriber16get_queue_lengthEv, .-_ZNK3r2p15LocalSubscriber16get_queue_length
 1902 001a 00BF     		.section	.text._ZN3r2p15LocalSubscriber12fetch_unsafeERPNS_7MessageERNS_4TimeE,"axG",%progbits,_ZN
 1903              		.align	2
 1904              		.weak	_ZN3r2p15LocalSubscriber12fetch_unsafeERPNS_7MessageERNS_4TimeE
 1905              		.thumb
 1906              		.thumb_func
 1907              		.type	_ZN3r2p15LocalSubscriber12fetch_unsafeERPNS_7MessageERNS_4TimeE, %function
 1908              	_ZN3r2p15LocalSubscriber12fetch_unsafeERPNS_7MessageERNS_4TimeE:
 1909              	.LFB281:
 1910              		.loc 14 71 0
 1911              		.cfi_startproc
 1912              		@ args = 0, pretend = 0, frame = 24
 1913              		@ frame_needed = 0, uses_anonymous_args = 0
 1914 0000 00B5     		push	{lr}
 1915              		.cfi_def_cfa_offset 4
 1916              		.cfi_offset 14, -4
 1917 0002 87B0     		sub	sp, sp, #28
 1918              		.cfi_def_cfa_offset 32
 1919 0004 0390     		str	r0, [sp, #12]
 1920 0006 0291     		str	r1, [sp, #8]
 1921 0008 0192     		str	r2, [sp, #4]
 1922              		.loc 14 73 0
 1923 000a 039B     		ldr	r3, [sp, #12]
 1924 000c 1033     		adds	r3, r3, #16
 1925 000e 1846     		mov	r0, r3
 1926 0010 0299     		ldr	r1, [sp, #8]
 1927 0012 FFF7FEFF 		bl	_ZN3r2p10ArrayQueueIPNS_7MessageEE12fetch_unsafeERS2_
 1928 0016 0346     		mov	r3, r0
 1929 0018 002B     		cmp	r3, #0
 1930 001a 0AD0     		beq	.L125
 1931              		.loc 14 74 0
 1932 001c 05AB     		add	r3, sp, #20
 1933 001e 1846     		mov	r0, r3
 1934 0020 FFF7FEFF 		bl	_ZN3r2p4Time3nowEv
 1935 0024 05AB     		add	r3, sp, #20
ARM GAS  /tmp/ccIvsbEf.s 			page 35


 1936 0026 0198     		ldr	r0, [sp, #4]
 1937 0028 1946     		mov	r1, r3
 1938 002a FFF7FEFF 		bl	_ZN3r2p4TimeaSERKS0_
 1939              		.loc 14 75 0
 1940 002e 0123     		movs	r3, #1
 1941 0030 00E0     		b	.L126
 1942              	.L125:
 1943              		.loc 14 77 0
 1944 0032 0023     		movs	r3, #0
 1945              	.L126:
 1946              		.loc 14 78 0
 1947 0034 1846     		mov	r0, r3
 1948 0036 07B0     		add	sp, sp, #28
 1949              		.cfi_def_cfa_offset 4
 1950              		@ sp needed
 1951 0038 5DF804FB 		ldr	pc, [sp], #4
 1952              		.cfi_endproc
 1953              	.LFE281:
 1954              		.size	_ZN3r2p15LocalSubscriber12fetch_unsafeERPNS_7MessageERNS_4TimeE, .-_ZN3r2p15LocalSubscriber1
 1955              		.section	.text._ZN3r2p15LocalSubscriber13notify_unsafeERNS_7MessageERKNS_4TimeE,"axG",%progbits,_Z
 1956              		.align	2
 1957              		.weak	_ZN3r2p15LocalSubscriber13notify_unsafeERNS_7MessageERKNS_4TimeE
 1958              		.thumb
 1959              		.thumb_func
 1960              		.type	_ZN3r2p15LocalSubscriber13notify_unsafeERNS_7MessageERKNS_4TimeE, %function
 1961              	_ZN3r2p15LocalSubscriber13notify_unsafeERNS_7MessageERKNS_4TimeE:
 1962              	.LFB282:
 1963              		.loc 14 82 0
 1964              		.cfi_startproc
 1965              		@ args = 0, pretend = 0, frame = 16
 1966              		@ frame_needed = 0, uses_anonymous_args = 0
 1967 0000 00B5     		push	{lr}
 1968              		.cfi_def_cfa_offset 4
 1969              		.cfi_offset 14, -4
 1970 0002 85B0     		sub	sp, sp, #20
 1971              		.cfi_def_cfa_offset 24
 1972 0004 0390     		str	r0, [sp, #12]
 1973 0006 0291     		str	r1, [sp, #8]
 1974 0008 0192     		str	r2, [sp, #4]
 1975              		.loc 14 86 0
 1976 000a 039B     		ldr	r3, [sp, #12]
 1977 000c 9B68     		ldr	r3, [r3, #8]
 1978 000e 1846     		mov	r0, r3
 1979 0010 FFF7FEFF 		bl	_ZNK3r2p4Node11get_enabledEv
 1980 0014 0346     		mov	r3, r0
 1981 0016 002B     		cmp	r3, #0
 1982 0018 0AD0     		beq	.L128
 1983              		.loc 14 86 0 is_stmt 0 discriminator 1
 1984 001a 039B     		ldr	r3, [sp, #12]
 1985 001c 1033     		adds	r3, r3, #16
 1986 001e 1846     		mov	r0, r3
 1987 0020 0299     		ldr	r1, [sp, #8]
 1988 0022 FFF7FEFF 		bl	_ZN3r2p10ArrayQueueIPNS_7MessageEE11post_unsafeES2_
 1989 0026 0346     		mov	r3, r0
 1990 0028 002B     		cmp	r3, #0
 1991 002a 01D0     		beq	.L128
 1992              		.loc 14 86 0 discriminator 3
ARM GAS  /tmp/ccIvsbEf.s 			page 36


 1993 002c 0123     		movs	r3, #1
 1994 002e 00E0     		b	.L129
 1995              	.L128:
 1996              		.loc 14 86 0 discriminator 4
 1997 0030 0023     		movs	r3, #0
 1998              	.L129:
 1999              		.loc 14 86 0 discriminator 6
 2000 0032 002B     		cmp	r3, #0
 2001 0034 0AD0     		beq	.L130
 2002              		.loc 14 87 0 is_stmt 1
 2003 0036 039B     		ldr	r3, [sp, #12]
 2004 0038 9A68     		ldr	r2, [r3, #8]
 2005 003a 039B     		ldr	r3, [sp, #12]
 2006 003c 93F82430 		ldrb	r3, [r3, #36]	@ zero_extendqisi2
 2007 0040 1046     		mov	r0, r2
 2008 0042 1946     		mov	r1, r3
 2009 0044 FFF7FEFF 		bl	_ZN3r2p4Node13notify_unsafeEj
 2010              		.loc 14 88 0
 2011 0048 0123     		movs	r3, #1
 2012 004a 00E0     		b	.L131
 2013              	.L130:
 2014              		.loc 14 90 0
 2015 004c 0023     		movs	r3, #0
 2016              	.L131:
 2017              		.loc 14 91 0
 2018 004e 1846     		mov	r0, r3
 2019 0050 05B0     		add	sp, sp, #20
 2020              		.cfi_def_cfa_offset 4
 2021              		@ sp needed
 2022 0052 5DF804FB 		ldr	pc, [sp], #4
 2023              		.cfi_endproc
 2024              	.LFE282:
 2025              		.size	_ZN3r2p15LocalSubscriber13notify_unsafeERNS_7MessageERKNS_4TimeE, .-_ZN3r2p15LocalSubscriber
 2026 0056 00BF     		.section	.text._ZNK3r2p5Topic8get_nameEv,"axG",%progbits,_ZNK3r2p5Topic8get_nameEv,comdat
 2027              		.align	2
 2028              		.weak	_ZNK3r2p5Topic8get_nameEv
 2029              		.thumb
 2030              		.thumb_func
 2031              		.type	_ZNK3r2p5Topic8get_nameEv, %function
 2032              	_ZNK3r2p5Topic8get_nameEv:
 2033              	.LFB285:
 2034              		.file 15 "/opt/R2P/core/Middleware/include/r2p/Topic.hpp"
 2035              		.loc 15 131 0
 2036              		.cfi_startproc
 2037              		@ args = 0, pretend = 0, frame = 8
 2038              		@ frame_needed = 0, uses_anonymous_args = 0
 2039              		@ link register save eliminated.
 2040 0000 82B0     		sub	sp, sp, #8
 2041              		.cfi_def_cfa_offset 8
 2042 0002 0190     		str	r0, [sp, #4]
 2043              		.loc 15 133 0
 2044 0004 019B     		ldr	r3, [sp, #4]
 2045 0006 1B68     		ldr	r3, [r3]
 2046              		.loc 15 134 0
 2047 0008 1846     		mov	r0, r3
 2048 000a 02B0     		add	sp, sp, #8
 2049              		.cfi_def_cfa_offset 0
ARM GAS  /tmp/ccIvsbEf.s 			page 37


 2050              		@ sp needed
 2051 000c 7047     		bx	lr
 2052              		.cfi_endproc
 2053              	.LFE285:
 2054              		.size	_ZNK3r2p5Topic8get_nameEv, .-_ZNK3r2p5Topic8get_nameEv
 2055 000e 00BF     		.section	.text._ZNK3r2p5Topic16get_payload_sizeEv,"axG",%progbits,_ZNK3r2p5Topic16get_payload_size
 2056              		.align	2
 2057              		.weak	_ZNK3r2p5Topic16get_payload_sizeEv
 2058              		.thumb
 2059              		.thumb_func
 2060              		.type	_ZNK3r2p5Topic16get_payload_sizeEv, %function
 2061              	_ZNK3r2p5Topic16get_payload_sizeEv:
 2062              	.LFB288:
 2063              		.loc 15 152 0
 2064              		.cfi_startproc
 2065              		@ args = 0, pretend = 0, frame = 8
 2066              		@ frame_needed = 0, uses_anonymous_args = 0
 2067 0000 00B5     		push	{lr}
 2068              		.cfi_def_cfa_offset 4
 2069              		.cfi_offset 14, -4
 2070 0002 83B0     		sub	sp, sp, #12
 2071              		.cfi_def_cfa_offset 16
 2072 0004 0190     		str	r0, [sp, #4]
 2073              		.loc 15 154 0
 2074 0006 019B     		ldr	r3, [sp, #4]
 2075 0008 0833     		adds	r3, r3, #8
 2076 000a 1846     		mov	r0, r3
 2077 000c FFF7FEFF 		bl	_ZNK3r2p11MemoryPool_13get_item_sizeEv
 2078 0010 0346     		mov	r3, r0
 2079 0012 1846     		mov	r0, r3
 2080 0014 FFF7FEFF 		bl	_ZN3r2p7Message16get_payload_sizeEj
 2081 0018 0346     		mov	r3, r0
 2082              		.loc 15 155 0
 2083 001a 1846     		mov	r0, r3
 2084 001c 03B0     		add	sp, sp, #12
 2085              		.cfi_def_cfa_offset 4
 2086              		@ sp needed
 2087 001e 5DF804FB 		ldr	pc, [sp], #4
 2088              		.cfi_endproc
 2089              	.LFE288:
 2090              		.size	_ZNK3r2p5Topic16get_payload_sizeEv, .-_ZNK3r2p5Topic16get_payload_sizeEv
 2091 0022 00BF     		.section	.text._ZNK3r2p5Topic20get_max_queue_lengthEv,"axG",%progbits,_ZNK3r2p5Topic20get_max_queu
 2092              		.align	2
 2093              		.weak	_ZNK3r2p5Topic20get_max_queue_lengthEv
 2094              		.thumb
 2095              		.thumb_func
 2096              		.type	_ZNK3r2p5Topic20get_max_queue_lengthEv, %function
 2097              	_ZNK3r2p5Topic20get_max_queue_lengthEv:
 2098              	.LFB289:
 2099              		.loc 15 159 0
 2100              		.cfi_startproc
 2101              		@ args = 0, pretend = 0, frame = 8
 2102              		@ frame_needed = 0, uses_anonymous_args = 0
 2103              		@ link register save eliminated.
 2104 0000 82B0     		sub	sp, sp, #8
 2105              		.cfi_def_cfa_offset 8
 2106 0002 0190     		str	r0, [sp, #4]
ARM GAS  /tmp/ccIvsbEf.s 			page 38


 2107              		.loc 15 161 0
 2108 0004 019B     		ldr	r3, [sp, #4]
 2109 0006 5B6A     		ldr	r3, [r3, #36]
 2110              		.loc 15 162 0
 2111 0008 1846     		mov	r0, r3
 2112 000a 02B0     		add	sp, sp, #8
 2113              		.cfi_def_cfa_offset 0
 2114              		@ sp needed
 2115 000c 7047     		bx	lr
 2116              		.cfi_endproc
 2117              	.LFE289:
 2118              		.size	_ZNK3r2p5Topic20get_max_queue_lengthEv, .-_ZNK3r2p5Topic20get_max_queue_lengthEv
 2119 000e 00BF     		.section	.text._ZNK3r2p5Topic20has_local_publishersEv,"axG",%progbits,_ZNK3r2p5Topic20has_local_pu
 2120              		.align	2
 2121              		.weak	_ZNK3r2p5Topic20has_local_publishersEv
 2122              		.thumb
 2123              		.thumb_func
 2124              		.type	_ZNK3r2p5Topic20has_local_publishersEv, %function
 2125              	_ZNK3r2p5Topic20has_local_publishersEv:
 2126              	.LFB291:
 2127              		.loc 15 177 0
 2128              		.cfi_startproc
 2129              		@ args = 0, pretend = 0, frame = 8
 2130              		@ frame_needed = 0, uses_anonymous_args = 0
 2131              		@ link register save eliminated.
 2132 0000 82B0     		sub	sp, sp, #8
 2133              		.cfi_def_cfa_offset 8
 2134 0002 0190     		str	r0, [sp, #4]
 2135              		.loc 15 179 0
 2136 0004 019B     		ldr	r3, [sp, #4]
 2137 0006 5B69     		ldr	r3, [r3, #20]
 2138 0008 002B     		cmp	r3, #0
 2139 000a 14BF     		ite	ne
 2140 000c 0123     		movne	r3, #1
 2141 000e 0023     		moveq	r3, #0
 2142 0010 DBB2     		uxtb	r3, r3
 2143              		.loc 15 180 0
 2144 0012 1846     		mov	r0, r3
 2145 0014 02B0     		add	sp, sp, #8
 2146              		.cfi_def_cfa_offset 0
 2147              		@ sp needed
 2148 0016 7047     		bx	lr
 2149              		.cfi_endproc
 2150              	.LFE291:
 2151              		.size	_ZNK3r2p5Topic20has_local_publishersEv, .-_ZNK3r2p5Topic20has_local_publishersEv
 2152              		.section	.text._ZNK3r2p5Topic21has_local_subscribersEv,"axG",%progbits,_ZNK3r2p5Topic21has_local_s
 2153              		.align	2
 2154              		.weak	_ZNK3r2p5Topic21has_local_subscribersEv
 2155              		.thumb
 2156              		.thumb_func
 2157              		.type	_ZNK3r2p5Topic21has_local_subscribersEv, %function
 2158              	_ZNK3r2p5Topic21has_local_subscribersEv:
 2159              	.LFB294:
 2160              		.loc 15 198 0
 2161              		.cfi_startproc
 2162              		@ args = 0, pretend = 0, frame = 8
 2163              		@ frame_needed = 0, uses_anonymous_args = 0
ARM GAS  /tmp/ccIvsbEf.s 			page 39


 2164 0000 00B5     		push	{lr}
 2165              		.cfi_def_cfa_offset 4
 2166              		.cfi_offset 14, -4
 2167 0002 83B0     		sub	sp, sp, #12
 2168              		.cfi_def_cfa_offset 16
 2169 0004 0190     		str	r0, [sp, #4]
 2170              		.loc 15 200 0
 2171 0006 019B     		ldr	r3, [sp, #4]
 2172 0008 1C33     		adds	r3, r3, #28
 2173 000a 1846     		mov	r0, r3
 2174 000c FFF7FEFF 		bl	_ZNK3r2p10StaticListINS_15LocalSubscriberEE15is_empty_unsafeEv
 2175 0010 0346     		mov	r3, r0
 2176 0012 83F00103 		eor	r3, r3, #1
 2177 0016 DBB2     		uxtb	r3, r3
 2178              		.loc 15 201 0
 2179 0018 1846     		mov	r0, r3
 2180 001a 03B0     		add	sp, sp, #12
 2181              		.cfi_def_cfa_offset 4
 2182              		@ sp needed
 2183 001c 5DF804FB 		ldr	pc, [sp], #4
 2184              		.cfi_endproc
 2185              	.LFE294:
 2186              		.size	_ZNK3r2p5Topic21has_local_subscribersEv, .-_ZNK3r2p5Topic21has_local_subscribersEv
 2187              		.section	.text._ZNK3r2p5Topic23compute_deadline_unsafeERKNS_4TimeE,"axG",%progbits,_ZNK3r2p5Topic2
 2188              		.align	2
 2189              		.weak	_ZNK3r2p5Topic23compute_deadline_unsafeERKNS_4TimeE
 2190              		.thumb
 2191              		.thumb_func
 2192              		.type	_ZNK3r2p5Topic23compute_deadline_unsafeERKNS_4TimeE, %function
 2193              	_ZNK3r2p5Topic23compute_deadline_unsafeERKNS_4TimeE:
 2194              	.LFB299:
 2195              		.loc 15 236 0
 2196              		.cfi_startproc
 2197              		@ args = 0, pretend = 0, frame = 16
 2198              		@ frame_needed = 0, uses_anonymous_args = 0
 2199 0000 00B5     		push	{lr}
 2200              		.cfi_def_cfa_offset 4
 2201              		.cfi_offset 14, -4
 2202 0002 85B0     		sub	sp, sp, #20
 2203              		.cfi_def_cfa_offset 24
 2204 0004 0390     		str	r0, [sp, #12]
 2205 0006 0291     		str	r1, [sp, #8]
 2206 0008 0192     		str	r2, [sp, #4]
 2207              		.loc 15 238 0
 2208 000a 029B     		ldr	r3, [sp, #8]
 2209 000c 0433     		adds	r3, r3, #4
 2210 000e 039A     		ldr	r2, [sp, #12]
 2211 0010 1046     		mov	r0, r2
 2212 0012 0199     		ldr	r1, [sp, #4]
 2213 0014 1A46     		mov	r2, r3
 2214 0016 FFF7FEFF 		bl	_ZN3r2pplERKNS_4TimeES2_
 2215              		.loc 15 239 0
 2216 001a 0398     		ldr	r0, [sp, #12]
 2217 001c 05B0     		add	sp, sp, #20
 2218              		.cfi_def_cfa_offset 4
 2219              		@ sp needed
 2220 001e 5DF804FB 		ldr	pc, [sp], #4
ARM GAS  /tmp/ccIvsbEf.s 			page 40


 2221              		.cfi_endproc
 2222              	.LFE299:
 2223              		.size	_ZNK3r2p5Topic23compute_deadline_unsafeERKNS_4TimeE, .-_ZNK3r2p5Topic23compute_deadline_unsa
 2224 0022 00BF     		.section	.text._ZN3r2p5Topic12alloc_unsafeEv,"axG",%progbits,_ZN3r2p5Topic12alloc_unsafeEv,comdat
 2225              		.align	2
 2226              		.weak	_ZN3r2p5Topic12alloc_unsafeEv
 2227              		.thumb
 2228              		.thumb_func
 2229              		.type	_ZN3r2p5Topic12alloc_unsafeEv, %function
 2230              	_ZN3r2p5Topic12alloc_unsafeEv:
 2231              	.LFB301:
 2232              		.loc 15 250 0
 2233              		.cfi_startproc
 2234              		@ args = 0, pretend = 0, frame = 8
 2235              		@ frame_needed = 0, uses_anonymous_args = 0
 2236 0000 10B5     		push	{r4, lr}
 2237              		.cfi_def_cfa_offset 8
 2238              		.cfi_offset 4, -8
 2239              		.cfi_offset 14, -4
 2240 0002 82B0     		sub	sp, sp, #8
 2241              		.cfi_def_cfa_offset 16
 2242 0004 0190     		str	r0, [sp, #4]
 2243              	.LBB67:
 2244              		.loc 15 252 0
 2245 0006 019B     		ldr	r3, [sp, #4]
 2246 0008 0833     		adds	r3, r3, #8
 2247 000a 1846     		mov	r0, r3
 2248 000c FFF7FEFF 		bl	_ZN3r2p11MemoryPool_12alloc_unsafeEv
 2249 0010 0446     		mov	r4, r0
 2250              		.loc 15 253 0
 2251 0012 002C     		cmp	r4, #0
 2252 0014 04D0     		beq	.L145
 2253              		.loc 15 254 0
 2254 0016 2046     		mov	r0, r4
 2255 0018 FFF7FEFF 		bl	_ZN3r2p7Message12reset_unsafeEv
 2256              		.loc 15 255 0
 2257 001c 2346     		mov	r3, r4
 2258 001e 00E0     		b	.L146
 2259              	.L145:
 2260              		.loc 15 257 0
 2261 0020 0023     		movs	r3, #0
 2262              	.L146:
 2263              	.LBE67:
 2264              		.loc 15 258 0
 2265 0022 1846     		mov	r0, r3
 2266 0024 02B0     		add	sp, sp, #8
 2267              		.cfi_def_cfa_offset 8
 2268              		@ sp needed
 2269 0026 10BD     		pop	{r4, pc}
 2270              		.cfi_endproc
 2271              	.LFE301:
 2272              		.size	_ZN3r2p5Topic12alloc_unsafeEv, .-_ZN3r2p5Topic12alloc_unsafeEv
 2273              		.section	.text._ZNK3r2p5Topic16compute_deadlineERKNS_4TimeE,"axG",%progbits,_ZNK3r2p5Topic16comput
 2274              		.align	2
 2275              		.weak	_ZNK3r2p5Topic16compute_deadlineERKNS_4TimeE
 2276              		.thumb
 2277              		.thumb_func
ARM GAS  /tmp/ccIvsbEf.s 			page 41


 2278              		.type	_ZNK3r2p5Topic16compute_deadlineERKNS_4TimeE, %function
 2279              	_ZNK3r2p5Topic16compute_deadlineERKNS_4TimeE:
 2280              	.LFB305:
 2281              		.loc 15 288 0
 2282              		.cfi_startproc
 2283              		@ args = 0, pretend = 0, frame = 24
 2284              		@ frame_needed = 0, uses_anonymous_args = 0
 2285 0000 00B5     		push	{lr}
 2286              		.cfi_def_cfa_offset 4
 2287              		.cfi_offset 14, -4
 2288 0002 87B0     		sub	sp, sp, #28
 2289              		.cfi_def_cfa_offset 32
 2290 0004 0390     		str	r0, [sp, #12]
 2291 0006 0291     		str	r1, [sp, #8]
 2292 0008 0192     		str	r2, [sp, #4]
 2293              	.LBB68:
 2294              		.loc 15 290 0
 2295 000a FFF7FEFF 		bl	_ZN3r2p7SysLock7acquireEv
 2296              		.loc 15 291 0
 2297 000e 04AB     		add	r3, sp, #16
 2298 0010 1846     		mov	r0, r3
 2299 0012 0299     		ldr	r1, [sp, #8]
 2300 0014 019A     		ldr	r2, [sp, #4]
 2301 0016 FFF7FEFF 		bl	_ZNK3r2p5Topic23compute_deadline_unsafeERKNS_4TimeE
 2302 001a 04AB     		add	r3, sp, #16
 2303 001c 0593     		str	r3, [sp, #20]
 2304              		.loc 15 292 0
 2305 001e FFF7FEFF 		bl	_ZN3r2p7SysLock7releaseEv
 2306              		.loc 15 293 0
 2307 0022 0398     		ldr	r0, [sp, #12]
 2308 0024 0599     		ldr	r1, [sp, #20]
 2309 0026 FFF7FEFF 		bl	_ZN3r2p4TimeC1ERKS0_
 2310              	.LBE68:
 2311              		.loc 15 294 0
 2312 002a 0398     		ldr	r0, [sp, #12]
 2313 002c 07B0     		add	sp, sp, #28
 2314              		.cfi_def_cfa_offset 4
 2315              		@ sp needed
 2316 002e 5DF804FB 		ldr	pc, [sp], #4
 2317              		.cfi_endproc
 2318              	.LFE305:
 2319              		.size	_ZNK3r2p5Topic16compute_deadlineERKNS_4TimeE, .-_ZNK3r2p5Topic16compute_deadlineERKNS_4TimeE
 2320 0032 00BF     		.section	.text._ZNK3r2p5Topic16compute_deadlineEv,"axG",%progbits,_ZNK3r2p5Topic16compute_deadline
 2321              		.align	2
 2322              		.weak	_ZNK3r2p5Topic16compute_deadlineEv
 2323              		.thumb
 2324              		.thumb_func
 2325              		.type	_ZNK3r2p5Topic16compute_deadlineEv, %function
 2326              	_ZNK3r2p5Topic16compute_deadlineEv:
 2327              	.LFB306:
 2328              		.loc 15 298 0
 2329              		.cfi_startproc
 2330              		@ args = 0, pretend = 0, frame = 16
 2331              		@ frame_needed = 0, uses_anonymous_args = 0
 2332 0000 00B5     		push	{lr}
 2333              		.cfi_def_cfa_offset 4
 2334              		.cfi_offset 14, -4
ARM GAS  /tmp/ccIvsbEf.s 			page 42


 2335 0002 85B0     		sub	sp, sp, #20
 2336              		.cfi_def_cfa_offset 24
 2337 0004 0190     		str	r0, [sp, #4]
 2338 0006 0091     		str	r1, [sp]
 2339              		.loc 15 300 0
 2340 0008 03AB     		add	r3, sp, #12
 2341 000a 1846     		mov	r0, r3
 2342 000c FFF7FEFF 		bl	_ZN3r2p4Time3nowEv
 2343 0010 019A     		ldr	r2, [sp, #4]
 2344 0012 03AB     		add	r3, sp, #12
 2345 0014 1046     		mov	r0, r2
 2346 0016 0099     		ldr	r1, [sp]
 2347 0018 1A46     		mov	r2, r3
 2348 001a FFF7FEFF 		bl	_ZNK3r2p5Topic16compute_deadlineERKNS_4TimeE
 2349              		.loc 15 301 0
 2350 001e 0198     		ldr	r0, [sp, #4]
 2351 0020 05B0     		add	sp, sp, #20
 2352              		.cfi_def_cfa_offset 4
 2353              		@ sp needed
 2354 0022 5DF804FB 		ldr	pc, [sp], #4
 2355              		.cfi_endproc
 2356              	.LFE306:
 2357              		.size	_ZNK3r2p5Topic16compute_deadlineEv, .-_ZNK3r2p5Topic16compute_deadlineEv
 2358 0026 00BF     		.section	.text._ZN3r2p5Topic11extend_poolEPNS_7MessageEj,"axG",%progbits,_ZN3r2p5Topic11extend_poo
 2359              		.align	2
 2360              		.weak	_ZN3r2p5Topic11extend_poolEPNS_7MessageEj
 2361              		.thumb
 2362              		.thumb_func
 2363              		.type	_ZN3r2p5Topic11extend_poolEPNS_7MessageEj, %function
 2364              	_ZN3r2p5Topic11extend_poolEPNS_7MessageEj:
 2365              	.LFB310:
 2366              		.loc 15 330 0
 2367              		.cfi_startproc
 2368              		@ args = 0, pretend = 0, frame = 16
 2369              		@ frame_needed = 0, uses_anonymous_args = 0
 2370 0000 00B5     		push	{lr}
 2371              		.cfi_def_cfa_offset 4
 2372              		.cfi_offset 14, -4
 2373 0002 85B0     		sub	sp, sp, #20
 2374              		.cfi_def_cfa_offset 24
 2375 0004 0390     		str	r0, [sp, #12]
 2376 0006 0291     		str	r1, [sp, #8]
 2377 0008 0192     		str	r2, [sp, #4]
 2378              		.loc 15 332 0
 2379 000a 039B     		ldr	r3, [sp, #12]
 2380 000c 0833     		adds	r3, r3, #8
 2381 000e 1846     		mov	r0, r3
 2382 0010 0299     		ldr	r1, [sp, #8]
 2383 0012 019A     		ldr	r2, [sp, #4]
 2384 0014 FFF7FEFF 		bl	_ZN3r2p11MemoryPool_6extendEPvj
 2385              		.loc 15 333 0
 2386 0018 05B0     		add	sp, sp, #20
 2387              		.cfi_def_cfa_offset 4
 2388              		@ sp needed
 2389 001a 5DF804FB 		ldr	pc, [sp], #4
 2390              		.cfi_endproc
 2391              	.LFE310:
ARM GAS  /tmp/ccIvsbEf.s 			page 43


 2392              		.size	_ZN3r2p5Topic11extend_poolEPNS_7MessageEj, .-_ZN3r2p5Topic11extend_poolEPNS_7MessageEj
 2393 001e 00BF     		.section	.text._ZN3r2p5Topic8has_nameERKS0_PKc,"axG",%progbits,_ZN3r2p5Topic8has_nameERKS0_PKc,com
 2394              		.align	2
 2395              		.weak	_ZN3r2p5Topic8has_nameERKS0_PKc
 2396              		.thumb
 2397              		.thumb_func
 2398              		.type	_ZN3r2p5Topic8has_nameERKS0_PKc, %function
 2399              	_ZN3r2p5Topic8has_nameERKS0_PKc:
 2400              	.LFB311:
 2401              		.loc 15 337 0
 2402              		.cfi_startproc
 2403              		@ args = 0, pretend = 0, frame = 8
 2404              		@ frame_needed = 0, uses_anonymous_args = 0
 2405 0000 00B5     		push	{lr}
 2406              		.cfi_def_cfa_offset 4
 2407              		.cfi_offset 14, -4
 2408 0002 83B0     		sub	sp, sp, #12
 2409              		.cfi_def_cfa_offset 16
 2410 0004 0190     		str	r0, [sp, #4]
 2411 0006 0091     		str	r1, [sp]
 2412              		.loc 15 339 0
 2413 0008 009B     		ldr	r3, [sp]
 2414 000a 002B     		cmp	r3, #0
 2415 000c 0DD0     		beq	.L153
 2416              		.loc 15 340 0 discriminator 1
 2417 000e 0198     		ldr	r0, [sp, #4]
 2418 0010 FFF7FEFF 		bl	_ZNK3r2p5Topic8get_nameEv
 2419 0014 0346     		mov	r3, r0
 2420 0016 1846     		mov	r0, r3
 2421 0018 0099     		ldr	r1, [sp]
 2422 001a 1022     		movs	r2, #16
 2423 001c FFF7FEFF 		bl	strncmp
 2424 0020 0346     		mov	r3, r0
 2425              		.loc 15 339 0 discriminator 1
 2426 0022 002B     		cmp	r3, #0
 2427 0024 01D1     		bne	.L153
 2428              		.loc 15 339 0 is_stmt 0 discriminator 3
 2429 0026 0123     		movs	r3, #1
 2430 0028 00E0     		b	.L154
 2431              	.L153:
 2432              		.loc 15 339 0 discriminator 4
 2433 002a 0023     		movs	r3, #0
 2434              	.L154:
 2435              		.loc 15 341 0 is_stmt 1
 2436 002c 1846     		mov	r0, r3
 2437 002e 03B0     		add	sp, sp, #12
 2438              		.cfi_def_cfa_offset 4
 2439              		@ sp needed
 2440 0030 5DF804FB 		ldr	pc, [sp], #4
 2441              		.cfi_endproc
 2442              	.LFE311:
 2443              		.size	_ZN3r2p5Topic8has_nameERKS0_PKc, .-_ZN3r2p5Topic8has_nameERKS0_PKc
 2444              		.section	.text._ZN3r2p8Flasher_D2Ev,"axG",%progbits,_ZN3r2p8Flasher_D5Ev,comdat
 2445              		.align	2
 2446              		.weak	_ZN3r2p8Flasher_D2Ev
 2447              		.thumb
 2448              		.thumb_func
ARM GAS  /tmp/ccIvsbEf.s 			page 44


 2449              		.type	_ZN3r2p8Flasher_D2Ev, %function
 2450              	_ZN3r2p8Flasher_D2Ev:
 2451              	.LFB352:
 2452              		.file 16 "/opt/R2P/core/Middleware/port/chibios/include/r2p/impl/Flasher_.hpp"
 2453              		.loc 16 33 0
 2454              		.cfi_startproc
 2455              		@ args = 0, pretend = 0, frame = 8
 2456              		@ frame_needed = 0, uses_anonymous_args = 0
 2457 0000 00B5     		push	{lr}
 2458              		.cfi_def_cfa_offset 4
 2459              		.cfi_offset 14, -4
 2460 0002 83B0     		sub	sp, sp, #12
 2461              		.cfi_def_cfa_offset 16
 2462 0004 0190     		str	r0, [sp, #4]
 2463              	.LBB69:
 2464              		.loc 16 33 0
 2465 0006 0198     		ldr	r0, [sp, #4]
 2466 0008 FFF7FEFF 		bl	_ZN3r2p10UncopyableD2Ev
 2467              	.LBE69:
 2468 000c 019B     		ldr	r3, [sp, #4]
 2469 000e 1846     		mov	r0, r3
 2470 0010 03B0     		add	sp, sp, #12
 2471              		.cfi_def_cfa_offset 4
 2472              		@ sp needed
 2473 0012 5DF804FB 		ldr	pc, [sp], #4
 2474              		.cfi_endproc
 2475              	.LFE352:
 2476              		.size	_ZN3r2p8Flasher_D2Ev, .-_ZN3r2p8Flasher_D2Ev
 2477              		.weak	_ZN3r2p8Flasher_D1Ev
 2478              		.thumb_set _ZN3r2p8Flasher_D1Ev,_ZN3r2p8Flasher_D2Ev
 2479 0016 00BF     		.section	.text._ZN3r2p6Mutex_10initializeEv,"axG",%progbits,_ZN3r2p6Mutex_10initializeEv,comdat
 2480              		.align	2
 2481              		.weak	_ZN3r2p6Mutex_10initializeEv
 2482              		.thumb
 2483              		.thumb_func
 2484              		.type	_ZN3r2p6Mutex_10initializeEv, %function
 2485              	_ZN3r2p6Mutex_10initializeEv:
 2486              	.LFB408:
 2487              		.file 17 "/opt/R2P/core/Middleware/port/chibios/include/r2p/impl/Mutex_.hpp"
 2488              		.loc 17 31 0
 2489              		.cfi_startproc
 2490              		@ args = 0, pretend = 0, frame = 8
 2491              		@ frame_needed = 0, uses_anonymous_args = 0
 2492 0000 00B5     		push	{lr}
 2493              		.cfi_def_cfa_offset 4
 2494              		.cfi_offset 14, -4
 2495 0002 83B0     		sub	sp, sp, #12
 2496              		.cfi_def_cfa_offset 16
 2497 0004 0190     		str	r0, [sp, #4]
 2498              		.loc 17 33 0
 2499 0006 019B     		ldr	r3, [sp, #4]
 2500 0008 1846     		mov	r0, r3
 2501 000a FFF7FEFF 		bl	chMtxInit
 2502              		.loc 17 34 0
 2503 000e 03B0     		add	sp, sp, #12
 2504              		.cfi_def_cfa_offset 4
 2505              		@ sp needed
ARM GAS  /tmp/ccIvsbEf.s 			page 45


 2506 0010 5DF804FB 		ldr	pc, [sp], #4
 2507              		.cfi_endproc
 2508              	.LFE408:
 2509              		.size	_ZN3r2p6Mutex_10initializeEv, .-_ZN3r2p6Mutex_10initializeEv
 2510              		.section	.text._ZN3r2p6Mutex_14acquire_unsafeEv,"axG",%progbits,_ZN3r2p6Mutex_14acquire_unsafeEv,c
 2511              		.align	2
 2512              		.weak	_ZN3r2p6Mutex_14acquire_unsafeEv
 2513              		.thumb
 2514              		.thumb_func
 2515              		.type	_ZN3r2p6Mutex_14acquire_unsafeEv, %function
 2516              	_ZN3r2p6Mutex_14acquire_unsafeEv:
 2517              	.LFB409:
 2518              		.loc 17 38 0
 2519              		.cfi_startproc
 2520              		@ args = 0, pretend = 0, frame = 8
 2521              		@ frame_needed = 0, uses_anonymous_args = 0
 2522 0000 00B5     		push	{lr}
 2523              		.cfi_def_cfa_offset 4
 2524              		.cfi_offset 14, -4
 2525 0002 83B0     		sub	sp, sp, #12
 2526              		.cfi_def_cfa_offset 16
 2527 0004 0190     		str	r0, [sp, #4]
 2528              		.loc 17 40 0
 2529 0006 019B     		ldr	r3, [sp, #4]
 2530 0008 1846     		mov	r0, r3
 2531 000a FFF7FEFF 		bl	chMtxLockS
 2532              		.loc 17 41 0
 2533 000e 03B0     		add	sp, sp, #12
 2534              		.cfi_def_cfa_offset 4
 2535              		@ sp needed
 2536 0010 5DF804FB 		ldr	pc, [sp], #4
 2537              		.cfi_endproc
 2538              	.LFE409:
 2539              		.size	_ZN3r2p6Mutex_14acquire_unsafeEv, .-_ZN3r2p6Mutex_14acquire_unsafeEv
 2540              		.section	.text._ZN3r2p6Mutex_14release_unsafeEv,"axG",%progbits,_ZN3r2p6Mutex_14release_unsafeEv,c
 2541              		.align	2
 2542              		.weak	_ZN3r2p6Mutex_14release_unsafeEv
 2543              		.thumb
 2544              		.thumb_func
 2545              		.type	_ZN3r2p6Mutex_14release_unsafeEv, %function
 2546              	_ZN3r2p6Mutex_14release_unsafeEv:
 2547              	.LFB410:
 2548              		.loc 17 45 0
 2549              		.cfi_startproc
 2550              		@ args = 0, pretend = 0, frame = 8
 2551              		@ frame_needed = 0, uses_anonymous_args = 0
 2552 0000 00B5     		push	{lr}
 2553              		.cfi_def_cfa_offset 4
 2554              		.cfi_offset 14, -4
 2555 0002 83B0     		sub	sp, sp, #12
 2556              		.cfi_def_cfa_offset 16
 2557 0004 0190     		str	r0, [sp, #4]
 2558              		.loc 17 47 0
 2559 0006 FFF7FEFF 		bl	chMtxUnlockS
 2560              		.loc 17 48 0
 2561 000a 03B0     		add	sp, sp, #12
 2562              		.cfi_def_cfa_offset 4
ARM GAS  /tmp/ccIvsbEf.s 			page 46


 2563              		@ sp needed
 2564 000c 5DF804FB 		ldr	pc, [sp], #4
 2565              		.cfi_endproc
 2566              	.LFE410:
 2567              		.size	_ZN3r2p6Mutex_14release_unsafeEv, .-_ZN3r2p6Mutex_14release_unsafeEv
 2568              		.section	.text._ZN3r2p6Mutex_C2Eb,"axG",%progbits,_ZN3r2p6Mutex_C5Eb,comdat
 2569              		.align	2
 2570              		.weak	_ZN3r2p6Mutex_C2Eb
 2571              		.thumb
 2572              		.thumb_func
 2573              		.type	_ZN3r2p6Mutex_C2Eb, %function
 2574              	_ZN3r2p6Mutex_C2Eb:
 2575              	.LFB418:
 2576              		.loc 17 80 0
 2577              		.cfi_startproc
 2578              		@ args = 0, pretend = 0, frame = 8
 2579              		@ frame_needed = 0, uses_anonymous_args = 0
 2580 0000 00B5     		push	{lr}
 2581              		.cfi_def_cfa_offset 4
 2582              		.cfi_offset 14, -4
 2583 0002 83B0     		sub	sp, sp, #12
 2584              		.cfi_def_cfa_offset 16
 2585 0004 0190     		str	r0, [sp, #4]
 2586 0006 0B46     		mov	r3, r1
 2587 0008 8DF80330 		strb	r3, [sp, #3]
 2588              	.LBB70:
 2589              		.loc 17 80 0
 2590 000c 0198     		ldr	r0, [sp, #4]
 2591 000e FFF7FEFF 		bl	_ZN3r2p10UncopyableC2Ev
 2592              		.loc 17 82 0
 2593 0012 9DF80330 		ldrb	r3, [sp, #3]	@ zero_extendqisi2
 2594 0016 002B     		cmp	r3, #0
 2595 0018 02D0     		beq	.L163
 2596              		.loc 17 83 0
 2597 001a 0198     		ldr	r0, [sp, #4]
 2598 001c FFF7FEFF 		bl	_ZN3r2p6Mutex_10initializeEv
 2599              	.L163:
 2600              	.LBE70:
 2601              		.loc 17 85 0
 2602 0020 019B     		ldr	r3, [sp, #4]
 2603 0022 1846     		mov	r0, r3
 2604 0024 03B0     		add	sp, sp, #12
 2605              		.cfi_def_cfa_offset 4
 2606              		@ sp needed
 2607 0026 5DF804FB 		ldr	pc, [sp], #4
 2608              		.cfi_endproc
 2609              	.LFE418:
 2610              		.size	_ZN3r2p6Mutex_C2Eb, .-_ZN3r2p6Mutex_C2Eb
 2611              		.weak	_ZN3r2p6Mutex_C1Eb
 2612              		.thumb_set _ZN3r2p6Mutex_C1Eb,_ZN3r2p6Mutex_C2Eb
 2613 002a 00BF     		.section	.text._ZN3r2p5Mutex10initializeEv,"axG",%progbits,_ZN3r2p5Mutex10initializeEv,comdat
 2614              		.align	2
 2615              		.weak	_ZN3r2p5Mutex10initializeEv
 2616              		.thumb
 2617              		.thumb_func
 2618              		.type	_ZN3r2p5Mutex10initializeEv, %function
 2619              	_ZN3r2p5Mutex10initializeEv:
ARM GAS  /tmp/ccIvsbEf.s 			page 47


 2620              	.LFB420:
 2621              		.file 18 "/opt/R2P/core/Middleware/include/r2p/Mutex.hpp"
 2622              		.loc 18 29 0
 2623              		.cfi_startproc
 2624              		@ args = 0, pretend = 0, frame = 8
 2625              		@ frame_needed = 0, uses_anonymous_args = 0
 2626 0000 00B5     		push	{lr}
 2627              		.cfi_def_cfa_offset 4
 2628              		.cfi_offset 14, -4
 2629 0002 83B0     		sub	sp, sp, #12
 2630              		.cfi_def_cfa_offset 16
 2631 0004 0190     		str	r0, [sp, #4]
 2632              		.loc 18 31 0
 2633 0006 019B     		ldr	r3, [sp, #4]
 2634 0008 0433     		adds	r3, r3, #4
 2635 000a 1846     		mov	r0, r3
 2636 000c FFF7FEFF 		bl	_ZN3r2p6Mutex_10initializeEv
 2637              		.loc 18 32 0
 2638 0010 03B0     		add	sp, sp, #12
 2639              		.cfi_def_cfa_offset 4
 2640              		@ sp needed
 2641 0012 5DF804FB 		ldr	pc, [sp], #4
 2642              		.cfi_endproc
 2643              	.LFE420:
 2644              		.size	_ZN3r2p5Mutex10initializeEv, .-_ZN3r2p5Mutex10initializeEv
 2645 0016 00BF     		.section	.text._ZN3r2p5Mutex14acquire_unsafeEv,"axG",%progbits,_ZN3r2p5Mutex14acquire_unsafeEv,com
 2646              		.align	2
 2647              		.weak	_ZN3r2p5Mutex14acquire_unsafeEv
 2648              		.thumb
 2649              		.thumb_func
 2650              		.type	_ZN3r2p5Mutex14acquire_unsafeEv, %function
 2651              	_ZN3r2p5Mutex14acquire_unsafeEv:
 2652              	.LFB421:
 2653              		.loc 18 36 0
 2654              		.cfi_startproc
 2655              		@ args = 0, pretend = 0, frame = 8
 2656              		@ frame_needed = 0, uses_anonymous_args = 0
 2657 0000 00B5     		push	{lr}
 2658              		.cfi_def_cfa_offset 4
 2659              		.cfi_offset 14, -4
 2660 0002 83B0     		sub	sp, sp, #12
 2661              		.cfi_def_cfa_offset 16
 2662 0004 0190     		str	r0, [sp, #4]
 2663              		.loc 18 37 0
 2664 0006 019B     		ldr	r3, [sp, #4]
 2665 0008 0433     		adds	r3, r3, #4
 2666 000a 1846     		mov	r0, r3
 2667 000c FFF7FEFF 		bl	_ZN3r2p6Mutex_14acquire_unsafeEv
 2668              		.loc 18 38 0
 2669 0010 03B0     		add	sp, sp, #12
 2670              		.cfi_def_cfa_offset 4
 2671              		@ sp needed
 2672 0012 5DF804FB 		ldr	pc, [sp], #4
 2673              		.cfi_endproc
 2674              	.LFE421:
 2675              		.size	_ZN3r2p5Mutex14acquire_unsafeEv, .-_ZN3r2p5Mutex14acquire_unsafeEv
 2676 0016 00BF     		.section	.text._ZN3r2p5Mutex14release_unsafeEv,"axG",%progbits,_ZN3r2p5Mutex14release_unsafeEv,com
ARM GAS  /tmp/ccIvsbEf.s 			page 48


 2677              		.align	2
 2678              		.weak	_ZN3r2p5Mutex14release_unsafeEv
 2679              		.thumb
 2680              		.thumb_func
 2681              		.type	_ZN3r2p5Mutex14release_unsafeEv, %function
 2682              	_ZN3r2p5Mutex14release_unsafeEv:
 2683              	.LFB422:
 2684              		.loc 18 42 0
 2685              		.cfi_startproc
 2686              		@ args = 0, pretend = 0, frame = 8
 2687              		@ frame_needed = 0, uses_anonymous_args = 0
 2688 0000 00B5     		push	{lr}
 2689              		.cfi_def_cfa_offset 4
 2690              		.cfi_offset 14, -4
 2691 0002 83B0     		sub	sp, sp, #12
 2692              		.cfi_def_cfa_offset 16
 2693 0004 0190     		str	r0, [sp, #4]
 2694              		.loc 18 43 0
 2695 0006 019B     		ldr	r3, [sp, #4]
 2696 0008 0433     		adds	r3, r3, #4
 2697 000a 1846     		mov	r0, r3
 2698 000c FFF7FEFF 		bl	_ZN3r2p6Mutex_14release_unsafeEv
 2699              		.loc 18 44 0
 2700 0010 03B0     		add	sp, sp, #12
 2701              		.cfi_def_cfa_offset 4
 2702              		@ sp needed
 2703 0012 5DF804FB 		ldr	pc, [sp], #4
 2704              		.cfi_endproc
 2705              	.LFE422:
 2706              		.size	_ZN3r2p5Mutex14release_unsafeEv, .-_ZN3r2p5Mutex14release_unsafeEv
 2707 0016 00BF     		.section	.text._ZN3r2p5MutexC2Eb,"axG",%progbits,_ZN3r2p5MutexC5Eb,comdat
 2708              		.align	2
 2709              		.weak	_ZN3r2p5MutexC2Eb
 2710              		.thumb
 2711              		.thumb_func
 2712              		.type	_ZN3r2p5MutexC2Eb, %function
 2713              	_ZN3r2p5MutexC2Eb:
 2714              	.LFB432:
 2715              		.loc 18 67 0
 2716              		.cfi_startproc
 2717              		@ args = 0, pretend = 0, frame = 8
 2718              		@ frame_needed = 0, uses_anonymous_args = 0
 2719 0000 00B5     		push	{lr}
 2720              		.cfi_def_cfa_offset 4
 2721              		.cfi_offset 14, -4
 2722 0002 83B0     		sub	sp, sp, #12
 2723              		.cfi_def_cfa_offset 16
 2724 0004 0190     		str	r0, [sp, #4]
 2725 0006 0B46     		mov	r3, r1
 2726 0008 8DF80330 		strb	r3, [sp, #3]
 2727              	.LBB71:
 2728              		.loc 18 69 0
 2729 000c 0198     		ldr	r0, [sp, #4]
 2730 000e FFF7FEFF 		bl	_ZN3r2p10UncopyableC2Ev
 2731 0012 019B     		ldr	r3, [sp, #4]
 2732 0014 1A1D     		adds	r2, r3, #4
 2733 0016 9DF80330 		ldrb	r3, [sp, #3]	@ zero_extendqisi2
ARM GAS  /tmp/ccIvsbEf.s 			page 49


 2734 001a 1046     		mov	r0, r2
 2735 001c 1946     		mov	r1, r3
 2736 001e FFF7FEFF 		bl	_ZN3r2p6Mutex_C1Eb
 2737              	.LBE71:
 2738              		.loc 18 70 0
 2739 0022 019B     		ldr	r3, [sp, #4]
 2740 0024 1846     		mov	r0, r3
 2741 0026 03B0     		add	sp, sp, #12
 2742              		.cfi_def_cfa_offset 4
 2743              		@ sp needed
 2744 0028 5DF804FB 		ldr	pc, [sp], #4
 2745              		.cfi_endproc
 2746              	.LFE432:
 2747              		.size	_ZN3r2p5MutexC2Eb, .-_ZN3r2p5MutexC2Eb
 2748              		.weak	_ZN3r2p5MutexC1Eb
 2749              		.thumb_set _ZN3r2p5MutexC1Eb,_ZN3r2p5MutexC2Eb
 2750              		.section	.text._ZN3r2p7ReMutex10initializeEv,"axG",%progbits,_ZN3r2p7ReMutex10initializeEv,comdat
 2751              		.align	2
 2752              		.weak	_ZN3r2p7ReMutex10initializeEv
 2753              		.thumb
 2754              		.thumb_func
 2755              		.type	_ZN3r2p7ReMutex10initializeEv, %function
 2756              	_ZN3r2p7ReMutex10initializeEv:
 2757              	.LFB434:
 2758              		.file 19 "/opt/R2P/core/Middleware/include/r2p/ReMutex.hpp"
 2759              		.loc 19 30 0
 2760              		.cfi_startproc
 2761              		@ args = 0, pretend = 0, frame = 8
 2762              		@ frame_needed = 0, uses_anonymous_args = 0
 2763 0000 00B5     		push	{lr}
 2764              		.cfi_def_cfa_offset 4
 2765              		.cfi_offset 14, -4
 2766 0002 83B0     		sub	sp, sp, #12
 2767              		.cfi_def_cfa_offset 16
 2768 0004 0190     		str	r0, [sp, #4]
 2769              		.loc 19 32 0
 2770 0006 019B     		ldr	r3, [sp, #4]
 2771 0008 0022     		movs	r2, #0
 2772 000a 1A60     		str	r2, [r3]
 2773              		.loc 19 33 0
 2774 000c 019B     		ldr	r3, [sp, #4]
 2775 000e 0433     		adds	r3, r3, #4
 2776 0010 1846     		mov	r0, r3
 2777 0012 FFF7FEFF 		bl	_ZN3r2p5Mutex10initializeEv
 2778              		.loc 19 34 0
 2779 0016 03B0     		add	sp, sp, #12
 2780              		.cfi_def_cfa_offset 4
 2781              		@ sp needed
 2782 0018 5DF804FB 		ldr	pc, [sp], #4
 2783              		.cfi_endproc
 2784              	.LFE434:
 2785              		.size	_ZN3r2p7ReMutex10initializeEv, .-_ZN3r2p7ReMutex10initializeEv
 2786              		.section	.text._ZN3r2p7ReMutex14acquire_unsafeEv,"axG",%progbits,_ZN3r2p7ReMutex14acquire_unsafeEv
 2787              		.align	2
 2788              		.weak	_ZN3r2p7ReMutex14acquire_unsafeEv
 2789              		.thumb
 2790              		.thumb_func
ARM GAS  /tmp/ccIvsbEf.s 			page 50


 2791              		.type	_ZN3r2p7ReMutex14acquire_unsafeEv, %function
 2792              	_ZN3r2p7ReMutex14acquire_unsafeEv:
 2793              	.LFB435:
 2794              		.loc 19 38 0
 2795              		.cfi_startproc
 2796              		@ args = 0, pretend = 0, frame = 8
 2797              		@ frame_needed = 0, uses_anonymous_args = 0
 2798 0000 00B5     		push	{lr}
 2799              		.cfi_def_cfa_offset 4
 2800              		.cfi_offset 14, -4
 2801 0002 83B0     		sub	sp, sp, #12
 2802              		.cfi_def_cfa_offset 16
 2803 0004 0190     		str	r0, [sp, #4]
 2804              		.loc 19 40 0
 2805 0006 019B     		ldr	r3, [sp, #4]
 2806 0008 1B68     		ldr	r3, [r3]
 2807 000a 5A1C     		adds	r2, r3, #1
 2808 000c 019B     		ldr	r3, [sp, #4]
 2809 000e 1A60     		str	r2, [r3]
 2810 0010 019B     		ldr	r3, [sp, #4]
 2811 0012 1B68     		ldr	r3, [r3]
 2812 0014 012B     		cmp	r3, #1
 2813 0016 0CBF     		ite	eq
 2814 0018 0123     		moveq	r3, #1
 2815 001a 0023     		movne	r3, #0
 2816 001c DBB2     		uxtb	r3, r3
 2817 001e 002B     		cmp	r3, #0
 2818 0020 04D0     		beq	.L172
 2819              		.loc 19 41 0
 2820 0022 019B     		ldr	r3, [sp, #4]
 2821 0024 0433     		adds	r3, r3, #4
 2822 0026 1846     		mov	r0, r3
 2823 0028 FFF7FEFF 		bl	_ZN3r2p5Mutex14acquire_unsafeEv
 2824              	.L172:
 2825              		.loc 19 43 0
 2826 002c 03B0     		add	sp, sp, #12
 2827              		.cfi_def_cfa_offset 4
 2828              		@ sp needed
 2829 002e 5DF804FB 		ldr	pc, [sp], #4
 2830              		.cfi_endproc
 2831              	.LFE435:
 2832              		.size	_ZN3r2p7ReMutex14acquire_unsafeEv, .-_ZN3r2p7ReMutex14acquire_unsafeEv
 2833 0032 00BF     		.section	.text._ZN3r2p7ReMutex14release_unsafeEv,"axG",%progbits,_ZN3r2p7ReMutex14release_unsafeEv
 2834              		.align	2
 2835              		.weak	_ZN3r2p7ReMutex14release_unsafeEv
 2836              		.thumb
 2837              		.thumb_func
 2838              		.type	_ZN3r2p7ReMutex14release_unsafeEv, %function
 2839              	_ZN3r2p7ReMutex14release_unsafeEv:
 2840              	.LFB436:
 2841              		.loc 19 47 0
 2842              		.cfi_startproc
 2843              		@ args = 0, pretend = 0, frame = 8
 2844              		@ frame_needed = 0, uses_anonymous_args = 0
 2845 0000 00B5     		push	{lr}
 2846              		.cfi_def_cfa_offset 4
 2847              		.cfi_offset 14, -4
ARM GAS  /tmp/ccIvsbEf.s 			page 51


 2848 0002 83B0     		sub	sp, sp, #12
 2849              		.cfi_def_cfa_offset 16
 2850 0004 0190     		str	r0, [sp, #4]
 2851              		.loc 19 49 0
 2852 0006 019B     		ldr	r3, [sp, #4]
 2853 0008 1B68     		ldr	r3, [r3]
 2854 000a 002B     		cmp	r3, #0
 2855 000c 02D1     		bne	.L175
 2856              		.loc 19 49 0 is_stmt 0 discriminator 1
 2857 000e 0C48     		ldr	r0, .L177
 2858 0010 FFF7FEFF 		bl	chDbgPanic
 2859              	.L175:
 2860              		.loc 19 51 0 is_stmt 1
 2861 0014 019B     		ldr	r3, [sp, #4]
 2862 0016 1B68     		ldr	r3, [r3]
 2863 0018 5A1E     		subs	r2, r3, #1
 2864 001a 019B     		ldr	r3, [sp, #4]
 2865 001c 1A60     		str	r2, [r3]
 2866 001e 019B     		ldr	r3, [sp, #4]
 2867 0020 1B68     		ldr	r3, [r3]
 2868 0022 002B     		cmp	r3, #0
 2869 0024 0CBF     		ite	eq
 2870 0026 0123     		moveq	r3, #1
 2871 0028 0023     		movne	r3, #0
 2872 002a DBB2     		uxtb	r3, r3
 2873 002c 002B     		cmp	r3, #0
 2874 002e 04D0     		beq	.L174
 2875              		.loc 19 52 0
 2876 0030 019B     		ldr	r3, [sp, #4]
 2877 0032 0433     		adds	r3, r3, #4
 2878 0034 1846     		mov	r0, r3
 2879 0036 FFF7FEFF 		bl	_ZN3r2p5Mutex14release_unsafeEv
 2880              	.L174:
 2881              		.loc 19 54 0
 2882 003a 03B0     		add	sp, sp, #12
 2883              		.cfi_def_cfa_offset 4
 2884              		@ sp needed
 2885 003c 5DF804FB 		ldr	pc, [sp], #4
 2886              	.L178:
 2887              		.align	2
 2888              	.L177:
 2889 0040 00000000 		.word	.LC0
 2890              		.cfi_endproc
 2891              	.LFE436:
 2892              		.size	_ZN3r2p7ReMutex14release_unsafeEv, .-_ZN3r2p7ReMutex14release_unsafeEv
 2893              		.section	.text._ZN3r2p7ReMutex7acquireEv,"axG",%progbits,_ZN3r2p7ReMutex7acquireEv,comdat
 2894              		.align	2
 2895              		.weak	_ZN3r2p7ReMutex7acquireEv
 2896              		.thumb
 2897              		.thumb_func
 2898              		.type	_ZN3r2p7ReMutex7acquireEv, %function
 2899              	_ZN3r2p7ReMutex7acquireEv:
 2900              	.LFB437:
 2901              		.loc 19 58 0
 2902              		.cfi_startproc
 2903              		@ args = 0, pretend = 0, frame = 8
 2904              		@ frame_needed = 0, uses_anonymous_args = 0
ARM GAS  /tmp/ccIvsbEf.s 			page 52


 2905 0000 00B5     		push	{lr}
 2906              		.cfi_def_cfa_offset 4
 2907              		.cfi_offset 14, -4
 2908 0002 83B0     		sub	sp, sp, #12
 2909              		.cfi_def_cfa_offset 16
 2910 0004 0190     		str	r0, [sp, #4]
 2911              		.loc 19 60 0
 2912 0006 FFF7FEFF 		bl	_ZN3r2p7SysLock7acquireEv
 2913              		.loc 19 61 0
 2914 000a 0198     		ldr	r0, [sp, #4]
 2915 000c FFF7FEFF 		bl	_ZN3r2p7ReMutex14acquire_unsafeEv
 2916              		.loc 19 62 0
 2917 0010 FFF7FEFF 		bl	_ZN3r2p7SysLock7releaseEv
 2918              		.loc 19 63 0
 2919 0014 03B0     		add	sp, sp, #12
 2920              		.cfi_def_cfa_offset 4
 2921              		@ sp needed
 2922 0016 5DF804FB 		ldr	pc, [sp], #4
 2923              		.cfi_endproc
 2924              	.LFE437:
 2925              		.size	_ZN3r2p7ReMutex7acquireEv, .-_ZN3r2p7ReMutex7acquireEv
 2926 001a 00BF     		.section	.text._ZN3r2p7ReMutex7releaseEv,"axG",%progbits,_ZN3r2p7ReMutex7releaseEv,comdat
 2927              		.align	2
 2928              		.weak	_ZN3r2p7ReMutex7releaseEv
 2929              		.thumb
 2930              		.thumb_func
 2931              		.type	_ZN3r2p7ReMutex7releaseEv, %function
 2932              	_ZN3r2p7ReMutex7releaseEv:
 2933              	.LFB438:
 2934              		.loc 19 67 0
 2935              		.cfi_startproc
 2936              		@ args = 0, pretend = 0, frame = 8
 2937              		@ frame_needed = 0, uses_anonymous_args = 0
 2938 0000 00B5     		push	{lr}
 2939              		.cfi_def_cfa_offset 4
 2940              		.cfi_offset 14, -4
 2941 0002 83B0     		sub	sp, sp, #12
 2942              		.cfi_def_cfa_offset 16
 2943 0004 0190     		str	r0, [sp, #4]
 2944              		.loc 19 69 0
 2945 0006 FFF7FEFF 		bl	_ZN3r2p7SysLock7acquireEv
 2946              		.loc 19 70 0
 2947 000a 0198     		ldr	r0, [sp, #4]
 2948 000c FFF7FEFF 		bl	_ZN3r2p7ReMutex14release_unsafeEv
 2949              		.loc 19 71 0
 2950 0010 FFF7FEFF 		bl	_ZN3r2p7SysLock7releaseEv
 2951              		.loc 19 72 0
 2952 0014 03B0     		add	sp, sp, #12
 2953              		.cfi_def_cfa_offset 4
 2954              		@ sp needed
 2955 0016 5DF804FB 		ldr	pc, [sp], #4
 2956              		.cfi_endproc
 2957              	.LFE438:
 2958              		.size	_ZN3r2p7ReMutex7releaseEv, .-_ZN3r2p7ReMutex7releaseEv
 2959 001a 00BF     		.section	.text._ZN3r2p7ReMutexC2Eb,"axG",%progbits,_ZN3r2p7ReMutexC5Eb,comdat
 2960              		.align	2
 2961              		.weak	_ZN3r2p7ReMutexC2Eb
ARM GAS  /tmp/ccIvsbEf.s 			page 53


 2962              		.thumb
 2963              		.thumb_func
 2964              		.type	_ZN3r2p7ReMutexC2Eb, %function
 2965              	_ZN3r2p7ReMutexC2Eb:
 2966              	.LFB446:
 2967              		.loc 19 84 0
 2968              		.cfi_startproc
 2969              		@ args = 0, pretend = 0, frame = 8
 2970              		@ frame_needed = 0, uses_anonymous_args = 0
 2971 0000 00B5     		push	{lr}
 2972              		.cfi_def_cfa_offset 4
 2973              		.cfi_offset 14, -4
 2974 0002 83B0     		sub	sp, sp, #12
 2975              		.cfi_def_cfa_offset 16
 2976 0004 0190     		str	r0, [sp, #4]
 2977 0006 0B46     		mov	r3, r1
 2978 0008 8DF80330 		strb	r3, [sp, #3]
 2979              	.LBB72:
 2980              		.loc 19 87 0
 2981 000c 0198     		ldr	r0, [sp, #4]
 2982 000e FFF7FEFF 		bl	_ZN3r2p10UncopyableC2Ev
 2983 0012 019B     		ldr	r3, [sp, #4]
 2984 0014 0022     		movs	r2, #0
 2985 0016 1A60     		str	r2, [r3]
 2986 0018 019B     		ldr	r3, [sp, #4]
 2987 001a 1A1D     		adds	r2, r3, #4
 2988 001c 9DF80330 		ldrb	r3, [sp, #3]	@ zero_extendqisi2
 2989 0020 1046     		mov	r0, r2
 2990 0022 1946     		mov	r1, r3
 2991 0024 FFF7FEFF 		bl	_ZN3r2p5MutexC1Eb
 2992              	.LBE72:
 2993              		.loc 19 88 0
 2994 0028 019B     		ldr	r3, [sp, #4]
 2995 002a 1846     		mov	r0, r3
 2996 002c 03B0     		add	sp, sp, #12
 2997              		.cfi_def_cfa_offset 4
 2998              		@ sp needed
 2999 002e 5DF804FB 		ldr	pc, [sp], #4
 3000              		.cfi_endproc
 3001              	.LFE446:
 3002              		.size	_ZN3r2p7ReMutexC2Eb, .-_ZN3r2p7ReMutexC2Eb
 3003              		.weak	_ZN3r2p7ReMutexC1Eb
 3004              		.thumb_set _ZN3r2p7ReMutexC1Eb,_ZN3r2p7ReMutexC2Eb
 3005 0032 00BF     		.section	.text._ZNK3r2p10Middleware10is_stoppedEv,"axG",%progbits,_ZNK3r2p10Middleware10is_stopped
 3006              		.align	2
 3007              		.weak	_ZNK3r2p10Middleware10is_stoppedEv
 3008              		.thumb
 3009              		.thumb_func
 3010              		.type	_ZNK3r2p10Middleware10is_stoppedEv, %function
 3011              	_ZNK3r2p10Middleware10is_stoppedEv:
 3012              	.LFB673:
 3013              		.file 20 "/opt/R2P/core/Middleware/include/r2p/Middleware.hpp"
 3014              		.loc 20 205 0
 3015              		.cfi_startproc
 3016              		@ args = 0, pretend = 0, frame = 8
 3017              		@ frame_needed = 0, uses_anonymous_args = 0
 3018              		@ link register save eliminated.
ARM GAS  /tmp/ccIvsbEf.s 			page 54


 3019 0000 82B0     		sub	sp, sp, #8
 3020              		.cfi_def_cfa_offset 8
 3021 0002 0190     		str	r0, [sp, #4]
 3022              		.loc 20 207 0
 3023 0004 019B     		ldr	r3, [sp, #4]
 3024 0006 93F89832 		ldrb	r3, [r3, #664]	@ zero_extendqisi2
 3025              		.loc 20 208 0
 3026 000a 1846     		mov	r0, r3
 3027 000c 02B0     		add	sp, sp, #8
 3028              		.cfi_def_cfa_offset 0
 3029              		@ sp needed
 3030 000e 7047     		bx	lr
 3031              		.cfi_endproc
 3032              	.LFE673:
 3033              		.size	_ZNK3r2p10Middleware10is_stoppedEv, .-_ZNK3r2p10Middleware10is_stoppedEv
 3034              		.section	.text._ZN3r2p10Middleware23preload_bootloader_modeEb,"axG",%progbits,_ZN3r2p10Middleware2
 3035              		.align	2
 3036              		.weak	_ZN3r2p10Middleware23preload_bootloader_modeEb
 3037              		.thumb
 3038              		.thumb_func
 3039              		.type	_ZN3r2p10Middleware23preload_bootloader_modeEb, %function
 3040              	_ZN3r2p10Middleware23preload_bootloader_modeEb:
 3041              	.LFB675:
 3042              		.loc 20 220 0
 3043              		.cfi_startproc
 3044              		@ args = 0, pretend = 0, frame = 8
 3045              		@ frame_needed = 0, uses_anonymous_args = 0
 3046              		@ link register save eliminated.
 3047 0000 82B0     		sub	sp, sp, #8
 3048              		.cfi_def_cfa_offset 8
 3049 0002 0190     		str	r0, [sp, #4]
 3050 0004 0B46     		mov	r3, r1
 3051 0006 8DF80330 		strb	r3, [sp, #3]
 3052              		.loc 20 222 0
 3053 000a 9DF80330 		ldrb	r3, [sp, #3]	@ zero_extendqisi2
 3054 000e 002B     		cmp	r3, #0
 3055 0010 01D0     		beq	.L187
 3056              		.loc 20 222 0 is_stmt 0 discriminator 1
 3057 0012 034B     		ldr	r3, .L189
 3058 0014 00E0     		b	.L188
 3059              	.L187:
 3060              		.loc 20 222 0 discriminator 2
 3061 0016 034B     		ldr	r3, .L189+4
 3062              	.L188:
 3063              		.loc 20 222 0 discriminator 4
 3064 0018 034A     		ldr	r2, .L189+8
 3065 001a 1360     		str	r3, [r2]
 3066              		.loc 20 223 0 is_stmt 1 discriminator 4
 3067 001c 02B0     		add	sp, sp, #8
 3068              		.cfi_def_cfa_offset 0
 3069              		@ sp needed
 3070 001e 7047     		bx	lr
 3071              	.L190:
 3072              		.align	2
 3073              	.L189:
 3074 0020 7A07B051 		.word	1370490746
 3075 0024 85F84FAE 		.word	-1370490747
ARM GAS  /tmp/ccIvsbEf.s 			page 55


 3076 0028 00000000 		.word	_ZN3r2p10Middleware15boot_mode_magicE
 3077              		.cfi_endproc
 3078              	.LFE675:
 3079              		.size	_ZN3r2p10Middleware23preload_bootloader_modeEb, .-_ZN3r2p10Middleware23preload_bootloader_mo
 3080              		.section	.text._ZN3r2p10Middleware11is_rebootedEv,"axG",%progbits,_ZN3r2p10Middleware11is_rebooted
 3081              		.align	2
 3082              		.weak	_ZN3r2p10Middleware11is_rebootedEv
 3083              		.thumb
 3084              		.thumb_func
 3085              		.type	_ZN3r2p10Middleware11is_rebootedEv, %function
 3086              	_ZN3r2p10Middleware11is_rebootedEv:
 3087              	.LFB676:
 3088              		.loc 20 227 0
 3089              		.cfi_startproc
 3090              		@ args = 0, pretend = 0, frame = 0
 3091              		@ frame_needed = 0, uses_anonymous_args = 0
 3092              		@ link register save eliminated.
 3093              		.loc 20 229 0
 3094 0000 044B     		ldr	r3, .L193
 3095 0002 1B68     		ldr	r3, [r3]
 3096 0004 044A     		ldr	r2, .L193+4
 3097 0006 9342     		cmp	r3, r2
 3098 0008 0CBF     		ite	eq
 3099 000a 0123     		moveq	r3, #1
 3100 000c 0023     		movne	r3, #0
 3101 000e DBB2     		uxtb	r3, r3
 3102              		.loc 20 230 0
 3103 0010 1846     		mov	r0, r3
 3104 0012 7047     		bx	lr
 3105              	.L194:
 3106              		.align	2
 3107              	.L193:
 3108 0014 00000000 		.word	_ZN3r2p10Middleware14rebooted_magicE
 3109 0018 ED07B0FE 		.word	-22018067
 3110              		.cfi_endproc
 3111              	.LFE676:
 3112              		.size	_ZN3r2p10Middleware11is_rebootedEv, .-_ZN3r2p10Middleware11is_rebootedEv
 3113              		.section	.text._ZN3r2p10Middleware18is_bootloader_modeEv,"axG",%progbits,_ZN3r2p10Middleware18is_b
 3114              		.align	2
 3115              		.weak	_ZN3r2p10Middleware18is_bootloader_modeEv
 3116              		.thumb
 3117              		.thumb_func
 3118              		.type	_ZN3r2p10Middleware18is_bootloader_modeEv, %function
 3119              	_ZN3r2p10Middleware18is_bootloader_modeEv:
 3120              	.LFB677:
 3121              		.loc 20 234 0
 3122              		.cfi_startproc
 3123              		@ args = 0, pretend = 0, frame = 0
 3124              		@ frame_needed = 0, uses_anonymous_args = 0
 3125              		@ link register save eliminated.
 3126              		.loc 20 236 0
 3127 0000 044B     		ldr	r3, .L197
 3128 0002 1B68     		ldr	r3, [r3]
 3129 0004 044A     		ldr	r2, .L197+4
 3130 0006 9342     		cmp	r3, r2
 3131 0008 0CBF     		ite	eq
 3132 000a 0123     		moveq	r3, #1
ARM GAS  /tmp/ccIvsbEf.s 			page 56


 3133 000c 0023     		movne	r3, #0
 3134 000e DBB2     		uxtb	r3, r3
 3135              		.loc 20 237 0
 3136 0010 1846     		mov	r0, r3
 3137 0012 7047     		bx	lr
 3138              	.L198:
 3139              		.align	2
 3140              	.L197:
 3141 0014 00000000 		.word	_ZN3r2p10Middleware15boot_mode_magicE
 3142 0018 7A07B051 		.word	1370490746
 3143              		.cfi_endproc
 3144              	.LFE677:
 3145              		.size	_ZN3r2p10Middleware18is_bootloader_modeEv, .-_ZN3r2p10Middleware18is_bootloader_modeEv
 3146              		.global	_ZN3r2p10Middleware14rebooted_magicE
 3147              		.section	.noreset,"aw",%progbits
 3148              		.align	2
 3149              		.type	_ZN3r2p10Middleware14rebooted_magicE, %object
 3150              		.size	_ZN3r2p10Middleware14rebooted_magicE, 4
 3151              	_ZN3r2p10Middleware14rebooted_magicE:
 3152 0000 00000000 		.space	4
 3153              		.global	_ZN3r2p10Middleware15boot_mode_magicE
 3154              		.align	2
 3155              		.type	_ZN3r2p10Middleware15boot_mode_magicE, %object
 3156              		.size	_ZN3r2p10Middleware15boot_mode_magicE, 4
 3157              	_ZN3r2p10Middleware15boot_mode_magicE:
 3158 0004 00000000 		.space	4
 3159              		.text
 3160              		.align	2
 3161              		.global	_ZN3r2p10Middleware10initializeEPvjmS1_jm
 3162              		.thumb
 3163              		.thumb_func
 3164              		.type	_ZN3r2p10Middleware10initializeEPvjmS1_jm, %function
 3165              	_ZN3r2p10Middleware10initializeEPvjmS1_jm:
 3166              	.LFB681:
 3167              		.file 21 "/opt/R2P/core/Middleware/src/Middleware.cpp"
 3168              		.loc 21 25 0
 3169              		.cfi_startproc
 3170              		@ args = 12, pretend = 0, frame = 16
 3171              		@ frame_needed = 0, uses_anonymous_args = 0
 3172 0000 00B5     		push	{lr}
 3173              		.cfi_def_cfa_offset 4
 3174              		.cfi_offset 14, -4
 3175 0002 85B0     		sub	sp, sp, #20
 3176              		.cfi_def_cfa_offset 24
 3177 0004 0390     		str	r0, [sp, #12]
 3178 0006 0291     		str	r1, [sp, #8]
 3179 0008 0192     		str	r2, [sp, #4]
 3180 000a 0093     		str	r3, [sp]
 3181              		.loc 21 27 0
 3182 000c 029B     		ldr	r3, [sp, #8]
 3183 000e 002B     		cmp	r3, #0
 3184 0010 02D1     		bne	.L200
 3185              		.loc 21 27 0 is_stmt 0 discriminator 1
 3186 0012 2548     		ldr	r0, .L205
 3187 0014 FFF7FEFF 		bl	chDbgPanic
 3188              	.L200:
 3189              		.loc 21 28 0 is_stmt 1
ARM GAS  /tmp/ccIvsbEf.s 			page 57


 3190 0018 019B     		ldr	r3, [sp, #4]
 3191 001a 002B     		cmp	r3, #0
 3192 001c 02D1     		bne	.L201
 3193              		.loc 21 28 0 is_stmt 0 discriminator 1
 3194 001e 2248     		ldr	r0, .L205
 3195 0020 FFF7FEFF 		bl	chDbgPanic
 3196              	.L201:
 3197              		.loc 21 30 0 is_stmt 1
 3198 0024 039B     		ldr	r3, [sp, #12]
 3199 0026 1033     		adds	r3, r3, #16
 3200 0028 1846     		mov	r0, r3
 3201 002a FFF7FEFF 		bl	_ZN3r2p7ReMutex10initializeEv
 3202              		.loc 21 32 0
 3203 002e 039B     		ldr	r3, [sp, #12]
 3204 0030 029A     		ldr	r2, [sp, #8]
 3205 0032 9A65     		str	r2, [r3, #88]
 3206              		.loc 21 33 0
 3207 0034 039B     		ldr	r3, [sp, #12]
 3208 0036 019A     		ldr	r2, [sp, #4]
 3209 0038 DA65     		str	r2, [r3, #92]
 3210              		.loc 21 34 0
 3211 003a 039B     		ldr	r3, [sp, #12]
 3212 003c 009A     		ldr	r2, [sp]
 3213 003e 5A66     		str	r2, [r3, #100]
 3214              		.loc 21 36 0
 3215 0040 039B     		ldr	r3, [sp, #12]
 3216 0042 069A     		ldr	r2, [sp, #24]
 3217 0044 C3F87822 		str	r2, [r3, #632]
 3218              		.loc 21 37 0
 3219 0048 039B     		ldr	r3, [sp, #12]
 3220 004a 079A     		ldr	r2, [sp, #28]
 3221 004c C3F87C22 		str	r2, [r3, #636]
 3222              		.loc 21 38 0
 3223 0050 039B     		ldr	r3, [sp, #12]
 3224 0052 089A     		ldr	r2, [sp, #32]
 3225 0054 C3F88422 		str	r2, [r3, #644]
 3226              		.loc 21 42 0
 3227 0058 FFF7FEFF 		bl	_ZN3r2p10Middleware18is_bootloader_modeEv
 3228 005c 0346     		mov	r3, r0
 3229 005e 002B     		cmp	r3, #0
 3230 0060 15D0     		beq	.L202
 3231              		.loc 21 43 0
 3232 0062 069B     		ldr	r3, [sp, #24]
 3233 0064 002B     		cmp	r3, #0
 3234 0066 02D1     		bne	.L203
 3235              		.loc 21 43 0 is_stmt 0 discriminator 1
 3236 0068 0F48     		ldr	r0, .L205
 3237 006a FFF7FEFF 		bl	chDbgPanic
 3238              	.L203:
 3239              		.loc 21 44 0 is_stmt 1
 3240 006e 079B     		ldr	r3, [sp, #28]
 3241 0070 002B     		cmp	r3, #0
 3242 0072 02D1     		bne	.L204
 3243              		.loc 21 44 0 is_stmt 0 discriminator 1
 3244 0074 0C48     		ldr	r0, .L205
 3245 0076 FFF7FEFF 		bl	chDbgPanic
 3246              	.L204:
ARM GAS  /tmp/ccIvsbEf.s 			page 58


 3247              		.loc 21 46 0 is_stmt 1
 3248 007a 039B     		ldr	r3, [sp, #12]
 3249 007c 03F10802 		add	r2, r3, #8
 3250 0080 039B     		ldr	r3, [sp, #12]
 3251 0082 03F51C73 		add	r3, r3, #624
 3252 0086 1046     		mov	r0, r2
 3253 0088 1946     		mov	r1, r3
 3254 008a FFF7FEFF 		bl	_ZN3r2p10StaticListINS_5TopicEE4linkERNS2_4LinkE
 3255              	.L202:
 3256              		.loc 21 49 0
 3257 008e 039B     		ldr	r3, [sp, #12]
 3258 0090 03F10802 		add	r2, r3, #8
 3259 0094 039B     		ldr	r3, [sp, #12]
 3260 0096 5033     		adds	r3, r3, #80
 3261 0098 1046     		mov	r0, r2
 3262 009a 1946     		mov	r1, r3
 3263 009c FFF7FEFF 		bl	_ZN3r2p10StaticListINS_5TopicEE4linkERNS2_4LinkE
 3264              		.loc 21 50 0
 3265 00a0 05B0     		add	sp, sp, #20
 3266              		.cfi_def_cfa_offset 4
 3267              		@ sp needed
 3268 00a2 5DF804FB 		ldr	pc, [sp], #4
 3269              	.L206:
 3270 00a6 00BF     		.align	2
 3271              	.L205:
 3272 00a8 00000000 		.word	.LC0
 3273              		.cfi_endproc
 3274              	.LFE681:
 3275              		.size	_ZN3r2p10Middleware10initializeEPvjmS1_jm, .-_ZN3r2p10Middleware10initializeEPvjmS1_jm
 3276              		.section	.rodata
 3277 000d 000000   		.align	2
 3278              	.LC1:
 3279 0010 5232505F 		.ascii	"R2P_BOOT\000"
 3279      424F4F54 
 3279      00
 3280 0019 000000   		.align	2
 3281              	.LC2:
 3282 001c 5232505F 		.ascii	"R2P_MGMT\000"
 3282      4D474D54 
 3282      00
 3283              		.text
 3284              		.align	2
 3285              		.global	_ZN3r2p10Middleware5startEv
 3286              		.thumb
 3287              		.thumb_func
 3288              		.type	_ZN3r2p10Middleware5startEv, %function
 3289              	_ZN3r2p10Middleware5startEv:
 3290              	.LFB682:
 3291              		.loc 21 53 0
 3292              		.cfi_startproc
 3293              		@ args = 0, pretend = 0, frame = 16
 3294              		@ frame_needed = 0, uses_anonymous_args = 0
 3295 00ac 00B5     		push	{lr}
 3296              		.cfi_def_cfa_offset 4
 3297              		.cfi_offset 14, -4
 3298 00ae 87B0     		sub	sp, sp, #28
 3299              		.cfi_def_cfa_offset 32
ARM GAS  /tmp/ccIvsbEf.s 			page 59


 3300 00b0 0390     		str	r0, [sp, #12]
 3301              	.LBB73:
 3302              		.loc 21 56 0
 3303 00b2 FFF7FEFF 		bl	_ZN3r2p10Middleware18is_bootloader_modeEv
 3304 00b6 0346     		mov	r3, r0
 3305 00b8 002B     		cmp	r3, #0
 3306 00ba 23D0     		beq	.L208
 3307              		.loc 21 57 0
 3308 00bc 039B     		ldr	r3, [sp, #12]
 3309 00be D3F87832 		ldr	r3, [r3, #632]
 3310 00c2 002B     		cmp	r3, #0
 3311 00c4 02D1     		bne	.L209
 3312              		.loc 21 57 0 is_stmt 0 discriminator 1
 3313 00c6 3F48     		ldr	r0, .L218
 3314 00c8 FFF7FEFF 		bl	chDbgPanic
 3315              	.L209:
 3316              		.loc 21 62 0 is_stmt 1
 3317 00cc 039B     		ldr	r3, [sp, #12]
 3318 00ce D3F87802 		ldr	r0, [r3, #632]
 3319 00d2 039B     		ldr	r3, [sp, #12]
 3320 00d4 D3F87C12 		ldr	r1, [r3, #636]
 3321 00d8 039B     		ldr	r3, [sp, #12]
 3322 00da D3F88422 		ldr	r2, [r3, #644]
 3323 00de 0023     		movs	r3, #0
 3324 00e0 0093     		str	r3, [sp]
 3325 00e2 394B     		ldr	r3, .L218+4
 3326 00e4 0193     		str	r3, [sp, #4]
 3327 00e6 394B     		ldr	r3, .L218+8
 3328 00e8 FFF7FEFF 		bl	_ZN3r2p6Thread13create_staticEPvjmPFlS1_ES1_PKc
 3329 00ec 0246     		mov	r2, r0
 3330 00ee 039B     		ldr	r3, [sp, #12]
 3331 00f0 C3F88022 		str	r2, [r3, #640]
 3332              		.loc 21 63 0
 3333 00f4 039B     		ldr	r3, [sp, #12]
 3334 00f6 D3F88032 		ldr	r3, [r3, #640]
 3335 00fa 002B     		cmp	r3, #0
 3336 00fc 02D1     		bne	.L208
 3337              		.loc 21 63 0 is_stmt 0 discriminator 1
 3338 00fe 3148     		ldr	r0, .L218
 3339 0100 FFF7FEFF 		bl	chDbgPanic
 3340              	.L208:
 3341              		.loc 21 70 0 is_stmt 1
 3342 0104 039B     		ldr	r3, [sp, #12]
 3343 0106 986D     		ldr	r0, [r3, #88]
 3344 0108 039B     		ldr	r3, [sp, #12]
 3345 010a D96D     		ldr	r1, [r3, #92]
 3346 010c 039B     		ldr	r3, [sp, #12]
 3347 010e 5A6E     		ldr	r2, [r3, #100]
 3348 0110 0023     		movs	r3, #0
 3349 0112 0093     		str	r3, [sp]
 3350 0114 2E4B     		ldr	r3, .L218+12
 3351 0116 0193     		str	r3, [sp, #4]
 3352 0118 2E4B     		ldr	r3, .L218+16
 3353 011a FFF7FEFF 		bl	_ZN3r2p6Thread13create_staticEPvjmPFlS1_ES1_PKc
 3354 011e 0246     		mov	r2, r0
 3355 0120 039B     		ldr	r3, [sp, #12]
 3356 0122 1A66     		str	r2, [r3, #96]
ARM GAS  /tmp/ccIvsbEf.s 			page 60


 3357              		.loc 21 71 0
 3358 0124 039B     		ldr	r3, [sp, #12]
 3359 0126 1B6E     		ldr	r3, [r3, #96]
 3360 0128 002B     		cmp	r3, #0
 3361 012a 02D1     		bne	.L210
 3362              		.loc 21 71 0 is_stmt 0 discriminator 1
 3363 012c 2548     		ldr	r0, .L218
 3364 012e FFF7FEFF 		bl	chDbgPanic
 3365              	.L210:
 3366              		.loc 21 74 0 is_stmt 1
 3367 0132 FFF7FEFF 		bl	_ZN3r2p7SysLock7acquireEv
 3368              		.loc 21 75 0
 3369 0136 0DE0     		b	.L211
 3370              	.L215:
 3371              		.loc 21 76 0
 3372 0138 FFF7FEFF 		bl	_ZN3r2p7SysLock7releaseEv
 3373              		.loc 21 77 0
 3374 013c 04AB     		add	r3, sp, #16
 3375 013e 1846     		mov	r0, r3
 3376 0140 4FF4FA71 		mov	r1, #500
 3377 0144 FFF7FEFF 		bl	_ZN3r2p4Time2msEl
 3378 0148 04AB     		add	r3, sp, #16
 3379 014a 1846     		mov	r0, r3
 3380 014c FFF7FEFF 		bl	_ZN3r2p6Thread5sleepERKNS_4TimeE
 3381              		.loc 21 78 0
 3382 0150 FFF7FEFF 		bl	_ZN3r2p7SysLock7acquireEv
 3383              	.L211:
 3384              		.loc 21 75 0
 3385 0154 039B     		ldr	r3, [sp, #12]
 3386 0156 2833     		adds	r3, r3, #40
 3387 0158 1846     		mov	r0, r3
 3388 015a FFF7FEFF 		bl	_ZNK3r2p5Topic20has_local_publishersEv
 3389 015e 0346     		mov	r3, r0
 3390 0160 83F00103 		eor	r3, r3, #1
 3391 0164 DBB2     		uxtb	r3, r3
 3392 0166 002B     		cmp	r3, #0
 3393 0168 0AD1     		bne	.L212
 3394              		.loc 21 75 0 is_stmt 0 discriminator 2
 3395 016a 039B     		ldr	r3, [sp, #12]
 3396 016c 2833     		adds	r3, r3, #40
 3397 016e 1846     		mov	r0, r3
 3398 0170 FFF7FEFF 		bl	_ZNK3r2p5Topic21has_local_subscribersEv
 3399 0174 0346     		mov	r3, r0
 3400 0176 83F00103 		eor	r3, r3, #1
 3401 017a DBB2     		uxtb	r3, r3
 3402 017c 002B     		cmp	r3, #0
 3403 017e 01D0     		beq	.L213
 3404              	.L212:
 3405              		.loc 21 75 0 discriminator 3
 3406 0180 0123     		movs	r3, #1
 3407 0182 00E0     		b	.L214
 3408              	.L213:
 3409              		.loc 21 75 0 discriminator 4
 3410 0184 0023     		movs	r3, #0
 3411              	.L214:
 3412              		.loc 21 75 0 discriminator 6
 3413 0186 002B     		cmp	r3, #0
ARM GAS  /tmp/ccIvsbEf.s 			page 61


 3414 0188 D6D1     		bne	.L215
 3415              		.loc 21 80 0 is_stmt 1
 3416 018a FFF7FEFF 		bl	_ZN3r2p7SysLock7releaseEv
 3417              	.LBB74:
 3418              		.loc 21 83 0
 3419 018e FFF7FEFF 		bl	_ZN3r2p10Middleware18is_bootloader_modeEv
 3420 0192 0346     		mov	r3, r0
 3421 0194 83F00103 		eor	r3, r3, #1
 3422 0198 DBB2     		uxtb	r3, r3
 3423 019a 002B     		cmp	r3, #0
 3424 019c 0ED0     		beq	.L207
 3425              	.LBB75:
 3426              		.loc 21 86 0
 3427 019e FFF7FEFF 		bl	_ZN3r2p10Bootloader10launch_allEv
 3428 01a2 0346     		mov	r3, r0
 3429 01a4 8DF81730 		strb	r3, [sp, #23]
 3430              		.loc 21 87 0
 3431 01a8 9DF81730 		ldrb	r3, [sp, #23]
 3432 01ac 83F00103 		eor	r3, r3, #1
 3433 01b0 DBB2     		uxtb	r3, r3
 3434 01b2 002B     		cmp	r3, #0
 3435 01b4 02D0     		beq	.L217
 3436              		.loc 21 87 0 is_stmt 0 discriminator 1
 3437 01b6 0348     		ldr	r0, .L218
 3438 01b8 FFF7FEFF 		bl	chDbgPanic
 3439              	.L217:
 3440              	.L207:
 3441              	.LBE75:
 3442              	.LBE74:
 3443              	.LBE73:
 3444              		.loc 21 90 0 is_stmt 1
 3445 01bc 07B0     		add	sp, sp, #28
 3446              		.cfi_def_cfa_offset 4
 3447              		@ sp needed
 3448 01be 5DF804FB 		ldr	pc, [sp], #4
 3449              	.L219:
 3450 01c2 00BF     		.align	2
 3451              	.L218:
 3452 01c4 00000000 		.word	.LC0
 3453 01c8 10000000 		.word	.LC1
 3454 01cc 00000000 		.word	_ZN3r2p10Middleware12boot_threadfEPv
 3455 01d0 1C000000 		.word	.LC2
 3456 01d4 00000000 		.word	_ZN3r2p10Middleware12mgmt_threadfEPv
 3457              		.cfi_endproc
 3458              	.LFE682:
 3459              		.size	_ZN3r2p10Middleware5startEv, .-_ZN3r2p10Middleware5startEv
 3460              		.align	2
 3461              		.global	_ZN3r2p10Middleware4stopEv
 3462              		.thumb
 3463              		.thumb_func
 3464              		.type	_ZN3r2p10Middleware4stopEv, %function
 3465              	_ZN3r2p10Middleware4stopEv:
 3466              	.LFB683:
 3467              		.loc 21 93 0
 3468              		.cfi_startproc
 3469              		@ args = 0, pretend = 0, frame = 32
 3470              		@ frame_needed = 0, uses_anonymous_args = 0
ARM GAS  /tmp/ccIvsbEf.s 			page 62


 3471 01d8 10B5     		push	{r4, lr}
 3472              		.cfi_def_cfa_offset 8
 3473              		.cfi_offset 4, -8
 3474              		.cfi_offset 14, -4
 3475 01da 88B0     		sub	sp, sp, #32
 3476              		.cfi_def_cfa_offset 40
 3477 01dc 0190     		str	r0, [sp, #4]
 3478              	.LBB76:
 3479              	.LBB77:
 3480              		.loc 21 95 0
 3481 01de 05AB     		add	r3, sp, #20
 3482 01e0 1846     		mov	r0, r3
 3483 01e2 FFF7FEFF 		bl	_ZN3r2p7SysLock5ScopeC1Ev
 3484              		.loc 21 96 0
 3485 01e6 019B     		ldr	r3, [sp, #4]
 3486 01e8 93F89832 		ldrb	r3, [r3, #664]	@ zero_extendqisi2
 3487 01ec 83F00103 		eor	r3, r3, #1
 3488 01f0 DBB2     		uxtb	r3, r3
 3489 01f2 002B     		cmp	r3, #0
 3490 01f4 05D0     		beq	.L221
 3491              		.loc 21 96 0 is_stmt 0 discriminator 1
 3492 01f6 019B     		ldr	r3, [sp, #4]
 3493 01f8 0122     		movs	r2, #1
 3494 01fa 83F89822 		strb	r2, [r3, #664]
 3495 01fe 0124     		movs	r4, #1
 3496 0200 01E0     		b	.L223
 3497              	.L221:
 3498 0202 0024     		movs	r4, #0
 3499              		.loc 21 97 0 is_stmt 1
 3500 0204 00BF     		nop
 3501              	.L223:
 3502 0206 05AB     		add	r3, sp, #20
 3503 0208 1846     		mov	r0, r3
 3504 020a FFF7FEFF 		bl	_ZN3r2p7SysLock5ScopeD1Ev
 3505 020e 012C     		cmp	r4, #1
 3506 0210 42D1     		bne	.L220
 3507 0212 00BF     		nop
 3508              	.L226:
 3509              	.LBE77:
 3510              	.LBB78:
 3511              	.LBB79:
 3512              	.LBB80:
 3513              		.loc 21 101 0
 3514 0214 019B     		ldr	r3, [sp, #4]
 3515 0216 0433     		adds	r3, r3, #4
 3516 0218 04AA     		add	r2, sp, #16
 3517 021a 1046     		mov	r0, r2
 3518 021c 1946     		mov	r1, r3
 3519 021e FFF7FEFF 		bl	_ZN3r2p10StaticListINS_4NodeEE5beginEv
 3520 0222 0BE0     		b	.L228
 3521              	.L229:
 3522              		.loc 21 102 0 discriminator 3
 3523 0224 04AB     		add	r3, sp, #16
 3524 0226 1846     		mov	r0, r3
 3525 0228 FFF7FEFF 		bl	_ZNK3r2p10StaticListINS_4NodeEE8IteratorptEv
 3526 022c 0346     		mov	r3, r0
 3527 022e 1846     		mov	r0, r3
ARM GAS  /tmp/ccIvsbEf.s 			page 63


 3528 0230 FFF7FEFF 		bl	_ZN3r2p4Node11notify_stopEv
 3529              		.loc 21 101 0 discriminator 3
 3530 0234 04AB     		add	r3, sp, #16
 3531 0236 1846     		mov	r0, r3
 3532 0238 FFF7FEFF 		bl	_ZN3r2p10StaticListINS_4NodeEE8IteratorppEv
 3533              	.L228:
 3534              		.loc 21 101 0 is_stmt 0 discriminator 1
 3535 023c 019B     		ldr	r3, [sp, #4]
 3536 023e 0433     		adds	r3, r3, #4
 3537 0240 06AA     		add	r2, sp, #24
 3538 0242 1046     		mov	r0, r2
 3539 0244 1946     		mov	r1, r3
 3540 0246 FFF7FEFF 		bl	_ZN3r2p10StaticListINS_4NodeEE3endEv
 3541 024a 04AA     		add	r2, sp, #16
 3542 024c 06AB     		add	r3, sp, #24
 3543 024e 1046     		mov	r0, r2
 3544 0250 1946     		mov	r1, r3
 3545 0252 FFF7FEFF 		bl	_ZNK3r2p10StaticListINS_4NodeEE8IteratorneERKS3_
 3546 0256 0346     		mov	r3, r0
 3547 0258 002B     		cmp	r3, #0
 3548 025a E3D1     		bne	.L229
 3549              	.LBE80:
 3550              		.loc 21 104 0 is_stmt 1
 3551 025c 07AB     		add	r3, sp, #28
 3552 025e 1846     		mov	r0, r3
 3553 0260 4FF4FA71 		mov	r1, #500
 3554 0264 FFF7FEFF 		bl	_ZN3r2p4Time2msEl
 3555 0268 07AB     		add	r3, sp, #28
 3556 026a 1846     		mov	r0, r3
 3557 026c FFF7FEFF 		bl	_ZN3r2p6Thread5sleepERKNS_4TimeE
 3558              	.LBB81:
 3559              		.loc 21 105 0
 3560 0270 03AB     		add	r3, sp, #12
 3561 0272 1846     		mov	r0, r3
 3562 0274 FFF7FEFF 		bl	_ZN3r2p7SysLock5ScopeC1Ev
 3563              		.loc 21 106 0
 3564 0278 019B     		ldr	r3, [sp, #4]
 3565 027a D3F89C32 		ldr	r3, [r3, #668]
 3566 027e 002B     		cmp	r3, #0
 3567 0280 01D1     		bne	.L230
 3568 0282 0024     		movs	r4, #0
 3569 0284 00E0     		b	.L231
 3570              	.L230:
 3571 0286 0124     		movs	r4, #1
 3572              	.L231:
 3573 0288 03AB     		add	r3, sp, #12
 3574 028a 1846     		mov	r0, r3
 3575 028c FFF7FEFF 		bl	_ZN3r2p7SysLock5ScopeD1Ev
 3576 0290 012C     		cmp	r4, #1
 3577 0292 01D1     		bne	.L220
 3578 0294 00BF     		nop
 3579              	.LBE81:
 3580              	.LBE79:
 3581              		.loc 21 107 0
 3582 0296 BDE7     		b	.L226
 3583              	.L220:
 3584              	.LBE78:
ARM GAS  /tmp/ccIvsbEf.s 			page 64


 3585              	.LBE76:
 3586              		.loc 21 108 0
 3587 0298 08B0     		add	sp, sp, #32
 3588              		.cfi_def_cfa_offset 8
 3589              		@ sp needed
 3590 029a 10BD     		pop	{r4, pc}
 3591              		.cfi_endproc
 3592              	.LFE683:
 3593              		.size	_ZN3r2p10Middleware4stopEv, .-_ZN3r2p10Middleware4stopEv
 3594              		.align	2
 3595              		.global	_ZN3r2p10Middleware11stop_remoteEPKc
 3596              		.thumb
 3597              		.thumb_func
 3598              		.type	_ZN3r2p10Middleware11stop_remoteEPKc, %function
 3599              	_ZN3r2p10Middleware11stop_remoteEPKc:
 3600              	.LFB684:
 3601              		.loc 21 111 0
 3602              		.cfi_startproc
 3603              		@ args = 0, pretend = 0, frame = 16
 3604              		@ frame_needed = 0, uses_anonymous_args = 0
 3605 029c 00B5     		push	{lr}
 3606              		.cfi_def_cfa_offset 4
 3607              		.cfi_offset 14, -4
 3608 029e 85B0     		sub	sp, sp, #20
 3609              		.cfi_def_cfa_offset 24
 3610 02a0 0190     		str	r0, [sp, #4]
 3611 02a2 0091     		str	r1, [sp]
 3612              	.LBB82:
 3613              		.loc 21 114 0
 3614 02a4 019B     		ldr	r3, [sp, #4]
 3615 02a6 03F18402 		add	r2, r3, #132
 3616 02aa 03AB     		add	r3, sp, #12
 3617 02ac 1046     		mov	r0, r2
 3618 02ae 1946     		mov	r1, r3
 3619 02b0 FFF7FEFF 		bl	_ZN3r2p9PublisherINS_7MgmtMsgEE5allocERPS1_
 3620 02b4 0346     		mov	r3, r0
 3621 02b6 002B     		cmp	r3, #0
 3622 02b8 13D0     		beq	.L237
 3623              		.loc 21 115 0
 3624 02ba 039B     		ldr	r3, [sp, #12]
 3625 02bc 1222     		movs	r2, #18
 3626 02be 83F82120 		strb	r2, [r3, #33]
 3627              		.loc 21 116 0
 3628 02c2 039B     		ldr	r3, [sp, #12]
 3629 02c4 0233     		adds	r3, r3, #2
 3630 02c6 1846     		mov	r0, r3
 3631 02c8 0099     		ldr	r1, [sp]
 3632 02ca 0722     		movs	r2, #7
 3633 02cc FFF7FEFF 		bl	strncpy
 3634              		.loc 21 117 0
 3635 02d0 019B     		ldr	r3, [sp, #4]
 3636 02d2 8433     		adds	r3, r3, #132
 3637 02d4 039A     		ldr	r2, [sp, #12]
 3638 02d6 1846     		mov	r0, r3
 3639 02d8 1146     		mov	r1, r2
 3640 02da FFF7FEFF 		bl	_ZN3r2p13BasePublisher16publish_remotelyERNS_7MessageE
 3641 02de 0346     		mov	r3, r0
ARM GAS  /tmp/ccIvsbEf.s 			page 65


 3642 02e0 00E0     		b	.L239
 3643              	.L237:
 3644              		.loc 21 119 0
 3645 02e2 0023     		movs	r3, #0
 3646              	.L239:
 3647              	.LBE82:
 3648              		.loc 21 120 0 discriminator 1
 3649 02e4 1846     		mov	r0, r3
 3650 02e6 05B0     		add	sp, sp, #20
 3651              		.cfi_def_cfa_offset 4
 3652              		@ sp needed
 3653 02e8 5DF804FB 		ldr	pc, [sp], #4
 3654              		.cfi_endproc
 3655              	.LFE684:
 3656              		.size	_ZN3r2p10Middleware11stop_remoteEPKc, .-_ZN3r2p10Middleware11stop_remoteEPKc
 3657              		.align	2
 3658              		.global	_ZN3r2p10Middleware13reboot_remoteEPKcb
 3659              		.thumb
 3660              		.thumb_func
 3661              		.type	_ZN3r2p10Middleware13reboot_remoteEPKcb, %function
 3662              	_ZN3r2p10Middleware13reboot_remoteEPKcb:
 3663              	.LFB685:
 3664              		.loc 21 123 0
 3665              		.cfi_startproc
 3666              		@ args = 0, pretend = 0, frame = 24
 3667              		@ frame_needed = 0, uses_anonymous_args = 0
 3668 02ec 00B5     		push	{lr}
 3669              		.cfi_def_cfa_offset 4
 3670              		.cfi_offset 14, -4
 3671 02ee 87B0     		sub	sp, sp, #28
 3672              		.cfi_def_cfa_offset 32
 3673 02f0 0390     		str	r0, [sp, #12]
 3674 02f2 0291     		str	r1, [sp, #8]
 3675 02f4 1346     		mov	r3, r2
 3676 02f6 8DF80730 		strb	r3, [sp, #7]
 3677              	.LBB83:
 3678              		.loc 21 126 0
 3679 02fa 039B     		ldr	r3, [sp, #12]
 3680 02fc 03F18402 		add	r2, r3, #132
 3681 0300 05AB     		add	r3, sp, #20
 3682 0302 1046     		mov	r0, r2
 3683 0304 1946     		mov	r1, r3
 3684 0306 FFF7FEFF 		bl	_ZN3r2p9PublisherINS_7MgmtMsgEE5allocERPS1_
 3685 030a 0346     		mov	r3, r0
 3686 030c 002B     		cmp	r3, #0
 3687 030e 19D0     		beq	.L241
 3688              		.loc 21 127 0
 3689 0310 059B     		ldr	r3, [sp, #20]
 3690 0312 9DF80720 		ldrb	r2, [sp, #7]	@ zero_extendqisi2
 3691 0316 002A     		cmp	r2, #0
 3692 0318 01D0     		beq	.L242
 3693              		.loc 21 127 0 is_stmt 0 discriminator 1
 3694 031a 1422     		movs	r2, #20
 3695 031c 00E0     		b	.L243
 3696              	.L242:
 3697              		.loc 21 127 0 discriminator 2
 3698 031e 1322     		movs	r2, #19
ARM GAS  /tmp/ccIvsbEf.s 			page 66


 3699              	.L243:
 3700              		.loc 21 127 0 discriminator 4
 3701 0320 83F82120 		strb	r2, [r3, #33]
 3702              		.loc 21 128 0 is_stmt 1 discriminator 4
 3703 0324 059B     		ldr	r3, [sp, #20]
 3704 0326 0233     		adds	r3, r3, #2
 3705 0328 1846     		mov	r0, r3
 3706 032a 0299     		ldr	r1, [sp, #8]
 3707 032c 0722     		movs	r2, #7
 3708 032e FFF7FEFF 		bl	strncpy
 3709              		.loc 21 129 0 discriminator 4
 3710 0332 039B     		ldr	r3, [sp, #12]
 3711 0334 8433     		adds	r3, r3, #132
 3712 0336 059A     		ldr	r2, [sp, #20]
 3713 0338 1846     		mov	r0, r3
 3714 033a 1146     		mov	r1, r2
 3715 033c FFF7FEFF 		bl	_ZN3r2p13BasePublisher16publish_remotelyERNS_7MessageE
 3716 0340 0346     		mov	r3, r0
 3717 0342 00E0     		b	.L245
 3718              	.L241:
 3719              		.loc 21 131 0
 3720 0344 0023     		movs	r3, #0
 3721              	.L245:
 3722              	.LBE83:
 3723              		.loc 21 132 0 discriminator 1
 3724 0346 1846     		mov	r0, r3
 3725 0348 07B0     		add	sp, sp, #28
 3726              		.cfi_def_cfa_offset 4
 3727              		@ sp needed
 3728 034a 5DF804FB 		ldr	pc, [sp], #4
 3729              		.cfi_endproc
 3730              	.LFE685:
 3731              		.size	_ZN3r2p10Middleware13reboot_remoteEPKcb, .-_ZN3r2p10Middleware13reboot_remoteEPKcb
 3732 034e 00BF     		.align	2
 3733              		.global	_ZN3r2p10Middleware3addERNS_4NodeE
 3734              		.thumb
 3735              		.thumb_func
 3736              		.type	_ZN3r2p10Middleware3addERNS_4NodeE, %function
 3737              	_ZN3r2p10Middleware3addERNS_4NodeE:
 3738              	.LFB686:
 3739              		.loc 21 135 0
 3740              		.cfi_startproc
 3741              		@ args = 0, pretend = 0, frame = 8
 3742              		@ frame_needed = 0, uses_anonymous_args = 0
 3743 0350 00B5     		push	{lr}
 3744              		.cfi_def_cfa_offset 4
 3745              		.cfi_offset 14, -4
 3746 0352 83B0     		sub	sp, sp, #12
 3747              		.cfi_def_cfa_offset 16
 3748 0354 0190     		str	r0, [sp, #4]
 3749 0356 0091     		str	r1, [sp]
 3750              		.loc 21 137 0
 3751 0358 FFF7FEFF 		bl	_ZN3r2p7SysLock7acquireEv
 3752              		.loc 21 138 0
 3753 035c 019B     		ldr	r3, [sp, #4]
 3754 035e 1A1D     		adds	r2, r3, #4
 3755 0360 009B     		ldr	r3, [sp]
ARM GAS  /tmp/ccIvsbEf.s 			page 67


 3756 0362 1433     		adds	r3, r3, #20
 3757 0364 1046     		mov	r0, r2
 3758 0366 1946     		mov	r1, r3
 3759 0368 FFF7FEFF 		bl	_ZN3r2p10StaticListINS_4NodeEE11link_unsafeERNS2_4LinkE
 3760              		.loc 21 139 0
 3761 036c 019B     		ldr	r3, [sp, #4]
 3762 036e D3F89C32 		ldr	r3, [r3, #668]
 3763 0372 5A1C     		adds	r2, r3, #1
 3764 0374 019B     		ldr	r3, [sp, #4]
 3765 0376 C3F89C22 		str	r2, [r3, #668]
 3766              		.loc 21 140 0
 3767 037a FFF7FEFF 		bl	_ZN3r2p7SysLock7releaseEv
 3768              		.loc 21 141 0
 3769 037e 03B0     		add	sp, sp, #12
 3770              		.cfi_def_cfa_offset 4
 3771              		@ sp needed
 3772 0380 5DF804FB 		ldr	pc, [sp], #4
 3773              		.cfi_endproc
 3774              	.LFE686:
 3775              		.size	_ZN3r2p10Middleware3addERNS_4NodeE, .-_ZN3r2p10Middleware3addERNS_4NodeE
 3776              		.align	2
 3777              		.global	_ZN3r2p10Middleware3addERNS_9TransportE
 3778              		.thumb
 3779              		.thumb_func
 3780              		.type	_ZN3r2p10Middleware3addERNS_9TransportE, %function
 3781              	_ZN3r2p10Middleware3addERNS_9TransportE:
 3782              	.LFB687:
 3783              		.loc 21 144 0
 3784              		.cfi_startproc
 3785              		@ args = 0, pretend = 0, frame = 8
 3786              		@ frame_needed = 0, uses_anonymous_args = 0
 3787 0384 00B5     		push	{lr}
 3788              		.cfi_def_cfa_offset 4
 3789              		.cfi_offset 14, -4
 3790 0386 83B0     		sub	sp, sp, #12
 3791              		.cfi_def_cfa_offset 16
 3792 0388 0190     		str	r0, [sp, #4]
 3793 038a 0091     		str	r1, [sp]
 3794              		.loc 21 146 0
 3795 038c 019B     		ldr	r3, [sp, #4]
 3796 038e 03F10C02 		add	r2, r3, #12
 3797 0392 009B     		ldr	r3, [sp]
 3798 0394 3833     		adds	r3, r3, #56
 3799 0396 1046     		mov	r0, r2
 3800 0398 1946     		mov	r1, r3
 3801 039a FFF7FEFF 		bl	_ZN3r2p10StaticListINS_9TransportEE4linkERNS2_4LinkE
 3802              		.loc 21 147 0
 3803 039e 03B0     		add	sp, sp, #12
 3804              		.cfi_def_cfa_offset 4
 3805              		@ sp needed
 3806 03a0 5DF804FB 		ldr	pc, [sp], #4
 3807              		.cfi_endproc
 3808              	.LFE687:
 3809              		.size	_ZN3r2p10Middleware3addERNS_9TransportE, .-_ZN3r2p10Middleware3addERNS_9TransportE
 3810              		.align	2
 3811              		.global	_ZN3r2p10Middleware3addERNS_5TopicE
 3812              		.thumb
ARM GAS  /tmp/ccIvsbEf.s 			page 68


 3813              		.thumb_func
 3814              		.type	_ZN3r2p10Middleware3addERNS_5TopicE, %function
 3815              	_ZN3r2p10Middleware3addERNS_5TopicE:
 3816              	.LFB688:
 3817              		.loc 21 150 0
 3818              		.cfi_startproc
 3819              		@ args = 0, pretend = 0, frame = 8
 3820              		@ frame_needed = 0, uses_anonymous_args = 0
 3821 03a4 00B5     		push	{lr}
 3822              		.cfi_def_cfa_offset 4
 3823              		.cfi_offset 14, -4
 3824 03a6 83B0     		sub	sp, sp, #12
 3825              		.cfi_def_cfa_offset 16
 3826 03a8 0190     		str	r0, [sp, #4]
 3827 03aa 0091     		str	r1, [sp]
 3828              		.loc 21 152 0
 3829 03ac 0098     		ldr	r0, [sp]
 3830 03ae FFF7FEFF 		bl	_ZNK3r2p5Topic8get_nameEv
 3831 03b2 0346     		mov	r3, r0
 3832 03b4 0198     		ldr	r0, [sp, #4]
 3833 03b6 1946     		mov	r1, r3
 3834 03b8 FFF7FEFF 		bl	_ZN3r2p10Middleware10find_topicEPKc
 3835 03bc 0346     		mov	r3, r0
 3836 03be 002B     		cmp	r3, #0
 3837 03c0 14BF     		ite	ne
 3838 03c2 0123     		movne	r3, #1
 3839 03c4 0023     		moveq	r3, #0
 3840 03c6 DBB2     		uxtb	r3, r3
 3841 03c8 002B     		cmp	r3, #0
 3842 03ca 02D0     		beq	.L249
 3843              		.loc 21 152 0 is_stmt 0 discriminator 1
 3844 03cc 0748     		ldr	r0, .L250
 3845 03ce FFF7FEFF 		bl	chDbgPanic
 3846              	.L249:
 3847              		.loc 21 154 0 is_stmt 1
 3848 03d2 019B     		ldr	r3, [sp, #4]
 3849 03d4 03F10802 		add	r2, r3, #8
 3850 03d8 009B     		ldr	r3, [sp]
 3851 03da 2833     		adds	r3, r3, #40
 3852 03dc 1046     		mov	r0, r2
 3853 03de 1946     		mov	r1, r3
 3854 03e0 FFF7FEFF 		bl	_ZN3r2p10StaticListINS_5TopicEE4linkERNS2_4LinkE
 3855              		.loc 21 155 0
 3856 03e4 03B0     		add	sp, sp, #12
 3857              		.cfi_def_cfa_offset 4
 3858              		@ sp needed
 3859 03e6 5DF804FB 		ldr	pc, [sp], #4
 3860              	.L251:
 3861 03ea 00BF     		.align	2
 3862              	.L250:
 3863 03ec 00000000 		.word	.LC0
 3864              		.cfi_endproc
 3865              	.LFE688:
 3866              		.size	_ZN3r2p10Middleware3addERNS_5TopicE, .-_ZN3r2p10Middleware3addERNS_5TopicE
 3867              		.align	2
 3868              		.global	_ZN3r2p10Middleware9advertiseERNS_14LocalPublisherEPKcRKNS_4TimeEj
 3869              		.thumb
ARM GAS  /tmp/ccIvsbEf.s 			page 69


 3870              		.thumb_func
 3871              		.type	_ZN3r2p10Middleware9advertiseERNS_14LocalPublisherEPKcRKNS_4TimeEj, %function
 3872              	_ZN3r2p10Middleware9advertiseERNS_14LocalPublisherEPKcRKNS_4TimeEj:
 3873              	.LFB689:
 3874              		.loc 21 159 0
 3875              		.cfi_startproc
 3876              		@ args = 4, pretend = 0, frame = 32
 3877              		@ frame_needed = 0, uses_anonymous_args = 0
 3878 03f0 30B5     		push	{r4, r5, lr}
 3879              		.cfi_def_cfa_offset 12
 3880              		.cfi_offset 4, -12
 3881              		.cfi_offset 5, -8
 3882              		.cfi_offset 14, -4
 3883 03f2 89B0     		sub	sp, sp, #36
 3884              		.cfi_def_cfa_offset 48
 3885 03f4 0390     		str	r0, [sp, #12]
 3886 03f6 0291     		str	r1, [sp, #8]
 3887 03f8 0192     		str	r2, [sp, #4]
 3888 03fa 0093     		str	r3, [sp]
 3889              	.LBB84:
 3890              		.loc 21 161 0
 3891 03fc 039B     		ldr	r3, [sp, #12]
 3892 03fe 1033     		adds	r3, r3, #16
 3893 0400 1846     		mov	r0, r3
 3894 0402 FFF7FEFF 		bl	_ZN3r2p7ReMutex7acquireEv
 3895              		.loc 21 162 0
 3896 0406 0398     		ldr	r0, [sp, #12]
 3897 0408 0199     		ldr	r1, [sp, #4]
 3898 040a 0C9A     		ldr	r2, [sp, #48]
 3899 040c FFF7FEFF 		bl	_ZN3r2p10Middleware11touch_topicEPKcj
 3900 0410 0790     		str	r0, [sp, #28]
 3901              		.loc 21 163 0
 3902 0412 079B     		ldr	r3, [sp, #28]
 3903 0414 002B     		cmp	r3, #0
 3904 0416 01D1     		bne	.L253
 3905              		.loc 21 163 0 is_stmt 0 discriminator 1
 3906 0418 0024     		movs	r4, #0
 3907 041a 5BE0     		b	.L254
 3908              	.L253:
 3909              		.loc 21 164 0 is_stmt 1
 3910 041c 029B     		ldr	r3, [sp, #8]
 3911 041e 1846     		mov	r0, r3
 3912 0420 0799     		ldr	r1, [sp, #28]
 3913 0422 FFF7FEFF 		bl	_ZN3r2p13BasePublisher17notify_advertisedERNS_5TopicE
 3914              		.loc 21 165 0
 3915 0426 0798     		ldr	r0, [sp, #28]
 3916 0428 0299     		ldr	r1, [sp, #8]
 3917 042a 009A     		ldr	r2, [sp]
 3918 042c FFF7FEFF 		bl	_ZN3r2p5Topic9advertiseERNS_14LocalPublisherERKNS_4TimeE
 3919              		.loc 21 166 0
 3920 0430 039B     		ldr	r3, [sp, #12]
 3921 0432 1033     		adds	r3, r3, #16
 3922 0434 1846     		mov	r0, r3
 3923 0436 FFF7FEFF 		bl	_ZN3r2p7ReMutex7releaseEv
 3924              	.LBB85:
 3925              		.loc 21 168 0
 3926 043a 039B     		ldr	r3, [sp, #12]
ARM GAS  /tmp/ccIvsbEf.s 			page 70


 3927 043c 03F12802 		add	r2, r3, #40
 3928 0440 079B     		ldr	r3, [sp, #28]
 3929 0442 9A42     		cmp	r2, r3
 3930 0444 45D0     		beq	.L255
 3931              	.LBB86:
 3932              	.LBB87:
 3933              		.loc 21 169 0
 3934 0446 05AB     		add	r3, sp, #20
 3935 0448 1846     		mov	r0, r3
 3936 044a FFF7FEFF 		bl	_ZN3r2p7SysLock5ScopeC1Ev
 3937              		.loc 21 170 0
 3938 044e 039B     		ldr	r3, [sp, #12]
 3939 0450 8433     		adds	r3, r3, #132
 3940 0452 1846     		mov	r0, r3
 3941 0454 FFF7FEFF 		bl	_ZNK3r2p13BasePublisher9get_topicEv
 3942 0458 0346     		mov	r3, r0
 3943 045a 002B     		cmp	r3, #0
 3944 045c 0CBF     		ite	eq
 3945 045e 0123     		moveq	r3, #1
 3946 0460 0023     		movne	r3, #0
 3947 0462 DBB2     		uxtb	r3, r3
 3948 0464 002B     		cmp	r3, #0
 3949 0466 02D0     		beq	.L256
 3950              		.loc 21 170 0 is_stmt 0 discriminator 1
 3951 0468 0124     		movs	r4, #1
 3952 046a 0025     		movs	r5, #0
 3953 046c 00E0     		b	.L257
 3954              	.L256:
 3955 046e 0125     		movs	r5, #1
 3956              	.L257:
 3957 0470 05AB     		add	r3, sp, #20
 3958 0472 1846     		mov	r0, r3
 3959 0474 FFF7FEFF 		bl	_ZN3r2p7SysLock5ScopeD1Ev
 3960 0478 012D     		cmp	r5, #1
 3961 047a 00D0     		beq	.L263
 3962              	.LBE87:
 3963 047c 2AE0     		b	.L254
 3964              	.L263:
 3965              	.LBB88:
 3966              		.loc 21 170 0
 3967 047e 00BF     		nop
 3968              	.LBE88:
 3969              		.loc 21 173 0 is_stmt 1
 3970 0480 039B     		ldr	r3, [sp, #12]
 3971 0482 03F18402 		add	r2, r3, #132
 3972 0486 06AB     		add	r3, sp, #24
 3973 0488 1046     		mov	r0, r2
 3974 048a 1946     		mov	r1, r3
 3975 048c FFF7FEFF 		bl	_ZN3r2p9PublisherINS_7MgmtMsgEE5allocERPS1_
 3976 0490 0346     		mov	r3, r0
 3977 0492 002B     		cmp	r3, #0
 3978 0494 00D1     		bne	.L260
 3979              	.LBE86:
 3980 0496 1CE0     		b	.L255
 3981              	.L260:
 3982              	.LBB89:
 3983              		.loc 21 174 0
ARM GAS  /tmp/ccIvsbEf.s 			page 71


 3984 0498 069B     		ldr	r3, [sp, #24]
 3985 049a 2122     		movs	r2, #33
 3986 049c 83F82120 		strb	r2, [r3, #33]
 3987              		.loc 21 176 0
 3988 04a0 069B     		ldr	r3, [sp, #24]
 3989 04a2 9C1C     		adds	r4, r3, #2
 3990 04a4 0798     		ldr	r0, [sp, #28]
 3991 04a6 FFF7FEFF 		bl	_ZNK3r2p5Topic8get_nameEv
 3992 04aa 0346     		mov	r3, r0
 3993 04ac 2046     		mov	r0, r4
 3994 04ae 1946     		mov	r1, r3
 3995 04b0 1022     		movs	r2, #16
 3996 04b2 FFF7FEFF 		bl	strncpy
 3997              		.loc 21 178 0
 3998 04b6 069C     		ldr	r4, [sp, #24]
 3999 04b8 0798     		ldr	r0, [sp, #28]
 4000 04ba FFF7FEFF 		bl	_ZNK3r2p5Topic16get_payload_sizeEv
 4001 04be 0346     		mov	r3, r0
 4002 04c0 9BB2     		uxth	r3, r3
 4003 04c2 6382     		strh	r3, [r4, #18]	@ unaligned
 4004              		.loc 21 179 0
 4005 04c4 039B     		ldr	r3, [sp, #12]
 4006 04c6 8433     		adds	r3, r3, #132
 4007 04c8 069A     		ldr	r2, [sp, #24]
 4008 04ca 1846     		mov	r0, r3
 4009 04cc 1146     		mov	r1, r2
 4010 04ce FFF7FEFF 		bl	_ZN3r2p13BasePublisher16publish_remotelyERNS_7MessageE
 4011              	.L255:
 4012              	.LBE89:
 4013              	.LBE85:
 4014              		.loc 21 182 0
 4015 04d2 0124     		movs	r4, #1
 4016              	.L254:
 4017 04d4 2346     		mov	r3, r4
 4018              	.LBE84:
 4019              		.loc 21 183 0 discriminator 5
 4020 04d6 1846     		mov	r0, r3
 4021 04d8 09B0     		add	sp, sp, #36
 4022              		.cfi_def_cfa_offset 12
 4023              		@ sp needed
 4024 04da 30BD     		pop	{r4, r5, pc}
 4025              		.cfi_endproc
 4026              	.LFE689:
 4027              		.size	_ZN3r2p10Middleware9advertiseERNS_14LocalPublisherEPKcRKNS_4TimeEj, .-_ZN3r2p10Middleware9ad
 4028              		.align	2
 4029              		.global	_ZN3r2p10Middleware9advertiseERNS_15RemotePublisherEPKcRKNS_4TimeEj
 4030              		.thumb
 4031              		.thumb_func
 4032              		.type	_ZN3r2p10Middleware9advertiseERNS_15RemotePublisherEPKcRKNS_4TimeEj, %function
 4033              	_ZN3r2p10Middleware9advertiseERNS_15RemotePublisherEPKcRKNS_4TimeEj:
 4034              	.LFB690:
 4035              		.loc 21 187 0
 4036              		.cfi_startproc
 4037              		@ args = 4, pretend = 0, frame = 24
 4038              		@ frame_needed = 0, uses_anonymous_args = 0
 4039 04dc 00B5     		push	{lr}
 4040              		.cfi_def_cfa_offset 4
ARM GAS  /tmp/ccIvsbEf.s 			page 72


 4041              		.cfi_offset 14, -4
 4042 04de 87B0     		sub	sp, sp, #28
 4043              		.cfi_def_cfa_offset 32
 4044 04e0 0390     		str	r0, [sp, #12]
 4045 04e2 0291     		str	r1, [sp, #8]
 4046 04e4 0192     		str	r2, [sp, #4]
 4047 04e6 0093     		str	r3, [sp]
 4048              	.LBB90:
 4049              		.loc 21 189 0
 4050 04e8 039B     		ldr	r3, [sp, #12]
 4051 04ea 1033     		adds	r3, r3, #16
 4052 04ec 1846     		mov	r0, r3
 4053 04ee FFF7FEFF 		bl	_ZN3r2p7ReMutex7acquireEv
 4054              		.loc 21 190 0
 4055 04f2 0398     		ldr	r0, [sp, #12]
 4056 04f4 0199     		ldr	r1, [sp, #4]
 4057 04f6 089A     		ldr	r2, [sp, #32]
 4058 04f8 FFF7FEFF 		bl	_ZN3r2p10Middleware11touch_topicEPKcj
 4059 04fc 0590     		str	r0, [sp, #20]
 4060              		.loc 21 191 0
 4061 04fe 059B     		ldr	r3, [sp, #20]
 4062 0500 002B     		cmp	r3, #0
 4063 0502 01D1     		bne	.L265
 4064              		.loc 21 191 0 is_stmt 0 discriminator 1
 4065 0504 0023     		movs	r3, #0
 4066 0506 0FE0     		b	.L266
 4067              	.L265:
 4068              		.loc 21 192 0 is_stmt 1
 4069 0508 029B     		ldr	r3, [sp, #8]
 4070 050a 1846     		mov	r0, r3
 4071 050c 0599     		ldr	r1, [sp, #20]
 4072 050e FFF7FEFF 		bl	_ZN3r2p13BasePublisher17notify_advertisedERNS_5TopicE
 4073              		.loc 21 193 0
 4074 0512 0598     		ldr	r0, [sp, #20]
 4075 0514 0299     		ldr	r1, [sp, #8]
 4076 0516 009A     		ldr	r2, [sp]
 4077 0518 FFF7FEFF 		bl	_ZN3r2p5Topic9advertiseERNS_15RemotePublisherERKNS_4TimeE
 4078              		.loc 21 194 0
 4079 051c 039B     		ldr	r3, [sp, #12]
 4080 051e 1033     		adds	r3, r3, #16
 4081 0520 1846     		mov	r0, r3
 4082 0522 FFF7FEFF 		bl	_ZN3r2p7ReMutex7releaseEv
 4083              		.loc 21 196 0
 4084 0526 0123     		movs	r3, #1
 4085              	.L266:
 4086              	.LBE90:
 4087              		.loc 21 197 0
 4088 0528 1846     		mov	r0, r3
 4089 052a 07B0     		add	sp, sp, #28
 4090              		.cfi_def_cfa_offset 4
 4091              		@ sp needed
 4092 052c 5DF804FB 		ldr	pc, [sp], #4
 4093              		.cfi_endproc
 4094              	.LFE690:
 4095              		.size	_ZN3r2p10Middleware9advertiseERNS_15RemotePublisherEPKcRKNS_4TimeEj, .-_ZN3r2p10Middleware9a
 4096              		.align	2
 4097              		.global	_ZN3r2p10Middleware9subscribeERNS_15LocalSubscriberEPKcPNS_7MessageEjj
ARM GAS  /tmp/ccIvsbEf.s 			page 73


 4098              		.thumb
 4099              		.thumb_func
 4100              		.type	_ZN3r2p10Middleware9subscribeERNS_15LocalSubscriberEPKcPNS_7MessageEjj, %function
 4101              	_ZN3r2p10Middleware9subscribeERNS_15LocalSubscriberEPKcPNS_7MessageEjj:
 4102              	.LFB691:
 4103              		.loc 21 202 0
 4104              		.cfi_startproc
 4105              		@ args = 8, pretend = 0, frame = 40
 4106              		@ frame_needed = 0, uses_anonymous_args = 0
 4107 0530 30B5     		push	{r4, r5, lr}
 4108              		.cfi_def_cfa_offset 12
 4109              		.cfi_offset 4, -12
 4110              		.cfi_offset 5, -8
 4111              		.cfi_offset 14, -4
 4112 0532 8BB0     		sub	sp, sp, #44
 4113              		.cfi_def_cfa_offset 56
 4114 0534 0390     		str	r0, [sp, #12]
 4115 0536 0291     		str	r1, [sp, #8]
 4116 0538 0192     		str	r2, [sp, #4]
 4117 053a 0093     		str	r3, [sp]
 4118              	.LBB91:
 4119              		.loc 21 204 0
 4120 053c 039B     		ldr	r3, [sp, #12]
 4121 053e 1033     		adds	r3, r3, #16
 4122 0540 1846     		mov	r0, r3
 4123 0542 FFF7FEFF 		bl	_ZN3r2p7ReMutex7acquireEv
 4124              		.loc 21 205 0
 4125 0546 0398     		ldr	r0, [sp, #12]
 4126 0548 0199     		ldr	r1, [sp, #4]
 4127 054a 0F9A     		ldr	r2, [sp, #60]
 4128 054c FFF7FEFF 		bl	_ZN3r2p10Middleware11touch_topicEPKcj
 4129 0550 0990     		str	r0, [sp, #36]
 4130              		.loc 21 206 0
 4131 0552 099B     		ldr	r3, [sp, #36]
 4132 0554 002B     		cmp	r3, #0
 4133 0556 01D1     		bne	.L268
 4134              		.loc 21 206 0 is_stmt 0 discriminator 1
 4135 0558 0024     		movs	r4, #0
 4136 055a 7FE0     		b	.L269
 4137              	.L268:
 4138              		.loc 21 207 0 is_stmt 1
 4139 055c 0998     		ldr	r0, [sp, #36]
 4140 055e 0099     		ldr	r1, [sp]
 4141 0560 0E9A     		ldr	r2, [sp, #56]
 4142 0562 FFF7FEFF 		bl	_ZN3r2p5Topic11extend_poolEPNS_7MessageEj
 4143              		.loc 21 208 0
 4144 0566 029B     		ldr	r3, [sp, #8]
 4145 0568 1846     		mov	r0, r3
 4146 056a 0999     		ldr	r1, [sp, #36]
 4147 056c FFF7FEFF 		bl	_ZN3r2p14BaseSubscriber17notify_subscribedERNS_5TopicE
 4148              		.loc 21 209 0
 4149 0570 0998     		ldr	r0, [sp, #36]
 4150 0572 0299     		ldr	r1, [sp, #8]
 4151 0574 0E9A     		ldr	r2, [sp, #56]
 4152 0576 FFF7FEFF 		bl	_ZN3r2p5Topic9subscribeERNS_15LocalSubscriberEj
 4153              		.loc 21 210 0
 4154 057a 039B     		ldr	r3, [sp, #12]
ARM GAS  /tmp/ccIvsbEf.s 			page 74


 4155 057c 1033     		adds	r3, r3, #16
 4156 057e 1846     		mov	r0, r3
 4157 0580 FFF7FEFF 		bl	_ZN3r2p7ReMutex7releaseEv
 4158              	.LBB92:
 4159              		.loc 21 212 0
 4160 0584 039B     		ldr	r3, [sp, #12]
 4161 0586 03F12802 		add	r2, r3, #40
 4162 058a 099B     		ldr	r3, [sp, #36]
 4163 058c 9A42     		cmp	r2, r3
 4164 058e 64D0     		beq	.L270
 4165              	.LBB93:
 4166              	.LBB94:
 4167              		.loc 21 213 0
 4168 0590 039B     		ldr	r3, [sp, #12]
 4169 0592 0C33     		adds	r3, r3, #12
 4170 0594 07AA     		add	r2, sp, #28
 4171 0596 1046     		mov	r0, r2
 4172 0598 1946     		mov	r1, r3
 4173 059a FFF7FEFF 		bl	_ZN3r2p10StaticListINS_9TransportEE5beginEv
 4174 059e 4CE0     		b	.L271
 4175              	.L278:
 4176              	.LBB95:
 4177              	.LBB96:
 4178              		.loc 21 215 0
 4179 05a0 05AB     		add	r3, sp, #20
 4180 05a2 1846     		mov	r0, r3
 4181 05a4 FFF7FEFF 		bl	_ZN3r2p7SysLock5ScopeC1Ev
 4182              		.loc 21 216 0
 4183 05a8 039B     		ldr	r3, [sp, #12]
 4184 05aa 8433     		adds	r3, r3, #132
 4185 05ac 1846     		mov	r0, r3
 4186 05ae FFF7FEFF 		bl	_ZNK3r2p13BasePublisher9get_topicEv
 4187 05b2 0346     		mov	r3, r0
 4188 05b4 002B     		cmp	r3, #0
 4189 05b6 0CBF     		ite	eq
 4190 05b8 0123     		moveq	r3, #1
 4191 05ba 0023     		movne	r3, #0
 4192 05bc DBB2     		uxtb	r3, r3
 4193 05be 002B     		cmp	r3, #0
 4194 05c0 02D0     		beq	.L272
 4195              		.loc 21 216 0 is_stmt 0 discriminator 1
 4196 05c2 0124     		movs	r4, #1
 4197 05c4 0025     		movs	r5, #0
 4198 05c6 00E0     		b	.L273
 4199              	.L272:
 4200 05c8 0125     		movs	r5, #1
 4201              	.L273:
 4202 05ca 05AB     		add	r3, sp, #20
 4203 05cc 1846     		mov	r0, r3
 4204 05ce FFF7FEFF 		bl	_ZN3r2p7SysLock5ScopeD1Ev
 4205 05d2 012D     		cmp	r5, #1
 4206 05d4 00D0     		beq	.L280
 4207              	.LBE96:
 4208              	.LBE95:
 4209 05d6 41E0     		b	.L269
 4210              	.L280:
 4211              	.LBB98:
ARM GAS  /tmp/ccIvsbEf.s 			page 75


 4212              	.LBB97:
 4213              		.loc 21 216 0
 4214 05d8 00BF     		nop
 4215              	.LBE97:
 4216              		.loc 21 219 0 is_stmt 1
 4217 05da 039B     		ldr	r3, [sp, #12]
 4218 05dc 03F18402 		add	r2, r3, #132
 4219 05e0 06AB     		add	r3, sp, #24
 4220 05e2 1046     		mov	r0, r2
 4221 05e4 1946     		mov	r1, r3
 4222 05e6 FFF7FEFF 		bl	_ZN3r2p9PublisherINS_7MgmtMsgEE5allocERPS1_
 4223 05ea 0346     		mov	r3, r0
 4224 05ec 002B     		cmp	r3, #0
 4225 05ee 20D0     		beq	.L277
 4226              		.loc 21 220 0
 4227 05f0 069B     		ldr	r3, [sp, #24]
 4228 05f2 2222     		movs	r2, #34
 4229 05f4 83F82120 		strb	r2, [r3, #33]
 4230              		.loc 21 222 0
 4231 05f8 069B     		ldr	r3, [sp, #24]
 4232 05fa 9D1C     		adds	r5, r3, #2
 4233 05fc 0998     		ldr	r0, [sp, #36]
 4234 05fe FFF7FEFF 		bl	_ZNK3r2p5Topic8get_nameEv
 4235 0602 0346     		mov	r3, r0
 4236 0604 2846     		mov	r0, r5
 4237 0606 1946     		mov	r1, r3
 4238 0608 1022     		movs	r2, #16
 4239 060a FFF7FEFF 		bl	strncpy
 4240              		.loc 21 224 0
 4241 060e 069D     		ldr	r5, [sp, #24]
 4242 0610 0998     		ldr	r0, [sp, #36]
 4243 0612 FFF7FEFF 		bl	_ZNK3r2p5Topic16get_payload_sizeEv
 4244 0616 0346     		mov	r3, r0
 4245 0618 9BB2     		uxth	r3, r3
 4246 061a 6B82     		strh	r3, [r5, #18]	@ unaligned
 4247              		.loc 21 226 0
 4248 061c 069B     		ldr	r3, [sp, #24]
 4249 061e 0E9A     		ldr	r2, [sp, #56]
 4250 0620 92B2     		uxth	r2, r2
 4251 0622 9A82     		strh	r2, [r3, #20]	@ unaligned
 4252              		.loc 21 227 0
 4253 0624 039B     		ldr	r3, [sp, #12]
 4254 0626 8433     		adds	r3, r3, #132
 4255 0628 069A     		ldr	r2, [sp, #24]
 4256 062a 1846     		mov	r0, r3
 4257 062c 1146     		mov	r1, r2
 4258 062e FFF7FEFF 		bl	_ZN3r2p13BasePublisher16publish_remotelyERNS_7MessageE
 4259              	.L277:
 4260              	.LBE98:
 4261              		.loc 21 213 0
 4262 0632 07AB     		add	r3, sp, #28
 4263 0634 1846     		mov	r0, r3
 4264 0636 FFF7FEFF 		bl	_ZN3r2p10StaticListINS_9TransportEE8IteratorppEv
 4265              	.L271:
 4266              		.loc 21 214 0 discriminator 1
 4267 063a 039B     		ldr	r3, [sp, #12]
 4268 063c 0C33     		adds	r3, r3, #12
ARM GAS  /tmp/ccIvsbEf.s 			page 76


 4269 063e 08AA     		add	r2, sp, #32
 4270 0640 1046     		mov	r0, r2
 4271 0642 1946     		mov	r1, r3
 4272 0644 FFF7FEFF 		bl	_ZN3r2p10StaticListINS_9TransportEE3endEv
 4273              		.loc 21 213 0 discriminator 1
 4274 0648 07AA     		add	r2, sp, #28
 4275 064a 08AB     		add	r3, sp, #32
 4276 064c 1046     		mov	r0, r2
 4277 064e 1946     		mov	r1, r3
 4278 0650 FFF7FEFF 		bl	_ZNK3r2p10StaticListINS_9TransportEE8IteratorneERKS3_
 4279 0654 0346     		mov	r3, r0
 4280 0656 002B     		cmp	r3, #0
 4281 0658 A2D1     		bne	.L278
 4282              	.L270:
 4283              	.LBE94:
 4284              	.LBE93:
 4285              	.LBE92:
 4286              		.loc 21 231 0
 4287 065a 0124     		movs	r4, #1
 4288              	.L269:
 4289 065c 2346     		mov	r3, r4
 4290              	.LBE91:
 4291              		.loc 21 232 0 discriminator 6
 4292 065e 1846     		mov	r0, r3
 4293 0660 0BB0     		add	sp, sp, #44
 4294              		.cfi_def_cfa_offset 12
 4295              		@ sp needed
 4296 0662 30BD     		pop	{r4, r5, pc}
 4297              		.cfi_endproc
 4298              	.LFE691:
 4299              		.size	_ZN3r2p10Middleware9subscribeERNS_15LocalSubscriberEPKcPNS_7MessageEjj, .-_ZN3r2p10Middlewar
 4300              		.align	2
 4301              		.global	_ZN3r2p10Middleware9subscribeERNS_16RemoteSubscriberEPKcPNS_7MessageEjj
 4302              		.thumb
 4303              		.thumb_func
 4304              		.type	_ZN3r2p10Middleware9subscribeERNS_16RemoteSubscriberEPKcPNS_7MessageEjj, %function
 4305              	_ZN3r2p10Middleware9subscribeERNS_16RemoteSubscriberEPKcPNS_7MessageEjj:
 4306              	.LFB692:
 4307              		.loc 21 237 0
 4308              		.cfi_startproc
 4309              		@ args = 8, pretend = 0, frame = 24
 4310              		@ frame_needed = 0, uses_anonymous_args = 0
 4311 0664 00B5     		push	{lr}
 4312              		.cfi_def_cfa_offset 4
 4313              		.cfi_offset 14, -4
 4314 0666 87B0     		sub	sp, sp, #28
 4315              		.cfi_def_cfa_offset 32
 4316 0668 0390     		str	r0, [sp, #12]
 4317 066a 0291     		str	r1, [sp, #8]
 4318 066c 0192     		str	r2, [sp, #4]
 4319 066e 0093     		str	r3, [sp]
 4320              	.LBB99:
 4321              		.loc 21 241 0
 4322 0670 039B     		ldr	r3, [sp, #12]
 4323 0672 1033     		adds	r3, r3, #16
 4324 0674 1846     		mov	r0, r3
 4325 0676 FFF7FEFF 		bl	_ZN3r2p7ReMutex7acquireEv
ARM GAS  /tmp/ccIvsbEf.s 			page 77


 4326              		.loc 21 242 0
 4327 067a 0398     		ldr	r0, [sp, #12]
 4328 067c 0199     		ldr	r1, [sp, #4]
 4329 067e FFF7FEFF 		bl	_ZN3r2p10Middleware10find_topicEPKc
 4330 0682 0590     		str	r0, [sp, #20]
 4331              		.loc 21 243 0
 4332 0684 059B     		ldr	r3, [sp, #20]
 4333 0686 002B     		cmp	r3, #0
 4334 0688 02D1     		bne	.L282
 4335              		.loc 21 243 0 is_stmt 0 discriminator 1
 4336 068a 0E48     		ldr	r0, .L284
 4337 068c FFF7FEFF 		bl	chDbgPanic
 4338              	.L282:
 4339              		.loc 21 244 0 is_stmt 1
 4340 0690 0598     		ldr	r0, [sp, #20]
 4341 0692 0099     		ldr	r1, [sp]
 4342 0694 089A     		ldr	r2, [sp, #32]
 4343 0696 FFF7FEFF 		bl	_ZN3r2p5Topic11extend_poolEPNS_7MessageEj
 4344              		.loc 21 245 0
 4345 069a 029B     		ldr	r3, [sp, #8]
 4346 069c 1846     		mov	r0, r3
 4347 069e 0599     		ldr	r1, [sp, #20]
 4348 06a0 FFF7FEFF 		bl	_ZN3r2p14BaseSubscriber17notify_subscribedERNS_5TopicE
 4349              		.loc 21 246 0
 4350 06a4 0598     		ldr	r0, [sp, #20]
 4351 06a6 0299     		ldr	r1, [sp, #8]
 4352 06a8 089A     		ldr	r2, [sp, #32]
 4353 06aa FFF7FEFF 		bl	_ZN3r2p5Topic9subscribeERNS_16RemoteSubscriberEj
 4354              		.loc 21 247 0
 4355 06ae 039B     		ldr	r3, [sp, #12]
 4356 06b0 1033     		adds	r3, r3, #16
 4357 06b2 1846     		mov	r0, r3
 4358 06b4 FFF7FEFF 		bl	_ZN3r2p7ReMutex7releaseEv
 4359              		.loc 21 249 0
 4360 06b8 0123     		movs	r3, #1
 4361              	.LBE99:
 4362              		.loc 21 250 0
 4363 06ba 1846     		mov	r0, r3
 4364 06bc 07B0     		add	sp, sp, #28
 4365              		.cfi_def_cfa_offset 4
 4366              		@ sp needed
 4367 06be 5DF804FB 		ldr	pc, [sp], #4
 4368              	.L285:
 4369 06c2 00BF     		.align	2
 4370              	.L284:
 4371 06c4 00000000 		.word	.LC0
 4372              		.cfi_endproc
 4373              	.LFE692:
 4374              		.size	_ZN3r2p10Middleware9subscribeERNS_16RemoteSubscriberEPKcPNS_7MessageEjj, .-_ZN3r2p10Middlewa
 4375              		.align	2
 4376              		.global	_ZN3r2p10Middleware12confirm_stopERKNS_4NodeE
 4377              		.thumb
 4378              		.thumb_func
 4379              		.type	_ZN3r2p10Middleware12confirm_stopERKNS_4NodeE, %function
 4380              	_ZN3r2p10Middleware12confirm_stopERKNS_4NodeE:
 4381              	.LFB693:
 4382              		.loc 21 253 0
ARM GAS  /tmp/ccIvsbEf.s 			page 78


 4383              		.cfi_startproc
 4384              		@ args = 0, pretend = 0, frame = 8
 4385              		@ frame_needed = 0, uses_anonymous_args = 0
 4386 06c8 00B5     		push	{lr}
 4387              		.cfi_def_cfa_offset 4
 4388              		.cfi_offset 14, -4
 4389 06ca 83B0     		sub	sp, sp, #12
 4390              		.cfi_def_cfa_offset 16
 4391 06cc 0190     		str	r0, [sp, #4]
 4392 06ce 0091     		str	r1, [sp]
 4393              		.loc 21 255 0
 4394 06d0 FFF7FEFF 		bl	_ZN3r2p7SysLock7acquireEv
 4395              		.loc 21 256 0
 4396 06d4 019B     		ldr	r3, [sp, #4]
 4397 06d6 D3F89C32 		ldr	r3, [r3, #668]
 4398 06da 002B     		cmp	r3, #0
 4399 06dc 02D1     		bne	.L287
 4400              		.loc 21 256 0 is_stmt 0 discriminator 1
 4401 06de 1348     		ldr	r0, .L289
 4402 06e0 FFF7FEFF 		bl	chDbgPanic
 4403              	.L287:
 4404              		.loc 21 257 0 is_stmt 1
 4405 06e4 019B     		ldr	r3, [sp, #4]
 4406 06e6 0433     		adds	r3, r3, #4
 4407 06e8 1846     		mov	r0, r3
 4408 06ea 0099     		ldr	r1, [sp]
 4409 06ec FFF7FEFF 		bl	_ZNK3r2p10StaticListINS_4NodeEE15contains_unsafeERKS1_
 4410 06f0 0346     		mov	r3, r0
 4411 06f2 83F00103 		eor	r3, r3, #1
 4412 06f6 DBB2     		uxtb	r3, r3
 4413 06f8 002B     		cmp	r3, #0
 4414 06fa 02D0     		beq	.L288
 4415              		.loc 21 257 0 is_stmt 0 discriminator 1
 4416 06fc 0B48     		ldr	r0, .L289
 4417 06fe FFF7FEFF 		bl	chDbgPanic
 4418              	.L288:
 4419              		.loc 21 258 0 is_stmt 1
 4420 0702 019B     		ldr	r3, [sp, #4]
 4421 0704 D3F89C32 		ldr	r3, [r3, #668]
 4422 0708 5A1E     		subs	r2, r3, #1
 4423 070a 019B     		ldr	r3, [sp, #4]
 4424 070c C3F89C22 		str	r2, [r3, #668]
 4425              		.loc 21 259 0
 4426 0710 019B     		ldr	r3, [sp, #4]
 4427 0712 1A1D     		adds	r2, r3, #4
 4428 0714 009B     		ldr	r3, [sp]
 4429 0716 1433     		adds	r3, r3, #20
 4430 0718 1046     		mov	r0, r2
 4431 071a 1946     		mov	r1, r3
 4432 071c FFF7FEFF 		bl	_ZN3r2p10StaticListINS_4NodeEE13unlink_unsafeERNS2_4LinkE
 4433              		.loc 21 260 0
 4434 0720 FFF7FEFF 		bl	_ZN3r2p7SysLock7releaseEv
 4435              		.loc 21 261 0
 4436 0724 03B0     		add	sp, sp, #12
 4437              		.cfi_def_cfa_offset 4
 4438              		@ sp needed
 4439 0726 5DF804FB 		ldr	pc, [sp], #4
ARM GAS  /tmp/ccIvsbEf.s 			page 79


 4440              	.L290:
 4441 072a 00BF     		.align	2
 4442              	.L289:
 4443 072c 00000000 		.word	.LC0
 4444              		.cfi_endproc
 4445              	.LFE693:
 4446              		.size	_ZN3r2p10Middleware12confirm_stopERKNS_4NodeE, .-_ZN3r2p10Middleware12confirm_stopERKNS_4Nod
 4447              		.align	2
 4448              		.global	_ZN3r2p10Middleware10find_topicEPKc
 4449              		.thumb
 4450              		.thumb_func
 4451              		.type	_ZN3r2p10Middleware10find_topicEPKc, %function
 4452              	_ZN3r2p10Middleware10find_topicEPKc:
 4453              	.LFB694:
 4454              		.loc 21 264 0
 4455              		.cfi_startproc
 4456              		@ args = 0, pretend = 0, frame = 16
 4457              		@ frame_needed = 0, uses_anonymous_args = 0
 4458 0730 00B5     		push	{lr}
 4459              		.cfi_def_cfa_offset 4
 4460              		.cfi_offset 14, -4
 4461 0732 85B0     		sub	sp, sp, #20
 4462              		.cfi_def_cfa_offset 24
 4463 0734 0190     		str	r0, [sp, #4]
 4464 0736 0091     		str	r1, [sp]
 4465              	.LBB100:
 4466              		.loc 21 266 0
 4467 0738 019B     		ldr	r3, [sp, #4]
 4468 073a 1033     		adds	r3, r3, #16
 4469 073c 1846     		mov	r0, r3
 4470 073e FFF7FEFF 		bl	_ZN3r2p7ReMutex7acquireEv
 4471              		.loc 21 267 0
 4472 0742 019B     		ldr	r3, [sp, #4]
 4473 0744 0833     		adds	r3, r3, #8
 4474 0746 1846     		mov	r0, r3
 4475 0748 0749     		ldr	r1, .L293
 4476 074a 009A     		ldr	r2, [sp]
 4477 074c FFF7FEFF 		bl	_ZNK3r2p10StaticListINS_5TopicEE10find_firstIPFbRKS1_PKcEcEEPS1_T_PKT0_
 4478 0750 0390     		str	r0, [sp, #12]
 4479              		.loc 21 268 0
 4480 0752 019B     		ldr	r3, [sp, #4]
 4481 0754 1033     		adds	r3, r3, #16
 4482 0756 1846     		mov	r0, r3
 4483 0758 FFF7FEFF 		bl	_ZN3r2p7ReMutex7releaseEv
 4484              		.loc 21 269 0
 4485 075c 039B     		ldr	r3, [sp, #12]
 4486              	.LBE100:
 4487              		.loc 21 270 0
 4488 075e 1846     		mov	r0, r3
 4489 0760 05B0     		add	sp, sp, #20
 4490              		.cfi_def_cfa_offset 4
 4491              		@ sp needed
 4492 0762 5DF804FB 		ldr	pc, [sp], #4
 4493              	.L294:
 4494 0766 00BF     		.align	2
 4495              	.L293:
 4496 0768 00000000 		.word	_ZN3r2p5Topic8has_nameERKS0_PKc
ARM GAS  /tmp/ccIvsbEf.s 			page 80


 4497              		.cfi_endproc
 4498              	.LFE694:
 4499              		.size	_ZN3r2p10Middleware10find_topicEPKc, .-_ZN3r2p10Middleware10find_topicEPKc
 4500              		.align	2
 4501              		.global	_ZN3r2p10Middleware9find_nodeEPKc
 4502              		.thumb
 4503              		.thumb_func
 4504              		.type	_ZN3r2p10Middleware9find_nodeEPKc, %function
 4505              	_ZN3r2p10Middleware9find_nodeEPKc:
 4506              	.LFB695:
 4507              		.loc 21 273 0
 4508              		.cfi_startproc
 4509              		@ args = 0, pretend = 0, frame = 16
 4510              		@ frame_needed = 0, uses_anonymous_args = 0
 4511 076c 00B5     		push	{lr}
 4512              		.cfi_def_cfa_offset 4
 4513              		.cfi_offset 14, -4
 4514 076e 85B0     		sub	sp, sp, #20
 4515              		.cfi_def_cfa_offset 24
 4516 0770 0190     		str	r0, [sp, #4]
 4517 0772 0091     		str	r1, [sp]
 4518              	.LBB101:
 4519              		.loc 21 275 0
 4520 0774 019B     		ldr	r3, [sp, #4]
 4521 0776 1033     		adds	r3, r3, #16
 4522 0778 1846     		mov	r0, r3
 4523 077a FFF7FEFF 		bl	_ZN3r2p7ReMutex7acquireEv
 4524              		.loc 21 276 0
 4525 077e 019B     		ldr	r3, [sp, #4]
 4526 0780 0433     		adds	r3, r3, #4
 4527 0782 1846     		mov	r0, r3
 4528 0784 0749     		ldr	r1, .L297
 4529 0786 009A     		ldr	r2, [sp]
 4530 0788 FFF7FEFF 		bl	_ZNK3r2p10StaticListINS_4NodeEE10find_firstIPFbRKS1_PKcEcEEPS1_T_PKT0_
 4531 078c 0390     		str	r0, [sp, #12]
 4532              		.loc 21 277 0
 4533 078e 019B     		ldr	r3, [sp, #4]
 4534 0790 1033     		adds	r3, r3, #16
 4535 0792 1846     		mov	r0, r3
 4536 0794 FFF7FEFF 		bl	_ZN3r2p7ReMutex7releaseEv
 4537              		.loc 21 278 0
 4538 0798 039B     		ldr	r3, [sp, #12]
 4539              	.LBE101:
 4540              		.loc 21 279 0
 4541 079a 1846     		mov	r0, r3
 4542 079c 05B0     		add	sp, sp, #20
 4543              		.cfi_def_cfa_offset 4
 4544              		@ sp needed
 4545 079e 5DF804FB 		ldr	pc, [sp], #4
 4546              	.L298:
 4547 07a2 00BF     		.align	2
 4548              	.L297:
 4549 07a4 00000000 		.word	_ZN3r2p4Node8has_nameERKS0_PKc
 4550              		.cfi_endproc
 4551              	.LFE695:
 4552              		.size	_ZN3r2p10Middleware9find_nodeEPKc, .-_ZN3r2p10Middleware9find_nodeEPKc
 4553              		.align	2
ARM GAS  /tmp/ccIvsbEf.s 			page 81


 4554              		.global	_ZN3r2p10Middleware11touch_topicEPKcj
 4555              		.thumb
 4556              		.thumb_func
 4557              		.type	_ZN3r2p10Middleware11touch_topicEPKcj, %function
 4558              	_ZN3r2p10Middleware11touch_topicEPKcj:
 4559              	.LFB696:
 4560              		.loc 21 282 0
 4561              		.cfi_startproc
 4562              		@ args = 0, pretend = 0, frame = 24
 4563              		@ frame_needed = 0, uses_anonymous_args = 0
 4564 07a8 10B5     		push	{r4, lr}
 4565              		.cfi_def_cfa_offset 8
 4566              		.cfi_offset 4, -8
 4567              		.cfi_offset 14, -4
 4568 07aa 86B0     		sub	sp, sp, #24
 4569              		.cfi_def_cfa_offset 32
 4570 07ac 0390     		str	r0, [sp, #12]
 4571 07ae 0291     		str	r1, [sp, #8]
 4572 07b0 0192     		str	r2, [sp, #4]
 4573              	.LBB102:
 4574              		.loc 21 284 0
 4575 07b2 039B     		ldr	r3, [sp, #12]
 4576 07b4 1033     		adds	r3, r3, #16
 4577 07b6 1846     		mov	r0, r3
 4578 07b8 FFF7FEFF 		bl	_ZN3r2p7ReMutex7acquireEv
 4579              		.loc 21 287 0
 4580 07bc 0398     		ldr	r0, [sp, #12]
 4581 07be 0299     		ldr	r1, [sp, #8]
 4582 07c0 FFF7FEFF 		bl	_ZN3r2p10Middleware10find_topicEPKc
 4583 07c4 0590     		str	r0, [sp, #20]
 4584              		.loc 21 288 0
 4585 07c6 059B     		ldr	r3, [sp, #20]
 4586 07c8 002B     		cmp	r3, #0
 4587 07ca 16D1     		bne	.L300
 4588              		.loc 21 290 0
 4589 07cc 3020     		movs	r0, #48
 4590 07ce FFF7FEFF 		bl	_Znwj
 4591 07d2 0446     		mov	r4, r0
 4592 07d4 2046     		mov	r0, r4
 4593 07d6 0299     		ldr	r1, [sp, #8]
 4594 07d8 019A     		ldr	r2, [sp, #4]
 4595 07da 0023     		movs	r3, #0
 4596 07dc FFF7FEFF 		bl	_ZN3r2p5TopicC1EPKcjb
 4597 07e0 0594     		str	r4, [sp, #20]
 4598              		.loc 21 291 0
 4599 07e2 059B     		ldr	r3, [sp, #20]
 4600 07e4 002B     		cmp	r3, #0
 4601 07e6 08D0     		beq	.L300
 4602              		.loc 21 292 0
 4603 07e8 039B     		ldr	r3, [sp, #12]
 4604 07ea 03F10802 		add	r2, r3, #8
 4605 07ee 059B     		ldr	r3, [sp, #20]
 4606 07f0 2833     		adds	r3, r3, #40
 4607 07f2 1046     		mov	r0, r2
 4608 07f4 1946     		mov	r1, r3
 4609 07f6 FFF7FEFF 		bl	_ZN3r2p10StaticListINS_5TopicEE4linkERNS2_4LinkE
 4610              	.L300:
ARM GAS  /tmp/ccIvsbEf.s 			page 82


 4611              		.loc 21 296 0
 4612 07fa 039B     		ldr	r3, [sp, #12]
 4613 07fc 1033     		adds	r3, r3, #16
 4614 07fe 1846     		mov	r0, r3
 4615 0800 FFF7FEFF 		bl	_ZN3r2p7ReMutex7releaseEv
 4616              		.loc 21 297 0
 4617 0804 059B     		ldr	r3, [sp, #20]
 4618              	.LBE102:
 4619              		.loc 21 298 0
 4620 0806 1846     		mov	r0, r3
 4621 0808 06B0     		add	sp, sp, #24
 4622              		.cfi_def_cfa_offset 8
 4623              		@ sp needed
 4624 080a 10BD     		pop	{r4, pc}
 4625              		.cfi_endproc
 4626              	.LFE696:
 4627              		.size	_ZN3r2p10Middleware11touch_topicEPKcj, .-_ZN3r2p10Middleware11touch_topicEPKcj
 4628              		.align	2
 4629              		.global	_ZN3r2p10Middleware14do_mgmt_threadEv
 4630              		.thumb
 4631              		.thumb_func
 4632              		.type	_ZN3r2p10Middleware14do_mgmt_threadEv, %function
 4633              	_ZN3r2p10Middleware14do_mgmt_threadEv:
 4634              	.LFB697:
 4635              		.loc 21 301 0
 4636              		.cfi_startproc
 4637              		@ args = 0, pretend = 0, frame = 56
 4638              		@ frame_needed = 0, uses_anonymous_args = 0
 4639 080c 30B5     		push	{r4, r5, lr}
 4640              		.cfi_def_cfa_offset 12
 4641              		.cfi_offset 4, -12
 4642              		.cfi_offset 5, -8
 4643              		.cfi_offset 14, -4
 4644 080e 8FB0     		sub	sp, sp, #60
 4645              		.cfi_def_cfa_offset 72
 4646 0810 0190     		str	r0, [sp, #4]
 4647              	.LBB103:
 4648              		.loc 21 303 0
 4649 0812 FFF7FEFF 		bl	_ZN3r2p7SysLock7acquireEv
 4650              		.loc 21 304 0
 4651 0816 019B     		ldr	r3, [sp, #4]
 4652 0818 6833     		adds	r3, r3, #104
 4653 081a 1846     		mov	r0, r3
 4654 081c 0121     		movs	r1, #1
 4655 081e FFF7FEFF 		bl	_ZN3r2p4Node11set_enabledEb
 4656              		.loc 21 305 0
 4657 0822 FFF7FEFF 		bl	_ZN3r2p7SysLock7releaseEv
 4658              		.loc 21 306 0
 4659 0826 019B     		ldr	r3, [sp, #4]
 4660 0828 03F16805 		add	r5, r3, #104
 4661 082c 019B     		ldr	r3, [sp, #4]
 4662 082e 03F18404 		add	r4, r3, #132
 4663 0832 019B     		ldr	r3, [sp, #4]
 4664 0834 2833     		adds	r3, r3, #40
 4665 0836 1846     		mov	r0, r3
 4666 0838 FFF7FEFF 		bl	_ZNK3r2p5Topic8get_nameEv
 4667 083c 0346     		mov	r3, r0
ARM GAS  /tmp/ccIvsbEf.s 			page 83


 4668 083e 2846     		mov	r0, r5
 4669 0840 2146     		mov	r1, r4
 4670 0842 1A46     		mov	r2, r3
 4671 0844 9C4B     		ldr	r3, .L342
 4672 0846 FFF7FEFF 		bl	_ZN3r2p4Node9advertiseINS_7MgmtMsgEEEbRNS_9PublisherIT_EEPKcRKNS_4TimeE
 4673              		.loc 21 307 0
 4674 084a 019B     		ldr	r3, [sp, #4]
 4675 084c 03F16805 		add	r5, r3, #104
 4676 0850 019B     		ldr	r3, [sp, #4]
 4677 0852 03F19404 		add	r4, r3, #148
 4678 0856 019B     		ldr	r3, [sp, #4]
 4679 0858 2833     		adds	r3, r3, #40
 4680 085a 1846     		mov	r0, r3
 4681 085c FFF7FEFF 		bl	_ZNK3r2p5Topic8get_nameEv
 4682 0860 0246     		mov	r2, r0
 4683 0862 019B     		ldr	r3, [sp, #4]
 4684 0864 F433     		adds	r3, r3, #244
 4685 0866 2846     		mov	r0, r5
 4686 0868 2146     		mov	r1, r4
 4687 086a FFF7FEFF 		bl	_ZN3r2p4Node9subscribeINS_7MgmtMsgEEEbRNS_16SubscriberExtBufIT_EEPKcPS4_
 4688              		.loc 21 311 0
 4689 086e 019B     		ldr	r3, [sp, #4]
 4690 0870 03F18402 		add	r2, r3, #132
 4691 0874 04AB     		add	r3, sp, #16
 4692 0876 1046     		mov	r0, r2
 4693 0878 1946     		mov	r1, r3
 4694 087a FFF7FEFF 		bl	_ZN3r2p9PublisherINS_7MgmtMsgEE5allocERPS1_
 4695 087e 0346     		mov	r3, r0
 4696 0880 002B     		cmp	r3, #0
 4697 0882 43D0     		beq	.L303
 4698              		.loc 21 312 0
 4699 0884 049B     		ldr	r3, [sp, #16]
 4700 0886 1846     		mov	r0, r3
 4701 0888 FFF7FEFF 		bl	_ZN3r2p7Message13reset_payloadINS_7MgmtMsgEEEvRT_
 4702              		.loc 21 313 0
 4703 088c 049B     		ldr	r3, [sp, #16]
 4704 088e 1122     		movs	r2, #17
 4705 0890 83F82120 		strb	r2, [r3, #33]
 4706              		.loc 21 315 0
 4707 0894 049B     		ldr	r3, [sp, #16]
 4708 0896 9A1C     		adds	r2, r3, #2
 4709 0898 019B     		ldr	r3, [sp, #4]
 4710 089a 1B68     		ldr	r3, [r3]
 4711 089c 1046     		mov	r0, r2
 4712 089e 1946     		mov	r1, r3
 4713 08a0 0722     		movs	r2, #7
 4714 08a2 FFF7FEFF 		bl	strncpy
 4715              		.loc 21 316 0
 4716 08a6 FFF7FEFF 		bl	_ZN3r2p7SysLock7acquireEv
 4717              		.loc 21 317 0
 4718 08aa 049C     		ldr	r4, [sp, #16]
 4719 08ac 0198     		ldr	r0, [sp, #4]
 4720 08ae FFF7FEFF 		bl	_ZNK3r2p10Middleware10is_stoppedEv
 4721 08b2 0346     		mov	r3, r0
 4722 08b4 002B     		cmp	r3, #0
 4723 08b6 01D0     		beq	.L304
 4724              		.loc 21 317 0 is_stmt 0 discriminator 1
ARM GAS  /tmp/ccIvsbEf.s 			page 84


 4725 08b8 0122     		movs	r2, #1
 4726 08ba 00E0     		b	.L305
 4727              	.L304:
 4728              		.loc 21 317 0 discriminator 2
 4729 08bc 0022     		movs	r2, #0
 4730              	.L305:
 4731              		.loc 21 317 0 discriminator 4
 4732 08be A37A     		ldrb	r3, [r4, #10]
 4733 08c0 62F30003 		bfi	r3, r2, #0, #1
 4734 08c4 A372     		strb	r3, [r4, #10]
 4735              		.loc 21 319 0 is_stmt 1 discriminator 4
 4736 08c6 049C     		ldr	r4, [sp, #16]
 4737 08c8 FFF7FEFF 		bl	_ZN3r2p10Middleware11is_rebootedEv
 4738 08cc 0346     		mov	r3, r0
 4739 08ce 002B     		cmp	r3, #0
 4740 08d0 01D0     		beq	.L306
 4741              		.loc 21 319 0 is_stmt 0 discriminator 1
 4742 08d2 0122     		movs	r2, #1
 4743 08d4 00E0     		b	.L307
 4744              	.L306:
 4745              		.loc 21 319 0 discriminator 2
 4746 08d6 0022     		movs	r2, #0
 4747              	.L307:
 4748              		.loc 21 319 0 discriminator 4
 4749 08d8 A37A     		ldrb	r3, [r4, #10]
 4750 08da 62F34103 		bfi	r3, r2, #1, #1
 4751 08de A372     		strb	r3, [r4, #10]
 4752              		.loc 21 320 0 is_stmt 1 discriminator 4
 4753 08e0 049C     		ldr	r4, [sp, #16]
 4754 08e2 FFF7FEFF 		bl	_ZN3r2p10Middleware18is_bootloader_modeEv
 4755 08e6 0346     		mov	r3, r0
 4756 08e8 002B     		cmp	r3, #0
 4757 08ea 01D0     		beq	.L308
 4758              		.loc 21 320 0 is_stmt 0 discriminator 1
 4759 08ec 0122     		movs	r2, #1
 4760 08ee 00E0     		b	.L309
 4761              	.L308:
 4762              		.loc 21 320 0 discriminator 2
 4763 08f0 0022     		movs	r2, #0
 4764              	.L309:
 4765              		.loc 21 320 0 discriminator 4
 4766 08f2 A37A     		ldrb	r3, [r4, #10]
 4767 08f4 62F38203 		bfi	r3, r2, #2, #1
 4768 08f8 A372     		strb	r3, [r4, #10]
 4769              		.loc 21 322 0 is_stmt 1 discriminator 4
 4770 08fa FFF7FEFF 		bl	_ZN3r2p7SysLock7releaseEv
 4771              		.loc 21 323 0 discriminator 4
 4772 08fe 019B     		ldr	r3, [sp, #4]
 4773 0900 8433     		adds	r3, r3, #132
 4774 0902 049A     		ldr	r2, [sp, #16]
 4775 0904 1846     		mov	r0, r3
 4776 0906 1146     		mov	r1, r2
 4777 0908 FFF7FEFF 		bl	_ZN3r2p13BasePublisher16publish_remotelyERNS_7MessageE
 4778              	.L303:
 4779              	.LBB104:
 4780              	.LBB105:
 4781              	.LBB106:
ARM GAS  /tmp/ccIvsbEf.s 			page 85


 4782              		.loc 21 328 0
 4783 090c 019B     		ldr	r3, [sp, #4]
 4784 090e 03F16804 		add	r4, r3, #104
 4785 0912 05AB     		add	r3, sp, #20
 4786 0914 1846     		mov	r0, r3
 4787 0916 2121     		movs	r1, #33
 4788 0918 FFF7FEFF 		bl	_ZN3r2p4Time2msEl
 4789 091c 05AB     		add	r3, sp, #20
 4790 091e 2046     		mov	r0, r4
 4791 0920 1946     		mov	r1, r3
 4792 0922 FFF7FEFF 		bl	_ZN3r2p4Node4spinERKNS_4TimeE
 4793 0926 0346     		mov	r3, r0
 4794 0928 002B     		cmp	r3, #0
 4795 092a 00F0C780 		beq	.L310
 4796              	.LBB107:
 4797              		.loc 21 329 0
 4798 092e 03AB     		add	r3, sp, #12
 4799 0930 1846     		mov	r0, r3
 4800 0932 FFF7FEFF 		bl	_ZN3r2p4TimeC1Ev
 4801              		.loc 21 331 0
 4802 0936 B0E0     		b	.L311
 4803              	.L323:
 4804              		.loc 21 332 0
 4805 0938 049B     		ldr	r3, [sp, #16]
 4806 093a 93F82130 		ldrb	r3, [r3, #33]	@ zero_extendqisi2
 4807 093e 123B     		subs	r3, r3, #18
 4808 0940 112B     		cmp	r3, #17
 4809 0942 00F2A180 		bhi	.L312
 4810 0946 01A2     		adr	r2, .L314
 4811 0948 52F823F0 		ldr	pc, [r2, r3, lsl #2]
 4812              		.p2align 2
 4813              	.L314:
 4814 094c E9090000 		.word	.L313+1
 4815 0950 190A0000 		.word	.L315+1
 4816 0954 510A0000 		.word	.L316+1
 4817 0958 890A0000 		.word	.L312+1
 4818 095c 890A0000 		.word	.L312+1
 4819 0960 890A0000 		.word	.L312+1
 4820 0964 890A0000 		.word	.L312+1
 4821 0968 890A0000 		.word	.L312+1
 4822 096c 890A0000 		.word	.L312+1
 4823 0970 890A0000 		.word	.L312+1
 4824 0974 890A0000 		.word	.L312+1
 4825 0978 890A0000 		.word	.L312+1
 4826 097c 890A0000 		.word	.L312+1
 4827 0980 890A0000 		.word	.L312+1
 4828 0984 890A0000 		.word	.L312+1
 4829 0988 95090000 		.word	.L317+1
 4830 098c B1090000 		.word	.L318+1
 4831 0990 CD090000 		.word	.L319+1
 4832              		.p2align 1
 4833              	.L317:
 4834              		.loc 21 334 0
 4835 0994 049B     		ldr	r3, [sp, #16]
 4836 0996 0198     		ldr	r0, [sp, #4]
 4837 0998 1946     		mov	r1, r3
 4838 099a FFF7FEFF 		bl	_ZN3r2p10Middleware16do_cmd_advertiseERKNS_7MgmtMsgE
ARM GAS  /tmp/ccIvsbEf.s 			page 86


 4839              		.loc 21 338 0
 4840 099e 019B     		ldr	r3, [sp, #4]
 4841 09a0 03F19402 		add	r2, r3, #148
 4842 09a4 049B     		ldr	r3, [sp, #16]
 4843 09a6 1046     		mov	r0, r2
 4844 09a8 1946     		mov	r1, r3
 4845 09aa FFF7FEFF 		bl	_ZN3r2p16SubscriberExtBufINS_7MgmtMsgEE7releaseERS1_
 4846              		.loc 21 339 0
 4847 09ae 74E0     		b	.L311
 4848              	.L318:
 4849              		.loc 21 342 0
 4850 09b0 049B     		ldr	r3, [sp, #16]
 4851 09b2 0198     		ldr	r0, [sp, #4]
 4852 09b4 1946     		mov	r1, r3
 4853 09b6 FFF7FEFF 		bl	_ZN3r2p10Middleware24do_cmd_subscribe_requestERKNS_7MgmtMsgE
 4854              		.loc 21 346 0
 4855 09ba 019B     		ldr	r3, [sp, #4]
 4856 09bc 03F19402 		add	r2, r3, #148
 4857 09c0 049B     		ldr	r3, [sp, #16]
 4858 09c2 1046     		mov	r0, r2
 4859 09c4 1946     		mov	r1, r3
 4860 09c6 FFF7FEFF 		bl	_ZN3r2p16SubscriberExtBufINS_7MgmtMsgEE7releaseERS1_
 4861              		.loc 21 347 0
 4862 09ca 66E0     		b	.L311
 4863              	.L319:
 4864              		.loc 21 350 0
 4865 09cc 049B     		ldr	r3, [sp, #16]
 4866 09ce 0198     		ldr	r0, [sp, #4]
 4867 09d0 1946     		mov	r1, r3
 4868 09d2 FFF7FEFF 		bl	_ZN3r2p10Middleware25do_cmd_subscribe_responseERKNS_7MgmtMsgE
 4869              		.loc 21 354 0
 4870 09d6 019B     		ldr	r3, [sp, #4]
 4871 09d8 03F19402 		add	r2, r3, #148
 4872 09dc 049B     		ldr	r3, [sp, #16]
 4873 09de 1046     		mov	r0, r2
 4874 09e0 1946     		mov	r1, r3
 4875 09e2 FFF7FEFF 		bl	_ZN3r2p16SubscriberExtBufINS_7MgmtMsgEE7releaseERS1_
 4876              		.loc 21 355 0
 4877 09e6 58E0     		b	.L311
 4878              	.L313:
 4879              		.loc 21 359 0
 4880 09e8 019B     		ldr	r3, [sp, #4]
 4881 09ea 1A68     		ldr	r2, [r3]
 4882 09ec 049B     		ldr	r3, [sp, #16]
 4883 09ee 0233     		adds	r3, r3, #2
 4884 09f0 1046     		mov	r0, r2
 4885 09f2 1946     		mov	r1, r3
 4886 09f4 0722     		movs	r2, #7
 4887 09f6 FFF7FEFF 		bl	strncmp
 4888 09fa 0346     		mov	r3, r0
 4889              		.loc 21 358 0
 4890 09fc 002B     		cmp	r3, #0
 4891 09fe 02D1     		bne	.L320
 4892              		.loc 21 360 0
 4893 0a00 0198     		ldr	r0, [sp, #4]
 4894 0a02 FFF7FEFF 		bl	_ZN3r2p10Middleware4stopEv
 4895              	.L320:
ARM GAS  /tmp/ccIvsbEf.s 			page 87


 4896              		.loc 21 367 0
 4897 0a06 019B     		ldr	r3, [sp, #4]
 4898 0a08 03F19402 		add	r2, r3, #148
 4899 0a0c 049B     		ldr	r3, [sp, #16]
 4900 0a0e 1046     		mov	r0, r2
 4901 0a10 1946     		mov	r1, r3
 4902 0a12 FFF7FEFF 		bl	_ZN3r2p16SubscriberExtBufINS_7MgmtMsgEE7releaseERS1_
 4903              		.loc 21 368 0
 4904 0a16 40E0     		b	.L311
 4905              	.L315:
 4906              		.loc 21 372 0
 4907 0a18 019B     		ldr	r3, [sp, #4]
 4908 0a1a 1A68     		ldr	r2, [r3]
 4909 0a1c 049B     		ldr	r3, [sp, #16]
 4910 0a1e 0233     		adds	r3, r3, #2
 4911 0a20 1046     		mov	r0, r2
 4912 0a22 1946     		mov	r1, r3
 4913 0a24 0722     		movs	r2, #7
 4914 0a26 FFF7FEFF 		bl	strncmp
 4915 0a2a 0346     		mov	r3, r0
 4916              		.loc 21 371 0
 4917 0a2c 002B     		cmp	r3, #0
 4918 0a2e 06D1     		bne	.L321
 4919              		.loc 21 374 0
 4920 0a30 0198     		ldr	r0, [sp, #4]
 4921 0a32 0021     		movs	r1, #0
 4922 0a34 FFF7FEFF 		bl	_ZN3r2p10Middleware23preload_bootloader_modeEb
 4923              		.loc 21 376 0
 4924 0a38 0198     		ldr	r0, [sp, #4]
 4925 0a3a FFF7FEFF 		bl	_ZN3r2p10Middleware6rebootEv
 4926              	.L321:
 4927              		.loc 21 383 0
 4928 0a3e 019B     		ldr	r3, [sp, #4]
 4929 0a40 03F19402 		add	r2, r3, #148
 4930 0a44 049B     		ldr	r3, [sp, #16]
 4931 0a46 1046     		mov	r0, r2
 4932 0a48 1946     		mov	r1, r3
 4933 0a4a FFF7FEFF 		bl	_ZN3r2p16SubscriberExtBufINS_7MgmtMsgEE7releaseERS1_
 4934              		.loc 21 384 0
 4935 0a4e 24E0     		b	.L311
 4936              	.L316:
 4937              		.loc 21 389 0
 4938 0a50 019B     		ldr	r3, [sp, #4]
 4939 0a52 1A68     		ldr	r2, [r3]
 4940 0a54 049B     		ldr	r3, [sp, #16]
 4941 0a56 0233     		adds	r3, r3, #2
 4942 0a58 1046     		mov	r0, r2
 4943 0a5a 1946     		mov	r1, r3
 4944 0a5c 0722     		movs	r2, #7
 4945 0a5e FFF7FEFF 		bl	strncmp
 4946 0a62 0346     		mov	r3, r0
 4947              		.loc 21 388 0
 4948 0a64 002B     		cmp	r3, #0
 4949 0a66 06D1     		bne	.L322
 4950              		.loc 21 390 0
 4951 0a68 0198     		ldr	r0, [sp, #4]
 4952 0a6a 0121     		movs	r1, #1
ARM GAS  /tmp/ccIvsbEf.s 			page 88


 4953 0a6c FFF7FEFF 		bl	_ZN3r2p10Middleware23preload_bootloader_modeEb
 4954              		.loc 21 391 0
 4955 0a70 0198     		ldr	r0, [sp, #4]
 4956 0a72 FFF7FEFF 		bl	_ZN3r2p10Middleware6rebootEv
 4957              	.L322:
 4958              		.loc 21 398 0
 4959 0a76 019B     		ldr	r3, [sp, #4]
 4960 0a78 03F19402 		add	r2, r3, #148
 4961 0a7c 049B     		ldr	r3, [sp, #16]
 4962 0a7e 1046     		mov	r0, r2
 4963 0a80 1946     		mov	r1, r3
 4964 0a82 FFF7FEFF 		bl	_ZN3r2p16SubscriberExtBufINS_7MgmtMsgEE7releaseERS1_
 4965              		.loc 21 399 0
 4966 0a86 08E0     		b	.L311
 4967              	.L312:
 4968              		.loc 21 408 0
 4969 0a88 019B     		ldr	r3, [sp, #4]
 4970 0a8a 03F19402 		add	r2, r3, #148
 4971 0a8e 049B     		ldr	r3, [sp, #16]
 4972 0a90 1046     		mov	r0, r2
 4973 0a92 1946     		mov	r1, r3
 4974 0a94 FFF7FEFF 		bl	_ZN3r2p16SubscriberExtBufINS_7MgmtMsgEE7releaseERS1_
 4975              		.loc 21 409 0
 4976 0a98 00BF     		nop
 4977              	.L311:
 4978              		.loc 21 331 0
 4979 0a9a 019B     		ldr	r3, [sp, #4]
 4980 0a9c 03F19401 		add	r1, r3, #148
 4981 0aa0 04AA     		add	r2, sp, #16
 4982 0aa2 03AB     		add	r3, sp, #12
 4983 0aa4 0846     		mov	r0, r1
 4984 0aa6 1146     		mov	r1, r2
 4985 0aa8 1A46     		mov	r2, r3
 4986 0aaa FFF7FEFF 		bl	_ZN3r2p16SubscriberExtBufINS_7MgmtMsgEE5fetchERPS1_RNS_4TimeE
 4987 0aae 0346     		mov	r3, r0
 4988 0ab0 002B     		cmp	r3, #0
 4989 0ab2 7FF441AF 		bne	.L323
 4990              	.LBE107:
 4991 0ab6 FCE1     		b	.L324
 4992              	.L343:
 4993              		.align	2
 4994              	.L342:
 4995 0ab8 00000000 		.word	_ZN3r2p4Time8INFINITEE
 4996              	.L310:
 4997              	.LBB108:
 4998              	.LBB109:
 4999              		.loc 21 416 0
 5000 0abc 07AB     		add	r3, sp, #28
 5001 0abe 1846     		mov	r0, r3
 5002 0ac0 FFF7FEFF 		bl	_ZN3r2p4Time3nowEv
 5003 0ac4 019B     		ldr	r3, [sp, #4]
 5004 0ac6 03F52573 		add	r3, r3, #660
 5005 0aca 06A9     		add	r1, sp, #24
 5006 0acc 07AA     		add	r2, sp, #28
 5007 0ace 0846     		mov	r0, r1
 5008 0ad0 1146     		mov	r1, r2
 5009 0ad2 1A46     		mov	r2, r3
ARM GAS  /tmp/ccIvsbEf.s 			page 89


 5010 0ad4 FFF7FEFF 		bl	_ZN3r2pmiERKNS_4TimeES2_
 5011 0ad8 08AB     		add	r3, sp, #32
 5012 0ada 1846     		mov	r0, r3
 5013 0adc 4FF4FA71 		mov	r1, #500
 5014 0ae0 FFF7FEFF 		bl	_ZN3r2p4Time2msEl
 5015 0ae4 06AA     		add	r2, sp, #24
 5016 0ae6 08AB     		add	r3, sp, #32
 5017 0ae8 1046     		mov	r0, r2
 5018 0aea 1946     		mov	r1, r3
 5019 0aec FFF7FEFF 		bl	_ZN3r2pgeERKNS_4TimeES2_
 5020 0af0 0346     		mov	r3, r0
 5021 0af2 002B     		cmp	r3, #0
 5022 0af4 00F0DD81 		beq	.L324
 5023              	.LBB110:
 5024              		.loc 21 417 0
 5025 0af8 019B     		ldr	r3, [sp, #4]
 5026 0afa 03F52574 		add	r4, r3, #660
 5027 0afe 09AB     		add	r3, sp, #36
 5028 0b00 1846     		mov	r0, r3
 5029 0b02 FFF7FEFF 		bl	_ZN3r2p4Time3nowEv
 5030 0b06 09AB     		add	r3, sp, #36
 5031 0b08 2046     		mov	r0, r4
 5032 0b0a 1946     		mov	r1, r3
 5033 0b0c FFF7FEFF 		bl	_ZN3r2p4TimeaSERKS0_
 5034              	.LBB111:
 5035              		.loc 21 418 0
 5036 0b10 019B     		ldr	r3, [sp, #4]
 5037 0b12 03F52273 		add	r3, r3, #648
 5038 0b16 1846     		mov	r0, r3
 5039 0b18 FFF7FEFF 		bl	_ZNK3r2p10StaticListINS_4NodeEE13ConstIterator8is_validEv
 5040 0b1c 0346     		mov	r3, r0
 5041 0b1e 83F00103 		eor	r3, r3, #1
 5042 0b22 DBB2     		uxtb	r3, r3
 5043 0b24 002B     		cmp	r3, #0
 5044 0b26 00F09D80 		beq	.L325
 5045              		.loc 21 420 0
 5046 0b2a 019B     		ldr	r3, [sp, #4]
 5047 0b2c 1A1D     		adds	r2, r3, #4
 5048 0b2e 019B     		ldr	r3, [sp, #4]
 5049 0b30 03F52273 		add	r3, r3, #648
 5050 0b34 1046     		mov	r0, r2
 5051 0b36 1946     		mov	r1, r3
 5052 0b38 FFF7FEFF 		bl	_ZNK3r2p10StaticListINS_4NodeEE7restartERNS2_13ConstIteratorE
 5053              		.loc 21 421 0
 5054 0b3c 019B     		ldr	r3, [sp, #4]
 5055 0b3e 03F52273 		add	r3, r3, #648
 5056 0b42 1846     		mov	r0, r3
 5057 0b44 FFF7FEFF 		bl	_ZNK3r2p10StaticListINS_4NodeEE13ConstIteratordeEv
 5058 0b48 0246     		mov	r2, r0
 5059 0b4a 019B     		ldr	r3, [sp, #4]
 5060 0b4c 6833     		adds	r3, r3, #104
 5061 0b4e 9A42     		cmp	r2, r3
 5062 0b50 0CBF     		ite	eq
 5063 0b52 0123     		moveq	r3, #1
 5064 0b54 0023     		movne	r3, #0
 5065 0b56 DBB2     		uxtb	r3, r3
 5066 0b58 002B     		cmp	r3, #0
ARM GAS  /tmp/ccIvsbEf.s 			page 90


 5067 0b5a 05D0     		beq	.L326
 5068              		.loc 21 421 0 is_stmt 0 discriminator 1
 5069 0b5c 019B     		ldr	r3, [sp, #4]
 5070 0b5e 03F52273 		add	r3, r3, #648
 5071 0b62 1846     		mov	r0, r3
 5072 0b64 FFF7FEFF 		bl	_ZN3r2p10StaticListINS_4NodeEE13ConstIteratorppEv
 5073              	.L326:
 5074              		.loc 21 422 0 is_stmt 1
 5075 0b68 019B     		ldr	r3, [sp, #4]
 5076 0b6a 03F52273 		add	r3, r3, #648
 5077 0b6e 1846     		mov	r0, r3
 5078 0b70 FFF7FEFF 		bl	_ZNK3r2p10StaticListINS_4NodeEE13ConstIterator8is_validEv
 5079 0b74 0346     		mov	r3, r0
 5080 0b76 002B     		cmp	r3, #0
 5081 0b78 23D0     		beq	.L327
 5082              		.loc 21 423 0
 5083 0b7a 019B     		ldr	r3, [sp, #4]
 5084 0b7c 03F52273 		add	r3, r3, #648
 5085 0b80 1846     		mov	r0, r3
 5086 0b82 FFF7FEFF 		bl	_ZNK3r2p10StaticListINS_4NodeEE13ConstIteratorptEv
 5087 0b86 0346     		mov	r3, r0
 5088 0b88 1846     		mov	r0, r3
 5089 0b8a FFF7FEFF 		bl	_ZNK3r2p4Node14get_publishersEv
 5090 0b8e 0246     		mov	r2, r0
 5091 0b90 019B     		ldr	r3, [sp, #4]
 5092 0b92 03F52373 		add	r3, r3, #652
 5093 0b96 1046     		mov	r0, r2
 5094 0b98 1946     		mov	r1, r3
 5095 0b9a FFF7FEFF 		bl	_ZNK3r2p10StaticListINS_14LocalPublisherEE7restartERNS2_13ConstIteratorE
 5096              		.loc 21 424 0
 5097 0b9e 019B     		ldr	r3, [sp, #4]
 5098 0ba0 03F52273 		add	r3, r3, #648
 5099 0ba4 1846     		mov	r0, r3
 5100 0ba6 FFF7FEFF 		bl	_ZNK3r2p10StaticListINS_4NodeEE13ConstIteratorptEv
 5101 0baa 0346     		mov	r3, r0
 5102 0bac 1846     		mov	r0, r3
 5103 0bae FFF7FEFF 		bl	_ZNK3r2p4Node15get_subscribersEv
 5104 0bb2 0246     		mov	r2, r0
 5105 0bb4 019B     		ldr	r3, [sp, #4]
 5106 0bb6 03F52473 		add	r3, r3, #656
 5107 0bba 1046     		mov	r0, r2
 5108 0bbc 1946     		mov	r1, r3
 5109 0bbe FFF7FEFF 		bl	_ZNK3r2p10StaticListINS_15LocalSubscriberEE7restartERNS2_13ConstIteratorE
 5110              	.L327:
 5111              		.loc 21 428 0
 5112 0bc2 019B     		ldr	r3, [sp, #4]
 5113 0bc4 03F18402 		add	r2, r3, #132
 5114 0bc8 04AB     		add	r3, sp, #16
 5115 0bca 1046     		mov	r0, r2
 5116 0bcc 1946     		mov	r1, r3
 5117 0bce FFF7FEFF 		bl	_ZN3r2p9PublisherINS_7MgmtMsgEE5allocERPS1_
 5118 0bd2 0346     		mov	r3, r0
 5119 0bd4 002B     		cmp	r3, #0
 5120 0bd6 00F06C81 		beq	.L328
 5121              		.loc 21 429 0
 5122 0bda 049B     		ldr	r3, [sp, #16]
 5123 0bdc 1846     		mov	r0, r3
ARM GAS  /tmp/ccIvsbEf.s 			page 91


 5124 0bde FFF7FEFF 		bl	_ZN3r2p7Message13reset_payloadINS_7MgmtMsgEEEvRT_
 5125              		.loc 21 430 0
 5126 0be2 049B     		ldr	r3, [sp, #16]
 5127 0be4 1122     		movs	r2, #17
 5128 0be6 83F82120 		strb	r2, [r3, #33]
 5129              		.loc 21 432 0
 5130 0bea 049B     		ldr	r3, [sp, #16]
 5131 0bec 9A1C     		adds	r2, r3, #2
 5132 0bee 019B     		ldr	r3, [sp, #4]
 5133 0bf0 1B68     		ldr	r3, [r3]
 5134 0bf2 1046     		mov	r0, r2
 5135 0bf4 1946     		mov	r1, r3
 5136 0bf6 0722     		movs	r2, #7
 5137 0bf8 FFF7FEFF 		bl	strncpy
 5138              		.loc 21 433 0
 5139 0bfc FFF7FEFF 		bl	_ZN3r2p7SysLock7acquireEv
 5140              		.loc 21 434 0
 5141 0c00 049C     		ldr	r4, [sp, #16]
 5142 0c02 0198     		ldr	r0, [sp, #4]
 5143 0c04 FFF7FEFF 		bl	_ZNK3r2p10Middleware10is_stoppedEv
 5144 0c08 0346     		mov	r3, r0
 5145 0c0a 002B     		cmp	r3, #0
 5146 0c0c 01D0     		beq	.L329
 5147              		.loc 21 434 0 is_stmt 0 discriminator 1
 5148 0c0e 0122     		movs	r2, #1
 5149 0c10 00E0     		b	.L330
 5150              	.L329:
 5151              		.loc 21 434 0 discriminator 2
 5152 0c12 0022     		movs	r2, #0
 5153              	.L330:
 5154              		.loc 21 434 0 discriminator 4
 5155 0c14 A37A     		ldrb	r3, [r4, #10]
 5156 0c16 62F30003 		bfi	r3, r2, #0, #1
 5157 0c1a A372     		strb	r3, [r4, #10]
 5158              		.loc 21 436 0 is_stmt 1 discriminator 4
 5159 0c1c 049C     		ldr	r4, [sp, #16]
 5160 0c1e FFF7FEFF 		bl	_ZN3r2p10Middleware11is_rebootedEv
 5161 0c22 0346     		mov	r3, r0
 5162 0c24 002B     		cmp	r3, #0
 5163 0c26 01D0     		beq	.L331
 5164              		.loc 21 436 0 is_stmt 0 discriminator 1
 5165 0c28 0122     		movs	r2, #1
 5166 0c2a 00E0     		b	.L332
 5167              	.L331:
 5168              		.loc 21 436 0 discriminator 2
 5169 0c2c 0022     		movs	r2, #0
 5170              	.L332:
 5171              		.loc 21 436 0 discriminator 4
 5172 0c2e A37A     		ldrb	r3, [r4, #10]
 5173 0c30 62F34103 		bfi	r3, r2, #1, #1
 5174 0c34 A372     		strb	r3, [r4, #10]
 5175              		.loc 21 437 0 is_stmt 1 discriminator 4
 5176 0c36 049C     		ldr	r4, [sp, #16]
 5177 0c38 FFF7FEFF 		bl	_ZN3r2p10Middleware18is_bootloader_modeEv
 5178 0c3c 0346     		mov	r3, r0
 5179 0c3e 002B     		cmp	r3, #0
 5180 0c40 01D0     		beq	.L333
ARM GAS  /tmp/ccIvsbEf.s 			page 92


 5181              		.loc 21 437 0 is_stmt 0 discriminator 1
 5182 0c42 0122     		movs	r2, #1
 5183 0c44 00E0     		b	.L334
 5184              	.L333:
 5185              		.loc 21 437 0 discriminator 2
 5186 0c46 0022     		movs	r2, #0
 5187              	.L334:
 5188              		.loc 21 437 0 discriminator 4
 5189 0c48 A37A     		ldrb	r3, [r4, #10]
 5190 0c4a 62F38203 		bfi	r3, r2, #2, #1
 5191 0c4e A372     		strb	r3, [r4, #10]
 5192              		.loc 21 439 0 is_stmt 1 discriminator 4
 5193 0c50 FFF7FEFF 		bl	_ZN3r2p7SysLock7releaseEv
 5194              		.loc 21 440 0 discriminator 4
 5195 0c54 019B     		ldr	r3, [sp, #4]
 5196 0c56 8433     		adds	r3, r3, #132
 5197 0c58 049A     		ldr	r2, [sp, #16]
 5198 0c5a 1846     		mov	r0, r3
 5199 0c5c 1146     		mov	r1, r2
 5200 0c5e FFF7FEFF 		bl	_ZN3r2p13BasePublisher16publish_remotelyERNS_7MessageE
 5201 0c62 26E1     		b	.L328
 5202              	.L325:
 5203              	.LBB112:
 5204              	.LBB113:
 5205              		.loc 21 443 0
 5206 0c64 019B     		ldr	r3, [sp, #4]
 5207 0c66 03F52373 		add	r3, r3, #652
 5208 0c6a 1846     		mov	r0, r3
 5209 0c6c FFF7FEFF 		bl	_ZNK3r2p10StaticListINS_14LocalPublisherEE13ConstIterator8is_validEv
 5210 0c70 0346     		mov	r3, r0
 5211 0c72 002B     		cmp	r3, #0
 5212 0c74 68D0     		beq	.L335
 5213              	.LBB114:
 5214              	.LBB115:
 5215              		.loc 21 445 0
 5216 0c76 019B     		ldr	r3, [sp, #4]
 5217 0c78 03F18402 		add	r2, r3, #132
 5218 0c7c 04AB     		add	r3, sp, #16
 5219 0c7e 1046     		mov	r0, r2
 5220 0c80 1946     		mov	r1, r3
 5221 0c82 FFF7FEFF 		bl	_ZN3r2p9PublisherINS_7MgmtMsgEE5allocERPS1_
 5222 0c86 0346     		mov	r3, r0
 5223 0c88 002B     		cmp	r3, #0
 5224 0c8a 5CD0     		beq	.L336
 5225              	.LBB116:
 5226              		.loc 21 446 0
 5227 0c8c 049B     		ldr	r3, [sp, #16]
 5228 0c8e 1846     		mov	r0, r3
 5229 0c90 FFF7FEFF 		bl	_ZN3r2p7Message13reset_payloadINS_7MgmtMsgEEEvRT_
 5230              		.loc 21 447 0
 5231 0c94 049B     		ldr	r3, [sp, #16]
 5232 0c96 2122     		movs	r2, #33
 5233 0c98 83F82120 		strb	r2, [r3, #33]
 5234              		.loc 21 448 0
 5235 0c9c 019B     		ldr	r3, [sp, #4]
 5236 0c9e 1033     		adds	r3, r3, #16
 5237 0ca0 1846     		mov	r0, r3
ARM GAS  /tmp/ccIvsbEf.s 			page 93


 5238 0ca2 FFF7FEFF 		bl	_ZN3r2p7ReMutex7acquireEv
 5239              		.loc 21 449 0
 5240 0ca6 019B     		ldr	r3, [sp, #4]
 5241 0ca8 03F52373 		add	r3, r3, #652
 5242 0cac 1846     		mov	r0, r3
 5243 0cae FFF7FEFF 		bl	_ZNK3r2p10StaticListINS_14LocalPublisherEE13ConstIteratorptEv
 5244 0cb2 0346     		mov	r3, r0
 5245 0cb4 1846     		mov	r0, r3
 5246 0cb6 FFF7FEFF 		bl	_ZNK3r2p13BasePublisher9get_topicEv
 5247 0cba 0D90     		str	r0, [sp, #52]
 5248              		.loc 21 451 0
 5249 0cbc 049C     		ldr	r4, [sp, #16]
 5250 0cbe 0D98     		ldr	r0, [sp, #52]
 5251 0cc0 FFF7FEFF 		bl	_ZNK3r2p5Topic16get_payload_sizeEv
 5252 0cc4 0346     		mov	r3, r0
 5253 0cc6 9BB2     		uxth	r3, r3
 5254 0cc8 6382     		strh	r3, [r4, #18]	@ unaligned
 5255              		.loc 21 453 0
 5256 0cca 049B     		ldr	r3, [sp, #16]
 5257 0ccc 9C1C     		adds	r4, r3, #2
 5258 0cce 0D98     		ldr	r0, [sp, #52]
 5259 0cd0 FFF7FEFF 		bl	_ZNK3r2p5Topic8get_nameEv
 5260 0cd4 0346     		mov	r3, r0
 5261 0cd6 2046     		mov	r0, r4
 5262 0cd8 1946     		mov	r1, r3
 5263 0cda 1022     		movs	r2, #16
 5264 0cdc FFF7FEFF 		bl	strncpy
 5265              		.loc 21 455 0
 5266 0ce0 049C     		ldr	r4, [sp, #16]
 5267 0ce2 0D98     		ldr	r0, [sp, #52]
 5268 0ce4 FFF7FEFF 		bl	_ZNK3r2p5Topic20get_max_queue_lengthEv
 5269 0ce8 0346     		mov	r3, r0
 5270 0cea 9BB2     		uxth	r3, r3
 5271 0cec A382     		strh	r3, [r4, #20]	@ unaligned
 5272              		.loc 21 456 0
 5273 0cee 019B     		ldr	r3, [sp, #4]
 5274 0cf0 1033     		adds	r3, r3, #16
 5275 0cf2 1846     		mov	r0, r3
 5276 0cf4 FFF7FEFF 		bl	_ZN3r2p7ReMutex7releaseEv
 5277              		.loc 21 457 0
 5278 0cf8 049B     		ldr	r3, [sp, #16]
 5279 0cfa 1846     		mov	r0, r3
 5280 0cfc FFF7FEFF 		bl	_ZN3r2p7Message7acquireEv
 5281              		.loc 21 458 0
 5282 0d00 019B     		ldr	r3, [sp, #4]
 5283 0d02 03F12804 		add	r4, r3, #40
 5284 0d06 049B     		ldr	r3, [sp, #16]
 5285 0d08 1D46     		mov	r5, r3
 5286 0d0a 019B     		ldr	r3, [sp, #4]
 5287 0d0c 2833     		adds	r3, r3, #40
 5288 0d0e 0AAA     		add	r2, sp, #40
 5289 0d10 1046     		mov	r0, r2
 5290 0d12 1946     		mov	r1, r3
 5291 0d14 FFF7FEFF 		bl	_ZNK3r2p5Topic16compute_deadlineEv
 5292 0d18 0AAB     		add	r3, sp, #40
 5293 0d1a 2046     		mov	r0, r4
 5294 0d1c 2946     		mov	r1, r5
ARM GAS  /tmp/ccIvsbEf.s 			page 94


 5295 0d1e 1A46     		mov	r2, r3
 5296 0d20 FFF7FEFF 		bl	_ZN3r2p5Topic12forward_copyERKNS_7MessageERKNS_4TimeE
 5297 0d24 0346     		mov	r3, r0
 5298 0d26 002B     		cmp	r3, #0
 5299 0d28 05D0     		beq	.L337
 5300              		.loc 21 459 0
 5301 0d2a 019B     		ldr	r3, [sp, #4]
 5302 0d2c 03F52373 		add	r3, r3, #652
 5303 0d30 1846     		mov	r0, r3
 5304 0d32 FFF7FEFF 		bl	_ZN3r2p10StaticListINS_14LocalPublisherEE13ConstIteratorppEv
 5305              	.L337:
 5306              		.loc 21 461 0
 5307 0d36 019B     		ldr	r3, [sp, #4]
 5308 0d38 03F19402 		add	r2, r3, #148
 5309 0d3c 049B     		ldr	r3, [sp, #16]
 5310 0d3e 1046     		mov	r0, r2
 5311 0d40 1946     		mov	r1, r3
 5312 0d42 FFF7FEFF 		bl	_ZN3r2p16SubscriberExtBufINS_7MgmtMsgEE7releaseERS1_
 5313              	.L336:
 5314              	.LBE116:
 5315              	.LBE115:
 5316              	.LBE114:
 5317 0d46 B4E0     		b	.L328
 5318              	.L335:
 5319              	.LBB117:
 5320              	.LBB118:
 5321              		.loc 21 464 0
 5322 0d48 019B     		ldr	r3, [sp, #4]
 5323 0d4a 03F52473 		add	r3, r3, #656
 5324 0d4e 1846     		mov	r0, r3
 5325 0d50 FFF7FEFF 		bl	_ZNK3r2p10StaticListINS_15LocalSubscriberEE13ConstIterator8is_validEv
 5326 0d54 0346     		mov	r3, r0
 5327 0d56 002B     		cmp	r3, #0
 5328 0d58 62D0     		beq	.L338
 5329              	.LBB119:
 5330              	.LBB120:
 5331              		.loc 21 466 0
 5332 0d5a 019B     		ldr	r3, [sp, #4]
 5333 0d5c 03F18402 		add	r2, r3, #132
 5334 0d60 04AB     		add	r3, sp, #16
 5335 0d62 1046     		mov	r0, r2
 5336 0d64 1946     		mov	r1, r3
 5337 0d66 FFF7FEFF 		bl	_ZN3r2p9PublisherINS_7MgmtMsgEE5allocERPS1_
 5338 0d6a 0346     		mov	r3, r0
 5339 0d6c 002B     		cmp	r3, #0
 5340 0d6e 56D0     		beq	.L339
 5341              	.LBB121:
 5342              		.loc 21 467 0
 5343 0d70 049B     		ldr	r3, [sp, #16]
 5344 0d72 1846     		mov	r0, r3
 5345 0d74 FFF7FEFF 		bl	_ZN3r2p7Message13reset_payloadINS_7MgmtMsgEEEvRT_
 5346              		.loc 21 468 0
 5347 0d78 049B     		ldr	r3, [sp, #16]
 5348 0d7a 2222     		movs	r2, #34
 5349 0d7c 83F82120 		strb	r2, [r3, #33]
 5350              		.loc 21 469 0
 5351 0d80 FFF7FEFF 		bl	_ZN3r2p7SysLock7acquireEv
ARM GAS  /tmp/ccIvsbEf.s 			page 95


 5352              		.loc 21 470 0
 5353 0d84 019B     		ldr	r3, [sp, #4]
 5354 0d86 03F52473 		add	r3, r3, #656
 5355 0d8a 1846     		mov	r0, r3
 5356 0d8c FFF7FEFF 		bl	_ZNK3r2p10StaticListINS_15LocalSubscriberEE13ConstIteratorptEv
 5357 0d90 0346     		mov	r3, r0
 5358 0d92 1846     		mov	r0, r3
 5359 0d94 FFF7FEFF 		bl	_ZNK3r2p14BaseSubscriber9get_topicEv
 5360 0d98 0C90     		str	r0, [sp, #48]
 5361              		.loc 21 471 0
 5362 0d9a 049C     		ldr	r4, [sp, #16]
 5363 0d9c 0C98     		ldr	r0, [sp, #48]
 5364 0d9e FFF7FEFF 		bl	_ZNK3r2p5Topic16get_payload_sizeEv
 5365 0da2 0346     		mov	r3, r0
 5366 0da4 9BB2     		uxth	r3, r3
 5367 0da6 6382     		strh	r3, [r4, #18]	@ unaligned
 5368              		.loc 21 473 0
 5369 0da8 049B     		ldr	r3, [sp, #16]
 5370 0daa 9C1C     		adds	r4, r3, #2
 5371 0dac 0C98     		ldr	r0, [sp, #48]
 5372 0dae FFF7FEFF 		bl	_ZNK3r2p5Topic8get_nameEv
 5373 0db2 0346     		mov	r3, r0
 5374 0db4 2046     		mov	r0, r4
 5375 0db6 1946     		mov	r1, r3
 5376 0db8 1022     		movs	r2, #16
 5377 0dba FFF7FEFF 		bl	strncpy
 5378              		.loc 21 474 0
 5379 0dbe 049C     		ldr	r4, [sp, #16]
 5380 0dc0 0C98     		ldr	r0, [sp, #48]
 5381 0dc2 FFF7FEFF 		bl	_ZNK3r2p5Topic20get_max_queue_lengthEv
 5382 0dc6 0346     		mov	r3, r0
 5383 0dc8 9BB2     		uxth	r3, r3
 5384 0dca A382     		strh	r3, [r4, #20]	@ unaligned
 5385              		.loc 21 475 0
 5386 0dcc FFF7FEFF 		bl	_ZN3r2p7SysLock7releaseEv
 5387              		.loc 21 476 0
 5388 0dd0 049B     		ldr	r3, [sp, #16]
 5389 0dd2 1846     		mov	r0, r3
 5390 0dd4 FFF7FEFF 		bl	_ZN3r2p7Message7acquireEv
 5391              		.loc 21 477 0
 5392 0dd8 019B     		ldr	r3, [sp, #4]
 5393 0dda 03F12804 		add	r4, r3, #40
 5394 0dde 049B     		ldr	r3, [sp, #16]
 5395 0de0 1D46     		mov	r5, r3
 5396 0de2 019B     		ldr	r3, [sp, #4]
 5397 0de4 2833     		adds	r3, r3, #40
 5398 0de6 0BAA     		add	r2, sp, #44
 5399 0de8 1046     		mov	r0, r2
 5400 0dea 1946     		mov	r1, r3
 5401 0dec FFF7FEFF 		bl	_ZNK3r2p5Topic16compute_deadlineEv
 5402 0df0 0BAB     		add	r3, sp, #44
 5403 0df2 2046     		mov	r0, r4
 5404 0df4 2946     		mov	r1, r5
 5405 0df6 1A46     		mov	r2, r3
 5406 0df8 FFF7FEFF 		bl	_ZN3r2p5Topic12forward_copyERKNS_7MessageERKNS_4TimeE
 5407 0dfc 0346     		mov	r3, r0
 5408 0dfe 002B     		cmp	r3, #0
ARM GAS  /tmp/ccIvsbEf.s 			page 96


 5409 0e00 05D0     		beq	.L340
 5410              		.loc 21 478 0
 5411 0e02 019B     		ldr	r3, [sp, #4]
 5412 0e04 03F52473 		add	r3, r3, #656
 5413 0e08 1846     		mov	r0, r3
 5414 0e0a FFF7FEFF 		bl	_ZN3r2p10StaticListINS_15LocalSubscriberEE13ConstIteratorppEv
 5415              	.L340:
 5416              		.loc 21 480 0
 5417 0e0e 019B     		ldr	r3, [sp, #4]
 5418 0e10 03F19402 		add	r2, r3, #148
 5419 0e14 049B     		ldr	r3, [sp, #16]
 5420 0e16 1046     		mov	r0, r2
 5421 0e18 1946     		mov	r1, r3
 5422 0e1a FFF7FEFF 		bl	_ZN3r2p16SubscriberExtBufINS_7MgmtMsgEE7releaseERS1_
 5423              	.L339:
 5424              	.LBE121:
 5425              	.LBE120:
 5426              	.LBE119:
 5427 0e1e 48E0     		b	.L328
 5428              	.L338:
 5429              		.loc 21 484 0
 5430 0e20 019B     		ldr	r3, [sp, #4]
 5431 0e22 03F52273 		add	r3, r3, #648
 5432 0e26 1846     		mov	r0, r3
 5433 0e28 FFF7FEFF 		bl	_ZN3r2p10StaticListINS_4NodeEE13ConstIteratorppEv
 5434              		.loc 21 485 0
 5435 0e2c 019B     		ldr	r3, [sp, #4]
 5436 0e2e 03F52273 		add	r3, r3, #648
 5437 0e32 1846     		mov	r0, r3
 5438 0e34 FFF7FEFF 		bl	_ZNK3r2p10StaticListINS_4NodeEE13ConstIteratordeEv
 5439 0e38 0246     		mov	r2, r0
 5440 0e3a 019B     		ldr	r3, [sp, #4]
 5441 0e3c 6833     		adds	r3, r3, #104
 5442 0e3e 9A42     		cmp	r2, r3
 5443 0e40 0CBF     		ite	eq
 5444 0e42 0123     		moveq	r3, #1
 5445 0e44 0023     		movne	r3, #0
 5446 0e46 DBB2     		uxtb	r3, r3
 5447 0e48 002B     		cmp	r3, #0
 5448 0e4a 05D0     		beq	.L341
 5449              		.loc 21 485 0 is_stmt 0 discriminator 1
 5450 0e4c 019B     		ldr	r3, [sp, #4]
 5451 0e4e 03F52273 		add	r3, r3, #648
 5452 0e52 1846     		mov	r0, r3
 5453 0e54 FFF7FEFF 		bl	_ZN3r2p10StaticListINS_4NodeEE13ConstIteratorppEv
 5454              	.L341:
 5455              		.loc 21 486 0 is_stmt 1
 5456 0e58 019B     		ldr	r3, [sp, #4]
 5457 0e5a 03F52273 		add	r3, r3, #648
 5458 0e5e 1846     		mov	r0, r3
 5459 0e60 FFF7FEFF 		bl	_ZNK3r2p10StaticListINS_4NodeEE13ConstIterator8is_validEv
 5460 0e64 0346     		mov	r3, r0
 5461 0e66 002B     		cmp	r3, #0
 5462 0e68 23D0     		beq	.L328
 5463              		.loc 21 487 0
 5464 0e6a 019B     		ldr	r3, [sp, #4]
 5465 0e6c 03F52273 		add	r3, r3, #648
ARM GAS  /tmp/ccIvsbEf.s 			page 97


 5466 0e70 1846     		mov	r0, r3
 5467 0e72 FFF7FEFF 		bl	_ZNK3r2p10StaticListINS_4NodeEE13ConstIteratorptEv
 5468 0e76 0346     		mov	r3, r0
 5469 0e78 1846     		mov	r0, r3
 5470 0e7a FFF7FEFF 		bl	_ZNK3r2p4Node14get_publishersEv
 5471 0e7e 0246     		mov	r2, r0
 5472 0e80 019B     		ldr	r3, [sp, #4]
 5473 0e82 03F52373 		add	r3, r3, #652
 5474 0e86 1046     		mov	r0, r2
 5475 0e88 1946     		mov	r1, r3
 5476 0e8a FFF7FEFF 		bl	_ZNK3r2p10StaticListINS_14LocalPublisherEE7restartERNS2_13ConstIteratorE
 5477              		.loc 21 488 0
 5478 0e8e 019B     		ldr	r3, [sp, #4]
 5479 0e90 03F52273 		add	r3, r3, #648
 5480 0e94 1846     		mov	r0, r3
 5481 0e96 FFF7FEFF 		bl	_ZNK3r2p10StaticListINS_4NodeEE13ConstIteratorptEv
 5482 0e9a 0346     		mov	r3, r0
 5483 0e9c 1846     		mov	r0, r3
 5484 0e9e FFF7FEFF 		bl	_ZNK3r2p4Node15get_subscribersEv
 5485 0ea2 0246     		mov	r2, r0
 5486 0ea4 019B     		ldr	r3, [sp, #4]
 5487 0ea6 03F52473 		add	r3, r3, #656
 5488 0eaa 1046     		mov	r0, r2
 5489 0eac 1946     		mov	r1, r3
 5490 0eae FFF7FEFF 		bl	_ZNK3r2p10StaticListINS_15LocalSubscriberEE7restartERNS2_13ConstIteratorE
 5491              	.L328:
 5492              	.L324:
 5493              	.LBE118:
 5494              	.LBE117:
 5495              	.LBE113:
 5496              	.LBE112:
 5497              	.LBE111:
 5498              	.LBE110:
 5499              	.LBE109:
 5500              	.LBE108:
 5501              	.LBE106:
 5502              	.LBE105:
 5503              		.loc 21 493 0 discriminator 5
 5504 0eb2 2BE5     		b	.L303
 5505              	.LBE104:
 5506              	.LBE103:
 5507              		.cfi_endproc
 5508              	.LFE697:
 5509              		.size	_ZN3r2p10Middleware14do_mgmt_threadEv, .-_ZN3r2p10Middleware14do_mgmt_threadEv
 5510              		.align	2
 5511              		.global	_ZN3r2p10Middleware16do_cmd_advertiseERKNS_7MgmtMsgE
 5512              		.thumb
 5513              		.thumb_func
 5514              		.type	_ZN3r2p10Middleware16do_cmd_advertiseERKNS_7MgmtMsgE, %function
 5515              	_ZN3r2p10Middleware16do_cmd_advertiseERKNS_7MgmtMsgE:
 5516              	.LFB698:
 5517              		.loc 21 497 0
 5518              		.cfi_startproc
 5519              		@ args = 0, pretend = 0, frame = 24
 5520              		@ frame_needed = 0, uses_anonymous_args = 0
 5521 0eb4 10B5     		push	{r4, lr}
 5522              		.cfi_def_cfa_offset 8
ARM GAS  /tmp/ccIvsbEf.s 			page 98


 5523              		.cfi_offset 4, -8
 5524              		.cfi_offset 14, -4
 5525 0eb6 86B0     		sub	sp, sp, #24
 5526              		.cfi_def_cfa_offset 32
 5527 0eb8 0190     		str	r0, [sp, #4]
 5528 0eba 0091     		str	r1, [sp]
 5529              	.LBB122:
 5530              		.loc 21 499 0
 5531 0ebc 009B     		ldr	r3, [sp]
 5532 0ebe 0233     		adds	r3, r3, #2
 5533 0ec0 0198     		ldr	r0, [sp, #4]
 5534 0ec2 1946     		mov	r1, r3
 5535 0ec4 FFF7FEFF 		bl	_ZN3r2p10Middleware10find_topicEPKc
 5536 0ec8 0590     		str	r0, [sp, #20]
 5537              		.loc 21 504 0
 5538 0eca 019B     		ldr	r3, [sp, #4]
 5539 0ecc 0C33     		adds	r3, r3, #12
 5540 0ece 1846     		mov	r0, r3
 5541 0ed0 FFF7FEFF 		bl	_ZNK3r2p10StaticListINS_9TransportEE5countEv
 5542 0ed4 0346     		mov	r3, r0
 5543 0ed6 012B     		cmp	r3, #1
 5544 0ed8 14BF     		ite	ne
 5545 0eda 0123     		movne	r3, #1
 5546 0edc 0023     		moveq	r3, #0
 5547 0ede DBB2     		uxtb	r3, r3
 5548 0ee0 002B     		cmp	r3, #0
 5549 0ee2 02D0     		beq	.L345
 5550              		.loc 21 504 0 is_stmt 0 discriminator 1
 5551 0ee4 3948     		ldr	r0, .L357
 5552 0ee6 FFF7FEFF 		bl	chDbgPanic
 5553              	.L345:
 5554              	.LBB123:
 5555              		.loc 21 505 0 is_stmt 1
 5556 0eea 059B     		ldr	r3, [sp, #20]
 5557 0eec 002B     		cmp	r3, #0
 5558 0eee 07D0     		beq	.L346
 5559              		.loc 21 505 0 is_stmt 0 discriminator 1
 5560 0ef0 0598     		ldr	r0, [sp, #20]
 5561 0ef2 FFF7FEFF 		bl	_ZNK3r2p5Topic21has_local_subscribersEv
 5562 0ef6 0346     		mov	r3, r0
 5563 0ef8 002B     		cmp	r3, #0
 5564 0efa 01D0     		beq	.L346
 5565              		.loc 21 505 0 discriminator 3
 5566 0efc 0123     		movs	r3, #1
 5567 0efe 00E0     		b	.L347
 5568              	.L346:
 5569              		.loc 21 505 0 discriminator 4
 5570 0f00 0023     		movs	r3, #0
 5571              	.L347:
 5572              		.loc 21 505 0 discriminator 6
 5573 0f02 002B     		cmp	r3, #0
 5574 0f04 5FD0     		beq	.L344
 5575              	.LBB124:
 5576              	.LBB125:
 5577              		.loc 21 507 0 is_stmt 1
 5578 0f06 03AB     		add	r3, sp, #12
 5579 0f08 1846     		mov	r0, r3
ARM GAS  /tmp/ccIvsbEf.s 			page 99


 5580 0f0a FFF7FEFF 		bl	_ZN3r2p7SysLock5ScopeC1Ev
 5581              		.loc 21 508 0
 5582 0f0e 019B     		ldr	r3, [sp, #4]
 5583 0f10 8433     		adds	r3, r3, #132
 5584 0f12 1846     		mov	r0, r3
 5585 0f14 FFF7FEFF 		bl	_ZNK3r2p13BasePublisher9get_topicEv
 5586 0f18 0346     		mov	r3, r0
 5587 0f1a 002B     		cmp	r3, #0
 5588 0f1c 0CBF     		ite	eq
 5589 0f1e 0123     		moveq	r3, #1
 5590 0f20 0023     		movne	r3, #0
 5591 0f22 DBB2     		uxtb	r3, r3
 5592 0f24 002B     		cmp	r3, #0
 5593 0f26 01D0     		beq	.L349
 5594 0f28 0024     		movs	r4, #0
 5595 0f2a 00E0     		b	.L350
 5596              	.L349:
 5597 0f2c 0124     		movs	r4, #1
 5598              	.L350:
 5599 0f2e 03AB     		add	r3, sp, #12
 5600 0f30 1846     		mov	r0, r3
 5601 0f32 FFF7FEFF 		bl	_ZN3r2p7SysLock5ScopeD1Ev
 5602 0f36 012C     		cmp	r4, #1
 5603 0f38 00D0     		beq	.L356
 5604              	.LBE125:
 5605 0f3a 44E0     		b	.L344
 5606              	.L356:
 5607              	.LBB126:
 5608 0f3c 00BF     		nop
 5609              	.LBE126:
 5610              		.loc 21 511 0
 5611 0f3e 019B     		ldr	r3, [sp, #4]
 5612 0f40 03F18402 		add	r2, r3, #132
 5613 0f44 04AB     		add	r3, sp, #16
 5614 0f46 1046     		mov	r0, r2
 5615 0f48 1946     		mov	r1, r3
 5616 0f4a FFF7FEFF 		bl	_ZN3r2p9PublisherINS_7MgmtMsgEE5allocERPS1_
 5617 0f4e 0346     		mov	r3, r0
 5618 0f50 002B     		cmp	r3, #0
 5619 0f52 00D1     		bne	.L353
 5620              	.LBE124:
 5621 0f54 37E0     		b	.L344
 5622              	.L353:
 5623              	.LBB127:
 5624              		.loc 21 512 0
 5625 0f56 049B     		ldr	r3, [sp, #16]
 5626 0f58 1846     		mov	r0, r3
 5627 0f5a FFF7FEFF 		bl	_ZN3r2p7Message13reset_payloadINS_7MgmtMsgEEEvRT_
 5628              		.loc 21 513 0
 5629 0f5e 049B     		ldr	r3, [sp, #16]
 5630 0f60 2222     		movs	r2, #34
 5631 0f62 83F82120 		strb	r2, [r3, #33]
 5632              		.loc 21 515 0
 5633 0f66 049B     		ldr	r3, [sp, #16]
 5634 0f68 9C1C     		adds	r4, r3, #2
 5635 0f6a 0598     		ldr	r0, [sp, #20]
 5636 0f6c FFF7FEFF 		bl	_ZNK3r2p5Topic8get_nameEv
ARM GAS  /tmp/ccIvsbEf.s 			page 100


 5637 0f70 0346     		mov	r3, r0
 5638 0f72 2046     		mov	r0, r4
 5639 0f74 1946     		mov	r1, r3
 5640 0f76 1022     		movs	r2, #16
 5641 0f78 FFF7FEFF 		bl	strncpy
 5642              		.loc 21 517 0
 5643 0f7c 049C     		ldr	r4, [sp, #16]
 5644 0f7e 0598     		ldr	r0, [sp, #20]
 5645 0f80 FFF7FEFF 		bl	_ZNK3r2p5Topic16get_payload_sizeEv
 5646 0f84 0346     		mov	r3, r0
 5647 0f86 9BB2     		uxth	r3, r3
 5648 0f88 6382     		strh	r3, [r4, #18]	@ unaligned
 5649              		.loc 21 518 0
 5650 0f8a FFF7FEFF 		bl	_ZN3r2p7SysLock7acquireEv
 5651              		.loc 21 520 0
 5652 0f8e 049C     		ldr	r4, [sp, #16]
 5653 0f90 0598     		ldr	r0, [sp, #20]
 5654 0f92 FFF7FEFF 		bl	_ZNK3r2p5Topic20get_max_queue_lengthEv
 5655 0f96 0346     		mov	r3, r0
 5656 0f98 9BB2     		uxth	r3, r3
 5657 0f9a A382     		strh	r3, [r4, #20]	@ unaligned
 5658              		.loc 21 521 0
 5659 0f9c FFF7FEFF 		bl	_ZN3r2p7SysLock7releaseEv
 5660              		.loc 21 522 0
 5661 0fa0 049B     		ldr	r3, [sp, #16]
 5662 0fa2 1846     		mov	r0, r3
 5663 0fa4 FFF7FEFF 		bl	_ZN3r2p7Message7acquireEv
 5664              		.loc 21 526 0
 5665 0fa8 019B     		ldr	r3, [sp, #4]
 5666 0faa 8433     		adds	r3, r3, #132
 5667 0fac 049A     		ldr	r2, [sp, #16]
 5668 0fae 1846     		mov	r0, r3
 5669 0fb0 1146     		mov	r1, r2
 5670 0fb2 FFF7FEFF 		bl	_ZN3r2p13BasePublisher16publish_remotelyERNS_7MessageE
 5671              		.loc 21 528 0
 5672 0fb6 019B     		ldr	r3, [sp, #4]
 5673 0fb8 03F19402 		add	r2, r3, #148
 5674 0fbc 049B     		ldr	r3, [sp, #16]
 5675 0fbe 1046     		mov	r0, r2
 5676 0fc0 1946     		mov	r1, r3
 5677 0fc2 FFF7FEFF 		bl	_ZN3r2p16SubscriberExtBufINS_7MgmtMsgEE7releaseERS1_
 5678              	.L344:
 5679              	.LBE127:
 5680              	.LBE123:
 5681              	.LBE122:
 5682              		.loc 21 552 0
 5683 0fc6 06B0     		add	sp, sp, #24
 5684              		.cfi_def_cfa_offset 8
 5685              		@ sp needed
 5686 0fc8 10BD     		pop	{r4, pc}
 5687              	.L358:
 5688 0fca 00BF     		.align	2
 5689              	.L357:
 5690 0fcc 00000000 		.word	.LC0
 5691              		.cfi_endproc
 5692              	.LFE698:
 5693              		.size	_ZN3r2p10Middleware16do_cmd_advertiseERKNS_7MgmtMsgE, .-_ZN3r2p10Middleware16do_cmd_advertis
ARM GAS  /tmp/ccIvsbEf.s 			page 101


 5694              		.align	2
 5695              		.global	_ZN3r2p10Middleware24do_cmd_subscribe_requestERKNS_7MgmtMsgE
 5696              		.thumb
 5697              		.thumb_func
 5698              		.type	_ZN3r2p10Middleware24do_cmd_subscribe_requestERKNS_7MgmtMsgE, %function
 5699              	_ZN3r2p10Middleware24do_cmd_subscribe_requestERKNS_7MgmtMsgE:
 5700              	.LFB699:
 5701              		.loc 21 555 0
 5702              		.cfi_startproc
 5703              		@ args = 0, pretend = 0, frame = 24
 5704              		@ frame_needed = 0, uses_anonymous_args = 0
 5705 0fd0 10B5     		push	{r4, lr}
 5706              		.cfi_def_cfa_offset 8
 5707              		.cfi_offset 4, -8
 5708              		.cfi_offset 14, -4
 5709 0fd2 86B0     		sub	sp, sp, #24
 5710              		.cfi_def_cfa_offset 32
 5711 0fd4 0190     		str	r0, [sp, #4]
 5712 0fd6 0091     		str	r1, [sp]
 5713              	.LBB128:
 5714              		.loc 21 557 0
 5715 0fd8 009B     		ldr	r3, [sp]
 5716 0fda 0233     		adds	r3, r3, #2
 5717 0fdc 0198     		ldr	r0, [sp, #4]
 5718 0fde 1946     		mov	r1, r3
 5719 0fe0 FFF7FEFF 		bl	_ZN3r2p10Middleware10find_topicEPKc
 5720 0fe4 0590     		str	r0, [sp, #20]
 5721              		.loc 21 562 0
 5722 0fe6 019B     		ldr	r3, [sp, #4]
 5723 0fe8 0C33     		adds	r3, r3, #12
 5724 0fea 1846     		mov	r0, r3
 5725 0fec FFF7FEFF 		bl	_ZNK3r2p10StaticListINS_9TransportEE5countEv
 5726 0ff0 0346     		mov	r3, r0
 5727 0ff2 012B     		cmp	r3, #1
 5728 0ff4 14BF     		ite	ne
 5729 0ff6 0123     		movne	r3, #1
 5730 0ff8 0023     		moveq	r3, #0
 5731 0ffa DBB2     		uxtb	r3, r3
 5732 0ffc 002B     		cmp	r3, #0
 5733 0ffe 02D0     		beq	.L360
 5734              		.loc 21 562 0 is_stmt 0 discriminator 1
 5735 1000 4448     		ldr	r0, .L372
 5736 1002 FFF7FEFF 		bl	chDbgPanic
 5737              	.L360:
 5738              	.LBB129:
 5739              		.loc 21 563 0 is_stmt 1
 5740 1006 059B     		ldr	r3, [sp, #20]
 5741 1008 002B     		cmp	r3, #0
 5742 100a 07D0     		beq	.L361
 5743              		.loc 21 563 0 is_stmt 0 discriminator 1
 5744 100c 0598     		ldr	r0, [sp, #20]
 5745 100e FFF7FEFF 		bl	_ZNK3r2p5Topic20has_local_publishersEv
 5746 1012 0346     		mov	r3, r0
 5747 1014 002B     		cmp	r3, #0
 5748 1016 01D0     		beq	.L361
 5749              		.loc 21 563 0 discriminator 3
 5750 1018 0123     		movs	r3, #1
ARM GAS  /tmp/ccIvsbEf.s 			page 102


 5751 101a 00E0     		b	.L362
 5752              	.L361:
 5753              		.loc 21 563 0 discriminator 4
 5754 101c 0023     		movs	r3, #0
 5755              	.L362:
 5756              		.loc 21 563 0 discriminator 6
 5757 101e 002B     		cmp	r3, #0
 5758 1020 75D0     		beq	.L359
 5759              	.LBB130:
 5760              	.LBB131:
 5761              		.loc 21 565 0 is_stmt 1
 5762 1022 02AB     		add	r3, sp, #8
 5763 1024 1846     		mov	r0, r3
 5764 1026 FFF7FEFF 		bl	_ZN3r2p7SysLock5ScopeC1Ev
 5765              		.loc 21 566 0
 5766 102a 019B     		ldr	r3, [sp, #4]
 5767 102c 8433     		adds	r3, r3, #132
 5768 102e 1846     		mov	r0, r3
 5769 1030 FFF7FEFF 		bl	_ZNK3r2p13BasePublisher9get_topicEv
 5770 1034 0346     		mov	r3, r0
 5771 1036 002B     		cmp	r3, #0
 5772 1038 0CBF     		ite	eq
 5773 103a 0123     		moveq	r3, #1
 5774 103c 0023     		movne	r3, #0
 5775 103e DBB2     		uxtb	r3, r3
 5776 1040 002B     		cmp	r3, #0
 5777 1042 01D0     		beq	.L364
 5778 1044 0024     		movs	r4, #0
 5779 1046 00E0     		b	.L365
 5780              	.L364:
 5781 1048 0124     		movs	r4, #1
 5782              	.L365:
 5783 104a 02AB     		add	r3, sp, #8
 5784 104c 1846     		mov	r0, r3
 5785 104e FFF7FEFF 		bl	_ZN3r2p7SysLock5ScopeD1Ev
 5786 1052 012C     		cmp	r4, #1
 5787 1054 00D0     		beq	.L371
 5788              	.LBE131:
 5789 1056 5AE0     		b	.L359
 5790              	.L371:
 5791              	.LBB132:
 5792 1058 00BF     		nop
 5793              	.LBE132:
 5794              		.loc 21 569 0
 5795 105a 019B     		ldr	r3, [sp, #4]
 5796 105c 03F18402 		add	r2, r3, #132
 5797 1060 03AB     		add	r3, sp, #12
 5798 1062 1046     		mov	r0, r2
 5799 1064 1946     		mov	r1, r3
 5800 1066 FFF7FEFF 		bl	_ZN3r2p9PublisherINS_7MgmtMsgEE5allocERPS1_
 5801 106a 0346     		mov	r3, r0
 5802 106c 002B     		cmp	r3, #0
 5803 106e 00D1     		bne	.L368
 5804              	.LBE130:
 5805 1070 4DE0     		b	.L359
 5806              	.L368:
 5807              	.LBB133:
ARM GAS  /tmp/ccIvsbEf.s 			page 103


 5808              		.loc 21 570 0
 5809 1072 039B     		ldr	r3, [sp, #12]
 5810 1074 1846     		mov	r0, r3
 5811 1076 FFF7FEFF 		bl	_ZN3r2p7Message13reset_payloadINS_7MgmtMsgEEEvRT_
 5812              		.loc 21 571 0
 5813 107a 039B     		ldr	r3, [sp, #12]
 5814 107c 2322     		movs	r2, #35
 5815 107e 83F82120 		strb	r2, [r3, #33]
 5816              		.loc 21 573 0
 5817 1082 039B     		ldr	r3, [sp, #12]
 5818 1084 9C1C     		adds	r4, r3, #2
 5819 1086 0598     		ldr	r0, [sp, #20]
 5820 1088 FFF7FEFF 		bl	_ZNK3r2p5Topic8get_nameEv
 5821 108c 0346     		mov	r3, r0
 5822 108e 2046     		mov	r0, r4
 5823 1090 1946     		mov	r1, r3
 5824 1092 1022     		movs	r2, #16
 5825 1094 FFF7FEFF 		bl	strncpy
 5826              		.loc 21 575 0
 5827 1098 039C     		ldr	r4, [sp, #12]
 5828 109a 0598     		ldr	r0, [sp, #20]
 5829 109c FFF7FEFF 		bl	_ZNK3r2p5Topic16get_payload_sizeEv
 5830 10a0 0346     		mov	r3, r0
 5831 10a2 9BB2     		uxth	r3, r3
 5832 10a4 6382     		strh	r3, [r4, #18]	@ unaligned
 5833              		.loc 21 576 0
 5834 10a6 FFF7FEFF 		bl	_ZN3r2p7SysLock7acquireEv
 5835              		.loc 21 578 0
 5836 10aa 039C     		ldr	r4, [sp, #12]
 5837 10ac 0598     		ldr	r0, [sp, #20]
 5838 10ae FFF7FEFF 		bl	_ZNK3r2p5Topic20get_max_queue_lengthEv
 5839 10b2 0346     		mov	r3, r0
 5840 10b4 9BB2     		uxth	r3, r3
 5841 10b6 A382     		strh	r3, [r4, #20]	@ unaligned
 5842              		.loc 21 579 0
 5843 10b8 FFF7FEFF 		bl	_ZN3r2p7SysLock7releaseEv
 5844              		.loc 21 580 0
 5845 10bc 039B     		ldr	r3, [sp, #12]
 5846 10be 1846     		mov	r0, r3
 5847 10c0 FFF7FEFF 		bl	_ZN3r2p7Message7acquireEv
 5848              		.loc 21 587 0
 5849 10c4 019B     		ldr	r3, [sp, #4]
 5850 10c6 0C33     		adds	r3, r3, #12
 5851 10c8 04AA     		add	r2, sp, #16
 5852 10ca 1046     		mov	r0, r2
 5853 10cc 1946     		mov	r1, r3
 5854 10ce FFF7FEFF 		bl	_ZN3r2p10StaticListINS_9TransportEE5beginEv
 5855 10d2 04AB     		add	r3, sp, #16
 5856 10d4 1846     		mov	r0, r3
 5857 10d6 FFF7FEFF 		bl	_ZNK3r2p10StaticListINS_9TransportEE8IteratorptEv
 5858 10da 0146     		mov	r1, r0
 5859 10dc 009B     		ldr	r3, [sp]
 5860 10de 9B8A     		ldrh	r3, [r3, #20]	@ unaligned
 5861 10e0 9BB2     		uxth	r3, r3
 5862 10e2 1A46     		mov	r2, r3
 5863 10e4 039B     		ldr	r3, [sp, #12]
 5864 10e6 1633     		adds	r3, r3, #22
ARM GAS  /tmp/ccIvsbEf.s 			page 104


 5865 10e8 0846     		mov	r0, r1
 5866 10ea 0599     		ldr	r1, [sp, #20]
 5867 10ec FFF7FEFF 		bl	_ZN3r2p9Transport12subscribe_cbERNS_5TopicEjPh
 5868              		.loc 21 588 0
 5869 10f0 019B     		ldr	r3, [sp, #4]
 5870 10f2 8433     		adds	r3, r3, #132
 5871 10f4 039A     		ldr	r2, [sp, #12]
 5872 10f6 1846     		mov	r0, r3
 5873 10f8 1146     		mov	r1, r2
 5874 10fa FFF7FEFF 		bl	_ZN3r2p13BasePublisher16publish_remotelyERNS_7MessageE
 5875              		.loc 21 590 0
 5876 10fe 019B     		ldr	r3, [sp, #4]
 5877 1100 03F19402 		add	r2, r3, #148
 5878 1104 039B     		ldr	r3, [sp, #12]
 5879 1106 1046     		mov	r0, r2
 5880 1108 1946     		mov	r1, r3
