ARM GAS  /tmp/ccvJbbqm.s 			page 1


   1              		.syntax unified
   2              		.cpu cortex-m4
   3              		.fpu softvfp
   4              		.eabi_attribute 20, 1
   5              		.eabi_attribute 21, 1
   6              		.eabi_attribute 23, 3
   7              		.eabi_attribute 24, 1
   8              		.eabi_attribute 25, 1
   9              		.eabi_attribute 26, 1
  10              		.eabi_attribute 30, 6
  11              		.eabi_attribute 34, 1
  12              		.eabi_attribute 18, 4
  13              		.thumb
  14              		.file	"msgqueue.c"
  15              		.text
  16              	.Ltext0:
  17              		.cfi_sections	.debug_frame
  18              		.align	2
  19              		.global	msgqueue_init
  20              		.thumb
  21              		.thumb_func
  22              		.type	msgqueue_init, %function
  23              	msgqueue_init:
  24              	.LFB118:
  25              		.file 1 "/opt/R2P/core/RTCAN/src/msgqueue.c"
  26              		.loc 1 11 0
  27              		.cfi_startproc
  28              		@ args = 0, pretend = 0, frame = 8
  29              		@ frame_needed = 0, uses_anonymous_args = 0
  30              		@ link register save eliminated.
  31 0000 82B0     		sub	sp, sp, #8
  32              		.cfi_def_cfa_offset 8
  33 0002 0190     		str	r0, [sp, #4]
  34              		.loc 1 12 0
  35 0004 019B     		ldr	r3, [sp, #4]
  36 0006 019A     		ldr	r2, [sp, #4]
  37 0008 1A60     		str	r2, [r3]
  38              		.loc 1 13 0
  39 000a 02B0     		add	sp, sp, #8
  40              		.cfi_def_cfa_offset 0
  41              		@ sp needed
  42 000c 7047     		bx	lr
  43              		.cfi_endproc
  44              	.LFE118:
  45              		.size	msgqueue_init, .-msgqueue_init
  46              		.section	.rodata
  47              		.align	2
  48              	.LC0:
  49 0000 226D7367 		.ascii	"\"msgqueue_insert\"()\000"
  49      71756575 
  49      655F696E 
  49      73657274 
  49      22282900 
  50              		.text
  51 000e 00BF     		.align	2
  52              		.global	msgqueue_insert
  53              		.thumb
ARM GAS  /tmp/ccvJbbqm.s 			page 2


  54              		.thumb_func
  55              		.type	msgqueue_insert, %function
  56              	msgqueue_insert:
  57              	.LFB119:
  58              		.loc 1 16 0
  59              		.cfi_startproc
  60              		@ args = 0, pretend = 0, frame = 16
  61              		@ frame_needed = 0, uses_anonymous_args = 0
  62 0010 00B5     		push	{lr}
  63              		.cfi_def_cfa_offset 4
  64              		.cfi_offset 14, -4
  65 0012 85B0     		sub	sp, sp, #20
  66              		.cfi_def_cfa_offset 24
  67 0014 0190     		str	r0, [sp, #4]
  68 0016 0091     		str	r1, [sp]
  69              		.loc 1 17 0
  70 0018 019B     		ldr	r3, [sp, #4]
  71 001a 0393     		str	r3, [sp, #12]
  72              		.loc 1 19 0
  73 001c 019B     		ldr	r3, [sp, #4]
  74 001e 002B     		cmp	r3, #0
  75 0020 02D0     		beq	.L3
  76              		.loc 1 19 0 is_stmt 0 discriminator 2
  77 0022 009B     		ldr	r3, [sp]
  78 0024 002B     		cmp	r3, #0
  79 0026 02D1     		bne	.L4
  80              	.L3:
  81              		.loc 1 19 0 discriminator 3
  82 0028 0F48     		ldr	r0, .L9
  83 002a FFF7FEFF 		bl	chDbgPanic
  84              	.L4:
  85              		.loc 1 22 0 is_stmt 1
  86 002e 0BE0     		b	.L5
  87              	.L8:
  88              		.loc 1 23 0
  89 0030 039B     		ldr	r3, [sp, #12]
  90 0032 D3F80D20 		ldr	r2, [r3, #13]	@ unaligned
  91 0036 009B     		ldr	r3, [sp]
  92 0038 D3F80D30 		ldr	r3, [r3, #13]	@ unaligned
  93 003c 9A42     		cmp	r2, r3
  94 003e 00D9     		bls	.L6
  95              		.loc 1 24 0
  96 0040 07E0     		b	.L7
  97              	.L6:
  98              		.loc 1 26 0
  99 0042 039B     		ldr	r3, [sp, #12]
 100 0044 1B68     		ldr	r3, [r3]	@ unaligned
 101 0046 0393     		str	r3, [sp, #12]
 102              	.L5:
 103              		.loc 1 22 0
 104 0048 039B     		ldr	r3, [sp, #12]
 105 004a 1A68     		ldr	r2, [r3]	@ unaligned
 106 004c 019B     		ldr	r3, [sp, #4]
 107 004e 9A42     		cmp	r2, r3
 108 0050 EED1     		bne	.L8
 109              	.L7:
 110              		.loc 1 29 0
ARM GAS  /tmp/ccvJbbqm.s 			page 3


 111 0052 039B     		ldr	r3, [sp, #12]
 112 0054 1A68     		ldr	r2, [r3]	@ unaligned
 113 0056 009B     		ldr	r3, [sp]
 114 0058 1A60     		str	r2, [r3]	@ unaligned
 115              		.loc 1 30 0
 116 005a 039B     		ldr	r3, [sp, #12]
 117 005c 009A     		ldr	r2, [sp]
 118 005e 1A60     		str	r2, [r3]	@ unaligned
 119              		.loc 1 31 0
 120 0060 05B0     		add	sp, sp, #20
 121              		.cfi_def_cfa_offset 4
 122              		@ sp needed
 123 0062 5DF804FB 		ldr	pc, [sp], #4
 124              	.L10:
 125 0066 00BF     		.align	2
 126              	.L9:
 127 0068 00000000 		.word	.LC0
 128              		.cfi_endproc
 129              	.LFE119:
 130              		.size	msgqueue_insert, .-msgqueue_insert
 131              		.section	.rodata
 132              		.align	2
 133              	.LC1:
 134 0014 226D7367 		.ascii	"\"msgqueue_remove\"()\000"
 134      71756575 
 134      655F7265 
 134      6D6F7665 
 134      22282900 
 135              		.align	2
 136              	.LC2:
 137 0028 6D736771 		.ascii	"msgqueue_remove(), #1\000"
 137      75657565 
 137      5F72656D 
 137      6F766528 
 137      292C2023 
 138              		.text
 139              		.align	2
 140              		.global	msgqueue_remove
 141              		.thumb
 142              		.thumb_func
 143              		.type	msgqueue_remove, %function
 144              	msgqueue_remove:
 145              	.LFB120:
 146              		.loc 1 34 0
 147              		.cfi_startproc
 148              		@ args = 0, pretend = 0, frame = 16
 149              		@ frame_needed = 0, uses_anonymous_args = 0
 150 006c 00B5     		push	{lr}
 151              		.cfi_def_cfa_offset 4
 152              		.cfi_offset 14, -4
 153 006e 85B0     		sub	sp, sp, #20
 154              		.cfi_def_cfa_offset 24
 155 0070 0190     		str	r0, [sp, #4]
 156 0072 0091     		str	r1, [sp]
 157              		.loc 1 37 0
 158 0074 019B     		ldr	r3, [sp, #4]
 159 0076 002B     		cmp	r3, #0
ARM GAS  /tmp/ccvJbbqm.s 			page 4


 160 0078 02D0     		beq	.L12
 161              		.loc 1 37 0 is_stmt 0 discriminator 2
 162 007a 009B     		ldr	r3, [sp]
 163 007c 002B     		cmp	r3, #0
 164 007e 02D1     		bne	.L13
 165              	.L12:
 166              		.loc 1 37 0 discriminator 3
 167 0080 0E48     		ldr	r0, .L17
 168 0082 FFF7FEFF 		bl	chDbgPanic
 169              	.L13:
 170              		.loc 1 38 0 is_stmt 1
 171 0086 019B     		ldr	r3, [sp, #4]
 172 0088 1A68     		ldr	r2, [r3]
 173 008a 019B     		ldr	r3, [sp, #4]
 174 008c 9A42     		cmp	r2, r3
 175 008e 02D1     		bne	.L14
 176              		.loc 1 38 0 is_stmt 0 discriminator 1
 177 0090 0B48     		ldr	r0, .L17+4
 178 0092 FFF7FEFF 		bl	chDbgPanic
 179              	.L14:
 180              		.loc 1 41 0 is_stmt 1
 181 0096 019B     		ldr	r3, [sp, #4]
 182 0098 0393     		str	r3, [sp, #12]
 183              		.loc 1 43 0
 184 009a 02E0     		b	.L15
 185              	.L16:
 186              		.loc 1 44 0
 187 009c 039B     		ldr	r3, [sp, #12]
 188 009e 1B68     		ldr	r3, [r3]	@ unaligned
 189 00a0 0393     		str	r3, [sp, #12]
 190              	.L15:
 191              		.loc 1 43 0
 192 00a2 039B     		ldr	r3, [sp, #12]
 193 00a4 1A68     		ldr	r2, [r3]	@ unaligned
 194 00a6 009B     		ldr	r3, [sp]
 195 00a8 9A42     		cmp	r2, r3
 196 00aa F7D1     		bne	.L16
 197              		.loc 1 47 0
 198 00ac 009B     		ldr	r3, [sp]
 199 00ae 1A68     		ldr	r2, [r3]	@ unaligned
 200 00b0 039B     		ldr	r3, [sp, #12]
 201 00b2 1A60     		str	r2, [r3]	@ unaligned
 202              		.loc 1 48 0
 203 00b4 05B0     		add	sp, sp, #20
 204              		.cfi_def_cfa_offset 4
 205              		@ sp needed
 206 00b6 5DF804FB 		ldr	pc, [sp], #4
 207              	.L18:
 208 00ba 00BF     		.align	2
 209              	.L17:
 210 00bc 14000000 		.word	.LC1
 211 00c0 28000000 		.word	.LC2
 212              		.cfi_endproc
 213              	.LFE120:
 214              		.size	msgqueue_remove, .-msgqueue_remove
 215              		.section	.rodata
 216 003e 0000     		.align	2
ARM GAS  /tmp/ccvJbbqm.s 			page 5


 217              	.LC3:
 218 0040 226D7367 		.ascii	"\"msgqueue_get\"()\000"
 218      71756575 
 218      655F6765 
 218      74222829 
 218      00
 219 0051 000000   		.align	2
 220              	.LC4:
 221 0054 6D736771 		.ascii	"msgqueue_get(), #1\000"
 221      75657565 
 221      5F676574 
 221      28292C20 
 221      233100
 222 0067 00       		.text
 223              		.align	2
 224              		.global	msgqueue_get
 225              		.thumb
 226              		.thumb_func
 227              		.type	msgqueue_get, %function
 228              	msgqueue_get:
 229              	.LFB121:
 230              		.loc 1 50 0
 231              		.cfi_startproc
 232              		@ args = 0, pretend = 0, frame = 16
 233              		@ frame_needed = 0, uses_anonymous_args = 0
 234 00c4 00B5     		push	{lr}
 235              		.cfi_def_cfa_offset 4
 236              		.cfi_offset 14, -4
 237 00c6 85B0     		sub	sp, sp, #20
 238              		.cfi_def_cfa_offset 24
 239 00c8 0190     		str	r0, [sp, #4]
 240              		.loc 1 53 0
 241 00ca 019B     		ldr	r3, [sp, #4]
 242 00cc 002B     		cmp	r3, #0
 243 00ce 02D1     		bne	.L20
 244              		.loc 1 53 0 is_stmt 0 discriminator 1
 245 00d0 0B48     		ldr	r0, .L23
 246 00d2 FFF7FEFF 		bl	chDbgPanic
 247              	.L20:
 248              		.loc 1 54 0 is_stmt 1
 249 00d6 019B     		ldr	r3, [sp, #4]
 250 00d8 1A68     		ldr	r2, [r3]
 251 00da 019B     		ldr	r3, [sp, #4]
 252 00dc 9A42     		cmp	r2, r3
 253 00de 02D1     		bne	.L21
 254              		.loc 1 54 0 is_stmt 0 discriminator 1
 255 00e0 0848     		ldr	r0, .L23+4
 256 00e2 FFF7FEFF 		bl	chDbgPanic
 257              	.L21:
 258              		.loc 1 57 0 is_stmt 1
 259 00e6 019B     		ldr	r3, [sp, #4]
 260 00e8 1B68     		ldr	r3, [r3]
 261 00ea 0393     		str	r3, [sp, #12]
 262              		.loc 1 58 0
 263 00ec 039B     		ldr	r3, [sp, #12]
 264 00ee 1A68     		ldr	r2, [r3]	@ unaligned
 265 00f0 019B     		ldr	r3, [sp, #4]
ARM GAS  /tmp/ccvJbbqm.s 			page 6


 266 00f2 1A60     		str	r2, [r3]
 267              		.loc 1 60 0
 268 00f4 039B     		ldr	r3, [sp, #12]
 269              		.loc 1 61 0
 270 00f6 1846     		mov	r0, r3
 271 00f8 05B0     		add	sp, sp, #20
 272              		.cfi_def_cfa_offset 4
 273              		@ sp needed
 274 00fa 5DF804FB 		ldr	pc, [sp], #4
 275              	.L24:
 276 00fe 00BF     		.align	2
 277              	.L23:
 278 0100 40000000 		.word	.LC3
 279 0104 54000000 		.word	.LC4
 280              		.cfi_endproc
 281              	.LFE121:
 282              		.size	msgqueue_get, .-msgqueue_get
 283              	.Letext0:
 284              		.file 2 "/opt/R2P/tools/gcc-arm-none-eabi-4_9-2014q4/arm-none-eabi/include/machine/_default_types.
 285              		.file 3 "/opt/R2P/tools/gcc-arm-none-eabi-4_9-2014q4/arm-none-eabi/include/stdint.h"
 286              		.file 4 "/opt/R2P/core/RTCAN/include/rtcan.h"
 287              		.file 5 "/opt/R2P/core/RTCAN/include/msgqueue.h"
 288              		.file 6 "/opt/R2P/core/ChibiOS_2.6.5/os/ports/common/ARMCMx/CMSIS/include/core_cm4.h"