ARM GAS  /tmp/ccQlSxZA.s 			page 1


   1              		.syntax unified
   2              		.cpu cortex-m4
   3              		.fpu softvfp
   4              		.eabi_attribute 20, 1
   5              		.eabi_attribute 21, 1
   6              		.eabi_attribute 23, 3
   7              		.eabi_attribute 24, 1
   8              		.eabi_attribute 25, 1
   9              		.eabi_attribute 26, 1
  10              		.eabi_attribute 30, 6
  11              		.eabi_attribute 34, 1
  12              		.eabi_attribute 18, 4
  13              		.thumb
  14              		.file	"Node.cpp"
  15              		.text
  16              	.Ltext0:
  17              		.cfi_sections	.debug_frame
  18              		.section	.text._ZN3r2p10UncopyableC2Ev,"axG",%progbits,_ZN3r2p10UncopyableC5Ev,comdat
  19              		.align	2
  20              		.weak	_ZN3r2p10UncopyableC2Ev
  21              		.thumb
  22              		.thumb_func
  23              		.type	_ZN3r2p10UncopyableC2Ev, %function
  24              	_ZN3r2p10UncopyableC2Ev:
  25              	.LFB6:
  26              		.file 1 "/opt/R2P/core/Middleware/include/r2p/Uncopyable.hpp"
  27              		.loc 1 20 0
  28              		.cfi_startproc
  29              		@ args = 0, pretend = 0, frame = 8
  30              		@ frame_needed = 0, uses_anonymous_args = 0
  31              		@ link register save eliminated.
  32 0000 82B0     		sub	sp, sp, #8
  33              		.cfi_def_cfa_offset 8
  34 0002 0190     		str	r0, [sp, #4]
  35              		.loc 1 20 0
  36 0004 019B     		ldr	r3, [sp, #4]
  37 0006 1846     		mov	r0, r3
  38 0008 02B0     		add	sp, sp, #8
  39              		.cfi_def_cfa_offset 0
  40              		@ sp needed
  41 000a 7047     		bx	lr
  42              		.cfi_endproc
  43              	.LFE6:
  44              		.size	_ZN3r2p10UncopyableC2Ev, .-_ZN3r2p10UncopyableC2Ev
  45              		.weak	_ZN3r2p10UncopyableC1Ev
  46              		.thumb_set _ZN3r2p10UncopyableC1Ev,_ZN3r2p10UncopyableC2Ev
  47              		.section	.text._ZN3r2p10UncopyableD2Ev,"axG",%progbits,_ZN3r2p10UncopyableD5Ev,comdat
  48              		.align	2
  49              		.weak	_ZN3r2p10UncopyableD2Ev
  50              		.thumb
  51              		.thumb_func
  52              		.type	_ZN3r2p10UncopyableD2Ev, %function
  53              	_ZN3r2p10UncopyableD2Ev:
  54              	.LFB9:
  55              		.loc 1 21 0
  56              		.cfi_startproc
  57              		@ args = 0, pretend = 0, frame = 8
ARM GAS  /tmp/ccQlSxZA.s 			page 2


  58              		@ frame_needed = 0, uses_anonymous_args = 0
  59              		@ link register save eliminated.
  60 0000 82B0     		sub	sp, sp, #8
  61              		.cfi_def_cfa_offset 8
  62 0002 0190     		str	r0, [sp, #4]
  63              		.loc 1 21 0
  64 0004 019B     		ldr	r3, [sp, #4]
  65 0006 1846     		mov	r0, r3
  66 0008 02B0     		add	sp, sp, #8
  67              		.cfi_def_cfa_offset 0
  68              		@ sp needed
  69 000a 7047     		bx	lr
  70              		.cfi_endproc
  71              	.LFE9:
  72              		.size	_ZN3r2p10UncopyableD2Ev, .-_ZN3r2p10UncopyableD2Ev
  73              		.weak	_ZN3r2p10UncopyableD1Ev
  74              		.thumb_set _ZN3r2p10UncopyableD1Ev,_ZN3r2p10UncopyableD2Ev
  75              		.section	.text._ZN3r2p8SysLock_7acquireEv,"axG",%progbits,_ZN3r2p8SysLock_7acquireEv,comdat
  76              		.align	2
  77              		.weak	_ZN3r2p8SysLock_7acquireEv
  78              		.thumb
  79              		.thumb_func
  80              		.type	_ZN3r2p8SysLock_7acquireEv, %function
  81              	_ZN3r2p8SysLock_7acquireEv:
  82              	.LFB18:
  83              		.file 2 "/opt/R2P/core/Middleware/port/chibios/include/r2p/impl/SysLock_.hpp"
  84              		.loc 2 20 0
  85              		.cfi_startproc
  86              		@ args = 0, pretend = 0, frame = 0
  87              		@ frame_needed = 0, uses_anonymous_args = 0
  88 0000 08B5     		push	{r3, lr}
  89              		.cfi_def_cfa_offset 8
  90              		.cfi_offset 3, -8
  91              		.cfi_offset 14, -4
  92              	.LBB2:
  93              	.LBB3:
  94              	.LBB4:
  95              		.loc 2 22 0
  96 0002 2023     		movs	r3, #32
  97              	@ 22 "/opt/R2P/core/Middleware/port/chibios/include/r2p/impl/SysLock_.hpp" 1
  98 0004 83F31188 		msr     BASEPRI, r3
  99              	@ 0 "" 2
 100              		.thumb
 101              	.LBE4:
 102 0008 FFF7FEFF 		bl	dbg_check_lock
 103              	.LBE3:
 104              	.LBE2:
 105              		.loc 2 23 0
 106 000c 08BD     		pop	{r3, pc}
 107              		.cfi_endproc
 108              	.LFE18:
 109              		.size	_ZN3r2p8SysLock_7acquireEv, .-_ZN3r2p8SysLock_7acquireEv
 110 000e 00BF     		.section	.text._ZN3r2p8SysLock_7releaseEv,"axG",%progbits,_ZN3r2p8SysLock_7releaseEv,comdat
 111              		.align	2
 112              		.weak	_ZN3r2p8SysLock_7releaseEv
 113              		.thumb
 114              		.thumb_func
ARM GAS  /tmp/ccQlSxZA.s 			page 3


 115              		.type	_ZN3r2p8SysLock_7releaseEv, %function
 116              	_ZN3r2p8SysLock_7releaseEv:
 117              	.LFB19:
 118              		.loc 2 27 0
 119              		.cfi_startproc
 120              		@ args = 0, pretend = 0, frame = 0
 121              		@ frame_needed = 0, uses_anonymous_args = 0
 122 0000 08B5     		push	{r3, lr}
 123              		.cfi_def_cfa_offset 8
 124              		.cfi_offset 3, -8
 125              		.cfi_offset 14, -4
 126              	.LBB5:
 127              	.LBB6:
 128              		.loc 2 29 0
 129 0002 FFF7FEFF 		bl	dbg_check_unlock
 130              	.LBB7:
 131 0006 0023     		movs	r3, #0
 132              	@ 29 "/opt/R2P/core/Middleware/port/chibios/include/r2p/impl/SysLock_.hpp" 1
 133 0008 83F31188 		msr     BASEPRI, r3
 134              	@ 0 "" 2
 135              		.thumb
 136              	.LBE7:
 137              	.LBE6:
 138              	.LBE5:
 139              		.loc 2 30 0
 140 000c 08BD     		pop	{r3, pc}
 141              		.cfi_endproc
 142              	.LFE19:
 143              		.size	_ZN3r2p8SysLock_7releaseEv, .-_ZN3r2p8SysLock_7releaseEv
 144 000e 00BF     		.section	.text._ZN3r2p7SysLock7acquireEv,"axG",%progbits,_ZN3r2p7SysLock7acquireEv,comdat
 145              		.align	2
 146              		.weak	_ZN3r2p7SysLock7acquireEv
 147              		.thumb
 148              		.thumb_func
 149              		.type	_ZN3r2p7SysLock7acquireEv, %function
 150              	_ZN3r2p7SysLock7acquireEv:
 151              	.LFB26:
 152              		.file 3 "/opt/R2P/core/Middleware/include/r2p/SysLock.hpp"
 153              		.loc 3 27 0
 154              		.cfi_startproc
 155              		@ args = 0, pretend = 0, frame = 0
 156              		@ frame_needed = 0, uses_anonymous_args = 0
 157 0000 08B5     		push	{r3, lr}
 158              		.cfi_def_cfa_offset 8
 159              		.cfi_offset 3, -8
 160              		.cfi_offset 14, -4
 161              		.loc 3 29 0
 162 0002 FFF7FEFF 		bl	_ZN3r2p8SysLock_7acquireEv
 163              		.loc 3 30 0
 164 0006 08BD     		pop	{r3, pc}
 165              		.cfi_endproc
 166              	.LFE26:
 167              		.size	_ZN3r2p7SysLock7acquireEv, .-_ZN3r2p7SysLock7acquireEv
 168              		.section	.text._ZN3r2p7SysLock7releaseEv,"axG",%progbits,_ZN3r2p7SysLock7releaseEv,comdat
 169              		.align	2
 170              		.weak	_ZN3r2p7SysLock7releaseEv
 171              		.thumb
ARM GAS  /tmp/ccQlSxZA.s 			page 4


 172              		.thumb_func
 173              		.type	_ZN3r2p7SysLock7releaseEv, %function
 174              	_ZN3r2p7SysLock7releaseEv:
 175              	.LFB27:
 176              		.loc 3 34 0
 177              		.cfi_startproc
 178              		@ args = 0, pretend = 0, frame = 0
 179              		@ frame_needed = 0, uses_anonymous_args = 0
 180 0000 08B5     		push	{r3, lr}
 181              		.cfi_def_cfa_offset 8
 182              		.cfi_offset 3, -8
 183              		.cfi_offset 14, -4
 184              		.loc 3 36 0
 185 0002 FFF7FEFF 		bl	_ZN3r2p8SysLock_7releaseEv
 186              		.loc 3 37 0
 187 0006 08BD     		pop	{r3, pc}
 188              		.cfi_endproc
 189              	.LFE27:
 190              		.size	_ZN3r2p7SysLock7releaseEv, .-_ZN3r2p7SysLock7releaseEv
 191              		.section	.text._ZNK3r2p4Time9to_us_rawEv,"axG",%progbits,_ZNK3r2p4Time9to_us_rawEv,comdat
 192              		.align	2
 193              		.weak	_ZNK3r2p4Time9to_us_rawEv
 194              		.thumb
 195              		.thumb_func
 196              		.type	_ZNK3r2p4Time9to_us_rawEv, %function
 197              	_ZNK3r2p4Time9to_us_rawEv:
 198              	.LFB123:
 199              		.file 4 "/opt/R2P/core/Middleware/include/r2p/Time.hpp"
 200              		.loc 4 75 0
 201              		.cfi_startproc
 202              		@ args = 0, pretend = 0, frame = 8
 203              		@ frame_needed = 0, uses_anonymous_args = 0
 204              		@ link register save eliminated.
 205 0000 82B0     		sub	sp, sp, #8
 206              		.cfi_def_cfa_offset 8
 207 0002 0190     		str	r0, [sp, #4]
 208              		.loc 4 77 0
 209 0004 019B     		ldr	r3, [sp, #4]
 210 0006 1B68     		ldr	r3, [r3]
 211              		.loc 4 78 0
 212 0008 1846     		mov	r0, r3
 213 000a 02B0     		add	sp, sp, #8
 214              		.cfi_def_cfa_offset 0
 215              		@ sp needed
 216 000c 7047     		bx	lr
 217              		.cfi_endproc
 218              	.LFE123:
 219              		.size	_ZNK3r2p4Time9to_us_rawEv, .-_ZNK3r2p4Time9to_us_rawEv
 220 000e 00BF     		.section	.text._ZNK3r2p4Time9to_ms_rawEv,"axG",%progbits,_ZNK3r2p4Time9to_ms_rawEv,comdat
 221              		.align	2
 222              		.weak	_ZNK3r2p4Time9to_ms_rawEv
 223              		.thumb
 224              		.thumb_func
 225              		.type	_ZNK3r2p4Time9to_ms_rawEv, %function
 226              	_ZNK3r2p4Time9to_ms_rawEv:
 227              	.LFB124:
 228              		.loc 4 82 0
ARM GAS  /tmp/ccQlSxZA.s 			page 5


 229              		.cfi_startproc
 230              		@ args = 0, pretend = 0, frame = 8
 231              		@ frame_needed = 0, uses_anonymous_args = 0
 232              		@ link register save eliminated.
 233 0000 82B0     		sub	sp, sp, #8
 234              		.cfi_def_cfa_offset 8
 235 0002 0190     		str	r0, [sp, #4]
 236              		.loc 4 84 0
 237 0004 019B     		ldr	r3, [sp, #4]
 238 0006 1B68     		ldr	r3, [r3]
 239 0008 044A     		ldr	r2, .L15
 240 000a 82FB0312 		smull	r1, r2, r2, r3
 241 000e 9211     		asrs	r2, r2, #6
 242 0010 DB17     		asrs	r3, r3, #31
 243 0012 D31A     		subs	r3, r2, r3
 244              		.loc 4 85 0
 245 0014 1846     		mov	r0, r3
 246 0016 02B0     		add	sp, sp, #8
 247              		.cfi_def_cfa_offset 0
 248              		@ sp needed
 249 0018 7047     		bx	lr
 250              	.L16:
 251 001a 00BF     		.align	2
 252              	.L15:
 253 001c D34D6210 		.word	274877907
 254              		.cfi_endproc
 255              	.LFE124:
 256              		.size	_ZNK3r2p4Time9to_ms_rawEv, .-_ZNK3r2p4Time9to_ms_rawEv
 257              		.section	.text._ZN3r2p4TimeC2Ev,"axG",%progbits,_ZN3r2p4TimeC5Ev,comdat
 258              		.align	2
 259              		.weak	_ZN3r2p4TimeC2Ev
 260              		.thumb
 261              		.thumb_func
 262              		.type	_ZN3r2p4TimeC2Ev, %function
 263              	_ZN3r2p4TimeC2Ev:
 264              	.LFB135:
 265              		.loc 4 155 0
 266              		.cfi_startproc
 267              		@ args = 0, pretend = 0, frame = 8
 268              		@ frame_needed = 0, uses_anonymous_args = 0
 269              		@ link register save eliminated.
 270 0000 82B0     		sub	sp, sp, #8
 271              		.cfi_def_cfa_offset 8
 272 0002 0190     		str	r0, [sp, #4]
 273              	.LBB8:
 274              		.loc 4 155 0
 275 0004 019B     		ldr	r3, [sp, #4]
 276 0006 0022     		movs	r2, #0
 277 0008 1A60     		str	r2, [r3]
 278              	.LBE8:
 279 000a 019B     		ldr	r3, [sp, #4]
 280 000c 1846     		mov	r0, r3
 281 000e 02B0     		add	sp, sp, #8
 282              		.cfi_def_cfa_offset 0
 283              		@ sp needed
 284 0010 7047     		bx	lr
 285              		.cfi_endproc
ARM GAS  /tmp/ccQlSxZA.s 			page 6


 286              	.LFE135:
 287              		.size	_ZN3r2p4TimeC2Ev, .-_ZN3r2p4TimeC2Ev
 288              		.weak	_ZN3r2p4TimeC1Ev
 289              		.thumb_set _ZN3r2p4TimeC1Ev,_ZN3r2p4TimeC2Ev
 290 0012 00BF     		.section	.text._ZN3r2peqERKNS_4TimeES2_,"axG",%progbits,_ZN3r2peqERKNS_4TimeES2_,comdat
 291              		.align	2
 292              		.weak	_ZN3r2peqERKNS_4TimeES2_
 293              		.thumb
 294              		.thumb_func
 295              		.type	_ZN3r2peqERKNS_4TimeES2_, %function
 296              	_ZN3r2peqERKNS_4TimeES2_:
 297              	.LFB149:
 298              		.loc 4 214 0
 299              		.cfi_startproc
 300              		@ args = 0, pretend = 0, frame = 8
 301              		@ frame_needed = 0, uses_anonymous_args = 0
 302              		@ link register save eliminated.
 303 0000 82B0     		sub	sp, sp, #8
 304              		.cfi_def_cfa_offset 8
 305 0002 0190     		str	r0, [sp, #4]
 306 0004 0091     		str	r1, [sp]
 307              		.loc 4 216 0
 308 0006 019B     		ldr	r3, [sp, #4]
 309 0008 1A68     		ldr	r2, [r3]
 310 000a 009B     		ldr	r3, [sp]
 311 000c 1B68     		ldr	r3, [r3]
 312 000e 9A42     		cmp	r2, r3
 313 0010 0CBF     		ite	eq
 314 0012 0123     		moveq	r3, #1
 315 0014 0023     		movne	r3, #0
 316 0016 DBB2     		uxtb	r3, r3
 317              		.loc 4 217 0
 318 0018 1846     		mov	r0, r3
 319 001a 02B0     		add	sp, sp, #8
 320              		.cfi_def_cfa_offset 0
 321              		@ sp needed
 322 001c 7047     		bx	lr
 323              		.cfi_endproc
 324              	.LFE149:
 325              		.size	_ZN3r2peqERKNS_4TimeES2_, .-_ZN3r2peqERKNS_4TimeES2_
 326 001e 00BF     		.section	.text._ZN3r2p7Thread_4selfEv,"axG",%progbits,_ZN3r2p7Thread_4selfEv,comdat
 327              		.align	2
 328              		.weak	_ZN3r2p7Thread_4selfEv
 329              		.thumb
 330              		.thumb_func
 331              		.type	_ZN3r2p7Thread_4selfEv, %function
 332              	_ZN3r2p7Thread_4selfEv:
 333              	.LFB183:
 334              		.file 5 "/opt/R2P/core/Middleware/port/chibios/include/r2p/impl/Thread_.hpp"
 335              		.loc 5 152 0
 336              		.cfi_startproc
 337              		@ args = 0, pretend = 0, frame = 0
 338              		@ frame_needed = 0, uses_anonymous_args = 0
 339              		@ link register save eliminated.
 340              		.loc 5 154 0
 341 0000 014B     		ldr	r3, .L24
 342 0002 9B69     		ldr	r3, [r3, #24]
ARM GAS  /tmp/ccQlSxZA.s 			page 7


 343              		.loc 5 155 0
 344 0004 1846     		mov	r0, r3
 345 0006 7047     		bx	lr
 346              	.L25:
 347              		.align	2
 348              	.L24:
 349 0008 00000000 		.word	rlist
 350              		.cfi_endproc
 351              	.LFE183:
 352              		.size	_ZN3r2p7Thread_4selfEv, .-_ZN3r2p7Thread_4selfEv
 353              		.section	.text._ZN3r2p6Thread4selfEv,"axG",%progbits,_ZN3r2p6Thread4selfEv,comdat
 354              		.align	2
 355              		.weak	_ZN3r2p6Thread4selfEv
 356              		.thumb
 357              		.thumb_func
 358              		.type	_ZN3r2p6Thread4selfEv, %function
 359              	_ZN3r2p6Thread4selfEv:
 360              	.LFB205:
 361              		.file 6 "/opt/R2P/core/Middleware/include/r2p/Thread.hpp"
 362              		.loc 6 112 0
 363              		.cfi_startproc
 364              		@ args = 0, pretend = 0, frame = 0
 365              		@ frame_needed = 0, uses_anonymous_args = 0
 366 0000 08B5     		push	{r3, lr}
 367              		.cfi_def_cfa_offset 8
 368              		.cfi_offset 3, -8
 369              		.cfi_offset 14, -4
 370              		.loc 6 114 0
 371 0002 FFF7FEFF 		bl	_ZN3r2p7Thread_4selfEv
 372 0006 0346     		mov	r3, r0
 373              		.loc 6 115 0
 374 0008 1846     		mov	r0, r3
 375 000a 08BD     		pop	{r3, pc}
 376              		.cfi_endproc
 377              	.LFE205:
 378              		.size	_ZN3r2p6Thread4selfEv, .-_ZN3r2p6Thread4selfEv
 379              		.section	.text._ZN3r2p10SpinEvent_4waitERKNS_4TimeE,"axG",%progbits,_ZN3r2p10SpinEvent_4waitERKNS_
 380              		.align	2
 381              		.weak	_ZN3r2p10SpinEvent_4waitERKNS_4TimeE
 382              		.thumb
 383              		.thumb_func
 384              		.type	_ZN3r2p10SpinEvent_4waitERKNS_4TimeE, %function
 385              	_ZN3r2p10SpinEvent_4waitERKNS_4TimeE:
 386              	.LFB215:
 387              		.file 7 "/opt/R2P/core/Middleware/port/chibios/include/r2p/impl/SpinEvent_.hpp"
 388              		.loc 7 69 0
 389              		.cfi_startproc
 390              		@ args = 0, pretend = 0, frame = 16
 391              		@ frame_needed = 0, uses_anonymous_args = 0
 392 0000 00B5     		push	{lr}
 393              		.cfi_def_cfa_offset 4
 394              		.cfi_offset 14, -4
 395 0002 85B0     		sub	sp, sp, #20
 396              		.cfi_def_cfa_offset 24
 397 0004 0190     		str	r0, [sp, #4]
 398 0006 0091     		str	r1, [sp]
 399              	.LBB9:
ARM GAS  /tmp/ccQlSxZA.s 			page 8


 400              		.loc 7 72 0
 401 0008 0098     		ldr	r0, [sp]
 402 000a 2549     		ldr	r1, .L34
 403 000c FFF7FEFF 		bl	_ZN3r2peqERKNS_4TimeES2_
 404 0010 0346     		mov	r3, r0
 405 0012 002B     		cmp	r3, #0
 406 0014 02D0     		beq	.L29
 407              		.loc 7 72 0 is_stmt 0 discriminator 1
 408 0016 0023     		movs	r3, #0
 409 0018 0393     		str	r3, [sp, #12]
 410 001a 37E0     		b	.L30
 411              	.L29:
 412              		.loc 7 73 0 is_stmt 1
 413 001c 0098     		ldr	r0, [sp]
 414 001e 2149     		ldr	r1, .L34+4
 415 0020 FFF7FEFF 		bl	_ZN3r2peqERKNS_4TimeES2_
 416 0024 0346     		mov	r3, r0
 417 0026 002B     		cmp	r3, #0
 418 0028 03D0     		beq	.L31
 419              		.loc 7 73 0 is_stmt 0 discriminator 1
 420 002a 4FF0FF33 		mov	r3, #-1
 421 002e 0393     		str	r3, [sp, #12]
 422 0030 2CE0     		b	.L30
 423              	.L31:
 424              		.loc 7 74 0 is_stmt 1
 425 0032 0098     		ldr	r0, [sp]
 426 0034 FFF7FEFF 		bl	_ZNK3r2p4Time9to_us_rawEv
 427 0038 0246     		mov	r2, r0
 428 003a 1B4B     		ldr	r3, .L34+8
 429 003c 9A42     		cmp	r2, r3
 430 003e CCBF     		ite	gt
 431 0040 0123     		movgt	r3, #1
 432 0042 0023     		movle	r3, #0
 433 0044 DBB2     		uxtb	r3, r3
 434 0046 002B     		cmp	r3, #0
 435 0048 10D0     		beq	.L32
 436              		.loc 7 74 0 is_stmt 0 discriminator 1
 437 004a 0098     		ldr	r0, [sp]
 438 004c FFF7FEFF 		bl	_ZNK3r2p4Time9to_ms_rawEv
 439 0050 0346     		mov	r3, r0
 440 0052 1A46     		mov	r2, r3
 441 0054 4FF47A73 		mov	r3, #1000
 442 0058 03FB02F3 		mul	r3, r3, r2
 443 005c 013B     		subs	r3, r3, #1
 444 005e 134A     		ldr	r2, .L34+12
 445 0060 A2FB0323 		umull	r2, r3, r2, r3
 446 0064 9B09     		lsrs	r3, r3, #6
 447 0066 0133     		adds	r3, r3, #1
 448 0068 0393     		str	r3, [sp, #12]
 449 006a 0FE0     		b	.L30
 450              	.L32:
 451              		.loc 7 75 0 is_stmt 1
 452 006c 0098     		ldr	r0, [sp]
 453 006e FFF7FEFF 		bl	_ZNK3r2p4Time9to_us_rawEv
 454 0072 0346     		mov	r3, r0
 455 0074 1A46     		mov	r2, r3
 456 0076 4FF47A73 		mov	r3, #1000
ARM GAS  /tmp/ccQlSxZA.s 			page 9


 457 007a 03FB02F3 		mul	r3, r3, r2
 458 007e 013B     		subs	r3, r3, #1
 459 0080 0B4A     		ldr	r2, .L34+16
 460 0082 A2FB0323 		umull	r2, r3, r2, r3
 461 0086 9B0C     		lsrs	r3, r3, #18
 462 0088 0133     		adds	r3, r3, #1
 463 008a 0393     		str	r3, [sp, #12]
 464              	.L30:
 465              		.loc 7 76 0
 466 008c 4FF0FF30 		mov	r0, #-1
 467 0090 0399     		ldr	r1, [sp, #12]
 468 0092 FFF7FEFF 		bl	chEvtWaitAnyTimeout
 469 0096 0346     		mov	r3, r0
 470              	.LBE9:
 471              		.loc 7 77 0
 472 0098 1846     		mov	r0, r3
 473 009a 05B0     		add	sp, sp, #20
 474              		.cfi_def_cfa_offset 4
 475              		@ sp needed
 476 009c 5DF804FB 		ldr	pc, [sp], #4
 477              	.L35:
 478              		.align	2
 479              	.L34:
 480 00a0 00000000 		.word	_ZN3r2p4Time9IMMEDIATEE
 481 00a4 00000000 		.word	_ZN3r2p4Time8INFINITEE
 482 00a8 A0860100 		.word	100000
 483 00ac D34D6210 		.word	274877907
 484 00b0 83DE1B43 		.word	1125899907
 485              		.cfi_endproc
 486              	.LFE215:
 487              		.size	_ZN3r2p10SpinEvent_4waitERKNS_4TimeE, .-_ZN3r2p10SpinEvent_4waitERKNS_4TimeE
 488              		.section	.text._ZN3r2p10SpinEvent_C2EPNS_6ThreadE,"axG",%progbits,_ZN3r2p10SpinEvent_C5EPNS_6Threa
 489              		.align	2
 490              		.weak	_ZN3r2p10SpinEvent_C2EPNS_6ThreadE
 491              		.thumb
 492              		.thumb_func
 493              		.type	_ZN3r2p10SpinEvent_C2EPNS_6ThreadE, %function
 494              	_ZN3r2p10SpinEvent_C2EPNS_6ThreadE:
 495              	.LFB217:
 496              		.loc 7 81 0
 497              		.cfi_startproc
 498              		@ args = 0, pretend = 0, frame = 8
 499              		@ frame_needed = 0, uses_anonymous_args = 0
 500              		@ link register save eliminated.
 501 0000 82B0     		sub	sp, sp, #8
 502              		.cfi_def_cfa_offset 8
 503 0002 0190     		str	r0, [sp, #4]
 504 0004 0091     		str	r1, [sp]
 505              	.LBB10:
 506              		.loc 7 83 0
 507 0006 019B     		ldr	r3, [sp, #4]
 508 0008 009A     		ldr	r2, [sp]
 509 000a 1A60     		str	r2, [r3]
 510              	.LBE10:
 511              		.loc 7 84 0
 512 000c 019B     		ldr	r3, [sp, #4]
 513 000e 1846     		mov	r0, r3
ARM GAS  /tmp/ccQlSxZA.s 			page 10


 514 0010 02B0     		add	sp, sp, #8
 515              		.cfi_def_cfa_offset 0
 516              		@ sp needed
 517 0012 7047     		bx	lr
 518              		.cfi_endproc
 519              	.LFE217:
 520              		.size	_ZN3r2p10SpinEvent_C2EPNS_6ThreadE, .-_ZN3r2p10SpinEvent_C2EPNS_6ThreadE
 521              		.weak	_ZN3r2p10SpinEvent_C1EPNS_6ThreadE
 522              		.thumb_set _ZN3r2p10SpinEvent_C1EPNS_6ThreadE,_ZN3r2p10SpinEvent_C2EPNS_6ThreadE
 523              		.section	.text._ZN3r2p9SpinEvent4waitERKNS_4TimeE,"axG",%progbits,_ZN3r2p9SpinEvent4waitERKNS_4Tim
 524              		.align	2
 525              		.weak	_ZN3r2p9SpinEvent4waitERKNS_4TimeE
 526              		.thumb
 527              		.thumb_func
 528              		.type	_ZN3r2p9SpinEvent4waitERKNS_4TimeE, %function
 529              	_ZN3r2p9SpinEvent4waitERKNS_4TimeE:
 530              	.LFB223:
 531              		.file 8 "/opt/R2P/core/Middleware/include/r2p/SpinEvent.hpp"
 532              		.loc 8 63 0
 533              		.cfi_startproc
 534              		@ args = 0, pretend = 0, frame = 8
 535              		@ frame_needed = 0, uses_anonymous_args = 0
 536 0000 00B5     		push	{lr}
 537              		.cfi_def_cfa_offset 4
 538              		.cfi_offset 14, -4
 539 0002 83B0     		sub	sp, sp, #12
 540              		.cfi_def_cfa_offset 16
 541 0004 0190     		str	r0, [sp, #4]
 542 0006 0091     		str	r1, [sp]
 543              		.loc 8 65 0
 544 0008 019B     		ldr	r3, [sp, #4]
 545 000a 1846     		mov	r0, r3
 546 000c 0099     		ldr	r1, [sp]
 547 000e FFF7FEFF 		bl	_ZN3r2p10SpinEvent_4waitERKNS_4TimeE
 548 0012 0346     		mov	r3, r0
 549              		.loc 8 66 0
 550 0014 1846     		mov	r0, r3
 551 0016 03B0     		add	sp, sp, #12
 552              		.cfi_def_cfa_offset 4
 553              		@ sp needed
 554 0018 5DF804FB 		ldr	pc, [sp], #4
 555              		.cfi_endproc
 556              	.LFE223:
 557              		.size	_ZN3r2p9SpinEvent4waitERKNS_4TimeE, .-_ZN3r2p9SpinEvent4waitERKNS_4TimeE
 558              		.section	.text._ZN3r2p9SpinEventC2EPNS_6ThreadE,"axG",%progbits,_ZN3r2p9SpinEventC5EPNS_6ThreadE,c
 559              		.align	2
 560              		.weak	_ZN3r2p9SpinEventC2EPNS_6ThreadE
 561              		.thumb
 562              		.thumb_func
 563              		.type	_ZN3r2p9SpinEventC2EPNS_6ThreadE, %function
 564              	_ZN3r2p9SpinEventC2EPNS_6ThreadE:
 565              	.LFB225:
 566              		.loc 8 70 0
 567              		.cfi_startproc
 568              		@ args = 0, pretend = 0, frame = 8
 569              		@ frame_needed = 0, uses_anonymous_args = 0
 570 0000 00B5     		push	{lr}
ARM GAS  /tmp/ccQlSxZA.s 			page 11


 571              		.cfi_def_cfa_offset 4
 572              		.cfi_offset 14, -4
 573 0002 83B0     		sub	sp, sp, #12
 574              		.cfi_def_cfa_offset 16
 575 0004 0190     		str	r0, [sp, #4]
 576 0006 0091     		str	r1, [sp]
 577              	.LBB11:
 578              		.loc 8 72 0
 579 0008 0198     		ldr	r0, [sp, #4]
 580 000a FFF7FEFF 		bl	_ZN3r2p10UncopyableC2Ev
 581 000e 019B     		ldr	r3, [sp, #4]
 582 0010 1846     		mov	r0, r3
 583 0012 0099     		ldr	r1, [sp]
 584 0014 FFF7FEFF 		bl	_ZN3r2p10SpinEvent_C1EPNS_6ThreadE
 585              	.LBE11:
 586              		.loc 8 73 0
 587 0018 019B     		ldr	r3, [sp, #4]
 588 001a 1846     		mov	r0, r3
 589 001c 03B0     		add	sp, sp, #12
 590              		.cfi_def_cfa_offset 4
 591              		@ sp needed
 592 001e 5DF804FB 		ldr	pc, [sp], #4
 593              		.cfi_endproc
 594              	.LFE225:
 595              		.size	_ZN3r2p9SpinEventC2EPNS_6ThreadE, .-_ZN3r2p9SpinEventC2EPNS_6ThreadE
 596              		.weak	_ZN3r2p9SpinEventC1EPNS_6ThreadE
 597              		.thumb_set _ZN3r2p9SpinEventC1EPNS_6ThreadE,_ZN3r2p9SpinEventC2EPNS_6ThreadE
 598 0022 00BF     		.section	.text._ZNK3r2p14BaseSubscriber9get_topicEv,"axG",%progbits,_ZNK3r2p14BaseSubscriber9get_t
 599              		.align	2
 600              		.weak	_ZNK3r2p14BaseSubscriber9get_topicEv
 601              		.thumb
 602              		.thumb_func
 603              		.type	_ZNK3r2p14BaseSubscriber9get_topicEv, %function
 604              	_ZNK3r2p14BaseSubscriber9get_topicEv:
 605              	.LFB249:
 606              		.file 9 "/opt/R2P/core/Middleware/include/r2p/BaseSubscriber.hpp"
 607              		.loc 9 42 0
 608              		.cfi_startproc
 609              		@ args = 0, pretend = 0, frame = 8
 610              		@ frame_needed = 0, uses_anonymous_args = 0
 611              		@ link register save eliminated.
 612 0000 82B0     		sub	sp, sp, #8
 613              		.cfi_def_cfa_offset 8
 614 0002 0190     		str	r0, [sp, #4]
 615              		.loc 9 44 0
 616 0004 019B     		ldr	r3, [sp, #4]
 617 0006 5B68     		ldr	r3, [r3, #4]
 618              		.loc 9 45 0
 619 0008 1846     		mov	r0, r3
 620 000a 02B0     		add	sp, sp, #8
 621              		.cfi_def_cfa_offset 0
 622              		@ sp needed
 623 000c 7047     		bx	lr
 624              		.cfi_endproc
 625              	.LFE249:
 626              		.size	_ZNK3r2p14BaseSubscriber9get_topicEv, .-_ZNK3r2p14BaseSubscriber9get_topicEv
 627 000e 00BF     		.section	.text._ZNK3r2p15LocalSubscriber12get_callbackEv,"axG",%progbits,_ZNK3r2p15LocalSubscriber
ARM GAS  /tmp/ccQlSxZA.s 			page 12


 628              		.align	2
 629              		.weak	_ZNK3r2p15LocalSubscriber12get_callbackEv
 630              		.thumb
 631              		.thumb_func
 632              		.type	_ZNK3r2p15LocalSubscriber12get_callbackEv, %function
 633              	_ZNK3r2p15LocalSubscriber12get_callbackEv:
 634              	.LFB251:
 635              		.file 10 "/opt/R2P/core/Middleware/include/r2p/LocalSubscriber.hpp"
 636              		.loc 10 57 0
 637              		.cfi_startproc
 638              		@ args = 0, pretend = 0, frame = 8
 639              		@ frame_needed = 0, uses_anonymous_args = 0
 640              		@ link register save eliminated.
 641 0000 82B0     		sub	sp, sp, #8
 642              		.cfi_def_cfa_offset 8
 643 0002 0190     		str	r0, [sp, #4]
 644              		.loc 10 59 0
 645 0004 019B     		ldr	r3, [sp, #4]
 646 0006 DB68     		ldr	r3, [r3, #12]
 647              		.loc 10 60 0
 648 0008 1846     		mov	r0, r3
 649 000a 02B0     		add	sp, sp, #8
 650              		.cfi_def_cfa_offset 0
 651              		@ sp needed
 652 000c 7047     		bx	lr
 653              		.cfi_endproc
 654              	.LFE251:
 655              		.size	_ZNK3r2p15LocalSubscriber12get_callbackEv, .-_ZNK3r2p15LocalSubscriber12get_callbackEv
 656 000e 00BF     		.section	.text._ZNK3r2p13BasePublisher9get_topicEv,"axG",%progbits,_ZNK3r2p13BasePublisher9get_top
 657              		.align	2
 658              		.weak	_ZNK3r2p13BasePublisher9get_topicEv
 659              		.thumb
 660              		.thumb_func
 661              		.type	_ZNK3r2p13BasePublisher9get_topicEv, %function
 662              	_ZNK3r2p13BasePublisher9get_topicEv:
 663              	.LFB276:
 664              		.file 11 "/opt/R2P/core/Middleware/include/r2p/BasePublisher.hpp"
 665              		.loc 11 48 0
 666              		.cfi_startproc
 667              		@ args = 0, pretend = 0, frame = 8
 668              		@ frame_needed = 0, uses_anonymous_args = 0
 669              		@ link register save eliminated.
 670 0000 82B0     		sub	sp, sp, #8
 671              		.cfi_def_cfa_offset 8
 672 0002 0190     		str	r0, [sp, #4]
 673              		.loc 11 50 0
 674 0004 019B     		ldr	r3, [sp, #4]
 675 0006 5B68     		ldr	r3, [r3, #4]
 676              		.loc 11 51 0
 677 0008 1846     		mov	r0, r3
 678 000a 02B0     		add	sp, sp, #8
 679              		.cfi_def_cfa_offset 0
 680              		@ sp needed
 681 000c 7047     		bx	lr
 682              		.cfi_endproc
 683              	.LFE276:
 684              		.size	_ZNK3r2p13BasePublisher9get_topicEv, .-_ZNK3r2p13BasePublisher9get_topicEv
ARM GAS  /tmp/ccQlSxZA.s 			page 13


 685 000e 00BF     		.text
 686              		.align	2
 687              		.global	_ZN3r2p4Node9advertiseERNS_14LocalPublisherEPKcRKNS_4TimeEj
 688              		.thumb
 689              		.thumb_func
 690              		.type	_ZN3r2p4Node9advertiseERNS_14LocalPublisherEPKcRKNS_4TimeEj, %function
 691              	_ZN3r2p4Node9advertiseERNS_14LocalPublisherEPKcRKNS_4TimeEj:
 692              	.LFB679:
 693              		.file 12 "/opt/R2P/core/Middleware/src/Node.cpp"
 694              		.loc 12 12 0
 695              		.cfi_startproc
 696              		@ args = 4, pretend = 0, frame = 16
 697              		@ frame_needed = 0, uses_anonymous_args = 0
 698 0000 00B5     		push	{lr}
 699              		.cfi_def_cfa_offset 4
 700              		.cfi_offset 14, -4
 701 0002 87B0     		sub	sp, sp, #28
 702              		.cfi_def_cfa_offset 32
 703 0004 0590     		str	r0, [sp, #20]
 704 0006 0491     		str	r1, [sp, #16]
 705 0008 0392     		str	r2, [sp, #12]
 706 000a 0293     		str	r3, [sp, #8]
 707              		.loc 12 15 0
 708 000c 049B     		ldr	r3, [sp, #16]
 709 000e 1846     		mov	r0, r3
 710 0010 FFF7FEFF 		bl	_ZNK3r2p13BasePublisher9get_topicEv
 711 0014 0346     		mov	r3, r0
 712 0016 002B     		cmp	r3, #0
 713 0018 14BF     		ite	ne
 714 001a 0123     		movne	r3, #1
 715 001c 0023     		moveq	r3, #0
 716 001e DBB2     		uxtb	r3, r3
 717 0020 002B     		cmp	r3, #0
 718 0022 01D0     		beq	.L51
 719              		.loc 12 15 0 is_stmt 0 discriminator 1
 720 0024 0023     		movs	r3, #0
 721 0026 15E0     		b	.L52
 722              	.L51:
 723              		.loc 12 17 0 is_stmt 1
 724 0028 089B     		ldr	r3, [sp, #32]
 725 002a 0093     		str	r3, [sp]
 726 002c 0B48     		ldr	r0, .L54
 727 002e 0499     		ldr	r1, [sp, #16]
 728 0030 039A     		ldr	r2, [sp, #12]
 729 0032 029B     		ldr	r3, [sp, #8]
 730 0034 FFF7FEFF 		bl	_ZN3r2p10Middleware9advertiseERNS_14LocalPublisherEPKcRKNS_4TimeEj
 731 0038 0346     		mov	r3, r0
 732 003a 002B     		cmp	r3, #0
 733 003c 09D0     		beq	.L53
 734              		.loc 12 18 0
 735 003e 059B     		ldr	r3, [sp, #20]
 736 0040 1A1D     		adds	r2, r3, #4
 737 0042 049B     		ldr	r3, [sp, #16]
 738 0044 0833     		adds	r3, r3, #8
 739 0046 1046     		mov	r0, r2
 740 0048 1946     		mov	r1, r3
 741 004a FFF7FEFF 		bl	_ZN3r2p10StaticListINS_14LocalPublisherEE4linkERNS2_4LinkE
ARM GAS  /tmp/ccQlSxZA.s 			page 14


 742              		.loc 12 19 0
 743 004e 0123     		movs	r3, #1
 744 0050 00E0     		b	.L52
 745              	.L53:
 746              		.loc 12 21 0
 747 0052 0023     		movs	r3, #0
 748              	.L52:
 749              		.loc 12 22 0
 750 0054 1846     		mov	r0, r3
 751 0056 07B0     		add	sp, sp, #28
 752              		.cfi_def_cfa_offset 4
 753              		@ sp needed
 754 0058 5DF804FB 		ldr	pc, [sp], #4
 755              	.L55:
 756              		.align	2
 757              	.L54:
 758 005c 00000000 		.word	_ZN3r2p10Middleware8instanceE
 759              		.cfi_endproc
 760              	.LFE679:
 761              		.size	_ZN3r2p4Node9advertiseERNS_14LocalPublisherEPKcRKNS_4TimeEj, .-_ZN3r2p4Node9advertiseERNS_14
 762              		.section	.rodata
 763              		.align	2
 764              	.LC0:
 765 0000 5232505F 		.ascii	"R2P_ASSERT()\000"
 765      41535345 
 765      52542829 
 765      00
 766 000d 000000   		.text
 767              		.align	2
 768              		.global	_ZN3r2p4Node9subscribeERNS_15LocalSubscriberEPKcPNS_7MessageEj
 769              		.thumb
 770              		.thumb_func
 771              		.type	_ZN3r2p4Node9subscribeERNS_15LocalSubscriberEPKcPNS_7MessageEj, %function
 772              	_ZN3r2p4Node9subscribeERNS_15LocalSubscriberEPKcPNS_7MessageEj:
 773              	.LFB680:
 774              		.loc 12 26 0
 775              		.cfi_startproc
 776              		@ args = 4, pretend = 0, frame = 24
 777              		@ frame_needed = 0, uses_anonymous_args = 0
 778 0060 00B5     		push	{lr}
 779              		.cfi_def_cfa_offset 4
 780              		.cfi_offset 14, -4
 781 0062 89B0     		sub	sp, sp, #36
 782              		.cfi_def_cfa_offset 40
 783 0064 0590     		str	r0, [sp, #20]
 784 0066 0491     		str	r1, [sp, #16]
 785 0068 0392     		str	r2, [sp, #12]
 786 006a 0293     		str	r3, [sp, #8]
 787              	.LBB12:
 788              		.loc 12 29 0
 789 006c 049B     		ldr	r3, [sp, #16]
 790 006e 1846     		mov	r0, r3
 791 0070 FFF7FEFF 		bl	_ZNK3r2p14BaseSubscriber9get_topicEv
 792 0074 0346     		mov	r3, r0
 793 0076 002B     		cmp	r3, #0
 794 0078 14BF     		ite	ne
 795 007a 0123     		movne	r3, #1
ARM GAS  /tmp/ccQlSxZA.s 			page 15


 796 007c 0023     		moveq	r3, #0
 797 007e DBB2     		uxtb	r3, r3
 798 0080 002B     		cmp	r3, #0
 799 0082 01D0     		beq	.L57
 800              		.loc 12 29 0 is_stmt 0 discriminator 1
 801 0084 0023     		movs	r3, #0
 802 0086 44E0     		b	.L58
 803              	.L57:
 804              		.loc 12 31 0 is_stmt 1
 805 0088 049B     		ldr	r3, [sp, #16]
 806 008a 059A     		ldr	r2, [sp, #20]
 807 008c 9A60     		str	r2, [r3, #8]
 808              		.loc 12 32 0
 809 008e 059B     		ldr	r3, [sp, #20]
 810 0090 0833     		adds	r3, r3, #8
 811 0092 1846     		mov	r0, r3
 812 0094 FFF7FEFF 		bl	_ZNK3r2p10StaticListINS_15LocalSubscriberEE5countEv
 813 0098 0346     		mov	r3, r0
 814 009a 0793     		str	r3, [sp, #28]
 815              		.loc 12 33 0
 816 009c 059B     		ldr	r3, [sp, #20]
 817 009e 03F10802 		add	r2, r3, #8
 818 00a2 049B     		ldr	r3, [sp, #16]
 819 00a4 2833     		adds	r3, r3, #40
 820 00a6 1046     		mov	r0, r2
 821 00a8 1946     		mov	r1, r3
 822 00aa FFF7FEFF 		bl	_ZN3r2p10StaticListINS_15LocalSubscriberEE4linkERNS2_4LinkE
 823              		.loc 12 34 0
 824 00ae 079B     		ldr	r3, [sp, #28]
 825 00b0 002B     		cmp	r3, #0
 826 00b2 02DA     		bge	.L59
 827              		.loc 12 34 0 is_stmt 0 discriminator 1
 828 00b4 1948     		ldr	r0, .L62
 829 00b6 FFF7FEFF 		bl	chDbgPanic
 830              	.L59:
 831              		.loc 12 35 0 is_stmt 1
 832 00ba 079B     		ldr	r3, [sp, #28]
 833 00bc 1F2B     		cmp	r3, #31
 834 00be 02DD     		ble	.L60
 835              		.loc 12 35 0 is_stmt 0 discriminator 1
 836 00c0 1648     		ldr	r0, .L62
 837 00c2 FFF7FEFF 		bl	chDbgPanic
 838              	.L60:
 839              		.loc 12 36 0 is_stmt 1
 840 00c6 079B     		ldr	r3, [sp, #28]
 841 00c8 DAB2     		uxtb	r2, r3
 842 00ca 049B     		ldr	r3, [sp, #16]
 843 00cc 83F82420 		strb	r2, [r3, #36]
 844              		.loc 12 39 0
 845 00d0 049B     		ldr	r3, [sp, #16]
 846 00d2 1B68     		ldr	r3, [r3]
 847 00d4 1B68     		ldr	r3, [r3]
 848 00d6 0498     		ldr	r0, [sp, #16]
 849 00d8 9847     		blx	r3
 850 00da 0346     		mov	r3, r0
 851 00dc 0093     		str	r3, [sp]
 852 00de 0A9B     		ldr	r3, [sp, #40]
ARM GAS  /tmp/ccQlSxZA.s 			page 16


 853 00e0 0193     		str	r3, [sp, #4]
 854 00e2 0F48     		ldr	r0, .L62+4
 855 00e4 0499     		ldr	r1, [sp, #16]
 856 00e6 039A     		ldr	r2, [sp, #12]
 857 00e8 029B     		ldr	r3, [sp, #8]
 858 00ea FFF7FEFF 		bl	_ZN3r2p10Middleware9subscribeERNS_15LocalSubscriberEPKcPNS_7MessageEjj
 859 00ee 0346     		mov	r3, r0
 860              		.loc 12 38 0
 861 00f0 83F00103 		eor	r3, r3, #1
 862 00f4 DBB2     		uxtb	r3, r3
 863 00f6 002B     		cmp	r3, #0
 864 00f8 0AD0     		beq	.L61
 865              		.loc 12 40 0
 866 00fa 059B     		ldr	r3, [sp, #20]
 867 00fc 03F10802 		add	r2, r3, #8
 868 0100 049B     		ldr	r3, [sp, #16]
 869 0102 2833     		adds	r3, r3, #40
 870 0104 1046     		mov	r0, r2
 871 0106 1946     		mov	r1, r3
 872 0108 FFF7FEFF 		bl	_ZN3r2p10StaticListINS_15LocalSubscriberEE6unlinkERNS2_4LinkE
 873              		.loc 12 41 0
 874 010c 0023     		movs	r3, #0
 875 010e 00E0     		b	.L58
 876              	.L61:
 877              		.loc 12 44 0
 878 0110 0123     		movs	r3, #1
 879              	.L58:
 880              	.LBE12:
 881              		.loc 12 46 0
 882 0112 1846     		mov	r0, r3
 883 0114 09B0     		add	sp, sp, #36
 884              		.cfi_def_cfa_offset 4
 885              		@ sp needed
 886 0116 5DF804FB 		ldr	pc, [sp], #4
 887              	.L63:
 888 011a 00BF     		.align	2
 889              	.L62:
 890 011c 00000000 		.word	.LC0
 891 0120 00000000 		.word	_ZN3r2p10Middleware8instanceE
 892              		.cfi_endproc
 893              	.LFE680:
 894              		.size	_ZN3r2p4Node9subscribeERNS_15LocalSubscriberEPKcPNS_7MessageEj, .-_ZN3r2p4Node9subscribeERNS
 895              		.align	2
 896              		.global	_ZN3r2p4Node4spinERKNS_4TimeE
 897              		.thumb
 898              		.thumb_func
 899              		.type	_ZN3r2p4Node4spinERKNS_4TimeE, %function
 900              	_ZN3r2p4Node4spinERKNS_4TimeE:
 901              	.LFB681:
 902              		.loc 12 49 0
 903              		.cfi_startproc
 904              		@ args = 0, pretend = 0, frame = 40
 905              		@ frame_needed = 0, uses_anonymous_args = 0
 906 0124 10B5     		push	{r4, lr}
 907              		.cfi_def_cfa_offset 8
 908              		.cfi_offset 4, -8
 909              		.cfi_offset 14, -4
ARM GAS  /tmp/ccQlSxZA.s 			page 17


 910 0126 8AB0     		sub	sp, sp, #40
 911              		.cfi_def_cfa_offset 48
 912 0128 0190     		str	r0, [sp, #4]
 913 012a 0091     		str	r1, [sp]
 914              	.LBB13:
 915              		.loc 12 52 0
 916 012c 019B     		ldr	r3, [sp, #4]
 917 012e 0C33     		adds	r3, r3, #12
 918 0130 1846     		mov	r0, r3
 919 0132 0099     		ldr	r1, [sp]
 920 0134 FFF7FEFF 		bl	_ZN3r2p9SpinEvent4waitERKNS_4TimeE
 921 0138 0990     		str	r0, [sp, #36]
 922              		.loc 12 54 0
 923 013a 099B     		ldr	r3, [sp, #36]
 924 013c 002B     		cmp	r3, #0
 925 013e 01D1     		bne	.L65
 926              		.loc 12 55 0
 927 0140 0023     		movs	r3, #0
 928 0142 65E0     		b	.L76
 929              	.L65:
 930              		.loc 12 58 0
 931 0144 05AB     		add	r3, sp, #20
 932 0146 1846     		mov	r0, r3
 933 0148 FFF7FEFF 		bl	_ZN3r2p4TimeC1Ev
 934              		.loc 12 59 0
 935 014c 0123     		movs	r3, #1
 936 014e 0893     		str	r3, [sp, #32]
 937              	.LBB14:
 938              		.loc 12 60 0
 939 0150 019B     		ldr	r3, [sp, #4]
 940 0152 0833     		adds	r3, r3, #8
 941 0154 04AA     		add	r2, sp, #16
 942 0156 1046     		mov	r0, r2
 943 0158 1946     		mov	r1, r3
 944 015a FFF7FEFF 		bl	_ZN3r2p10StaticListINS_15LocalSubscriberEE5beginEv
 945 015e 3CE0     		b	.L67
 946              	.L75:
 947              	.LBB15:
 948              	.LBB16:
 949              		.loc 12 62 0
 950 0160 099A     		ldr	r2, [sp, #36]
 951 0162 089B     		ldr	r3, [sp, #32]
 952 0164 1340     		ands	r3, r3, r2
 953 0166 002B     		cmp	r3, #0
 954 0168 30D0     		beq	.L68
 955              	.LBB17:
 956              		.loc 12 63 0
 957 016a 089B     		ldr	r3, [sp, #32]
 958 016c DB43     		mvns	r3, r3
 959 016e 099A     		ldr	r2, [sp, #36]
 960 0170 1340     		ands	r3, r3, r2
 961 0172 0993     		str	r3, [sp, #36]
 962              		.loc 12 64 0
 963 0174 04AB     		add	r3, sp, #16
 964 0176 1846     		mov	r0, r3
 965 0178 FFF7FEFF 		bl	_ZNK3r2p10StaticListINS_15LocalSubscriberEE8IteratorptEv
 966 017c 0346     		mov	r3, r0
ARM GAS  /tmp/ccQlSxZA.s 			page 18


 967 017e 1846     		mov	r0, r3
 968 0180 FFF7FEFF 		bl	_ZNK3r2p15LocalSubscriber12get_callbackEv
 969 0184 0790     		str	r0, [sp, #28]
 970              	.LBB18:
 971              		.loc 12 65 0
 972 0186 079B     		ldr	r3, [sp, #28]
 973 0188 002B     		cmp	r3, #0
 974 018a 1FD0     		beq	.L69
 975              	.LBB19:
 976              		.loc 12 67 0
 977 018c 0EE0     		b	.L70
 978              	.L71:
 979              		.loc 12 68 0
 980 018e 039A     		ldr	r2, [sp, #12]
 981 0190 079B     		ldr	r3, [sp, #28]
 982 0192 1046     		mov	r0, r2
 983 0194 9847     		blx	r3
 984              		.loc 12 69 0
 985 0196 04AB     		add	r3, sp, #16
 986 0198 1846     		mov	r0, r3
 987 019a FFF7FEFF 		bl	_ZNK3r2p10StaticListINS_15LocalSubscriberEE8IteratorptEv
 988 019e 0346     		mov	r3, r0
 989 01a0 1A46     		mov	r2, r3
 990 01a2 039B     		ldr	r3, [sp, #12]
 991 01a4 1046     		mov	r0, r2
 992 01a6 1946     		mov	r1, r3
 993 01a8 FFF7FEFF 		bl	_ZN3r2p14BaseSubscriber7releaseERNS_7MessageE
 994              	.L70:
 995              		.loc 12 67 0
 996 01ac 04AB     		add	r3, sp, #16
 997 01ae 1846     		mov	r0, r3
 998 01b0 FFF7FEFF 		bl	_ZNK3r2p10StaticListINS_15LocalSubscriberEE8IteratorptEv
 999 01b4 0246     		mov	r2, r0
 1000 01b6 1368     		ldr	r3, [r2]
 1001 01b8 1033     		adds	r3, r3, #16
 1002 01ba 1B68     		ldr	r3, [r3]
 1003 01bc 03A9     		add	r1, sp, #12
 1004 01be 05AC     		add	r4, sp, #20
 1005 01c0 1046     		mov	r0, r2
 1006 01c2 2246     		mov	r2, r4
 1007 01c4 9847     		blx	r3
 1008 01c6 0346     		mov	r3, r0
 1009 01c8 002B     		cmp	r3, #0
 1010 01ca E0D1     		bne	.L71
 1011              	.L69:
 1012              	.L68:
 1013              	.LBE19:
 1014              	.LBE18:
 1015              	.LBE17:
 1016              	.LBE16:
 1017              	.LBE15:
 1018              		.loc 12 60 0
 1019 01cc 089B     		ldr	r3, [sp, #32]
 1020 01ce 5B00     		lsls	r3, r3, #1
 1021 01d0 0893     		str	r3, [sp, #32]
 1022 01d2 04AB     		add	r3, sp, #16
 1023 01d4 1846     		mov	r0, r3
ARM GAS  /tmp/ccQlSxZA.s 			page 19


 1024 01d6 FFF7FEFF 		bl	_ZN3r2p10StaticListINS_15LocalSubscriberEE8IteratorppEv
 1025              	.L67:
 1026              		.loc 12 61 0
 1027 01da 019B     		ldr	r3, [sp, #4]
 1028 01dc 0833     		adds	r3, r3, #8
 1029 01de 06AA     		add	r2, sp, #24
 1030 01e0 1046     		mov	r0, r2
 1031 01e2 1946     		mov	r1, r3
 1032 01e4 FFF7FEFF 		bl	_ZN3r2p10StaticListINS_15LocalSubscriberEE3endEv
 1033 01e8 0124     		movs	r4, #1
 1034 01ea 04AA     		add	r2, sp, #16
 1035 01ec 06AB     		add	r3, sp, #24
 1036 01ee 1046     		mov	r0, r2
 1037 01f0 1946     		mov	r1, r3
 1038 01f2 FFF7FEFF 		bl	_ZNK3r2p10StaticListINS_15LocalSubscriberEE8IteratorneERKS3_
 1039 01f6 0346     		mov	r3, r0
 1040 01f8 002B     		cmp	r3, #0
 1041 01fa 04D0     		beq	.L72
 1042              		.loc 12 61 0 is_stmt 0 discriminator 1
 1043 01fc 099B     		ldr	r3, [sp, #36]
 1044 01fe 002B     		cmp	r3, #0
 1045 0200 01D0     		beq	.L72
 1046              		.loc 12 61 0 discriminator 3
 1047 0202 0123     		movs	r3, #1
 1048 0204 00E0     		b	.L73
 1049              	.L72:
 1050              		.loc 12 61 0 discriminator 4
 1051 0206 0023     		movs	r3, #0
 1052              	.L73:
 1053              		.loc 12 61 0 discriminator 6
 1054 0208 002C     		cmp	r4, #0
 1055              		.loc 12 60 0 is_stmt 1 discriminator 6
 1056 020a 002B     		cmp	r3, #0
 1057 020c A8D1     		bne	.L75
 1058              	.LBE14:
 1059              		.loc 12 74 0
 1060 020e 0123     		movs	r3, #1
 1061              	.L76:
 1062              	.LBE13:
 1063              		.loc 12 75 0 discriminator 2
 1064 0210 1846     		mov	r0, r3
 1065 0212 0AB0     		add	sp, sp, #40
 1066              		.cfi_def_cfa_offset 8
 1067              		@ sp needed
 1068 0214 10BD     		pop	{r4, pc}
 1069              		.cfi_endproc
 1070              	.LFE681:
 1071              		.size	_ZN3r2p4Node4spinERKNS_4TimeE, .-_ZN3r2p4Node4spinERKNS_4TimeE
 1072              		.section	.text._ZN3r2p10StaticListINS_14LocalPublisherEED2Ev,"axG",%progbits,_ZN3r2p10StaticListIN
 1073              		.align	2
 1074              		.weak	_ZN3r2p10StaticListINS_14LocalPublisherEED2Ev
 1075              		.thumb
 1076              		.thumb_func
 1077              		.type	_ZN3r2p10StaticListINS_14LocalPublisherEED2Ev, %function
 1078              	_ZN3r2p10StaticListINS_14LocalPublisherEED2Ev:
 1079              	.LFB684:
 1080              		.file 13 "/opt/R2P/core/Middleware/include/r2p/StaticList.hpp"
ARM GAS  /tmp/ccQlSxZA.s 			page 20


 1081              		.loc 13 15 0
 1082              		.cfi_startproc
 1083              		@ args = 0, pretend = 0, frame = 8
 1084              		@ frame_needed = 0, uses_anonymous_args = 0
 1085 0000 00B5     		push	{lr}
 1086              		.cfi_def_cfa_offset 4
 1087              		.cfi_offset 14, -4
 1088 0002 83B0     		sub	sp, sp, #12
 1089              		.cfi_def_cfa_offset 16
 1090 0004 0190     		str	r0, [sp, #4]
 1091              	.LBB20:
 1092              		.loc 13 15 0
 1093 0006 0198     		ldr	r0, [sp, #4]
 1094 0008 FFF7FEFF 		bl	_ZN3r2p10UncopyableD2Ev
 1095              	.LBE20:
 1096 000c 019B     		ldr	r3, [sp, #4]
 1097 000e 1846     		mov	r0, r3
 1098 0010 03B0     		add	sp, sp, #12
 1099              		.cfi_def_cfa_offset 4
 1100              		@ sp needed
 1101 0012 5DF804FB 		ldr	pc, [sp], #4
 1102              		.cfi_endproc
 1103              	.LFE684:
 1104              		.size	_ZN3r2p10StaticListINS_14LocalPublisherEED2Ev, .-_ZN3r2p10StaticListINS_14LocalPublisherEED2
 1105              		.weak	_ZN3r2p10StaticListINS_14LocalPublisherEED1Ev
 1106              		.thumb_set _ZN3r2p10StaticListINS_14LocalPublisherEED1Ev,_ZN3r2p10StaticListINS_14LocalPublisherEE
 1107 0016 00BF     		.section	.text._ZN3r2p10StaticListINS_15LocalSubscriberEED2Ev,"axG",%progbits,_ZN3r2p10StaticListI
 1108              		.align	2
 1109              		.weak	_ZN3r2p10StaticListINS_15LocalSubscriberEED2Ev
 1110              		.thumb
 1111              		.thumb_func
 1112              		.type	_ZN3r2p10StaticListINS_15LocalSubscriberEED2Ev, %function
 1113              	_ZN3r2p10StaticListINS_15LocalSubscriberEED2Ev:
 1114              	.LFB687:
 1115              		.loc 13 15 0
 1116              		.cfi_startproc
 1117              		@ args = 0, pretend = 0, frame = 8
 1118              		@ frame_needed = 0, uses_anonymous_args = 0
 1119 0000 00B5     		push	{lr}
 1120              		.cfi_def_cfa_offset 4
 1121              		.cfi_offset 14, -4
 1122 0002 83B0     		sub	sp, sp, #12
 1123              		.cfi_def_cfa_offset 16
 1124 0004 0190     		str	r0, [sp, #4]
 1125              	.LBB21:
 1126              		.loc 13 15 0
 1127 0006 0198     		ldr	r0, [sp, #4]
 1128 0008 FFF7FEFF 		bl	_ZN3r2p10UncopyableD2Ev
 1129              	.LBE21:
 1130 000c 019B     		ldr	r3, [sp, #4]
 1131 000e 1846     		mov	r0, r3
 1132 0010 03B0     		add	sp, sp, #12
 1133              		.cfi_def_cfa_offset 4
 1134              		@ sp needed
 1135 0012 5DF804FB 		ldr	pc, [sp], #4
 1136              		.cfi_endproc
 1137              	.LFE687:
ARM GAS  /tmp/ccQlSxZA.s 			page 21


 1138              		.size	_ZN3r2p10StaticListINS_15LocalSubscriberEED2Ev, .-_ZN3r2p10StaticListINS_15LocalSubscriberEE
 1139              		.weak	_ZN3r2p10StaticListINS_15LocalSubscriberEED1Ev
 1140              		.thumb_set _ZN3r2p10StaticListINS_15LocalSubscriberEED1Ev,_ZN3r2p10StaticListINS_15LocalSubscriber
 1141 0016 00BF     		.section	.text._ZN3r2p9SpinEventD2Ev,"axG",%progbits,_ZN3r2p9SpinEventD5Ev,comdat
 1142              		.align	2
 1143              		.weak	_ZN3r2p9SpinEventD2Ev
 1144              		.thumb
 1145              		.thumb_func
 1146              		.type	_ZN3r2p9SpinEventD2Ev, %function
 1147              	_ZN3r2p9SpinEventD2Ev:
 1148              	.LFB690:
 1149              		.loc 8 11 0
 1150              		.cfi_startproc
 1151              		@ args = 0, pretend = 0, frame = 8
 1152              		@ frame_needed = 0, uses_anonymous_args = 0
 1153 0000 00B5     		push	{lr}
 1154              		.cfi_def_cfa_offset 4
 1155              		.cfi_offset 14, -4
 1156 0002 83B0     		sub	sp, sp, #12
 1157              		.cfi_def_cfa_offset 16
 1158 0004 0190     		str	r0, [sp, #4]
 1159              	.LBB22:
 1160              		.loc 8 11 0
 1161 0006 0198     		ldr	r0, [sp, #4]
 1162 0008 FFF7FEFF 		bl	_ZN3r2p10UncopyableD2Ev
 1163              	.LBE22:
 1164 000c 019B     		ldr	r3, [sp, #4]
 1165 000e 1846     		mov	r0, r3
 1166 0010 03B0     		add	sp, sp, #12
 1167              		.cfi_def_cfa_offset 4
 1168              		@ sp needed
 1169 0012 5DF804FB 		ldr	pc, [sp], #4
 1170              		.cfi_endproc
 1171              	.LFE690:
 1172              		.size	_ZN3r2p9SpinEventD2Ev, .-_ZN3r2p9SpinEventD2Ev
 1173              		.weak	_ZN3r2p9SpinEventD1Ev
 1174              		.thumb_set _ZN3r2p9SpinEventD1Ev,_ZN3r2p9SpinEventD2Ev
 1175 0016 00BF     		.text
 1176 0216 00BF     		.align	2
 1177              		.global	_ZN3r2p4NodeC2EPKcb
 1178              		.thumb
 1179              		.thumb_func
 1180              		.type	_ZN3r2p4NodeC2EPKcb, %function
 1181              	_ZN3r2p4NodeC2EPKcb:
 1182              	.LFB692:
 1183              		.loc 12 78 0
 1184              		.cfi_startproc
 1185              		@ args = 0, pretend = 0, frame = 16
 1186              		@ frame_needed = 0, uses_anonymous_args = 0
 1187 0218 10B5     		push	{r4, lr}
 1188              		.cfi_def_cfa_offset 8
 1189              		.cfi_offset 4, -8
 1190              		.cfi_offset 14, -4
 1191 021a 84B0     		sub	sp, sp, #16
 1192              		.cfi_def_cfa_offset 24
 1193 021c 0390     		str	r0, [sp, #12]
 1194 021e 0291     		str	r1, [sp, #8]
ARM GAS  /tmp/ccQlSxZA.s 			page 22


 1195 0220 1346     		mov	r3, r2
 1196 0222 8DF80730 		strb	r3, [sp, #7]
 1197              	.LBB23:
 1198              		.loc 12 82 0
 1199 0226 0398     		ldr	r0, [sp, #12]
 1200 0228 FFF7FEFF 		bl	_ZN3r2p10UncopyableC2Ev
 1201 022c 039B     		ldr	r3, [sp, #12]
 1202 022e 029A     		ldr	r2, [sp, #8]
 1203 0230 1A60     		str	r2, [r3]
 1204 0232 039B     		ldr	r3, [sp, #12]
 1205 0234 0433     		adds	r3, r3, #4
 1206 0236 1846     		mov	r0, r3
 1207 0238 FFF7FEFF 		bl	_ZN3r2p10StaticListINS_14LocalPublisherEEC1Ev
 1208 023c 039B     		ldr	r3, [sp, #12]
 1209 023e 0833     		adds	r3, r3, #8
 1210 0240 1846     		mov	r0, r3
 1211 0242 FFF7FEFF 		bl	_ZN3r2p10StaticListINS_15LocalSubscriberEEC1Ev
 1212 0246 039B     		ldr	r3, [sp, #12]
 1213 0248 03F10C04 		add	r4, r3, #12
 1214 024c 9DF80730 		ldrb	r3, [sp, #7]	@ zero_extendqisi2
 1215 0250 002B     		cmp	r3, #0
 1216 0252 03D0     		beq	.L87
 1217              		.loc 12 82 0 is_stmt 0 discriminator 1
 1218 0254 FFF7FEFF 		bl	_ZN3r2p6Thread4selfEv
 1219 0258 0346     		mov	r3, r0
 1220 025a 00E0     		b	.L88
 1221              	.L87:
 1222              		.loc 12 82 0 discriminator 2
 1223 025c 0023     		movs	r3, #0
 1224              	.L88:
 1225              		.loc 12 82 0 discriminator 4
 1226 025e 2046     		mov	r0, r4
 1227 0260 1946     		mov	r1, r3
 1228 0262 FFF7FEFF 		bl	_ZN3r2p9SpinEventC1EPNS_6ThreadE
 1229 0266 039B     		ldr	r3, [sp, #12]
 1230 0268 1033     		adds	r3, r3, #16
 1231 026a 1846     		mov	r0, r3
 1232 026c FFF7FEFF 		bl	_ZN3r2p4TimeC1Ev
 1233 0270 039B     		ldr	r3, [sp, #12]
 1234 0272 1433     		adds	r3, r3, #20
 1235 0274 1846     		mov	r0, r3
 1236 0276 0399     		ldr	r1, [sp, #12]
 1237 0278 FFF7FEFF 		bl	_ZN3r2p10StaticListINS_4NodeEE4LinkC1ERS1_
 1238              		.loc 12 84 0 is_stmt 1 discriminator 4
 1239 027c 0298     		ldr	r0, [sp, #8]
 1240 027e 0821     		movs	r1, #8
 1241 0280 FFF7FEFF 		bl	_ZN3r2p13is_identifierEPKcj
 1242 0284 0346     		mov	r3, r0
 1243 0286 83F00103 		eor	r3, r3, #1
 1244 028a DBB2     		uxtb	r3, r3
 1245 028c 002B     		cmp	r3, #0
 1246 028e 02D0     		beq	.L89
 1247              		.loc 12 84 0 is_stmt 0 discriminator 1
 1248 0290 0548     		ldr	r0, .L92
 1249 0292 FFF7FEFF 		bl	chDbgPanic
 1250              	.L89:
 1251              		.loc 12 86 0 is_stmt 1
ARM GAS  /tmp/ccQlSxZA.s 			page 23


 1252 0296 0548     		ldr	r0, .L92+4
 1253 0298 0399     		ldr	r1, [sp, #12]
 1254 029a FFF7FEFF 		bl	_ZN3r2p10Middleware3addERNS_4NodeE
 1255              	.LBE23:
 1256              		.loc 12 87 0
 1257 029e 039B     		ldr	r3, [sp, #12]
 1258 02a0 1846     		mov	r0, r3
 1259 02a2 04B0     		add	sp, sp, #16
 1260              		.cfi_def_cfa_offset 8
 1261              		@ sp needed
 1262 02a4 10BD     		pop	{r4, pc}
 1263              	.L93:
 1264 02a6 00BF     		.align	2
 1265              	.L92:
 1266 02a8 00000000 		.word	.LC0
 1267 02ac 00000000 		.word	_ZN3r2p10Middleware8instanceE
 1268              		.cfi_endproc
 1269              	.LFE692:
 1270              		.size	_ZN3r2p4NodeC2EPKcb, .-_ZN3r2p4NodeC2EPKcb
 1271              		.global	_ZN3r2p4NodeC1EPKcb
 1272              		.thumb_set _ZN3r2p4NodeC1EPKcb,_ZN3r2p4NodeC2EPKcb
 1273              		.align	2
 1274              		.global	_ZN3r2p4NodeD2Ev
 1275              		.thumb
 1276              		.thumb_func
 1277              		.type	_ZN3r2p4NodeD2Ev, %function
 1278              	_ZN3r2p4NodeD2Ev:
 1279              	.LFB695:
 1280              		.loc 12 90 0
 1281              		.cfi_startproc
 1282              		@ args = 0, pretend = 0, frame = 8
 1283              		@ frame_needed = 0, uses_anonymous_args = 0
 1284 02b0 00B5     		push	{lr}
 1285              		.cfi_def_cfa_offset 4
 1286              		.cfi_offset 14, -4
 1287 02b2 83B0     		sub	sp, sp, #12
 1288              		.cfi_def_cfa_offset 16
 1289 02b4 0190     		str	r0, [sp, #4]
 1290              	.LBB24:
 1291              		.loc 12 92 0
 1292 02b6 0D48     		ldr	r0, .L97
 1293 02b8 0199     		ldr	r1, [sp, #4]
 1294 02ba FFF7FEFF 		bl	_ZN3r2p10Middleware12confirm_stopERKNS_4NodeE
 1295              		.loc 12 90 0
 1296 02be 019B     		ldr	r3, [sp, #4]
 1297 02c0 0C33     		adds	r3, r3, #12
 1298 02c2 1846     		mov	r0, r3
 1299 02c4 FFF7FEFF 		bl	_ZN3r2p9SpinEventD1Ev
 1300 02c8 019B     		ldr	r3, [sp, #4]
 1301 02ca 0833     		adds	r3, r3, #8
 1302 02cc 1846     		mov	r0, r3
 1303 02ce FFF7FEFF 		bl	_ZN3r2p10StaticListINS_15LocalSubscriberEED1Ev
 1304 02d2 019B     		ldr	r3, [sp, #4]
 1305 02d4 0433     		adds	r3, r3, #4
 1306 02d6 1846     		mov	r0, r3
 1307 02d8 FFF7FEFF 		bl	_ZN3r2p10StaticListINS_14LocalPublisherEED1Ev
 1308 02dc 0198     		ldr	r0, [sp, #4]
ARM GAS  /tmp/ccQlSxZA.s 			page 24


 1309 02de FFF7FEFF 		bl	_ZN3r2p10UncopyableD2Ev
 1310              	.LBE24:
 1311              		.loc 12 93 0
 1312 02e2 019B     		ldr	r3, [sp, #4]
 1313 02e4 1846     		mov	r0, r3
 1314 02e6 03B0     		add	sp, sp, #12
 1315              		.cfi_def_cfa_offset 4
 1316              		@ sp needed
 1317 02e8 5DF804FB 		ldr	pc, [sp], #4
 1318              	.L98:
 1319              		.align	2
 1320              	.L97:
 1321 02ec 00000000 		.word	_ZN3r2p10Middleware8instanceE
 1322              		.cfi_endproc
 1323              	.LFE695:
 1324              		.size	_ZN3r2p4NodeD2Ev, .-_ZN3r2p4NodeD2Ev
 1325              		.global	_ZN3r2p4NodeD1Ev
 1326              		.thumb_set _ZN3r2p4NodeD1Ev,_ZN3r2p4NodeD2Ev
 1327              		.section	.text._ZNK3r2p10StaticListINS_15LocalSubscriberEE15is_empty_unsafeEv,"axG",%progbits,_ZNK
 1328              		.align	2
 1329              		.weak	_ZNK3r2p10StaticListINS_15LocalSubscriberEE15is_empty_unsafeEv
 1330              		.thumb
 1331              		.thumb_func
 1332              		.type	_ZNK3r2p10StaticListINS_15LocalSubscriberEE15is_empty_unsafeEv, %function
 1333              	_ZNK3r2p10StaticListINS_15LocalSubscriberEE15is_empty_unsafeEv:
 1334              	.LFB709:
 1335              		.loc 13 401 0
 1336              		.cfi_startproc
 1337              		@ args = 0, pretend = 0, frame = 8
 1338              		@ frame_needed = 0, uses_anonymous_args = 0
 1339              		@ link register save eliminated.
 1340 0000 82B0     		sub	sp, sp, #8
 1341              		.cfi_def_cfa_offset 8
 1342 0002 0190     		str	r0, [sp, #4]
 1343              		.loc 13 402 0
 1344 0004 019B     		ldr	r3, [sp, #4]
 1345 0006 1B68     		ldr	r3, [r3]
 1346 0008 002B     		cmp	r3, #0
 1347 000a 0CBF     		ite	eq
 1348 000c 0123     		moveq	r3, #1
 1349 000e 0023     		movne	r3, #0
 1350 0010 DBB2     		uxtb	r3, r3
 1351              		.loc 13 403 0
 1352 0012 1846     		mov	r0, r3
 1353 0014 02B0     		add	sp, sp, #8
 1354              		.cfi_def_cfa_offset 0
 1355              		@ sp needed
 1356 0016 7047     		bx	lr
 1357              		.cfi_endproc
 1358              	.LFE709:
 1359              		.size	_ZNK3r2p10StaticListINS_15LocalSubscriberEE15is_empty_unsafeEv, .-_ZNK3r2p10StaticListINS_15
 1360              		.section	.text._ZN3r2p10StaticListINS_14LocalPublisherEE4linkERNS2_4LinkE,"axG",%progbits,_ZN3r2p1
 1361              		.align	2
 1362              		.weak	_ZN3r2p10StaticListINS_14LocalPublisherEE4linkERNS2_4LinkE
 1363              		.thumb
 1364              		.thumb_func
 1365              		.type	_ZN3r2p10StaticListINS_14LocalPublisherEE4linkERNS2_4LinkE, %function
ARM GAS  /tmp/ccQlSxZA.s 			page 25


 1366              	_ZN3r2p10StaticListINS_14LocalPublisherEE4linkERNS2_4LinkE:
 1367              	.LFB719:
 1368              		.loc 13 630 0
 1369              		.cfi_startproc
 1370              		@ args = 0, pretend = 0, frame = 8
 1371              		@ frame_needed = 0, uses_anonymous_args = 0
 1372 0000 00B5     		push	{lr}
 1373              		.cfi_def_cfa_offset 4
 1374              		.cfi_offset 14, -4
 1375 0002 83B0     		sub	sp, sp, #12
 1376              		.cfi_def_cfa_offset 16
 1377 0004 0190     		str	r0, [sp, #4]
 1378 0006 0091     		str	r1, [sp]
 1379              		.loc 13 632 0
 1380 0008 FFF7FEFF 		bl	_ZN3r2p7SysLock7acquireEv
 1381              		.loc 13 633 0
 1382 000c 0198     		ldr	r0, [sp, #4]
 1383 000e 0099     		ldr	r1, [sp]
 1384 0010 FFF7FEFF 		bl	_ZN3r2p10StaticListINS_14LocalPublisherEE16link_tail_unsafeERNS2_4LinkE
 1385              		.loc 13 635 0
 1386 0014 FFF7FEFF 		bl	_ZN3r2p7SysLock7releaseEv
 1387              		.loc 13 636 0
 1388 0018 03B0     		add	sp, sp, #12
 1389              		.cfi_def_cfa_offset 4
 1390              		@ sp needed
 1391 001a 5DF804FB 		ldr	pc, [sp], #4
 1392              		.cfi_endproc
 1393              	.LFE719:
 1394              		.size	_ZN3r2p10StaticListINS_14LocalPublisherEE4linkERNS2_4LinkE, .-_ZN3r2p10StaticListINS_14Local
 1395 001e 00BF     		.section	.text._ZNK3r2p10StaticListINS_15LocalSubscriberEE5countEv,"axG",%progbits,_ZNK3r2p10Stati
 1396              		.align	2
 1397              		.weak	_ZNK3r2p10StaticListINS_15LocalSubscriberEE5countEv
 1398              		.thumb
 1399              		.thumb_func
 1400              		.type	_ZNK3r2p10StaticListINS_15LocalSubscriberEE5countEv, %function
 1401              	_ZNK3r2p10StaticListINS_15LocalSubscriberEE5countEv:
 1402              	.LFB720:
 1403              		.loc 13 615 0
 1404              		.cfi_startproc
 1405              		@ args = 0, pretend = 0, frame = 16
 1406              		@ frame_needed = 0, uses_anonymous_args = 0
 1407 0000 00B5     		push	{lr}
 1408              		.cfi_def_cfa_offset 4
 1409              		.cfi_offset 14, -4
 1410 0002 85B0     		sub	sp, sp, #20
 1411              		.cfi_def_cfa_offset 24
 1412 0004 0190     		str	r0, [sp, #4]
 1413              	.LBB25:
 1414              		.loc 13 617 0
 1415 0006 0023     		movs	r3, #0
 1416 0008 0393     		str	r3, [sp, #12]
 1417              		.loc 13 618 0
 1418 000a FFF7FEFF 		bl	_ZN3r2p7SysLock7acquireEv
 1419              	.LBB26:
 1420              		.loc 13 619 0
 1421 000e 019B     		ldr	r3, [sp, #4]
 1422 0010 1B68     		ldr	r3, [r3]
ARM GAS  /tmp/ccQlSxZA.s 			page 26


 1423 0012 0293     		str	r3, [sp, #8]
 1424 0014 09E0     		b	.L103
 1425              	.L104:
 1426              		.loc 13 620 0 discriminator 3
 1427 0016 FFF7FEFF 		bl	_ZN3r2p7SysLock7releaseEv
 1428              		.loc 13 621 0 discriminator 3
 1429 001a 039B     		ldr	r3, [sp, #12]
 1430 001c 0133     		adds	r3, r3, #1
 1431 001e 0393     		str	r3, [sp, #12]
 1432              		.loc 13 622 0 discriminator 3
 1433 0020 FFF7FEFF 		bl	_ZN3r2p7SysLock7acquireEv
 1434              		.loc 13 619 0 discriminator 3
 1435 0024 029B     		ldr	r3, [sp, #8]
 1436 0026 1B68     		ldr	r3, [r3]
 1437 0028 0293     		str	r3, [sp, #8]
 1438              	.L103:
 1439              		.loc 13 619 0 is_stmt 0 discriminator 1
 1440 002a 029B     		ldr	r3, [sp, #8]
 1441 002c 002B     		cmp	r3, #0
 1442 002e F2D1     		bne	.L104
 1443              	.LBE26:
 1444              		.loc 13 624 0 is_stmt 1
 1445 0030 FFF7FEFF 		bl	_ZN3r2p7SysLock7releaseEv
 1446              		.loc 13 625 0
 1447 0034 039B     		ldr	r3, [sp, #12]
 1448              	.LBE25:
 1449              		.loc 13 626 0
 1450 0036 1846     		mov	r0, r3
 1451 0038 05B0     		add	sp, sp, #20
 1452              		.cfi_def_cfa_offset 4
 1453              		@ sp needed
 1454 003a 5DF804FB 		ldr	pc, [sp], #4
 1455              		.cfi_endproc
 1456              	.LFE720:
 1457              		.size	_ZNK3r2p10StaticListINS_15LocalSubscriberEE5countEv, .-_ZNK3r2p10StaticListINS_15LocalSubscr
 1458 003e 00BF     		.section	.text._ZN3r2p10StaticListINS_15LocalSubscriberEE4linkERNS2_4LinkE,"axG",%progbits,_ZN3r2p
 1459              		.align	2
 1460              		.weak	_ZN3r2p10StaticListINS_15LocalSubscriberEE4linkERNS2_4LinkE
 1461              		.thumb
 1462              		.thumb_func
 1463              		.type	_ZN3r2p10StaticListINS_15LocalSubscriberEE4linkERNS2_4LinkE, %function
 1464              	_ZN3r2p10StaticListINS_15LocalSubscriberEE4linkERNS2_4LinkE:
 1465              	.LFB721:
 1466              		.loc 13 630 0
 1467              		.cfi_startproc
 1468              		@ args = 0, pretend = 0, frame = 8
 1469              		@ frame_needed = 0, uses_anonymous_args = 0
 1470 0000 00B5     		push	{lr}
 1471              		.cfi_def_cfa_offset 4
 1472              		.cfi_offset 14, -4
 1473 0002 83B0     		sub	sp, sp, #12
 1474              		.cfi_def_cfa_offset 16
 1475 0004 0190     		str	r0, [sp, #4]
 1476 0006 0091     		str	r1, [sp]
 1477              		.loc 13 632 0
 1478 0008 FFF7FEFF 		bl	_ZN3r2p7SysLock7acquireEv
 1479              		.loc 13 633 0
ARM GAS  /tmp/ccQlSxZA.s 			page 27


 1480 000c 0198     		ldr	r0, [sp, #4]
 1481 000e 0099     		ldr	r1, [sp]
 1482 0010 FFF7FEFF 		bl	_ZN3r2p10StaticListINS_15LocalSubscriberEE16link_tail_unsafeERNS2_4LinkE
 1483              		.loc 13 635 0
 1484 0014 FFF7FEFF 		bl	_ZN3r2p7SysLock7releaseEv
 1485              		.loc 13 636 0
 1486 0018 03B0     		add	sp, sp, #12
 1487              		.cfi_def_cfa_offset 4
 1488              		@ sp needed
 1489 001a 5DF804FB 		ldr	pc, [sp], #4
 1490              		.cfi_endproc
 1491              	.LFE721:
 1492              		.size	_ZN3r2p10StaticListINS_15LocalSubscriberEE4linkERNS2_4LinkE, .-_ZN3r2p10StaticListINS_15Loca
 1493 001e 00BF     		.section	.text._ZN3r2p10StaticListINS_15LocalSubscriberEE6unlinkERNS2_4LinkE,"axG",%progbits,_ZN3r
 1494              		.align	2
 1495              		.weak	_ZN3r2p10StaticListINS_15LocalSubscriberEE6unlinkERNS2_4LinkE
 1496              		.thumb
 1497              		.thumb_func
 1498              		.type	_ZN3r2p10StaticListINS_15LocalSubscriberEE6unlinkERNS2_4LinkE, %function
 1499              	_ZN3r2p10StaticListINS_15LocalSubscriberEE6unlinkERNS2_4LinkE:
 1500              	.LFB722:
 1501              		.loc 13 640 0
 1502              		.cfi_startproc
 1503              		@ args = 0, pretend = 0, frame = 16
 1504              		@ frame_needed = 0, uses_anonymous_args = 0
 1505 0000 00B5     		push	{lr}
 1506              		.cfi_def_cfa_offset 4
 1507              		.cfi_offset 14, -4
 1508 0002 85B0     		sub	sp, sp, #20
 1509              		.cfi_def_cfa_offset 24
 1510 0004 0190     		str	r0, [sp, #4]
 1511 0006 0091     		str	r1, [sp]
 1512              	.LBB27:
 1513              		.loc 13 642 0
 1514 0008 FFF7FEFF 		bl	_ZN3r2p7SysLock7acquireEv
 1515              		.loc 13 643 0
 1516 000c 0198     		ldr	r0, [sp, #4]
 1517 000e 0099     		ldr	r1, [sp]
 1518 0010 FFF7FEFF 		bl	_ZN3r2p10StaticListINS_15LocalSubscriberEE13unlink_unsafeERNS2_4LinkE
 1519 0014 0346     		mov	r3, r0
 1520 0016 8DF80F30 		strb	r3, [sp, #15]
 1521              		.loc 13 644 0
 1522 001a FFF7FEFF 		bl	_ZN3r2p7SysLock7releaseEv
 1523              		.loc 13 645 0
 1524 001e 9DF80F30 		ldrb	r3, [sp, #15]	@ zero_extendqisi2
 1525              	.LBE27:
 1526              		.loc 13 646 0
 1527 0022 1846     		mov	r0, r3
 1528 0024 05B0     		add	sp, sp, #20
 1529              		.cfi_def_cfa_offset 4
 1530              		@ sp needed
 1531 0026 5DF804FB 		ldr	pc, [sp], #4
 1532              		.cfi_endproc
 1533              	.LFE722:
 1534              		.size	_ZN3r2p10StaticListINS_15LocalSubscriberEE6unlinkERNS2_4LinkE, .-_ZN3r2p10StaticListINS_15Lo
 1535 002a 00BF     		.section	.text._ZN3r2p10StaticListINS_15LocalSubscriberEE5beginEv,"axG",%progbits,_ZN3r2p10StaticL
 1536              		.align	2
ARM GAS  /tmp/ccQlSxZA.s 			page 28


 1537              		.weak	_ZN3r2p10StaticListINS_15LocalSubscriberEE5beginEv
 1538              		.thumb
 1539              		.thumb_func
 1540              		.type	_ZN3r2p10StaticListINS_15LocalSubscriberEE5beginEv, %function
 1541              	_ZN3r2p10StaticListINS_15LocalSubscriberEE5beginEv:
 1542              	.LFB723:
 1543              		.loc 13 480 0
 1544              		.cfi_startproc
 1545              		@ args = 0, pretend = 0, frame = 8
 1546              		@ frame_needed = 0, uses_anonymous_args = 0
 1547 0000 00B5     		push	{lr}
 1548              		.cfi_def_cfa_offset 4
 1549              		.cfi_offset 14, -4
 1550 0002 83B0     		sub	sp, sp, #12
 1551              		.cfi_def_cfa_offset 16
 1552 0004 0190     		str	r0, [sp, #4]
 1553 0006 0091     		str	r1, [sp]
 1554              		.loc 13 481 0
 1555 0008 0098     		ldr	r0, [sp]
 1556 000a FFF7FEFF 		bl	_ZNK3r2p10StaticListINS_15LocalSubscriberEE8get_headEv
 1557 000e 0346     		mov	r3, r0
 1558 0010 0198     		ldr	r0, [sp, #4]
 1559 0012 1946     		mov	r1, r3
 1560 0014 FFF7FEFF 		bl	_ZN3r2p10StaticListINS_15LocalSubscriberEE8IteratorC1EPKNS2_4LinkE
 1561              		.loc 13 482 0
 1562 0018 0198     		ldr	r0, [sp, #4]
 1563 001a 03B0     		add	sp, sp, #12
 1564              		.cfi_def_cfa_offset 4
 1565              		@ sp needed
 1566 001c 5DF804FB 		ldr	pc, [sp], #4
 1567              		.cfi_endproc
 1568              	.LFE723:
 1569              		.size	_ZN3r2p10StaticListINS_15LocalSubscriberEE5beginEv, .-_ZN3r2p10StaticListINS_15LocalSubscrib
 1570              		.section	.text._ZN3r2p10StaticListINS_15LocalSubscriberEE3endEv,"axG",%progbits,_ZN3r2p10StaticLis
 1571              		.align	2
 1572              		.weak	_ZN3r2p10StaticListINS_15LocalSubscriberEE3endEv
 1573              		.thumb
 1574              		.thumb_func
 1575              		.type	_ZN3r2p10StaticListINS_15LocalSubscriberEE3endEv, %function
 1576              	_ZN3r2p10StaticListINS_15LocalSubscriberEE3endEv:
 1577              	.LFB727:
 1578              		.loc 13 484 0
 1579              		.cfi_startproc
 1580              		@ args = 0, pretend = 0, frame = 8
 1581              		@ frame_needed = 0, uses_anonymous_args = 0
 1582 0000 00B5     		push	{lr}
 1583              		.cfi_def_cfa_offset 4
 1584              		.cfi_offset 14, -4
 1585 0002 83B0     		sub	sp, sp, #12
 1586              		.cfi_def_cfa_offset 16
 1587 0004 0190     		str	r0, [sp, #4]
 1588 0006 0091     		str	r1, [sp]
 1589              		.loc 13 485 0
 1590 0008 0198     		ldr	r0, [sp, #4]
 1591 000a 0021     		movs	r1, #0
 1592 000c FFF7FEFF 		bl	_ZN3r2p10StaticListINS_15LocalSubscriberEE8IteratorC1EPKNS2_4LinkE
 1593              		.loc 13 486 0
ARM GAS  /tmp/ccQlSxZA.s 			page 29


 1594 0010 0198     		ldr	r0, [sp, #4]
 1595 0012 03B0     		add	sp, sp, #12
 1596              		.cfi_def_cfa_offset 4
 1597              		@ sp needed
 1598 0014 5DF804FB 		ldr	pc, [sp], #4
 1599              		.cfi_endproc
 1600              	.LFE727:
 1601              		.size	_ZN3r2p10StaticListINS_15LocalSubscriberEE3endEv, .-_ZN3r2p10StaticListINS_15LocalSubscriber
 1602              		.section	.text._ZNK3r2p10StaticListINS_15LocalSubscriberEE8IteratorneERKS3_,"axG",%progbits,_ZNK3r
 1603              		.align	2
 1604              		.weak	_ZNK3r2p10StaticListINS_15LocalSubscriberEE8IteratorneERKS3_
 1605              		.thumb
 1606              		.thumb_func
 1607              		.type	_ZNK3r2p10StaticListINS_15LocalSubscriberEE8IteratorneERKS3_, %function
 1608              	_ZNK3r2p10StaticListINS_15LocalSubscriberEE8IteratorneERKS3_:
 1609              	.LFB728:
 1610              		.loc 13 183 0
 1611              		.cfi_startproc
 1612              		@ args = 0, pretend = 0, frame = 8
 1613              		@ frame_needed = 0, uses_anonymous_args = 0
 1614              		@ link register save eliminated.
 1615 0000 82B0     		sub	sp, sp, #8
 1616              		.cfi_def_cfa_offset 8
 1617 0002 0190     		str	r0, [sp, #4]
 1618 0004 0091     		str	r1, [sp]
 1619              		.loc 13 184 0
 1620 0006 019B     		ldr	r3, [sp, #4]
 1621 0008 1A68     		ldr	r2, [r3]
 1622 000a 009B     		ldr	r3, [sp]
 1623 000c 1B68     		ldr	r3, [r3]
 1624 000e 9A42     		cmp	r2, r3
 1625 0010 14BF     		ite	ne
 1626 0012 0123     		movne	r3, #1
 1627 0014 0023     		moveq	r3, #0
 1628 0016 DBB2     		uxtb	r3, r3
 1629              		.loc 13 185 0
 1630 0018 1846     		mov	r0, r3
 1631 001a 02B0     		add	sp, sp, #8
 1632              		.cfi_def_cfa_offset 0
 1633              		@ sp needed
 1634 001c 7047     		bx	lr
 1635              		.cfi_endproc
 1636              	.LFE728:
 1637              		.size	_ZNK3r2p10StaticListINS_15LocalSubscriberEE8IteratorneERKS3_, .-_ZNK3r2p10StaticListINS_15Lo
 1638 001e 00BF     		.section	.text._ZN3r2p10StaticListINS_15LocalSubscriberEE8IteratorppEv,"axG",%progbits,_ZN3r2p10St
 1639              		.align	2
 1640              		.weak	_ZN3r2p10StaticListINS_15LocalSubscriberEE8IteratorppEv
 1641              		.thumb
 1642              		.thumb_func
 1643              		.type	_ZN3r2p10StaticListINS_15LocalSubscriberEE8IteratorppEv, %function
 1644              	_ZN3r2p10StaticListINS_15LocalSubscriberEE8IteratorppEv:
 1645              	.LFB729:
 1646              		.loc 13 164 0
 1647              		.cfi_startproc
 1648              		@ args = 0, pretend = 0, frame = 8
 1649              		@ frame_needed = 0, uses_anonymous_args = 0
 1650 0000 00B5     		push	{lr}
ARM GAS  /tmp/ccQlSxZA.s 			page 30


 1651              		.cfi_def_cfa_offset 4
 1652              		.cfi_offset 14, -4
 1653 0002 83B0     		sub	sp, sp, #12
 1654              		.cfi_def_cfa_offset 16
 1655 0004 0190     		str	r0, [sp, #4]
 1656              		.loc 13 165 0
 1657 0006 FFF7FEFF 		bl	_ZN3r2p7SysLock7acquireEv
 1658              		.loc 13 166 0
 1659 000a 019B     		ldr	r3, [sp, #4]
 1660 000c 1B68     		ldr	r3, [r3]
 1661 000e 1A68     		ldr	r2, [r3]
 1662 0010 019B     		ldr	r3, [sp, #4]
 1663 0012 1A60     		str	r2, [r3]
 1664              		.loc 13 167 0
 1665 0014 FFF7FEFF 		bl	_ZN3r2p7SysLock7releaseEv
 1666              		.loc 13 168 0
 1667 0018 019B     		ldr	r3, [sp, #4]
 1668              		.loc 13 169 0
 1669 001a 1846     		mov	r0, r3
 1670 001c 03B0     		add	sp, sp, #12
 1671              		.cfi_def_cfa_offset 4
 1672              		@ sp needed
 1673 001e 5DF804FB 		ldr	pc, [sp], #4
 1674              		.cfi_endproc
 1675              	.LFE729:
 1676              		.size	_ZN3r2p10StaticListINS_15LocalSubscriberEE8IteratorppEv, .-_ZN3r2p10StaticListINS_15LocalSub
 1677 0022 00BF     		.section	.text._ZNK3r2p10StaticListINS_15LocalSubscriberEE8IteratorptEv,"axG",%progbits,_ZNK3r2p10
 1678              		.align	2
 1679              		.weak	_ZNK3r2p10StaticListINS_15LocalSubscriberEE8IteratorptEv
 1680              		.thumb
 1681              		.thumb_func
 1682              		.type	_ZNK3r2p10StaticListINS_15LocalSubscriberEE8IteratorptEv, %function
 1683              	_ZNK3r2p10StaticListINS_15LocalSubscriberEE8IteratorptEv:
 1684              	.LFB730:
 1685              		.loc 13 156 0
 1686              		.cfi_startproc
 1687              		@ args = 0, pretend = 0, frame = 8
 1688              		@ frame_needed = 0, uses_anonymous_args = 0
 1689              		@ link register save eliminated.
 1690 0000 82B0     		sub	sp, sp, #8
 1691              		.cfi_def_cfa_offset 8
 1692 0002 0190     		str	r0, [sp, #4]
 1693              		.loc 13 157 0
 1694 0004 019B     		ldr	r3, [sp, #4]
 1695 0006 1B68     		ldr	r3, [r3]
 1696 0008 5B68     		ldr	r3, [r3, #4]
 1697              		.loc 13 158 0
 1698 000a 1846     		mov	r0, r3
 1699 000c 02B0     		add	sp, sp, #8
 1700              		.cfi_def_cfa_offset 0
 1701              		@ sp needed
 1702 000e 7047     		bx	lr
 1703              		.cfi_endproc
 1704              	.LFE730:
 1705              		.size	_ZNK3r2p10StaticListINS_15LocalSubscriberEE8IteratorptEv, .-_ZNK3r2p10StaticListINS_15LocalS
 1706              		.section	.text._ZN3r2p10StaticListINS_14LocalPublisherEEC2Ev,"axG",%progbits,_ZN3r2p10StaticListIN
 1707              		.align	2
ARM GAS  /tmp/ccQlSxZA.s 			page 31


 1708              		.weak	_ZN3r2p10StaticListINS_14LocalPublisherEEC2Ev
 1709              		.thumb
 1710              		.thumb_func
 1711              		.type	_ZN3r2p10StaticListINS_14LocalPublisherEEC2Ev, %function
 1712              	_ZN3r2p10StaticListINS_14LocalPublisherEEC2Ev:
 1713              	.LFB732:
 1714              		.loc 13 506 0
 1715              		.cfi_startproc
 1716              		@ args = 0, pretend = 0, frame = 8
 1717              		@ frame_needed = 0, uses_anonymous_args = 0
 1718 0000 00B5     		push	{lr}
 1719              		.cfi_def_cfa_offset 4
 1720              		.cfi_offset 14, -4
 1721 0002 83B0     		sub	sp, sp, #12
 1722              		.cfi_def_cfa_offset 16
 1723 0004 0190     		str	r0, [sp, #4]
 1724              	.LBB28:
 1725              		.loc 13 506 0
 1726 0006 0198     		ldr	r0, [sp, #4]
 1727 0008 FFF7FEFF 		bl	_ZN3r2p10UncopyableC2Ev
 1728 000c 019B     		ldr	r3, [sp, #4]
 1729 000e 0022     		movs	r2, #0
 1730 0010 1A60     		str	r2, [r3]
 1731              	.LBE28:
 1732 0012 019B     		ldr	r3, [sp, #4]
 1733 0014 1846     		mov	r0, r3
 1734 0016 03B0     		add	sp, sp, #12
 1735              		.cfi_def_cfa_offset 4
 1736              		@ sp needed
 1737 0018 5DF804FB 		ldr	pc, [sp], #4
 1738              		.cfi_endproc
 1739              	.LFE732:
 1740              		.size	_ZN3r2p10StaticListINS_14LocalPublisherEEC2Ev, .-_ZN3r2p10StaticListINS_14LocalPublisherEEC2
 1741              		.weak	_ZN3r2p10StaticListINS_14LocalPublisherEEC1Ev
 1742              		.thumb_set _ZN3r2p10StaticListINS_14LocalPublisherEEC1Ev,_ZN3r2p10StaticListINS_14LocalPublisherEE
 1743              		.section	.text._ZN3r2p10StaticListINS_15LocalSubscriberEEC2Ev,"axG",%progbits,_ZN3r2p10StaticListI
 1744              		.align	2
 1745              		.weak	_ZN3r2p10StaticListINS_15LocalSubscriberEEC2Ev
 1746              		.thumb
 1747              		.thumb_func
 1748              		.type	_ZN3r2p10StaticListINS_15LocalSubscriberEEC2Ev, %function
 1749              	_ZN3r2p10StaticListINS_15LocalSubscriberEEC2Ev:
 1750              	.LFB735:
 1751              		.loc 13 506 0
 1752              		.cfi_startproc
 1753              		@ args = 0, pretend = 0, frame = 8
 1754              		@ frame_needed = 0, uses_anonymous_args = 0
 1755 0000 00B5     		push	{lr}
 1756              		.cfi_def_cfa_offset 4
 1757              		.cfi_offset 14, -4
 1758 0002 83B0     		sub	sp, sp, #12
 1759              		.cfi_def_cfa_offset 16
 1760 0004 0190     		str	r0, [sp, #4]
 1761              	.LBB29:
 1762              		.loc 13 506 0
 1763 0006 0198     		ldr	r0, [sp, #4]
 1764 0008 FFF7FEFF 		bl	_ZN3r2p10UncopyableC2Ev
ARM GAS  /tmp/ccQlSxZA.s 			page 32


 1765 000c 019B     		ldr	r3, [sp, #4]
 1766 000e 0022     		movs	r2, #0
 1767 0010 1A60     		str	r2, [r3]
 1768              	.LBE29:
 1769 0012 019B     		ldr	r3, [sp, #4]
 1770 0014 1846     		mov	r0, r3
 1771 0016 03B0     		add	sp, sp, #12
 1772              		.cfi_def_cfa_offset 4
 1773              		@ sp needed
 1774 0018 5DF804FB 		ldr	pc, [sp], #4
 1775              		.cfi_endproc
 1776              	.LFE735:
 1777              		.size	_ZN3r2p10StaticListINS_15LocalSubscriberEEC2Ev, .-_ZN3r2p10StaticListINS_15LocalSubscriberEE
 1778              		.weak	_ZN3r2p10StaticListINS_15LocalSubscriberEEC1Ev
 1779              		.thumb_set _ZN3r2p10StaticListINS_15LocalSubscriberEEC1Ev,_ZN3r2p10StaticListINS_15LocalSubscriber
 1780              		.section	.text._ZN3r2p10StaticListINS_4NodeEE4LinkC2ERS1_,"axG",%progbits,_ZN3r2p10StaticListINS_4
 1781              		.align	2
 1782              		.weak	_ZN3r2p10StaticListINS_4NodeEE4LinkC2ERS1_
 1783              		.thumb
 1784              		.thumb_func
 1785              		.type	_ZN3r2p10StaticListINS_4NodeEE4LinkC2ERS1_, %function
 1786              	_ZN3r2p10StaticListINS_4NodeEE4LinkC2ERS1_:
 1787              	.LFB738:
 1788              		.loc 13 21 0
 1789              		.cfi_startproc
 1790              		@ args = 0, pretend = 0, frame = 8
 1791              		@ frame_needed = 0, uses_anonymous_args = 0
 1792              		@ link register save eliminated.
 1793 0000 82B0     		sub	sp, sp, #8
 1794              		.cfi_def_cfa_offset 8
 1795 0002 0190     		str	r0, [sp, #4]
 1796 0004 0091     		str	r1, [sp]
 1797              	.LBB30:
 1798              		.loc 13 21 0
 1799 0006 019B     		ldr	r3, [sp, #4]
 1800 0008 0022     		movs	r2, #0
 1801 000a 1A60     		str	r2, [r3]
 1802 000c 019B     		ldr	r3, [sp, #4]
 1803 000e 009A     		ldr	r2, [sp]
 1804 0010 5A60     		str	r2, [r3, #4]
 1805              	.LBE30:
 1806 0012 019B     		ldr	r3, [sp, #4]
 1807 0014 1846     		mov	r0, r3
 1808 0016 02B0     		add	sp, sp, #8
 1809              		.cfi_def_cfa_offset 0
 1810              		@ sp needed
 1811 0018 7047     		bx	lr
 1812              		.cfi_endproc
 1813              	.LFE738:
 1814              		.size	_ZN3r2p10StaticListINS_4NodeEE4LinkC2ERS1_, .-_ZN3r2p10StaticListINS_4NodeEE4LinkC2ERS1_
 1815              		.weak	_ZN3r2p10StaticListINS_4NodeEE4LinkC1ERS1_
 1816              		.thumb_set _ZN3r2p10StaticListINS_4NodeEE4LinkC1ERS1_,_ZN3r2p10StaticListINS_4NodeEE4LinkC2ERS1_
 1817 001a 00BF     		.section	.text._ZN3r2p10StaticListINS_14LocalPublisherEE16link_tail_unsafeERNS2_4LinkE,"axG",%prog
 1818              		.align	2
 1819              		.weak	_ZN3r2p10StaticListINS_14LocalPublisherEE16link_tail_unsafeERNS2_4LinkE
 1820              		.thumb
 1821              		.thumb_func
ARM GAS  /tmp/ccQlSxZA.s 			page 33


 1822              		.type	_ZN3r2p10StaticListINS_14LocalPublisherEE16link_tail_unsafeERNS2_4LinkE, %function
 1823              	_ZN3r2p10StaticListINS_14LocalPublisherEE16link_tail_unsafeERNS2_4LinkE:
 1824              	.LFB740:
 1825              		.loc 13 415 0
 1826              		.cfi_startproc
 1827              		@ args = 0, pretend = 0, frame = 16
 1828              		@ frame_needed = 0, uses_anonymous_args = 0
 1829 0000 00B5     		push	{lr}
 1830              		.cfi_def_cfa_offset 4
 1831              		.cfi_offset 14, -4
 1832 0002 85B0     		sub	sp, sp, #20
 1833              		.cfi_def_cfa_offset 24
 1834 0004 0190     		str	r0, [sp, #4]
 1835 0006 0091     		str	r1, [sp]
 1836              	.LBB31:
 1837              		.loc 13 416 0
 1838 0008 019B     		ldr	r3, [sp, #4]
 1839 000a 1B68     		ldr	r3, [r3]
 1840 000c 0393     		str	r3, [sp, #12]
 1841              		.loc 13 418 0
 1842 000e 009B     		ldr	r3, [sp]
 1843 0010 1B68     		ldr	r3, [r3]
 1844 0012 002B     		cmp	r3, #0
 1845 0014 02D0     		beq	.L129
 1846              		.loc 13 418 0 is_stmt 0 discriminator 1
 1847 0016 1248     		ldr	r0, .L135
 1848 0018 FFF7FEFF 		bl	chDbgPanic
 1849              	.L129:
 1850              		.loc 13 419 0 is_stmt 1
 1851 001c 0198     		ldr	r0, [sp, #4]
 1852 001e 0099     		ldr	r1, [sp]
 1853 0020 FFF7FEFF 		bl	_ZN3r2p10StaticListINS_14LocalPublisherEE13unlink_unsafeERNS2_4LinkE
 1854 0024 0346     		mov	r3, r0
 1855 0026 002B     		cmp	r3, #0
 1856 0028 02D0     		beq	.L130
 1857              		.loc 13 419 0 is_stmt 0 discriminator 1
 1858 002a 0D48     		ldr	r0, .L135
 1859 002c FFF7FEFF 		bl	chDbgPanic
 1860              	.L130:
 1861              		.loc 13 421 0 is_stmt 1
 1862 0030 0198     		ldr	r0, [sp, #4]
 1863 0032 FFF7FEFF 		bl	_ZNK3r2p10StaticListINS_14LocalPublisherEE15is_empty_unsafeEv
 1864 0036 0346     		mov	r3, r0
 1865 0038 002B     		cmp	r3, #0
 1866 003a 03D0     		beq	.L131
 1867              		.loc 13 422 0
 1868 003c 019B     		ldr	r3, [sp, #4]
 1869 003e 009A     		ldr	r2, [sp]
 1870 0040 1A60     		str	r2, [r3]
 1871 0042 0AE0     		b	.L128
 1872              	.L131:
 1873              		.loc 13 424 0
 1874 0044 02E0     		b	.L133
 1875              	.L134:
 1876              		.loc 13 424 0 is_stmt 0 discriminator 2
 1877 0046 039B     		ldr	r3, [sp, #12]
 1878 0048 1B68     		ldr	r3, [r3]
ARM GAS  /tmp/ccQlSxZA.s 			page 34


 1879 004a 0393     		str	r3, [sp, #12]
 1880              	.L133:
 1881              		.loc 13 424 0 discriminator 1
 1882 004c 039B     		ldr	r3, [sp, #12]
 1883 004e 1B68     		ldr	r3, [r3]
 1884 0050 002B     		cmp	r3, #0
 1885 0052 F8D1     		bne	.L134
 1886              		.loc 13 425 0 is_stmt 1
 1887 0054 039B     		ldr	r3, [sp, #12]
 1888 0056 009A     		ldr	r2, [sp]
 1889 0058 1A60     		str	r2, [r3]
 1890              	.L128:
 1891              	.LBE31:
 1892              		.loc 13 427 0
 1893 005a 05B0     		add	sp, sp, #20
 1894              		.cfi_def_cfa_offset 4
 1895              		@ sp needed
 1896 005c 5DF804FB 		ldr	pc, [sp], #4
 1897              	.L136:
 1898              		.align	2
 1899              	.L135:
 1900 0060 00000000 		.word	.LC0
 1901              		.cfi_endproc
 1902              	.LFE740:
 1903              		.size	_ZN3r2p10StaticListINS_14LocalPublisherEE16link_tail_unsafeERNS2_4LinkE, .-_ZN3r2p10StaticLi
 1904              		.section	.text._ZN3r2p10StaticListINS_15LocalSubscriberEE16link_tail_unsafeERNS2_4LinkE,"axG",%pro
 1905              		.align	2
 1906              		.weak	_ZN3r2p10StaticListINS_15LocalSubscriberEE16link_tail_unsafeERNS2_4LinkE
 1907              		.thumb
 1908              		.thumb_func
 1909              		.type	_ZN3r2p10StaticListINS_15LocalSubscriberEE16link_tail_unsafeERNS2_4LinkE, %function
 1910              	_ZN3r2p10StaticListINS_15LocalSubscriberEE16link_tail_unsafeERNS2_4LinkE:
 1911              	.LFB741:
 1912              		.loc 13 415 0
 1913              		.cfi_startproc
 1914              		@ args = 0, pretend = 0, frame = 16
 1915              		@ frame_needed = 0, uses_anonymous_args = 0
 1916 0000 00B5     		push	{lr}
 1917              		.cfi_def_cfa_offset 4
 1918              		.cfi_offset 14, -4
 1919 0002 85B0     		sub	sp, sp, #20
 1920              		.cfi_def_cfa_offset 24
 1921 0004 0190     		str	r0, [sp, #4]
 1922 0006 0091     		str	r1, [sp]
 1923              	.LBB32:
 1924              		.loc 13 416 0
 1925 0008 019B     		ldr	r3, [sp, #4]
 1926 000a 1B68     		ldr	r3, [r3]
 1927 000c 0393     		str	r3, [sp, #12]
 1928              		.loc 13 418 0
 1929 000e 009B     		ldr	r3, [sp]
 1930 0010 1B68     		ldr	r3, [r3]
 1931 0012 002B     		cmp	r3, #0
 1932 0014 02D0     		beq	.L138
 1933              		.loc 13 418 0 is_stmt 0 discriminator 1
 1934 0016 1248     		ldr	r0, .L144
 1935 0018 FFF7FEFF 		bl	chDbgPanic
ARM GAS  /tmp/ccQlSxZA.s 			page 35


 1936              	.L138:
 1937              		.loc 13 419 0 is_stmt 1
 1938 001c 0198     		ldr	r0, [sp, #4]
 1939 001e 0099     		ldr	r1, [sp]
 1940 0020 FFF7FEFF 		bl	_ZN3r2p10StaticListINS_15LocalSubscriberEE13unlink_unsafeERNS2_4LinkE
 1941 0024 0346     		mov	r3, r0
 1942 0026 002B     		cmp	r3, #0
 1943 0028 02D0     		beq	.L139
 1944              		.loc 13 419 0 is_stmt 0 discriminator 1
 1945 002a 0D48     		ldr	r0, .L144
 1946 002c FFF7FEFF 		bl	chDbgPanic
 1947              	.L139:
 1948              		.loc 13 421 0 is_stmt 1
 1949 0030 0198     		ldr	r0, [sp, #4]
 1950 0032 FFF7FEFF 		bl	_ZNK3r2p10StaticListINS_15LocalSubscriberEE15is_empty_unsafeEv
 1951 0036 0346     		mov	r3, r0
 1952 0038 002B     		cmp	r3, #0
 1953 003a 03D0     		beq	.L140
 1954              		.loc 13 422 0
 1955 003c 019B     		ldr	r3, [sp, #4]
 1956 003e 009A     		ldr	r2, [sp]
 1957 0040 1A60     		str	r2, [r3]
 1958 0042 0AE0     		b	.L137
 1959              	.L140:
 1960              		.loc 13 424 0
 1961 0044 02E0     		b	.L142
 1962              	.L143:
 1963              		.loc 13 424 0 is_stmt 0 discriminator 2
 1964 0046 039B     		ldr	r3, [sp, #12]
 1965 0048 1B68     		ldr	r3, [r3]
 1966 004a 0393     		str	r3, [sp, #12]
 1967              	.L142:
 1968              		.loc 13 424 0 discriminator 1
 1969 004c 039B     		ldr	r3, [sp, #12]
 1970 004e 1B68     		ldr	r3, [r3]
 1971 0050 002B     		cmp	r3, #0
 1972 0052 F8D1     		bne	.L143
 1973              		.loc 13 425 0 is_stmt 1
 1974 0054 039B     		ldr	r3, [sp, #12]
 1975 0056 009A     		ldr	r2, [sp]
 1976 0058 1A60     		str	r2, [r3]
 1977              	.L137:
 1978              	.LBE32:
 1979              		.loc 13 427 0
 1980 005a 05B0     		add	sp, sp, #20
 1981              		.cfi_def_cfa_offset 4
 1982              		@ sp needed
 1983 005c 5DF804FB 		ldr	pc, [sp], #4
 1984              	.L145:
 1985              		.align	2
 1986              	.L144:
 1987 0060 00000000 		.word	.LC0
 1988              		.cfi_endproc
 1989              	.LFE741:
 1990              		.size	_ZN3r2p10StaticListINS_15LocalSubscriberEE16link_tail_unsafeERNS2_4LinkE, .-_ZN3r2p10StaticL
 1991              		.section	.text._ZN3r2p10StaticListINS_15LocalSubscriberEE13unlink_unsafeERNS2_4LinkE,"axG",%progbi
 1992              		.align	2
ARM GAS  /tmp/ccQlSxZA.s 			page 36


 1993              		.weak	_ZN3r2p10StaticListINS_15LocalSubscriberEE13unlink_unsafeERNS2_4LinkE
 1994              		.thumb
 1995              		.thumb_func
 1996              		.type	_ZN3r2p10StaticListINS_15LocalSubscriberEE13unlink_unsafeERNS2_4LinkE, %function
 1997              	_ZN3r2p10StaticListINS_15LocalSubscriberEE13unlink_unsafeERNS2_4LinkE:
 1998              	.LFB742:
 1999              		.loc 13 526 0
 2000              		.cfi_startproc
 2001              		@ args = 0, pretend = 0, frame = 16
 2002              		@ frame_needed = 0, uses_anonymous_args = 0
 2003              		@ link register save eliminated.
 2004 0000 84B0     		sub	sp, sp, #16
 2005              		.cfi_def_cfa_offset 16
 2006 0002 0190     		str	r0, [sp, #4]
 2007 0004 0091     		str	r1, [sp]
 2008              	.LBB33:
 2009              	.LBB34:
 2010              		.loc 13 528 0
 2011 0006 019B     		ldr	r3, [sp, #4]
 2012 0008 1B68     		ldr	r3, [r3]
 2013 000a 0393     		str	r3, [sp, #12]
 2014 000c 0023     		movs	r3, #0
 2015 000e 0293     		str	r3, [sp, #8]
 2016 0010 19E0     		b	.L147
 2017              	.L152:
 2018              		.loc 13 531 0
 2019 0012 039A     		ldr	r2, [sp, #12]
 2020 0014 009B     		ldr	r3, [sp]
 2021 0016 9A42     		cmp	r2, r3
 2022 0018 10D1     		bne	.L148
 2023              		.loc 13 532 0
 2024 001a 029B     		ldr	r3, [sp, #8]
 2025 001c 002B     		cmp	r3, #0
 2026 001e 04D0     		beq	.L149
 2027              		.loc 13 532 0 is_stmt 0 discriminator 1
 2028 0020 039B     		ldr	r3, [sp, #12]
 2029 0022 1A68     		ldr	r2, [r3]
 2030 0024 029B     		ldr	r3, [sp, #8]
 2031 0026 1A60     		str	r2, [r3]
 2032 0028 03E0     		b	.L150
 2033              	.L149:
 2034              		.loc 13 533 0 is_stmt 1
 2035 002a 039B     		ldr	r3, [sp, #12]
 2036 002c 1A68     		ldr	r2, [r3]
 2037 002e 019B     		ldr	r3, [sp, #4]
 2038 0030 1A60     		str	r2, [r3]
 2039              	.L150:
 2040              		.loc 13 534 0
 2041 0032 039B     		ldr	r3, [sp, #12]
 2042 0034 0022     		movs	r2, #0
 2043 0036 1A60     		str	r2, [r3]
 2044              		.loc 13 535 0
 2045 0038 0123     		movs	r3, #1
 2046 003a 08E0     		b	.L151
 2047              	.L148:
 2048              		.loc 13 528 0 discriminator 2
 2049 003c 039B     		ldr	r3, [sp, #12]
ARM GAS  /tmp/ccQlSxZA.s 			page 37


 2050 003e 0293     		str	r3, [sp, #8]
 2051 0040 039B     		ldr	r3, [sp, #12]
 2052 0042 1B68     		ldr	r3, [r3]
 2053 0044 0393     		str	r3, [sp, #12]
 2054              	.L147:
 2055              		.loc 13 528 0 is_stmt 0 discriminator 1
 2056 0046 039B     		ldr	r3, [sp, #12]
 2057 0048 002B     		cmp	r3, #0
 2058 004a E2D1     		bne	.L152
 2059              	.LBE34:
 2060              		.loc 13 538 0 is_stmt 1
 2061 004c 0023     		movs	r3, #0
 2062              	.L151:
 2063              	.LBE33:
 2064              		.loc 13 539 0
 2065 004e 1846     		mov	r0, r3
 2066 0050 04B0     		add	sp, sp, #16
 2067              		.cfi_def_cfa_offset 0
 2068              		@ sp needed
 2069 0052 7047     		bx	lr
 2070              		.cfi_endproc
 2071              	.LFE742:
 2072              		.size	_ZN3r2p10StaticListINS_15LocalSubscriberEE13unlink_unsafeERNS2_4LinkE, .-_ZN3r2p10StaticList
 2073              		.section	.text._ZNK3r2p10StaticListINS_15LocalSubscriberEE8get_headEv,"axG",%progbits,_ZNK3r2p10St
 2074              		.align	2
 2075              		.weak	_ZNK3r2p10StaticListINS_15LocalSubscriberEE8get_headEv
 2076              		.thumb
 2077              		.thumb_func
 2078              		.type	_ZNK3r2p10StaticListINS_15LocalSubscriberEE8get_headEv, %function
 2079              	_ZNK3r2p10StaticListINS_15LocalSubscriberEE8get_headEv:
 2080              	.LFB743:
 2081              		.loc 13 595 0
 2082              		.cfi_startproc
 2083              		@ args = 0, pretend = 0, frame = 16
 2084              		@ frame_needed = 0, uses_anonymous_args = 0
 2085 0000 00B5     		push	{lr}
 2086              		.cfi_def_cfa_offset 4
 2087              		.cfi_offset 14, -4
 2088 0002 85B0     		sub	sp, sp, #20
 2089              		.cfi_def_cfa_offset 24
 2090 0004 0190     		str	r0, [sp, #4]
 2091              	.LBB35:
 2092              		.loc 13 597 0
 2093 0006 FFF7FEFF 		bl	_ZN3r2p7SysLock7acquireEv
 2094              		.loc 13 598 0
 2095 000a 0198     		ldr	r0, [sp, #4]
 2096 000c FFF7FEFF 		bl	_ZNK3r2p10StaticListINS_15LocalSubscriberEE15get_head_unsafeEv
 2097 0010 0390     		str	r0, [sp, #12]
 2098              		.loc 13 599 0
 2099 0012 FFF7FEFF 		bl	_ZN3r2p7SysLock7releaseEv
 2100              		.loc 13 600 0
 2101 0016 039B     		ldr	r3, [sp, #12]
 2102              	.LBE35:
 2103              		.loc 13 601 0
 2104 0018 1846     		mov	r0, r3
 2105 001a 05B0     		add	sp, sp, #20
 2106              		.cfi_def_cfa_offset 4
ARM GAS  /tmp/ccQlSxZA.s 			page 38


 2107              		@ sp needed
 2108 001c 5DF804FB 		ldr	pc, [sp], #4
 2109              		.cfi_endproc
 2110              	.LFE743:
 2111              		.size	_ZNK3r2p10StaticListINS_15LocalSubscriberEE8get_headEv, .-_ZNK3r2p10StaticListINS_15LocalSub
 2112              		.section	.text._ZN3r2p10StaticListINS_15LocalSubscriberEE8IteratorC2EPKNS2_4LinkE,"axG",%progbits,
 2113              		.align	2
 2114              		.weak	_ZN3r2p10StaticListINS_15LocalSubscriberEE8IteratorC2EPKNS2_4LinkE
 2115              		.thumb
 2116              		.thumb_func
 2117              		.type	_ZN3r2p10StaticListINS_15LocalSubscriberEE8IteratorC2EPKNS2_4LinkE, %function
 2118              	_ZN3r2p10StaticListINS_15LocalSubscriberEE8IteratorC2EPKNS2_4LinkE:
 2119              	.LFB745:
 2120              		.loc 13 147 0
 2121              		.cfi_startproc
 2122              		@ args = 0, pretend = 0, frame = 8
 2123              		@ frame_needed = 0, uses_anonymous_args = 0
 2124              		@ link register save eliminated.
 2125 0000 82B0     		sub	sp, sp, #8
 2126              		.cfi_def_cfa_offset 8
 2127 0002 0190     		str	r0, [sp, #4]
 2128 0004 0091     		str	r1, [sp]
 2129              	.LBB36:
 2130              		.loc 13 147 0
 2131 0006 019B     		ldr	r3, [sp, #4]
 2132 0008 009A     		ldr	r2, [sp]
 2133 000a 1A60     		str	r2, [r3]
 2134              	.LBE36:
 2135 000c 019B     		ldr	r3, [sp, #4]
 2136 000e 1846     		mov	r0, r3
 2137 0010 02B0     		add	sp, sp, #8
 2138              		.cfi_def_cfa_offset 0
 2139              		@ sp needed
 2140 0012 7047     		bx	lr
 2141              		.cfi_endproc
 2142              	.LFE745:
 2143              		.size	_ZN3r2p10StaticListINS_15LocalSubscriberEE8IteratorC2EPKNS2_4LinkE, .-_ZN3r2p10StaticListINS
 2144              		.weak	_ZN3r2p10StaticListINS_15LocalSubscriberEE8IteratorC1EPKNS2_4LinkE
 2145              		.thumb_set _ZN3r2p10StaticListINS_15LocalSubscriberEE8IteratorC1EPKNS2_4LinkE,_ZN3r2p10StaticListI
 2146              		.section	.text._ZN3r2p10StaticListINS_14LocalPublisherEE13unlink_unsafeERNS2_4LinkE,"axG",%progbit
 2147              		.align	2
 2148              		.weak	_ZN3r2p10StaticListINS_14LocalPublisherEE13unlink_unsafeERNS2_4LinkE
 2149              		.thumb
 2150              		.thumb_func
 2151              		.type	_ZN3r2p10StaticListINS_14LocalPublisherEE13unlink_unsafeERNS2_4LinkE, %function
 2152              	_ZN3r2p10StaticListINS_14LocalPublisherEE13unlink_unsafeERNS2_4LinkE:
 2153              	.LFB747:
 2154              		.loc 13 526 0
 2155              		.cfi_startproc
 2156              		@ args = 0, pretend = 0, frame = 16
 2157              		@ frame_needed = 0, uses_anonymous_args = 0
 2158              		@ link register save eliminated.
 2159 0000 84B0     		sub	sp, sp, #16
 2160              		.cfi_def_cfa_offset 16
 2161 0002 0190     		str	r0, [sp, #4]
 2162 0004 0091     		str	r1, [sp]
 2163              	.LBB37:
ARM GAS  /tmp/ccQlSxZA.s 			page 39


 2164              	.LBB38:
 2165              		.loc 13 528 0
 2166 0006 019B     		ldr	r3, [sp, #4]
 2167 0008 1B68     		ldr	r3, [r3]
 2168 000a 0393     		str	r3, [sp, #12]
 2169 000c 0023     		movs	r3, #0
 2170 000e 0293     		str	r3, [sp, #8]
 2171 0010 19E0     		b	.L159
 2172              	.L164:
 2173              		.loc 13 531 0
 2174 0012 039A     		ldr	r2, [sp, #12]
 2175 0014 009B     		ldr	r3, [sp]
 2176 0016 9A42     		cmp	r2, r3
 2177 0018 10D1     		bne	.L160
 2178              		.loc 13 532 0
 2179 001a 029B     		ldr	r3, [sp, #8]
 2180 001c 002B     		cmp	r3, #0
 2181 001e 04D0     		beq	.L161
 2182              		.loc 13 532 0 is_stmt 0 discriminator 1
 2183 0020 039B     		ldr	r3, [sp, #12]
 2184 0022 1A68     		ldr	r2, [r3]
 2185 0024 029B     		ldr	r3, [sp, #8]
 2186 0026 1A60     		str	r2, [r3]
 2187 0028 03E0     		b	.L162
 2188              	.L161:
 2189              		.loc 13 533 0 is_stmt 1
 2190 002a 039B     		ldr	r3, [sp, #12]
 2191 002c 1A68     		ldr	r2, [r3]
 2192 002e 019B     		ldr	r3, [sp, #4]
 2193 0030 1A60     		str	r2, [r3]
 2194              	.L162:
 2195              		.loc 13 534 0
 2196 0032 039B     		ldr	r3, [sp, #12]
 2197 0034 0022     		movs	r2, #0
 2198 0036 1A60     		str	r2, [r3]
 2199              		.loc 13 535 0
 2200 0038 0123     		movs	r3, #1
 2201 003a 08E0     		b	.L163
 2202              	.L160:
 2203              		.loc 13 528 0 discriminator 2
 2204 003c 039B     		ldr	r3, [sp, #12]
 2205 003e 0293     		str	r3, [sp, #8]
 2206 0040 039B     		ldr	r3, [sp, #12]
 2207 0042 1B68     		ldr	r3, [r3]
 2208 0044 0393     		str	r3, [sp, #12]
 2209              	.L159:
 2210              		.loc 13 528 0 is_stmt 0 discriminator 1
 2211 0046 039B     		ldr	r3, [sp, #12]
 2212 0048 002B     		cmp	r3, #0
 2213 004a E2D1     		bne	.L164
 2214              	.LBE38:
 2215              		.loc 13 538 0 is_stmt 1
 2216 004c 0023     		movs	r3, #0
 2217              	.L163:
 2218              	.LBE37:
 2219              		.loc 13 539 0
 2220 004e 1846     		mov	r0, r3
ARM GAS  /tmp/ccQlSxZA.s 			page 40


 2221 0050 04B0     		add	sp, sp, #16
 2222              		.cfi_def_cfa_offset 0
 2223              		@ sp needed
 2224 0052 7047     		bx	lr
 2225              		.cfi_endproc
 2226              	.LFE747:
 2227              		.size	_ZN3r2p10StaticListINS_14LocalPublisherEE13unlink_unsafeERNS2_4LinkE, .-_ZN3r2p10StaticListI
 2228              		.section	.text._ZNK3r2p10StaticListINS_14LocalPublisherEE15is_empty_unsafeEv,"axG",%progbits,_ZNK3
 2229              		.align	2
 2230              		.weak	_ZNK3r2p10StaticListINS_14LocalPublisherEE15is_empty_unsafeEv
 2231              		.thumb
 2232              		.thumb_func
 2233              		.type	_ZNK3r2p10StaticListINS_14LocalPublisherEE15is_empty_unsafeEv, %function
 2234              	_ZNK3r2p10StaticListINS_14LocalPublisherEE15is_empty_unsafeEv:
 2235              	.LFB748:
 2236              		.loc 13 401 0
 2237              		.cfi_startproc
 2238              		@ args = 0, pretend = 0, frame = 8
 2239              		@ frame_needed = 0, uses_anonymous_args = 0
 2240              		@ link register save eliminated.
 2241 0000 82B0     		sub	sp, sp, #8
 2242              		.cfi_def_cfa_offset 8
 2243 0002 0190     		str	r0, [sp, #4]
 2244              		.loc 13 402 0
 2245 0004 019B     		ldr	r3, [sp, #4]
 2246 0006 1B68     		ldr	r3, [r3]
 2247 0008 002B     		cmp	r3, #0
 2248 000a 0CBF     		ite	eq
 2249 000c 0123     		moveq	r3, #1
 2250 000e 0023     		movne	r3, #0
 2251 0010 DBB2     		uxtb	r3, r3
 2252              		.loc 13 403 0
 2253 0012 1846     		mov	r0, r3
 2254 0014 02B0     		add	sp, sp, #8
 2255              		.cfi_def_cfa_offset 0
 2256              		@ sp needed
 2257 0016 7047     		bx	lr
 2258              		.cfi_endproc
 2259              	.LFE748:
 2260              		.size	_ZNK3r2p10StaticListINS_14LocalPublisherEE15is_empty_unsafeEv, .-_ZNK3r2p10StaticListINS_14L
 2261              		.section	.text._ZNK3r2p10StaticListINS_15LocalSubscriberEE15get_head_unsafeEv,"axG",%progbits,_ZNK
 2262              		.align	2
 2263              		.weak	_ZNK3r2p10StaticListINS_15LocalSubscriberEE15get_head_unsafeEv
 2264              		.thumb
 2265              		.thumb_func
 2266              		.type	_ZNK3r2p10StaticListINS_15LocalSubscriberEE15get_head_unsafeEv, %function
 2267              	_ZNK3r2p10StaticListINS_15LocalSubscriberEE15get_head_unsafeEv:
 2268              	.LFB749:
 2269              		.loc 13 397 0
 2270              		.cfi_startproc
 2271              		@ args = 0, pretend = 0, frame = 8
 2272              		@ frame_needed = 0, uses_anonymous_args = 0
 2273              		@ link register save eliminated.
 2274 0000 82B0     		sub	sp, sp, #8
 2275              		.cfi_def_cfa_offset 8
 2276 0002 0190     		str	r0, [sp, #4]
 2277              		.loc 13 398 0
ARM GAS  /tmp/ccQlSxZA.s 			page 41


 2278 0004 019B     		ldr	r3, [sp, #4]
 2279 0006 1B68     		ldr	r3, [r3]
 2280              		.loc 13 399 0
 2281 0008 1846     		mov	r0, r3
 2282 000a 02B0     		add	sp, sp, #8
 2283              		.cfi_def_cfa_offset 0
 2284              		@ sp needed
 2285 000c 7047     		bx	lr
 2286              		.cfi_endproc
 2287              	.LFE749:
 2288              		.size	_ZNK3r2p10StaticListINS_15LocalSubscriberEE15get_head_unsafeEv, .-_ZNK3r2p10StaticListINS_15
 2289 000e 00BF     		.text
 2290              	.Letext0:
 2291              		.file 14 "/opt/R2P/tools/gcc-arm-none-eabi-4_9-2014q4/lib/gcc/arm-none-eabi/4.9.3/include/stddef.h
 2292              		.file 15 "/opt/R2P/tools/gcc-arm-none-eabi-4_9-2014q4/arm-none-eabi/include/machine/_default_types
 2293              		.file 16 "/opt/R2P/tools/gcc-arm-none-eabi-4_9-2014q4/arm-none-eabi/include/c++/4.9.3/cstring"
 2294              		.file 17 "/opt/R2P/tools/gcc-arm-none-eabi-4_9-2014q4/arm-none-eabi/include/string.h"
 2295              		.file 18 "<built-in>"
 2296              		.file 19 "/opt/R2P/core/Middleware/port/chibios/include/r2p/impl/MemoryPool_.hpp"
 2297              		.file 20 "/opt/R2P/core/Middleware/include/r2p/Message.hpp"
 2298              		.file 21 "/opt/R2P/core/Middleware/include/r2p/Node.hpp"
 2299              		.file 22 "/opt/R2P/core/Middleware/include/r2p/Topic.hpp"
 2300              		.file 23 "/opt/R2P/tools/gcc-arm-none-eabi-4_9-2014q4/arm-none-eabi/include/stdint.h"
 2301              		.file 24 "/opt/R2P/core/ChibiOS_2.6.5/os/ports/GCC/ARMCMx/chtypes.h"
 2302              		.file 25 "/opt/R2P/core/ChibiOS_2.6.5/os/kernel/include/chlists.h"
 2303              		.file 26 "/opt/R2P/core/ChibiOS_2.6.5/os/kernel/include/chthreads.h"
 2304              		.file 27 "/opt/R2P/core/ChibiOS_2.6.5/os/ports/GCC/ARMCMx/chcore_v7m.h"
 2305              		.file 28 "/opt/R2P/core/ChibiOS_2.6.5/os/kernel/include/chschd.h"
 2306              		.file 29 "/opt/R2P/core/ChibiOS_2.6.5/os/kernel/include/chmtx.h"
 2307              		.file 30 "/opt/R2P/core/ChibiOS_2.6.5/os/kernel/include/chmemcore.h"
 2308              		.file 31 "/opt/R2P/core/ChibiOS_2.6.5/os/kernel/include/chmempools.h"
 2309              		.file 32 "/opt/R2P/core/Middleware/port/chibios/include/r2p/impl/Flasher_.hpp"
 2310              		.file 33 "/opt/R2P/core/ChibiOS_2.6.5/os/ports/common/ARMCMx/CMSIS/include/core_cm4.h"