ARM GAS  /tmp/cccrmY7M.s 			page 1


   1              		.syntax unified
   2              		.cpu cortex-m4
   3              		.fpu softvfp
   4              		.eabi_attribute 20, 1
   5              		.eabi_attribute 21, 1
   6              		.eabi_attribute 23, 3
   7              		.eabi_attribute 24, 1
   8              		.eabi_attribute 25, 1
   9              		.eabi_attribute 26, 1
  10              		.eabi_attribute 30, 6
  11              		.eabi_attribute 34, 1
  12              		.eabi_attribute 18, 4
  13              		.thumb
  14              		.file	"RemotePublisher.cpp"
  15              		.text
  16              	.Ltext0:
  17              		.cfi_sections	.debug_frame
  18              		.align	2
  19              		.global	_ZN3r2p15RemotePublisherC2ERNS_9TransportE
  20              		.thumb
  21              		.thumb_func
  22              		.type	_ZN3r2p15RemotePublisherC2ERNS_9TransportE, %function
  23              	_ZN3r2p15RemotePublisherC2ERNS_9TransportE:
  24              	.LFB325:
  25              		.file 1 "/opt/R2P/core/Middleware/src/RemotePublisher.cpp"
  26              		.loc 1 6 0
  27              		.cfi_startproc
  28              		@ args = 0, pretend = 0, frame = 8
  29              		@ frame_needed = 0, uses_anonymous_args = 0
  30 0000 00B5     		push	{lr}
  31              		.cfi_def_cfa_offset 4
  32              		.cfi_offset 14, -4
  33 0002 83B0     		sub	sp, sp, #12
  34              		.cfi_def_cfa_offset 16
  35 0004 0190     		str	r0, [sp, #4]
  36 0006 0091     		str	r1, [sp]
  37              	.LBB2:
  38              		.loc 1 10 0
  39 0008 019B     		ldr	r3, [sp, #4]
  40 000a 1846     		mov	r0, r3
  41 000c FFF7FEFF 		bl	_ZN3r2p13BasePublisherC2Ev
  42 0010 019B     		ldr	r3, [sp, #4]
  43 0012 084A     		ldr	r2, .L4
  44 0014 1A60     		str	r2, [r3]
  45 0016 019B     		ldr	r3, [sp, #4]
  46 0018 009A     		ldr	r2, [sp]
  47 001a 9A60     		str	r2, [r3, #8]
  48 001c 019B     		ldr	r3, [sp, #4]
  49 001e 0C33     		adds	r3, r3, #12
  50 0020 1846     		mov	r0, r3
  51 0022 0199     		ldr	r1, [sp, #4]
  52 0024 FFF7FEFF 		bl	_ZN3r2p10StaticListINS_15RemotePublisherEE4LinkC1ERS1_
  53              	.LBE2:
  54              		.loc 1 11 0
  55 0028 019B     		ldr	r3, [sp, #4]
  56 002a 1846     		mov	r0, r3
  57 002c 03B0     		add	sp, sp, #12
ARM GAS  /tmp/cccrmY7M.s 			page 2


  58              		.cfi_def_cfa_offset 4
  59              		@ sp needed
  60 002e 5DF804FB 		ldr	pc, [sp], #4
  61              	.L5:
  62 0032 00BF     		.align	2
  63              	.L4:
  64 0034 08000000 		.word	_ZTVN3r2p15RemotePublisherE+8
  65              		.cfi_endproc
  66              	.LFE325:
  67              		.size	_ZN3r2p15RemotePublisherC2ERNS_9TransportE, .-_ZN3r2p15RemotePublisherC2ERNS_9TransportE
  68              		.global	_ZN3r2p15RemotePublisherC1ERNS_9TransportE
  69              		.thumb_set _ZN3r2p15RemotePublisherC1ERNS_9TransportE,_ZN3r2p15RemotePublisherC2ERNS_9TransportE
  70              		.align	2
  71              		.global	_ZN3r2p15RemotePublisherD2Ev
  72              		.thumb
  73              		.thumb_func
  74              		.type	_ZN3r2p15RemotePublisherD2Ev, %function
  75              	_ZN3r2p15RemotePublisherD2Ev:
  76              	.LFB328:
  77              		.loc 1 14 0
  78              		.cfi_startproc
  79              		@ args = 0, pretend = 0, frame = 8
  80              		@ frame_needed = 0, uses_anonymous_args = 0
  81 0038 00B5     		push	{lr}
  82              		.cfi_def_cfa_offset 4
  83              		.cfi_offset 14, -4
  84 003a 83B0     		sub	sp, sp, #12
  85              		.cfi_def_cfa_offset 16
  86 003c 0190     		str	r0, [sp, #4]
  87              	.LBB3:
  88              		.loc 1 14 0
  89 003e 019B     		ldr	r3, [sp, #4]
  90 0040 084A     		ldr	r2, .L10
  91 0042 1A60     		str	r2, [r3]
  92 0044 019B     		ldr	r3, [sp, #4]
  93 0046 1846     		mov	r0, r3
  94 0048 FFF7FEFF 		bl	_ZN3r2p13BasePublisherD2Ev
  95              	.LBE3:
  96 004c 0023     		movs	r3, #0
  97 004e 002B     		cmp	r3, #0
  98 0050 02D0     		beq	.L8
  99              		.loc 1 14 0 is_stmt 0 discriminator 2
 100 0052 0198     		ldr	r0, [sp, #4]
 101 0054 FFF7FEFF 		bl	_ZdlPv
 102              	.L8:
 103              		.loc 1 14 0 discriminator 4
 104 0058 019B     		ldr	r3, [sp, #4]
 105 005a 1846     		mov	r0, r3
 106 005c 03B0     		add	sp, sp, #12
 107              		.cfi_def_cfa_offset 4
 108              		@ sp needed
 109 005e 5DF804FB 		ldr	pc, [sp], #4
 110              	.L11:
 111 0062 00BF     		.align	2
 112              	.L10:
 113 0064 08000000 		.word	_ZTVN3r2p15RemotePublisherE+8
 114              		.cfi_endproc
ARM GAS  /tmp/cccrmY7M.s 			page 3


 115              	.LFE328:
 116              		.size	_ZN3r2p15RemotePublisherD2Ev, .-_ZN3r2p15RemotePublisherD2Ev
 117              		.global	_ZN3r2p15RemotePublisherD1Ev
 118              		.thumb_set _ZN3r2p15RemotePublisherD1Ev,_ZN3r2p15RemotePublisherD2Ev
 119              		.align	2
 120              		.global	_ZN3r2p15RemotePublisherD0Ev
 121              		.thumb
 122              		.thumb_func
 123              		.type	_ZN3r2p15RemotePublisherD0Ev, %function
 124              	_ZN3r2p15RemotePublisherD0Ev:
 125              	.LFB330:
 126              		.loc 1 14 0 is_stmt 1
 127              		.cfi_startproc
 128              		@ args = 0, pretend = 0, frame = 8
 129              		@ frame_needed = 0, uses_anonymous_args = 0
 130 0068 00B5     		push	{lr}
 131              		.cfi_def_cfa_offset 4
 132              		.cfi_offset 14, -4
 133 006a 83B0     		sub	sp, sp, #12
 134              		.cfi_def_cfa_offset 16
 135 006c 0190     		str	r0, [sp, #4]
 136              		.loc 1 14 0
 137 006e 0198     		ldr	r0, [sp, #4]
 138 0070 FFF7FEFF 		bl	_ZN3r2p15RemotePublisherD2Ev
 139 0074 0198     		ldr	r0, [sp, #4]
 140 0076 FFF7FEFF 		bl	_ZdlPv
 141 007a 019B     		ldr	r3, [sp, #4]
 142 007c 1846     		mov	r0, r3
 143 007e 03B0     		add	sp, sp, #12
 144              		.cfi_def_cfa_offset 4
 145              		@ sp needed
 146 0080 5DF804FB 		ldr	pc, [sp], #4
 147              		.cfi_endproc
 148              	.LFE330:
 149              		.size	_ZN3r2p15RemotePublisherD0Ev, .-_ZN3r2p15RemotePublisherD0Ev
 150              		.section	.text._ZN3r2p10StaticListINS_15RemotePublisherEE4LinkC2ERS1_,"axG",%progbits,_ZN3r2p10Sta
 151              		.align	2
 152              		.weak	_ZN3r2p10StaticListINS_15RemotePublisherEE4LinkC2ERS1_
 153              		.thumb
 154              		.thumb_func
 155              		.type	_ZN3r2p10StaticListINS_15RemotePublisherEE4LinkC2ERS1_, %function
 156              	_ZN3r2p10StaticListINS_15RemotePublisherEE4LinkC2ERS1_:
 157              	.LFB346:
 158              		.file 2 "/opt/R2P/core/Middleware/include/r2p/StaticList.hpp"
 159              		.loc 2 21 0
 160              		.cfi_startproc
 161              		@ args = 0, pretend = 0, frame = 8
 162              		@ frame_needed = 0, uses_anonymous_args = 0
 163              		@ link register save eliminated.
 164 0000 82B0     		sub	sp, sp, #8
 165              		.cfi_def_cfa_offset 8
 166 0002 0190     		str	r0, [sp, #4]
 167 0004 0091     		str	r1, [sp]
 168              	.LBB4:
 169              		.loc 2 21 0
 170 0006 019B     		ldr	r3, [sp, #4]
 171 0008 0022     		movs	r2, #0
ARM GAS  /tmp/cccrmY7M.s 			page 4


 172 000a 1A60     		str	r2, [r3]
 173 000c 019B     		ldr	r3, [sp, #4]
 174 000e 009A     		ldr	r2, [sp]
 175 0010 5A60     		str	r2, [r3, #4]
 176              	.LBE4:
 177 0012 019B     		ldr	r3, [sp, #4]
 178 0014 1846     		mov	r0, r3
 179 0016 02B0     		add	sp, sp, #8
 180              		.cfi_def_cfa_offset 0
 181              		@ sp needed
 182 0018 7047     		bx	lr
 183              		.cfi_endproc
 184              	.LFE346:
 185              		.size	_ZN3r2p10StaticListINS_15RemotePublisherEE4LinkC2ERS1_, .-_ZN3r2p10StaticListINS_15RemotePub
 186              		.weak	_ZN3r2p10StaticListINS_15RemotePublisherEE4LinkC1ERS1_
 187              		.thumb_set _ZN3r2p10StaticListINS_15RemotePublisherEE4LinkC1ERS1_,_ZN3r2p10StaticListINS_15RemoteP
 188              		.weak	_ZTVN3r2p15RemotePublisherE
 189 001a 00BF     		.section	.rodata._ZTVN3r2p15RemotePublisherE,"aG",%progbits,_ZTVN3r2p15RemotePublisherE,comdat
 190              		.align	3
 191              		.type	_ZTVN3r2p15RemotePublisherE, %object
 192              		.size	_ZTVN3r2p15RemotePublisherE, 16
 193              	_ZTVN3r2p15RemotePublisherE:
 194 0000 00000000 		.word	0
 195 0004 00000000 		.word	0
 196 0008 00000000 		.word	__cxa_pure_virtual
 197 000c 00000000 		.word	__cxa_pure_virtual
 198              		.text
 199              	.Letext0:
 200              		.file 3 "/opt/R2P/tools/gcc-arm-none-eabi-4_9-2014q4/lib/gcc/arm-none-eabi/4.9.3/include/stddef.h"
 201              		.file 4 "/opt/R2P/tools/gcc-arm-none-eabi-4_9-2014q4/arm-none-eabi/include/machine/_default_types.
 202              		.file 5 "/opt/R2P/tools/gcc-arm-none-eabi-4_9-2014q4/arm-none-eabi/include/c++/4.9.3/cstring"
 203              		.file 6 "/opt/R2P/tools/gcc-arm-none-eabi-4_9-2014q4/arm-none-eabi/include/string.h"
 204              		.file 7 "<built-in>"
 205              		.file 8 "/opt/R2P/core/Middleware/include/r2p/Uncopyable.hpp"
 206              		.file 9 "/opt/R2P/core/Middleware/include/r2p/Message.hpp"
 207              		.file 10 "/opt/R2P/core/Middleware/port/chibios/include/r2p/impl/MemoryPool_.hpp"
 208              		.file 11 "/opt/R2P/core/Middleware/include/r2p/Time.hpp"
 209              		.file 12 "/opt/R2P/core/Middleware/include/r2p/Topic.hpp"
 210              		.file 13 "/opt/R2P/core/Middleware/include/r2p/RemotePublisher.hpp"
 211              		.file 14 "/opt/R2P/core/Middleware/include/r2p/BasePublisher.hpp"
 212              		.file 15 "/opt/R2P/tools/gcc-arm-none-eabi-4_9-2014q4/arm-none-eabi/include/stdint.h"
 213              		.file 16 "/opt/R2P/core/ChibiOS_2.6.5/os/ports/GCC/ARMCMx/chtypes.h"
 214              		.file 17 "/opt/R2P/core/ChibiOS_2.6.5/os/kernel/include/chlists.h"
 215              		.file 18 "/opt/R2P/core/ChibiOS_2.6.5/os/kernel/include/chthreads.h"
 216              		.file 19 "/opt/R2P/core/ChibiOS_2.6.5/os/ports/GCC/ARMCMx/chcore_v7m.h"
 217              		.file 20 "/opt/R2P/core/ChibiOS_2.6.5/os/kernel/include/chschd.h"
 218              		.file 21 "/opt/R2P/core/ChibiOS_2.6.5/os/kernel/include/chmtx.h"
 219              		.file 22 "/opt/R2P/core/ChibiOS_2.6.5/os/kernel/include/chmemcore.h"
 220              		.file 23 "/opt/R2P/core/ChibiOS_2.6.5/os/kernel/include/chmempools.h"