ARM GAS  /tmp/cc4KpdGR.s 			page 1


   1              		.syntax unified
   2              		.cpu cortex-m4
   3              		.fpu softvfp
   4              		.eabi_attribute 20, 1
   5              		.eabi_attribute 21, 1
   6              		.eabi_attribute 23, 3
   7              		.eabi_attribute 24, 1
   8              		.eabi_attribute 25, 1
   9              		.eabi_attribute 26, 1
  10              		.eabi_attribute 30, 6
  11              		.eabi_attribute 34, 1
  12              		.eabi_attribute 18, 4
  13              		.thumb
  14              		.file	"RemoteSubscriber.cpp"
  15              		.text
  16              	.Ltext0:
  17              		.cfi_sections	.debug_frame
  18              		.align	2
  19              		.global	_ZN3r2p16RemoteSubscriberC2ERNS_9TransportE
  20              		.thumb
  21              		.thumb_func
  22              		.type	_ZN3r2p16RemoteSubscriberC2ERNS_9TransportE, %function
  23              	_ZN3r2p16RemoteSubscriberC2ERNS_9TransportE:
  24              	.LFB167:
  25              		.file 1 "/opt/R2P/core/Middleware/src/RemoteSubscriber.cpp"
  26              		.loc 1 7 0
  27              		.cfi_startproc
  28              		@ args = 0, pretend = 0, frame = 8
  29              		@ frame_needed = 0, uses_anonymous_args = 0
  30 0000 00B5     		push	{lr}
  31              		.cfi_def_cfa_offset 4
  32              		.cfi_offset 14, -4
  33 0002 83B0     		sub	sp, sp, #12
  34              		.cfi_def_cfa_offset 16
  35 0004 0190     		str	r0, [sp, #4]
  36 0006 0091     		str	r1, [sp]
  37              	.LBB2:
  38              		.loc 1 12 0
  39 0008 019B     		ldr	r3, [sp, #4]
  40 000a 1846     		mov	r0, r3
  41 000c FFF7FEFF 		bl	_ZN3r2p14BaseSubscriberC2Ev
  42 0010 019B     		ldr	r3, [sp, #4]
  43 0012 0B4A     		ldr	r2, .L4
  44 0014 1A60     		str	r2, [r3]
  45 0016 019B     		ldr	r3, [sp, #4]
  46 0018 009A     		ldr	r2, [sp]
  47 001a 9A60     		str	r2, [r3, #8]
  48 001c 019B     		ldr	r3, [sp, #4]
  49 001e 0C33     		adds	r3, r3, #12
  50 0020 1846     		mov	r0, r3
  51 0022 0199     		ldr	r1, [sp, #4]
  52 0024 FFF7FEFF 		bl	_ZN3r2p10StaticListINS_16RemoteSubscriberEE4LinkC1ERS1_
  53 0028 019B     		ldr	r3, [sp, #4]
  54 002a 1433     		adds	r3, r3, #20
  55 002c 1846     		mov	r0, r3
  56 002e 0199     		ldr	r1, [sp, #4]
  57 0030 FFF7FEFF 		bl	_ZN3r2p10StaticListINS_16RemoteSubscriberEE4LinkC1ERS1_
ARM GAS  /tmp/cc4KpdGR.s 			page 2


  58              	.LBE2:
  59              		.loc 1 13 0
  60 0034 019B     		ldr	r3, [sp, #4]
  61 0036 1846     		mov	r0, r3
  62 0038 03B0     		add	sp, sp, #12
  63              		.cfi_def_cfa_offset 4
  64              		@ sp needed
  65 003a 5DF804FB 		ldr	pc, [sp], #4
  66              	.L5:
  67 003e 00BF     		.align	2
  68              	.L4:
  69 0040 08000000 		.word	_ZTVN3r2p16RemoteSubscriberE+8
  70              		.cfi_endproc
  71              	.LFE167:
  72              		.size	_ZN3r2p16RemoteSubscriberC2ERNS_9TransportE, .-_ZN3r2p16RemoteSubscriberC2ERNS_9TransportE
  73              		.global	_ZN3r2p16RemoteSubscriberC1ERNS_9TransportE
  74              		.thumb_set _ZN3r2p16RemoteSubscriberC1ERNS_9TransportE,_ZN3r2p16RemoteSubscriberC2ERNS_9TransportE
  75              		.align	2
  76              		.global	_ZN3r2p16RemoteSubscriberD2Ev
  77              		.thumb
  78              		.thumb_func
  79              		.type	_ZN3r2p16RemoteSubscriberD2Ev, %function
  80              	_ZN3r2p16RemoteSubscriberD2Ev:
  81              	.LFB170:
  82              		.loc 1 16 0
  83              		.cfi_startproc
  84              		@ args = 0, pretend = 0, frame = 8
  85              		@ frame_needed = 0, uses_anonymous_args = 0
  86 0044 00B5     		push	{lr}
  87              		.cfi_def_cfa_offset 4
  88              		.cfi_offset 14, -4
  89 0046 83B0     		sub	sp, sp, #12
  90              		.cfi_def_cfa_offset 16
  91 0048 0190     		str	r0, [sp, #4]
  92              	.LBB3:
  93              		.loc 1 16 0
  94 004a 019B     		ldr	r3, [sp, #4]
  95 004c 084A     		ldr	r2, .L10
  96 004e 1A60     		str	r2, [r3]
  97 0050 019B     		ldr	r3, [sp, #4]
  98 0052 1846     		mov	r0, r3
  99 0054 FFF7FEFF 		bl	_ZN3r2p14BaseSubscriberD2Ev
 100              	.LBE3:
 101 0058 0023     		movs	r3, #0
 102 005a 002B     		cmp	r3, #0
 103 005c 02D0     		beq	.L8
 104              		.loc 1 16 0 is_stmt 0 discriminator 2
 105 005e 0198     		ldr	r0, [sp, #4]
 106 0060 FFF7FEFF 		bl	_ZdlPv
 107              	.L8:
 108              		.loc 1 16 0 discriminator 4
 109 0064 019B     		ldr	r3, [sp, #4]
 110 0066 1846     		mov	r0, r3
 111 0068 03B0     		add	sp, sp, #12
 112              		.cfi_def_cfa_offset 4
 113              		@ sp needed
 114 006a 5DF804FB 		ldr	pc, [sp], #4
ARM GAS  /tmp/cc4KpdGR.s 			page 3


 115              	.L11:
 116 006e 00BF     		.align	2
 117              	.L10:
 118 0070 08000000 		.word	_ZTVN3r2p16RemoteSubscriberE+8
 119              		.cfi_endproc
 120              	.LFE170:
 121              		.size	_ZN3r2p16RemoteSubscriberD2Ev, .-_ZN3r2p16RemoteSubscriberD2Ev
 122              		.global	_ZN3r2p16RemoteSubscriberD1Ev
 123              		.thumb_set _ZN3r2p16RemoteSubscriberD1Ev,_ZN3r2p16RemoteSubscriberD2Ev
 124              		.align	2
 125              		.global	_ZN3r2p16RemoteSubscriberD0Ev
 126              		.thumb
 127              		.thumb_func
 128              		.type	_ZN3r2p16RemoteSubscriberD0Ev, %function
 129              	_ZN3r2p16RemoteSubscriberD0Ev:
 130              	.LFB172:
 131              		.loc 1 16 0 is_stmt 1
 132              		.cfi_startproc
 133              		@ args = 0, pretend = 0, frame = 8
 134              		@ frame_needed = 0, uses_anonymous_args = 0
 135 0074 00B5     		push	{lr}
 136              		.cfi_def_cfa_offset 4
 137              		.cfi_offset 14, -4
 138 0076 83B0     		sub	sp, sp, #12
 139              		.cfi_def_cfa_offset 16
 140 0078 0190     		str	r0, [sp, #4]
 141              		.loc 1 16 0
 142 007a 0198     		ldr	r0, [sp, #4]
 143 007c FFF7FEFF 		bl	_ZN3r2p16RemoteSubscriberD2Ev
 144 0080 0198     		ldr	r0, [sp, #4]
 145 0082 FFF7FEFF 		bl	_ZdlPv
 146 0086 019B     		ldr	r3, [sp, #4]
 147 0088 1846     		mov	r0, r3
 148 008a 03B0     		add	sp, sp, #12
 149              		.cfi_def_cfa_offset 4
 150              		@ sp needed
 151 008c 5DF804FB 		ldr	pc, [sp], #4
 152              		.cfi_endproc
 153              	.LFE172:
 154              		.size	_ZN3r2p16RemoteSubscriberD0Ev, .-_ZN3r2p16RemoteSubscriberD0Ev
 155              		.section	.text._ZN3r2p10StaticListINS_16RemoteSubscriberEE4LinkC2ERS1_,"axG",%progbits,_ZN3r2p10St
 156              		.align	2
 157              		.weak	_ZN3r2p10StaticListINS_16RemoteSubscriberEE4LinkC2ERS1_
 158              		.thumb
 159              		.thumb_func
 160              		.type	_ZN3r2p10StaticListINS_16RemoteSubscriberEE4LinkC2ERS1_, %function
 161              	_ZN3r2p10StaticListINS_16RemoteSubscriberEE4LinkC2ERS1_:
 162              	.LFB174:
 163              		.file 2 "/opt/R2P/core/Middleware/include/r2p/StaticList.hpp"
 164              		.loc 2 21 0
 165              		.cfi_startproc
 166              		@ args = 0, pretend = 0, frame = 8
 167              		@ frame_needed = 0, uses_anonymous_args = 0
 168              		@ link register save eliminated.
 169 0000 82B0     		sub	sp, sp, #8
 170              		.cfi_def_cfa_offset 8
 171 0002 0190     		str	r0, [sp, #4]
ARM GAS  /tmp/cc4KpdGR.s 			page 4


 172 0004 0091     		str	r1, [sp]
 173              	.LBB4:
 174              		.loc 2 21 0
 175 0006 019B     		ldr	r3, [sp, #4]
 176 0008 0022     		movs	r2, #0
 177 000a 1A60     		str	r2, [r3]
 178 000c 019B     		ldr	r3, [sp, #4]
 179 000e 009A     		ldr	r2, [sp]
 180 0010 5A60     		str	r2, [r3, #4]
 181              	.LBE4:
 182 0012 019B     		ldr	r3, [sp, #4]
 183 0014 1846     		mov	r0, r3
 184 0016 02B0     		add	sp, sp, #8
 185              		.cfi_def_cfa_offset 0
 186              		@ sp needed
 187 0018 7047     		bx	lr
 188              		.cfi_endproc
 189              	.LFE174:
 190              		.size	_ZN3r2p10StaticListINS_16RemoteSubscriberEE4LinkC2ERS1_, .-_ZN3r2p10StaticListINS_16RemoteSu
 191              		.weak	_ZN3r2p10StaticListINS_16RemoteSubscriberEE4LinkC1ERS1_
 192              		.thumb_set _ZN3r2p10StaticListINS_16RemoteSubscriberEE4LinkC1ERS1_,_ZN3r2p10StaticListINS_16Remote
 193              		.weak	_ZTVN3r2p16RemoteSubscriberE
 194 001a 00BF     		.section	.rodata._ZTVN3r2p16RemoteSubscriberE,"aG",%progbits,_ZTVN3r2p16RemoteSubscriberE,comdat
 195              		.align	3
 196              		.type	_ZTVN3r2p16RemoteSubscriberE, %object
 197              		.size	_ZTVN3r2p16RemoteSubscriberE, 36
 198              	_ZTVN3r2p16RemoteSubscriberE:
 199 0000 00000000 		.word	0
 200 0004 00000000 		.word	0
 201 0008 00000000 		.word	__cxa_pure_virtual
 202 000c 00000000 		.word	__cxa_pure_virtual
 203 0010 00000000 		.word	__cxa_pure_virtual
 204 0014 00000000 		.word	__cxa_pure_virtual
 205 0018 00000000 		.word	__cxa_pure_virtual
 206 001c 00000000 		.word	__cxa_pure_virtual
 207 0020 00000000 		.word	__cxa_pure_virtual
 208 0024 00000000 		.text
 209              	.Letext0:
 210              		.file 3 "/opt/R2P/tools/gcc-arm-none-eabi-4_9-2014q4/arm-none-eabi/include/c++/4.9.3/cstring"
 211              		.file 4 "/opt/R2P/tools/gcc-arm-none-eabi-4_9-2014q4/arm-none-eabi/include/string.h"
 212              		.file 5 "<built-in>"
 213              		.file 6 "/opt/R2P/core/Middleware/include/r2p/Uncopyable.hpp"
 214              		.file 7 "/opt/R2P/tools/gcc-arm-none-eabi-4_9-2014q4/lib/gcc/arm-none-eabi/4.9.3/include/stddef.h"
 215              		.file 8 "/opt/R2P/core/Middleware/include/r2p/RemoteSubscriber.hpp"
 216              		.file 9 "/opt/R2P/core/Middleware/include/r2p/BaseSubscriber.hpp"