ARM GAS  /tmp/cct6I63s.s 			page 1


   1              		.syntax unified
   2              		.cpu cortex-m4
   3              		.fpu softvfp
   4              		.eabi_attribute 20, 1
   5              		.eabi_attribute 21, 1
   6              		.eabi_attribute 23, 3
   7              		.eabi_attribute 24, 1
   8              		.eabi_attribute 25, 1
   9              		.eabi_attribute 26, 1
  10              		.eabi_attribute 30, 6
  11              		.eabi_attribute 34, 1
  12              		.eabi_attribute 18, 4
  13              		.thumb
  14              		.file	"rtcan_lld_can.c"
  15              		.text
  16              	.Ltext0:
  17              		.cfi_sections	.debug_frame
  18              		.comm	RTCAND1,96,4
  19              		.align	2
  20              		.thumb
  21              		.thumb_func
  22              		.type	rtcan_lld_can_tx_handler, %function
  23              	rtcan_lld_can_tx_handler:
  24              	.LFB118:
  25              		.file 1 "/opt/R2P/core/RTCAN/platforms/STM32/rtcan_lld_can.c"
  26              		.loc 1 40 0
  27              		.cfi_startproc
  28              		@ args = 0, pretend = 0, frame = 16
  29              		@ frame_needed = 0, uses_anonymous_args = 0
  30 0000 00B5     		push	{lr}
  31              		.cfi_def_cfa_offset 4
  32              		.cfi_offset 14, -4
  33 0002 85B0     		sub	sp, sp, #20
  34              		.cfi_def_cfa_offset 24
  35 0004 0190     		str	r0, [sp, #4]
  36              		.loc 1 41 0
  37 0006 019B     		ldr	r3, [sp, #4]
  38 0008 DB6D     		ldr	r3, [r3, #92]
  39 000a 0393     		str	r3, [sp, #12]
  40              		.loc 1 44 0
  41 000c 039B     		ldr	r3, [sp, #12]
  42 000e 9B68     		ldr	r3, [r3, #8]
  43 0010 0293     		str	r3, [sp, #8]
  44              		.loc 1 47 0
  45 0012 039B     		ldr	r3, [sp, #12]
  46 0014 2A4A     		ldr	r2, .L11
  47 0016 9A60     		str	r2, [r3, #8]
  48              		.loc 1 49 0
  49 0018 029B     		ldr	r3, [sp, #8]
  50 001a 03F00203 		and	r3, r3, #2
  51 001e 002B     		cmp	r3, #0
  52 0020 03D0     		beq	.L2
  53              		.loc 1 50 0
  54 0022 0198     		ldr	r0, [sp, #4]
  55 0024 0021     		movs	r1, #0
  56 0026 FFF7FEFF 		bl	rtcan_txok_isr_code
  57              	.L2:
ARM GAS  /tmp/cct6I63s.s 			page 2


  58              		.loc 1 53 0
  59 002a 029B     		ldr	r3, [sp, #8]
  60 002c 03F40073 		and	r3, r3, #512
  61 0030 002B     		cmp	r3, #0
  62 0032 03D0     		beq	.L3
  63              		.loc 1 54 0
  64 0034 0198     		ldr	r0, [sp, #4]
  65 0036 0121     		movs	r1, #1
  66 0038 FFF7FEFF 		bl	rtcan_txok_isr_code
  67              	.L3:
  68              		.loc 1 57 0
  69 003c 029B     		ldr	r3, [sp, #8]
  70 003e 03F40033 		and	r3, r3, #131072
  71 0042 002B     		cmp	r3, #0
  72 0044 03D0     		beq	.L4
  73              		.loc 1 58 0
  74 0046 0198     		ldr	r0, [sp, #4]
  75 0048 0221     		movs	r1, #2
  76 004a FFF7FEFF 		bl	rtcan_txok_isr_code
  77              	.L4:
  78              		.loc 1 61 0
  79 004e 029B     		ldr	r3, [sp, #8]
  80 0050 03F00403 		and	r3, r3, #4
  81 0054 002B     		cmp	r3, #0
  82 0056 03D0     		beq	.L5
  83              		.loc 1 62 0
  84 0058 0198     		ldr	r0, [sp, #4]
  85 005a 0021     		movs	r1, #0
  86 005c FFF7FEFF 		bl	rtcan_alst_isr_code
  87              	.L5:
  88              		.loc 1 65 0
  89 0060 029B     		ldr	r3, [sp, #8]
  90 0062 03F48063 		and	r3, r3, #1024
  91 0066 002B     		cmp	r3, #0
  92 0068 03D0     		beq	.L6
  93              		.loc 1 66 0
  94 006a 0198     		ldr	r0, [sp, #4]
  95 006c 0121     		movs	r1, #1
  96 006e FFF7FEFF 		bl	rtcan_alst_isr_code
  97              	.L6:
  98              		.loc 1 69 0
  99 0072 029B     		ldr	r3, [sp, #8]
 100 0074 03F48023 		and	r3, r3, #262144
 101 0078 002B     		cmp	r3, #0
 102 007a 03D0     		beq	.L7
 103              		.loc 1 70 0
 104 007c 0198     		ldr	r0, [sp, #4]
 105 007e 0221     		movs	r1, #2
 106 0080 FFF7FEFF 		bl	rtcan_alst_isr_code
 107              	.L7:
 108              		.loc 1 73 0
 109 0084 029B     		ldr	r3, [sp, #8]
 110 0086 03F00803 		and	r3, r3, #8
 111 008a 002B     		cmp	r3, #0
 112 008c 03D0     		beq	.L8
 113              		.loc 1 74 0
 114 008e 0198     		ldr	r0, [sp, #4]
ARM GAS  /tmp/cct6I63s.s 			page 3


 115 0090 0021     		movs	r1, #0
 116 0092 FFF7FEFF 		bl	rtcan_terr_isr_code
 117              	.L8:
 118              		.loc 1 77 0
 119 0096 029B     		ldr	r3, [sp, #8]
 120 0098 03F40063 		and	r3, r3, #2048
 121 009c 002B     		cmp	r3, #0
 122 009e 03D0     		beq	.L9
 123              		.loc 1 78 0
 124 00a0 0198     		ldr	r0, [sp, #4]
 125 00a2 0121     		movs	r1, #1
 126 00a4 FFF7FEFF 		bl	rtcan_terr_isr_code
 127              	.L9:
 128              		.loc 1 81 0
 129 00a8 029B     		ldr	r3, [sp, #8]
 130 00aa 03F40023 		and	r3, r3, #524288
 131 00ae 002B     		cmp	r3, #0
 132 00b0 03D0     		beq	.L1
 133              		.loc 1 82 0
 134 00b2 0198     		ldr	r0, [sp, #4]
 135 00b4 0221     		movs	r1, #2
 136 00b6 FFF7FEFF 		bl	rtcan_terr_isr_code
 137              	.L1:
 138              		.loc 1 84 0
 139 00ba 05B0     		add	sp, sp, #20
 140              		.cfi_def_cfa_offset 4
 141              		@ sp needed
 142 00bc 5DF804FB 		ldr	pc, [sp], #4
 143              	.L12:
 144              		.align	2
 145              	.L11:
 146 00c0 01010100 		.word	65793
 147              		.cfi_endproc
 148              	.LFE118:
 149              		.size	rtcan_lld_can_tx_handler, .-rtcan_lld_can_tx_handler
 150              		.align	2
 151              		.thumb
 152              		.thumb_func
 153              		.type	rtcan_lld_can_rx0_handler, %function
 154              	rtcan_lld_can_rx0_handler:
 155              	.LFB119:
 156              		.loc 1 93 0
 157              		.cfi_startproc
 158              		@ args = 0, pretend = 0, frame = 16
 159              		@ frame_needed = 0, uses_anonymous_args = 0
 160 00c4 00B5     		push	{lr}
 161              		.cfi_def_cfa_offset 4
 162              		.cfi_offset 14, -4
 163 00c6 85B0     		sub	sp, sp, #20
 164              		.cfi_def_cfa_offset 24
 165 00c8 0190     		str	r0, [sp, #4]
 166              		.loc 1 96 0
 167 00ca 019B     		ldr	r3, [sp, #4]
 168 00cc DB6D     		ldr	r3, [r3, #92]
 169 00ce DB68     		ldr	r3, [r3, #12]
 170 00d0 0393     		str	r3, [sp, #12]
 171              		.loc 1 97 0
ARM GAS  /tmp/cct6I63s.s 			page 4


 172 00d2 039B     		ldr	r3, [sp, #12]
 173 00d4 03F00303 		and	r3, r3, #3
 174 00d8 002B     		cmp	r3, #0
 175 00da 0AD0     		beq	.L14
 176              		.loc 1 99 0
 177 00dc 019B     		ldr	r3, [sp, #4]
 178 00de DB6D     		ldr	r3, [r3, #92]
 179 00e0 019A     		ldr	r2, [sp, #4]
 180 00e2 D26D     		ldr	r2, [r2, #92]
 181 00e4 5269     		ldr	r2, [r2, #20]
 182 00e6 22F00202 		bic	r2, r2, #2
 183 00ea 5A61     		str	r2, [r3, #20]
 184              		.loc 1 102 0
 185 00ec 0198     		ldr	r0, [sp, #4]
 186 00ee FFF7FEFF 		bl	rtcan_rx_isr_code
 187              	.L14:
 188              		.loc 1 104 0
 189 00f2 039B     		ldr	r3, [sp, #12]
 190 00f4 03F01003 		and	r3, r3, #16
 191 00f8 002B     		cmp	r3, #0
 192 00fa 03D0     		beq	.L13
 193              		.loc 1 106 0
 194 00fc 019B     		ldr	r3, [sp, #4]
 195 00fe DB6D     		ldr	r3, [r3, #92]
 196 0100 1022     		movs	r2, #16
 197 0102 DA60     		str	r2, [r3, #12]
 198              	.L13:
 199              		.loc 1 110 0
 200 0104 05B0     		add	sp, sp, #20
 201              		.cfi_def_cfa_offset 4
 202              		@ sp needed
 203 0106 5DF804FB 		ldr	pc, [sp], #4
 204              		.cfi_endproc
 205              	.LFE119:
 206              		.size	rtcan_lld_can_rx0_handler, .-rtcan_lld_can_rx0_handler
 207 010a 00BF     		.align	2
 208              		.thumb
 209              		.thumb_func
 210              		.type	rtcan_lld_can_rx1_handler, %function
 211              	rtcan_lld_can_rx1_handler:
 212              	.LFB120:
 213              		.loc 1 119 0
 214              		.cfi_startproc
 215              		@ args = 0, pretend = 0, frame = 16
 216              		@ frame_needed = 0, uses_anonymous_args = 0
 217              		@ link register save eliminated.
 218 010c 84B0     		sub	sp, sp, #16
 219              		.cfi_def_cfa_offset 16
 220 010e 0190     		str	r0, [sp, #4]
 221              		.loc 1 122 0
 222 0110 019B     		ldr	r3, [sp, #4]
 223 0112 DB6D     		ldr	r3, [r3, #92]
 224 0114 1B69     		ldr	r3, [r3, #16]
 225 0116 0393     		str	r3, [sp, #12]
 226              		.loc 1 123 0
 227 0118 039B     		ldr	r3, [sp, #12]
 228 011a 03F00303 		and	r3, r3, #3
ARM GAS  /tmp/cct6I63s.s 			page 5


 229 011e 002B     		cmp	r3, #0
 230 0120 07D0     		beq	.L17
 231              		.loc 1 125 0
 232 0122 019B     		ldr	r3, [sp, #4]
 233 0124 DB6D     		ldr	r3, [r3, #92]
 234 0126 019A     		ldr	r2, [sp, #4]
 235 0128 D26D     		ldr	r2, [r2, #92]
 236 012a 5269     		ldr	r2, [r2, #20]
 237 012c 22F01002 		bic	r2, r2, #16
 238 0130 5A61     		str	r2, [r3, #20]
 239              	.L17:
 240              		.loc 1 129 0
 241 0132 039B     		ldr	r3, [sp, #12]
 242 0134 03F01003 		and	r3, r3, #16
 243 0138 002B     		cmp	r3, #0
 244 013a 03D0     		beq	.L16
 245              		.loc 1 131 0
 246 013c 019B     		ldr	r3, [sp, #4]
 247 013e DB6D     		ldr	r3, [r3, #92]
 248 0140 1022     		movs	r2, #16
 249 0142 1A61     		str	r2, [r3, #16]
 250              	.L16:
 251              		.loc 1 135 0
 252 0144 04B0     		add	sp, sp, #16
 253              		.cfi_def_cfa_offset 0
 254              		@ sp needed
 255 0146 7047     		bx	lr
 256              		.cfi_endproc
 257              	.LFE120:
 258              		.size	rtcan_lld_can_rx1_handler, .-rtcan_lld_can_rx1_handler
 259              		.align	2
 260              		.thumb
 261              		.thumb_func
 262              		.type	rtcan_lld_can_sce_handler, %function
 263              	rtcan_lld_can_sce_handler:
 264              	.LFB121:
 265              		.loc 1 144 0
 266              		.cfi_startproc
 267              		@ args = 0, pretend = 0, frame = 24
 268              		@ frame_needed = 0, uses_anonymous_args = 0
 269              		@ link register save eliminated.
 270 0148 86B0     		sub	sp, sp, #24
 271              		.cfi_def_cfa_offset 24
 272 014a 0190     		str	r0, [sp, #4]
 273              		.loc 1 147 0
 274 014c 019B     		ldr	r3, [sp, #4]
 275 014e DB6D     		ldr	r3, [r3, #92]
 276 0150 5B68     		ldr	r3, [r3, #4]
 277 0152 0593     		str	r3, [sp, #20]
 278              		.loc 1 148 0
 279 0154 019B     		ldr	r3, [sp, #4]
 280 0156 DB6D     		ldr	r3, [r3, #92]
 281 0158 1C22     		movs	r2, #28
 282 015a 5A60     		str	r2, [r3, #4]
 283              		.loc 1 151 0
 284 015c 059B     		ldr	r3, [sp, #20]
 285 015e 03F00403 		and	r3, r3, #4
ARM GAS  /tmp/cct6I63s.s 			page 6


 286 0162 002B     		cmp	r3, #0
 287 0164 18D0     		beq	.L19
 288              	.LBB2:
 289              		.loc 1 153 0
 290 0166 019B     		ldr	r3, [sp, #4]
 291 0168 DB6D     		ldr	r3, [r3, #92]
 292 016a 9B69     		ldr	r3, [r3, #24]
 293 016c 0493     		str	r3, [sp, #16]
 294              		.loc 1 155 0
 295 016e 019B     		ldr	r3, [sp, #4]
 296 0170 DB6D     		ldr	r3, [r3, #92]
 297 0172 019A     		ldr	r2, [sp, #4]
 298 0174 D26D     		ldr	r2, [r2, #92]
 299 0176 9269     		ldr	r2, [r2, #24]
 300 0178 22F07002 		bic	r2, r2, #112
 301 017c 9A61     		str	r2, [r3, #24]
 302              		.loc 1 156 0
 303 017e 049B     		ldr	r3, [sp, #16]
 304 0180 03F00703 		and	r3, r3, #7
 305 0184 0393     		str	r3, [sp, #12]
 306              		.loc 1 157 0
 307 0186 049B     		ldr	r3, [sp, #16]
 308 0188 03F07003 		and	r3, r3, #112
 309 018c 002B     		cmp	r3, #0
 310 018e 03D0     		beq	.L19
 311              		.loc 1 158 0
 312 0190 039B     		ldr	r3, [sp, #12]
 313 0192 43F00803 		orr	r3, r3, #8
 314 0196 0393     		str	r3, [sp, #12]
 315              	.L19:
 316              	.LBE2:
 317              		.loc 1 162 0
 318 0198 06B0     		add	sp, sp, #24
 319              		.cfi_def_cfa_offset 0
 320              		@ sp needed
 321 019a 7047     		bx	lr
 322              		.cfi_endproc
 323              	.LFE121:
 324              		.size	rtcan_lld_can_sce_handler, .-rtcan_lld_can_sce_handler
 325              		.align	2
 326              		.global	Vector8C
 327              		.thumb
 328              		.thumb_func
 329              		.type	Vector8C, %function
 330              	Vector8C:
 331              	.LFB122:
 332              		.loc 1 174 0
 333              		.cfi_startproc
 334              		@ args = 0, pretend = 0, frame = 0
 335              		@ frame_needed = 0, uses_anonymous_args = 0
 336 019c 08B5     		push	{r3, lr}
 337              		.cfi_def_cfa_offset 8
 338              		.cfi_offset 3, -8
 339              		.cfi_offset 14, -4
 340              		.loc 1 176 0
 341 019e FFF7FEFF 		bl	dbg_check_enter_isr
 342              		.loc 1 178 0
ARM GAS  /tmp/cct6I63s.s 			page 7


 343 01a2 0448     		ldr	r0, .L22
 344 01a4 FFF72CFF 		bl	rtcan_lld_can_tx_handler
 345              		.loc 1 180 0
 346 01a8 FFF7FEFF 		bl	dbg_check_leave_isr
 347 01ac FFF7FEFF 		bl	_port_irq_epilogue
 348              		.loc 1 181 0
 349 01b0 08BD     		pop	{r3, pc}
 350              	.L23:
 351 01b2 00BF     		.align	2
 352              	.L22:
 353 01b4 00000000 		.word	RTCAND1
 354              		.cfi_endproc
 355              	.LFE122:
 356              		.size	Vector8C, .-Vector8C
 357              		.align	2
 358              		.global	Vector90
 359              		.thumb
 360              		.thumb_func
 361              		.type	Vector90, %function
 362              	Vector90:
 363              	.LFB123:
 364              		.loc 1 188 0
 365              		.cfi_startproc
 366              		@ args = 0, pretend = 0, frame = 0
 367              		@ frame_needed = 0, uses_anonymous_args = 0
 368 01b8 08B5     		push	{r3, lr}
 369              		.cfi_def_cfa_offset 8
 370              		.cfi_offset 3, -8
 371              		.cfi_offset 14, -4
 372              		.loc 1 190 0
 373 01ba FFF7FEFF 		bl	dbg_check_enter_isr
 374              		.loc 1 192 0
 375 01be 0448     		ldr	r0, .L25
 376 01c0 FFF780FF 		bl	rtcan_lld_can_rx0_handler
 377              		.loc 1 194 0
 378 01c4 FFF7FEFF 		bl	dbg_check_leave_isr
 379 01c8 FFF7FEFF 		bl	_port_irq_epilogue
 380              		.loc 1 195 0
 381 01cc 08BD     		pop	{r3, pc}
 382              	.L26:
 383 01ce 00BF     		.align	2
 384              	.L25:
 385 01d0 00000000 		.word	RTCAND1
 386              		.cfi_endproc
 387              	.LFE123:
 388              		.size	Vector90, .-Vector90
 389              		.align	2
 390              		.global	Vector94
 391              		.thumb
 392              		.thumb_func
 393              		.type	Vector94, %function
 394              	Vector94:
 395              	.LFB124:
 396              		.loc 1 202 0
 397              		.cfi_startproc
 398              		@ args = 0, pretend = 0, frame = 0
 399              		@ frame_needed = 0, uses_anonymous_args = 0
ARM GAS  /tmp/cct6I63s.s 			page 8


 400 01d4 08B5     		push	{r3, lr}
 401              		.cfi_def_cfa_offset 8
 402              		.cfi_offset 3, -8
 403              		.cfi_offset 14, -4
 404              		.loc 1 204 0
 405 01d6 FFF7FEFF 		bl	dbg_check_enter_isr
 406              		.loc 1 206 0
 407 01da 0448     		ldr	r0, .L28
 408 01dc FFF796FF 		bl	rtcan_lld_can_rx1_handler
 409              		.loc 1 208 0
 410 01e0 FFF7FEFF 		bl	dbg_check_leave_isr
 411 01e4 FFF7FEFF 		bl	_port_irq_epilogue
 412              		.loc 1 209 0
 413 01e8 08BD     		pop	{r3, pc}
 414              	.L29:
 415 01ea 00BF     		.align	2
 416              	.L28:
 417 01ec 00000000 		.word	RTCAND1
 418              		.cfi_endproc
 419              	.LFE124:
 420              		.size	Vector94, .-Vector94
 421              		.align	2
 422              		.global	Vector98
 423              		.thumb
 424              		.thumb_func
 425              		.type	Vector98, %function
 426              	Vector98:
 427              	.LFB125:
 428              		.loc 1 216 0
 429              		.cfi_startproc
 430              		@ args = 0, pretend = 0, frame = 0
 431              		@ frame_needed = 0, uses_anonymous_args = 0
 432 01f0 08B5     		push	{r3, lr}
 433              		.cfi_def_cfa_offset 8
 434              		.cfi_offset 3, -8
 435              		.cfi_offset 14, -4
 436              		.loc 1 218 0
 437 01f2 FFF7FEFF 		bl	dbg_check_enter_isr
 438              		.loc 1 220 0
 439 01f6 0448     		ldr	r0, .L31
 440 01f8 FFF7A6FF 		bl	rtcan_lld_can_sce_handler
 441              		.loc 1 222 0
 442 01fc FFF7FEFF 		bl	dbg_check_leave_isr
 443 0200 FFF7FEFF 		bl	_port_irq_epilogue
 444              		.loc 1 223 0
 445 0204 08BD     		pop	{r3, pc}
 446              	.L32:
 447 0206 00BF     		.align	2
 448              	.L31:
 449 0208 00000000 		.word	RTCAND1
 450              		.cfi_endproc
 451              	.LFE125:
 452              		.size	Vector98, .-Vector98
 453              		.align	2
 454              		.global	rtcan_lld_can_init
 455              		.thumb
 456              		.thumb_func
ARM GAS  /tmp/cct6I63s.s 			page 9


 457              		.type	rtcan_lld_can_init, %function
 458              	rtcan_lld_can_init:
 459              	.LFB126:
 460              		.loc 1 293 0
 461              		.cfi_startproc
 462              		@ args = 0, pretend = 0, frame = 0
 463              		@ frame_needed = 0, uses_anonymous_args = 0
 464 020c 08B5     		push	{r3, lr}
 465              		.cfi_def_cfa_offset 8
 466              		.cfi_offset 3, -8
 467              		.cfi_offset 14, -4
 468              		.loc 1 296 0
 469 020e 034B     		ldr	r3, .L34
 470 0210 034A     		ldr	r2, .L34+4
 471 0212 DA65     		str	r2, [r3, #92]
 472              		.loc 1 297 0
 473 0214 0148     		ldr	r0, .L34
 474 0216 FFF7FEFF 		bl	rtcanReset
 475              		.loc 1 304 0
 476 021a 08BD     		pop	{r3, pc}
 477              	.L35:
 478              		.align	2
 479              	.L34:
 480 021c 00000000 		.word	RTCAND1
 481 0220 00640040 		.word	1073767424
 482              		.cfi_endproc
 483              	.LFE126:
 484              		.size	rtcan_lld_can_init, .-rtcan_lld_can_init
 485              		.align	2
 486              		.global	rtcan_lld_can_start
 487              		.thumb
 488              		.thumb_func
 489              		.type	rtcan_lld_can_start, %function
 490              	rtcan_lld_can_start:
 491              	.LFB127:
 492              		.loc 1 313 0
 493              		.cfi_startproc
 494              		@ args = 0, pretend = 0, frame = 8
 495              		@ frame_needed = 0, uses_anonymous_args = 0
 496 0224 00B5     		push	{lr}
 497              		.cfi_def_cfa_offset 4
 498              		.cfi_offset 14, -4
 499 0226 83B0     		sub	sp, sp, #12
 500              		.cfi_def_cfa_offset 16
 501 0228 0190     		str	r0, [sp, #4]
 502              		.loc 1 316 0
 503 022a 1320     		movs	r0, #19
 504 022c B021     		movs	r1, #176
 505 022e FFF7FEFF 		bl	nvicEnableVector
 506              		.loc 1 318 0
 507 0232 1420     		movs	r0, #20
 508 0234 B021     		movs	r1, #176
 509 0236 FFF7FEFF 		bl	nvicEnableVector
 510              		.loc 1 320 0
 511 023a 1520     		movs	r0, #21
 512 023c B021     		movs	r1, #176
 513 023e FFF7FEFF 		bl	nvicEnableVector
ARM GAS  /tmp/cct6I63s.s 			page 10


 514              		.loc 1 322 0
 515 0242 1620     		movs	r0, #22
 516 0244 B021     		movs	r1, #176
 517 0246 FFF7FEFF 		bl	nvicEnableVector
 518              		.loc 1 325 0
 519 024a 124A     		ldr	r2, .L38
 520 024c 114B     		ldr	r3, .L38
 521 024e DB69     		ldr	r3, [r3, #28]
 522 0250 43F00073 		orr	r3, r3, #33554432
 523 0254 D361     		str	r3, [r2, #28]
 524              		.loc 1 328 0
 525 0256 019B     		ldr	r3, [sp, #4]
 526 0258 0222     		movs	r2, #2
 527 025a 1A70     		strb	r2, [r3]
 528              		.loc 1 329 0
 529 025c 019B     		ldr	r3, [sp, #4]
 530 025e DB6D     		ldr	r3, [r3, #92]
 531 0260 0122     		movs	r2, #1
 532 0262 1A60     		str	r2, [r3]
 533              		.loc 1 330 0
 534 0264 00BF     		nop
 535              	.L37:
 536              		.loc 1 330 0 is_stmt 0 discriminator 1
 537 0266 019B     		ldr	r3, [sp, #4]
 538 0268 DB6D     		ldr	r3, [r3, #92]
 539 026a 5B68     		ldr	r3, [r3, #4]
 540 026c 03F00103 		and	r3, r3, #1
 541 0270 002B     		cmp	r3, #0
 542 0272 F8D0     		beq	.L37
 543              		.loc 1 340 0 is_stmt 1
 544 0274 019B     		ldr	r3, [sp, #4]
 545 0276 DB6D     		ldr	r3, [r3, #92]
 546 0278 074A     		ldr	r2, .L38+4
 547 027a DA61     		str	r2, [r3, #28]
 548              		.loc 1 350 0
 549 027c 019B     		ldr	r3, [sp, #4]
 550 027e DB6D     		ldr	r3, [r3, #92]
 551 0280 9022     		movs	r2, #144
 552 0282 1A60     		str	r2, [r3]
 553              		.loc 1 353 0
 554 0284 019B     		ldr	r3, [sp, #4]
 555 0286 DB6D     		ldr	r3, [r3, #92]
 556 0288 044A     		ldr	r2, .L38+8
 557 028a 5A61     		str	r2, [r3, #20]
 558              		.loc 1 356 0
 559 028c 03B0     		add	sp, sp, #12
 560              		.cfi_def_cfa_offset 4
 561              		@ sp needed
 562 028e 5DF804FB 		ldr	pc, [sp], #4
 563              	.L39:
 564 0292 00BF     		.align	2
 565              	.L38:
 566 0294 00100240 		.word	1073876992
 567 0298 03002400 		.word	2359299
 568 029c 5B8F0100 		.word	102235
 569              		.cfi_endproc
 570              	.LFE127:
ARM GAS  /tmp/cct6I63s.s 			page 11


 571              		.size	rtcan_lld_can_start, .-rtcan_lld_can_start
 572              		.align	2
 573              		.global	rtcan_lld_can_stop
 574              		.thumb
 575              		.thumb_func
 576              		.type	rtcan_lld_can_stop, %function
 577              	rtcan_lld_can_stop:
 578              	.LFB128:
 579              		.loc 1 365 0
 580              		.cfi_startproc
 581              		@ args = 0, pretend = 0, frame = 8
 582              		@ frame_needed = 0, uses_anonymous_args = 0
 583 02a0 00B5     		push	{lr}
 584              		.cfi_def_cfa_offset 4
 585              		.cfi_offset 14, -4
 586 02a2 83B0     		sub	sp, sp, #12
 587              		.cfi_def_cfa_offset 16
 588 02a4 0190     		str	r0, [sp, #4]
 589              		.loc 1 368 0
 590 02a6 019B     		ldr	r3, [sp, #4]
 591 02a8 1B78     		ldrb	r3, [r3]	@ zero_extendqisi2
 592 02aa 062B     		cmp	r3, #6
 593 02ac 03D0     		beq	.L41
 594              		.loc 1 368 0 is_stmt 0 discriminator 1
 595 02ae 019B     		ldr	r3, [sp, #4]
 596 02b0 1B78     		ldrb	r3, [r3]	@ zero_extendqisi2
 597 02b2 052B     		cmp	r3, #5
 598 02b4 1BD1     		bne	.L40
 599              	.L41:
 600              		.loc 1 370 0 is_stmt 1
 601 02b6 019B     		ldr	r3, [sp, #4]
 602 02b8 0E4A     		ldr	r2, .L43
 603 02ba 9342     		cmp	r3, r2
 604 02bc 17D1     		bne	.L40
 605              		.loc 1 377 0
 606 02be 0E4B     		ldr	r3, .L43+4
 607 02c0 0E4A     		ldr	r2, .L43+8
 608 02c2 1A60     		str	r2, [r3]
 609              		.loc 1 378 0
 610 02c4 0C4B     		ldr	r3, .L43+4
 611 02c6 0022     		movs	r2, #0
 612 02c8 5A61     		str	r2, [r3, #20]
 613              		.loc 1 379 0
 614 02ca 1320     		movs	r0, #19
 615 02cc FFF7FEFF 		bl	nvicDisableVector
 616              		.loc 1 380 0
 617 02d0 1420     		movs	r0, #20
 618 02d2 FFF7FEFF 		bl	nvicDisableVector
 619              		.loc 1 381 0
 620 02d6 1520     		movs	r0, #21
 621 02d8 FFF7FEFF 		bl	nvicDisableVector
 622              		.loc 1 382 0
 623 02dc 1620     		movs	r0, #22
 624 02de FFF7FEFF 		bl	nvicDisableVector
 625              		.loc 1 383 0
 626 02e2 074A     		ldr	r2, .L43+12
 627 02e4 064B     		ldr	r3, .L43+12
ARM GAS  /tmp/cct6I63s.s 			page 12


 628 02e6 DB69     		ldr	r3, [r3, #28]
 629 02e8 23F00073 		bic	r3, r3, #33554432
 630 02ec D361     		str	r3, [r2, #28]
 631              	.L40:
 632              		.loc 1 398 0
 633 02ee 03B0     		add	sp, sp, #12
 634              		.cfi_def_cfa_offset 4
 635              		@ sp needed
 636 02f0 5DF804FB 		ldr	pc, [sp], #4
 637              	.L44:
 638              		.align	2
 639              	.L43:
 640 02f4 00000000 		.word	RTCAND1
 641 02f8 00640040 		.word	1073767424
 642 02fc 02000100 		.word	65538
 643 0300 00100240 		.word	1073876992
 644              		.cfi_endproc
 645              	.LFE128:
 646              		.size	rtcan_lld_can_stop, .-rtcan_lld_can_stop
 647              		.align	2
 648              		.global	rtcan_lld_can_txe
 649              		.thumb
 650              		.thumb_func
 651              		.type	rtcan_lld_can_txe, %function
 652              	rtcan_lld_can_txe:
 653              	.LFB129:
 654              		.loc 1 411 0
 655              		.cfi_startproc
 656              		@ args = 0, pretend = 0, frame = 8
 657              		@ frame_needed = 0, uses_anonymous_args = 0
 658              		@ link register save eliminated.
 659 0304 82B0     		sub	sp, sp, #8
 660              		.cfi_def_cfa_offset 8
 661 0306 0190     		str	r0, [sp, #4]
 662              		.loc 1 414 0
 663 0308 019B     		ldr	r3, [sp, #4]
 664 030a DB6D     		ldr	r3, [r3, #92]
 665 030c 9B68     		ldr	r3, [r3, #8]
 666 030e 03F0E053 		and	r3, r3, #469762048
 667 0312 B3F1E05F 		cmp	r3, #469762048
 668 0316 0CBF     		ite	eq
 669 0318 0123     		moveq	r3, #1
 670 031a 0023     		movne	r3, #0
 671 031c DBB2     		uxtb	r3, r3
 672              		.loc 1 415 0
 673 031e 1846     		mov	r0, r3
 674 0320 02B0     		add	sp, sp, #8
 675              		.cfi_def_cfa_offset 0
 676              		@ sp needed
 677 0322 7047     		bx	lr
 678              		.cfi_endproc
 679              	.LFE129:
 680              		.size	rtcan_lld_can_txe, .-rtcan_lld_can_txe
 681              		.align	2
 682              		.global	rtcan_lld_can_transmit
 683              		.thumb
 684              		.thumb_func
ARM GAS  /tmp/cct6I63s.s 			page 13


 685              		.type	rtcan_lld_can_transmit, %function
 686              	rtcan_lld_can_transmit:
 687              	.LFB130:
 688              		.loc 1 425 0
 689              		.cfi_startproc
 690              		@ args = 0, pretend = 0, frame = 16
 691              		@ frame_needed = 0, uses_anonymous_args = 0
 692              		@ link register save eliminated.
 693 0324 84B0     		sub	sp, sp, #16
 694              		.cfi_def_cfa_offset 16
 695 0326 0190     		str	r0, [sp, #4]
 696 0328 0091     		str	r1, [sp]
 697              		.loc 1 426 0
 698 032a 019B     		ldr	r3, [sp, #4]
 699 032c DB6D     		ldr	r3, [r3, #92]
 700 032e 0393     		str	r3, [sp, #12]
 701              		.loc 1 430 0
 702 0330 009B     		ldr	r3, [sp]
 703 0332 0022     		movs	r2, #0
 704 0334 5A71     		strb	r2, [r3, #5]
 705              		.loc 1 431 0
 706 0336 009B     		ldr	r3, [sp]
 707 0338 5B79     		ldrb	r3, [r3, #5]	@ zero_extendqisi2
 708 033a 1833     		adds	r3, r3, #24
 709 033c 1B01     		lsls	r3, r3, #4
 710 033e 039A     		ldr	r2, [sp, #12]
 711 0340 1344     		add	r3, r3, r2
 712 0342 0293     		str	r3, [sp, #8]
 713              		.loc 1 433 0
 714 0344 009B     		ldr	r3, [sp]
 715 0346 1B68     		ldr	r3, [r3]
 716 0348 C3F31C03 		ubfx	r3, r3, #0, #29
 717 034c DB00     		lsls	r3, r3, #3
 718 034e 43F00402 		orr	r2, r3, #4
 719 0352 029B     		ldr	r3, [sp, #8]
 720 0354 1A60     		str	r2, [r3]
 721              		.loc 1 434 0
 722 0356 009B     		ldr	r3, [sp]
 723 0358 1B79     		ldrb	r3, [r3, #4]
 724 035a C3F30303 		ubfx	r3, r3, #0, #4
 725 035e DBB2     		uxtb	r3, r3
 726 0360 1A46     		mov	r2, r3
 727 0362 029B     		ldr	r3, [sp, #8]
 728 0364 5A60     		str	r2, [r3, #4]
 729              		.loc 1 436 0
 730 0366 009B     		ldr	r3, [sp]
 731 0368 9A68     		ldr	r2, [r3, #8]
 732 036a 029B     		ldr	r3, [sp, #8]
 733 036c 9A60     		str	r2, [r3, #8]
 734              		.loc 1 437 0
 735 036e 009B     		ldr	r3, [sp]
 736 0370 DA68     		ldr	r2, [r3, #12]
 737 0372 029B     		ldr	r3, [sp, #8]
 738 0374 DA60     		str	r2, [r3, #12]
 739              		.loc 1 438 0
 740 0376 029B     		ldr	r3, [sp, #8]
 741 0378 1B68     		ldr	r3, [r3]
ARM GAS  /tmp/cct6I63s.s 			page 14


 742 037a 43F00102 		orr	r2, r3, #1
 743 037e 029B     		ldr	r3, [sp, #8]
 744 0380 1A60     		str	r2, [r3]
 745              		.loc 1 439 0
 746 0382 04B0     		add	sp, sp, #16
 747              		.cfi_def_cfa_offset 0
 748              		@ sp needed
 749 0384 7047     		bx	lr
 750              		.cfi_endproc
 751              	.LFE130:
 752              		.size	rtcan_lld_can_transmit, .-rtcan_lld_can_transmit
 753 0386 00BF     		.align	2
 754              		.global	rtcan_lld_can_rxne
 755              		.thumb
 756              		.thumb_func
 757              		.type	rtcan_lld_can_rxne, %function
 758              	rtcan_lld_can_rxne:
 759              	.LFB131:
 760              		.loc 1 452 0
 761              		.cfi_startproc
 762              		@ args = 0, pretend = 0, frame = 8
 763              		@ frame_needed = 0, uses_anonymous_args = 0
 764              		@ link register save eliminated.
 765 0388 82B0     		sub	sp, sp, #8
 766              		.cfi_def_cfa_offset 8
 767 038a 0190     		str	r0, [sp, #4]
 768              		.loc 1 454 0
 769 038c 019B     		ldr	r3, [sp, #4]
 770 038e DB6D     		ldr	r3, [r3, #92]
 771 0390 DB68     		ldr	r3, [r3, #12]
 772 0392 03F00303 		and	r3, r3, #3
 773 0396 002B     		cmp	r3, #0
 774 0398 06D1     		bne	.L49
 775              		.loc 1 454 0 is_stmt 0 discriminator 2
 776 039a 019B     		ldr	r3, [sp, #4]
 777 039c DB6D     		ldr	r3, [r3, #92]
 778 039e 1B69     		ldr	r3, [r3, #16]
 779 03a0 03F00303 		and	r3, r3, #3
 780 03a4 002B     		cmp	r3, #0
 781 03a6 01D0     		beq	.L50
 782              	.L49:
 783              		.loc 1 454 0 discriminator 3
 784 03a8 0123     		movs	r3, #1
 785 03aa 00E0     		b	.L51
 786              	.L50:
 787              		.loc 1 454 0 discriminator 4
 788 03ac 0023     		movs	r3, #0
 789              	.L51:
 790              		.loc 1 454 0 discriminator 6
 791 03ae 03F00103 		and	r3, r3, #1
 792 03b2 DBB2     		uxtb	r3, r3
 793              		.loc 1 455 0 is_stmt 1 discriminator 6
 794 03b4 1846     		mov	r0, r3
 795 03b6 02B0     		add	sp, sp, #8
 796              		.cfi_def_cfa_offset 0
 797              		@ sp needed
 798 03b8 7047     		bx	lr
ARM GAS  /tmp/cct6I63s.s 			page 15


 799              		.cfi_endproc
 800              	.LFE131:
 801              		.size	rtcan_lld_can_rxne, .-rtcan_lld_can_rxne
 802 03ba 00BF     		.align	2
 803              		.global	rtcan_lld_can_receive
 804              		.thumb
 805              		.thumb_func
 806              		.type	rtcan_lld_can_receive, %function
 807              	rtcan_lld_can_receive:
 808              	.LFB132:
 809              		.loc 1 465 0
 810              		.cfi_startproc
 811              		@ args = 0, pretend = 0, frame = 16
 812              		@ frame_needed = 0, uses_anonymous_args = 0
 813              		@ link register save eliminated.
 814 03bc 84B0     		sub	sp, sp, #16
 815              		.cfi_def_cfa_offset 16
 816 03be 0190     		str	r0, [sp, #4]
 817 03c0 0091     		str	r1, [sp]
 818              		.loc 1 466 0
 819 03c2 019B     		ldr	r3, [sp, #4]
 820 03c4 DB6D     		ldr	r3, [r3, #92]
 821 03c6 0393     		str	r3, [sp, #12]
 822              		.loc 1 468 0
 823 03c8 039B     		ldr	r3, [sp, #12]
 824 03ca DB68     		ldr	r3, [r3, #12]
 825 03cc 03F00303 		and	r3, r3, #3
 826 03d0 002B     		cmp	r3, #0
 827 03d2 37D0     		beq	.L54
 828              		.loc 1 470 0
 829 03d4 039B     		ldr	r3, [sp, #12]
 830 03d6 D3F8B031 		ldr	r3, [r3, #432]
 831 03da DB08     		lsrs	r3, r3, #3
 832 03dc 23F06041 		bic	r1, r3, #-536870912
 833 03e0 009A     		ldr	r2, [sp]
 834 03e2 1368     		ldr	r3, [r2]
 835 03e4 61F31C03 		bfi	r3, r1, #0, #29
 836 03e8 1360     		str	r3, [r2]
 837              		.loc 1 471 0
 838 03ea 039B     		ldr	r3, [sp, #12]
 839 03ec D3F8B431 		ldr	r3, [r3, #436]
 840 03f0 DBB2     		uxtb	r3, r3
 841 03f2 03F00F03 		and	r3, r3, #15
 842 03f6 D9B2     		uxtb	r1, r3
 843 03f8 009A     		ldr	r2, [sp]
 844 03fa 1379     		ldrb	r3, [r2, #4]
 845 03fc 61F30303 		bfi	r3, r1, #0, #4
 846 0400 1371     		strb	r3, [r2, #4]
 847              		.loc 1 472 0
 848 0402 039B     		ldr	r3, [sp, #12]
 849 0404 D3F8B821 		ldr	r2, [r3, #440]
 850 0408 009B     		ldr	r3, [sp]
 851 040a 9A60     		str	r2, [r3, #8]
 852              		.loc 1 473 0
 853 040c 039B     		ldr	r3, [sp, #12]
 854 040e D3F8BC21 		ldr	r2, [r3, #444]
 855 0412 009B     		ldr	r3, [sp]
ARM GAS  /tmp/cct6I63s.s 			page 16


 856 0414 DA60     		str	r2, [r3, #12]
 857              		.loc 1 474 0
 858 0416 039B     		ldr	r3, [sp, #12]
 859 0418 D3F8B431 		ldr	r3, [r3, #436]
 860 041c 1B0A     		lsrs	r3, r3, #8
 861 041e DAB2     		uxtb	r2, r3
 862 0420 009B     		ldr	r3, [sp]
 863 0422 5A71     		strb	r2, [r3, #5]
 864              		.loc 1 477 0
 865 0424 039B     		ldr	r3, [sp, #12]
 866 0426 2022     		movs	r2, #32
 867 0428 DA60     		str	r2, [r3, #12]
 868              		.loc 1 481 0
 869 042a 039B     		ldr	r3, [sp, #12]
 870 042c DB68     		ldr	r3, [r3, #12]
 871 042e 03F00303 		and	r3, r3, #3
 872 0432 002B     		cmp	r3, #0
 873 0434 43D1     		bne	.L53
 874              		.loc 1 482 0
 875 0436 039B     		ldr	r3, [sp, #12]
 876 0438 5B69     		ldr	r3, [r3, #20]
 877 043a 43F00202 		orr	r2, r3, #2
 878 043e 039B     		ldr	r3, [sp, #12]
 879 0440 5A61     		str	r2, [r3, #20]
 880 0442 3CE0     		b	.L53
 881              	.L54:
 882              		.loc 1 484 0
 883 0444 039B     		ldr	r3, [sp, #12]
 884 0446 1B69     		ldr	r3, [r3, #16]
 885 0448 03F00303 		and	r3, r3, #3
 886 044c 002B     		cmp	r3, #0
 887 044e 36D0     		beq	.L53
 888              		.loc 1 486 0
 889 0450 039B     		ldr	r3, [sp, #12]
 890 0452 D3F8C031 		ldr	r3, [r3, #448]
 891 0456 DB08     		lsrs	r3, r3, #3
 892 0458 23F06041 		bic	r1, r3, #-536870912
 893 045c 009A     		ldr	r2, [sp]
 894 045e 1368     		ldr	r3, [r2]
 895 0460 61F31C03 		bfi	r3, r1, #0, #29
 896 0464 1360     		str	r3, [r2]
 897              		.loc 1 487 0
 898 0466 039B     		ldr	r3, [sp, #12]
 899 0468 D3F8C431 		ldr	r3, [r3, #452]
 900 046c DBB2     		uxtb	r3, r3
 901 046e 03F00F03 		and	r3, r3, #15
 902 0472 D9B2     		uxtb	r1, r3
 903 0474 009A     		ldr	r2, [sp]
 904 0476 1379     		ldrb	r3, [r2, #4]
 905 0478 61F30303 		bfi	r3, r1, #0, #4
 906 047c 1371     		strb	r3, [r2, #4]
 907              		.loc 1 488 0
 908 047e 039B     		ldr	r3, [sp, #12]
 909 0480 D3F8C821 		ldr	r2, [r3, #456]
 910 0484 009B     		ldr	r3, [sp]
 911 0486 9A60     		str	r2, [r3, #8]
 912              		.loc 1 489 0
ARM GAS  /tmp/cct6I63s.s 			page 17


 913 0488 039B     		ldr	r3, [sp, #12]
 914 048a D3F8CC21 		ldr	r2, [r3, #460]
 915 048e 009B     		ldr	r3, [sp]
 916 0490 DA60     		str	r2, [r3, #12]
 917              		.loc 1 490 0
 918 0492 039B     		ldr	r3, [sp, #12]
 919 0494 D3F8C431 		ldr	r3, [r3, #452]
 920 0498 1B0A     		lsrs	r3, r3, #8
 921 049a DAB2     		uxtb	r2, r3
 922 049c 009B     		ldr	r3, [sp]
 923 049e 5A71     		strb	r2, [r3, #5]
 924              		.loc 1 493 0
 925 04a0 039B     		ldr	r3, [sp, #12]
 926 04a2 2022     		movs	r2, #32
 927 04a4 1A61     		str	r2, [r3, #16]
 928              		.loc 1 497 0
 929 04a6 039B     		ldr	r3, [sp, #12]
 930 04a8 1B69     		ldr	r3, [r3, #16]
 931 04aa 03F00303 		and	r3, r3, #3
 932 04ae 002B     		cmp	r3, #0
 933 04b0 05D1     		bne	.L53
 934              		.loc 1 498 0
 935 04b2 039B     		ldr	r3, [sp, #12]
 936 04b4 5B69     		ldr	r3, [r3, #20]
 937 04b6 43F01002 		orr	r2, r3, #16
 938 04ba 039B     		ldr	r3, [sp, #12]
 939 04bc 5A61     		str	r2, [r3, #20]
 940              	.L53:
 941              		.loc 1 501 0
 942 04be 04B0     		add	sp, sp, #16
 943              		.cfi_def_cfa_offset 0
 944              		@ sp needed
 945 04c0 7047     		bx	lr
 946              		.cfi_endproc
 947              	.LFE132:
 948              		.size	rtcan_lld_can_receive, .-rtcan_lld_can_receive
 949 04c2 00BF     		.align	2
 950              		.global	rtcan_lld_can_addfilter
 951              		.thumb
 952              		.thumb_func
 953              		.type	rtcan_lld_can_addfilter, %function
 954              	rtcan_lld_can_addfilter:
 955              	.LFB133:
 956              		.loc 1 517 0
 957              		.cfi_startproc
 958              		@ args = 0, pretend = 0, frame = 32
 959              		@ frame_needed = 0, uses_anonymous_args = 0
 960              		@ link register save eliminated.
 961 04c4 88B0     		sub	sp, sp, #32
 962              		.cfi_def_cfa_offset 32
 963 04c6 0390     		str	r0, [sp, #12]
 964 04c8 0291     		str	r1, [sp, #8]
 965 04ca 0192     		str	r2, [sp, #4]
 966 04cc 0093     		str	r3, [sp]
 967              		.loc 1 518 0
 968 04ce 039B     		ldr	r3, [sp, #12]
 969 04d0 DB6D     		ldr	r3, [r3, #92]
ARM GAS  /tmp/cct6I63s.s 			page 18


 970 04d2 0793     		str	r3, [sp, #28]
 971              		.loc 1 523 0
 972 04d4 2C4B     		ldr	r3, .L60
 973 04d6 1B68     		ldr	r3, [r3]
 974 04d8 1B2B     		cmp	r3, #27
 975 04da 50D8     		bhi	.L58
 976              		.loc 1 525 0
 977 04dc 2A4B     		ldr	r3, .L60
 978 04de 1B68     		ldr	r3, [r3]
 979              		.loc 1 524 0
 980 04e0 4833     		adds	r3, r3, #72
 981 04e2 DB00     		lsls	r3, r3, #3
 982 04e4 079A     		ldr	r2, [sp, #28]
 983 04e6 1344     		add	r3, r3, r2
 984 04e8 0693     		str	r3, [sp, #24]
 985              		.loc 1 526 0
 986 04ea 274B     		ldr	r3, .L60
 987 04ec 1B68     		ldr	r3, [r3]
 988 04ee 1A46     		mov	r2, r3
 989 04f0 0123     		movs	r3, #1
 990 04f2 9340     		lsls	r3, r3, r2
 991 04f4 0593     		str	r3, [sp, #20]
 992              		.loc 1 527 0
 993 04f6 079B     		ldr	r3, [sp, #28]
 994 04f8 D3F80032 		ldr	r3, [r3, #512]
 995 04fc 43F00102 		orr	r2, r3, #1
 996 0500 079B     		ldr	r3, [sp, #28]
 997 0502 C3F80022 		str	r2, [r3, #512]
 998              		.loc 1 528 0
 999 0506 079B     		ldr	r3, [sp, #28]
 1000 0508 D3F81C22 		ldr	r2, [r3, #540]
 1001 050c 059B     		ldr	r3, [sp, #20]
 1002 050e DB43     		mvns	r3, r3
 1003 0510 1A40     		ands	r2, r2, r3
 1004 0512 079B     		ldr	r3, [sp, #28]
 1005 0514 C3F81C22 		str	r2, [r3, #540]
 1006              		.loc 1 532 0
 1007 0518 079B     		ldr	r3, [sp, #28]
 1008 051a D3F80422 		ldr	r2, [r3, #516]
 1009 051e 059B     		ldr	r3, [sp, #20]
 1010 0520 DB43     		mvns	r3, r3
 1011 0522 1A40     		ands	r2, r2, r3
 1012 0524 079B     		ldr	r3, [sp, #28]
 1013 0526 C3F80422 		str	r2, [r3, #516]
 1014              		.loc 1 542 0
 1015 052a 079B     		ldr	r3, [sp, #28]
 1016 052c D3F80C22 		ldr	r2, [r3, #524]
 1017 0530 059B     		ldr	r3, [sp, #20]
 1018 0532 1A43     		orrs	r2, r2, r3
 1019 0534 079B     		ldr	r3, [sp, #28]
 1020 0536 C3F80C22 		str	r2, [r3, #524]
 1021              		.loc 1 543 0
 1022 053a 029B     		ldr	r3, [sp, #8]
 1023 053c DA00     		lsls	r2, r3, #3
 1024 053e 069B     		ldr	r3, [sp, #24]
 1025 0540 1A60     		str	r2, [r3]
 1026              		.loc 1 544 0
ARM GAS  /tmp/cct6I63s.s 			page 19


 1027 0542 019B     		ldr	r3, [sp, #4]
 1028 0544 DA00     		lsls	r2, r3, #3
 1029 0546 069B     		ldr	r3, [sp, #24]
 1030 0548 5A60     		str	r2, [r3, #4]
 1031              		.loc 1 562 0
 1032 054a 079B     		ldr	r3, [sp, #28]
 1033 054c D3F81C22 		ldr	r2, [r3, #540]
 1034 0550 059B     		ldr	r3, [sp, #20]
 1035 0552 1A43     		orrs	r2, r2, r3
 1036 0554 079B     		ldr	r3, [sp, #28]
 1037 0556 C3F81C22 		str	r2, [r3, #540]
 1038              		.loc 1 563 0
 1039 055a 079B     		ldr	r3, [sp, #28]
 1040 055c D3F80032 		ldr	r3, [r3, #512]
 1041 0560 23F00102 		bic	r2, r3, #1
 1042 0564 079B     		ldr	r3, [sp, #28]
 1043 0566 C3F80022 		str	r2, [r3, #512]
 1044              		.loc 1 565 0
 1045 056a 074B     		ldr	r3, .L60
 1046 056c 1B68     		ldr	r3, [r3]
 1047 056e 5A1C     		adds	r2, r3, #1
 1048 0570 0549     		ldr	r1, .L60
 1049 0572 0A60     		str	r2, [r1]
 1050 0574 DAB2     		uxtb	r2, r3
 1051 0576 009B     		ldr	r3, [sp]
 1052 0578 1A70     		strb	r2, [r3]
 1053              		.loc 1 566 0
 1054 057a 0123     		movs	r3, #1
 1055 057c 00E0     		b	.L59
 1056              	.L58:
 1057              		.loc 1 568 0
 1058 057e 0023     		movs	r3, #0
 1059              	.L59:
 1060              		.loc 1 570 0
 1061 0580 1846     		mov	r0, r3
 1062 0582 08B0     		add	sp, sp, #32
 1063              		.cfi_def_cfa_offset 0
 1064              		@ sp needed
 1065 0584 7047     		bx	lr
 1066              	.L61:
 1067 0586 00BF     		.align	2
 1068              	.L60:
 1069 0588 00000000 		.word	next_fid.7103
 1070              		.cfi_endproc
 1071              	.LFE133:
 1072              		.size	rtcan_lld_can_addfilter, .-rtcan_lld_can_addfilter
 1073              		.bss
 1074              		.align	2
 1075              	next_fid.7103:
 1076 0000 00000000 		.space	4
 1077              		.text
 1078              	.Letext0:
 1079              		.file 2 "/opt/R2P/tools/gcc-arm-none-eabi-4_9-2014q4/arm-none-eabi/include/machine/_default_types.
 1080              		.file 3 "/opt/R2P/tools/gcc-arm-none-eabi-4_9-2014q4/arm-none-eabi/include/stdint.h"
 1081              		.file 4 "/opt/R2P/core/ChibiOS_2.6.5/os/ports/GCC/ARMCMx/chtypes.h"
 1082              		.file 5 "/opt/R2P/core/ChibiOS_2.6.5/os/hal/platforms/STM32F30x/stm32f30x.h"
 1083              		.file 6 "/opt/R2P/core/RTCAN/include/rtcan.h"
ARM GAS  /tmp/cct6I63s.s 			page 20


 1084              		.file 7 "/opt/R2P/core/RTCAN/include/msgqueue.h"
 1085              		.file 8 "/opt/R2P/core/ChibiOS_2.6.5/os/ports/common/ARMCMx/CMSIS/include/core_cm4.h"