ARM GAS  /tmp/ccbTDMNz.s 			page 1


   1              		.syntax unified
   2              		.cpu cortex-m4
   3              		.fpu softvfp
   4              		.eabi_attribute 20, 1
   5              		.eabi_attribute 21, 1
   6              		.eabi_attribute 23, 3
   7              		.eabi_attribute 24, 1
   8              		.eabi_attribute 25, 1
   9              		.eabi_attribute 26, 1
  10              		.eabi_attribute 30, 6
  11              		.eabi_attribute 34, 1
  12              		.eabi_attribute 18, 4
  13              		.thumb
  14              		.file	"rtcan_lld_tim.c"
  15              		.text
  16              	.Ltext0:
  17              		.cfi_sections	.debug_frame
  18              		.align	2
  19              		.global	VectorB4
  20              		.thumb
  21              		.thumb_func
  22              		.type	VectorB4, %function
  23              	VectorB4:
  24              	.LFB118:
  25              		.file 1 "/opt/R2P/core/RTCAN/platforms/STM32/rtcan_lld_tim.c"
  26              		.loc 1 40 0
  27              		.cfi_startproc
  28              		@ args = 0, pretend = 0, frame = 0
  29              		@ frame_needed = 0, uses_anonymous_args = 0
  30 0000 08B5     		push	{r3, lr}
  31              		.cfi_def_cfa_offset 8
  32              		.cfi_offset 3, -8
  33              		.cfi_offset 14, -4
  34              		.loc 1 42 0
  35 0002 FFF7FEFF 		bl	dbg_check_enter_isr
  36              		.loc 1 44 0
  37 0006 054B     		ldr	r3, .L2
  38 0008 0022     		movs	r2, #0
  39 000a 1A61     		str	r2, [r3, #16]
  40              		.loc 1 45 0
  41 000c 0448     		ldr	r0, .L2+4
  42 000e FFF7FEFF 		bl	rtcan_tim_isr_code
  43              		.loc 1 47 0
  44 0012 FFF7FEFF 		bl	dbg_check_leave_isr
  45 0016 FFF7FEFF 		bl	_port_irq_epilogue
  46              		.loc 1 48 0
  47 001a 08BD     		pop	{r3, pc}
  48              	.L3:
  49              		.align	2
  50              	.L2:
  51 001c 00040040 		.word	1073742848
  52 0020 00000000 		.word	RTCAND1
  53              		.cfi_endproc
  54              	.LFE118:
  55              		.size	VectorB4, .-VectorB4
  56              		.align	2
  57              		.global	rtcan_lld_tim_init
ARM GAS  /tmp/ccbTDMNz.s 			page 2


  58              		.thumb
  59              		.thumb_func
  60              		.type	rtcan_lld_tim_init, %function
  61              	rtcan_lld_tim_init:
  62              	.LFB119:
  63              		.loc 1 59 0
  64              		.cfi_startproc
  65              		@ args = 0, pretend = 0, frame = 0
  66              		@ frame_needed = 0, uses_anonymous_args = 0
  67              		@ link register save eliminated.
  68              		.loc 1 62 0
  69 0024 014B     		ldr	r3, .L5
  70 0026 024A     		ldr	r2, .L5+4
  71 0028 9A65     		str	r2, [r3, #88]
  72              		.loc 1 68 0
  73 002a 7047     		bx	lr
  74              	.L6:
  75              		.align	2
  76              	.L5:
  77 002c 00000000 		.word	RTCAND1
  78 0030 00040040 		.word	1073742848
  79              		.cfi_endproc
  80              	.LFE119:
  81              		.size	rtcan_lld_tim_init, .-rtcan_lld_tim_init
  82              		.align	2
  83              		.global	rtcan_lld_tim_start
  84              		.thumb
  85              		.thumb_func
  86              		.type	rtcan_lld_tim_start, %function
  87              	rtcan_lld_tim_start:
  88              	.LFB120:
  89              		.loc 1 77 0
  90              		.cfi_startproc
  91              		@ args = 0, pretend = 0, frame = 24
  92              		@ frame_needed = 0, uses_anonymous_args = 0
  93 0034 00B5     		push	{lr}
  94              		.cfi_def_cfa_offset 4
  95              		.cfi_offset 14, -4
  96 0036 87B0     		sub	sp, sp, #28
  97              		.cfi_def_cfa_offset 32
  98 0038 0190     		str	r0, [sp, #4]
  99              		.loc 1 78 0
 100 003a 019B     		ldr	r3, [sp, #4]
 101 003c 9B6D     		ldr	r3, [r3, #88]
 102 003e 0593     		str	r3, [sp, #20]
 103              		.loc 1 85 0
 104 0040 154A     		ldr	r2, .L8
 105 0042 154B     		ldr	r3, .L8
 106 0044 DB69     		ldr	r3, [r3, #28]
 107 0046 43F00203 		orr	r3, r3, #2
 108 004a D361     		str	r3, [r2, #28]
 109              		.loc 1 86 0
 110 004c 124A     		ldr	r2, .L8
 111 004e 124B     		ldr	r3, .L8
 112 0050 1B69     		ldr	r3, [r3, #16]
 113 0052 43F00203 		orr	r3, r3, #2
 114 0056 1361     		str	r3, [r2, #16]
ARM GAS  /tmp/ccbTDMNz.s 			page 3


 115 0058 0F4B     		ldr	r3, .L8
 116 005a 0022     		movs	r2, #0
 117 005c 1A61     		str	r2, [r3, #16]
 118              		.loc 1 87 0
 119 005e 1D20     		movs	r0, #29
 120 0060 7021     		movs	r1, #112
 121 0062 FFF7FEFF 		bl	nvicEnableVector
 122              		.loc 1 101 0
 123 0066 0D4B     		ldr	r3, .L8+4
 124 0068 0493     		str	r3, [sp, #16]
 125              		.loc 1 104 0
 126 006a 019B     		ldr	r3, [sp, #4]
 127 006c 5B6D     		ldr	r3, [r3, #84]
 128 006e 1B68     		ldr	r3, [r3]
 129 0070 049A     		ldr	r2, [sp, #16]
 130 0072 B2FBF3F3 		udiv	r3, r2, r3
 131 0076 9BB2     		uxth	r3, r3
 132 0078 013B     		subs	r3, r3, #1
 133 007a ADF80E30 		strh	r3, [sp, #14]	@ movhi
 134              		.loc 1 107 0
 135 007e 059B     		ldr	r3, [sp, #20]
 136 0080 0022     		movs	r2, #0
 137 0082 1A80     		strh	r2, [r3]	@ movhi
 138              		.loc 1 108 0
 139 0084 059B     		ldr	r3, [sp, #20]
 140 0086 BDF80E20 		ldrh	r2, [sp, #14]	@ movhi
 141 008a 1A85     		strh	r2, [r3, #40]	@ movhi
 142              		.loc 1 109 0
 143 008c 059B     		ldr	r3, [sp, #20]
 144 008e 0022     		movs	r2, #0
 145 0090 DA60     		str	r2, [r3, #12]
 146              		.loc 1 110 0
 147 0092 07B0     		add	sp, sp, #28
 148              		.cfi_def_cfa_offset 4
 149              		@ sp needed
 150 0094 5DF804FB 		ldr	pc, [sp], #4
 151              	.L9:
 152              		.align	2
 153              	.L8:
 154 0098 00100240 		.word	1073876992
 155 009c 00A24A04 		.word	72000000
 156              		.cfi_endproc
 157              	.LFE120:
 158              		.size	rtcan_lld_tim_start, .-rtcan_lld_tim_start
 159              		.align	2
 160              		.global	rtcan_lld_tim_stop
 161              		.thumb
 162              		.thumb_func
 163              		.type	rtcan_lld_tim_stop, %function
 164              	rtcan_lld_tim_stop:
 165              	.LFB121:
 166              		.loc 1 119 0
 167              		.cfi_startproc
 168              		@ args = 0, pretend = 0, frame = 16
 169              		@ frame_needed = 0, uses_anonymous_args = 0
 170 00a0 00B5     		push	{lr}
 171              		.cfi_def_cfa_offset 4
ARM GAS  /tmp/ccbTDMNz.s 			page 4


 172              		.cfi_offset 14, -4
 173 00a2 85B0     		sub	sp, sp, #20
 174              		.cfi_def_cfa_offset 24
 175 00a4 0190     		str	r0, [sp, #4]
 176              		.loc 1 120 0
 177 00a6 019B     		ldr	r3, [sp, #4]
 178 00a8 9B6D     		ldr	r3, [r3, #88]
 179 00aa 0393     		str	r3, [sp, #12]
 180              		.loc 1 122 0
 181 00ac 039B     		ldr	r3, [sp, #12]
 182 00ae 0022     		movs	r2, #0
 183 00b0 1A80     		strh	r2, [r3]	@ movhi
 184              		.loc 1 123 0
 185 00b2 039B     		ldr	r3, [sp, #12]
 186 00b4 0022     		movs	r2, #0
 187 00b6 DA60     		str	r2, [r3, #12]
 188              		.loc 1 124 0
 189 00b8 039B     		ldr	r3, [sp, #12]
 190 00ba 0022     		movs	r2, #0
 191 00bc 1A61     		str	r2, [r3, #16]
 192              		.loc 1 129 0
 193 00be 1D20     		movs	r0, #29
 194 00c0 FFF7FEFF 		bl	nvicDisableVector
 195              		.loc 1 130 0
 196 00c4 044A     		ldr	r2, .L11
 197 00c6 044B     		ldr	r3, .L11
 198 00c8 DB69     		ldr	r3, [r3, #28]
 199 00ca 23F00203 		bic	r3, r3, #2
 200 00ce D361     		str	r3, [r2, #28]
 201              		.loc 1 137 0
 202 00d0 05B0     		add	sp, sp, #20
 203              		.cfi_def_cfa_offset 4
 204              		@ sp needed
 205 00d2 5DF804FB 		ldr	pc, [sp], #4
 206              	.L12:
 207 00d6 00BF     		.align	2
 208              	.L11:
 209 00d8 00100240 		.word	1073876992
 210              		.cfi_endproc
 211              	.LFE121:
 212              		.size	rtcan_lld_tim_stop, .-rtcan_lld_tim_stop
 213              		.align	2
 214              		.global	rtcan_lld_tim_start_timer
 215              		.thumb
 216              		.thumb_func
 217              		.type	rtcan_lld_tim_start_timer, %function
 218              	rtcan_lld_tim_start_timer:
 219              	.LFB122:
 220              		.loc 1 147 0
 221              		.cfi_startproc
 222              		@ args = 0, pretend = 0, frame = 16
 223              		@ frame_needed = 0, uses_anonymous_args = 0
 224              		@ link register save eliminated.
 225 00dc 84B0     		sub	sp, sp, #16
 226              		.cfi_def_cfa_offset 16
 227 00de 0190     		str	r0, [sp, #4]
 228              		.loc 1 148 0
ARM GAS  /tmp/ccbTDMNz.s 			page 5


 229 00e0 019B     		ldr	r3, [sp, #4]
 230 00e2 9B6D     		ldr	r3, [r3, #88]
 231 00e4 0393     		str	r3, [sp, #12]
 232              		.loc 1 149 0
 233 00e6 039B     		ldr	r3, [sp, #12]
 234 00e8 0122     		movs	r2, #1
 235 00ea 5A61     		str	r2, [r3, #20]
 236              		.loc 1 150 0
 237 00ec 039B     		ldr	r3, [sp, #12]
 238 00ee 0022     		movs	r2, #0
 239 00f0 5A62     		str	r2, [r3, #36]
 240              		.loc 1 151 0
 241 00f2 039B     		ldr	r3, [sp, #12]
 242 00f4 0022     		movs	r2, #0
 243 00f6 1A61     		str	r2, [r3, #16]
 244              		.loc 1 152 0
 245 00f8 039B     		ldr	r3, [sp, #12]
 246 00fa 0122     		movs	r2, #1
 247 00fc DA60     		str	r2, [r3, #12]
 248              		.loc 1 153 0
 249 00fe 039B     		ldr	r3, [sp, #12]
 250 0100 0522     		movs	r2, #5
 251 0102 1A80     		strh	r2, [r3]	@ movhi
 252              		.loc 1 154 0
 253 0104 04B0     		add	sp, sp, #16
 254              		.cfi_def_cfa_offset 0
 255              		@ sp needed
 256 0106 7047     		bx	lr
 257              		.cfi_endproc
 258              	.LFE122:
 259              		.size	rtcan_lld_tim_start_timer, .-rtcan_lld_tim_start_timer
 260              		.align	2
 261              		.global	rtcan_lld_tim_stop_timer
 262              		.thumb
 263              		.thumb_func
 264              		.type	rtcan_lld_tim_stop_timer, %function
 265              	rtcan_lld_tim_stop_timer:
 266              	.LFB123:
 267              		.loc 1 163 0
 268              		.cfi_startproc
 269              		@ args = 0, pretend = 0, frame = 16
 270              		@ frame_needed = 0, uses_anonymous_args = 0
 271              		@ link register save eliminated.
 272 0108 84B0     		sub	sp, sp, #16
 273              		.cfi_def_cfa_offset 16
 274 010a 0190     		str	r0, [sp, #4]
 275              		.loc 1 164 0
 276 010c 019B     		ldr	r3, [sp, #4]
 277 010e 9B6D     		ldr	r3, [r3, #88]
 278 0110 0393     		str	r3, [sp, #12]
 279              		.loc 1 166 0
 280 0112 039B     		ldr	r3, [sp, #12]
 281 0114 0022     		movs	r2, #0
 282 0116 1A80     		strh	r2, [r3]	@ movhi
 283              		.loc 1 167 0
 284 0118 039B     		ldr	r3, [sp, #12]
 285 011a 0022     		movs	r2, #0
ARM GAS  /tmp/ccbTDMNz.s 			page 6


 286 011c 1A61     		str	r2, [r3, #16]
 287              		.loc 1 168 0
 288 011e 039B     		ldr	r3, [sp, #12]
 289 0120 0022     		movs	r2, #0
 290 0122 DA60     		str	r2, [r3, #12]
 291              		.loc 1 169 0
 292 0124 04B0     		add	sp, sp, #16
 293              		.cfi_def_cfa_offset 0
 294              		@ sp needed
 295 0126 7047     		bx	lr
 296              		.cfi_endproc
 297              	.LFE123:
 298              		.size	rtcan_lld_tim_stop_timer, .-rtcan_lld_tim_stop_timer
 299              		.align	2
 300              		.global	rtcan_lld_tim_set_interval
 301              		.thumb
 302              		.thumb_func
 303              		.type	rtcan_lld_tim_set_interval, %function
 304              	rtcan_lld_tim_set_interval:
 305              	.LFB124:
 306              		.loc 1 172 0
 307              		.cfi_startproc
 308              		@ args = 0, pretend = 0, frame = 16
 309              		@ frame_needed = 0, uses_anonymous_args = 0
 310              		@ link register save eliminated.
 311 0128 84B0     		sub	sp, sp, #16
 312              		.cfi_def_cfa_offset 16
 313 012a 0190     		str	r0, [sp, #4]
 314 012c 0B46     		mov	r3, r1
 315 012e ADF80230 		strh	r3, [sp, #2]	@ movhi
 316              		.loc 1 173 0
 317 0132 019B     		ldr	r3, [sp, #4]
 318 0134 9B6D     		ldr	r3, [r3, #88]
 319 0136 0393     		str	r3, [sp, #12]
 320              		.loc 1 175 0
 321 0138 BDF80230 		ldrh	r3, [sp, #2]
 322 013c 013B     		subs	r3, r3, #1
 323 013e 1A46     		mov	r2, r3
 324 0140 039B     		ldr	r3, [sp, #12]
 325 0142 DA62     		str	r2, [r3, #44]
 326              		.loc 1 176 0
 327 0144 04B0     		add	sp, sp, #16
 328              		.cfi_def_cfa_offset 0
 329              		@ sp needed
 330 0146 7047     		bx	lr
 331              		.cfi_endproc
 332              	.LFE124:
 333              		.size	rtcan_lld_tim_set_interval, .-rtcan_lld_tim_set_interval
 334              		.align	2
 335              		.global	rtcan_lld_tim_get_interval
 336              		.thumb
 337              		.thumb_func
 338              		.type	rtcan_lld_tim_get_interval, %function
 339              	rtcan_lld_tim_get_interval:
 340              	.LFB125:
 341              		.loc 1 179 0
 342              		.cfi_startproc
ARM GAS  /tmp/ccbTDMNz.s 			page 7


 343              		@ args = 0, pretend = 0, frame = 16
 344              		@ frame_needed = 0, uses_anonymous_args = 0
 345              		@ link register save eliminated.
 346 0148 84B0     		sub	sp, sp, #16
 347              		.cfi_def_cfa_offset 16
 348 014a 0190     		str	r0, [sp, #4]
 349              		.loc 1 180 0
 350 014c 019B     		ldr	r3, [sp, #4]
 351 014e 9B6D     		ldr	r3, [r3, #88]
 352 0150 0393     		str	r3, [sp, #12]
 353              		.loc 1 182 0
 354 0152 039B     		ldr	r3, [sp, #12]
 355 0154 DB6A     		ldr	r3, [r3, #44]
 356 0156 9BB2     		uxth	r3, r3
 357 0158 0133     		adds	r3, r3, #1
 358 015a 9BB2     		uxth	r3, r3
 359              		.loc 1 183 0
 360 015c 1846     		mov	r0, r3
 361 015e 04B0     		add	sp, sp, #16
 362              		.cfi_def_cfa_offset 0
 363              		@ sp needed
 364 0160 7047     		bx	lr
 365              		.cfi_endproc
 366              	.LFE125:
 367              		.size	rtcan_lld_tim_get_interval, .-rtcan_lld_tim_get_interval
 368 0162 00BF     		.align	2
 369              		.global	rtcan_lld_tim_get_counter
 370              		.thumb
 371              		.thumb_func
 372              		.type	rtcan_lld_tim_get_counter, %function
 373              	rtcan_lld_tim_get_counter:
 374              	.LFB126:
 375              		.loc 1 185 0
 376              		.cfi_startproc
 377              		@ args = 0, pretend = 0, frame = 16
 378              		@ frame_needed = 0, uses_anonymous_args = 0
 379              		@ link register save eliminated.
 380 0164 84B0     		sub	sp, sp, #16
 381              		.cfi_def_cfa_offset 16
 382 0166 0190     		str	r0, [sp, #4]
 383              		.loc 1 186 0
 384 0168 019B     		ldr	r3, [sp, #4]
 385 016a 9B6D     		ldr	r3, [r3, #88]
 386 016c 0393     		str	r3, [sp, #12]
 387              		.loc 1 188 0
 388 016e 039B     		ldr	r3, [sp, #12]
 389 0170 5B6A     		ldr	r3, [r3, #36]
 390 0172 9BB2     		uxth	r3, r3
 391              		.loc 1 189 0
 392 0174 1846     		mov	r0, r3
 393 0176 04B0     		add	sp, sp, #16
 394              		.cfi_def_cfa_offset 0
 395              		@ sp needed
 396 0178 7047     		bx	lr
 397              		.cfi_endproc
 398              	.LFE126:
 399              		.size	rtcan_lld_tim_get_counter, .-rtcan_lld_tim_get_counter
ARM GAS  /tmp/ccbTDMNz.s 			page 8


 400 017a 00BF     		.align	2
 401              		.global	rtcan_lld_tim_set_counter
 402              		.thumb
 403              		.thumb_func
 404              		.type	rtcan_lld_tim_set_counter, %function
 405              	rtcan_lld_tim_set_counter:
 406              	.LFB127:
 407              		.loc 1 191 0
 408              		.cfi_startproc
 409              		@ args = 0, pretend = 0, frame = 16
 410              		@ frame_needed = 0, uses_anonymous_args = 0
 411              		@ link register save eliminated.
 412 017c 84B0     		sub	sp, sp, #16
 413              		.cfi_def_cfa_offset 16
 414 017e 0190     		str	r0, [sp, #4]
 415 0180 0B46     		mov	r3, r1
 416 0182 ADF80230 		strh	r3, [sp, #2]	@ movhi
 417              		.loc 1 192 0
 418 0186 019B     		ldr	r3, [sp, #4]
 419 0188 9B6D     		ldr	r3, [r3, #88]
 420 018a 0393     		str	r3, [sp, #12]
 421              		.loc 1 194 0
 422 018c BDF80220 		ldrh	r2, [sp, #2]
 423 0190 039B     		ldr	r3, [sp, #12]
 424 0192 5A62     		str	r2, [r3, #36]
 425              		.loc 1 195 0
 426 0194 04B0     		add	sp, sp, #16
 427              		.cfi_def_cfa_offset 0
 428              		@ sp needed
 429 0196 7047     		bx	lr
 430              		.cfi_endproc
 431              	.LFE127:
 432              		.size	rtcan_lld_tim_set_counter, .-rtcan_lld_tim_set_counter
 433              	.Letext0:
 434              		.file 2 "/opt/R2P/tools/gcc-arm-none-eabi-4_9-2014q4/arm-none-eabi/include/machine/_default_types.
 435              		.file 3 "/opt/R2P/tools/gcc-arm-none-eabi-4_9-2014q4/arm-none-eabi/include/stdint.h"
 436              		.file 4 "/opt/R2P/core/ChibiOS_2.6.5/os/hal/platforms/STM32F30x/stm32f30x.h"
 437              		.file 5 "/opt/R2P/core/RTCAN/include/rtcan.h"
 438              		.file 6 "/opt/R2P/core/RTCAN/include/msgqueue.h"
 439              		.file 7 "/opt/R2P/core/ChibiOS_2.6.5/os/ports/common/ARMCMx/CMSIS/include/core_cm4.h"
 440              		.file 8 "/opt/R2P/core/RTCAN/platforms/STM32/rtcan_lld_can.h"
 441              		.section	.debug_info,"",%progbits
 442              	.Ldebug_info0:
 443 0000 470A0000 		.4byte	0xa47
 444 0004 0400     		.2byte	0x4
 445 0006 00000000 		.4byte	.Ldebug_abbrev0
 446 000a 04       		.byte	0x4
 447 000b 01       		.uleb128 0x1
 448 000c 57040000 		.4byte	.LASF130
 449 0010 01       		.byte	0x1
 450 0011 D4030000 		.4byte	.LASF131
 451 0015 00000000 		.4byte	.Ltext0
 452 0019 98010000 		.4byte	.Letext0-.Ltext0
 453 001d 00000000 		.4byte	.Ldebug_line0
 454 0021 02       		.uleb128 0x2
 455 0022 01       		.byte	0x1
 456 0023 06       		.byte	0x6
ARM GAS  /tmp/ccbTDMNz.s 			page 9


 457 0024 8F000000 		.4byte	.LASF0
 458 0028 03       		.uleb128 0x3
 459 0029 27000000 		.4byte	.LASF3
 460 002d 02       		.byte	0x2
 461 002e 1D       		.byte	0x1d
 462 002f 33000000 		.4byte	0x33
 463 0033 02       		.uleb128 0x2
 464 0034 01       		.byte	0x1
 465 0035 08       		.byte	0x8
 466 0036 A3030000 		.4byte	.LASF1
 467 003a 02       		.uleb128 0x2
 468 003b 02       		.byte	0x2
 469 003c 05       		.byte	0x5
 470 003d BE030000 		.4byte	.LASF2
 471 0041 03       		.uleb128 0x3
 472 0042 63010000 		.4byte	.LASF4
 473 0046 02       		.byte	0x2
 474 0047 2B       		.byte	0x2b
 475 0048 4C000000 		.4byte	0x4c
 476 004c 02       		.uleb128 0x2
 477 004d 02       		.byte	0x2
 478 004e 07       		.byte	0x7
 479 004f 63050000 		.4byte	.LASF5
 480 0053 03       		.uleb128 0x3
 481 0054 35050000 		.4byte	.LASF6
 482 0058 02       		.byte	0x2
 483 0059 3F       		.byte	0x3f
 484 005a 5E000000 		.4byte	0x5e
 485 005e 02       		.uleb128 0x2
 486 005f 04       		.byte	0x4
 487 0060 05       		.byte	0x5
 488 0061 D9000000 		.4byte	.LASF7
 489 0065 03       		.uleb128 0x3
 490 0066 6E010000 		.4byte	.LASF8
 491 006a 02       		.byte	0x2
 492 006b 41       		.byte	0x41
 493 006c 70000000 		.4byte	0x70
 494 0070 02       		.uleb128 0x2
 495 0071 04       		.byte	0x4
 496 0072 07       		.byte	0x7
 497 0073 C3010000 		.4byte	.LASF9
 498 0077 02       		.uleb128 0x2
 499 0078 08       		.byte	0x8
 500 0079 05       		.byte	0x5
 501 007a 14010000 		.4byte	.LASF10
 502 007e 02       		.uleb128 0x2
 503 007f 08       		.byte	0x8
 504 0080 07       		.byte	0x7
 505 0081 50000000 		.4byte	.LASF11
 506 0085 04       		.uleb128 0x4
 507 0086 04       		.byte	0x4
 508 0087 05       		.byte	0x5
 509 0088 696E7400 		.ascii	"int\000"
 510 008c 02       		.uleb128 0x2
 511 008d 04       		.byte	0x4
 512 008e 07       		.byte	0x7
 513 008f A1010000 		.4byte	.LASF12
ARM GAS  /tmp/ccbTDMNz.s 			page 10


 514 0093 03       		.uleb128 0x3
 515 0094 CD050000 		.4byte	.LASF13
 516 0098 03       		.byte	0x3
 517 0099 15       		.byte	0x15
 518 009a 28000000 		.4byte	0x28
 519 009e 03       		.uleb128 0x3
 520 009f AE010000 		.4byte	.LASF14
 521 00a3 03       		.byte	0x3
 522 00a4 21       		.byte	0x21
 523 00a5 41000000 		.4byte	0x41
 524 00a9 03       		.uleb128 0x3
 525 00aa 9B030000 		.4byte	.LASF15
 526 00ae 03       		.byte	0x3
 527 00af 2C       		.byte	0x2c
 528 00b0 53000000 		.4byte	0x53
 529 00b4 03       		.uleb128 0x3
 530 00b5 4E040000 		.4byte	.LASF16
 531 00b9 03       		.byte	0x3
 532 00ba 2D       		.byte	0x2d
 533 00bb 65000000 		.4byte	0x65
 534 00bf 02       		.uleb128 0x2
 535 00c0 01       		.byte	0x1
 536 00c1 02       		.byte	0x2
 537 00c2 95030000 		.4byte	.LASF17
 538 00c6 05       		.uleb128 0x5
 539 00c7 04       		.byte	0x4
 540 00c8 06       		.uleb128 0x6
 541 00c9 B4000000 		.4byte	0xb4
 542 00cd 02       		.uleb128 0x2
 543 00ce 04       		.byte	0x4
 544 00cf 07       		.byte	0x7
 545 00d0 9C020000 		.4byte	.LASF18
 546 00d4 02       		.uleb128 0x2
 547 00d5 01       		.byte	0x1
 548 00d6 08       		.byte	0x8
 549 00d7 00050000 		.4byte	.LASF19
 550 00db 07       		.uleb128 0x7
 551 00dc 04       		.byte	0x4
 552 00dd 93000000 		.4byte	0x93
 553 00e1 07       		.uleb128 0x7
 554 00e2 04       		.byte	0x4
 555 00e3 E7000000 		.4byte	0xe7
 556 00e7 08       		.uleb128 0x8
 557 00e8 93000000 		.4byte	0x93
 558 00ec 09       		.uleb128 0x9
 559 00ed B4000000 		.4byte	0xb4
 560 00f1 FC000000 		.4byte	0xfc
 561 00f5 0A       		.uleb128 0xa
 562 00f6 CD000000 		.4byte	0xcd
 563 00fa 07       		.byte	0x7
 564 00fb 00       		.byte	0
 565 00fc 06       		.uleb128 0x6
 566 00fd 9E000000 		.4byte	0x9e
 567 0101 06       		.uleb128 0x6
 568 0102 A9000000 		.4byte	0xa9
 569 0106 0B       		.uleb128 0xb
 570 0107 10       		.byte	0x10
ARM GAS  /tmp/ccbTDMNz.s 			page 11


 571 0108 04       		.byte	0x4
 572 0109 6C01     		.2byte	0x16c
 573 010b 44010000 		.4byte	0x144
 574 010f 0C       		.uleb128 0xc
 575 0110 54495200 		.ascii	"TIR\000"
 576 0114 04       		.byte	0x4
 577 0115 6E01     		.2byte	0x16e
 578 0117 C8000000 		.4byte	0xc8
 579 011b 00       		.byte	0
 580 011c 0D       		.uleb128 0xd
 581 011d 79010000 		.4byte	.LASF20
 582 0121 04       		.byte	0x4
 583 0122 6F01     		.2byte	0x16f
 584 0124 C8000000 		.4byte	0xc8
 585 0128 04       		.byte	0x4
 586 0129 0D       		.uleb128 0xd
 587 012a D4000000 		.4byte	.LASF21
 588 012e 04       		.byte	0x4
 589 012f 7001     		.2byte	0x170
 590 0131 C8000000 		.4byte	0xc8
 591 0135 08       		.byte	0x8
 592 0136 0D       		.uleb128 0xd
 593 0137 F7020000 		.4byte	.LASF22
 594 013b 04       		.byte	0x4
 595 013c 7101     		.2byte	0x171
 596 013e C8000000 		.4byte	0xc8
 597 0142 0C       		.byte	0xc
 598 0143 00       		.byte	0
 599 0144 0E       		.uleb128 0xe
 600 0145 EB000000 		.4byte	.LASF23
 601 0149 04       		.byte	0x4
 602 014a 7201     		.2byte	0x172
 603 014c 06010000 		.4byte	0x106
 604 0150 0B       		.uleb128 0xb
 605 0151 10       		.byte	0x10
 606 0152 04       		.byte	0x4
 607 0153 7701     		.2byte	0x177
 608 0155 8E010000 		.4byte	0x18e
 609 0159 0C       		.uleb128 0xc
 610 015a 52495200 		.ascii	"RIR\000"
 611 015e 04       		.byte	0x4
 612 015f 7901     		.2byte	0x179
 613 0161 C8000000 		.4byte	0xc8
 614 0165 00       		.byte	0
 615 0166 0D       		.uleb128 0xd
 616 0167 E1010000 		.4byte	.LASF24
 617 016b 04       		.byte	0x4
 618 016c 7A01     		.2byte	0x17a
 619 016e C8000000 		.4byte	0xc8
 620 0172 04       		.byte	0x4
 621 0173 0D       		.uleb128 0xd
 622 0174 7E010000 		.4byte	.LASF25
 623 0178 04       		.byte	0x4
 624 0179 7B01     		.2byte	0x17b
 625 017b C8000000 		.4byte	0xc8
 626 017f 08       		.byte	0x8
 627 0180 0D       		.uleb128 0xd
ARM GAS  /tmp/ccbTDMNz.s 			page 12


 628 0181 27050000 		.4byte	.LASF26
 629 0185 04       		.byte	0x4
 630 0186 7C01     		.2byte	0x17c
 631 0188 C8000000 		.4byte	0xc8
 632 018c 0C       		.byte	0xc
 633 018d 00       		.byte	0
 634 018e 0E       		.uleb128 0xe
 635 018f 62020000 		.4byte	.LASF27
 636 0193 04       		.byte	0x4
 637 0194 7D01     		.2byte	0x17d
 638 0196 50010000 		.4byte	0x150
 639 019a 0B       		.uleb128 0xb
 640 019b 08       		.byte	0x8
 641 019c 04       		.byte	0x4
 642 019d 8201     		.2byte	0x182
 643 019f BE010000 		.4byte	0x1be
 644 01a3 0C       		.uleb128 0xc
 645 01a4 46523100 		.ascii	"FR1\000"
 646 01a8 04       		.byte	0x4
 647 01a9 8401     		.2byte	0x184
 648 01ab C8000000 		.4byte	0xc8
 649 01af 00       		.byte	0
 650 01b0 0C       		.uleb128 0xc
 651 01b1 46523200 		.ascii	"FR2\000"
 652 01b5 04       		.byte	0x4
 653 01b6 8501     		.2byte	0x185
 654 01b8 C8000000 		.4byte	0xc8
 655 01bc 04       		.byte	0x4
 656 01bd 00       		.byte	0
 657 01be 0E       		.uleb128 0xe
 658 01bf 0E020000 		.4byte	.LASF28
 659 01c3 04       		.byte	0x4
 660 01c4 8601     		.2byte	0x186
 661 01c6 9A010000 		.4byte	0x19a
 662 01ca 0F       		.uleb128 0xf
 663 01cb 2003     		.2byte	0x320
 664 01cd 04       		.byte	0x4
 665 01ce 8B01     		.2byte	0x18b
 666 01d0 00030000 		.4byte	0x300
 667 01d4 0C       		.uleb128 0xc
 668 01d5 4D435200 		.ascii	"MCR\000"
 669 01d9 04       		.byte	0x4
 670 01da 8D01     		.2byte	0x18d
 671 01dc C8000000 		.4byte	0xc8
 672 01e0 00       		.byte	0
 673 01e1 0C       		.uleb128 0xc
 674 01e2 4D535200 		.ascii	"MSR\000"
 675 01e6 04       		.byte	0x4
 676 01e7 8E01     		.2byte	0x18e
 677 01e9 C8000000 		.4byte	0xc8
 678 01ed 04       		.byte	0x4
 679 01ee 0C       		.uleb128 0xc
 680 01ef 54535200 		.ascii	"TSR\000"
 681 01f3 04       		.byte	0x4
 682 01f4 8F01     		.2byte	0x18f
 683 01f6 C8000000 		.4byte	0xc8
 684 01fa 08       		.byte	0x8
ARM GAS  /tmp/ccbTDMNz.s 			page 13


 685 01fb 0D       		.uleb128 0xd
 686 01fc 55010000 		.4byte	.LASF29
 687 0200 04       		.byte	0x4
 688 0201 9001     		.2byte	0x190
 689 0203 C8000000 		.4byte	0xc8
 690 0207 0C       		.byte	0xc
 691 0208 0D       		.uleb128 0xd
 692 0209 09020000 		.4byte	.LASF30
 693 020d 04       		.byte	0x4
 694 020e 9101     		.2byte	0x191
 695 0210 C8000000 		.4byte	0xc8
 696 0214 10       		.byte	0x10
 697 0215 0C       		.uleb128 0xc
 698 0216 49455200 		.ascii	"IER\000"
 699 021a 04       		.byte	0x4
 700 021b 9201     		.2byte	0x192
 701 021d C8000000 		.4byte	0xc8
 702 0221 14       		.byte	0x14
 703 0222 0C       		.uleb128 0xc
 704 0223 45535200 		.ascii	"ESR\000"
 705 0227 04       		.byte	0x4
 706 0228 9301     		.2byte	0x193
 707 022a C8000000 		.4byte	0xc8
 708 022e 18       		.byte	0x18
 709 022f 0C       		.uleb128 0xc
 710 0230 42545200 		.ascii	"BTR\000"
 711 0234 04       		.byte	0x4
 712 0235 9401     		.2byte	0x194
 713 0237 C8000000 		.4byte	0xc8
 714 023b 1C       		.byte	0x1c
 715 023c 0D       		.uleb128 0xd
 716 023d 4C030000 		.4byte	.LASF31
 717 0241 04       		.byte	0x4
 718 0242 9501     		.2byte	0x195
 719 0244 00030000 		.4byte	0x300
 720 0248 20       		.byte	0x20
 721 0249 10       		.uleb128 0x10
 722 024a 0A000000 		.4byte	.LASF32
 723 024e 04       		.byte	0x4
 724 024f 9601     		.2byte	0x196
 725 0251 10030000 		.4byte	0x310
 726 0255 8001     		.2byte	0x180
 727 0257 10       		.uleb128 0x10
 728 0258 3F050000 		.4byte	.LASF33
 729 025c 04       		.byte	0x4
 730 025d 9701     		.2byte	0x197
 731 025f 20030000 		.4byte	0x320
 732 0263 B001     		.2byte	0x1b0
 733 0265 10       		.uleb128 0x10
 734 0266 56030000 		.4byte	.LASF34
 735 026a 04       		.byte	0x4
 736 026b 9801     		.2byte	0x198
 737 026d 30030000 		.4byte	0x330
 738 0271 D001     		.2byte	0x1d0
 739 0273 11       		.uleb128 0x11
 740 0274 464D5200 		.ascii	"FMR\000"
 741 0278 04       		.byte	0x4
ARM GAS  /tmp/ccbTDMNz.s 			page 14


 742 0279 9901     		.2byte	0x199
 743 027b C8000000 		.4byte	0xc8
 744 027f 0002     		.2byte	0x200
 745 0281 10       		.uleb128 0x10
 746 0282 4D020000 		.4byte	.LASF35
 747 0286 04       		.byte	0x4
 748 0287 9A01     		.2byte	0x19a
 749 0289 C8000000 		.4byte	0xc8
 750 028d 0402     		.2byte	0x204
 751 028f 10       		.uleb128 0x10
 752 0290 60030000 		.4byte	.LASF36
 753 0294 04       		.byte	0x4
 754 0295 9B01     		.2byte	0x19b
 755 0297 B4000000 		.4byte	0xb4
 756 029b 0802     		.2byte	0x208
 757 029d 10       		.uleb128 0x10
 758 029e E6010000 		.4byte	.LASF37
 759 02a2 04       		.byte	0x4
 760 02a3 9C01     		.2byte	0x19c
 761 02a5 C8000000 		.4byte	0xc8
 762 02a9 0C02     		.2byte	0x20c
 763 02ab 10       		.uleb128 0x10
 764 02ac 6A030000 		.4byte	.LASF38
 765 02b0 04       		.byte	0x4
 766 02b1 9D01     		.2byte	0x19d
 767 02b3 B4000000 		.4byte	0xb4
 768 02b7 1002     		.2byte	0x210
 769 02b9 10       		.uleb128 0x10
 770 02ba 1F030000 		.4byte	.LASF39
 771 02be 04       		.byte	0x4
 772 02bf 9E01     		.2byte	0x19e
 773 02c1 C8000000 		.4byte	0xc8
 774 02c5 1402     		.2byte	0x214
 775 02c7 10       		.uleb128 0x10
 776 02c8 3A040000 		.4byte	.LASF40
 777 02cc 04       		.byte	0x4
 778 02cd 9F01     		.2byte	0x19f
 779 02cf B4000000 		.4byte	0xb4
 780 02d3 1802     		.2byte	0x218
 781 02d5 10       		.uleb128 0x10
 782 02d6 86030000 		.4byte	.LASF41
 783 02da 04       		.byte	0x4
 784 02db A001     		.2byte	0x1a0
 785 02dd C8000000 		.4byte	0xc8
 786 02e1 1C02     		.2byte	0x21c
 787 02e3 10       		.uleb128 0x10
 788 02e4 44040000 		.4byte	.LASF42
 789 02e8 04       		.byte	0x4
 790 02e9 A101     		.2byte	0x1a1
 791 02eb EC000000 		.4byte	0xec
 792 02ef 2002     		.2byte	0x220
 793 02f1 10       		.uleb128 0x10
 794 02f2 3D020000 		.4byte	.LASF43
 795 02f6 04       		.byte	0x4
 796 02f7 A201     		.2byte	0x1a2
 797 02f9 40030000 		.4byte	0x340
 798 02fd 4002     		.2byte	0x240
ARM GAS  /tmp/ccbTDMNz.s 			page 15


 799 02ff 00       		.byte	0
 800 0300 09       		.uleb128 0x9
 801 0301 B4000000 		.4byte	0xb4
 802 0305 10030000 		.4byte	0x310
 803 0309 0A       		.uleb128 0xa
 804 030a CD000000 		.4byte	0xcd
 805 030e 57       		.byte	0x57
 806 030f 00       		.byte	0
 807 0310 09       		.uleb128 0x9
 808 0311 44010000 		.4byte	0x144
 809 0315 20030000 		.4byte	0x320
 810 0319 0A       		.uleb128 0xa
 811 031a CD000000 		.4byte	0xcd
 812 031e 02       		.byte	0x2
 813 031f 00       		.byte	0
 814 0320 09       		.uleb128 0x9
 815 0321 8E010000 		.4byte	0x18e
 816 0325 30030000 		.4byte	0x330
 817 0329 0A       		.uleb128 0xa
 818 032a CD000000 		.4byte	0xcd
 819 032e 01       		.byte	0x1
 820 032f 00       		.byte	0
 821 0330 09       		.uleb128 0x9
 822 0331 B4000000 		.4byte	0xb4
 823 0335 40030000 		.4byte	0x340
 824 0339 0A       		.uleb128 0xa
 825 033a CD000000 		.4byte	0xcd
 826 033e 0B       		.byte	0xb
 827 033f 00       		.byte	0
 828 0340 09       		.uleb128 0x9
 829 0341 BE010000 		.4byte	0x1be
 830 0345 50030000 		.4byte	0x350
 831 0349 0A       		.uleb128 0xa
 832 034a CD000000 		.4byte	0xcd
 833 034e 1B       		.byte	0x1b
 834 034f 00       		.byte	0
 835 0350 0E       		.uleb128 0xe
 836 0351 31000000 		.4byte	.LASF44
 837 0355 04       		.byte	0x4
 838 0356 A301     		.2byte	0x1a3
 839 0358 CA010000 		.4byte	0x1ca
 840 035c 0B       		.uleb128 0xb
 841 035d 34       		.byte	0x34
 842 035e 04       		.byte	0x4
 843 035f 8502     		.2byte	0x285
 844 0361 0E040000 		.4byte	0x40e
 845 0365 0C       		.uleb128 0xc
 846 0366 435200   		.ascii	"CR\000"
 847 0369 04       		.byte	0x4
 848 036a 8702     		.2byte	0x287
 849 036c C8000000 		.4byte	0xc8
 850 0370 00       		.byte	0
 851 0371 0D       		.uleb128 0xd
 852 0372 ED050000 		.4byte	.LASF45
 853 0376 04       		.byte	0x4
 854 0377 8802     		.2byte	0x288
 855 0379 C8000000 		.4byte	0xc8
ARM GAS  /tmp/ccbTDMNz.s 			page 16


 856 037d 04       		.byte	0x4
 857 037e 0C       		.uleb128 0xc
 858 037f 43495200 		.ascii	"CIR\000"
 859 0383 04       		.byte	0x4
 860 0384 8902     		.2byte	0x289
 861 0386 C8000000 		.4byte	0xc8
 862 038a 08       		.byte	0x8
 863 038b 0D       		.uleb128 0xd
 864 038c E2000000 		.4byte	.LASF46
 865 0390 04       		.byte	0x4
 866 0391 8A02     		.2byte	0x28a
 867 0393 C8000000 		.4byte	0xc8
 868 0397 0C       		.byte	0xc
 869 0398 0D       		.uleb128 0xd
 870 0399 02030000 		.4byte	.LASF47
 871 039d 04       		.byte	0x4
 872 039e 8B02     		.2byte	0x28b
 873 03a0 C8000000 		.4byte	0xc8
 874 03a4 10       		.byte	0x10
 875 03a5 0D       		.uleb128 0xd
 876 03a6 3E060000 		.4byte	.LASF48
 877 03aa 04       		.byte	0x4
 878 03ab 8C02     		.2byte	0x28c
 879 03ad C8000000 		.4byte	0xc8
 880 03b1 14       		.byte	0x14
 881 03b2 0D       		.uleb128 0xd
 882 03b3 08040000 		.4byte	.LASF49
 883 03b7 04       		.byte	0x4
 884 03b8 8D02     		.2byte	0x28d
 885 03ba C8000000 		.4byte	0xc8
 886 03be 18       		.byte	0x18
 887 03bf 0D       		.uleb128 0xd
 888 03c0 4C050000 		.4byte	.LASF50
 889 03c4 04       		.byte	0x4
 890 03c5 8E02     		.2byte	0x28e
 891 03c7 C8000000 		.4byte	0xc8
 892 03cb 1C       		.byte	0x1c
 893 03cc 0D       		.uleb128 0xd
 894 03cd BC050000 		.4byte	.LASF51
 895 03d1 04       		.byte	0x4
 896 03d2 8F02     		.2byte	0x28f
 897 03d4 C8000000 		.4byte	0xc8
 898 03d8 20       		.byte	0x20
 899 03d9 0C       		.uleb128 0xc
 900 03da 43535200 		.ascii	"CSR\000"
 901 03de 04       		.byte	0x4
 902 03df 9002     		.2byte	0x290
 903 03e1 C8000000 		.4byte	0xc8
 904 03e5 24       		.byte	0x24
 905 03e6 0D       		.uleb128 0xd
 906 03e7 EF020000 		.4byte	.LASF52
 907 03eb 04       		.byte	0x4
 908 03ec 9102     		.2byte	0x291
 909 03ee C8000000 		.4byte	0xc8
 910 03f2 28       		.byte	0x28
 911 03f3 0D       		.uleb128 0xd
 912 03f4 C1050000 		.4byte	.LASF53
ARM GAS  /tmp/ccbTDMNz.s 			page 17


 913 03f8 04       		.byte	0x4
 914 03f9 9202     		.2byte	0x292
 915 03fb C8000000 		.4byte	0xc8
 916 03ff 2C       		.byte	0x2c
 917 0400 0D       		.uleb128 0xd
 918 0401 C7050000 		.4byte	.LASF54
 919 0405 04       		.byte	0x4
 920 0406 9302     		.2byte	0x293
 921 0408 C8000000 		.4byte	0xc8
 922 040c 30       		.byte	0x30
 923 040d 00       		.byte	0
 924 040e 0E       		.uleb128 0xe
 925 040f D5010000 		.4byte	.LASF55
 926 0413 04       		.byte	0x4
 927 0414 9402     		.2byte	0x294
 928 0416 5C030000 		.4byte	0x35c
 929 041a 0B       		.uleb128 0xb
 930 041b 60       		.byte	0x60
 931 041c 04       		.byte	0x4
 932 041d E002     		.2byte	0x2e0
 933 041f 9B050000 		.4byte	0x59b
 934 0423 0C       		.uleb128 0xc
 935 0424 43523100 		.ascii	"CR1\000"
 936 0428 04       		.byte	0x4
 937 0429 E202     		.2byte	0x2e2
 938 042b FC000000 		.4byte	0xfc
 939 042f 00       		.byte	0
 940 0430 0D       		.uleb128 0xd
 941 0431 4C030000 		.4byte	.LASF31
 942 0435 04       		.byte	0x4
 943 0436 E302     		.2byte	0x2e3
 944 0438 9E000000 		.4byte	0x9e
 945 043c 02       		.byte	0x2
 946 043d 0C       		.uleb128 0xc
 947 043e 43523200 		.ascii	"CR2\000"
 948 0442 04       		.byte	0x4
 949 0443 E402     		.2byte	0x2e4
 950 0445 C8000000 		.4byte	0xc8
 951 0449 04       		.byte	0x4
 952 044a 0D       		.uleb128 0xd
 953 044b 04020000 		.4byte	.LASF56
 954 044f 04       		.byte	0x4
 955 0450 E502     		.2byte	0x2e5
 956 0452 C8000000 		.4byte	0xc8
 957 0456 08       		.byte	0x8
 958 0457 0D       		.uleb128 0xd
 959 0458 00000000 		.4byte	.LASF57
 960 045c 04       		.byte	0x4
 961 045d E602     		.2byte	0x2e6
 962 045f C8000000 		.4byte	0xc8
 963 0463 0C       		.byte	0xc
 964 0464 0C       		.uleb128 0xc
 965 0465 535200   		.ascii	"SR\000"
 966 0468 04       		.byte	0x4
 967 0469 E702     		.2byte	0x2e7
 968 046b C8000000 		.4byte	0xc8
 969 046f 10       		.byte	0x10
ARM GAS  /tmp/ccbTDMNz.s 			page 18


 970 0470 0C       		.uleb128 0xc
 971 0471 45475200 		.ascii	"EGR\000"
 972 0475 04       		.byte	0x4
 973 0476 E802     		.2byte	0x2e8
 974 0478 C8000000 		.4byte	0xc8
 975 047c 14       		.byte	0x14
 976 047d 0D       		.uleb128 0xd
 977 047e 7D000000 		.4byte	.LASF58
 978 0482 04       		.byte	0x4
 979 0483 E902     		.2byte	0x2e9
 980 0485 C8000000 		.4byte	0xc8
 981 0489 18       		.byte	0x18
 982 048a 0D       		.uleb128 0xd
 983 048b 83000000 		.4byte	.LASF59
 984 048f 04       		.byte	0x4
 985 0490 EA02     		.2byte	0x2ea
 986 0492 C8000000 		.4byte	0xc8
 987 0496 1C       		.byte	0x1c
 988 0497 0D       		.uleb128 0xd
 989 0498 0F010000 		.4byte	.LASF60
 990 049c 04       		.byte	0x4
 991 049d EB02     		.2byte	0x2eb
 992 049f C8000000 		.4byte	0xc8
 993 04a3 20       		.byte	0x20
 994 04a4 0C       		.uleb128 0xc
 995 04a5 434E5400 		.ascii	"CNT\000"
 996 04a9 04       		.byte	0x4
 997 04aa EC02     		.2byte	0x2ec
 998 04ac C8000000 		.4byte	0xc8
 999 04b0 24       		.byte	0x24
 1000 04b1 0C       		.uleb128 0xc
 1001 04b2 50534300 		.ascii	"PSC\000"
 1002 04b6 04       		.byte	0x4
 1003 04b7 ED02     		.2byte	0x2ed
 1004 04b9 FC000000 		.4byte	0xfc
 1005 04bd 28       		.byte	0x28
 1006 04be 0D       		.uleb128 0xd
 1007 04bf 8B030000 		.4byte	.LASF61
 1008 04c3 04       		.byte	0x4
 1009 04c4 EE02     		.2byte	0x2ee
 1010 04c6 9E000000 		.4byte	0x9e
 1011 04ca 2A       		.byte	0x2a
 1012 04cb 0C       		.uleb128 0xc
 1013 04cc 41525200 		.ascii	"ARR\000"
 1014 04d0 04       		.byte	0x4
 1015 04d1 EF02     		.2byte	0x2ef
 1016 04d3 C8000000 		.4byte	0xc8
 1017 04d7 2C       		.byte	0x2c
 1018 04d8 0C       		.uleb128 0xc
 1019 04d9 52435200 		.ascii	"RCR\000"
 1020 04dd 04       		.byte	0x4
 1021 04de F002     		.2byte	0x2f0
 1022 04e0 FC000000 		.4byte	0xfc
 1023 04e4 30       		.byte	0x30
 1024 04e5 0D       		.uleb128 0xd
 1025 04e6 A4000000 		.4byte	.LASF62
 1026 04ea 04       		.byte	0x4
ARM GAS  /tmp/ccbTDMNz.s 			page 19


 1027 04eb F102     		.2byte	0x2f1
 1028 04ed 9E000000 		.4byte	0x9e
 1029 04f1 32       		.byte	0x32
 1030 04f2 0D       		.uleb128 0xd
 1031 04f3 97050000 		.4byte	.LASF63
 1032 04f7 04       		.byte	0x4
 1033 04f8 F202     		.2byte	0x2f2
 1034 04fa C8000000 		.4byte	0xc8
 1035 04fe 34       		.byte	0x34
 1036 04ff 0D       		.uleb128 0xd
 1037 0500 9C050000 		.4byte	.LASF64
 1038 0504 04       		.byte	0x4
 1039 0505 F302     		.2byte	0x2f3
 1040 0507 C8000000 		.4byte	0xc8
 1041 050b 38       		.byte	0x38
 1042 050c 0D       		.uleb128 0xd
 1043 050d A1050000 		.4byte	.LASF65
 1044 0511 04       		.byte	0x4
 1045 0512 F402     		.2byte	0x2f4
 1046 0514 C8000000 		.4byte	0xc8
 1047 0518 3C       		.byte	0x3c
 1048 0519 0D       		.uleb128 0xd
 1049 051a A6050000 		.4byte	.LASF66
 1050 051e 04       		.byte	0x4
 1051 051f F502     		.2byte	0x2f5
 1052 0521 C8000000 		.4byte	0xc8
 1053 0525 40       		.byte	0x40
 1054 0526 0D       		.uleb128 0xd
 1055 0527 78000000 		.4byte	.LASF67
 1056 052b 04       		.byte	0x4
 1057 052c F602     		.2byte	0x2f6
 1058 052e C8000000 		.4byte	0xc8
 1059 0532 44       		.byte	0x44
 1060 0533 0C       		.uleb128 0xc
 1061 0534 44435200 		.ascii	"DCR\000"
 1062 0538 04       		.byte	0x4
 1063 0539 F702     		.2byte	0x2f7
 1064 053b FC000000 		.4byte	0xfc
 1065 053f 48       		.byte	0x48
 1066 0540 0D       		.uleb128 0xd
 1067 0541 AF000000 		.4byte	.LASF68
 1068 0545 04       		.byte	0x4
 1069 0546 F802     		.2byte	0x2f8
 1070 0548 9E000000 		.4byte	0x9e
 1071 054c 4A       		.byte	0x4a
 1072 054d 0D       		.uleb128 0xd
 1073 054e 22050000 		.4byte	.LASF69
 1074 0552 04       		.byte	0x4
 1075 0553 F902     		.2byte	0x2f9
 1076 0555 FC000000 		.4byte	0xfc
 1077 0559 4C       		.byte	0x4c
 1078 055a 0D       		.uleb128 0xd
 1079 055b BA000000 		.4byte	.LASF70
 1080 055f 04       		.byte	0x4
 1081 0560 FA02     		.2byte	0x2fa
 1082 0562 9E000000 		.4byte	0x9e
 1083 0566 4E       		.byte	0x4e
ARM GAS  /tmp/ccbTDMNz.s 			page 20


 1084 0567 0C       		.uleb128 0xc
 1085 0568 4F5200   		.ascii	"OR\000"
 1086 056b 04       		.byte	0x4
 1087 056c FB02     		.2byte	0x2fb
 1088 056e FC000000 		.4byte	0xfc
 1089 0572 50       		.byte	0x50
 1090 0573 0D       		.uleb128 0xd
 1091 0574 89000000 		.4byte	.LASF71
 1092 0578 04       		.byte	0x4
 1093 0579 FC02     		.2byte	0x2fc
 1094 057b C8000000 		.4byte	0xc8
 1095 057f 54       		.byte	0x54
 1096 0580 0D       		.uleb128 0xd
 1097 0581 AB050000 		.4byte	.LASF72
 1098 0585 04       		.byte	0x4
 1099 0586 FD02     		.2byte	0x2fd
 1100 0588 C8000000 		.4byte	0xc8
 1101 058c 58       		.byte	0x58
 1102 058d 0D       		.uleb128 0xd
 1103 058e B0050000 		.4byte	.LASF73
 1104 0592 04       		.byte	0x4
 1105 0593 FE02     		.2byte	0x2fe
 1106 0595 C8000000 		.4byte	0xc8
 1107 0599 5C       		.byte	0x5c
 1108 059a 00       		.byte	0
 1109 059b 0E       		.uleb128 0xe
 1110 059c 3D000000 		.4byte	.LASF74
 1111 05a0 04       		.byte	0x4
 1112 05a1 FF02     		.2byte	0x2ff
 1113 05a3 1A040000 		.4byte	0x41a
 1114 05a7 03       		.uleb128 0x3
 1115 05a8 05050000 		.4byte	.LASF75
 1116 05ac 05       		.byte	0x5
 1117 05ad 5E       		.byte	0x5e
 1118 05ae B2050000 		.4byte	0x5b2
 1119 05b2 12       		.uleb128 0x12
 1120 05b3 05050000 		.4byte	.LASF75
 1121 05b7 1E       		.byte	0x1e
 1122 05b8 05       		.byte	0x5
 1123 05b9 B9       		.byte	0xb9
 1124 05ba 33060000 		.4byte	0x633
 1125 05be 13       		.uleb128 0x13
 1126 05bf 05000000 		.4byte	.LASF76
 1127 05c3 05       		.byte	0x5
 1128 05c4 BA       		.byte	0xba
 1129 05c5 4F060000 		.4byte	0x64f
 1130 05c9 00       		.byte	0
 1131 05ca 13       		.uleb128 0x13
 1132 05cb B5050000 		.4byte	.LASF77
 1133 05cf 05       		.byte	0x5
 1134 05d0 BB       		.byte	0xbb
 1135 05d1 C6060000 		.4byte	0x6c6
 1136 05d5 04       		.byte	0x4
 1137 05d6 13       		.uleb128 0x13
 1138 05d7 29020000 		.4byte	.LASF78
 1139 05db 05       		.byte	0x5
 1140 05dc BC       		.byte	0xbc
ARM GAS  /tmp/ccbTDMNz.s 			page 21


 1141 05dd 33060000 		.4byte	0x633
 1142 05e1 05       		.byte	0x5
 1143 05e2 13       		.uleb128 0x13
 1144 05e3 22010000 		.4byte	.LASF79
 1145 05e7 05       		.byte	0x5
 1146 05e8 BD       		.byte	0xbd
 1147 05e9 C6000000 		.4byte	0xc6
 1148 05ed 09       		.byte	0x9
 1149 05ee 14       		.uleb128 0x14
 1150 05ef B9070000 		.4byte	0x7b9
 1151 05f3 0D       		.byte	0xd
 1152 05f4 15       		.uleb128 0x15
 1153 05f5 696400   		.ascii	"id\000"
 1154 05f8 05       		.byte	0x5
 1155 05f9 C7       		.byte	0xc7
 1156 05fa D1060000 		.4byte	0x6d1
 1157 05fe 11       		.byte	0x11
 1158 05ff 13       		.uleb128 0x13
 1159 0600 E8050000 		.4byte	.LASF80
 1160 0604 05       		.byte	0x5
 1161 0605 C8       		.byte	0xc8
 1162 0606 9E000000 		.4byte	0x9e
 1163 060a 13       		.byte	0x13
 1164 060b 13       		.uleb128 0x13
 1165 060c 67000000 		.4byte	.LASF81
 1166 0610 05       		.byte	0x5
 1167 0611 C9       		.byte	0xc9
 1168 0612 E1000000 		.4byte	0xe1
 1169 0616 15       		.byte	0x15
 1170 0617 15       		.uleb128 0x15
 1171 0618 70747200 		.ascii	"ptr\000"
 1172 061c 05       		.byte	0x5
 1173 061d CA       		.byte	0xca
 1174 061e DB000000 		.4byte	0xdb
 1175 0622 19       		.byte	0x19
 1176 0623 16       		.uleb128 0x16
 1177 0624 21040000 		.4byte	.LASF132
 1178 0628 05       		.byte	0x5
 1179 0629 CB       		.byte	0xcb
 1180 062a 93000000 		.4byte	0x93
 1181 062e 01       		.byte	0x1
 1182 062f 07       		.byte	0x7
 1183 0630 01       		.byte	0x1
 1184 0631 1D       		.byte	0x1d
 1185 0632 00       		.byte	0
 1186 0633 03       		.uleb128 0x3
 1187 0634 0B030000 		.4byte	.LASF82
 1188 0638 05       		.byte	0x5
 1189 0639 63       		.byte	0x63
 1190 063a 3E060000 		.4byte	0x63e
 1191 063e 07       		.uleb128 0x7
 1192 063f 04       		.byte	0x4
 1193 0640 44060000 		.4byte	0x644
 1194 0644 17       		.uleb128 0x17
 1195 0645 4F060000 		.4byte	0x64f
 1196 0649 18       		.uleb128 0x18
 1197 064a 4F060000 		.4byte	0x64f
ARM GAS  /tmp/ccbTDMNz.s 			page 22


 1198 064e 00       		.byte	0
 1199 064f 07       		.uleb128 0x7
 1200 0650 04       		.byte	0x4
 1201 0651 A7050000 		.4byte	0x5a7
 1202 0655 19       		.uleb128 0x19
 1203 0656 01       		.byte	0x1
 1204 0657 05       		.byte	0x5
 1205 0658 68       		.byte	0x68
 1206 0659 88060000 		.4byte	0x688
 1207 065d 1A       		.uleb128 0x1a
 1208 065e 94010000 		.4byte	.LASF83
 1209 0662 00       		.sleb128 0
 1210 0663 1A       		.uleb128 0x1a
 1211 0664 15000000 		.4byte	.LASF84
 1212 0668 01       		.sleb128 1
 1213 0669 1A       		.uleb128 0x1a
 1214 066a B8020000 		.4byte	.LASF85
 1215 066e 02       		.sleb128 2
 1216 066f 1A       		.uleb128 0x1a
 1217 0670 49010000 		.4byte	.LASF86
 1218 0674 03       		.sleb128 3
 1219 0675 1A       		.uleb128 0x1a
 1220 0676 01010000 		.4byte	.LASF87
 1221 067a 04       		.sleb128 4
 1222 067b 1A       		.uleb128 0x1a
 1223 067c B7010000 		.4byte	.LASF88
 1224 0680 05       		.sleb128 5
 1225 0681 1A       		.uleb128 0x1a
 1226 0682 F2050000 		.4byte	.LASF89
 1227 0686 06       		.sleb128 6
 1228 0687 00       		.byte	0
 1229 0688 03       		.uleb128 0x3
 1230 0689 25030000 		.4byte	.LASF90
 1231 068d 05       		.byte	0x5
 1232 068e 70       		.byte	0x70
 1233 068f 55060000 		.4byte	0x655
 1234 0693 19       		.uleb128 0x19
 1235 0694 01       		.byte	0x1
 1236 0695 05       		.byte	0x5
 1237 0696 75       		.byte	0x75
 1238 0697 C6060000 		.4byte	0x6c6
 1239 069b 1A       		.uleb128 0x1a
 1240 069c 83010000 		.4byte	.LASF91
 1241 06a0 00       		.sleb128 0
 1242 06a1 1A       		.uleb128 0x1a
 1243 06a2 54050000 		.4byte	.LASF92
 1244 06a6 01       		.sleb128 1
 1245 06a7 1A       		.uleb128 0x1a
 1246 06a8 2A040000 		.4byte	.LASF93
 1247 06ac 02       		.sleb128 2
 1248 06ad 1A       		.uleb128 0x1a
 1249 06ae 10040000 		.4byte	.LASF94
 1250 06b2 03       		.sleb128 3
 1251 06b3 1A       		.uleb128 0x1a
 1252 06b4 8C020000 		.4byte	.LASF95
 1253 06b8 04       		.sleb128 4
 1254 06b9 1A       		.uleb128 0x1a
ARM GAS  /tmp/ccbTDMNz.s 			page 23


 1255 06ba 74030000 		.4byte	.LASF96
 1256 06be 05       		.sleb128 5
 1257 06bf 1A       		.uleb128 0x1a
 1258 06c0 52020000 		.4byte	.LASF97
 1259 06c4 06       		.sleb128 6
 1260 06c5 00       		.byte	0
 1261 06c6 03       		.uleb128 0x3
 1262 06c7 7A020000 		.4byte	.LASF98
 1263 06cb 05       		.byte	0x5
 1264 06cc 7D       		.byte	0x7d
 1265 06cd 93060000 		.4byte	0x693
 1266 06d1 03       		.uleb128 0x3
 1267 06d2 32020000 		.4byte	.LASF99
 1268 06d6 05       		.byte	0x5
 1269 06d7 83       		.byte	0x83
 1270 06d8 9E000000 		.4byte	0x9e
 1271 06dc 03       		.uleb128 0x3
 1272 06dd C8030000 		.4byte	.LASF100
 1273 06e1 05       		.byte	0x5
 1274 06e2 8F       		.byte	0x8f
 1275 06e3 9E000000 		.4byte	0x9e
 1276 06e7 1B       		.uleb128 0x1b
 1277 06e8 04       		.byte	0x4
 1278 06e9 06       		.byte	0x6
 1279 06ea 1E       		.byte	0x1e
 1280 06eb FC060000 		.4byte	0x6fc
 1281 06ef 13       		.uleb128 0x13
 1282 06f0 05000000 		.4byte	.LASF76
 1283 06f4 06       		.byte	0x6
 1284 06f5 20       		.byte	0x20
 1285 06f6 4F060000 		.4byte	0x64f
 1286 06fa 00       		.byte	0
 1287 06fb 00       		.byte	0
 1288 06fc 03       		.uleb128 0x3
 1289 06fd 33060000 		.4byte	.LASF101
 1290 0701 06       		.byte	0x6
 1291 0702 21       		.byte	0x21
 1292 0703 E7060000 		.4byte	0x6e7
 1293 0707 12       		.uleb128 0x12
 1294 0708 6C000000 		.4byte	.LASF102
 1295 070c 60       		.byte	0x60
 1296 070d 05       		.byte	0x5
 1297 070e E3       		.byte	0xe3
 1298 070f 83070000 		.4byte	0x783
 1299 0713 13       		.uleb128 0x13
 1300 0714 CE000000 		.4byte	.LASF103
 1301 0718 05       		.byte	0x5
 1302 0719 E7       		.byte	0xe7
 1303 071a 88060000 		.4byte	0x688
 1304 071e 00       		.byte	0
 1305 071f 13       		.uleb128 0x13
 1306 0720 44010000 		.4byte	.LASF104
 1307 0724 05       		.byte	0x5
 1308 0725 EB       		.byte	0xeb
 1309 0726 B4000000 		.4byte	0xb4
 1310 072a 04       		.byte	0x4
 1311 072b 13       		.uleb128 0x13
ARM GAS  /tmp/ccbTDMNz.s 			page 24


 1312 072c 91050000 		.4byte	.LASF105
 1313 0730 05       		.byte	0x5
 1314 0731 EF       		.byte	0xef
 1315 0732 B4000000 		.4byte	0xb4
 1316 0736 08       		.byte	0x8
 1317 0737 13       		.uleb128 0x13
 1318 0738 11050000 		.4byte	.LASF106
 1319 073c 05       		.byte	0x5
 1320 073d F3       		.byte	0xf3
 1321 073e FC060000 		.4byte	0x6fc
 1322 0742 0C       		.byte	0xc
 1323 0743 13       		.uleb128 0x13
 1324 0744 C7020000 		.4byte	.LASF107
 1325 0748 05       		.byte	0x5
 1326 0749 F7       		.byte	0xf7
 1327 074a 04080000 		.4byte	0x804
 1328 074e 10       		.byte	0x10
 1329 074f 13       		.uleb128 0x13
 1330 0750 11060000 		.4byte	.LASF108
 1331 0754 05       		.byte	0x5
 1332 0755 FB       		.byte	0xfb
 1333 0756 14080000 		.4byte	0x814
 1334 075a 1C       		.byte	0x1c
 1335 075b 0D       		.uleb128 0xd
 1336 075c 1B050000 		.4byte	.LASF109
 1337 0760 05       		.byte	0x5
 1338 0761 0901     		.2byte	0x109
 1339 0763 24080000 		.4byte	0x824
 1340 0767 54       		.byte	0x54
 1341 0768 0C       		.uleb128 0xc
 1342 0769 74696D00 		.ascii	"tim\000"
 1343 076d 05       		.byte	0x5
 1344 076e 0E01     		.2byte	0x10e
 1345 0770 2F080000 		.4byte	0x82f
 1346 0774 58       		.byte	0x58
 1347 0775 0C       		.uleb128 0xc
 1348 0776 63616E00 		.ascii	"can\000"
 1349 077a 05       		.byte	0x5
 1350 077b 1301     		.2byte	0x113
 1351 077d 35080000 		.4byte	0x835
 1352 0781 5C       		.byte	0x5c
 1353 0782 00       		.byte	0
 1354 0783 1B       		.uleb128 0x1b
 1355 0784 04       		.byte	0x4
 1356 0785 05       		.byte	0x5
 1357 0786 BF       		.byte	0xbf
 1358 0787 98070000 		.4byte	0x798
 1359 078b 13       		.uleb128 0x13
 1360 078c 2C050000 		.4byte	.LASF110
 1361 0790 05       		.byte	0x5
 1362 0791 C0       		.byte	0xc0
 1363 0792 B4000000 		.4byte	0xb4
 1364 0796 00       		.byte	0
 1365 0797 00       		.byte	0
 1366 0798 1B       		.uleb128 0x1b
 1367 0799 04       		.byte	0x4
 1368 079a 05       		.byte	0x5
ARM GAS  /tmp/ccbTDMNz.s 			page 25


 1369 079b C2       		.byte	0xc2
 1370 079c B9070000 		.4byte	0x7b9
 1371 07a0 13       		.uleb128 0x13
 1372 07a1 44010000 		.4byte	.LASF104
 1373 07a5 05       		.byte	0x5
 1374 07a6 C3       		.byte	0xc3
 1375 07a7 9E000000 		.4byte	0x9e
 1376 07ab 00       		.byte	0
 1377 07ac 13       		.uleb128 0x13
 1378 07ad 49000000 		.4byte	.LASF111
 1379 07b1 05       		.byte	0x5
 1380 07b2 C4       		.byte	0xc4
 1381 07b3 9E000000 		.4byte	0x9e
 1382 07b7 02       		.byte	0x2
 1383 07b8 00       		.byte	0
 1384 07b9 1C       		.uleb128 0x1c
 1385 07ba 04       		.byte	0x4
 1386 07bb 05       		.byte	0x5
 1387 07bc BE       		.byte	0xbe
 1388 07bd CC070000 		.4byte	0x7cc
 1389 07c1 1D       		.uleb128 0x1d
 1390 07c2 83070000 		.4byte	0x783
 1391 07c6 1D       		.uleb128 0x1d
 1392 07c7 98070000 		.4byte	0x798
 1393 07cb 00       		.byte	0
 1394 07cc 1B       		.uleb128 0x1b
 1395 07cd 0C       		.byte	0xc
 1396 07ce 05       		.byte	0x5
 1397 07cf D1       		.byte	0xd1
 1398 07d0 F9070000 		.4byte	0x7f9
 1399 07d4 13       		.uleb128 0x13
 1400 07d5 9B000000 		.4byte	.LASF112
 1401 07d9 05       		.byte	0x5
 1402 07da D5       		.byte	0xd5
 1403 07db B4000000 		.4byte	0xb4
 1404 07df 00       		.byte	0
 1405 07e0 13       		.uleb128 0x13
 1406 07e1 0B060000 		.4byte	.LASF113
 1407 07e5 05       		.byte	0x5
 1408 07e6 D9       		.byte	0xd9
 1409 07e7 B4000000 		.4byte	0xb4
 1410 07eb 04       		.byte	0x4
 1411 07ec 13       		.uleb128 0x13
 1412 07ed FC020000 		.4byte	.LASF114
 1413 07f1 05       		.byte	0x5
 1414 07f2 DD       		.byte	0xdd
 1415 07f3 B4000000 		.4byte	0xb4
 1416 07f7 08       		.byte	0x8
 1417 07f8 00       		.byte	0
 1418 07f9 03       		.uleb128 0x3
 1419 07fa FF050000 		.4byte	.LASF115
 1420 07fe 05       		.byte	0x5
 1421 07ff DE       		.byte	0xde
 1422 0800 CC070000 		.4byte	0x7cc
 1423 0804 09       		.uleb128 0x9
 1424 0805 4F060000 		.4byte	0x64f
 1425 0809 14080000 		.4byte	0x814
ARM GAS  /tmp/ccbTDMNz.s 			page 26


 1426 080d 0A       		.uleb128 0xa
 1427 080e CD000000 		.4byte	0xcd
 1428 0812 02       		.byte	0x2
 1429 0813 00       		.byte	0
 1430 0814 09       		.uleb128 0x9
 1431 0815 4F060000 		.4byte	0x64f
 1432 0819 24080000 		.4byte	0x824
 1433 081d 0A       		.uleb128 0xa
 1434 081e CD000000 		.4byte	0xcd
 1435 0822 0D       		.byte	0xd
 1436 0823 00       		.byte	0
 1437 0824 07       		.uleb128 0x7
 1438 0825 04       		.byte	0x4
 1439 0826 2A080000 		.4byte	0x82a
 1440 082a 08       		.uleb128 0x8
 1441 082b F9070000 		.4byte	0x7f9
 1442 082f 07       		.uleb128 0x7
 1443 0830 04       		.byte	0x4
 1444 0831 9B050000 		.4byte	0x59b
 1445 0835 07       		.uleb128 0x7
 1446 0836 04       		.byte	0x4
 1447 0837 50030000 		.4byte	0x350
 1448 083b 1E       		.uleb128 0x1e
 1449 083c C5000000 		.4byte	.LASF116
 1450 0840 01       		.byte	0x1
 1451 0841 28       		.byte	0x28
 1452 0842 00000000 		.4byte	.LFB118
 1453 0846 24000000 		.4byte	.LFE118-.LFB118
 1454 084a 01       		.uleb128 0x1
 1455 084b 9C       		.byte	0x9c
 1456 084c 1F       		.uleb128 0x1f
 1457 084d D5050000 		.4byte	.LASF117
 1458 0851 01       		.byte	0x1
 1459 0852 3B       		.byte	0x3b
 1460 0853 24000000 		.4byte	.LFB119
 1461 0857 10000000 		.4byte	.LFE119-.LFB119
 1462 085b 01       		.uleb128 0x1
 1463 085c 9C       		.byte	0x9c
 1464 085d 20       		.uleb128 0x20
 1465 085e EC040000 		.4byte	.LASF118
 1466 0862 01       		.byte	0x1
 1467 0863 4D       		.byte	0x4d
 1468 0864 34000000 		.4byte	.LFB120
 1469 0868 6C000000 		.4byte	.LFE120-.LFB120
 1470 086c 01       		.uleb128 0x1
 1471 086d 9C       		.byte	0x9c
 1472 086e AB080000 		.4byte	0x8ab
 1473 0872 21       		.uleb128 0x21
 1474 0873 20000000 		.4byte	.LASF120
 1475 0877 01       		.byte	0x1
 1476 0878 4D       		.byte	0x4d
 1477 0879 AB080000 		.4byte	0x8ab
 1478 087d 02       		.uleb128 0x2
 1479 087e 91       		.byte	0x91
 1480 087f 64       		.sleb128 -28
 1481 0880 22       		.uleb128 0x22
 1482 0881 74696D00 		.ascii	"tim\000"
ARM GAS  /tmp/ccbTDMNz.s 			page 27


 1483 0885 01       		.byte	0x1
 1484 0886 4E       		.byte	0x4e
 1485 0887 2F080000 		.4byte	0x82f
 1486 088b 02       		.uleb128 0x2
 1487 088c 91       		.byte	0x91
 1488 088d 74       		.sleb128 -12
 1489 088e 23       		.uleb128 0x23
 1490 088f 0B060000 		.4byte	.LASF113
 1491 0893 01       		.byte	0x1
 1492 0894 4F       		.byte	0x4f
 1493 0895 B4000000 		.4byte	0xb4
 1494 0899 02       		.uleb128 0x2
 1495 089a 91       		.byte	0x91
 1496 089b 70       		.sleb128 -16
 1497 089c 22       		.uleb128 0x22
 1498 089d 70736300 		.ascii	"psc\000"
 1499 08a1 01       		.byte	0x1
 1500 08a2 50       		.byte	0x50
 1501 08a3 9E000000 		.4byte	0x9e
 1502 08a7 02       		.uleb128 0x2
 1503 08a8 91       		.byte	0x91
 1504 08a9 6E       		.sleb128 -18
 1505 08aa 00       		.byte	0
 1506 08ab 07       		.uleb128 0x7
 1507 08ac 04       		.byte	0x4
 1508 08ad 07070000 		.4byte	0x707
 1509 08b1 20       		.uleb128 0x20
 1510 08b2 A5020000 		.4byte	.LASF119
 1511 08b6 01       		.byte	0x1
 1512 08b7 77       		.byte	0x77
 1513 08b8 A0000000 		.4byte	.LFB121
 1514 08bc 3C000000 		.4byte	.LFE121-.LFB121
 1515 08c0 01       		.uleb128 0x1
 1516 08c1 9C       		.byte	0x9c
 1517 08c2 E3080000 		.4byte	0x8e3
 1518 08c6 21       		.uleb128 0x21
 1519 08c7 20000000 		.4byte	.LASF120
 1520 08cb 01       		.byte	0x1
 1521 08cc 77       		.byte	0x77
 1522 08cd AB080000 		.4byte	0x8ab
 1523 08d1 02       		.uleb128 0x2
 1524 08d2 91       		.byte	0x91
 1525 08d3 6C       		.sleb128 -20
 1526 08d4 22       		.uleb128 0x22
 1527 08d5 74696D00 		.ascii	"tim\000"
 1528 08d9 01       		.byte	0x1
 1529 08da 78       		.byte	0x78
 1530 08db 2F080000 		.4byte	0x82f
 1531 08df 02       		.uleb128 0x2
 1532 08e0 91       		.byte	0x91
 1533 08e1 74       		.sleb128 -12
 1534 08e2 00       		.byte	0
 1535 08e3 24       		.uleb128 0x24
 1536 08e4 D5020000 		.4byte	.LASF121
 1537 08e8 01       		.byte	0x1
 1538 08e9 93       		.byte	0x93
 1539 08ea DC000000 		.4byte	.LFB122
ARM GAS  /tmp/ccbTDMNz.s 			page 28


 1540 08ee 2C000000 		.4byte	.LFE122-.LFB122
 1541 08f2 01       		.uleb128 0x1
 1542 08f3 9C       		.byte	0x9c
 1543 08f4 15090000 		.4byte	0x915
 1544 08f8 21       		.uleb128 0x21
 1545 08f9 20000000 		.4byte	.LASF120
 1546 08fd 01       		.byte	0x1
 1547 08fe 93       		.byte	0x93
 1548 08ff AB080000 		.4byte	0x8ab
 1549 0903 02       		.uleb128 0x2
 1550 0904 91       		.byte	0x91
 1551 0905 74       		.sleb128 -12
 1552 0906 22       		.uleb128 0x22
 1553 0907 74696D00 		.ascii	"tim\000"
 1554 090b 01       		.byte	0x1
 1555 090c 94       		.byte	0x94
 1556 090d 2F080000 		.4byte	0x82f
 1557 0911 02       		.uleb128 0x2
 1558 0912 91       		.byte	0x91
 1559 0913 7C       		.sleb128 -4
 1560 0914 00       		.byte	0
 1561 0915 24       		.uleb128 0x24
 1562 0916 EB010000 		.4byte	.LASF122
 1563 091a 01       		.byte	0x1
 1564 091b A3       		.byte	0xa3
 1565 091c 08010000 		.4byte	.LFB123
 1566 0920 20000000 		.4byte	.LFE123-.LFB123
 1567 0924 01       		.uleb128 0x1
 1568 0925 9C       		.byte	0x9c
 1569 0926 47090000 		.4byte	0x947
 1570 092a 21       		.uleb128 0x21
 1571 092b 20000000 		.4byte	.LASF120
 1572 092f 01       		.byte	0x1
 1573 0930 A3       		.byte	0xa3
 1574 0931 AB080000 		.4byte	0x8ab
 1575 0935 02       		.uleb128 0x2
 1576 0936 91       		.byte	0x91
 1577 0937 74       		.sleb128 -12
 1578 0938 22       		.uleb128 0x22
 1579 0939 74696D00 		.ascii	"tim\000"
 1580 093d 01       		.byte	0x1
 1581 093e A4       		.byte	0xa4
 1582 093f 2F080000 		.4byte	0x82f
 1583 0943 02       		.uleb128 0x2
 1584 0944 91       		.byte	0x91
 1585 0945 7C       		.sleb128 -4
 1586 0946 00       		.byte	0
 1587 0947 24       		.uleb128 0x24
 1588 0948 76050000 		.4byte	.LASF123
 1589 094c 01       		.byte	0x1
 1590 094d AC       		.byte	0xac
 1591 094e 28010000 		.4byte	.LFB124
 1592 0952 20000000 		.4byte	.LFE124-.LFB124
 1593 0956 01       		.uleb128 0x1
 1594 0957 9C       		.byte	0x9c
 1595 0958 87090000 		.4byte	0x987
 1596 095c 21       		.uleb128 0x21
ARM GAS  /tmp/ccbTDMNz.s 			page 29


 1597 095d 20000000 		.4byte	.LASF120
 1598 0961 01       		.byte	0x1
 1599 0962 AC       		.byte	0xac
 1600 0963 AB080000 		.4byte	0x8ab
 1601 0967 02       		.uleb128 0x2
 1602 0968 91       		.byte	0x91
 1603 0969 74       		.sleb128 -12
 1604 096a 21       		.uleb128 0x21
 1605 096b 5A010000 		.4byte	.LASF124
 1606 096f 01       		.byte	0x1
 1607 0970 AC       		.byte	0xac
 1608 0971 DC060000 		.4byte	0x6dc
 1609 0975 02       		.uleb128 0x2
 1610 0976 91       		.byte	0x91
 1611 0977 72       		.sleb128 -14
 1612 0978 22       		.uleb128 0x22
 1613 0979 74696D00 		.ascii	"tim\000"
 1614 097d 01       		.byte	0x1
 1615 097e AD       		.byte	0xad
 1616 097f 2F080000 		.4byte	0x82f
 1617 0983 02       		.uleb128 0x2
 1618 0984 91       		.byte	0x91
 1619 0985 7C       		.sleb128 -4
 1620 0986 00       		.byte	0
 1621 0987 25       		.uleb128 0x25
 1622 0988 29010000 		.4byte	.LASF125
 1623 098c 01       		.byte	0x1
 1624 098d B3       		.byte	0xb3
 1625 098e DC060000 		.4byte	0x6dc
 1626 0992 48010000 		.4byte	.LFB125
 1627 0996 1A000000 		.4byte	.LFE125-.LFB125
 1628 099a 01       		.uleb128 0x1
 1629 099b 9C       		.byte	0x9c
 1630 099c BD090000 		.4byte	0x9bd
 1631 09a0 21       		.uleb128 0x21
 1632 09a1 20000000 		.4byte	.LASF120
 1633 09a5 01       		.byte	0x1
 1634 09a6 B3       		.byte	0xb3
 1635 09a7 AB080000 		.4byte	0x8ab
 1636 09ab 02       		.uleb128 0x2
 1637 09ac 91       		.byte	0x91
 1638 09ad 74       		.sleb128 -12
 1639 09ae 22       		.uleb128 0x22
 1640 09af 74696D00 		.ascii	"tim\000"
 1641 09b3 01       		.byte	0x1
 1642 09b4 B4       		.byte	0xb4
 1643 09b5 2F080000 		.4byte	0x82f
 1644 09b9 02       		.uleb128 0x2
 1645 09ba 91       		.byte	0x91
 1646 09bb 7C       		.sleb128 -4
 1647 09bc 00       		.byte	0
 1648 09bd 25       		.uleb128 0x25
 1649 09be 32030000 		.4byte	.LASF126
 1650 09c2 01       		.byte	0x1
 1651 09c3 B9       		.byte	0xb9
 1652 09c4 DC060000 		.4byte	0x6dc
 1653 09c8 64010000 		.4byte	.LFB126
ARM GAS  /tmp/ccbTDMNz.s 			page 30


 1654 09cc 16000000 		.4byte	.LFE126-.LFB126
 1655 09d0 01       		.uleb128 0x1
 1656 09d1 9C       		.byte	0x9c
 1657 09d2 F3090000 		.4byte	0x9f3
 1658 09d6 21       		.uleb128 0x21
 1659 09d7 20000000 		.4byte	.LASF120
 1660 09db 01       		.byte	0x1
 1661 09dc B9       		.byte	0xb9
 1662 09dd AB080000 		.4byte	0x8ab
 1663 09e1 02       		.uleb128 0x2
 1664 09e2 91       		.byte	0x91
 1665 09e3 74       		.sleb128 -12
 1666 09e4 22       		.uleb128 0x22
 1667 09e5 74696D00 		.ascii	"tim\000"
 1668 09e9 01       		.byte	0x1
 1669 09ea BA       		.byte	0xba
 1670 09eb 2F080000 		.4byte	0x82f
 1671 09ef 02       		.uleb128 0x2
 1672 09f0 91       		.byte	0x91
 1673 09f1 7C       		.sleb128 -4
 1674 09f2 00       		.byte	0
 1675 09f3 24       		.uleb128 0x24
 1676 09f4 19060000 		.4byte	.LASF127
 1677 09f8 01       		.byte	0x1
 1678 09f9 BF       		.byte	0xbf
 1679 09fa 7C010000 		.4byte	.LFB127
 1680 09fe 1C000000 		.4byte	.LFE127-.LFB127
 1681 0a02 01       		.uleb128 0x1
 1682 0a03 9C       		.byte	0x9c
 1683 0a04 330A0000 		.4byte	0xa33
 1684 0a08 21       		.uleb128 0x21
 1685 0a09 20000000 		.4byte	.LASF120
 1686 0a0d 01       		.byte	0x1
 1687 0a0e BF       		.byte	0xbf
 1688 0a0f AB080000 		.4byte	0x8ab
 1689 0a13 02       		.uleb128 0x2
 1690 0a14 91       		.byte	0x91
 1691 0a15 74       		.sleb128 -12
 1692 0a16 26       		.uleb128 0x26
 1693 0a17 636E7400 		.ascii	"cnt\000"
 1694 0a1b 01       		.byte	0x1
 1695 0a1c BF       		.byte	0xbf
 1696 0a1d DC060000 		.4byte	0x6dc
 1697 0a21 02       		.uleb128 0x2
 1698 0a22 91       		.byte	0x91
 1699 0a23 72       		.sleb128 -14
 1700 0a24 22       		.uleb128 0x22
 1701 0a25 74696D00 		.ascii	"tim\000"
 1702 0a29 01       		.byte	0x1
 1703 0a2a C0       		.byte	0xc0
 1704 0a2b 2F080000 		.4byte	0x82f
 1705 0a2f 02       		.uleb128 0x2
 1706 0a30 91       		.byte	0x91
 1707 0a31 7C       		.sleb128 -4
 1708 0a32 00       		.byte	0
 1709 0a33 27       		.uleb128 0x27
 1710 0a34 B1030000 		.4byte	.LASF128
ARM GAS  /tmp/ccbTDMNz.s 			page 31


 1711 0a38 07       		.byte	0x7
 1712 0a39 9806     		.2byte	0x698
 1713 0a3b 01010000 		.4byte	0x101
 1714 0a3f 28       		.uleb128 0x28
 1715 0a40 CD020000 		.4byte	.LASF129
 1716 0a44 08       		.byte	0x8
 1717 0a45 7E       		.byte	0x7e
 1718 0a46 07070000 		.4byte	0x707
 1719 0a4a 00       		.byte	0
 1720              		.section	.debug_abbrev,"",%progbits
 1721              	.Ldebug_abbrev0:
 1722 0000 01       		.uleb128 0x1
 1723 0001 11       		.uleb128 0x11
 1724 0002 01       		.byte	0x1
 1725 0003 25       		.uleb128 0x25
 1726 0004 0E       		.uleb128 0xe
 1727 0005 13       		.uleb128 0x13
 1728 0006 0B       		.uleb128 0xb
 1729 0007 03       		.uleb128 0x3
 1730 0008 0E       		.uleb128 0xe
 1731 0009 11       		.uleb128 0x11
 1732 000a 01       		.uleb128 0x1
 1733 000b 12       		.uleb128 0x12
 1734 000c 06       		.uleb128 0x6
 1735 000d 10       		.uleb128 0x10
 1736 000e 17       		.uleb128 0x17
 1737 000f 00       		.byte	0
 1738 0010 00       		.byte	0
 1739 0011 02       		.uleb128 0x2
 1740 0012 24       		.uleb128 0x24
 1741 0013 00       		.byte	0
 1742 0014 0B       		.uleb128 0xb
 1743 0015 0B       		.uleb128 0xb
 1744 0016 3E       		.uleb128 0x3e
 1745 0017 0B       		.uleb128 0xb
 1746 0018 03       		.uleb128 0x3
 1747 0019 0E       		.uleb128 0xe
 1748 001a 00       		.byte	0
 1749 001b 00       		.byte	0
 1750 001c 03       		.uleb128 0x3
 1751 001d 16       		.uleb128 0x16
 1752 001e 00       		.byte	0
 1753 001f 03       		.uleb128 0x3
 1754 0020 0E       		.uleb128 0xe
 1755 0021 3A       		.uleb128 0x3a
 1756 0022 0B       		.uleb128 0xb
 1757 0023 3B       		.uleb128 0x3b
 1758 0024 0B       		.uleb128 0xb
 1759 0025 49       		.uleb128 0x49
 1760 0026 13       		.uleb128 0x13
 1761 0027 00       		.byte	0
 1762 0028 00       		.byte	0
 1763 0029 04       		.uleb128 0x4
 1764 002a 24       		.uleb128 0x24
 1765 002b 00       		.byte	0
 1766 002c 0B       		.uleb128 0xb
 1767 002d 0B       		.uleb128 0xb
ARM GAS  /tmp/ccbTDMNz.s 			page 32


 1768 002e 3E       		.uleb128 0x3e
 1769 002f 0B       		.uleb128 0xb
 1770 0030 03       		.uleb128 0x3
 1771 0031 08       		.uleb128 0x8
 1772 0032 00       		.byte	0
 1773 0033 00       		.byte	0
 1774 0034 05       		.uleb128 0x5
 1775 0035 0F       		.uleb128 0xf
 1776 0036 00       		.byte	0
 1777 0037 0B       		.uleb128 0xb
 1778 0038 0B       		.uleb128 0xb
 1779 0039 00       		.byte	0
 1780 003a 00       		.byte	0
 1781 003b 06       		.uleb128 0x6
 1782 003c 35       		.uleb128 0x35
 1783 003d 00       		.byte	0
 1784 003e 49       		.uleb128 0x49
 1785 003f 13       		.uleb128 0x13
 1786 0040 00       		.byte	0
 1787 0041 00       		.byte	0
 1788 0042 07       		.uleb128 0x7
 1789 0043 0F       		.uleb128 0xf
 1790 0044 00       		.byte	0
 1791 0045 0B       		.uleb128 0xb
 1792 0046 0B       		.uleb128 0xb
 1793 0047 49       		.uleb128 0x49
 1794 0048 13       		.uleb128 0x13
 1795 0049 00       		.byte	0
 1796 004a 00       		.byte	0
 1797 004b 08       		.uleb128 0x8
 1798 004c 26       		.uleb128 0x26
 1799 004d 00       		.byte	0
 1800 004e 49       		.uleb128 0x49
 1801 004f 13       		.uleb128 0x13
 1802 0050 00       		.byte	0
 1803 0051 00       		.byte	0
 1804 0052 09       		.uleb128 0x9
 1805 0053 01       		.uleb128 0x1
 1806 0054 01       		.byte	0x1
 1807 0055 49       		.uleb128 0x49
 1808 0056 13       		.uleb128 0x13
 1809 0057 01       		.uleb128 0x1
 1810 0058 13       		.uleb128 0x13
 1811 0059 00       		.byte	0
 1812 005a 00       		.byte	0
 1813 005b 0A       		.uleb128 0xa
 1814 005c 21       		.uleb128 0x21
 1815 005d 00       		.byte	0
 1816 005e 49       		.uleb128 0x49
 1817 005f 13       		.uleb128 0x13
 1818 0060 2F       		.uleb128 0x2f
 1819 0061 0B       		.uleb128 0xb
 1820 0062 00       		.byte	0
 1821 0063 00       		.byte	0
 1822 0064 0B       		.uleb128 0xb
 1823 0065 13       		.uleb128 0x13
 1824 0066 01       		.byte	0x1
ARM GAS  /tmp/ccbTDMNz.s 			page 33


 1825 0067 0B       		.uleb128 0xb
 1826 0068 0B       		.uleb128 0xb
 1827 0069 3A       		.uleb128 0x3a
 1828 006a 0B       		.uleb128 0xb
 1829 006b 3B       		.uleb128 0x3b
 1830 006c 05       		.uleb128 0x5
 1831 006d 01       		.uleb128 0x1
 1832 006e 13       		.uleb128 0x13
 1833 006f 00       		.byte	0
 1834 0070 00       		.byte	0
 1835 0071 0C       		.uleb128 0xc
 1836 0072 0D       		.uleb128 0xd
 1837 0073 00       		.byte	0
 1838 0074 03       		.uleb128 0x3
 1839 0075 08       		.uleb128 0x8
 1840 0076 3A       		.uleb128 0x3a
 1841 0077 0B       		.uleb128 0xb
 1842 0078 3B       		.uleb128 0x3b
 1843 0079 05       		.uleb128 0x5
 1844 007a 49       		.uleb128 0x49
 1845 007b 13       		.uleb128 0x13
 1846 007c 38       		.uleb128 0x38
 1847 007d 0B       		.uleb128 0xb
 1848 007e 00       		.byte	0
 1849 007f 00       		.byte	0
 1850 0080 0D       		.uleb128 0xd
 1851 0081 0D       		.uleb128 0xd
 1852 0082 00       		.byte	0
 1853 0083 03       		.uleb128 0x3
 1854 0084 0E       		.uleb128 0xe
 1855 0085 3A       		.uleb128 0x3a
 1856 0086 0B       		.uleb128 0xb
 1857 0087 3B       		.uleb128 0x3b
 1858 0088 05       		.uleb128 0x5
 1859 0089 49       		.uleb128 0x49
 1860 008a 13       		.uleb128 0x13
 1861 008b 38       		.uleb128 0x38
 1862 008c 0B       		.uleb128 0xb
 1863 008d 00       		.byte	0
 1864 008e 00       		.byte	0
 1865 008f 0E       		.uleb128 0xe
 1866 0090 16       		.uleb128 0x16
 1867 0091 00       		.byte	0
 1868 0092 03       		.uleb128 0x3
 1869 0093 0E       		.uleb128 0xe
 1870 0094 3A       		.uleb128 0x3a
 1871 0095 0B       		.uleb128 0xb
 1872 0096 3B       		.uleb128 0x3b
 1873 0097 05       		.uleb128 0x5
 1874 0098 49       		.uleb128 0x49
 1875 0099 13       		.uleb128 0x13
 1876 009a 00       		.byte	0
 1877 009b 00       		.byte	0
 1878 009c 0F       		.uleb128 0xf
 1879 009d 13       		.uleb128 0x13
 1880 009e 01       		.byte	0x1
 1881 009f 0B       		.uleb128 0xb
ARM GAS  /tmp/ccbTDMNz.s 			page 34


 1882 00a0 05       		.uleb128 0x5
 1883 00a1 3A       		.uleb128 0x3a
 1884 00a2 0B       		.uleb128 0xb
 1885 00a3 3B       		.uleb128 0x3b
 1886 00a4 05       		.uleb128 0x5
 1887 00a5 01       		.uleb128 0x1
 1888 00a6 13       		.uleb128 0x13
 1889 00a7 00       		.byte	0
 1890 00a8 00       		.byte	0
 1891 00a9 10       		.uleb128 0x10
 1892 00aa 0D       		.uleb128 0xd
 1893 00ab 00       		.byte	0
 1894 00ac 03       		.uleb128 0x3
 1895 00ad 0E       		.uleb128 0xe
 1896 00ae 3A       		.uleb128 0x3a
 1897 00af 0B       		.uleb128 0xb
 1898 00b0 3B       		.uleb128 0x3b
 1899 00b1 05       		.uleb128 0x5
 1900 00b2 49       		.uleb128 0x49
 1901 00b3 13       		.uleb128 0x13
 1902 00b4 38       		.uleb128 0x38
 1903 00b5 05       		.uleb128 0x5
 1904 00b6 00       		.byte	0
 1905 00b7 00       		.byte	0
 1906 00b8 11       		.uleb128 0x11
 1907 00b9 0D       		.uleb128 0xd
 1908 00ba 00       		.byte	0
 1909 00bb 03       		.uleb128 0x3
 1910 00bc 08       		.uleb128 0x8
 1911 00bd 3A       		.uleb128 0x3a
 1912 00be 0B       		.uleb128 0xb
 1913 00bf 3B       		.uleb128 0x3b
 1914 00c0 05       		.uleb128 0x5
 1915 00c1 49       		.uleb128 0x49
 1916 00c2 13       		.uleb128 0x13
 1917 00c3 38       		.uleb128 0x38
 1918 00c4 05       		.uleb128 0x5
 1919 00c5 00       		.byte	0
 1920 00c6 00       		.byte	0
 1921 00c7 12       		.uleb128 0x12
 1922 00c8 13       		.uleb128 0x13
 1923 00c9 01       		.byte	0x1
 1924 00ca 03       		.uleb128 0x3
 1925 00cb 0E       		.uleb128 0xe
 1926 00cc 0B       		.uleb128 0xb
 1927 00cd 0B       		.uleb128 0xb
 1928 00ce 3A       		.uleb128 0x3a
 1929 00cf 0B       		.uleb128 0xb
 1930 00d0 3B       		.uleb128 0x3b
 1931 00d1 0B       		.uleb128 0xb
 1932 00d2 01       		.uleb128 0x1
 1933 00d3 13       		.uleb128 0x13
 1934 00d4 00       		.byte	0
 1935 00d5 00       		.byte	0
 1936 00d6 13       		.uleb128 0x13
 1937 00d7 0D       		.uleb128 0xd
 1938 00d8 00       		.byte	0
ARM GAS  /tmp/ccbTDMNz.s 			page 35


 1939 00d9 03       		.uleb128 0x3
 1940 00da 0E       		.uleb128 0xe
 1941 00db 3A       		.uleb128 0x3a
 1942 00dc 0B       		.uleb128 0xb
 1943 00dd 3B       		.uleb128 0x3b
 1944 00de 0B       		.uleb128 0xb
 1945 00df 49       		.uleb128 0x49
 1946 00e0 13       		.uleb128 0x13
 1947 00e1 38       		.uleb128 0x38
 1948 00e2 0B       		.uleb128 0xb
 1949 00e3 00       		.byte	0
 1950 00e4 00       		.byte	0
 1951 00e5 14       		.uleb128 0x14
 1952 00e6 0D       		.uleb128 0xd
 1953 00e7 00       		.byte	0
 1954 00e8 49       		.uleb128 0x49
 1955 00e9 13       		.uleb128 0x13
 1956 00ea 38       		.uleb128 0x38
 1957 00eb 0B       		.uleb128 0xb
 1958 00ec 00       		.byte	0
 1959 00ed 00       		.byte	0
 1960 00ee 15       		.uleb128 0x15
 1961 00ef 0D       		.uleb128 0xd
 1962 00f0 00       		.byte	0
 1963 00f1 03       		.uleb128 0x3
 1964 00f2 08       		.uleb128 0x8
 1965 00f3 3A       		.uleb128 0x3a
 1966 00f4 0B       		.uleb128 0xb
 1967 00f5 3B       		.uleb128 0x3b
 1968 00f6 0B       		.uleb128 0xb
 1969 00f7 49       		.uleb128 0x49
 1970 00f8 13       		.uleb128 0x13
 1971 00f9 38       		.uleb128 0x38
 1972 00fa 0B       		.uleb128 0xb
 1973 00fb 00       		.byte	0
 1974 00fc 00       		.byte	0
 1975 00fd 16       		.uleb128 0x16
 1976 00fe 0D       		.uleb128 0xd
 1977 00ff 00       		.byte	0
 1978 0100 03       		.uleb128 0x3
 1979 0101 0E       		.uleb128 0xe
 1980 0102 3A       		.uleb128 0x3a
 1981 0103 0B       		.uleb128 0xb
 1982 0104 3B       		.uleb128 0x3b
 1983 0105 0B       		.uleb128 0xb
 1984 0106 49       		.uleb128 0x49
 1985 0107 13       		.uleb128 0x13
 1986 0108 0B       		.uleb128 0xb
 1987 0109 0B       		.uleb128 0xb
 1988 010a 0D       		.uleb128 0xd
 1989 010b 0B       		.uleb128 0xb
 1990 010c 0C       		.uleb128 0xc
 1991 010d 0B       		.uleb128 0xb
 1992 010e 38       		.uleb128 0x38
 1993 010f 0B       		.uleb128 0xb
 1994 0110 00       		.byte	0
 1995 0111 00       		.byte	0
ARM GAS  /tmp/ccbTDMNz.s 			page 36


 1996 0112 17       		.uleb128 0x17
 1997 0113 15       		.uleb128 0x15
 1998 0114 01       		.byte	0x1
 1999 0115 27       		.uleb128 0x27
 2000 0116 19       		.uleb128 0x19
 2001 0117 01       		.uleb128 0x1
 2002 0118 13       		.uleb128 0x13
 2003 0119 00       		.byte	0
 2004 011a 00       		.byte	0
 2005 011b 18       		.uleb128 0x18
 2006 011c 05       		.uleb128 0x5
 2007 011d 00       		.byte	0
 2008 011e 49       		.uleb128 0x49
 2009 011f 13       		.uleb128 0x13
 2010 0120 00       		.byte	0
 2011 0121 00       		.byte	0
 2012 0122 19       		.uleb128 0x19
 2013 0123 04       		.uleb128 0x4
 2014 0124 01       		.byte	0x1
 2015 0125 0B       		.uleb128 0xb
 2016 0126 0B       		.uleb128 0xb
 2017 0127 3A       		.uleb128 0x3a
 2018 0128 0B       		.uleb128 0xb
 2019 0129 3B       		.uleb128 0x3b
 2020 012a 0B       		.uleb128 0xb
 2021 012b 01       		.uleb128 0x1
 2022 012c 13       		.uleb128 0x13
 2023 012d 00       		.byte	0
 2024 012e 00       		.byte	0
 2025 012f 1A       		.uleb128 0x1a
 2026 0130 28       		.uleb128 0x28
 2027 0131 00       		.byte	0
 2028 0132 03       		.uleb128 0x3
 2029 0133 0E       		.uleb128 0xe
 2030 0134 1C       		.uleb128 0x1c
 2031 0135 0D       		.uleb128 0xd
 2032 0136 00       		.byte	0
 2033 0137 00       		.byte	0
 2034 0138 1B       		.uleb128 0x1b
 2035 0139 13       		.uleb128 0x13
 2036 013a 01       		.byte	0x1
 2037 013b 0B       		.uleb128 0xb
 2038 013c 0B       		.uleb128 0xb
 2039 013d 3A       		.uleb128 0x3a
 2040 013e 0B       		.uleb128 0xb
 2041 013f 3B       		.uleb128 0x3b
 2042 0140 0B       		.uleb128 0xb
 2043 0141 01       		.uleb128 0x1
 2044 0142 13       		.uleb128 0x13
 2045 0143 00       		.byte	0
 2046 0144 00       		.byte	0
 2047 0145 1C       		.uleb128 0x1c
 2048 0146 17       		.uleb128 0x17
 2049 0147 01       		.byte	0x1
 2050 0148 0B       		.uleb128 0xb
 2051 0149 0B       		.uleb128 0xb
 2052 014a 3A       		.uleb128 0x3a
ARM GAS  /tmp/ccbTDMNz.s 			page 37


 2053 014b 0B       		.uleb128 0xb
 2054 014c 3B       		.uleb128 0x3b
 2055 014d 0B       		.uleb128 0xb
 2056 014e 01       		.uleb128 0x1
 2057 014f 13       		.uleb128 0x13
 2058 0150 00       		.byte	0
 2059 0151 00       		.byte	0
 2060 0152 1D       		.uleb128 0x1d
 2061 0153 0D       		.uleb128 0xd
 2062 0154 00       		.byte	0
 2063 0155 49       		.uleb128 0x49
 2064 0156 13       		.uleb128 0x13
 2065 0157 00       		.byte	0
 2066 0158 00       		.byte	0
 2067 0159 1E       		.uleb128 0x1e
 2068 015a 2E       		.uleb128 0x2e
 2069 015b 00       		.byte	0
 2070 015c 3F       		.uleb128 0x3f
 2071 015d 19       		.uleb128 0x19
 2072 015e 03       		.uleb128 0x3
 2073 015f 0E       		.uleb128 0xe
 2074 0160 3A       		.uleb128 0x3a
 2075 0161 0B       		.uleb128 0xb
 2076 0162 3B       		.uleb128 0x3b
 2077 0163 0B       		.uleb128 0xb
 2078 0164 27       		.uleb128 0x27
 2079 0165 19       		.uleb128 0x19
 2080 0166 11       		.uleb128 0x11
 2081 0167 01       		.uleb128 0x1
 2082 0168 12       		.uleb128 0x12
 2083 0169 06       		.uleb128 0x6
 2084 016a 40       		.uleb128 0x40
 2085 016b 18       		.uleb128 0x18
 2086 016c 9642     		.uleb128 0x2116
 2087 016e 19       		.uleb128 0x19
 2088 016f 00       		.byte	0
 2089 0170 00       		.byte	0
 2090 0171 1F       		.uleb128 0x1f
 2091 0172 2E       		.uleb128 0x2e
 2092 0173 00       		.byte	0
 2093 0174 3F       		.uleb128 0x3f
 2094 0175 19       		.uleb128 0x19
 2095 0176 03       		.uleb128 0x3
 2096 0177 0E       		.uleb128 0xe
 2097 0178 3A       		.uleb128 0x3a
 2098 0179 0B       		.uleb128 0xb
 2099 017a 3B       		.uleb128 0x3b
 2100 017b 0B       		.uleb128 0xb
 2101 017c 27       		.uleb128 0x27
 2102 017d 19       		.uleb128 0x19
 2103 017e 11       		.uleb128 0x11
 2104 017f 01       		.uleb128 0x1
 2105 0180 12       		.uleb128 0x12
 2106 0181 06       		.uleb128 0x6
 2107 0182 40       		.uleb128 0x40
 2108 0183 18       		.uleb128 0x18
 2109 0184 9742     		.uleb128 0x2117
ARM GAS  /tmp/ccbTDMNz.s 			page 38


 2110 0186 19       		.uleb128 0x19
 2111 0187 00       		.byte	0
 2112 0188 00       		.byte	0
 2113 0189 20       		.uleb128 0x20
 2114 018a 2E       		.uleb128 0x2e
 2115 018b 01       		.byte	0x1
 2116 018c 3F       		.uleb128 0x3f
 2117 018d 19       		.uleb128 0x19
 2118 018e 03       		.uleb128 0x3
 2119 018f 0E       		.uleb128 0xe
 2120 0190 3A       		.uleb128 0x3a
 2121 0191 0B       		.uleb128 0xb
 2122 0192 3B       		.uleb128 0x3b
 2123 0193 0B       		.uleb128 0xb
 2124 0194 27       		.uleb128 0x27
 2125 0195 19       		.uleb128 0x19
 2126 0196 11       		.uleb128 0x11
 2127 0197 01       		.uleb128 0x1
 2128 0198 12       		.uleb128 0x12
 2129 0199 06       		.uleb128 0x6
 2130 019a 40       		.uleb128 0x40
 2131 019b 18       		.uleb128 0x18
 2132 019c 9642     		.uleb128 0x2116
 2133 019e 19       		.uleb128 0x19
 2134 019f 01       		.uleb128 0x1
 2135 01a0 13       		.uleb128 0x13
 2136 01a1 00       		.byte	0
 2137 01a2 00       		.byte	0
 2138 01a3 21       		.uleb128 0x21
 2139 01a4 05       		.uleb128 0x5
 2140 01a5 00       		.byte	0
 2141 01a6 03       		.uleb128 0x3
 2142 01a7 0E       		.uleb128 0xe
 2143 01a8 3A       		.uleb128 0x3a
 2144 01a9 0B       		.uleb128 0xb
 2145 01aa 3B       		.uleb128 0x3b
 2146 01ab 0B       		.uleb128 0xb
 2147 01ac 49       		.uleb128 0x49
 2148 01ad 13       		.uleb128 0x13
 2149 01ae 02       		.uleb128 0x2
 2150 01af 18       		.uleb128 0x18
 2151 01b0 00       		.byte	0
 2152 01b1 00       		.byte	0
 2153 01b2 22       		.uleb128 0x22
 2154 01b3 34       		.uleb128 0x34
 2155 01b4 00       		.byte	0
 2156 01b5 03       		.uleb128 0x3
 2157 01b6 08       		.uleb128 0x8
 2158 01b7 3A       		.uleb128 0x3a
 2159 01b8 0B       		.uleb128 0xb
 2160 01b9 3B       		.uleb128 0x3b
 2161 01ba 0B       		.uleb128 0xb
 2162 01bb 49       		.uleb128 0x49
 2163 01bc 13       		.uleb128 0x13
 2164 01bd 02       		.uleb128 0x2
 2165 01be 18       		.uleb128 0x18
 2166 01bf 00       		.byte	0
ARM GAS  /tmp/ccbTDMNz.s 			page 39


 2167 01c0 00       		.byte	0
 2168 01c1 23       		.uleb128 0x23
 2169 01c2 34       		.uleb128 0x34
 2170 01c3 00       		.byte	0
 2171 01c4 03       		.uleb128 0x3
 2172 01c5 0E       		.uleb128 0xe
 2173 01c6 3A       		.uleb128 0x3a
 2174 01c7 0B       		.uleb128 0xb
 2175 01c8 3B       		.uleb128 0x3b
 2176 01c9 0B       		.uleb128 0xb
 2177 01ca 49       		.uleb128 0x49
 2178 01cb 13       		.uleb128 0x13
 2179 01cc 02       		.uleb128 0x2
 2180 01cd 18       		.uleb128 0x18
 2181 01ce 00       		.byte	0
 2182 01cf 00       		.byte	0
 2183 01d0 24       		.uleb128 0x24
 2184 01d1 2E       		.uleb128 0x2e
 2185 01d2 01       		.byte	0x1
 2186 01d3 3F       		.uleb128 0x3f
 2187 01d4 19       		.uleb128 0x19
 2188 01d5 03       		.uleb128 0x3
 2189 01d6 0E       		.uleb128 0xe
 2190 01d7 3A       		.uleb128 0x3a
 2191 01d8 0B       		.uleb128 0xb
 2192 01d9 3B       		.uleb128 0x3b
 2193 01da 0B       		.uleb128 0xb
 2194 01db 27       		.uleb128 0x27
 2195 01dc 19       		.uleb128 0x19
 2196 01dd 11       		.uleb128 0x11
 2197 01de 01       		.uleb128 0x1
 2198 01df 12       		.uleb128 0x12
 2199 01e0 06       		.uleb128 0x6
 2200 01e1 40       		.uleb128 0x40
 2201 01e2 18       		.uleb128 0x18
 2202 01e3 9742     		.uleb128 0x2117
 2203 01e5 19       		.uleb128 0x19
 2204 01e6 01       		.uleb128 0x1
 2205 01e7 13       		.uleb128 0x13
 2206 01e8 00       		.byte	0
 2207 01e9 00       		.byte	0
 2208 01ea 25       		.uleb128 0x25
 2209 01eb 2E       		.uleb128 0x2e
 2210 01ec 01       		.byte	0x1
 2211 01ed 3F       		.uleb128 0x3f
 2212 01ee 19       		.uleb128 0x19
 2213 01ef 03       		.uleb128 0x3
 2214 01f0 0E       		.uleb128 0xe
 2215 01f1 3A       		.uleb128 0x3a
 2216 01f2 0B       		.uleb128 0xb
 2217 01f3 3B       		.uleb128 0x3b
 2218 01f4 0B       		.uleb128 0xb
 2219 01f5 27       		.uleb128 0x27
 2220 01f6 19       		.uleb128 0x19
 2221 01f7 49       		.uleb128 0x49
 2222 01f8 13       		.uleb128 0x13
 2223 01f9 11       		.uleb128 0x11
ARM GAS  /tmp/ccbTDMNz.s 			page 40


 2224 01fa 01       		.uleb128 0x1
 2225 01fb 12       		.uleb128 0x12
 2226 01fc 06       		.uleb128 0x6
 2227 01fd 40       		.uleb128 0x40
 2228 01fe 18       		.uleb128 0x18
 2229 01ff 9742     		.uleb128 0x2117
 2230 0201 19       		.uleb128 0x19
 2231 0202 01       		.uleb128 0x1
 2232 0203 13       		.uleb128 0x13
 2233 0204 00       		.byte	0
 2234 0205 00       		.byte	0
 2235 0206 26       		.uleb128 0x26
 2236 0207 05       		.uleb128 0x5
 2237 0208 00       		.byte	0
 2238 0209 03       		.uleb128 0x3
 2239 020a 08       		.uleb128 0x8
 2240 020b 3A       		.uleb128 0x3a
 2241 020c 0B       		.uleb128 0xb
 2242 020d 3B       		.uleb128 0x3b
 2243 020e 0B       		.uleb128 0xb
 2244 020f 49       		.uleb128 0x49
 2245 0210 13       		.uleb128 0x13
 2246 0211 02       		.uleb128 0x2
 2247 0212 18       		.uleb128 0x18
 2248 0213 00       		.byte	0
 2249 0214 00       		.byte	0
 2250 0215 27       		.uleb128 0x27
 2251 0216 34       		.uleb128 0x34
 2252 0217 00       		.byte	0
 2253 0218 03       		.uleb128 0x3
 2254 0219 0E       		.uleb128 0xe
 2255 021a 3A       		.uleb128 0x3a
 2256 021b 0B       		.uleb128 0xb
 2257 021c 3B       		.uleb128 0x3b
 2258 021d 05       		.uleb128 0x5
 2259 021e 49       		.uleb128 0x49
 2260 021f 13       		.uleb128 0x13
 2261 0220 3F       		.uleb128 0x3f
 2262 0221 19       		.uleb128 0x19
 2263 0222 3C       		.uleb128 0x3c
 2264 0223 19       		.uleb128 0x19
 2265 0224 00       		.byte	0
 2266 0225 00       		.byte	0
 2267 0226 28       		.uleb128 0x28
 2268 0227 34       		.uleb128 0x34
 2269 0228 00       		.byte	0
 2270 0229 03       		.uleb128 0x3
 2271 022a 0E       		.uleb128 0xe
 2272 022b 3A       		.uleb128 0x3a
 2273 022c 0B       		.uleb128 0xb
 2274 022d 3B       		.uleb128 0x3b
 2275 022e 0B       		.uleb128 0xb
 2276 022f 49       		.uleb128 0x49
 2277 0230 13       		.uleb128 0x13
 2278 0231 3F       		.uleb128 0x3f
 2279 0232 19       		.uleb128 0x19
 2280 0233 3C       		.uleb128 0x3c
ARM GAS  /tmp/ccbTDMNz.s 			page 41


 2281 0234 19       		.uleb128 0x19
 2282 0235 00       		.byte	0
 2283 0236 00       		.byte	0
 2284 0237 00       		.byte	0
 2285              		.section	.debug_aranges,"",%progbits
 2286 0000 1C000000 		.4byte	0x1c
 2287 0004 0200     		.2byte	0x2
 2288 0006 00000000 		.4byte	.Ldebug_info0
 2289 000a 04       		.byte	0x4
 2290 000b 00       		.byte	0
 2291 000c 0000     		.2byte	0
 2292 000e 0000     		.2byte	0
 2293 0010 00000000 		.4byte	.Ltext0
 2294 0014 98010000 		.4byte	.Letext0-.Ltext0
 2295 0018 00000000 		.4byte	0
 2296 001c 00000000 		.4byte	0
 2297              		.section	.debug_line,"",%progbits
 2298              	.Ldebug_line0:
 2299 0000 2D020000 		.section	.debug_str,"MS",%progbits,1
 2299      0200D301 
 2299      00000201 
 2299      FB0E0D00 
 2299      01010101 
 2300              	.LASF57:
 2301 0000 44494552 		.ascii	"DIER\000"
 2301      00
 2302              	.LASF76:
 2303 0005 6E657874 		.ascii	"next\000"
 2303      00
 2304              	.LASF32:
 2305 000a 7354784D 		.ascii	"sTxMailBox\000"
 2305      61696C42 
 2305      6F7800
 2306              	.LASF84:
 2307 0015 52544341 		.ascii	"RTCAN_STOP\000"
 2307      4E5F5354 
 2307      4F5000
 2308              	.LASF120:
 2309 0020 72746361 		.ascii	"rtcanp\000"
 2309      6E7000
 2310              	.LASF3:
 2311 0027 5F5F7569 		.ascii	"__uint8_t\000"
 2311      6E74385F 
 2311      7400
 2312              	.LASF44:
 2313 0031 43414E5F 		.ascii	"CAN_TypeDef\000"
 2313      54797065 
 2313      44656600 
 2314              	.LASF74:
 2315 003d 54494D5F 		.ascii	"TIM_TypeDef\000"
 2315      54797065 
 2315      44656600 
 2316              	.LASF111:
 2317 0049 70657269 		.ascii	"period\000"
 2317      6F6400
 2318              	.LASF11:
 2319 0050 6C6F6E67 		.ascii	"long long unsigned int\000"
ARM GAS  /tmp/ccbTDMNz.s 			page 42


 2319      206C6F6E 
 2319      6720756E 
 2319      7369676E 
 2319      65642069 
 2320              	.LASF81:
 2321 0067 64617461 		.ascii	"data\000"
 2321      00
 2322              	.LASF102:
 2323 006c 52544341 		.ascii	"RTCANDriver\000"
 2323      4E447269 
 2323      76657200 
 2324              	.LASF67:
 2325 0078 42445452 		.ascii	"BDTR\000"
 2325      00
 2326              	.LASF58:
 2327 007d 43434D52 		.ascii	"CCMR1\000"
 2327      3100
 2328              	.LASF59:
 2329 0083 43434D52 		.ascii	"CCMR2\000"
 2329      3200
 2330              	.LASF71:
 2331 0089 43434D52 		.ascii	"CCMR3\000"
 2331      3300
 2332              	.LASF0:
 2333 008f 7369676E 		.ascii	"signed char\000"
 2333      65642063 
 2333      68617200 
 2334              	.LASF112:
 2335 009b 62617564 		.ascii	"baudrate\000"
 2335      72617465 
 2335      00
 2336              	.LASF62:
 2337 00a4 52455345 		.ascii	"RESERVED10\000"
 2337      52564544 
 2337      313000
 2338              	.LASF68:
 2339 00af 52455345 		.ascii	"RESERVED12\000"
 2339      52564544 
 2339      313200
 2340              	.LASF70:
 2341 00ba 52455345 		.ascii	"RESERVED13\000"
 2341      52564544 
 2341      313300
 2342              	.LASF116:
 2343 00c5 56656374 		.ascii	"VectorB4\000"
 2343      6F724234 
 2343      00
 2344              	.LASF103:
 2345 00ce 73746174 		.ascii	"state\000"
 2345      6500
 2346              	.LASF21:
 2347 00d4 54444C52 		.ascii	"TDLR\000"
 2347      00
 2348              	.LASF7:
 2349 00d9 6C6F6E67 		.ascii	"long int\000"
 2349      20696E74 
 2349      00
ARM GAS  /tmp/ccbTDMNz.s 			page 43


 2350              	.LASF46:
 2351 00e2 41504232 		.ascii	"APB2RSTR\000"
 2351      52535452 
 2351      00
 2352              	.LASF23:
 2353 00eb 43414E5F 		.ascii	"CAN_TxMailBox_TypeDef\000"
 2353      54784D61 
 2353      696C426F 
 2353      785F5479 
 2353      70654465 
 2354              	.LASF87:
 2355 0101 52544341 		.ascii	"RTCAN_SYNCING\000"
 2355      4E5F5359 
 2355      4E43494E 
 2355      4700
 2356              	.LASF60:
 2357 010f 43434552 		.ascii	"CCER\000"
 2357      00
 2358              	.LASF10:
 2359 0114 6C6F6E67 		.ascii	"long long int\000"
 2359      206C6F6E 
 2359      6720696E 
 2359      7400
 2360              	.LASF79:
 2361 0122 70617261 		.ascii	"params\000"
 2361      6D7300
 2362              	.LASF125:
 2363 0129 72746361 		.ascii	"rtcan_lld_tim_get_interval\000"
 2363      6E5F6C6C 
 2363      645F7469 
 2363      6D5F6765 
 2363      745F696E 
 2364              	.LASF104:
 2365 0144 736C6F74 		.ascii	"slot\000"
 2365      00
 2366              	.LASF86:
 2367 0149 52544341 		.ascii	"RTCAN_ERROR\000"
 2367      4E5F4552 
 2367      524F5200 
 2368              	.LASF29:
 2369 0155 52463052 		.ascii	"RF0R\000"
 2369      00
 2370              	.LASF124:
 2371 015a 696E7465 		.ascii	"interval\000"
 2371      7276616C 
 2371      00
 2372              	.LASF4:
 2373 0163 5F5F7569 		.ascii	"__uint16_t\000"
 2373      6E743136 
 2373      5F7400
 2374              	.LASF8:
 2375 016e 5F5F7569 		.ascii	"__uint32_t\000"
 2375      6E743332 
 2375      5F7400
 2376              	.LASF20:
 2377 0179 54445452 		.ascii	"TDTR\000"
 2377      00
ARM GAS  /tmp/ccbTDMNz.s 			page 44


 2378              	.LASF25:
 2379 017e 52444C52 		.ascii	"RDLR\000"
 2379      00
 2380              	.LASF91:
 2381 0183 52544341 		.ascii	"RTCAN_MSG_UNINIT\000"
 2381      4E5F4D53 
 2381      475F554E 
 2381      494E4954 
 2381      00
 2382              	.LASF83:
 2383 0194 52544341 		.ascii	"RTCAN_UNINIT\000"
 2383      4E5F554E 
 2383      494E4954 
 2383      00
 2384              	.LASF12:
 2385 01a1 756E7369 		.ascii	"unsigned int\000"
 2385      676E6564 
 2385      20696E74 
 2385      00
 2386              	.LASF14:
 2387 01ae 75696E74 		.ascii	"uint16_t\000"
 2387      31365F74 
 2387      00
 2388              	.LASF88:
 2389 01b7 52544341 		.ascii	"RTCAN_SLAVE\000"
 2389      4E5F534C 
 2389      41564500 
 2390              	.LASF9:
 2391 01c3 6C6F6E67 		.ascii	"long unsigned int\000"
 2391      20756E73 
 2391      69676E65 
 2391      6420696E 
 2391      7400
 2392              	.LASF55:
 2393 01d5 5243435F 		.ascii	"RCC_TypeDef\000"
 2393      54797065 
 2393      44656600 
 2394              	.LASF24:
 2395 01e1 52445452 		.ascii	"RDTR\000"
 2395      00
 2396              	.LASF37:
 2397 01e6 46533152 		.ascii	"FS1R\000"
 2397      00
 2398              	.LASF122:
 2399 01eb 72746361 		.ascii	"rtcan_lld_tim_stop_timer\000"
 2399      6E5F6C6C 
 2399      645F7469 
 2399      6D5F7374 
 2399      6F705F74 
 2400              	.LASF56:
 2401 0204 534D4352 		.ascii	"SMCR\000"
 2401      00
 2402              	.LASF30:
 2403 0209 52463152 		.ascii	"RF1R\000"
 2403      00
 2404              	.LASF28:
 2405 020e 43414E5F 		.ascii	"CAN_FilterRegister_TypeDef\000"
ARM GAS  /tmp/ccbTDMNz.s 			page 45


 2405      46696C74 
 2405      65725265 
 2405      67697374 
 2405      65725F54 
 2406              	.LASF78:
 2407 0229 63616C6C 		.ascii	"callback\000"
 2407      6261636B 
 2407      00
 2408              	.LASF99:
 2409 0232 72746361 		.ascii	"rtcan_id_t\000"
 2409      6E5F6964 
 2409      5F7400
 2410              	.LASF43:
 2411 023d 7346696C 		.ascii	"sFilterRegister\000"
 2411      74657252 
 2411      65676973 
 2411      74657200 
 2412              	.LASF35:
 2413 024d 464D3152 		.ascii	"FM1R\000"
 2413      00
 2414              	.LASF97:
 2415 0252 52544341 		.ascii	"RTCAN_MSG_ERROR\000"
 2415      4E5F4D53 
 2415      475F4552 
 2415      524F5200 
 2416              	.LASF27:
 2417 0262 43414E5F 		.ascii	"CAN_FIFOMailBox_TypeDef\000"
 2417      4649464F 
 2417      4D61696C 
 2417      426F785F 
 2417      54797065 
 2418              	.LASF98:
 2419 027a 72746361 		.ascii	"rtcan_msgstatus_t\000"
 2419      6E5F6D73 
 2419      67737461 
 2419      7475735F 
 2419      7400
 2420              	.LASF95:
 2421 028c 52544341 		.ascii	"RTCAN_MSG_ONAIR\000"
 2421      4E5F4D53 
 2421      475F4F4E 
 2421      41495200 
 2422              	.LASF18:
 2423 029c 73697A65 		.ascii	"sizetype\000"
 2423      74797065 
 2423      00
 2424              	.LASF119:
 2425 02a5 72746361 		.ascii	"rtcan_lld_tim_stop\000"
 2425      6E5F6C6C 
 2425      645F7469 
 2425      6D5F7374 
 2425      6F7000
 2426              	.LASF85:
 2427 02b8 52544341 		.ascii	"RTCAN_STARTING\000"
 2427      4E5F5354 
 2427      41525449 
 2427      4E4700
ARM GAS  /tmp/ccbTDMNz.s 			page 46


 2428              	.LASF107:
 2429 02c7 6F6E6169 		.ascii	"onair\000"
 2429      7200
 2430              	.LASF129:
 2431 02cd 52544341 		.ascii	"RTCAND1\000"
 2431      4E443100 
 2432              	.LASF121:
 2433 02d5 72746361 		.ascii	"rtcan_lld_tim_start_timer\000"
 2433      6E5F6C6C 
 2433      645F7469 
 2433      6D5F7374 
 2433      6172745F 
 2434              	.LASF52:
 2435 02ef 41484252 		.ascii	"AHBRSTR\000"
 2435      53545200 
 2436              	.LASF22:
 2437 02f7 54444852 		.ascii	"TDHR\000"
 2437      00
 2438              	.LASF114:
 2439 02fc 736C6F74 		.ascii	"slots\000"
 2439      7300
 2440              	.LASF47:
 2441 0302 41504231 		.ascii	"APB1RSTR\000"
 2441      52535452 
 2441      00
 2442              	.LASF82:
 2443 030b 72746361 		.ascii	"rtcan_msgcallback_t\000"
 2443      6E5F6D73 
 2443      6763616C 
 2443      6C626163 
 2443      6B5F7400 
 2444              	.LASF39:
 2445 031f 46464131 		.ascii	"FFA1R\000"
 2445      5200
 2446              	.LASF90:
 2447 0325 72746361 		.ascii	"rtcanstate_t\000"
 2447      6E737461 
 2447      74655F74 
 2447      00
 2448              	.LASF126:
 2449 0332 72746361 		.ascii	"rtcan_lld_tim_get_counter\000"
 2449      6E5F6C6C 
 2449      645F7469 
 2449      6D5F6765 
 2449      745F636F 
 2450              	.LASF31:
 2451 034c 52455345 		.ascii	"RESERVED0\000"
 2451      52564544 
 2451      3000
 2452              	.LASF34:
 2453 0356 52455345 		.ascii	"RESERVED1\000"
 2453      52564544 
 2453      3100
 2454              	.LASF36:
 2455 0360 52455345 		.ascii	"RESERVED2\000"
 2455      52564544 
 2455      3200
ARM GAS  /tmp/ccbTDMNz.s 			page 47


 2456              	.LASF38:
 2457 036a 52455345 		.ascii	"RESERVED3\000"
 2457      52564544 
 2457      3300
 2458              	.LASF96:
 2459 0374 52544341 		.ascii	"RTCAN_MSG_TIMEOUT\000"
 2459      4E5F4D53 
 2459      475F5449 
 2459      4D454F55 
 2459      5400
 2460              	.LASF41:
 2461 0386 46413152 		.ascii	"FA1R\000"
 2461      00
 2462              	.LASF61:
 2463 038b 52455345 		.ascii	"RESERVED9\000"
 2463      52564544 
 2463      3900
 2464              	.LASF17:
 2465 0395 5F426F6F 		.ascii	"_Bool\000"
 2465      6C00
 2466              	.LASF15:
 2467 039b 696E7433 		.ascii	"int32_t\000"
 2467      325F7400 
 2468              	.LASF1:
 2469 03a3 756E7369 		.ascii	"unsigned char\000"
 2469      676E6564 
 2469      20636861 
 2469      7200
 2470              	.LASF128:
 2471 03b1 49544D5F 		.ascii	"ITM_RxBuffer\000"
 2471      52784275 
 2471      66666572 
 2471      00
 2472              	.LASF2:
 2473 03be 73686F72 		.ascii	"short int\000"
 2473      7420696E 
 2473      7400
 2474              	.LASF100:
 2475 03c8 72746361 		.ascii	"rtcan_cnt_t\000"
 2475      6E5F636E 
 2475      745F7400 
 2476              	.LASF131:
 2477 03d4 2F6F7074 		.ascii	"/opt/R2P/core/RTCAN/platforms/STM32/rtcan_lld_tim.c"
 2477      2F523250 
 2477      2F636F72 
 2477      652F5254 
 2477      43414E2F 
 2478 0407 00       		.ascii	"\000"
 2479              	.LASF49:
 2480 0408 41504232 		.ascii	"APB2ENR\000"
 2480      454E5200 
 2481              	.LASF94:
 2482 0410 52544341 		.ascii	"RTCAN_MSG_QUEUED\000"
 2482      4E5F4D53 
 2482      475F5155 
 2482      45554544 
 2482      00
ARM GAS  /tmp/ccbTDMNz.s 			page 48


 2483              	.LASF132:
 2484 0421 66726167 		.ascii	"fragment\000"
 2484      6D656E74 
 2484      00
 2485              	.LASF93:
 2486 042a 52544341 		.ascii	"RTCAN_MSG_READY\000"
 2486      4E5F4D53 
 2486      475F5245 
 2486      41445900 
 2487              	.LASF40:
 2488 043a 52455345 		.ascii	"RESERVED4\000"
 2488      52564544 
 2488      3400
 2489              	.LASF42:
 2490 0444 52455345 		.ascii	"RESERVED5\000"
 2490      52564544 
 2490      3500
 2491              	.LASF16:
 2492 044e 75696E74 		.ascii	"uint32_t\000"
 2492      33325F74 
 2492      00
 2493              	.LASF130:
 2494 0457 474E5520 		.ascii	"GNU C 4.9.3 20141119 (release) [ARM/embedded-4_9-br"
 2494      4320342E 
 2494      392E3320 
 2494      32303134 
 2494      31313139 
 2495 048a 616E6368 		.ascii	"anch revision 218278] -mcpu=cortex-m4 -mno-thumb-in"
 2495      20726576 
 2495      6973696F 
 2495      6E203231 
 2495      38323738 
 2496 04bd 74657277 		.ascii	"terwork -mthumb -ggdb -O0 -fomit-frame-pointer\000"
 2496      6F726B20 
 2496      2D6D7468 
 2496      756D6220 
 2496      2D676764 
 2497              	.LASF118:
 2498 04ec 72746361 		.ascii	"rtcan_lld_tim_start\000"
 2498      6E5F6C6C 
 2498      645F7469 
 2498      6D5F7374 
 2498      61727400 
 2499              	.LASF19:
 2500 0500 63686172 		.ascii	"char\000"
 2500      00
 2501              	.LASF75:
 2502 0505 72746361 		.ascii	"rtcan_msg_t\000"
 2502      6E5F6D73 
 2502      675F7400 
 2503              	.LASF106:
 2504 0511 7372745F 		.ascii	"srt_queue\000"
 2504      71756575 
 2504      6500
 2505              	.LASF109:
 2506 051b 636F6E66 		.ascii	"config\000"
 2506      696700
ARM GAS  /tmp/ccbTDMNz.s 			page 49


 2507              	.LASF69:
 2508 0522 444D4152 		.ascii	"DMAR\000"
 2508      00
 2509              	.LASF26:
 2510 0527 52444852 		.ascii	"RDHR\000"
 2510      00
 2511              	.LASF110:
 2512 052c 64656164 		.ascii	"deadline\000"
 2512      6C696E65 
 2512      00
 2513              	.LASF6:
 2514 0535 5F5F696E 		.ascii	"__int32_t\000"
 2514      7433325F 
 2514      7400
 2515              	.LASF33:
 2516 053f 73464946 		.ascii	"sFIFOMailBox\000"
 2516      4F4D6169 
 2516      6C426F78 
 2516      00
 2517              	.LASF50:
 2518 054c 41504231 		.ascii	"APB1ENR\000"
 2518      454E5200 
 2519              	.LASF92:
 2520 0554 52544341 		.ascii	"RTCAN_MSG_BUSY\000"
 2520      4E5F4D53 
 2520      475F4255 
 2520      535900
 2521              	.LASF5:
 2522 0563 73686F72 		.ascii	"short unsigned int\000"
 2522      7420756E 
 2522      7369676E 
 2522      65642069 
 2522      6E7400
 2523              	.LASF123:
 2524 0576 72746361 		.ascii	"rtcan_lld_tim_set_interval\000"
 2524      6E5F6C6C 
 2524      645F7469 
 2524      6D5F7365 
 2524      745F696E 
 2525              	.LASF105:
 2526 0591 6379636C 		.ascii	"cycle\000"
 2526      6500
 2527              	.LASF63:
 2528 0597 43435231 		.ascii	"CCR1\000"
 2528      00
 2529              	.LASF64:
 2530 059c 43435232 		.ascii	"CCR2\000"
 2530      00
 2531              	.LASF65:
 2532 05a1 43435233 		.ascii	"CCR3\000"
 2532      00
 2533              	.LASF66:
 2534 05a6 43435234 		.ascii	"CCR4\000"
 2534      00
 2535              	.LASF72:
 2536 05ab 43435235 		.ascii	"CCR5\000"
 2536      00
ARM GAS  /tmp/ccbTDMNz.s 			page 50


 2537              	.LASF73:
 2538 05b0 43435236 		.ascii	"CCR6\000"
 2538      00
 2539              	.LASF77:
 2540 05b5 73746174 		.ascii	"status\000"
 2540      757300
 2541              	.LASF51:
 2542 05bc 42444352 		.ascii	"BDCR\000"
 2542      00
 2543              	.LASF53:
 2544 05c1 43464752 		.ascii	"CFGR2\000"
 2544      3200
 2545              	.LASF54:
 2546 05c7 43464752 		.ascii	"CFGR3\000"
 2546      3300
 2547              	.LASF13:
 2548 05cd 75696E74 		.ascii	"uint8_t\000"
 2548      385F7400 
 2549              	.LASF117:
 2550 05d5 72746361 		.ascii	"rtcan_lld_tim_init\000"
 2550      6E5F6C6C 
 2550      645F7469 
 2550      6D5F696E 
 2550      697400
 2551              	.LASF80:
 2552 05e8 73697A65 		.ascii	"size\000"
 2552      00
 2553              	.LASF45:
 2554 05ed 43464752 		.ascii	"CFGR\000"
 2554      00
 2555              	.LASF89:
 2556 05f2 52544341 		.ascii	"RTCAN_MASTER\000"
 2556      4E5F4D41 
 2556      53544552 
 2556      00
 2557              	.LASF115:
 2558 05ff 52544341 		.ascii	"RTCANConfig\000"
 2558      4E436F6E 
 2558      66696700 
 2559              	.LASF113:
 2560 060b 636C6F63 		.ascii	"clock\000"
 2560      6B00
 2561              	.LASF108:
 2562 0611 66696C74 		.ascii	"filters\000"
 2562      65727300 
 2563              	.LASF127:
 2564 0619 72746361 		.ascii	"rtcan_lld_tim_set_counter\000"
 2564      6E5F6C6C 
 2564      645F7469 
 2564      6D5F7365 
 2564      745F636F 
 2565              	.LASF101:
 2566 0633 6D736771 		.ascii	"msgqueue_t\000"
 2566      75657565 
 2566      5F7400
 2567              	.LASF48:
 2568 063e 41484245 		.ascii	"AHBENR\000"
ARM GAS  /tmp/ccbTDMNz.s 			page 51


 2568      4E5200
 2569              		.ident	"GCC: (GNU Tools for ARM Embedded Processors) 4.9.3 20141119 (release) [ARM/embedded-4_9-br
ARM GAS  /tmp/ccbTDMNz.s 			page 52


DEFINED SYMBOLS
                            *ABS*:00000000 rtcan_lld_tim.c
     /tmp/ccbTDMNz.s:18     .text:00000000 $t
     /tmp/ccbTDMNz.s:23     .text:00000000 VectorB4
     /tmp/ccbTDMNz.s:51     .text:0000001c $d
     /tmp/ccbTDMNz.s:56     .text:00000024 $t
     /tmp/ccbTDMNz.s:61     .text:00000024 rtcan_lld_tim_init
     /tmp/ccbTDMNz.s:77     .text:0000002c $d
     /tmp/ccbTDMNz.s:82     .text:00000034 $t
     /tmp/ccbTDMNz.s:87     .text:00000034 rtcan_lld_tim_start
     /tmp/ccbTDMNz.s:154    .text:00000098 $d
     /tmp/ccbTDMNz.s:159    .text:000000a0 $t
     /tmp/ccbTDMNz.s:164    .text:000000a0 rtcan_lld_tim_stop
     /tmp/ccbTDMNz.s:209    .text:000000d8 $d
     /tmp/ccbTDMNz.s:213    .text:000000dc $t
     /tmp/ccbTDMNz.s:218    .text:000000dc rtcan_lld_tim_start_timer
     /tmp/ccbTDMNz.s:265    .text:00000108 rtcan_lld_tim_stop_timer
     /tmp/ccbTDMNz.s:304    .text:00000128 rtcan_lld_tim_set_interval
     /tmp/ccbTDMNz.s:339    .text:00000148 rtcan_lld_tim_get_interval
     /tmp/ccbTDMNz.s:373    .text:00000164 rtcan_lld_tim_get_counter
     /tmp/ccbTDMNz.s:405    .text:0000017c rtcan_lld_tim_set_counter
                     .debug_frame:00000010 $d

UNDEFINED SYMBOLS
dbg_check_enter_isr
rtcan_tim_isr_code
dbg_check_leave_isr
_port_irq_epilogue
RTCAND1
nvicEnableVector
nvicDisableVector
