ARM GAS  /tmp/ccbTDMNz.s 			page 1


   1              		.syntax unified
   2              		.cpu cortex-m4
   3              		.fpu softvfp
   4              		.eabi_attribute 20, 1
   5              		.eabi_attribute 21, 1
   6              		.eabi_attribute 23, 3
   7              		.eabi_attribute 24, 1
   8              		.eabi_attribute 25, 1
   9              		.eabi_attribute 26, 1
  10              		.eabi_attribute 30, 6
  11              		.eabi_attribute 34, 1
  12              		.eabi_attribute 18, 4
  13              		.thumb
  14              		.file	"rtcan_lld_tim.c"
  15              		.text
  16              	.Ltext0:
  17              		.cfi_sections	.debug_frame
  18              		.align	2
  19              		.global	VectorB4
  20              		.thumb
  21              		.thumb_func
  22              		.type	VectorB4, %function
  23              	VectorB4:
  24              	.LFB118:
  25              		.file 1 "/opt/R2P/core/RTCAN/platforms/STM32/rtcan_lld_tim.c"
  26              		.loc 1 40 0
  27              		.cfi_startproc
  28              		@ args = 0, pretend = 0, frame = 0
  29              		@ frame_needed = 0, uses_anonymous_args = 0
  30 0000 08B5     		push	{r3, lr}
  31              		.cfi_def_cfa_offset 8
  32              		.cfi_offset 3, -8
  33              		.cfi_offset 14, -4
  34              		.loc 1 42 0
  35 0002 FFF7FEFF 		bl	dbg_check_enter_isr
  36              		.loc 1 44 0
  37 0006 054B     		ldr	r3, .L2
  38 0008 0022     		movs	r2, #0
  39 000a 1A61     		str	r2, [r3, #16]
  40              		.loc 1 45 0
  41 000c 0448     		ldr	r0, .L2+4
  42 000e FFF7FEFF 		bl	rtcan_tim_isr_code
  43              		.loc 1 47 0
  44 0012 FFF7FEFF 		bl	dbg_check_leave_isr
  45 0016 FFF7FEFF 		bl	_port_irq_epilogue
  46              		.loc 1 48 0
  47 001a 08BD     		pop	{r3, pc}
  48              	.L3:
  49              		.align	2
  50              	.L2:
  51 001c 00040040 		.word	1073742848
  52 0020 00000000 		.word	RTCAND1
  53              		.cfi_endproc
  54              	.LFE118:
  55              		.size	VectorB4, .-VectorB4
  56              		.align	2
  57              		.global	rtcan_lld_tim_init
ARM GAS  /tmp/ccbTDMNz.s 			page 2


  58              		.thumb
  59              		.thumb_func
  60              		.type	rtcan_lld_tim_init, %function
  61              	rtcan_lld_tim_init:
  62              	.LFB119:
  63              		.loc 1 59 0
  64              		.cfi_startproc
  65              		@ args = 0, pretend = 0, frame = 0
  66              		@ frame_needed = 0, uses_anonymous_args = 0
  67              		@ link register save eliminated.
  68              		.loc 1 62 0
  69 0024 014B     		ldr	r3, .L5
  70 0026 024A     		ldr	r2, .L5+4
  71 0028 9A65     		str	r2, [r3, #88]
  72              		.loc 1 68 0
  73 002a 7047     		bx	lr
  74              	.L6:
  75              		.align	2
  76              	.L5:
  77 002c 00000000 		.word	RTCAND1
  78 0030 00040040 		.word	1073742848
  79              		.cfi_endproc
  80              	.LFE119:
  81              		.size	rtcan_lld_tim_init, .-rtcan_lld_tim_init
  82              		.align	2
  83              		.global	rtcan_lld_tim_start
  84              		.thumb
  85              		.thumb_func
  86              		.type	rtcan_lld_tim_start, %function
  87              	rtcan_lld_tim_start:
  88              	.LFB120:
  89              		.loc 1 77 0
  90              		.cfi_startproc
  91              		@ args = 0, pretend = 0, frame = 24
  92              		@ frame_needed = 0, uses_anonymous_args = 0
  93 0034 00B5     		push	{lr}
  94              		.cfi_def_cfa_offset 4
  95              		.cfi_offset 14, -4
  96 0036 87B0     		sub	sp, sp, #28
  97              		.cfi_def_cfa_offset 32
  98 0038 0190     		str	r0, [sp, #4]
  99              		.loc 1 78 0
 100 003a 019B     		ldr	r3, [sp, #4]
 101 003c 9B6D     		ldr	r3, [r3, #88]
 102 003e 0593     		str	r3, [sp, #20]
 103              		.loc 1 85 0
 104 0040 154A     		ldr	r2, .L8
 105 0042 154B     		ldr	r3, .L8
 106 0044 DB69     		ldr	r3, [r3, #28]
 107 0046 43F00203 		orr	r3, r3, #2
 108 004a D361     		str	r3, [r2, #28]
 109              		.loc 1 86 0
 110 004c 124A     		ldr	r2, .L8
 111 004e 124B     		ldr	r3, .L8
 112 0050 1B69     		ldr	r3, [r3, #16]
 113 0052 43F00203 		orr	r3, r3, #2
 114 0056 1361     		str	r3, [r2, #16]
ARM GAS  /tmp/ccbTDMNz.s 			page 3


 115 0058 0F4B     		ldr	r3, .L8
 116 005a 0022     		movs	r2, #0
 117 005c 1A61     		str	r2, [r3, #16]
 118              		.loc 1 87 0
 119 005e 1D20     		movs	r0, #29
 120 0060 7021     		movs	r1, #112
 121 0062 FFF7FEFF 		bl	nvicEnableVector
 122              		.loc 1 101 0
 123 0066 0D4B     		ldr	r3, .L8+4
 124 0068 0493     		str	r3, [sp, #16]
 125              		.loc 1 104 0
 126 006a 019B     		ldr	r3, [sp, #4]
 127 006c 5B6D     		ldr	r3, [r3, #84]
 128 006e 1B68     		ldr	r3, [r3]
 129 0070 049A     		ldr	r2, [sp, #16]
 130 0072 B2FBF3F3 		udiv	r3, r2, r3
 131 0076 9BB2     		uxth	r3, r3
 132 0078 013B     		subs	r3, r3, #1
 133 007a ADF80E30 		strh	r3, [sp, #14]	@ movhi
 134              		.loc 1 107 0
 135 007e 059B     		ldr	r3, [sp, #20]
 136 0080 0022     		movs	r2, #0
 137 0082 1A80     		strh	r2, [r3]	@ movhi
 138              		.loc 1 108 0
 139 0084 059B     		ldr	r3, [sp, #20]
 140 0086 BDF80E20 		ldrh	r2, [sp, #14]	@ movhi
 141 008a 1A85     		strh	r2, [r3, #40]	@ movhi
 142              		.loc 1 109 0
 143 008c 059B     		ldr	r3, [sp, #20]
 144 008e 0022     		movs	r2, #0
 145 0090 DA60     		str	r2, [r3, #12]
 146              		.loc 1 110 0
 147 0092 07B0     		add	sp, sp, #28
 148              		.cfi_def_cfa_offset 4
 149              		@ sp needed
 150 0094 5DF804FB 		ldr	pc, [sp], #4
 151              	.L9:
 152              		.align	2
 153              	.L8:
 154 0098 00100240 		.word	1073876992
 155 009c 00A24A04 		.word	72000000
 156              		.cfi_endproc
 157              	.LFE120:
 158              		.size	rtcan_lld_tim_start, .-rtcan_lld_tim_start
 159              		.align	2
 160              		.global	rtcan_lld_tim_stop
 161              		.thumb
 162              		.thumb_func
 163              		.type	rtcan_lld_tim_stop, %function
 164              	rtcan_lld_tim_stop:
 165              	.LFB121:
 166              		.loc 1 119 0
 167              		.cfi_startproc
 168              		@ args = 0, pretend = 0, frame = 16
 169              		@ frame_needed = 0, uses_anonymous_args = 0
 170 00a0 00B5     		push	{lr}
 171              		.cfi_def_cfa_offset 4
ARM GAS  /tmp/ccbTDMNz.s 			page 4


 172              		.cfi_offset 14, -4
 173 00a2 85B0     		sub	sp, sp, #20
 174              		.cfi_def_cfa_offset 24
 175 00a4 0190     		str	r0, [sp, #4]
 176              		.loc 1 120 0
 177 00a6 019B     		ldr	r3, [sp, #4]
 178 00a8 9B6D     		ldr	r3, [r3, #88]
 179 00aa 0393     		str	r3, [sp, #12]
 180              		.loc 1 122 0
 181 00ac 039B     		ldr	r3, [sp, #12]
 182 00ae 0022     		movs	r2, #0
 183 00b0 1A80     		strh	r2, [r3]	@ movhi
 184              		.loc 1 123 0
 185 00b2 039B     		ldr	r3, [sp, #12]
 186 00b4 0022     		movs	r2, #0
 187 00b6 DA60     		str	r2, [r3, #12]
 188              		.loc 1 124 0
 189 00b8 039B     		ldr	r3, [sp, #12]
 190 00ba 0022     		movs	r2, #0
 191 00bc 1A61     		str	r2, [r3, #16]
 192              		.loc 1 129 0
 193 00be 1D20     		movs	r0, #29
 194 00c0 FFF7FEFF 		bl	nvicDisableVector
 195              		.loc 1 130 0
 196 00c4 044A     		ldr	r2, .L11
 197 00c6 044B     		ldr	r3, .L11
 198 00c8 DB69     		ldr	r3, [r3, #28]
 199 00ca 23F00203 		bic	r3, r3, #2
 200 00ce D361     		str	r3, [r2, #28]
 201              		.loc 1 137 0
 202 00d0 05B0     		add	sp, sp, #20
 203              		.cfi_def_cfa_offset 4
 204              		@ sp needed
 205 00d2 5DF804FB 		ldr	pc, [sp], #4
 206              	.L12:
 207 00d6 00BF     		.align	2
 208              	.L11:
 209 00d8 00100240 		.word	1073876992
 210              		.cfi_endproc
 211              	.LFE121:
 212              		.size	rtcan_lld_tim_stop, .-rtcan_lld_tim_stop
 213              		.align	2
 214              		.global	rtcan_lld_tim_start_timer
 215              		.thumb
 216              		.thumb_func
 217              		.type	rtcan_lld_tim_start_timer, %function
 218              	rtcan_lld_tim_start_timer:
 219              	.LFB122:
 220              		.loc 1 147 0
 221              		.cfi_startproc
 222              		@ args = 0, pretend = 0, frame = 16
 223              		@ frame_needed = 0, uses_anonymous_args = 0
 224              		@ link register save eliminated.
 225 00dc 84B0     		sub	sp, sp, #16
 226              		.cfi_def_cfa_offset 16
 227 00de 0190     		str	r0, [sp, #4]
 228              		.loc 1 148 0
ARM GAS  /tmp/ccbTDMNz.s 			page 5


 229 00e0 019B     		ldr	r3, [sp, #4]
 230 00e2 9B6D     		ldr	r3, [r3, #88]
 231 00e4 0393     		str	r3, [sp, #12]
 232              		.loc 1 149 0
 233 00e6 039B     		ldr	r3, [sp, #12]
 234 00e8 0122     		movs	r2, #1
 235 00ea 5A61     		str	r2, [r3, #20]
 236              		.loc 1 150 0
 237 00ec 039B     		ldr	r3, [sp, #12]
 238 00ee 0022     		movs	r2, #0
 239 00f0 5A62     		str	r2, [r3, #36]
 240              		.loc 1 151 0
 241 00f2 039B     		ldr	r3, [sp, #12]
 242 00f4 0022     		movs	r2, #0
 243 00f6 1A61     		str	r2, [r3, #16]
 244              		.loc 1 152 0
 245 00f8 039B     		ldr	r3, [sp, #12]
 246 00fa 0122     		movs	r2, #1
 247 00fc DA60     		str	r2, [r3, #12]
 248              		.loc 1 153 0
 249 00fe 039B     		ldr	r3, [sp, #12]
 250 0100 0522     		movs	r2, #5
 251 0102 1A80     		strh	r2, [r3]	@ movhi
 252              		.loc 1 154 0
 253 0104 04B0     		add	sp, sp, #16
 254              		.cfi_def_cfa_offset 0
 255              		@ sp needed
 256 0106 7047     		bx	lr
 257              		.cfi_endproc
 258              	.LFE122:
 259              		.size	rtcan_lld_tim_start_timer, .-rtcan_lld_tim_start_timer
 260              		.align	2
 261              		.global	rtcan_lld_tim_stop_timer
 262              		.thumb
 263              		.thumb_func
 264              		.type	rtcan_lld_tim_stop_timer, %function
 265              	rtcan_lld_tim_stop_timer:
 266              	.LFB123:
 267              		.loc 1 163 0
 268              		.cfi_startproc
 269              		@ args = 0, pretend = 0, frame = 16
 270              		@ frame_needed = 0, uses_anonymous_args = 0
 271              		@ link register save eliminated.
 272 0108 84B0     		sub	sp, sp, #16
 273              		.cfi_def_cfa_offset 16
 274 010a 0190     		str	r0, [sp, #4]
 275              		.loc 1 164 0
 276 010c 019B     		ldr	r3, [sp, #4]
 277 010e 9B6D     		ldr	r3, [r3, #88]
 278 0110 0393     		str	r3, [sp, #12]
 279              		.loc 1 166 0
 280 0112 039B     		ldr	r3, [sp, #12]
 281 0114 0022     		movs	r2, #0
 282 0116 1A80     		strh	r2, [r3]	@ movhi
 283              		.loc 1 167 0
 284 0118 039B     		ldr	r3, [sp, #12]
 285 011a 0022     		movs	r2, #0
ARM GAS  /tmp/ccbTDMNz.s 			page 6


 286 011c 1A61     		str	r2, [r3, #16]
 287              		.loc 1 168 0
 288 011e 039B     		ldr	r3, [sp, #12]
 289 0120 0022     		movs	r2, #0
 290 0122 DA60     		str	r2, [r3, #12]
 291              		.loc 1 169 0
 292 0124 04B0     		add	sp, sp, #16
 293              		.cfi_def_cfa_offset 0
 294              		@ sp needed
 295 0126 7047     		bx	lr
 296              		.cfi_endproc
 297              	.LFE123:
 298              		.size	rtcan_lld_tim_stop_timer, .-rtcan_lld_tim_stop_timer
 299              		.align	2
 300              		.global	rtcan_lld_tim_set_interval
 301              		.thumb
 302              		.thumb_func
 303              		.type	rtcan_lld_tim_set_interval, %function
 304              	rtcan_lld_tim_set_interval:
 305              	.LFB124:
 306              		.loc 1 172 0
 307              		.cfi_startproc
 308              		@ args = 0, pretend = 0, frame = 16
 309              		@ frame_needed = 0, uses_anonymous_args = 0
 310              		@ link register save eliminated.
 311 0128 84B0     		sub	sp, sp, #16
 312              		.cfi_def_cfa_offset 16
 313 012a 0190     		str	r0, [sp, #4]
 314 012c 0B46     		mov	r3, r1
 315 012e ADF80230 		strh	r3, [sp, #2]	@ movhi
 316              		.loc 1 173 0
 317 0132 019B     		ldr	r3, [sp, #4]
 318 0134 9B6D     		ldr	r3, [r3, #88]
 319 0136 0393     		str	r3, [sp, #12]
 320              		.loc 1 175 0
 321 0138 BDF80230 		ldrh	r3, [sp, #2]
 322 013c 013B     		subs	r3, r3, #1
 323 013e 1A46     		mov	r2, r3
 324 0140 039B     		ldr	r3, [sp, #12]
 325 0142 DA62     		str	r2, [r3, #44]
 326              		.loc 1 176 0
 327 0144 04B0     		add	sp, sp, #16
 328              		.cfi_def_cfa_offset 0
 329              		@ sp needed
 330 0146 7047     		bx	lr
 331              		.cfi_endproc
 332              	.LFE124:
 333              		.size	rtcan_lld_tim_set_interval, .-rtcan_lld_tim_set_interval
 334              		.align	2
 335              		.global	rtcan_lld_tim_get_interval
 336              		.thumb
 337              		.thumb_func
 338              		.type	rtcan_lld_tim_get_interval, %function
 339              	rtcan_lld_tim_get_interval:
 340              	.LFB125:
 341              		.loc 1 179 0
 342              		.cfi_startproc
ARM GAS  /tmp/ccbTDMNz.s 			page 7


 343              		@ args = 0, pretend = 0, frame = 16
 344              		@ frame_needed = 0, uses_anonymous_args = 0
 345              		@ link register save eliminated.
 346 0148 84B0     		sub	sp, sp, #16
 347              		.cfi_def_cfa_offset 16
 348 014a 0190     		str	r0, [sp, #4]
 349              		.loc 1 180 0
 350 014c 019B     		ldr	r3, [sp, #4]
 351 014e 9B6D     		ldr	r3, [r3, #88]
 352 0150 0393     		str	r3, [sp, #12]
 353              		.loc 1 182 0
 354 0152 039B     		ldr	r3, [sp, #12]
 355 0154 DB6A     		ldr	r3, [r3, #44]
 356 0156 9BB2     		uxth	r3, r3
 357 0158 0133     		adds	r3, r3, #1
 358 015a 9BB2     		uxth	r3, r3
 359              		.loc 1 183 0
 360 015c 1846     		mov	r0, r3
 361 015e 04B0     		add	sp, sp, #16
 362              		.cfi_def_cfa_offset 0
 363              		@ sp needed
 364 0160 7047     		bx	lr
 365              		.cfi_endproc
 366              	.LFE125:
 367              		.size	rtcan_lld_tim_get_interval, .-rtcan_lld_tim_get_interval
 368 0162 00BF     		.align	2
 369              		.global	rtcan_lld_tim_get_counter
 370              		.thumb
 371              		.thumb_func
 372              		.type	rtcan_lld_tim_get_counter, %function
 373              	rtcan_lld_tim_get_counter:
 374              	.LFB126:
 375              		.loc 1 185 0
 376              		.cfi_startproc
 377              		@ args = 0, pretend = 0, frame = 16
 378              		@ frame_needed = 0, uses_anonymous_args = 0
 379              		@ link register save eliminated.
 380 0164 84B0     		sub	sp, sp, #16
 381              		.cfi_def_cfa_offset 16
 382 0166 0190     		str	r0, [sp, #4]
 383              		.loc 1 186 0
 384 0168 019B     		ldr	r3, [sp, #4]
 385 016a 9B6D     		ldr	r3, [r3, #88]
 386 016c 0393     		str	r3, [sp, #12]
 387              		.loc 1 188 0
 388 016e 039B     		ldr	r3, [sp, #12]
 389 0170 5B6A     		ldr	r3, [r3, #36]
 390 0172 9BB2     		uxth	r3, r3
 391              		.loc 1 189 0
 392 0174 1846     		mov	r0, r3
 393 0176 04B0     		add	sp, sp, #16
 394              		.cfi_def_cfa_offset 0
 395              		@ sp needed
 396 0178 7047     		bx	lr
 397              		.cfi_endproc
 398              	.LFE126:
 399              		.size	rtcan_lld_tim_get_counter, .-rtcan_lld_tim_get_counter
ARM GAS  /tmp/ccbTDMNz.s 			page 8


 400 017a 00BF     		.align	2
 401              		.global	rtcan_lld_tim_set_counter
 402              		.thumb
 403              		.thumb_func
 404              		.type	rtcan_lld_tim_set_counter, %function
 405              	rtcan_lld_tim_set_counter:
 406              	.LFB127:
 407              		.loc 1 191 0
 408              		.cfi_startproc
 409              		@ args = 0, pretend = 0, frame = 16
 410              		@ frame_needed = 0, uses_anonymous_args = 0
 411              		@ link register save eliminated.
 412 017c 84B0     		sub	sp, sp, #16
 413              		.cfi_def_cfa_offset 16
 414 017e 0190     		str	r0, [sp, #4]
 415 0180 0B46     		mov	r3, r1
 416 0182 ADF80230 		strh	r3, [sp, #2]	@ movhi
 417              		.loc 1 192 0
 418 0186 019B     		ldr	r3, [sp, #4]
 419 0188 9B6D     		ldr	r3, [r3, #88]
 420 018a 0393     		str	r3, [sp, #12]
 421              		.loc 1 194 0
 422 018c BDF80220 		ldrh	r2, [sp, #2]
 423 0190 039B     		ldr	r3, [sp, #12]
 424 0192 5A62     		str	r2, [r3, #36]
 425              		.loc 1 195 0
 426 0194 04B0     		add	sp, sp, #16
 427              		.cfi_def_cfa_offset 0
 428              		@ sp needed
 429 0196 7047     		bx	lr
 430              		.cfi_endproc
 431              	.LFE127:
 432              		.size	rtcan_lld_tim_set_counter, .-rtcan_lld_tim_set_counter
 433              	.Letext0:
 434              		.file 2 "/opt/R2P/tools/gcc-arm-none-eabi-4_9-2014q4/arm-none-eabi/include/machine/_default_types.
 435              		.file 3 "/opt/R2P/tools/gcc-arm-none-eabi-4_9-2014q4/arm-none-eabi/include/stdint.h"
 436              		.file 4 "/opt/R2P/core/ChibiOS_2.6.5/os/hal/platforms/STM32F30x/stm32f30x.h"
 437              		.file 5 "/opt/R2P/core/RTCAN/include/rtcan.h"
 438              		.file 6 "/opt/R2P/core/RTCAN/include/msgqueue.h"
 439              		.file 7 "/opt/R2P/core/ChibiOS_2.6.5/os/ports/common/ARMCMx/CMSIS/include/core_cm4.h"
 440              		.file 8 "/opt/R2P/core/RTCAN/platforms/STM32/rtcan_lld_can.h"