ARM GAS  /tmp/cc1zpTEh.s 			page 1


   1              		.syntax unified
   2              		.cpu cortex-m4
   3              		.fpu softvfp
   4              		.eabi_attribute 20, 1
   5              		.eabi_attribute 21, 1
   6              		.eabi_attribute 23, 3
   7              		.eabi_attribute 24, 1
   8              		.eabi_attribute 25, 1
   9              		.eabi_attribute 26, 1
  10              		.eabi_attribute 30, 6
  11              		.eabi_attribute 34, 1
  12              		.eabi_attribute 18, 4
  13              		.thumb
  14              		.file	"rtcan.c"
  15              		.text
  16              	.Ltext0:
  17              		.cfi_sections	.debug_frame
  18              		.global	last_sync_tim
  19              		.bss
  20              		.align	2
  21              		.type	last_sync_tim, %object
  22              		.size	last_sync_tim, 4
  23              	last_sync_tim:
  24 0000 00000000 		.space	4
  25              		.text
  26              		.align	2
  27              		.global	stm32_id8
  28              		.thumb
  29              		.thumb_func
  30              		.type	stm32_id8, %function
  31              	stm32_id8:
  32              	.LFB118:
  33              		.file 1 "/opt/R2P/core/RTCAN/src/rtcan.c"
  34              		.loc 1 28 0
  35              		.cfi_startproc
  36              		@ args = 0, pretend = 0, frame = 8
  37              		@ frame_needed = 0, uses_anonymous_args = 0
  38              		@ link register save eliminated.
  39 0000 82B0     		sub	sp, sp, #8
  40              		.cfi_def_cfa_offset 8
  41              		.loc 1 29 0
  42 0002 044B     		ldr	r3, .L3
  43 0004 0193     		str	r3, [sp, #4]
  44              		.loc 1 31 0
  45 0006 019B     		ldr	r3, [sp, #4]
  46 0008 0833     		adds	r3, r3, #8
  47 000a 1B68     		ldr	r3, [r3]
  48 000c DBB2     		uxtb	r3, r3
  49              		.loc 1 32 0
  50 000e 1846     		mov	r0, r3
  51 0010 02B0     		add	sp, sp, #8
  52              		.cfi_def_cfa_offset 0
  53              		@ sp needed
  54 0012 7047     		bx	lr
  55              	.L4:
  56              		.align	2
  57              	.L3:
ARM GAS  /tmp/cc1zpTEh.s 			page 2


  58 0014 E8F7FF1F 		.word	536868840
  59              		.cfi_endproc
  60              	.LFE118:
  61              		.size	stm32_id8, .-stm32_id8
  62              		.align	2
  63              		.global	rtcan_ismaster
  64              		.thumb
  65              		.thumb_func
  66              		.type	rtcan_ismaster, %function
  67              	rtcan_ismaster:
  68              	.LFB119:
  69              		.loc 1 34 0
  70              		.cfi_startproc
  71              		@ args = 0, pretend = 0, frame = 0
  72              		@ frame_needed = 0, uses_anonymous_args = 0
  73              		@ link register save eliminated.
  74              		.loc 1 38 0
  75 0018 0023     		movs	r3, #0
  76              		.loc 1 40 0
  77 001a 1846     		mov	r0, r3
  78 001c 7047     		bx	lr
  79              		.cfi_endproc
  80              	.LFE119:
  81              		.size	rtcan_ismaster, .-rtcan_ismaster
  82 001e 00BF     		.align	2
  83              		.global	rtcan_tim_isr_code
  84              		.thumb
  85              		.thumb_func
  86              		.type	rtcan_tim_isr_code, %function
  87              	rtcan_tim_isr_code:
  88              	.LFB120:
  89              		.loc 1 66 0
  90              		.cfi_startproc
  91              		@ args = 0, pretend = 0, frame = 8
  92              		@ frame_needed = 0, uses_anonymous_args = 0
  93 0020 00B5     		push	{lr}
  94              		.cfi_def_cfa_offset 4
  95              		.cfi_offset 14, -4
  96 0022 83B0     		sub	sp, sp, #12
  97              		.cfi_def_cfa_offset 16
  98 0024 0190     		str	r0, [sp, #4]
  99              	.LBB2:
 100              		.loc 1 68 0
 101 0026 2023     		movs	r3, #32
 102              	@ 68 "/opt/R2P/core/RTCAN/src/rtcan.c" 1
 103 0028 83F31188 		msr     BASEPRI, r3
 104              	@ 0 "" 2
 105              		.thumb
 106              	.LBE2:
 107 002c FFF7FEFF 		bl	dbg_check_lock_from_isr
 108              		.loc 1 71 0
 109 0030 019B     		ldr	r3, [sp, #4]
 110 0032 1B78     		ldrb	r3, [r3]	@ zero_extendqisi2
 111 0034 042B     		cmp	r3, #4
 112 0036 0DD0     		beq	.L9
 113 0038 052B     		cmp	r3, #5
 114 003a 16D1     		bne	.L14
ARM GAS  /tmp/cc1zpTEh.s 			page 3


 115              		.loc 1 84 0
 116 003c 019B     		ldr	r3, [sp, #4]
 117 003e 5A68     		ldr	r2, [r3, #4]
 118 0040 019B     		ldr	r3, [sp, #4]
 119 0042 5B6D     		ldr	r3, [r3, #84]
 120 0044 9B68     		ldr	r3, [r3, #8]
 121 0046 9A42     		cmp	r2, r3
 122 0048 03D9     		bls	.L11
 123              		.loc 1 85 0
 124 004a 019B     		ldr	r3, [sp, #4]
 125 004c 0322     		movs	r2, #3
 126 004e 1A70     		strb	r2, [r3]
 127              		.loc 1 87 0
 128 0050 0FE0     		b	.L12
 129              	.L11:
 130 0052 0EE0     		b	.L12
 131              	.L9:
 132              		.loc 1 89 0
 133 0054 019B     		ldr	r3, [sp, #4]
 134 0056 5B68     		ldr	r3, [r3, #4]
 135 0058 5A1C     		adds	r2, r3, #1
 136 005a 019B     		ldr	r3, [sp, #4]
 137 005c 5A60     		str	r2, [r3, #4]
 138              		.loc 1 90 0
 139 005e FFF7FEFF 		bl	dbg_check_unlock_from_isr
 140              	.LBB3:
 141 0062 0023     		movs	r3, #0
 142              	@ 90 "/opt/R2P/core/RTCAN/src/rtcan.c" 1
 143 0064 83F31188 		msr     BASEPRI, r3
 144              	@ 0 "" 2
 145              		.thumb
 146              	.LBE3:
 147              		.loc 1 92 0
 148 0068 10E0     		b	.L7
 149              	.L14:
 150              		.loc 1 96 0
 151 006a 019B     		ldr	r3, [sp, #4]
 152 006c 0322     		movs	r2, #3
 153 006e 1A70     		strb	r2, [r3]
 154              		.loc 1 97 0
 155 0070 00BF     		nop
 156              	.L12:
 157              		.loc 1 100 0
 158 0072 019B     		ldr	r3, [sp, #4]
 159 0074 5B68     		ldr	r3, [r3, #4]
 160 0076 5A1C     		adds	r2, r3, #1
 161 0078 019B     		ldr	r3, [sp, #4]
 162 007a 5A60     		str	r2, [r3, #4]
 163              		.loc 1 110 0
 164 007c 0198     		ldr	r0, [sp, #4]
 165 007e FFF7FEFF 		bl	srt_transmit
 166              		.loc 1 112 0
 167 0082 FFF7FEFF 		bl	dbg_check_unlock_from_isr
 168              	.LBB4:
 169 0086 0023     		movs	r3, #0
 170              	@ 112 "/opt/R2P/core/RTCAN/src/rtcan.c" 1
 171 0088 83F31188 		msr     BASEPRI, r3
ARM GAS  /tmp/cc1zpTEh.s 			page 4


 172              	@ 0 "" 2
 173              		.thumb
 174              	.L7:
 175              	.LBE4:
 176              		.loc 1 113 0
 177 008c 03B0     		add	sp, sp, #12
 178              		.cfi_def_cfa_offset 4
 179              		@ sp needed
 180 008e 5DF804FB 		ldr	pc, [sp], #4
 181              		.cfi_endproc
 182              	.LFE120:
 183              		.size	rtcan_tim_isr_code, .-rtcan_tim_isr_code
 184 0092 00BF     		.align	2
 185              		.global	rtcan_txok_isr_code
 186              		.thumb
 187              		.thumb_func
 188              		.type	rtcan_txok_isr_code, %function
 189              	rtcan_txok_isr_code:
 190              	.LFB121:
 191              		.loc 1 120 0
 192              		.cfi_startproc
 193              		@ args = 0, pretend = 0, frame = 16
 194              		@ frame_needed = 0, uses_anonymous_args = 0
 195 0094 00B5     		push	{lr}
 196              		.cfi_def_cfa_offset 4
 197              		.cfi_offset 14, -4
 198 0096 85B0     		sub	sp, sp, #20
 199              		.cfi_def_cfa_offset 24
 200 0098 0190     		str	r0, [sp, #4]
 201 009a 0B46     		mov	r3, r1
 202 009c 8DF80330 		strb	r3, [sp, #3]
 203              	.LBB5:
 204              		.loc 1 123 0
 205 00a0 2023     		movs	r3, #32
 206              	@ 123 "/opt/R2P/core/RTCAN/src/rtcan.c" 1
 207 00a2 83F31188 		msr     BASEPRI, r3
 208              	@ 0 "" 2
 209              		.thumb
 210              	.LBE5:
 211 00a6 FFF7FEFF 		bl	dbg_check_lock_from_isr
 212              		.loc 1 126 0
 213 00aa 9DF80320 		ldrb	r2, [sp, #3]	@ zero_extendqisi2
 214 00ae 019B     		ldr	r3, [sp, #4]
 215 00b0 0432     		adds	r2, r2, #4
 216 00b2 53F82230 		ldr	r3, [r3, r2, lsl #2]
 217 00b6 0393     		str	r3, [sp, #12]
 218              		.loc 1 127 0
 219 00b8 9DF80320 		ldrb	r2, [sp, #3]	@ zero_extendqisi2
 220 00bc 019B     		ldr	r3, [sp, #4]
 221 00be 0432     		adds	r2, r2, #4
 222 00c0 0021     		movs	r1, #0
 223 00c2 43F82210 		str	r1, [r3, r2, lsl #2]
 224              		.loc 1 129 0
 225 00c6 039B     		ldr	r3, [sp, #12]
 226 00c8 5B7F     		ldrb	r3, [r3, #29]
 227 00ca C3F30603 		ubfx	r3, r3, #0, #7
 228 00ce DBB2     		uxtb	r3, r3
ARM GAS  /tmp/cc1zpTEh.s 			page 5


 229 00d0 002B     		cmp	r3, #0
 230 00d2 1FDD     		ble	.L16
 231              		.loc 1 130 0
 232 00d4 039B     		ldr	r3, [sp, #12]
 233 00d6 5B7F     		ldrb	r3, [r3, #29]
 234 00d8 C3F30603 		ubfx	r3, r3, #0, #7
 235 00dc DBB2     		uxtb	r3, r3
 236 00de 7F33     		adds	r3, r3, #127
 237 00e0 03F07F03 		and	r3, r3, #127
 238 00e4 D9B2     		uxtb	r1, r3
 239 00e6 039A     		ldr	r2, [sp, #12]
 240 00e8 537F     		ldrb	r3, [r2, #29]
 241 00ea 61F30603 		bfi	r3, r1, #0, #7
 242 00ee 5377     		strb	r3, [r2, #29]
 243              		.loc 1 131 0
 244 00f0 039B     		ldr	r3, [sp, #12]
 245 00f2 D3F81930 		ldr	r3, [r3, #25]	@ unaligned
 246 00f6 03F10802 		add	r2, r3, #8
 247 00fa 039B     		ldr	r3, [sp, #12]
 248 00fc C3F81920 		str	r2, [r3, #25]	@ unaligned
 249              		.loc 1 132 0
 250 0100 019B     		ldr	r3, [sp, #4]
 251 0102 0C33     		adds	r3, r3, #12
 252 0104 1846     		mov	r0, r3
 253 0106 0399     		ldr	r1, [sp, #12]
 254 0108 FFF7FEFF 		bl	msgqueue_insert
 255              		.loc 1 133 0
 256 010c 039B     		ldr	r3, [sp, #12]
 257 010e 0322     		movs	r2, #3
 258 0110 1A71     		strb	r2, [r3, #4]
 259 0112 0CE0     		b	.L17
 260              	.L16:
 261              		.loc 1 135 0
 262 0114 039B     		ldr	r3, [sp, #12]
 263 0116 0222     		movs	r2, #2
 264 0118 1A71     		strb	r2, [r3, #4]
 265              		.loc 1 136 0
 266 011a 039B     		ldr	r3, [sp, #12]
 267 011c D3F80530 		ldr	r3, [r3, #5]	@ unaligned
 268 0120 002B     		cmp	r3, #0
 269 0122 04D0     		beq	.L17
 270              		.loc 1 137 0
 271 0124 039B     		ldr	r3, [sp, #12]
 272 0126 D3F80530 		ldr	r3, [r3, #5]	@ unaligned
 273 012a 0398     		ldr	r0, [sp, #12]
 274 012c 9847     		blx	r3
 275              	.L17:
 276              		.loc 1 142 0
 277 012e 0198     		ldr	r0, [sp, #4]
 278 0130 FFF7FEFF 		bl	srt_transmit
 279              		.loc 1 145 0
 280 0134 FFF7FEFF 		bl	dbg_check_unlock_from_isr
 281              	.LBB6:
 282 0138 0023     		movs	r3, #0
 283              	@ 145 "/opt/R2P/core/RTCAN/src/rtcan.c" 1
 284 013a 83F31188 		msr     BASEPRI, r3
 285              	@ 0 "" 2
ARM GAS  /tmp/cc1zpTEh.s 			page 6


 286              		.thumb
 287              	.LBE6:
 288              		.loc 1 146 0
 289 013e 05B0     		add	sp, sp, #20
 290              		.cfi_def_cfa_offset 4
 291              		@ sp needed
 292 0140 5DF804FB 		ldr	pc, [sp], #4
 293              		.cfi_endproc
 294              	.LFE121:
 295              		.size	rtcan_txok_isr_code, .-rtcan_txok_isr_code
 296              		.align	2
 297              		.global	rtcan_alst_isr_code
 298              		.thumb
 299              		.thumb_func
 300              		.type	rtcan_alst_isr_code, %function
 301              	rtcan_alst_isr_code:
 302              	.LFB122:
 303              		.loc 1 153 0
 304              		.cfi_startproc
 305              		@ args = 0, pretend = 0, frame = 16
 306              		@ frame_needed = 0, uses_anonymous_args = 0
 307 0144 00B5     		push	{lr}
 308              		.cfi_def_cfa_offset 4
 309              		.cfi_offset 14, -4
 310 0146 85B0     		sub	sp, sp, #20
 311              		.cfi_def_cfa_offset 24
 312 0148 0190     		str	r0, [sp, #4]
 313 014a 0B46     		mov	r3, r1
 314 014c 8DF80330 		strb	r3, [sp, #3]
 315              	.LBB7:
 316              		.loc 1 156 0
 317 0150 2023     		movs	r3, #32
 318              	@ 156 "/opt/R2P/core/RTCAN/src/rtcan.c" 1
 319 0152 83F31188 		msr     BASEPRI, r3
 320              	@ 0 "" 2
 321              		.thumb
 322              	.LBE7:
 323 0156 FFF7FEFF 		bl	dbg_check_lock_from_isr
 324              		.loc 1 159 0
 325 015a 9DF80320 		ldrb	r2, [sp, #3]	@ zero_extendqisi2
 326 015e 019B     		ldr	r3, [sp, #4]
 327 0160 0432     		adds	r2, r2, #4
 328 0162 53F82230 		ldr	r3, [r3, r2, lsl #2]
 329 0166 0393     		str	r3, [sp, #12]
 330              		.loc 1 160 0
 331 0168 9DF80320 		ldrb	r2, [sp, #3]	@ zero_extendqisi2
 332 016c 019B     		ldr	r3, [sp, #4]
 333 016e 0432     		adds	r2, r2, #4
 334 0170 0021     		movs	r1, #0
 335 0172 43F82210 		str	r1, [r3, r2, lsl #2]
 336              		.loc 1 162 0
 337 0176 039B     		ldr	r3, [sp, #12]
 338 0178 002B     		cmp	r3, #0
 339 017a 00D1     		bne	.L19
 340              	.L20:
 341              		.loc 1 165 0 discriminator 1
 342 017c FEE7     		b	.L20
ARM GAS  /tmp/cc1zpTEh.s 			page 7


 343              	.L19:
 344              		.loc 1 170 0
 345 017e 019B     		ldr	r3, [sp, #4]
 346 0180 0C33     		adds	r3, r3, #12
 347 0182 1846     		mov	r0, r3
 348 0184 0399     		ldr	r1, [sp, #12]
 349 0186 FFF7FEFF 		bl	msgqueue_insert
 350              		.loc 1 171 0
 351 018a 039B     		ldr	r3, [sp, #12]
 352 018c 0322     		movs	r2, #3
 353 018e 1A71     		strb	r2, [r3, #4]
 354              		.loc 1 174 0
 355 0190 0198     		ldr	r0, [sp, #4]
 356 0192 FFF7FEFF 		bl	srt_transmit
 357              		.loc 1 177 0
 358 0196 FFF7FEFF 		bl	dbg_check_unlock_from_isr
 359              	.LBB8:
 360 019a 0023     		movs	r3, #0
 361              	@ 177 "/opt/R2P/core/RTCAN/src/rtcan.c" 1
 362 019c 83F31188 		msr     BASEPRI, r3
 363              	@ 0 "" 2
 364              		.thumb
 365              	.LBE8:
 366              		.loc 1 178 0
 367 01a0 05B0     		add	sp, sp, #20
 368              		.cfi_def_cfa_offset 4
 369              		@ sp needed
 370 01a2 5DF804FB 		ldr	pc, [sp], #4
 371              		.cfi_endproc
 372              	.LFE122:
 373              		.size	rtcan_alst_isr_code, .-rtcan_alst_isr_code
 374 01a6 00BF     		.align	2
 375              		.global	rtcan_terr_isr_code
 376              		.thumb
 377              		.thumb_func
 378              		.type	rtcan_terr_isr_code, %function
 379              	rtcan_terr_isr_code:
 380              	.LFB123:
 381              		.loc 1 185 0
 382              		.cfi_startproc
 383              		@ args = 0, pretend = 0, frame = 16
 384              		@ frame_needed = 0, uses_anonymous_args = 0
 385 01a8 00B5     		push	{lr}
 386              		.cfi_def_cfa_offset 4
 387              		.cfi_offset 14, -4
 388 01aa 85B0     		sub	sp, sp, #20
 389              		.cfi_def_cfa_offset 24
 390 01ac 0190     		str	r0, [sp, #4]
 391 01ae 0B46     		mov	r3, r1
 392 01b0 8DF80330 		strb	r3, [sp, #3]
 393              	.LBB9:
 394              		.loc 1 188 0
 395 01b4 2023     		movs	r3, #32
 396              	@ 188 "/opt/R2P/core/RTCAN/src/rtcan.c" 1
 397 01b6 83F31188 		msr     BASEPRI, r3
 398              	@ 0 "" 2
 399              		.thumb
ARM GAS  /tmp/cc1zpTEh.s 			page 8


 400              	.LBE9:
 401 01ba FFF7FEFF 		bl	dbg_check_lock_from_isr
 402              		.loc 1 191 0
 403 01be 9DF80320 		ldrb	r2, [sp, #3]	@ zero_extendqisi2
 404 01c2 019B     		ldr	r3, [sp, #4]
 405 01c4 0432     		adds	r2, r2, #4
 406 01c6 53F82230 		ldr	r3, [r3, r2, lsl #2]
 407 01ca 0393     		str	r3, [sp, #12]
 408              		.loc 1 192 0
 409 01cc 9DF80320 		ldrb	r2, [sp, #3]	@ zero_extendqisi2
 410 01d0 019B     		ldr	r3, [sp, #4]
 411 01d2 0432     		adds	r2, r2, #4
 412 01d4 0021     		movs	r1, #0
 413 01d6 43F82210 		str	r1, [r3, r2, lsl #2]
 414              		.loc 1 194 0
 415 01da 039B     		ldr	r3, [sp, #12]
 416 01dc 002B     		cmp	r3, #0
 417 01de 00D1     		bne	.L23
 418              	.L24:
 419              		.loc 1 197 0 discriminator 1
 420 01e0 FEE7     		b	.L24
 421              	.L23:
 422              		.loc 1 202 0
 423 01e2 039B     		ldr	r3, [sp, #12]
 424 01e4 0522     		movs	r2, #5
 425 01e6 1A71     		strb	r2, [r3, #4]
 426              		.loc 1 204 0
 427 01e8 039B     		ldr	r3, [sp, #12]
 428 01ea D3F80530 		ldr	r3, [r3, #5]	@ unaligned
 429 01ee 002B     		cmp	r3, #0
 430 01f0 04D0     		beq	.L25
 431              		.loc 1 205 0
 432 01f2 039B     		ldr	r3, [sp, #12]
 433 01f4 D3F80530 		ldr	r3, [r3, #5]	@ unaligned
 434 01f8 0398     		ldr	r0, [sp, #12]
 435 01fa 9847     		blx	r3
 436              	.L25:
 437              		.loc 1 209 0
 438 01fc 0198     		ldr	r0, [sp, #4]
 439 01fe FFF7FEFF 		bl	srt_transmit
 440              		.loc 1 212 0
 441 0202 FFF7FEFF 		bl	dbg_check_unlock_from_isr
 442              	.LBB10:
 443 0206 0023     		movs	r3, #0
 444              	@ 212 "/opt/R2P/core/RTCAN/src/rtcan.c" 1
 445 0208 83F31188 		msr     BASEPRI, r3
 446              	@ 0 "" 2
 447              		.thumb
 448              	.LBE10:
 449              		.loc 1 213 0
 450 020c 05B0     		add	sp, sp, #20
 451              		.cfi_def_cfa_offset 4
 452              		@ sp needed
 453 020e 5DF804FB 		ldr	pc, [sp], #4
 454              		.cfi_endproc
 455              	.LFE123:
 456              		.size	rtcan_terr_isr_code, .-rtcan_terr_isr_code
ARM GAS  /tmp/cc1zpTEh.s 			page 9


 457 0212 00BF     		.align	2
 458              		.global	rtcan_rx_isr_code
 459              		.thumb
 460              		.thumb_func
 461              		.type	rtcan_rx_isr_code, %function
 462              	rtcan_rx_isr_code:
 463              	.LFB124:
 464              		.loc 1 220 0
 465              		.cfi_startproc
 466              		@ args = 0, pretend = 0, frame = 40
 467              		@ frame_needed = 0, uses_anonymous_args = 0
 468 0214 00B5     		push	{lr}
 469              		.cfi_def_cfa_offset 4
 470              		.cfi_offset 14, -4
 471 0216 8BB0     		sub	sp, sp, #44
 472              		.cfi_def_cfa_offset 48
 473 0218 0190     		str	r0, [sp, #4]
 474              	.LBB11:
 475              		.loc 1 224 0
 476 021a 2023     		movs	r3, #32
 477              	@ 224 "/opt/R2P/core/RTCAN/src/rtcan.c" 1
 478 021c 83F31188 		msr     BASEPRI, r3
 479              	@ 0 "" 2
 480              		.thumb
 481              	.LBE11:
 482 0220 FFF7FEFF 		bl	dbg_check_lock_from_isr
 483              		.loc 1 227 0
 484 0224 03AB     		add	r3, sp, #12
 485 0226 0198     		ldr	r0, [sp, #4]
 486 0228 1946     		mov	r1, r3
 487 022a FFF7FEFF 		bl	rtcan_lld_can_receive
 488              		.loc 1 272 0
 489 022e 9DF81130 		ldrb	r3, [sp, #17]	@ zero_extendqisi2
 490 0232 019A     		ldr	r2, [sp, #4]
 491 0234 0633     		adds	r3, r3, #6
 492 0236 9B00     		lsls	r3, r3, #2
 493 0238 1344     		add	r3, r3, r2
 494 023a 5B68     		ldr	r3, [r3, #4]
 495 023c 0893     		str	r3, [sp, #32]
 496              		.loc 1 275 0
 497 023e 089B     		ldr	r3, [sp, #32]
 498 0240 002B     		cmp	r3, #0
 499 0242 05D1     		bne	.L28
 500              		.loc 1 276 0
 501 0244 FFF7FEFF 		bl	dbg_check_unlock_from_isr
 502              	.LBB12:
 503 0248 0023     		movs	r3, #0
 504              	@ 276 "/opt/R2P/core/RTCAN/src/rtcan.c" 1
 505 024a 83F31188 		msr     BASEPRI, r3
 506              	@ 0 "" 2
 507              		.thumb
 508              	.L29:
 509              	.LBE12:
 510              		.loc 1 278 0 discriminator 1
 511 024e FEE7     		b	.L29
 512              	.L28:
 513              		.loc 1 282 0
ARM GAS  /tmp/cc1zpTEh.s 			page 10


 514 0250 089B     		ldr	r3, [sp, #32]
 515 0252 1B79     		ldrb	r3, [r3, #4]	@ zero_extendqisi2
 516 0254 022B     		cmp	r3, #2
 517 0256 2ED1     		bne	.L30
 518              		.loc 1 283 0
 519 0258 089B     		ldr	r3, [sp, #32]
 520 025a 0422     		movs	r2, #4
 521 025c 1A71     		strb	r2, [r3, #4]
 522              		.loc 1 284 0
 523 025e 089B     		ldr	r3, [sp, #32]
 524 0260 D3F81520 		ldr	r2, [r3, #21]	@ unaligned
 525 0264 089B     		ldr	r3, [sp, #32]
 526 0266 C3F81920 		str	r2, [r3, #25]	@ unaligned
 527              		.loc 1 285 0
 528 026a 039B     		ldr	r3, [sp, #12]
 529 026c C3F31C03 		ubfx	r3, r3, #0, #29
 530 0270 DB11     		asrs	r3, r3, #7
 531 0272 9AB2     		uxth	r2, r3
 532 0274 089B     		ldr	r3, [sp, #32]
 533 0276 A3F81120 		strh	r2, [r3, #17]	@ unaligned
 534              		.loc 1 288 0
 535 027a 089B     		ldr	r3, [sp, #32]
 536 027c B3F81330 		ldrh	r3, [r3, #19]	@ unaligned
 537 0280 9BB2     		uxth	r3, r3
 538 0282 082B     		cmp	r3, #8
 539 0284 12D9     		bls	.L31
 540              		.loc 1 289 0
 541 0286 089B     		ldr	r3, [sp, #32]
 542 0288 B3F81330 		ldrh	r3, [r3, #19]	@ unaligned
 543 028c 9BB2     		uxth	r3, r3
 544 028e 013B     		subs	r3, r3, #1
 545 0290 002B     		cmp	r3, #0
 546 0292 00DA     		bge	.L32
 547 0294 0733     		adds	r3, r3, #7
 548              	.L32:
 549 0296 DB10     		asrs	r3, r3, #3
 550 0298 DBB2     		uxtb	r3, r3
 551 029a 03F07F03 		and	r3, r3, #127
 552 029e D9B2     		uxtb	r1, r3
 553 02a0 089A     		ldr	r2, [sp, #32]
 554 02a2 537F     		ldrb	r3, [r2, #29]
 555 02a4 61F30603 		bfi	r3, r1, #0, #7
 556 02a8 5377     		strb	r3, [r2, #29]
 557 02aa 04E0     		b	.L30
 558              	.L31:
 559              		.loc 1 291 0
 560 02ac 089A     		ldr	r2, [sp, #32]
 561 02ae 537F     		ldrb	r3, [r2, #29]
 562 02b0 6FF30603 		bfc	r3, #0, #7
 563 02b4 5377     		strb	r3, [r2, #29]
 564              	.L30:
 565              		.loc 1 295 0
 566 02b6 089B     		ldr	r3, [sp, #32]
 567 02b8 1B79     		ldrb	r3, [r3, #4]	@ zero_extendqisi2
 568 02ba 042B     		cmp	r3, #4
 569 02bc 73D1     		bne	.L33
 570              	.LBB13:
ARM GAS  /tmp/cc1zpTEh.s 			page 11


 571              		.loc 1 299 0
 572 02be 039B     		ldr	r3, [sp, #12]
 573 02c0 C3F31C03 		ubfx	r3, r3, #0, #29
 574 02c4 DB11     		asrs	r3, r3, #7
 575 02c6 8DF81F30 		strb	r3, [sp, #31]
 576              		.loc 1 300 0
 577 02ca 089B     		ldr	r3, [sp, #32]
 578 02cc B3F81130 		ldrh	r3, [r3, #17]	@ unaligned
 579 02d0 9BB2     		uxth	r3, r3
 580 02d2 8DF81E30 		strb	r3, [sp, #30]
 581              		.loc 1 301 0
 582 02d6 9DF81F20 		ldrb	r2, [sp, #31]	@ zero_extendqisi2
 583 02da 9DF81E30 		ldrb	r3, [sp, #30]	@ zero_extendqisi2
 584 02de 9A42     		cmp	r2, r3
 585 02e0 05D0     		beq	.L34
 586              		.loc 1 303 0
 587 02e2 FFF7FEFF 		bl	dbg_check_unlock_from_isr
 588              	.LBB14:
 589 02e6 0023     		movs	r3, #0
 590              	@ 303 "/opt/R2P/core/RTCAN/src/rtcan.c" 1
 591 02e8 83F31188 		msr     BASEPRI, r3
 592              	@ 0 "" 2
 593              		.thumb
 594              	.LBE14:
 595              		.loc 1 304 0
 596 02ec 60E0     		b	.L27
 597              	.L34:
 598              		.loc 1 308 0
 599 02ee 039B     		ldr	r3, [sp, #12]
 600 02f0 C3F31C03 		ubfx	r3, r3, #0, #29
 601 02f4 DBB2     		uxtb	r3, r3
 602 02f6 03F07F03 		and	r3, r3, #127
 603 02fa 8DF81D30 		strb	r3, [sp, #29]
 604              		.loc 1 309 0
 605 02fe 089B     		ldr	r3, [sp, #32]
 606 0300 5B7F     		ldrb	r3, [r3, #29]
 607 0302 C3F30603 		ubfx	r3, r3, #0, #7
 608 0306 DBB2     		uxtb	r3, r3
 609 0308 1A46     		mov	r2, r3
 610 030a 9DF81D30 		ldrb	r3, [sp, #29]	@ zero_extendqisi2
 611 030e 9342     		cmp	r3, r2
 612 0310 08D0     		beq	.L36
 613              		.loc 1 310 0
 614 0312 089B     		ldr	r3, [sp, #32]
 615 0314 0222     		movs	r2, #2
 616 0316 1A71     		strb	r2, [r3, #4]
 617              		.loc 1 311 0
 618 0318 FFF7FEFF 		bl	dbg_check_unlock_from_isr
 619              	.LBB15:
 620 031c 0023     		movs	r3, #0
 621              	@ 311 "/opt/R2P/core/RTCAN/src/rtcan.c" 1
 622 031e 83F31188 		msr     BASEPRI, r3
 623              	@ 0 "" 2
 624              		.thumb
 625              	.LBE15:
 626              		.loc 1 312 0
 627 0322 45E0     		b	.L27
ARM GAS  /tmp/cc1zpTEh.s 			page 12


 628              	.L36:
 629              		.loc 1 315 0
 630 0324 0023     		movs	r3, #0
 631 0326 0993     		str	r3, [sp, #36]
 632 0328 0EE0     		b	.L37
 633              	.L38:
 634              		.loc 1 316 0 discriminator 3
 635 032a 089B     		ldr	r3, [sp, #32]
 636 032c D3F81930 		ldr	r3, [r3, #25]	@ unaligned
 637 0330 591C     		adds	r1, r3, #1
 638 0332 089A     		ldr	r2, [sp, #32]
 639 0334 C2F81910 		str	r1, [r2, #25]	@ unaligned
 640 0338 05A9     		add	r1, sp, #20
 641 033a 099A     		ldr	r2, [sp, #36]
 642 033c 0A44     		add	r2, r2, r1
 643 033e 1278     		ldrb	r2, [r2]	@ zero_extendqisi2
 644 0340 1A70     		strb	r2, [r3]
 645              		.loc 1 315 0 discriminator 3
 646 0342 099B     		ldr	r3, [sp, #36]
 647 0344 0133     		adds	r3, r3, #1
 648 0346 0993     		str	r3, [sp, #36]
 649              	.L37:
 650              		.loc 1 315 0 is_stmt 0 discriminator 1
 651 0348 9DF81030 		ldrb	r3, [sp, #16]
 652 034c C3F30303 		ubfx	r3, r3, #0, #4
 653 0350 DBB2     		uxtb	r3, r3
 654 0352 1A46     		mov	r2, r3
 655 0354 099B     		ldr	r3, [sp, #36]
 656 0356 9A42     		cmp	r2, r3
 657 0358 E7D8     		bhi	.L38
 658              		.loc 1 319 0 is_stmt 1
 659 035a 089B     		ldr	r3, [sp, #32]
 660 035c 5B7F     		ldrb	r3, [r3, #29]
 661 035e C3F30603 		ubfx	r3, r3, #0, #7
 662 0362 DBB2     		uxtb	r3, r3
 663 0364 002B     		cmp	r3, #0
 664 0366 0EDD     		ble	.L39
 665              		.loc 1 320 0
 666 0368 089B     		ldr	r3, [sp, #32]
 667 036a 5B7F     		ldrb	r3, [r3, #29]
 668 036c C3F30603 		ubfx	r3, r3, #0, #7
 669 0370 DBB2     		uxtb	r3, r3
 670 0372 7F33     		adds	r3, r3, #127
 671 0374 03F07F03 		and	r3, r3, #127
 672 0378 D9B2     		uxtb	r1, r3
 673 037a 089A     		ldr	r2, [sp, #32]
 674 037c 537F     		ldrb	r3, [r2, #29]
 675 037e 61F30603 		bfi	r3, r1, #0, #7
 676 0382 5377     		strb	r3, [r2, #29]
 677 0384 0FE0     		b	.L33
 678              	.L39:
 679              		.loc 1 322 0
 680 0386 089B     		ldr	r3, [sp, #32]
 681 0388 D3F80530 		ldr	r3, [r3, #5]	@ unaligned
 682 038c 002B     		cmp	r3, #0
 683 038e 0AD0     		beq	.L33
 684              		.loc 1 323 0
ARM GAS  /tmp/cc1zpTEh.s 			page 13


 685 0390 089B     		ldr	r3, [sp, #32]
 686 0392 0122     		movs	r2, #1
 687 0394 1A71     		strb	r2, [r3, #4]
 688              		.loc 1 324 0
 689 0396 089B     		ldr	r3, [sp, #32]
 690 0398 D3F80530 		ldr	r3, [r3, #5]	@ unaligned
 691 039c 0898     		ldr	r0, [sp, #32]
 692 039e 9847     		blx	r3
 693              		.loc 1 325 0
 694 03a0 089B     		ldr	r3, [sp, #32]
 695 03a2 0222     		movs	r2, #2
 696 03a4 1A71     		strb	r2, [r3, #4]
 697              	.L33:
 698              	.LBE13:
 699              		.loc 1 329 0
 700 03a6 FFF7FEFF 		bl	dbg_check_unlock_from_isr
 701              	.LBB16:
 702 03aa 0023     		movs	r3, #0
 703              	@ 329 "/opt/R2P/core/RTCAN/src/rtcan.c" 1
 704 03ac 83F31188 		msr     BASEPRI, r3
 705              	@ 0 "" 2
 706              		.thumb
 707              	.L27:
 708              	.LBE16:
 709              		.loc 1 330 0
 710 03b0 0BB0     		add	sp, sp, #44
 711              		.cfi_def_cfa_offset 4
 712              		@ sp needed
 713 03b2 5DF804FB 		ldr	pc, [sp], #4
 714              		.cfi_endproc
 715              	.LFE124:
 716              		.size	rtcan_rx_isr_code, .-rtcan_rx_isr_code
 717 03b6 00BF     		.align	2
 718              		.global	rtcanInit
 719              		.thumb
 720              		.thumb_func
 721              		.type	rtcanInit, %function
 722              	rtcanInit:
 723              	.LFB125:
 724              		.loc 1 337 0
 725              		.cfi_startproc
 726              		@ args = 0, pretend = 0, frame = 0
 727              		@ frame_needed = 0, uses_anonymous_args = 0
 728 03b8 08B5     		push	{r3, lr}
 729              		.cfi_def_cfa_offset 8
 730              		.cfi_offset 3, -8
 731              		.cfi_offset 14, -4
 732              		.loc 1 339 0
 733 03ba FFF7FEFF 		bl	rtcan_lld_tim_init
 734              		.loc 1 340 0
 735 03be FFF7FEFF 		bl	rtcan_lld_can_init
 736              		.loc 1 341 0
 737 03c2 08BD     		pop	{r3, pc}
 738              		.cfi_endproc
 739              	.LFE125:
 740              		.size	rtcanInit, .-rtcanInit
 741              		.align	2
ARM GAS  /tmp/cc1zpTEh.s 			page 14


 742              		.global	rtcanReset
 743              		.thumb
 744              		.thumb_func
 745              		.type	rtcanReset, %function
 746              	rtcanReset:
 747              	.LFB126:
 748              		.loc 1 350 0
 749              		.cfi_startproc
 750              		@ args = 0, pretend = 0, frame = 16
 751              		@ frame_needed = 0, uses_anonymous_args = 0
 752 03c4 00B5     		push	{lr}
 753              		.cfi_def_cfa_offset 4
 754              		.cfi_offset 14, -4
 755 03c6 85B0     		sub	sp, sp, #20
 756              		.cfi_def_cfa_offset 24
 757 03c8 0190     		str	r0, [sp, #4]
 758              		.loc 1 353 0
 759 03ca 019B     		ldr	r3, [sp, #4]
 760 03cc 0122     		movs	r2, #1
 761 03ce 1A70     		strb	r2, [r3]
 762              		.loc 1 354 0
 763 03d0 019B     		ldr	r3, [sp, #4]
 764 03d2 0022     		movs	r2, #0
 765 03d4 5A65     		str	r2, [r3, #84]
 766              		.loc 1 356 0
 767 03d6 019B     		ldr	r3, [sp, #4]
 768 03d8 0C33     		adds	r3, r3, #12
 769 03da 1846     		mov	r0, r3
 770 03dc FFF7FEFF 		bl	msgqueue_init
 771              		.loc 1 358 0
 772 03e0 0023     		movs	r3, #0
 773 03e2 0393     		str	r3, [sp, #12]
 774 03e4 08E0     		b	.L43
 775              	.L44:
 776              		.loc 1 359 0 discriminator 3
 777 03e6 019B     		ldr	r3, [sp, #4]
 778 03e8 039A     		ldr	r2, [sp, #12]
 779 03ea 0432     		adds	r2, r2, #4
 780 03ec 0021     		movs	r1, #0
 781 03ee 43F82210 		str	r1, [r3, r2, lsl #2]
 782              		.loc 1 358 0 discriminator 3
 783 03f2 039B     		ldr	r3, [sp, #12]
 784 03f4 0133     		adds	r3, r3, #1
 785 03f6 0393     		str	r3, [sp, #12]
 786              	.L43:
 787              		.loc 1 358 0 is_stmt 0 discriminator 1
 788 03f8 039B     		ldr	r3, [sp, #12]
 789 03fa 022B     		cmp	r3, #2
 790 03fc F3DD     		ble	.L44
 791              		.loc 1 362 0 is_stmt 1
 792 03fe 0023     		movs	r3, #0
 793 0400 0393     		str	r3, [sp, #12]
 794 0402 09E0     		b	.L45
 795              	.L46:
 796              		.loc 1 363 0 discriminator 3
 797 0404 019A     		ldr	r2, [sp, #4]
 798 0406 039B     		ldr	r3, [sp, #12]
ARM GAS  /tmp/cc1zpTEh.s 			page 15


 799 0408 0633     		adds	r3, r3, #6
 800 040a 9B00     		lsls	r3, r3, #2
 801 040c 1344     		add	r3, r3, r2
 802 040e 0022     		movs	r2, #0
 803 0410 5A60     		str	r2, [r3, #4]
 804              		.loc 1 362 0 discriminator 3
 805 0412 039B     		ldr	r3, [sp, #12]
 806 0414 0133     		adds	r3, r3, #1
 807 0416 0393     		str	r3, [sp, #12]
 808              	.L45:
 809              		.loc 1 362 0 is_stmt 0 discriminator 1
 810 0418 039B     		ldr	r3, [sp, #12]
 811 041a 0D2B     		cmp	r3, #13
 812 041c F2DD     		ble	.L46
 813              		.loc 1 370 0 is_stmt 1
 814 041e 05B0     		add	sp, sp, #20
 815              		.cfi_def_cfa_offset 4
 816              		@ sp needed
 817 0420 5DF804FB 		ldr	pc, [sp], #4
 818              		.cfi_endproc
 819              	.LFE126:
 820              		.size	rtcanReset, .-rtcanReset
 821              		.section	.rodata
 822              		.align	2
 823              	.LC0:
 824 0000 22727463 		.ascii	"\"rtcanStart\"()\000"
 824      616E5374 
 824      61727422 
 824      282900
 825 000f 00       		.align	2
 826              	.LC1:
 827 0010 72746361 		.ascii	"rtcanStart(), #1\000"
 827      6E537461 
 827      72742829 
 827      2C202331 
 827      00
 828              		.text
 829              		.align	2
 830              		.global	rtcanStart
 831              		.thumb
 832              		.thumb_func
 833              		.type	rtcanStart, %function
 834              	rtcanStart:
 835              	.LFB127:
 836              		.loc 1 384 0
 837              		.cfi_startproc
 838              		@ args = 0, pretend = 0, frame = 8
 839              		@ frame_needed = 0, uses_anonymous_args = 0
 840 0424 00B5     		push	{lr}
 841              		.cfi_def_cfa_offset 4
 842              		.cfi_offset 14, -4
 843 0426 83B0     		sub	sp, sp, #12
 844              		.cfi_def_cfa_offset 16
 845 0428 0190     		str	r0, [sp, #4]
 846 042a 0091     		str	r1, [sp]
 847              		.loc 1 386 0
 848 042c 019B     		ldr	r3, [sp, #4]
ARM GAS  /tmp/cc1zpTEh.s 			page 16


 849 042e 002B     		cmp	r3, #0
 850 0430 05D1     		bne	.L48
 851              		.loc 1 386 0 is_stmt 0 discriminator 1
 852 0432 009B     		ldr	r3, [sp]
 853 0434 002B     		cmp	r3, #0
 854 0436 02D1     		bne	.L48
 855              		.loc 1 386 0 discriminator 2
 856 0438 1648     		ldr	r0, .L53
 857 043a FFF7FEFF 		bl	chDbgPanic
 858              	.L48:
 859              	.LBB17:
 860              		.loc 1 388 0 is_stmt 1
 861 043e 2023     		movs	r3, #32
 862              	@ 388 "/opt/R2P/core/RTCAN/src/rtcan.c" 1
 863 0440 83F31188 		msr     BASEPRI, r3
 864              	@ 0 "" 2
 865              		.thumb
 866              	.LBE17:
 867 0444 FFF7FEFF 		bl	dbg_check_lock
 868              		.loc 1 390 0
 869 0448 019B     		ldr	r3, [sp, #4]
 870 044a 1B78     		ldrb	r3, [r3]	@ zero_extendqisi2
 871 044c 012B     		cmp	r3, #1
 872 044e 02D0     		beq	.L49
 873              		.loc 1 390 0 is_stmt 0 discriminator 1
 874 0450 1148     		ldr	r0, .L53+4
 875 0452 FFF7FEFF 		bl	chDbgPanic
 876              	.L49:
 877              		.loc 1 393 0 is_stmt 1
 878 0456 019B     		ldr	r3, [sp, #4]
 879 0458 1B78     		ldrb	r3, [r3]	@ zero_extendqisi2
 880 045a 012B     		cmp	r3, #1
 881 045c 08D1     		bne	.L50
 882              		.loc 1 394 0
 883 045e 019B     		ldr	r3, [sp, #4]
 884 0460 009A     		ldr	r2, [sp]
 885 0462 5A65     		str	r2, [r3, #84]
 886              		.loc 1 395 0
 887 0464 0198     		ldr	r0, [sp, #4]
 888 0466 FFF7FEFF 		bl	rtcan_lld_can_start
 889              		.loc 1 396 0
 890 046a 019B     		ldr	r3, [sp, #4]
 891 046c 0222     		movs	r2, #2
 892 046e 1A70     		strb	r2, [r3]
 893              	.L50:
 894              		.loc 1 415 0
 895 0470 019B     		ldr	r3, [sp, #4]
 896 0472 0522     		movs	r2, #5
 897 0474 1A70     		strb	r2, [r3]
 898              		.loc 1 418 0
 899 0476 FFF7FEFF 		bl	dbg_check_unlock
 900              	.LBB18:
 901 047a 0023     		movs	r3, #0
 902              	@ 418 "/opt/R2P/core/RTCAN/src/rtcan.c" 1
 903 047c 83F31188 		msr     BASEPRI, r3
 904              	@ 0 "" 2
 905              		.thumb
ARM GAS  /tmp/cc1zpTEh.s 			page 17


 906              	.LBE18:
 907              		.loc 1 420 0
 908 0480 01E0     		b	.L51
 909              	.L52:
 910              		.loc 1 421 0
 911 0482 FFF7FEFF 		bl	rtcan_blinker
 912              	.L51:
 913              		.loc 1 420 0
 914 0486 019B     		ldr	r3, [sp, #4]
 915 0488 1B78     		ldrb	r3, [r3]	@ zero_extendqisi2
 916 048a 042B     		cmp	r3, #4
 917 048c F9D0     		beq	.L52
 918              		.loc 1 423 0
 919 048e 03B0     		add	sp, sp, #12
 920              		.cfi_def_cfa_offset 4
 921              		@ sp needed
 922 0490 5DF804FB 		ldr	pc, [sp], #4
 923              	.L54:
 924              		.align	2
 925              	.L53:
 926 0494 00000000 		.word	.LC0
 927 0498 10000000 		.word	.LC1
 928              		.cfi_endproc
 929              	.LFE127:
 930              		.size	rtcanStart, .-rtcanStart
 931              		.section	.rodata
 932 0021 000000   		.align	2
 933              	.LC2:
 934 0024 22727463 		.ascii	"\"rtcanStop\"()\000"
 934      616E5374 
 934      6F702228 
 934      2900
 935 0032 0000     		.align	2
 936              	.LC3:
 937 0034 72746361 		.ascii	"rtcanStop(), #1\000"
 937      6E53746F 
 937      7028292C 
 937      20233100 
 938              		.text
 939              		.align	2
 940              		.global	rtcanStop
 941              		.thumb
 942              		.thumb_func
 943              		.type	rtcanStop, %function
 944              	rtcanStop:
 945              	.LFB128:
 946              		.loc 1 432 0
 947              		.cfi_startproc
 948              		@ args = 0, pretend = 0, frame = 8
 949              		@ frame_needed = 0, uses_anonymous_args = 0
 950 049c 00B5     		push	{lr}
 951              		.cfi_def_cfa_offset 4
 952              		.cfi_offset 14, -4
 953 049e 83B0     		sub	sp, sp, #12
 954              		.cfi_def_cfa_offset 16
 955 04a0 0190     		str	r0, [sp, #4]
 956              		.loc 1 434 0
ARM GAS  /tmp/cc1zpTEh.s 			page 18


 957 04a2 019B     		ldr	r3, [sp, #4]
 958 04a4 002B     		cmp	r3, #0
 959 04a6 02D1     		bne	.L56
 960              		.loc 1 434 0 is_stmt 0 discriminator 1
 961 04a8 1048     		ldr	r0, .L58
 962 04aa FFF7FEFF 		bl	chDbgPanic
 963              	.L56:
 964              	.LBB19:
 965              		.loc 1 436 0 is_stmt 1
 966 04ae 2023     		movs	r3, #32
 967              	@ 436 "/opt/R2P/core/RTCAN/src/rtcan.c" 1
 968 04b0 83F31188 		msr     BASEPRI, r3
 969              	@ 0 "" 2
 970              		.thumb
 971              	.LBE19:
 972 04b4 FFF7FEFF 		bl	dbg_check_lock
 973              		.loc 1 438 0
 974 04b8 019B     		ldr	r3, [sp, #4]
 975 04ba 1B78     		ldrb	r3, [r3]	@ zero_extendqisi2
 976 04bc 062B     		cmp	r3, #6
 977 04be 06D0     		beq	.L57
 978              		.loc 1 438 0 is_stmt 0 discriminator 1
 979 04c0 019B     		ldr	r3, [sp, #4]
 980 04c2 1B78     		ldrb	r3, [r3]	@ zero_extendqisi2
 981 04c4 052B     		cmp	r3, #5
 982 04c6 02D0     		beq	.L57
 983              		.loc 1 438 0 discriminator 2
 984 04c8 0948     		ldr	r0, .L58+4
 985 04ca FFF7FEFF 		bl	chDbgPanic
 986              	.L57:
 987              		.loc 1 440 0 is_stmt 1
 988 04ce 0198     		ldr	r0, [sp, #4]
 989 04d0 FFF7FEFF 		bl	rtcan_lld_can_stop
 990              		.loc 1 441 0
 991 04d4 019B     		ldr	r3, [sp, #4]
 992 04d6 0122     		movs	r2, #1
 993 04d8 1A70     		strb	r2, [r3]
 994              		.loc 1 442 0
 995 04da FFF7FEFF 		bl	dbg_check_unlock
 996              	.LBB20:
 997 04de 0023     		movs	r3, #0
 998              	@ 442 "/opt/R2P/core/RTCAN/src/rtcan.c" 1
 999 04e0 83F31188 		msr     BASEPRI, r3
 1000              	@ 0 "" 2
 1001              		.thumb
 1002              	.LBE20:
 1003              		.loc 1 443 0
 1004 04e4 03B0     		add	sp, sp, #12
 1005              		.cfi_def_cfa_offset 4
 1006              		@ sp needed
 1007 04e6 5DF804FB 		ldr	pc, [sp], #4
 1008              	.L59:
 1009 04ea 00BF     		.align	2
 1010              	.L58:
 1011 04ec 24000000 		.word	.LC2
 1012 04f0 34000000 		.word	.LC3
 1013              		.cfi_endproc
ARM GAS  /tmp/cc1zpTEh.s 			page 19


 1014              	.LFE128:
 1015              		.size	rtcanStop, .-rtcanStop
 1016              		.align	2
 1017              		.global	rtcanTransmit
 1018              		.thumb
 1019              		.thumb_func
 1020              		.type	rtcanTransmit, %function
 1021              	rtcanTransmit:
 1022              	.LFB129:
 1023              		.loc 1 450 0
 1024              		.cfi_startproc
 1025              		@ args = 0, pretend = 0, frame = 16
 1026              		@ frame_needed = 0, uses_anonymous_args = 0
 1027 04f4 00B5     		push	{lr}
 1028              		.cfi_def_cfa_offset 4
 1029              		.cfi_offset 14, -4
 1030 04f6 85B0     		sub	sp, sp, #20
 1031              		.cfi_def_cfa_offset 24
 1032 04f8 0390     		str	r0, [sp, #12]
 1033 04fa 0291     		str	r1, [sp, #8]
 1034 04fc 0192     		str	r2, [sp, #4]
 1035              	.LBB21:
 1036              		.loc 1 452 0
 1037 04fe 2023     		movs	r3, #32
 1038              	@ 452 "/opt/R2P/core/RTCAN/src/rtcan.c" 1
 1039 0500 83F31188 		msr     BASEPRI, r3
 1040              	@ 0 "" 2
 1041              		.thumb
 1042              	.LBE21:
 1043 0504 FFF7FEFF 		bl	dbg_check_lock
 1044              		.loc 1 454 0
 1045 0508 0398     		ldr	r0, [sp, #12]
 1046 050a 0299     		ldr	r1, [sp, #8]
 1047 050c 019A     		ldr	r2, [sp, #4]
 1048 050e FFF7FEFF 		bl	rtcanTransmitI
 1049              		.loc 1 455 0
 1050 0512 FFF7FEFF 		bl	dbg_check_unlock
 1051              	.LBB22:
 1052 0516 0023     		movs	r3, #0
 1053              	@ 455 "/opt/R2P/core/RTCAN/src/rtcan.c" 1
 1054 0518 83F31188 		msr     BASEPRI, r3
 1055              	@ 0 "" 2
 1056              		.thumb
 1057              	.LBE22:
 1058              		.loc 1 456 0
 1059 051c 05B0     		add	sp, sp, #20
 1060              		.cfi_def_cfa_offset 4
 1061              		@ sp needed
 1062 051e 5DF804FB 		ldr	pc, [sp], #4
 1063              		.cfi_endproc
 1064              	.LFE129:
 1065              		.size	rtcanTransmit, .-rtcanTransmit
 1066 0522 00BF     		.align	2
 1067              		.global	rtcanTransmitI
 1068              		.thumb
 1069              		.thumb_func
 1070              		.type	rtcanTransmitI, %function
ARM GAS  /tmp/cc1zpTEh.s 			page 20


 1071              	rtcanTransmitI:
 1072              	.LFB130:
 1073              		.loc 1 463 0
 1074              		.cfi_startproc
 1075              		@ args = 0, pretend = 0, frame = 16
 1076              		@ frame_needed = 0, uses_anonymous_args = 0
 1077 0524 00B5     		push	{lr}
 1078              		.cfi_def_cfa_offset 4
 1079              		.cfi_offset 14, -4
 1080 0526 85B0     		sub	sp, sp, #20
 1081              		.cfi_def_cfa_offset 24
 1082 0528 0390     		str	r0, [sp, #12]
 1083 052a 0291     		str	r1, [sp, #8]
 1084 052c 0192     		str	r2, [sp, #4]
 1085              		.loc 1 466 0
 1086 052e 029B     		ldr	r3, [sp, #8]
 1087 0530 0122     		movs	r2, #1
 1088 0532 1A71     		strb	r2, [r3, #4]
 1089              		.loc 1 469 0
 1090 0534 1C4B     		ldr	r3, .L65
 1091 0536 DA68     		ldr	r2, [r3, #12]
 1092 0538 019B     		ldr	r3, [sp, #4]
 1093 053a 1A44     		add	r2, r2, r3
 1094 053c 029B     		ldr	r3, [sp, #8]
 1095 053e C3F80D20 		str	r2, [r3, #13]	@ unaligned
 1096              		.loc 1 472 0
 1097 0542 029B     		ldr	r3, [sp, #8]
 1098 0544 B3F81330 		ldrh	r3, [r3, #19]	@ unaligned
 1099 0548 9BB2     		uxth	r3, r3
 1100 054a 082B     		cmp	r3, #8
 1101 054c 12D9     		bls	.L62
 1102              		.loc 1 473 0
 1103 054e 029B     		ldr	r3, [sp, #8]
 1104 0550 B3F81330 		ldrh	r3, [r3, #19]	@ unaligned
 1105 0554 9BB2     		uxth	r3, r3
 1106 0556 013B     		subs	r3, r3, #1
 1107 0558 002B     		cmp	r3, #0
 1108 055a 00DA     		bge	.L63
 1109 055c 0733     		adds	r3, r3, #7
 1110              	.L63:
 1111 055e DB10     		asrs	r3, r3, #3
 1112 0560 DBB2     		uxtb	r3, r3
 1113 0562 03F07F03 		and	r3, r3, #127
 1114 0566 D9B2     		uxtb	r1, r3
 1115 0568 029A     		ldr	r2, [sp, #8]
 1116 056a 537F     		ldrb	r3, [r2, #29]
 1117 056c 61F30603 		bfi	r3, r1, #0, #7
 1118 0570 5377     		strb	r3, [r2, #29]
 1119 0572 04E0     		b	.L64
 1120              	.L62:
 1121              		.loc 1 475 0
 1122 0574 029A     		ldr	r2, [sp, #8]
 1123 0576 537F     		ldrb	r3, [r2, #29]
 1124 0578 6FF30603 		bfc	r3, #0, #7
 1125 057c 5377     		strb	r3, [r2, #29]
 1126              	.L64:
 1127              		.loc 1 479 0
ARM GAS  /tmp/cc1zpTEh.s 			page 21


 1128 057e 029B     		ldr	r3, [sp, #8]
 1129 0580 D3F81520 		ldr	r2, [r3, #21]	@ unaligned
 1130 0584 029B     		ldr	r3, [sp, #8]
 1131 0586 C3F81920 		str	r2, [r3, #25]	@ unaligned
 1132              		.loc 1 481 0
 1133 058a 039B     		ldr	r3, [sp, #12]
 1134 058c 0C33     		adds	r3, r3, #12
 1135 058e 1846     		mov	r0, r3
 1136 0590 0299     		ldr	r1, [sp, #8]
 1137 0592 FFF7FEFF 		bl	msgqueue_insert
 1138              		.loc 1 482 0
 1139 0596 029B     		ldr	r3, [sp, #8]
 1140 0598 0322     		movs	r2, #3
 1141 059a 1A71     		strb	r2, [r3, #4]
 1142              		.loc 1 484 0
 1143 059c 0398     		ldr	r0, [sp, #12]
 1144 059e FFF7FEFF 		bl	srt_transmit
 1145              		.loc 1 486 0
 1146 05a2 05B0     		add	sp, sp, #20
 1147              		.cfi_def_cfa_offset 4
 1148              		@ sp needed
 1149 05a4 5DF804FB 		ldr	pc, [sp], #4
 1150              	.L66:
 1151              		.align	2
 1152              	.L65:
 1153 05a8 00000000 		.word	vtlist
 1154              		.cfi_endproc
 1155              	.LFE130:
 1156              		.size	rtcanTransmitI, .-rtcanTransmitI
 1157              		.align	2
 1158              		.global	rtcanReceive
 1159              		.thumb
 1160              		.thumb_func
 1161              		.type	rtcanReceive, %function
 1162              	rtcanReceive:
 1163              	.LFB131:
 1164              		.loc 1 493 0
 1165              		.cfi_startproc
 1166              		@ args = 0, pretend = 0, frame = 16
 1167              		@ frame_needed = 0, uses_anonymous_args = 0
 1168 05ac 00B5     		push	{lr}
 1169              		.cfi_def_cfa_offset 4
 1170              		.cfi_offset 14, -4
 1171 05ae 85B0     		sub	sp, sp, #20
 1172              		.cfi_def_cfa_offset 24
 1173 05b0 0190     		str	r0, [sp, #4]
 1174 05b2 0091     		str	r1, [sp]
 1175              	.LBB23:
 1176              		.loc 1 496 0
 1177 05b4 2023     		movs	r3, #32
 1178              	@ 496 "/opt/R2P/core/RTCAN/src/rtcan.c" 1
 1179 05b6 83F31188 		msr     BASEPRI, r3
 1180              	@ 0 "" 2
 1181              		.thumb
 1182              	.LBE23:
 1183 05ba FFF7FEFF 		bl	dbg_check_lock
 1184              		.loc 1 499 0
ARM GAS  /tmp/cc1zpTEh.s 			page 22


 1185 05be 009B     		ldr	r3, [sp]
 1186 05c0 B3F81130 		ldrh	r3, [r3, #17]	@ unaligned
 1187 05c4 9BB2     		uxth	r3, r3
 1188 05c6 DB01     		lsls	r3, r3, #7
 1189 05c8 1A46     		mov	r2, r3
 1190 05ca 0DF10F03 		add	r3, sp, #15
 1191 05ce 0198     		ldr	r0, [sp, #4]
 1192 05d0 1146     		mov	r1, r2
 1193 05d2 094A     		ldr	r2, .L68
 1194 05d4 FFF7FEFF 		bl	rtcan_lld_can_addfilter
 1195              		.loc 1 500 0
 1196 05d8 9DF80F30 		ldrb	r3, [sp, #15]	@ zero_extendqisi2
 1197 05dc 019A     		ldr	r2, [sp, #4]
 1198 05de 0633     		adds	r3, r3, #6
 1199 05e0 9B00     		lsls	r3, r3, #2
 1200 05e2 1344     		add	r3, r3, r2
 1201 05e4 009A     		ldr	r2, [sp]
 1202 05e6 5A60     		str	r2, [r3, #4]
 1203              		.loc 1 502 0
 1204 05e8 FFF7FEFF 		bl	dbg_check_unlock
 1205              	.LBB24:
 1206 05ec 0023     		movs	r3, #0
 1207              	@ 502 "/opt/R2P/core/RTCAN/src/rtcan.c" 1
 1208 05ee 83F31188 		msr     BASEPRI, r3
 1209              	@ 0 "" 2
 1210              		.thumb
 1211              	.LBE24:
 1212              		.loc 1 503 0
 1213 05f2 05B0     		add	sp, sp, #20
 1214              		.cfi_def_cfa_offset 4
 1215              		@ sp needed
 1216 05f4 5DF804FB 		ldr	pc, [sp], #4
 1217              	.L69:
 1218              		.align	2
 1219              	.L68:
 1220 05f8 80FF7F00 		.word	8388480
 1221              		.cfi_endproc
 1222              	.LFE131:
 1223              		.size	rtcanReceive, .-rtcanReceive
 1224              		.align	2
 1225              		.global	rtcanReceiveMask
 1226              		.thumb
 1227              		.thumb_func
 1228              		.type	rtcanReceiveMask, %function
 1229              	rtcanReceiveMask:
 1230              	.LFB132:
 1231              		.loc 1 505 0
 1232              		.cfi_startproc
 1233              		@ args = 0, pretend = 0, frame = 24
 1234              		@ frame_needed = 0, uses_anonymous_args = 0
 1235 05fc 00B5     		push	{lr}
 1236              		.cfi_def_cfa_offset 4
 1237              		.cfi_offset 14, -4
 1238 05fe 87B0     		sub	sp, sp, #28
 1239              		.cfi_def_cfa_offset 32
 1240 0600 0390     		str	r0, [sp, #12]
 1241 0602 0291     		str	r1, [sp, #8]
ARM GAS  /tmp/cc1zpTEh.s 			page 23


 1242 0604 0192     		str	r2, [sp, #4]
 1243              	.LBB25:
 1244              		.loc 1 508 0
 1245 0606 2023     		movs	r3, #32
 1246              	@ 508 "/opt/R2P/core/RTCAN/src/rtcan.c" 1
 1247 0608 83F31188 		msr     BASEPRI, r3
 1248              	@ 0 "" 2
 1249              		.thumb
 1250              	.LBE25:
 1251 060c FFF7FEFF 		bl	dbg_check_lock
 1252              		.loc 1 511 0
 1253 0610 029B     		ldr	r3, [sp, #8]
 1254 0612 B3F81130 		ldrh	r3, [r3, #17]	@ unaligned
 1255 0616 9BB2     		uxth	r3, r3
 1256 0618 DB01     		lsls	r3, r3, #7
 1257 061a 1946     		mov	r1, r3
 1258 061c 019B     		ldr	r3, [sp, #4]
 1259 061e 9BB2     		uxth	r3, r3
 1260 0620 DA01     		lsls	r2, r3, #7
 1261 0622 0DF11703 		add	r3, sp, #23
 1262 0626 0398     		ldr	r0, [sp, #12]
 1263 0628 FFF7FEFF 		bl	rtcan_lld_can_addfilter
 1264              		.loc 1 512 0
 1265 062c 9DF81730 		ldrb	r3, [sp, #23]	@ zero_extendqisi2
 1266 0630 039A     		ldr	r2, [sp, #12]
 1267 0632 0633     		adds	r3, r3, #6
 1268 0634 9B00     		lsls	r3, r3, #2
 1269 0636 1344     		add	r3, r3, r2
 1270 0638 029A     		ldr	r2, [sp, #8]
 1271 063a 5A60     		str	r2, [r3, #4]
 1272              		.loc 1 514 0
 1273 063c FFF7FEFF 		bl	dbg_check_unlock
 1274              	.LBB26:
 1275 0640 0023     		movs	r3, #0
 1276              	@ 514 "/opt/R2P/core/RTCAN/src/rtcan.c" 1
 1277 0642 83F31188 		msr     BASEPRI, r3
 1278              	@ 0 "" 2
 1279              		.thumb
 1280              	.LBE26:
 1281              		.loc 1 515 0
 1282 0646 07B0     		add	sp, sp, #28
 1283              		.cfi_def_cfa_offset 4
 1284              		@ sp needed
 1285 0648 5DF804FB 		ldr	pc, [sp], #4
 1286              		.cfi_endproc
 1287              	.LFE132:
 1288              		.size	rtcanReceiveMask, .-rtcanReceiveMask
 1289              		.align	2
 1290              		.global	rtcanGetTime
 1291              		.thumb
 1292              		.thumb_func
 1293              		.type	rtcanGetTime, %function
 1294              	rtcanGetTime:
 1295              	.LFB133:
 1296              		.loc 1 522 0
 1297              		.cfi_startproc
 1298              		@ args = 0, pretend = 0, frame = 24
ARM GAS  /tmp/cc1zpTEh.s 			page 24


 1299              		@ frame_needed = 0, uses_anonymous_args = 0
 1300 064c 00B5     		push	{lr}
 1301              		.cfi_def_cfa_offset 4
 1302              		.cfi_offset 14, -4
 1303 064e 87B0     		sub	sp, sp, #28
 1304              		.cfi_def_cfa_offset 32
 1305 0650 0190     		str	r0, [sp, #4]
 1306 0652 0091     		str	r1, [sp]
 1307              	.L72:
 1308              		.loc 1 529 0 discriminator 1
 1309 0654 019B     		ldr	r3, [sp, #4]
 1310 0656 9B68     		ldr	r3, [r3, #8]
 1311 0658 0593     		str	r3, [sp, #20]
 1312              		.loc 1 530 0 discriminator 1
 1313 065a 019B     		ldr	r3, [sp, #4]
 1314 065c 5B68     		ldr	r3, [r3, #4]
 1315 065e 0493     		str	r3, [sp, #16]
 1316              		.loc 1 531 0 discriminator 1
 1317 0660 0198     		ldr	r0, [sp, #4]
 1318 0662 FFF7FEFF 		bl	rtcan_lld_tim_get_counter
 1319 0666 0346     		mov	r3, r0
 1320 0668 ADF80E30 		strh	r3, [sp, #14]	@ movhi
 1321              		.loc 1 532 0 discriminator 1
 1322 066c 019B     		ldr	r3, [sp, #4]
 1323 066e 5A68     		ldr	r2, [r3, #4]
 1324 0670 049B     		ldr	r3, [sp, #16]
 1325 0672 9A42     		cmp	r2, r3
 1326 0674 EED1     		bne	.L72
 1327              		.loc 1 534 0
 1328 0676 019B     		ldr	r3, [sp, #4]
 1329 0678 5B6D     		ldr	r3, [r3, #84]
 1330 067a 9B68     		ldr	r3, [r3, #8]
 1331 067c 059A     		ldr	r2, [sp, #20]
 1332 067e 02FB03F2 		mul	r2, r2, r3
 1333 0682 019B     		ldr	r3, [sp, #4]
 1334 0684 5B68     		ldr	r3, [r3, #4]
 1335 0686 1344     		add	r3, r3, r2
 1336 0688 019A     		ldr	r2, [sp, #4]
 1337 068a 526D     		ldr	r2, [r2, #84]
 1338 068c 5268     		ldr	r2, [r2, #4]
 1339 068e 1649     		ldr	r1, .L73
 1340 0690 B1FBF2F1 		udiv	r1, r1, r2
 1341 0694 019A     		ldr	r2, [sp, #4]
 1342 0696 526D     		ldr	r2, [r2, #84]
 1343 0698 9268     		ldr	r2, [r2, #8]
 1344 069a B1FBF2F2 		udiv	r2, r1, r2
 1345 069e 02FB03F2 		mul	r2, r2, r3
 1346              		.loc 1 535 0
 1347 06a2 BDF80E30 		ldrh	r3, [sp, #14]
 1348 06a6 1344     		add	r3, r3, r2
 1349              		.loc 1 534 0
 1350 06a8 0293     		str	r3, [sp, #8]
 1351              		.loc 1 537 0
 1352 06aa 029B     		ldr	r3, [sp, #8]
 1353 06ac 0F4A     		ldr	r2, .L73+4
 1354 06ae 82FB0312 		smull	r1, r2, r2, r3
 1355 06b2 9214     		asrs	r2, r2, #18
ARM GAS  /tmp/cc1zpTEh.s 			page 25


 1356 06b4 DB17     		asrs	r3, r3, #31
 1357 06b6 D31A     		subs	r3, r2, r3
 1358 06b8 1A46     		mov	r2, r3
 1359 06ba 009B     		ldr	r3, [sp]
 1360 06bc 1A60     		str	r2, [r3]
 1361              		.loc 1 538 0
 1362 06be 029A     		ldr	r2, [sp, #8]
 1363 06c0 0A4B     		ldr	r3, .L73+4
 1364 06c2 83FB0213 		smull	r1, r3, r3, r2
 1365 06c6 9914     		asrs	r1, r3, #18
 1366 06c8 D317     		asrs	r3, r2, #31
 1367 06ca CB1A     		subs	r3, r1, r3
 1368 06cc 0649     		ldr	r1, .L73
 1369 06ce 01FB03F3 		mul	r3, r1, r3
 1370 06d2 D31A     		subs	r3, r2, r3
 1371 06d4 4FF47A72 		mov	r2, #1000
 1372 06d8 02FB03F3 		mul	r3, r2, r3
 1373 06dc 1A46     		mov	r2, r3
 1374 06de 009B     		ldr	r3, [sp]
 1375 06e0 5A60     		str	r2, [r3, #4]
 1376              		.loc 1 539 0
 1377 06e2 07B0     		add	sp, sp, #28
 1378              		.cfi_def_cfa_offset 4
 1379              		@ sp needed
 1380 06e4 5DF804FB 		ldr	pc, [sp], #4
 1381              	.L74:
 1382              		.align	2
 1383              	.L73:
 1384 06e8 40420F00 		.word	1000000
 1385 06ec 83DE1B43 		.word	1125899907
 1386              		.cfi_endproc
 1387              	.LFE133:
 1388              		.size	rtcanGetTime, .-rtcanGetTime
 1389              		.align	2
 1390              		.global	rtcan_blinker
 1391              		.thumb
 1392              		.thumb_func
 1393              		.type	rtcan_blinker, %function
 1394              	rtcan_blinker:
 1395              	.LFB134:
 1396              		.loc 1 541 0
 1397              		.cfi_startproc
 1398              		@ args = 0, pretend = 0, frame = 0
 1399              		@ frame_needed = 0, uses_anonymous_args = 0
 1400 06f0 08B5     		push	{r3, lr}
 1401              		.cfi_def_cfa_offset 8
 1402              		.cfi_offset 3, -8
 1403              		.cfi_offset 14, -4
 1404              		.loc 1 543 0
 1405 06f2 294B     		ldr	r3, .L83
 1406 06f4 1B78     		ldrb	r3, [r3]	@ zero_extendqisi2
 1407 06f6 033B     		subs	r3, r3, #3
 1408 06f8 032B     		cmp	r3, #3
 1409 06fa 48D8     		bhi	.L76
 1410 06fc 01A2     		adr	r2, .L78
 1411 06fe 52F823F0 		ldr	pc, [r2, r3, lsl #2]
 1412 0702 00BF     		.p2align 2
ARM GAS  /tmp/cc1zpTEh.s 			page 26


 1413              	.L78:
 1414 0704 7B070000 		.word	.L77+1
 1415 0708 51070000 		.word	.L79+1
 1416 070c 65070000 		.word	.L80+1
 1417 0710 15070000 		.word	.L81+1
 1418              		.p2align 1
 1419              	.L81:
 1420              		.loc 1 545 0
 1421 0714 214B     		ldr	r3, .L83+4
 1422 0716 4FF40052 		mov	r2, #8192
 1423 071a 5A83     		strh	r2, [r3, #26]	@ movhi
 1424              		.loc 1 546 0
 1425 071c C820     		movs	r0, #200
 1426 071e FFF7FEFF 		bl	chThdSleep
 1427              		.loc 1 547 0
 1428 0722 1E4B     		ldr	r3, .L83+4
 1429 0724 4FF40052 		mov	r2, #8192
 1430 0728 1A83     		strh	r2, [r3, #24]	@ movhi
 1431              		.loc 1 548 0
 1432 072a 6420     		movs	r0, #100
 1433 072c FFF7FEFF 		bl	chThdSleep
 1434              		.loc 1 549 0
 1435 0730 1A4B     		ldr	r3, .L83+4
 1436 0732 4FF40052 		mov	r2, #8192
 1437 0736 5A83     		strh	r2, [r3, #26]	@ movhi
 1438              		.loc 1 550 0
 1439 0738 C820     		movs	r0, #200
 1440 073a FFF7FEFF 		bl	chThdSleep
 1441              		.loc 1 551 0
 1442 073e 174B     		ldr	r3, .L83+4
 1443 0740 4FF40052 		mov	r2, #8192
 1444 0744 1A83     		strh	r2, [r3, #24]	@ movhi
 1445              		.loc 1 552 0
 1446 0746 4FF4FA70 		mov	r0, #500
 1447 074a FFF7FEFF 		bl	chThdSleep
 1448              		.loc 1 553 0
 1449 074e 22E0     		b	.L75
 1450              	.L79:
 1451              		.loc 1 555 0
 1452 0750 124A     		ldr	r2, .L83+4
 1453 0752 124B     		ldr	r3, .L83+4
 1454 0754 5B69     		ldr	r3, [r3, #20]
 1455 0756 83F40053 		eor	r3, r3, #8192
 1456 075a 5361     		str	r3, [r2, #20]
 1457              		.loc 1 556 0
 1458 075c 6420     		movs	r0, #100
 1459 075e FFF7FEFF 		bl	chThdSleep
 1460              		.loc 1 557 0
 1461 0762 18E0     		b	.L75
 1462              	.L80:
 1463              		.loc 1 559 0
 1464 0764 0D4A     		ldr	r2, .L83+4
 1465 0766 0D4B     		ldr	r3, .L83+4
 1466 0768 5B69     		ldr	r3, [r3, #20]
 1467 076a 83F40053 		eor	r3, r3, #8192
 1468 076e 5361     		str	r3, [r2, #20]
 1469              		.loc 1 560 0
ARM GAS  /tmp/cc1zpTEh.s 			page 27


 1470 0770 4FF4FA70 		mov	r0, #500
 1471 0774 FFF7FEFF 		bl	chThdSleep
 1472              		.loc 1 561 0
 1473 0778 0DE0     		b	.L75
 1474              	.L77:
 1475              		.loc 1 563 0
 1476 077a 084A     		ldr	r2, .L83+4
 1477 077c 074B     		ldr	r3, .L83+4
 1478 077e 5B69     		ldr	r3, [r3, #20]
 1479 0780 83F40053 		eor	r3, r3, #8192
 1480 0784 5361     		str	r3, [r2, #20]
 1481              		.loc 1 564 0
 1482 0786 C820     		movs	r0, #200
 1483 0788 FFF7FEFF 		bl	chThdSleep
 1484              		.loc 1 565 0
 1485 078c 03E0     		b	.L75
 1486              	.L76:
 1487              		.loc 1 567 0
 1488 078e 6420     		movs	r0, #100
 1489 0790 FFF7FEFF 		bl	chThdSleep
 1490              		.loc 1 568 0
 1491 0794 00BF     		nop
 1492              	.L75:
 1493              		.loc 1 571 0
 1494 0796 08BD     		pop	{r3, pc}
 1495              	.L84:
 1496              		.align	2
 1497              	.L83:
 1498 0798 00000000 		.word	RTCAND1
 1499 079c 00080048 		.word	1207961600
 1500              		.cfi_endproc
 1501              	.LFE134:
 1502              		.size	rtcan_blinker, .-rtcan_blinker
 1503              	.Letext0:
 1504              		.file 2 "/opt/R2P/tools/gcc-arm-none-eabi-4_9-2014q4/arm-none-eabi/include/machine/_default_types.
 1505              		.file 3 "/opt/R2P/tools/gcc-arm-none-eabi-4_9-2014q4/arm-none-eabi/include/stdint.h"
 1506              		.file 4 "/opt/R2P/core/ChibiOS_2.6.5/os/ports/GCC/ARMCMx/chtypes.h"
 1507              		.file 5 "/opt/R2P/core/ChibiOS_2.6.5/os/kernel/include/chvt.h"
 1508              		.file 6 "/opt/R2P/core/ChibiOS_2.6.5/os/hal/platforms/STM32F30x/stm32f30x.h"
 1509              		.file 7 "/opt/R2P/core/ChibiOS_2.6.5/os/hal/platforms/STM32/GPIOv2/pal_lld.h"
 1510              		.file 8 "/opt/R2P/core/RTCAN/include/rtcan.h"
 1511              		.file 9 "/opt/R2P/core/RTCAN/include/msgqueue.h"
 1512              		.file 10 "/opt/R2P/core/ChibiOS_2.6.5/os/ports/common/ARMCMx/CMSIS/include/core_cm4.h"
 1513              		.file 11 "/opt/R2P/core/RTCAN/platforms/STM32/rtcan_lld_can.h"