ARM GAS  /tmp/ccjEDt8f.s 			page 1


   1              		.syntax unified
   2              		.cpu cortex-m4
   3              		.fpu softvfp
   4              		.eabi_attribute 20, 1
   5              		.eabi_attribute 21, 1
   6              		.eabi_attribute 23, 3
   7              		.eabi_attribute 24, 1
   8              		.eabi_attribute 25, 1
   9              		.eabi_attribute 26, 1
  10              		.eabi_attribute 30, 6
  11              		.eabi_attribute 34, 1
  12              		.eabi_attribute 18, 4
  13              		.thumb
  14              		.file	"serial.c"
  15              		.text
  16              	.Ltext0:
  17              		.cfi_sections	.debug_frame
  18              		.align	2
  19              		.thumb
  20              		.thumb_func
  21              		.type	write, %function
  22              	write:
  23              	.LFB118:
  24              		.file 1 "/opt/R2P/core/ChibiOS_2.6.5/os/hal/src/serial.c"
  25              		.loc 1 62 0
  26              		.cfi_startproc
  27              		@ args = 0, pretend = 0, frame = 16
  28              		@ frame_needed = 0, uses_anonymous_args = 0
  29 0000 00B5     		push	{lr}
  30              		.cfi_def_cfa_offset 4
  31              		.cfi_offset 14, -4
  32 0002 85B0     		sub	sp, sp, #20
  33              		.cfi_def_cfa_offset 24
  34 0004 0390     		str	r0, [sp, #12]
  35 0006 0291     		str	r1, [sp, #8]
  36 0008 0192     		str	r2, [sp, #4]
  37              		.loc 1 64 0
  38 000a 039B     		ldr	r3, [sp, #12]
  39 000c 3033     		adds	r3, r3, #48
  40 000e 1846     		mov	r0, r3
  41 0010 0299     		ldr	r1, [sp, #8]
  42 0012 019A     		ldr	r2, [sp, #4]
  43 0014 4FF0FF33 		mov	r3, #-1
  44 0018 FFF7FEFF 		bl	chOQWriteTimeout
  45 001c 0346     		mov	r3, r0
  46              		.loc 1 66 0
  47 001e 1846     		mov	r0, r3
  48 0020 05B0     		add	sp, sp, #20
  49              		.cfi_def_cfa_offset 4
  50              		@ sp needed
  51 0022 5DF804FB 		ldr	pc, [sp], #4
  52              		.cfi_endproc
  53              	.LFE118:
  54              		.size	write, .-write
  55 0026 00BF     		.align	2
  56              		.thumb
  57              		.thumb_func
ARM GAS  /tmp/ccjEDt8f.s 			page 2


  58              		.type	read, %function
  59              	read:
  60              	.LFB119:
  61              		.loc 1 68 0
  62              		.cfi_startproc
  63              		@ args = 0, pretend = 0, frame = 16
  64              		@ frame_needed = 0, uses_anonymous_args = 0
  65 0028 00B5     		push	{lr}
  66              		.cfi_def_cfa_offset 4
  67              		.cfi_offset 14, -4
  68 002a 85B0     		sub	sp, sp, #20
  69              		.cfi_def_cfa_offset 24
  70 002c 0390     		str	r0, [sp, #12]
  71 002e 0291     		str	r1, [sp, #8]
  72 0030 0192     		str	r2, [sp, #4]
  73              		.loc 1 70 0
  74 0032 039B     		ldr	r3, [sp, #12]
  75 0034 0C33     		adds	r3, r3, #12
  76 0036 1846     		mov	r0, r3
  77 0038 0299     		ldr	r1, [sp, #8]
  78 003a 019A     		ldr	r2, [sp, #4]
  79 003c 4FF0FF33 		mov	r3, #-1
  80 0040 FFF7FEFF 		bl	chIQReadTimeout
  81 0044 0346     		mov	r3, r0
  82              		.loc 1 72 0
  83 0046 1846     		mov	r0, r3
  84 0048 05B0     		add	sp, sp, #20
  85              		.cfi_def_cfa_offset 4
  86              		@ sp needed
  87 004a 5DF804FB 		ldr	pc, [sp], #4
  88              		.cfi_endproc
  89              	.LFE119:
  90              		.size	read, .-read
  91 004e 00BF     		.align	2
  92              		.thumb
  93              		.thumb_func
  94              		.type	put, %function
  95              	put:
  96              	.LFB120:
  97              		.loc 1 74 0
  98              		.cfi_startproc
  99              		@ args = 0, pretend = 0, frame = 8
 100              		@ frame_needed = 0, uses_anonymous_args = 0
 101 0050 00B5     		push	{lr}
 102              		.cfi_def_cfa_offset 4
 103              		.cfi_offset 14, -4
 104 0052 83B0     		sub	sp, sp, #12
 105              		.cfi_def_cfa_offset 16
 106 0054 0190     		str	r0, [sp, #4]
 107 0056 0B46     		mov	r3, r1
 108 0058 8DF80330 		strb	r3, [sp, #3]
 109              		.loc 1 76 0
 110 005c 019B     		ldr	r3, [sp, #4]
 111 005e 03F13002 		add	r2, r3, #48
 112 0062 9DF80330 		ldrb	r3, [sp, #3]	@ zero_extendqisi2
 113 0066 1046     		mov	r0, r2
 114 0068 1946     		mov	r1, r3
ARM GAS  /tmp/ccjEDt8f.s 			page 3


 115 006a 4FF0FF32 		mov	r2, #-1
 116 006e FFF7FEFF 		bl	chOQPutTimeout
 117 0072 0346     		mov	r3, r0
 118              		.loc 1 77 0
 119 0074 1846     		mov	r0, r3
 120 0076 03B0     		add	sp, sp, #12
 121              		.cfi_def_cfa_offset 4
 122              		@ sp needed
 123 0078 5DF804FB 		ldr	pc, [sp], #4
 124              		.cfi_endproc
 125              	.LFE120:
 126              		.size	put, .-put
 127              		.align	2
 128              		.thumb
 129              		.thumb_func
 130              		.type	get, %function
 131              	get:
 132              	.LFB121:
 133              		.loc 1 79 0
 134              		.cfi_startproc
 135              		@ args = 0, pretend = 0, frame = 8
 136              		@ frame_needed = 0, uses_anonymous_args = 0
 137 007c 00B5     		push	{lr}
 138              		.cfi_def_cfa_offset 4
 139              		.cfi_offset 14, -4
 140 007e 83B0     		sub	sp, sp, #12
 141              		.cfi_def_cfa_offset 16
 142 0080 0190     		str	r0, [sp, #4]
 143              		.loc 1 81 0
 144 0082 019B     		ldr	r3, [sp, #4]
 145 0084 0C33     		adds	r3, r3, #12
 146 0086 1846     		mov	r0, r3
 147 0088 4FF0FF31 		mov	r1, #-1
 148 008c FFF7FEFF 		bl	chIQGetTimeout
 149 0090 0346     		mov	r3, r0
 150              		.loc 1 82 0
 151 0092 1846     		mov	r0, r3
 152 0094 03B0     		add	sp, sp, #12
 153              		.cfi_def_cfa_offset 4
 154              		@ sp needed
 155 0096 5DF804FB 		ldr	pc, [sp], #4
 156              		.cfi_endproc
 157              	.LFE121:
 158              		.size	get, .-get
 159 009a 00BF     		.align	2
 160              		.thumb
 161              		.thumb_func
 162              		.type	putt, %function
 163              	putt:
 164              	.LFB122:
 165              		.loc 1 84 0
 166              		.cfi_startproc
 167              		@ args = 0, pretend = 0, frame = 16
 168              		@ frame_needed = 0, uses_anonymous_args = 0
 169 009c 00B5     		push	{lr}
 170              		.cfi_def_cfa_offset 4
 171              		.cfi_offset 14, -4
ARM GAS  /tmp/ccjEDt8f.s 			page 4


 172 009e 85B0     		sub	sp, sp, #20
 173              		.cfi_def_cfa_offset 24
 174 00a0 0390     		str	r0, [sp, #12]
 175 00a2 0B46     		mov	r3, r1
 176 00a4 0192     		str	r2, [sp, #4]
 177 00a6 8DF80B30 		strb	r3, [sp, #11]
 178              		.loc 1 86 0
 179 00aa 039B     		ldr	r3, [sp, #12]
 180 00ac 03F13002 		add	r2, r3, #48
 181 00b0 9DF80B30 		ldrb	r3, [sp, #11]	@ zero_extendqisi2
 182 00b4 1046     		mov	r0, r2
 183 00b6 1946     		mov	r1, r3
 184 00b8 019A     		ldr	r2, [sp, #4]
 185 00ba FFF7FEFF 		bl	chOQPutTimeout
 186 00be 0346     		mov	r3, r0
 187              		.loc 1 87 0
 188 00c0 1846     		mov	r0, r3
 189 00c2 05B0     		add	sp, sp, #20
 190              		.cfi_def_cfa_offset 4
 191              		@ sp needed
 192 00c4 5DF804FB 		ldr	pc, [sp], #4
 193              		.cfi_endproc
 194              	.LFE122:
 195              		.size	putt, .-putt
 196              		.align	2
 197              		.thumb
 198              		.thumb_func
 199              		.type	gett, %function
 200              	gett:
 201              	.LFB123:
 202              		.loc 1 89 0
 203              		.cfi_startproc
 204              		@ args = 0, pretend = 0, frame = 8
 205              		@ frame_needed = 0, uses_anonymous_args = 0
 206 00c8 00B5     		push	{lr}
 207              		.cfi_def_cfa_offset 4
 208              		.cfi_offset 14, -4
 209 00ca 83B0     		sub	sp, sp, #12
 210              		.cfi_def_cfa_offset 16
 211 00cc 0190     		str	r0, [sp, #4]
 212 00ce 0091     		str	r1, [sp]
 213              		.loc 1 91 0
 214 00d0 019B     		ldr	r3, [sp, #4]
 215 00d2 0C33     		adds	r3, r3, #12
 216 00d4 1846     		mov	r0, r3
 217 00d6 0099     		ldr	r1, [sp]
 218 00d8 FFF7FEFF 		bl	chIQGetTimeout
 219 00dc 0346     		mov	r3, r0
 220              		.loc 1 92 0
 221 00de 1846     		mov	r0, r3
 222 00e0 03B0     		add	sp, sp, #12
 223              		.cfi_def_cfa_offset 4
 224              		@ sp needed
 225 00e2 5DF804FB 		ldr	pc, [sp], #4
 226              		.cfi_endproc
 227              	.LFE123:
 228              		.size	gett, .-gett
ARM GAS  /tmp/ccjEDt8f.s 			page 5


 229 00e6 00BF     		.align	2
 230              		.thumb
 231              		.thumb_func
 232              		.type	writet, %function
 233              	writet:
 234              	.LFB124:
 235              		.loc 1 94 0
 236              		.cfi_startproc
 237              		@ args = 0, pretend = 0, frame = 16
 238              		@ frame_needed = 0, uses_anonymous_args = 0
 239 00e8 00B5     		push	{lr}
 240              		.cfi_def_cfa_offset 4
 241              		.cfi_offset 14, -4
 242 00ea 85B0     		sub	sp, sp, #20
 243              		.cfi_def_cfa_offset 24
 244 00ec 0390     		str	r0, [sp, #12]
 245 00ee 0291     		str	r1, [sp, #8]
 246 00f0 0192     		str	r2, [sp, #4]
 247 00f2 0093     		str	r3, [sp]
 248              		.loc 1 96 0
 249 00f4 039B     		ldr	r3, [sp, #12]
 250 00f6 3033     		adds	r3, r3, #48
 251 00f8 1846     		mov	r0, r3
 252 00fa 0299     		ldr	r1, [sp, #8]
 253 00fc 019A     		ldr	r2, [sp, #4]
 254 00fe 009B     		ldr	r3, [sp]
 255 0100 FFF7FEFF 		bl	chOQWriteTimeout
 256 0104 0346     		mov	r3, r0
 257              		.loc 1 97 0
 258 0106 1846     		mov	r0, r3
 259 0108 05B0     		add	sp, sp, #20
 260              		.cfi_def_cfa_offset 4
 261              		@ sp needed
 262 010a 5DF804FB 		ldr	pc, [sp], #4
 263              		.cfi_endproc
 264              	.LFE124:
 265              		.size	writet, .-writet
 266 010e 00BF     		.align	2
 267              		.thumb
 268              		.thumb_func
 269              		.type	readt, %function
 270              	readt:
 271              	.LFB125:
 272              		.loc 1 99 0
 273              		.cfi_startproc
 274              		@ args = 0, pretend = 0, frame = 16
 275              		@ frame_needed = 0, uses_anonymous_args = 0
 276 0110 00B5     		push	{lr}
 277              		.cfi_def_cfa_offset 4
 278              		.cfi_offset 14, -4
 279 0112 85B0     		sub	sp, sp, #20
 280              		.cfi_def_cfa_offset 24
 281 0114 0390     		str	r0, [sp, #12]
 282 0116 0291     		str	r1, [sp, #8]
 283 0118 0192     		str	r2, [sp, #4]
 284 011a 0093     		str	r3, [sp]
 285              		.loc 1 101 0
ARM GAS  /tmp/ccjEDt8f.s 			page 6


 286 011c 039B     		ldr	r3, [sp, #12]
 287 011e 0C33     		adds	r3, r3, #12
 288 0120 1846     		mov	r0, r3
 289 0122 0299     		ldr	r1, [sp, #8]
 290 0124 019A     		ldr	r2, [sp, #4]
 291 0126 009B     		ldr	r3, [sp]
 292 0128 FFF7FEFF 		bl	chIQReadTimeout
 293 012c 0346     		mov	r3, r0
 294              		.loc 1 102 0
 295 012e 1846     		mov	r0, r3
 296 0130 05B0     		add	sp, sp, #20
 297              		.cfi_def_cfa_offset 4
 298              		@ sp needed
 299 0132 5DF804FB 		ldr	pc, [sp], #4
 300              		.cfi_endproc
 301              	.LFE125:
 302              		.size	readt, .-readt
 303              		.section	.rodata
 304              		.align	2
 305              		.type	vmt, %object
 306              		.size	vmt, 32
 307              	vmt:
 308 0000 00000000 		.word	write
 309 0004 00000000 		.word	read
 310 0008 00000000 		.word	put
 311 000c 00000000 		.word	get
 312 0010 00000000 		.word	putt
 313 0014 00000000 		.word	gett
 314 0018 00000000 		.word	writet
 315 001c 00000000 		.word	readt
 316              		.text
 317 0136 00BF     		.align	2
 318              		.global	sdInit
 319              		.thumb
 320              		.thumb_func
 321              		.type	sdInit, %function
 322              	sdInit:
 323              	.LFB126:
 324              		.loc 1 120 0
 325              		.cfi_startproc
 326              		@ args = 0, pretend = 0, frame = 0
 327              		@ frame_needed = 0, uses_anonymous_args = 0
 328 0138 08B5     		push	{r3, lr}
 329              		.cfi_def_cfa_offset 8
 330              		.cfi_offset 3, -8
 331              		.cfi_offset 14, -4
 332              		.loc 1 122 0
 333 013a FFF7FEFF 		bl	sd_lld_init
 334              		.loc 1 123 0
 335 013e 08BD     		pop	{r3, pc}
 336              		.cfi_endproc
 337              	.LFE126:
 338              		.size	sdInit, .-sdInit
 339              		.align	2
 340              		.global	sdObjectInit
 341              		.thumb
 342              		.thumb_func
ARM GAS  /tmp/ccjEDt8f.s 			page 7


 343              		.type	sdObjectInit, %function
 344              	sdObjectInit:
 345              	.LFB127:
 346              		.loc 1 140 0
 347              		.cfi_startproc
 348              		@ args = 0, pretend = 0, frame = 16
 349              		@ frame_needed = 0, uses_anonymous_args = 0
 350 0140 00B5     		push	{lr}
 351              		.cfi_def_cfa_offset 4
 352              		.cfi_offset 14, -4
 353 0142 87B0     		sub	sp, sp, #28
 354              		.cfi_def_cfa_offset 32
 355 0144 0590     		str	r0, [sp, #20]
 356 0146 0491     		str	r1, [sp, #16]
 357 0148 0392     		str	r2, [sp, #12]
 358              		.loc 1 142 0
 359 014a 059B     		ldr	r3, [sp, #20]
 360 014c 144A     		ldr	r2, .L19
 361 014e 1A60     		str	r2, [r3]
 362              		.loc 1 143 0
 363 0150 059B     		ldr	r3, [sp, #20]
 364 0152 1A1D     		adds	r2, r3, #4
 365 0154 059B     		ldr	r3, [sp, #20]
 366 0156 5A60     		str	r2, [r3, #4]
 367              		.loc 1 144 0
 368 0158 059B     		ldr	r3, [sp, #20]
 369 015a 0122     		movs	r2, #1
 370 015c 1A72     		strb	r2, [r3, #8]
 371              		.loc 1 145 0
 372 015e 059B     		ldr	r3, [sp, #20]
 373 0160 03F10C01 		add	r1, r3, #12
 374 0164 059B     		ldr	r3, [sp, #20]
 375 0166 03F15402 		add	r2, r3, #84
 376 016a 059B     		ldr	r3, [sp, #20]
 377 016c 0093     		str	r3, [sp]
 378 016e 0846     		mov	r0, r1
 379 0170 1146     		mov	r1, r2
 380 0172 4FF48072 		mov	r2, #256
 381 0176 049B     		ldr	r3, [sp, #16]
 382 0178 FFF7FEFF 		bl	chIQInit
 383              		.loc 1 146 0
 384 017c 059B     		ldr	r3, [sp, #20]
 385 017e 03F13001 		add	r1, r3, #48
 386 0182 059B     		ldr	r3, [sp, #20]
 387 0184 03F5AA72 		add	r2, r3, #340
 388 0188 059B     		ldr	r3, [sp, #20]
 389 018a 0093     		str	r3, [sp]
 390 018c 0846     		mov	r0, r1
 391 018e 1146     		mov	r1, r2
 392 0190 4FF48072 		mov	r2, #256
 393 0194 039B     		ldr	r3, [sp, #12]
 394 0196 FFF7FEFF 		bl	chOQInit
 395              		.loc 1 147 0
 396 019a 07B0     		add	sp, sp, #28
 397              		.cfi_def_cfa_offset 4
 398              		@ sp needed
 399 019c 5DF804FB 		ldr	pc, [sp], #4
ARM GAS  /tmp/ccjEDt8f.s 			page 8


 400              	.L20:
 401              		.align	2
 402              	.L19:
 403 01a0 00000000 		.word	vmt
 404              		.cfi_endproc
 405              	.LFE127:
 406              		.size	sdObjectInit, .-sdObjectInit
 407              		.section	.rodata
 408              		.align	2
 409              	.LC0:
 410 0020 22736453 		.ascii	"\"sdStart\"()\000"
 410      74617274 
 410      22282900 
 411              		.align	2
 412              	.LC1:
 413 002c 73645374 		.ascii	"sdStart(), #1\000"
 413      61727428 
 413      292C2023 
 413      3100
 414              		.text
 415              		.align	2
 416              		.global	sdStart
 417              		.thumb
 418              		.thumb_func
 419              		.type	sdStart, %function
 420              	sdStart:
 421              	.LFB128:
 422              		.loc 1 159 0
 423              		.cfi_startproc
 424              		@ args = 0, pretend = 0, frame = 8
 425              		@ frame_needed = 0, uses_anonymous_args = 0
 426 01a4 00B5     		push	{lr}
 427              		.cfi_def_cfa_offset 4
 428              		.cfi_offset 14, -4
 429 01a6 83B0     		sub	sp, sp, #12
 430              		.cfi_def_cfa_offset 16
 431 01a8 0190     		str	r0, [sp, #4]
 432 01aa 0091     		str	r1, [sp]
 433              		.loc 1 161 0
 434 01ac 019B     		ldr	r3, [sp, #4]
 435 01ae 002B     		cmp	r3, #0
 436 01b0 02D1     		bne	.L22
 437              		.loc 1 161 0 is_stmt 0 discriminator 1
 438 01b2 1148     		ldr	r0, .L24
 439 01b4 FFF7FEFF 		bl	chDbgPanic
 440              	.L22:
 441              	.LBB2:
 442              		.loc 1 163 0 is_stmt 1
 443 01b8 2023     		movs	r3, #32
 444              	@ 163 "/opt/R2P/core/ChibiOS_2.6.5/os/hal/src/serial.c" 1
 445 01ba 83F31188 		msr     BASEPRI, r3
 446              	@ 0 "" 2
 447              		.thumb
 448              	.LBE2:
 449 01be FFF7FEFF 		bl	dbg_check_lock
 450              		.loc 1 164 0
 451 01c2 019B     		ldr	r3, [sp, #4]
ARM GAS  /tmp/ccjEDt8f.s 			page 9


 452 01c4 1B7A     		ldrb	r3, [r3, #8]	@ zero_extendqisi2
 453 01c6 012B     		cmp	r3, #1
 454 01c8 06D0     		beq	.L23
 455              		.loc 1 164 0 is_stmt 0 discriminator 1
 456 01ca 019B     		ldr	r3, [sp, #4]
 457 01cc 1B7A     		ldrb	r3, [r3, #8]	@ zero_extendqisi2
 458 01ce 022B     		cmp	r3, #2
 459 01d0 02D0     		beq	.L23
 460              		.loc 1 164 0 discriminator 2
 461 01d2 0A48     		ldr	r0, .L24+4
 462 01d4 FFF7FEFF 		bl	chDbgPanic
 463              	.L23:
 464              		.loc 1 167 0 is_stmt 1
 465 01d8 0198     		ldr	r0, [sp, #4]
 466 01da 0099     		ldr	r1, [sp]
 467 01dc FFF7FEFF 		bl	sd_lld_start
 468              		.loc 1 168 0
 469 01e0 019B     		ldr	r3, [sp, #4]
 470 01e2 0222     		movs	r2, #2
 471 01e4 1A72     		strb	r2, [r3, #8]
 472              		.loc 1 169 0
 473 01e6 FFF7FEFF 		bl	dbg_check_unlock
 474              	.LBB3:
 475 01ea 0023     		movs	r3, #0
 476              	@ 169 "/opt/R2P/core/ChibiOS_2.6.5/os/hal/src/serial.c" 1
 477 01ec 83F31188 		msr     BASEPRI, r3
 478              	@ 0 "" 2
 479              		.thumb
 480              	.LBE3:
 481              		.loc 1 170 0
 482 01f0 03B0     		add	sp, sp, #12
 483              		.cfi_def_cfa_offset 4
 484              		@ sp needed
 485 01f2 5DF804FB 		ldr	pc, [sp], #4
 486              	.L25:
 487 01f6 00BF     		.align	2
 488              	.L24:
 489 01f8 20000000 		.word	.LC0
 490 01fc 2C000000 		.word	.LC1
 491              		.cfi_endproc
 492              	.LFE128:
 493              		.size	sdStart, .-sdStart
 494              		.section	.rodata
 495 003a 0000     		.align	2
 496              	.LC2:
 497 003c 22736453 		.ascii	"\"sdStop\"()\000"
 497      746F7022 
 497      282900
 498 0047 00       		.align	2
 499              	.LC3:
 500 0048 73645374 		.ascii	"sdStop(), #1\000"
 500      6F702829 
 500      2C202331 
 500      00
 501              		.text
 502              		.align	2
 503              		.global	sdStop
ARM GAS  /tmp/ccjEDt8f.s 			page 10


 504              		.thumb
 505              		.thumb_func
 506              		.type	sdStop, %function
 507              	sdStop:
 508              	.LFB129:
 509              		.loc 1 181 0
 510              		.cfi_startproc
 511              		@ args = 0, pretend = 0, frame = 8
 512              		@ frame_needed = 0, uses_anonymous_args = 0
 513 0200 00B5     		push	{lr}
 514              		.cfi_def_cfa_offset 4
 515              		.cfi_offset 14, -4
 516 0202 83B0     		sub	sp, sp, #12
 517              		.cfi_def_cfa_offset 16
 518 0204 0190     		str	r0, [sp, #4]
 519              		.loc 1 183 0
 520 0206 019B     		ldr	r3, [sp, #4]
 521 0208 002B     		cmp	r3, #0
 522 020a 02D1     		bne	.L27
 523              		.loc 1 183 0 is_stmt 0 discriminator 1
 524 020c 1648     		ldr	r0, .L29
 525 020e FFF7FEFF 		bl	chDbgPanic
 526              	.L27:
 527              	.LBB4:
 528              		.loc 1 185 0 is_stmt 1
 529 0212 2023     		movs	r3, #32
 530              	@ 185 "/opt/R2P/core/ChibiOS_2.6.5/os/hal/src/serial.c" 1
 531 0214 83F31188 		msr     BASEPRI, r3
 532              	@ 0 "" 2
 533              		.thumb
 534              	.LBE4:
 535 0218 FFF7FEFF 		bl	dbg_check_lock
 536              		.loc 1 186 0
 537 021c 019B     		ldr	r3, [sp, #4]
 538 021e 1B7A     		ldrb	r3, [r3, #8]	@ zero_extendqisi2
 539 0220 012B     		cmp	r3, #1
 540 0222 06D0     		beq	.L28
 541              		.loc 1 186 0 is_stmt 0 discriminator 1
 542 0224 019B     		ldr	r3, [sp, #4]
 543 0226 1B7A     		ldrb	r3, [r3, #8]	@ zero_extendqisi2
 544 0228 022B     		cmp	r3, #2
 545 022a 02D0     		beq	.L28
 546              		.loc 1 186 0 discriminator 2
 547 022c 0F48     		ldr	r0, .L29+4
 548 022e FFF7FEFF 		bl	chDbgPanic
 549              	.L28:
 550              		.loc 1 189 0 is_stmt 1
 551 0232 0198     		ldr	r0, [sp, #4]
 552 0234 FFF7FEFF 		bl	sd_lld_stop
 553              		.loc 1 190 0
 554 0238 019B     		ldr	r3, [sp, #4]
 555 023a 0122     		movs	r2, #1
 556 023c 1A72     		strb	r2, [r3, #8]
 557              		.loc 1 191 0
 558 023e 019B     		ldr	r3, [sp, #4]
 559 0240 3033     		adds	r3, r3, #48
 560 0242 1846     		mov	r0, r3
ARM GAS  /tmp/ccjEDt8f.s 			page 11


 561 0244 FFF7FEFF 		bl	chOQResetI
 562              		.loc 1 192 0
 563 0248 019B     		ldr	r3, [sp, #4]
 564 024a 0C33     		adds	r3, r3, #12
 565 024c 1846     		mov	r0, r3
 566 024e FFF7FEFF 		bl	chIQResetI
 567              		.loc 1 193 0
 568 0252 FFF7FEFF 		bl	chSchRescheduleS
 569              		.loc 1 194 0
 570 0256 FFF7FEFF 		bl	dbg_check_unlock
 571              	.LBB5:
 572 025a 0023     		movs	r3, #0
 573              	@ 194 "/opt/R2P/core/ChibiOS_2.6.5/os/hal/src/serial.c" 1
 574 025c 83F31188 		msr     BASEPRI, r3
 575              	@ 0 "" 2
 576              		.thumb
 577              	.LBE5:
 578              		.loc 1 195 0
 579 0260 03B0     		add	sp, sp, #12
 580              		.cfi_def_cfa_offset 4
 581              		@ sp needed
 582 0262 5DF804FB 		ldr	pc, [sp], #4
 583              	.L30:
 584 0266 00BF     		.align	2
 585              	.L29:
 586 0268 3C000000 		.word	.LC2
 587 026c 48000000 		.word	.LC3
 588              		.cfi_endproc
 589              	.LFE129:
 590              		.size	sdStop, .-sdStop
 591              		.section	.rodata
 592 0055 000000   		.align	2
 593              	.LC4:
 594 0058 22736449 		.ascii	"\"sdIncomingDataI\"()\000"
 594      6E636F6D 
 594      696E6744 
 594      61746149 
 594      22282900 
 595              		.text
 596              		.align	2
 597              		.global	sdIncomingDataI
 598              		.thumb
 599              		.thumb_func
 600              		.type	sdIncomingDataI, %function
 601              	sdIncomingDataI:
 602              	.LFB130:
 603              		.loc 1 213 0
 604              		.cfi_startproc
 605              		@ args = 0, pretend = 0, frame = 8
 606              		@ frame_needed = 0, uses_anonymous_args = 0
 607 0270 00B5     		push	{lr}
 608              		.cfi_def_cfa_offset 4
 609              		.cfi_offset 14, -4
 610 0272 83B0     		sub	sp, sp, #12
 611              		.cfi_def_cfa_offset 16
 612 0274 0190     		str	r0, [sp, #4]
 613 0276 0B46     		mov	r3, r1
ARM GAS  /tmp/ccjEDt8f.s 			page 12


 614 0278 8DF80330 		strb	r3, [sp, #3]
 615              		.loc 1 215 0
 616 027c FFF7FEFF 		bl	chDbgCheckClassI
 617              		.loc 1 216 0
 618 0280 019B     		ldr	r3, [sp, #4]
 619 0282 002B     		cmp	r3, #0
 620 0284 02D1     		bne	.L32
 621              		.loc 1 216 0 is_stmt 0 discriminator 1
 622 0286 1148     		ldr	r0, .L35
 623 0288 FFF7FEFF 		bl	chDbgPanic
 624              	.L32:
 625              		.loc 1 218 0 is_stmt 1
 626 028c 019B     		ldr	r3, [sp, #4]
 627 028e 5B69     		ldr	r3, [r3, #20]
 628 0290 002B     		cmp	r3, #0
 629 0292 05D1     		bne	.L33
 630              		.loc 1 219 0
 631 0294 019B     		ldr	r3, [sp, #4]
 632 0296 0433     		adds	r3, r3, #4
 633 0298 1846     		mov	r0, r3
 634 029a 0421     		movs	r1, #4
 635 029c FFF7FEFF 		bl	chEvtBroadcastFlagsI
 636              	.L33:
 637              		.loc 1 220 0
 638 02a0 019B     		ldr	r3, [sp, #4]
 639 02a2 03F10C02 		add	r2, r3, #12
 640 02a6 9DF80330 		ldrb	r3, [sp, #3]	@ zero_extendqisi2
 641 02aa 1046     		mov	r0, r2
 642 02ac 1946     		mov	r1, r3
 643 02ae FFF7FEFF 		bl	chIQPutI
 644 02b2 0346     		mov	r3, r0
 645 02b4 002B     		cmp	r3, #0
 646 02b6 05DA     		bge	.L31
 647              		.loc 1 221 0
 648 02b8 019B     		ldr	r3, [sp, #4]
 649 02ba 0433     		adds	r3, r3, #4
 650 02bc 1846     		mov	r0, r3
 651 02be 8021     		movs	r1, #128
 652 02c0 FFF7FEFF 		bl	chEvtBroadcastFlagsI
 653              	.L31:
 654              		.loc 1 222 0
 655 02c4 03B0     		add	sp, sp, #12
 656              		.cfi_def_cfa_offset 4
 657              		@ sp needed
 658 02c6 5DF804FB 		ldr	pc, [sp], #4
 659              	.L36:
 660 02ca 00BF     		.align	2
 661              	.L35:
 662 02cc 58000000 		.word	.LC4
 663              		.cfi_endproc
 664              	.LFE130:
 665              		.size	sdIncomingDataI, .-sdIncomingDataI
 666              		.section	.rodata
 667              		.align	2
 668              	.LC5:
 669 006c 22736452 		.ascii	"\"sdRequestDataI\"()\000"
 669      65717565 
ARM GAS  /tmp/ccjEDt8f.s 			page 13


 669      73744461 
 669      74614922 
 669      282900
 670 007f 00       		.text
 671              		.align	2
 672              		.global	sdRequestDataI
 673              		.thumb
 674              		.thumb_func
 675              		.type	sdRequestDataI, %function
 676              	sdRequestDataI:
 677              	.LFB131:
 678              		.loc 1 239 0
 679              		.cfi_startproc
 680              		@ args = 0, pretend = 0, frame = 16
 681              		@ frame_needed = 0, uses_anonymous_args = 0
 682 02d0 00B5     		push	{lr}
 683              		.cfi_def_cfa_offset 4
 684              		.cfi_offset 14, -4
 685 02d2 85B0     		sub	sp, sp, #20
 686              		.cfi_def_cfa_offset 24
 687 02d4 0190     		str	r0, [sp, #4]
 688              		.loc 1 242 0
 689 02d6 FFF7FEFF 		bl	chDbgCheckClassI
 690              		.loc 1 243 0
 691 02da 019B     		ldr	r3, [sp, #4]
 692 02dc 002B     		cmp	r3, #0
 693 02de 02D1     		bne	.L38
 694              		.loc 1 243 0 is_stmt 0 discriminator 1
 695 02e0 0B48     		ldr	r0, .L41
 696 02e2 FFF7FEFF 		bl	chDbgPanic
 697              	.L38:
 698              		.loc 1 245 0 is_stmt 1
 699 02e6 019B     		ldr	r3, [sp, #4]
 700 02e8 3033     		adds	r3, r3, #48
 701 02ea 1846     		mov	r0, r3
 702 02ec FFF7FEFF 		bl	chOQGetI
 703 02f0 0390     		str	r0, [sp, #12]
 704              		.loc 1 246 0
 705 02f2 039B     		ldr	r3, [sp, #12]
 706 02f4 002B     		cmp	r3, #0
 707 02f6 05DA     		bge	.L39
 708              		.loc 1 247 0
 709 02f8 019B     		ldr	r3, [sp, #4]
 710 02fa 0433     		adds	r3, r3, #4
 711 02fc 1846     		mov	r0, r3
 712 02fe 0821     		movs	r1, #8
 713 0300 FFF7FEFF 		bl	chEvtBroadcastFlagsI
 714              	.L39:
 715              		.loc 1 248 0
 716 0304 039B     		ldr	r3, [sp, #12]
 717              		.loc 1 249 0
 718 0306 1846     		mov	r0, r3
 719 0308 05B0     		add	sp, sp, #20
 720              		.cfi_def_cfa_offset 4
 721              		@ sp needed
 722 030a 5DF804FB 		ldr	pc, [sp], #4
 723              	.L42:
ARM GAS  /tmp/ccjEDt8f.s 			page 14


 724 030e 00BF     		.align	2
 725              	.L41:
 726 0310 6C000000 		.word	.LC5
 727              		.cfi_endproc
 728              	.LFE131:
 729              		.size	sdRequestDataI, .-sdRequestDataI
 730              	.Letext0:
 731              		.file 2 "/opt/R2P/tools/gcc-arm-none-eabi-4_9-2014q4/lib/gcc/arm-none-eabi/4.9.3/include/stddef.h"
 732              		.file 3 "/opt/R2P/tools/gcc-arm-none-eabi-4_9-2014q4/arm-none-eabi/include/machine/_default_types.
 733              		.file 4 "/opt/R2P/tools/gcc-arm-none-eabi-4_9-2014q4/arm-none-eabi/include/stdint.h"
 734              		.file 5 "/opt/R2P/core/ChibiOS_2.6.5/os/ports/GCC/ARMCMx/chtypes.h"
 735              		.file 6 "/opt/R2P/core/ChibiOS_2.6.5/os/kernel/include/chlists.h"
 736              		.file 7 "/opt/R2P/core/ChibiOS_2.6.5/os/kernel/include/chthreads.h"
 737              		.file 8 "/opt/R2P/core/ChibiOS_2.6.5/os/ports/GCC/ARMCMx/chcore_v7m.h"
 738              		.file 9 "/opt/R2P/core/ChibiOS_2.6.5/os/kernel/include/chmtx.h"
 739              		.file 10 "/opt/R2P/core/ChibiOS_2.6.5/os/kernel/include/chevents.h"
 740              		.file 11 "/opt/R2P/core/ChibiOS_2.6.5/os/kernel/include/chqueues.h"
 741              		.file 12 "/opt/R2P/core/ChibiOS_2.6.5/os/hal/platforms/STM32F30x/stm32f30x.h"
 742              		.file 13 "/opt/R2P/core/ChibiOS_2.6.5/os/hal/include/serial.h"
 743              		.file 14 "/opt/R2P/core/ChibiOS_2.6.5/os/hal/platforms/STM32/USARTv2/serial_lld.h"
 744              		.file 15 "/opt/R2P/core/ChibiOS_2.6.5/os/ports/common/ARMCMx/CMSIS/include/core_cm4.h"