ARM GAS  /tmp/ccyN6WC0.s 			page 1


   1              		.syntax unified
   2              		.cpu cortex-m4
   3              		.fpu softvfp
   4              		.eabi_attribute 20, 1
   5              		.eabi_attribute 21, 1
   6              		.eabi_attribute 23, 3
   7              		.eabi_attribute 24, 1
   8              		.eabi_attribute 25, 1
   9              		.eabi_attribute 26, 1
  10              		.eabi_attribute 30, 6
  11              		.eabi_attribute 34, 1
  12              		.eabi_attribute 18, 4
  13              		.thumb
  14              		.file	"serial_lld.c"
  15              		.text
  16              	.Ltext0:
  17              		.cfi_sections	.debug_frame
  18              		.comm	SD3,604,4
  19              		.section	.rodata
  20              		.align	2
  21              		.type	default_config, %object
  22              		.size	default_config, 16
  23              	default_config:
  24 0000 00C20100 		.word	115200
  25 0004 00000000 		.word	0
  26 0008 00400000 		.word	16384
  27 000c 00000000 		.word	0
  28              		.text
  29              		.align	2
  30              		.thumb
  31              		.thumb_func
  32              		.type	usart_init, %function
  33              	usart_init:
  34              	.LFB118:
  35              		.file 1 "/opt/R2P/core/ChibiOS_2.6.5/os/hal/platforms/STM32/USARTv2/serial_lld.c"
  36              		.loc 1 92 0
  37              		.cfi_startproc
  38              		@ args = 0, pretend = 0, frame = 16
  39              		@ frame_needed = 0, uses_anonymous_args = 0
  40              		@ link register save eliminated.
  41 0000 84B0     		sub	sp, sp, #16
  42              		.cfi_def_cfa_offset 16
  43 0002 0190     		str	r0, [sp, #4]
  44 0004 0091     		str	r1, [sp]
  45              		.loc 1 93 0
  46 0006 019B     		ldr	r3, [sp, #4]
  47 0008 D3F85432 		ldr	r3, [r3, #596]
  48 000c 0393     		str	r3, [sp, #12]
  49              		.loc 1 96 0
  50 000e 019B     		ldr	r3, [sp, #4]
  51 0010 D3F85822 		ldr	r2, [r3, #600]
  52 0014 009B     		ldr	r3, [sp]
  53 0016 1B68     		ldr	r3, [r3]
  54 0018 B2FBF3F3 		udiv	r3, r2, r3
  55 001c 9AB2     		uxth	r2, r3
  56 001e 039B     		ldr	r3, [sp, #12]
  57 0020 9A81     		strh	r2, [r3, #12]	@ movhi
ARM GAS  /tmp/ccyN6WC0.s 			page 2


  58              		.loc 1 99 0
  59 0022 009B     		ldr	r3, [sp]
  60 0024 9B68     		ldr	r3, [r3, #8]
  61 0026 43F04002 		orr	r2, r3, #64
  62 002a 039B     		ldr	r3, [sp, #12]
  63 002c 5A60     		str	r2, [r3, #4]
  64              		.loc 1 100 0
  65 002e 009B     		ldr	r3, [sp]
  66 0030 DB68     		ldr	r3, [r3, #12]
  67 0032 43F00102 		orr	r2, r3, #1
  68 0036 039B     		ldr	r3, [sp, #12]
  69 0038 9A60     		str	r2, [r3, #8]
  70              		.loc 1 101 0
  71 003a 009B     		ldr	r3, [sp]
  72 003c 5B68     		ldr	r3, [r3, #4]
  73              		.loc 1 102 0
  74 003e 43F49673 		orr	r3, r3, #300
  75 0042 43F00103 		orr	r3, r3, #1
  76              		.loc 1 101 0
  77 0046 039A     		ldr	r2, [sp, #12]
  78 0048 1360     		str	r3, [r2]
  79              		.loc 1 104 0
  80 004a 039B     		ldr	r3, [sp, #12]
  81 004c 4FF0FF32 		mov	r2, #-1
  82 0050 1A62     		str	r2, [r3, #32]
  83              		.loc 1 105 0
  84 0052 04B0     		add	sp, sp, #16
  85              		.cfi_def_cfa_offset 0
  86              		@ sp needed
  87 0054 7047     		bx	lr
  88              		.cfi_endproc
  89              	.LFE118:
  90              		.size	usart_init, .-usart_init
  91 0056 00BF     		.align	2
  92              		.thumb
  93              		.thumb_func
  94              		.type	usart_deinit, %function
  95              	usart_deinit:
  96              	.LFB119:
  97              		.loc 1 113 0
  98              		.cfi_startproc
  99              		@ args = 0, pretend = 0, frame = 8
 100              		@ frame_needed = 0, uses_anonymous_args = 0
 101              		@ link register save eliminated.
 102 0058 82B0     		sub	sp, sp, #8
 103              		.cfi_def_cfa_offset 8
 104 005a 0190     		str	r0, [sp, #4]
 105              		.loc 1 115 0
 106 005c 019B     		ldr	r3, [sp, #4]
 107 005e 0022     		movs	r2, #0
 108 0060 1A60     		str	r2, [r3]
 109              		.loc 1 116 0
 110 0062 019B     		ldr	r3, [sp, #4]
 111 0064 0022     		movs	r2, #0
 112 0066 5A60     		str	r2, [r3, #4]
 113              		.loc 1 117 0
 114 0068 019B     		ldr	r3, [sp, #4]
ARM GAS  /tmp/ccyN6WC0.s 			page 3


 115 006a 0022     		movs	r2, #0
 116 006c 9A60     		str	r2, [r3, #8]
 117              		.loc 1 118 0
 118 006e 02B0     		add	sp, sp, #8
 119              		.cfi_def_cfa_offset 0
 120              		@ sp needed
 121 0070 7047     		bx	lr
 122              		.cfi_endproc
 123              	.LFE119:
 124              		.size	usart_deinit, .-usart_deinit
 125 0072 00BF     		.align	2
 126              		.thumb
 127              		.thumb_func
 128              		.type	set_error, %function
 129              	set_error:
 130              	.LFB120:
 131              		.loc 1 126 0
 132              		.cfi_startproc
 133              		@ args = 0, pretend = 0, frame = 16
 134              		@ frame_needed = 0, uses_anonymous_args = 0
 135 0074 00B5     		push	{lr}
 136              		.cfi_def_cfa_offset 4
 137              		.cfi_offset 14, -4
 138 0076 85B0     		sub	sp, sp, #20
 139              		.cfi_def_cfa_offset 24
 140 0078 0190     		str	r0, [sp, #4]
 141 007a 0091     		str	r1, [sp]
 142              		.loc 1 127 0
 143 007c 0023     		movs	r3, #0
 144 007e 0393     		str	r3, [sp, #12]
 145              		.loc 1 129 0
 146 0080 009B     		ldr	r3, [sp]
 147 0082 03F00803 		and	r3, r3, #8
 148 0086 002B     		cmp	r3, #0
 149 0088 03D0     		beq	.L4
 150              		.loc 1 130 0
 151 008a 039B     		ldr	r3, [sp, #12]
 152 008c 43F08003 		orr	r3, r3, #128
 153 0090 0393     		str	r3, [sp, #12]
 154              	.L4:
 155              		.loc 1 131 0
 156 0092 009B     		ldr	r3, [sp]
 157 0094 03F00103 		and	r3, r3, #1
 158 0098 002B     		cmp	r3, #0
 159 009a 03D0     		beq	.L5
 160              		.loc 1 132 0
 161 009c 039B     		ldr	r3, [sp, #12]
 162 009e 43F02003 		orr	r3, r3, #32
 163 00a2 0393     		str	r3, [sp, #12]
 164              	.L5:
 165              		.loc 1 133 0
 166 00a4 009B     		ldr	r3, [sp]
 167 00a6 03F00203 		and	r3, r3, #2
 168 00aa 002B     		cmp	r3, #0
 169 00ac 03D0     		beq	.L6
 170              		.loc 1 134 0
 171 00ae 039B     		ldr	r3, [sp, #12]
ARM GAS  /tmp/ccyN6WC0.s 			page 4


 172 00b0 43F04003 		orr	r3, r3, #64
 173 00b4 0393     		str	r3, [sp, #12]
 174              	.L6:
 175              		.loc 1 135 0
 176 00b6 009B     		ldr	r3, [sp]
 177 00b8 03F00403 		and	r3, r3, #4
 178 00bc 002B     		cmp	r3, #0
 179 00be 03D0     		beq	.L7
 180              		.loc 1 136 0
 181 00c0 039B     		ldr	r3, [sp, #12]
 182 00c2 43F48073 		orr	r3, r3, #256
 183 00c6 0393     		str	r3, [sp, #12]
 184              	.L7:
 185              	.LBB2:
 186              		.loc 1 137 0
 187 00c8 2023     		movs	r3, #32
 188              	@ 137 "/opt/R2P/core/ChibiOS_2.6.5/os/hal/platforms/STM32/USARTv2/serial_lld.c" 1
 189 00ca 83F31188 		msr     BASEPRI, r3
 190              	@ 0 "" 2
 191              		.thumb
 192              	.LBE2:
 193 00ce FFF7FEFF 		bl	dbg_check_lock_from_isr
 194              		.loc 1 138 0
 195 00d2 019B     		ldr	r3, [sp, #4]
 196 00d4 0433     		adds	r3, r3, #4
 197 00d6 1846     		mov	r0, r3
 198 00d8 0399     		ldr	r1, [sp, #12]
 199 00da FFF7FEFF 		bl	chEvtBroadcastFlagsI
 200              		.loc 1 139 0
 201 00de FFF7FEFF 		bl	dbg_check_unlock_from_isr
 202              	.LBB3:
 203 00e2 0023     		movs	r3, #0
 204              	@ 139 "/opt/R2P/core/ChibiOS_2.6.5/os/hal/platforms/STM32/USARTv2/serial_lld.c" 1
 205 00e4 83F31188 		msr     BASEPRI, r3
 206              	@ 0 "" 2
 207              		.thumb
 208              	.LBE3:
 209              		.loc 1 140 0
 210 00e8 05B0     		add	sp, sp, #20
 211              		.cfi_def_cfa_offset 4
 212              		@ sp needed
 213 00ea 5DF804FB 		ldr	pc, [sp], #4
 214              		.cfi_endproc
 215              	.LFE120:
 216              		.size	set_error, .-set_error
 217 00ee 00BF     		.align	2
 218              		.thumb
 219              		.thumb_func
 220              		.type	serve_interrupt, %function
 221              	serve_interrupt:
 222              	.LFB121:
 223              		.loc 1 147 0
 224              		.cfi_startproc
 225              		@ args = 0, pretend = 0, frame = 24
 226              		@ frame_needed = 0, uses_anonymous_args = 0
 227 00f0 00B5     		push	{lr}
 228              		.cfi_def_cfa_offset 4
ARM GAS  /tmp/ccyN6WC0.s 			page 5


 229              		.cfi_offset 14, -4
 230 00f2 87B0     		sub	sp, sp, #28
 231              		.cfi_def_cfa_offset 32
 232 00f4 0190     		str	r0, [sp, #4]
 233              		.loc 1 148 0
 234 00f6 019B     		ldr	r3, [sp, #4]
 235 00f8 D3F85432 		ldr	r3, [r3, #596]
 236 00fc 0593     		str	r3, [sp, #20]
 237              		.loc 1 149 0
 238 00fe 059B     		ldr	r3, [sp, #20]
 239 0100 1B68     		ldr	r3, [r3]
 240 0102 0493     		str	r3, [sp, #16]
 241              		.loc 1 153 0
 242 0104 059B     		ldr	r3, [sp, #20]
 243 0106 DB69     		ldr	r3, [r3, #28]
 244 0108 0393     		str	r3, [sp, #12]
 245              		.loc 1 154 0
 246 010a 059B     		ldr	r3, [sp, #20]
 247 010c 039A     		ldr	r2, [sp, #12]
 248 010e 1A62     		str	r2, [r3, #32]
 249              		.loc 1 157 0
 250 0110 039B     		ldr	r3, [sp, #12]
 251 0112 03F00F03 		and	r3, r3, #15
 252 0116 002B     		cmp	r3, #0
 253 0118 03D0     		beq	.L9
 254              		.loc 1 158 0
 255 011a 0198     		ldr	r0, [sp, #4]
 256 011c 0399     		ldr	r1, [sp, #12]
 257 011e FFF7A9FF 		bl	set_error
 258              	.L9:
 259              		.loc 1 161 0
 260 0122 039B     		ldr	r3, [sp, #12]
 261 0124 03F48073 		and	r3, r3, #256
 262 0128 002B     		cmp	r3, #0
 263 012a 10D0     		beq	.L10
 264              	.LBB4:
 265              		.loc 1 162 0
 266 012c 2023     		movs	r3, #32
 267              	@ 162 "/opt/R2P/core/ChibiOS_2.6.5/os/hal/platforms/STM32/USARTv2/serial_lld.c" 1
 268 012e 83F31188 		msr     BASEPRI, r3
 269              	@ 0 "" 2
 270              		.thumb
 271              	.LBE4:
 272 0132 FFF7FEFF 		bl	dbg_check_lock_from_isr
 273              		.loc 1 163 0
 274 0136 019B     		ldr	r3, [sp, #4]
 275 0138 0433     		adds	r3, r3, #4
 276 013a 1846     		mov	r0, r3
 277 013c 4FF40071 		mov	r1, #512
 278 0140 FFF7FEFF 		bl	chEvtBroadcastFlagsI
 279              		.loc 1 164 0
 280 0144 FFF7FEFF 		bl	dbg_check_unlock_from_isr
 281              	.LBB5:
 282 0148 0023     		movs	r3, #0
 283              	@ 164 "/opt/R2P/core/ChibiOS_2.6.5/os/hal/platforms/STM32/USARTv2/serial_lld.c" 1
 284 014a 83F31188 		msr     BASEPRI, r3
 285              	@ 0 "" 2
ARM GAS  /tmp/ccyN6WC0.s 			page 6


 286              		.thumb
 287              	.L10:
 288              	.LBE5:
 289              		.loc 1 168 0
 290 014e 039B     		ldr	r3, [sp, #12]
 291 0150 03F02003 		and	r3, r3, #32
 292 0154 002B     		cmp	r3, #0
 293 0156 11D0     		beq	.L11
 294              	.LBB6:
 295              		.loc 1 169 0
 296 0158 2023     		movs	r3, #32
 297              	@ 169 "/opt/R2P/core/ChibiOS_2.6.5/os/hal/platforms/STM32/USARTv2/serial_lld.c" 1
 298 015a 83F31188 		msr     BASEPRI, r3
 299              	@ 0 "" 2
 300              		.thumb
 301              	.LBE6:
 302 015e FFF7FEFF 		bl	dbg_check_lock_from_isr
 303              		.loc 1 170 0
 304 0162 059B     		ldr	r3, [sp, #20]
 305 0164 9B8C     		ldrh	r3, [r3, #36]	@ movhi
 306 0166 9BB2     		uxth	r3, r3
 307 0168 DBB2     		uxtb	r3, r3
 308 016a 0198     		ldr	r0, [sp, #4]
 309 016c 1946     		mov	r1, r3
 310 016e FFF7FEFF 		bl	sdIncomingDataI
 311              		.loc 1 171 0
 312 0172 FFF7FEFF 		bl	dbg_check_unlock_from_isr
 313              	.LBB7:
 314 0176 0023     		movs	r3, #0
 315              	@ 171 "/opt/R2P/core/ChibiOS_2.6.5/os/hal/platforms/STM32/USARTv2/serial_lld.c" 1
 316 0178 83F31188 		msr     BASEPRI, r3
 317              	@ 0 "" 2
 318              		.thumb
 319              	.L11:
 320              	.LBE7:
 321              		.loc 1 175 0
 322 017c 049B     		ldr	r3, [sp, #16]
 323 017e 03F08003 		and	r3, r3, #128
 324 0182 002B     		cmp	r3, #0
 325 0184 29D0     		beq	.L12
 326              		.loc 1 175 0 is_stmt 0 discriminator 1
 327 0186 039B     		ldr	r3, [sp, #12]
 328 0188 03F08003 		and	r3, r3, #128
 329 018c 002B     		cmp	r3, #0
 330 018e 24D0     		beq	.L12
 331              	.LBB8:
 332              	.LBB9:
 333              		.loc 1 177 0 is_stmt 1
 334 0190 2023     		movs	r3, #32
 335              	@ 177 "/opt/R2P/core/ChibiOS_2.6.5/os/hal/platforms/STM32/USARTv2/serial_lld.c" 1
 336 0192 83F31188 		msr     BASEPRI, r3
 337              	@ 0 "" 2
 338              		.thumb
 339              	.LBE9:
 340 0196 FFF7FEFF 		bl	dbg_check_lock_from_isr
 341              		.loc 1 178 0
 342 019a 019B     		ldr	r3, [sp, #4]
ARM GAS  /tmp/ccyN6WC0.s 			page 7


 343 019c 3033     		adds	r3, r3, #48
 344 019e 1846     		mov	r0, r3
 345 01a0 FFF7FEFF 		bl	chOQGetI
 346 01a4 0290     		str	r0, [sp, #8]
 347              		.loc 1 179 0
 348 01a6 029B     		ldr	r3, [sp, #8]
 349 01a8 002B     		cmp	r3, #0
 350 01aa 0DDA     		bge	.L13
 351              		.loc 1 180 0
 352 01ac 019B     		ldr	r3, [sp, #4]
 353 01ae 0433     		adds	r3, r3, #4
 354 01b0 1846     		mov	r0, r3
 355 01b2 0821     		movs	r1, #8
 356 01b4 FFF7FEFF 		bl	chEvtBroadcastFlagsI
 357              		.loc 1 181 0
 358 01b8 049B     		ldr	r3, [sp, #16]
 359 01ba 23F0C003 		bic	r3, r3, #192
 360 01be 43F04002 		orr	r2, r3, #64
 361 01c2 059B     		ldr	r3, [sp, #20]
 362 01c4 1A60     		str	r2, [r3]
 363 01c6 03E0     		b	.L14
 364              	.L13:
 365              		.loc 1 184 0
 366 01c8 029B     		ldr	r3, [sp, #8]
 367 01ca 9AB2     		uxth	r2, r3
 368 01cc 059B     		ldr	r3, [sp, #20]
 369 01ce 1A85     		strh	r2, [r3, #40]	@ movhi
 370              	.L14:
 371              		.loc 1 185 0
 372 01d0 FFF7FEFF 		bl	dbg_check_unlock_from_isr
 373              	.LBB10:
 374 01d4 0023     		movs	r3, #0
 375              	@ 185 "/opt/R2P/core/ChibiOS_2.6.5/os/hal/platforms/STM32/USARTv2/serial_lld.c" 1
 376 01d6 83F31188 		msr     BASEPRI, r3
 377              	@ 0 "" 2
 378              		.thumb
 379              	.L12:
 380              	.LBE10:
 381              	.LBE8:
 382              		.loc 1 189 0
 383 01da 039B     		ldr	r3, [sp, #12]
 384 01dc 03F04003 		and	r3, r3, #64
 385 01e0 002B     		cmp	r3, #0
 386 01e2 26D0     		beq	.L8
 387              	.LBB11:
 388              		.loc 1 190 0
 389 01e4 2023     		movs	r3, #32
 390              	@ 190 "/opt/R2P/core/ChibiOS_2.6.5/os/hal/platforms/STM32/USARTv2/serial_lld.c" 1
 391 01e6 83F31188 		msr     BASEPRI, r3
 392              	@ 0 "" 2
 393              		.thumb
 394              	.LBE11:
 395 01ea FFF7FEFF 		bl	dbg_check_lock_from_isr
 396              		.loc 1 191 0
 397 01ee 019B     		ldr	r3, [sp, #4]
 398 01f0 5A6C     		ldr	r2, [r3, #68]
 399 01f2 019B     		ldr	r3, [sp, #4]
ARM GAS  /tmp/ccyN6WC0.s 			page 8


 400 01f4 9B6C     		ldr	r3, [r3, #72]
 401 01f6 9A42     		cmp	r2, r3
 402 01f8 05D1     		bne	.L16
 403              		.loc 1 191 0 is_stmt 0 discriminator 1
 404 01fa 019B     		ldr	r3, [sp, #4]
 405 01fc 9B6B     		ldr	r3, [r3, #56]
 406 01fe 002B     		cmp	r3, #0
 407 0200 01D0     		beq	.L16
 408              		.loc 1 191 0 discriminator 3
 409 0202 0123     		movs	r3, #1
 410 0204 00E0     		b	.L17
 411              	.L16:
 412              		.loc 1 191 0 discriminator 4
 413 0206 0023     		movs	r3, #0
 414              	.L17:
 415              		.loc 1 191 0 discriminator 6
 416 0208 03F00103 		and	r3, r3, #1
 417 020c DBB2     		uxtb	r3, r3
 418 020e 002B     		cmp	r3, #0
 419 0210 05D0     		beq	.L18
 420              		.loc 1 192 0 is_stmt 1
 421 0212 019B     		ldr	r3, [sp, #4]
 422 0214 0433     		adds	r3, r3, #4
 423 0216 1846     		mov	r0, r3
 424 0218 1021     		movs	r1, #16
 425 021a FFF7FEFF 		bl	chEvtBroadcastFlagsI
 426              	.L18:
 427              		.loc 1 193 0
 428 021e 049B     		ldr	r3, [sp, #16]
 429 0220 23F04002 		bic	r2, r3, #64
 430 0224 059B     		ldr	r3, [sp, #20]
 431 0226 1A60     		str	r2, [r3]
 432              		.loc 1 194 0
 433 0228 FFF7FEFF 		bl	dbg_check_unlock_from_isr
 434              	.LBB12:
 435 022c 0023     		movs	r3, #0
 436              	@ 194 "/opt/R2P/core/ChibiOS_2.6.5/os/hal/platforms/STM32/USARTv2/serial_lld.c" 1
 437 022e 83F31188 		msr     BASEPRI, r3
 438              	@ 0 "" 2
 439              		.thumb
 440              	.L8:
 441              	.LBE12:
 442              		.loc 1 196 0
 443 0232 07B0     		add	sp, sp, #28
 444              		.cfi_def_cfa_offset 4
 445              		@ sp needed
 446 0234 5DF804FB 		ldr	pc, [sp], #4
 447              		.cfi_endproc
 448              	.LFE121:
 449              		.size	serve_interrupt, .-serve_interrupt
 450              		.align	2
 451              		.thumb
 452              		.thumb_func
 453              		.type	notify3, %function
 454              	notify3:
 455              	.LFB122:
 456              		.loc 1 215 0
ARM GAS  /tmp/ccyN6WC0.s 			page 9


 457              		.cfi_startproc
 458              		@ args = 0, pretend = 0, frame = 8
 459              		@ frame_needed = 0, uses_anonymous_args = 0
 460              		@ link register save eliminated.
 461 0238 82B0     		sub	sp, sp, #8
 462              		.cfi_def_cfa_offset 8
 463 023a 0190     		str	r0, [sp, #4]
 464              		.loc 1 218 0
 465 023c 034A     		ldr	r2, .L20
 466 023e 034B     		ldr	r3, .L20
 467 0240 1B68     		ldr	r3, [r3]
 468 0242 43F08003 		orr	r3, r3, #128
 469 0246 1360     		str	r3, [r2]
 470              		.loc 1 219 0
 471 0248 02B0     		add	sp, sp, #8
 472              		.cfi_def_cfa_offset 0
 473              		@ sp needed
 474 024a 7047     		bx	lr
 475              	.L21:
 476              		.align	2
 477              	.L20:
 478 024c 00480040 		.word	1073760256
 479              		.cfi_endproc
 480              	.LFE122:
 481              		.size	notify3, .-notify3
 482              		.align	2
 483              		.global	VectorDC
 484              		.thumb
 485              		.thumb_func
 486              		.type	VectorDC, %function
 487              	VectorDC:
 488              	.LFB123:
 489              		.loc 1 297 0
 490              		.cfi_startproc
 491              		@ args = 0, pretend = 0, frame = 0
 492              		@ frame_needed = 0, uses_anonymous_args = 0
 493 0250 08B5     		push	{r3, lr}
 494              		.cfi_def_cfa_offset 8
 495              		.cfi_offset 3, -8
 496              		.cfi_offset 14, -4
 497              		.loc 1 299 0
 498 0252 FFF7FEFF 		bl	dbg_check_enter_isr
 499              		.loc 1 301 0
 500 0256 0448     		ldr	r0, .L23
 501 0258 FFF74AFF 		bl	serve_interrupt
 502              		.loc 1 303 0
 503 025c FFF7FEFF 		bl	dbg_check_leave_isr
 504 0260 FFF7FEFF 		bl	_port_irq_epilogue
 505              		.loc 1 304 0
 506 0264 08BD     		pop	{r3, pc}
 507              	.L24:
 508 0266 00BF     		.align	2
 509              	.L23:
 510 0268 00000000 		.word	SD3
 511              		.cfi_endproc
 512              	.LFE123:
 513              		.size	VectorDC, .-VectorDC
ARM GAS  /tmp/ccyN6WC0.s 			page 10


 514              		.align	2
 515              		.global	sd_lld_init
 516              		.thumb
 517              		.thumb_func
 518              		.type	sd_lld_init, %function
 519              	sd_lld_init:
 520              	.LFB124:
 521              		.loc 1 373 0
 522              		.cfi_startproc
 523              		@ args = 0, pretend = 0, frame = 0
 524              		@ frame_needed = 0, uses_anonymous_args = 0
 525 026c 08B5     		push	{r3, lr}
 526              		.cfi_def_cfa_offset 8
 527              		.cfi_offset 3, -8
 528              		.cfi_offset 14, -4
 529              		.loc 1 388 0
 530 026e 0748     		ldr	r0, .L26
 531 0270 0021     		movs	r1, #0
 532 0272 074A     		ldr	r2, .L26+4
 533 0274 FFF7FEFF 		bl	sdObjectInit
 534              		.loc 1 389 0
 535 0278 044B     		ldr	r3, .L26
 536 027a 064A     		ldr	r2, .L26+8
 537 027c C3F85422 		str	r2, [r3, #596]
 538              		.loc 1 390 0
 539 0280 024B     		ldr	r3, .L26
 540 0282 054A     		ldr	r2, .L26+12
 541 0284 C3F85822 		str	r2, [r3, #600]
 542              		.loc 1 410 0
 543 0288 08BD     		pop	{r3, pc}
 544              	.L27:
 545 028a 00BF     		.align	2
 546              	.L26:
 547 028c 00000000 		.word	SD3
 548 0290 00000000 		.word	notify3
 549 0294 00480040 		.word	1073760256
 550 0298 00512502 		.word	36000000
 551              		.cfi_endproc
 552              	.LFE124:
 553              		.size	sd_lld_init, .-sd_lld_init
 554              		.align	2
 555              		.global	sd_lld_start
 556              		.thumb
 557              		.thumb_func
 558              		.type	sd_lld_start, %function
 559              	sd_lld_start:
 560              	.LFB125:
 561              		.loc 1 422 0
 562              		.cfi_startproc
 563              		@ args = 0, pretend = 0, frame = 8
 564              		@ frame_needed = 0, uses_anonymous_args = 0
 565 029c 00B5     		push	{lr}
 566              		.cfi_def_cfa_offset 4
 567              		.cfi_offset 14, -4
 568 029e 83B0     		sub	sp, sp, #12
 569              		.cfi_def_cfa_offset 16
 570 02a0 0190     		str	r0, [sp, #4]
ARM GAS  /tmp/ccyN6WC0.s 			page 11


 571 02a2 0091     		str	r1, [sp]
 572              		.loc 1 424 0
 573 02a4 009B     		ldr	r3, [sp]
 574 02a6 002B     		cmp	r3, #0
 575 02a8 01D1     		bne	.L29
 576              		.loc 1 425 0
 577 02aa 0D4B     		ldr	r3, .L31
 578 02ac 0093     		str	r3, [sp]
 579              	.L29:
 580              		.loc 1 427 0
 581 02ae 019B     		ldr	r3, [sp, #4]
 582 02b0 1B7A     		ldrb	r3, [r3, #8]	@ zero_extendqisi2
 583 02b2 012B     		cmp	r3, #1
 584 02b4 0DD1     		bne	.L30
 585              		.loc 1 443 0
 586 02b6 019B     		ldr	r3, [sp, #4]
 587 02b8 0A4A     		ldr	r2, .L31+4
 588 02ba 9342     		cmp	r3, r2
 589 02bc 09D1     		bne	.L30
 590              		.loc 1 444 0
 591 02be 0A4A     		ldr	r2, .L31+8
 592 02c0 094B     		ldr	r3, .L31+8
 593 02c2 DB69     		ldr	r3, [r3, #28]
 594 02c4 43F48023 		orr	r3, r3, #262144
 595 02c8 D361     		str	r3, [r2, #28]
 596              		.loc 1 445 0
 597 02ca 2720     		movs	r0, #39
 598 02cc C021     		movs	r1, #192
 599 02ce FFF7FEFF 		bl	nvicEnableVector
 600              	.L30:
 601              		.loc 1 471 0
 602 02d2 0198     		ldr	r0, [sp, #4]
 603 02d4 0099     		ldr	r1, [sp]
 604 02d6 FFF793FE 		bl	usart_init
 605              		.loc 1 472 0
 606 02da 03B0     		add	sp, sp, #12
 607              		.cfi_def_cfa_offset 4
 608              		@ sp needed
 609 02dc 5DF804FB 		ldr	pc, [sp], #4
 610              	.L32:
 611              		.align	2
 612              	.L31:
 613 02e0 00000000 		.word	default_config
 614 02e4 00000000 		.word	SD3
 615 02e8 00100240 		.word	1073876992
 616              		.cfi_endproc
 617              	.LFE125:
 618              		.size	sd_lld_start, .-sd_lld_start
 619              		.align	2
 620              		.global	sd_lld_stop
 621              		.thumb
 622              		.thumb_func
 623              		.type	sd_lld_stop, %function
 624              	sd_lld_stop:
 625              	.LFB126:
 626              		.loc 1 483 0
 627              		.cfi_startproc
ARM GAS  /tmp/ccyN6WC0.s 			page 12


 628              		@ args = 0, pretend = 0, frame = 8
 629              		@ frame_needed = 0, uses_anonymous_args = 0
 630 02ec 00B5     		push	{lr}
 631              		.cfi_def_cfa_offset 4
 632              		.cfi_offset 14, -4
 633 02ee 83B0     		sub	sp, sp, #12
 634              		.cfi_def_cfa_offset 16
 635 02f0 0190     		str	r0, [sp, #4]
 636              		.loc 1 485 0
 637 02f2 019B     		ldr	r3, [sp, #4]
 638 02f4 1B7A     		ldrb	r3, [r3, #8]	@ zero_extendqisi2
 639 02f6 022B     		cmp	r3, #2
 640 02f8 13D1     		bne	.L33
 641              		.loc 1 486 0
 642 02fa 019B     		ldr	r3, [sp, #4]
 643 02fc D3F85432 		ldr	r3, [r3, #596]
 644 0300 1846     		mov	r0, r3
 645 0302 FFF7A9FE 		bl	usart_deinit
 646              		.loc 1 502 0
 647 0306 019B     		ldr	r3, [sp, #4]
 648 0308 074A     		ldr	r2, .L35
 649 030a 9342     		cmp	r3, r2
 650 030c 09D1     		bne	.L33
 651              		.loc 1 503 0
 652 030e 074A     		ldr	r2, .L35+4
 653 0310 064B     		ldr	r3, .L35+4
 654 0312 DB69     		ldr	r3, [r3, #28]
 655 0314 23F48023 		bic	r3, r3, #262144
 656 0318 D361     		str	r3, [r2, #28]
 657              		.loc 1 504 0
 658 031a 2720     		movs	r0, #39
 659 031c FFF7FEFF 		bl	nvicDisableVector
 660              		.loc 1 505 0
 661 0320 00BF     		nop
 662              	.L33:
 663              		.loc 1 530 0
 664 0322 03B0     		add	sp, sp, #12
 665              		.cfi_def_cfa_offset 4
 666              		@ sp needed
 667 0324 5DF804FB 		ldr	pc, [sp], #4
 668              	.L36:
 669              		.align	2
 670              	.L35:
 671 0328 00000000 		.word	SD3
 672 032c 00100240 		.word	1073876992
 673              		.cfi_endproc
 674              	.LFE126:
 675              		.size	sd_lld_stop, .-sd_lld_stop
 676              	.Letext0:
 677              		.file 2 "/opt/R2P/tools/gcc-arm-none-eabi-4_9-2014q4/lib/gcc/arm-none-eabi/4.9.3/include/stddef.h"
 678              		.file 3 "/opt/R2P/tools/gcc-arm-none-eabi-4_9-2014q4/arm-none-eabi/include/machine/_default_types.
 679              		.file 4 "/opt/R2P/tools/gcc-arm-none-eabi-4_9-2014q4/arm-none-eabi/include/stdint.h"
 680              		.file 5 "/opt/R2P/core/ChibiOS_2.6.5/os/ports/GCC/ARMCMx/chtypes.h"
 681              		.file 6 "/opt/R2P/core/ChibiOS_2.6.5/os/kernel/include/chlists.h"
 682              		.file 7 "/opt/R2P/core/ChibiOS_2.6.5/os/kernel/include/chthreads.h"
 683              		.file 8 "/opt/R2P/core/ChibiOS_2.6.5/os/ports/GCC/ARMCMx/chcore_v7m.h"
 684              		.file 9 "/opt/R2P/core/ChibiOS_2.6.5/os/kernel/include/chmtx.h"
ARM GAS  /tmp/ccyN6WC0.s 			page 13


 685              		.file 10 "/opt/R2P/core/ChibiOS_2.6.5/os/kernel/include/chevents.h"
 686              		.file 11 "/opt/R2P/core/ChibiOS_2.6.5/os/kernel/include/chqueues.h"
 687              		.file 12 "/opt/R2P/core/ChibiOS_2.6.5/os/hal/platforms/STM32F30x/stm32f30x.h"
 688              		.file 13 "/opt/R2P/core/ChibiOS_2.6.5/os/hal/include/serial.h"
 689              		.file 14 "/opt/R2P/core/ChibiOS_2.6.5/os/hal/platforms/STM32/USARTv2/serial_lld.h"
 690              		.file 15 "/opt/R2P/core/ChibiOS_2.6.5/os/ports/common/ARMCMx/CMSIS/include/core_cm4.h"