ARM GAS  /tmp/cc7aAWvd.s 			page 1


   1              		.syntax unified
   2              		.cpu cortex-m4
   3              		.fpu softvfp
   4              		.eabi_attribute 20, 1
   5              		.eabi_attribute 21, 1
   6              		.eabi_attribute 23, 3
   7              		.eabi_attribute 24, 1
   8              		.eabi_attribute 25, 1
   9              		.eabi_attribute 26, 1
  10              		.eabi_attribute 30, 6
  11              		.eabi_attribute 34, 1
  12              		.eabi_attribute 18, 4
  13              		.thumb
  14              		.file	"shell.c"
  15              		.text
  16              	.Ltext0:
  17              		.cfi_sections	.debug_frame
  18              		.align	2
  19              		.thumb
  20              		.thumb_func
  21              		.type	chprintf, %function
  22              	chprintf:
  23              	.LFB118:
  24              		.file 1 "/opt/R2P/core/ChibiOS_2.6.5/os/various/chprintf.h"
  25              		.loc 1 69 0
  26              		.cfi_startproc
  27              		@ args = 4, pretend = 12, frame = 16
  28              		@ frame_needed = 0, uses_anonymous_args = 1
  29 0000 0EB4     		push	{r1, r2, r3}
  30              		.cfi_def_cfa_offset 12
  31              		.cfi_offset 1, -12
  32              		.cfi_offset 2, -8
  33              		.cfi_offset 3, -4
  34 0002 00B5     		push	{lr}
  35              		.cfi_def_cfa_offset 16
  36              		.cfi_offset 14, -16
  37 0004 84B0     		sub	sp, sp, #16
  38              		.cfi_def_cfa_offset 32
  39 0006 0190     		str	r0, [sp, #4]
  40              		.loc 1 72 0
  41 0008 06AB     		add	r3, sp, #24
  42 000a 0393     		str	r3, [sp, #12]
  43              		.loc 1 73 0
  44 000c 0198     		ldr	r0, [sp, #4]
  45 000e 0599     		ldr	r1, [sp, #20]
  46 0010 039A     		ldr	r2, [sp, #12]
  47 0012 FFF7FEFF 		bl	chvprintf
  48              		.loc 1 75 0
  49 0016 04B0     		add	sp, sp, #16
  50              		.cfi_def_cfa_offset 16
  51              		@ sp needed
  52 0018 5DF804EB 		ldr	lr, [sp], #4
  53              		.cfi_restore 14
  54              		.cfi_def_cfa_offset 12
  55 001c 03B0     		add	sp, sp, #12
  56              		.cfi_restore 3
  57              		.cfi_restore 2
ARM GAS  /tmp/cc7aAWvd.s 			page 2


  58              		.cfi_restore 1
  59              		.cfi_def_cfa_offset 0
  60 001e 7047     		bx	lr
  61              		.cfi_endproc
  62              	.LFE118:
  63              		.size	chprintf, .-chprintf
  64              		.comm	shell_terminated,4,4
  65              		.align	2
  66              		.thumb
  67              		.thumb_func
  68              		.type	_strtok, %function
  69              	_strtok:
  70              	.LFB119:
  71              		.file 2 "/opt/R2P/core/ChibiOS_2.6.5/os/various/shell.c"
  72              		.loc 2 37 0
  73              		.cfi_startproc
  74              		@ args = 0, pretend = 0, frame = 24
  75              		@ frame_needed = 0, uses_anonymous_args = 0
  76 0020 00B5     		push	{lr}
  77              		.cfi_def_cfa_offset 4
  78              		.cfi_offset 14, -4
  79 0022 87B0     		sub	sp, sp, #28
  80              		.cfi_def_cfa_offset 32
  81 0024 0390     		str	r0, [sp, #12]
  82 0026 0291     		str	r1, [sp, #8]
  83 0028 0192     		str	r2, [sp, #4]
  84              		.loc 2 39 0
  85 002a 039B     		ldr	r3, [sp, #12]
  86 002c 002B     		cmp	r3, #0
  87 002e 02D0     		beq	.L3
  88              		.loc 2 40 0
  89 0030 019B     		ldr	r3, [sp, #4]
  90 0032 039A     		ldr	r2, [sp, #12]
  91 0034 1A60     		str	r2, [r3]
  92              	.L3:
  93              		.loc 2 41 0
  94 0036 019B     		ldr	r3, [sp, #4]
  95 0038 1B68     		ldr	r3, [r3]
  96 003a 0593     		str	r3, [sp, #20]
  97              		.loc 2 43 0
  98 003c 059B     		ldr	r3, [sp, #20]
  99 003e 002B     		cmp	r3, #0
 100 0040 01D1     		bne	.L4
 101              		.loc 2 44 0
 102 0042 0023     		movs	r3, #0
 103 0044 21E0     		b	.L5
 104              	.L4:
 105              		.loc 2 46 0
 106 0046 0598     		ldr	r0, [sp, #20]
 107 0048 0299     		ldr	r1, [sp, #8]
 108 004a FFF7FEFF 		bl	strspn
 109 004e 0246     		mov	r2, r0
 110 0050 059B     		ldr	r3, [sp, #20]
 111 0052 1344     		add	r3, r3, r2
 112 0054 0593     		str	r3, [sp, #20]
 113              		.loc 2 47 0
 114 0056 0598     		ldr	r0, [sp, #20]
ARM GAS  /tmp/cc7aAWvd.s 			page 3


 115 0058 0299     		ldr	r1, [sp, #8]
 116 005a FFF7FEFF 		bl	strpbrk
 117 005e 0246     		mov	r2, r0
 118 0060 019B     		ldr	r3, [sp, #4]
 119 0062 1A60     		str	r2, [r3]
 120              		.loc 2 48 0
 121 0064 019B     		ldr	r3, [sp, #4]
 122 0066 1B68     		ldr	r3, [r3]
 123 0068 002B     		cmp	r3, #0
 124 006a 06D0     		beq	.L6
 125              		.loc 2 49 0
 126 006c 019B     		ldr	r3, [sp, #4]
 127 006e 1B68     		ldr	r3, [r3]
 128 0070 591C     		adds	r1, r3, #1
 129 0072 019A     		ldr	r2, [sp, #4]
 130 0074 1160     		str	r1, [r2]
 131 0076 0022     		movs	r2, #0
 132 0078 1A70     		strb	r2, [r3]
 133              	.L6:
 134              		.loc 2 51 0
 135 007a 059B     		ldr	r3, [sp, #20]
 136 007c 1B78     		ldrb	r3, [r3]	@ zero_extendqisi2
 137 007e 002B     		cmp	r3, #0
 138 0080 01D0     		beq	.L7
 139              		.loc 2 51 0 is_stmt 0 discriminator 1
 140 0082 059B     		ldr	r3, [sp, #20]
 141 0084 00E0     		b	.L9
 142              	.L7:
 143              		.loc 2 51 0 discriminator 2
 144 0086 0023     		movs	r3, #0
 145              	.L9:
 146              		.loc 2 51 0
 147 0088 00BF     		nop
 148              	.L5:
 149              		.loc 2 52 0 is_stmt 1
 150 008a 1846     		mov	r0, r3
 151 008c 07B0     		add	sp, sp, #28
 152              		.cfi_def_cfa_offset 4
 153              		@ sp needed
 154 008e 5DF804FB 		ldr	pc, [sp], #4
 155              		.cfi_endproc
 156              	.LFE119:
 157              		.size	_strtok, .-_strtok
 158              		.section	.rodata
 159              		.align	2
 160              	.LC0:
 161 0000 55736167 		.ascii	"Usage: %s\015\012\000"
 161      653A2025 
 161      730D0A00 
 162              		.text
 163 0092 00BF     		.align	2
 164              		.thumb
 165              		.thumb_func
 166              		.type	usage, %function
 167              	usage:
 168              	.LFB120:
 169              		.loc 2 54 0
ARM GAS  /tmp/cc7aAWvd.s 			page 4


 170              		.cfi_startproc
 171              		@ args = 0, pretend = 0, frame = 8
 172              		@ frame_needed = 0, uses_anonymous_args = 0
 173 0094 00B5     		push	{lr}
 174              		.cfi_def_cfa_offset 4
 175              		.cfi_offset 14, -4
 176 0096 83B0     		sub	sp, sp, #12
 177              		.cfi_def_cfa_offset 16
 178 0098 0190     		str	r0, [sp, #4]
 179 009a 0091     		str	r1, [sp]
 180              		.loc 2 56 0
 181 009c 0198     		ldr	r0, [sp, #4]
 182 009e 0349     		ldr	r1, .L11
 183 00a0 009A     		ldr	r2, [sp]
 184 00a2 FFF7ADFF 		bl	chprintf
 185              		.loc 2 57 0
 186 00a6 03B0     		add	sp, sp, #12
 187              		.cfi_def_cfa_offset 4
 188              		@ sp needed
 189 00a8 5DF804FB 		ldr	pc, [sp], #4
 190              	.L12:
 191              		.align	2
 192              	.L11:
 193 00ac 00000000 		.word	.LC0
 194              		.cfi_endproc
 195              	.LFE120:
 196              		.size	usage, .-usage
 197              		.section	.rodata
 198              		.align	2
 199              	.LC1:
 200 000c 25732000 		.ascii	"%s \000"
 201              		.text
 202              		.align	2
 203              		.thumb
 204              		.thumb_func
 205              		.type	list_commands, %function
 206              	list_commands:
 207              	.LFB121:
 208              		.loc 2 59 0
 209              		.cfi_startproc
 210              		@ args = 0, pretend = 0, frame = 8
 211              		@ frame_needed = 0, uses_anonymous_args = 0
 212 00b0 00B5     		push	{lr}
 213              		.cfi_def_cfa_offset 4
 214              		.cfi_offset 14, -4
 215 00b2 83B0     		sub	sp, sp, #12
 216              		.cfi_def_cfa_offset 16
 217 00b4 0190     		str	r0, [sp, #4]
 218 00b6 0091     		str	r1, [sp]
 219              		.loc 2 61 0
 220 00b8 09E0     		b	.L14
 221              	.L15:
 222              		.loc 2 62 0
 223 00ba 009B     		ldr	r3, [sp]
 224 00bc 1B68     		ldr	r3, [r3]
 225 00be 0198     		ldr	r0, [sp, #4]
 226 00c0 0649     		ldr	r1, .L16
ARM GAS  /tmp/cc7aAWvd.s 			page 5


 227 00c2 1A46     		mov	r2, r3
 228 00c4 FFF79CFF 		bl	chprintf
 229              		.loc 2 63 0
 230 00c8 009B     		ldr	r3, [sp]
 231 00ca 0833     		adds	r3, r3, #8
 232 00cc 0093     		str	r3, [sp]
 233              	.L14:
 234              		.loc 2 61 0
 235 00ce 009B     		ldr	r3, [sp]
 236 00d0 1B68     		ldr	r3, [r3]
 237 00d2 002B     		cmp	r3, #0
 238 00d4 F1D1     		bne	.L15
 239              		.loc 2 65 0
 240 00d6 03B0     		add	sp, sp, #12
 241              		.cfi_def_cfa_offset 4
 242              		@ sp needed
 243 00d8 5DF804FB 		ldr	pc, [sp], #4
 244              	.L17:
 245              		.align	2
 246              	.L16:
 247 00dc 0C000000 		.word	.LC1
 248              		.cfi_endproc
 249              	.LFE121:
 250              		.size	list_commands, .-list_commands
 251              		.section	.rodata
 252              		.align	2
 253              	.LC2:
 254 0010 696E666F 		.ascii	"info\000"
 254      00
 255 0015 000000   		.align	2
 256              	.LC3:
 257 0018 4B65726E 		.ascii	"Kernel:       %s\015\012\000"
 257      656C3A20 
 257      20202020 
 257      20202573 
 257      0D0A00
 258 002b 00       		.align	2
 259              	.LC4:
 260 002c 322E362E 		.ascii	"2.6.5\000"
 260      3500
 261 0032 0000     		.align	2
 262              	.LC5:
 263 0034 436F6D70 		.ascii	"Compiler:     %s\015\012\000"
 263      696C6572 
 263      3A202020 
 263      20202573 
 263      0D0A00
 264 0047 00       		.align	2
 265              	.LC6:
 266 0048 47434320 		.ascii	"GCC 4.9.3 20141119 (release) [ARM/embedded-4_9-bran"
 266      342E392E 
 266      33203230 
 266      31343131 
 266      31392028 
 267 007b 63682072 		.ascii	"ch revision 218278]\000"
 267      65766973 
 267      696F6E20 
ARM GAS  /tmp/cc7aAWvd.s 			page 6


 267      32313832 
 267      37385D00 
 268 008f 00       		.align	2
 269              	.LC7:
 270 0090 41726368 		.ascii	"Architecture: %s\015\012\000"
 270      69746563 
 270      74757265 
 270      3A202573 
 270      0D0A00
 271 00a3 00       		.align	2
 272              	.LC8:
 273 00a4 41524D76 		.ascii	"ARMv7-ME\000"
 273      372D4D45 
 273      00
 274 00ad 000000   		.align	2
 275              	.LC9:
 276 00b0 436F7265 		.ascii	"Core Variant: %s\015\012\000"
 276      20566172 
 276      69616E74 
 276      3A202573 
 276      0D0A00
 277 00c3 00       		.align	2
 278              	.LC10:
 279 00c4 436F7274 		.ascii	"Cortex-M4\000"
 279      65782D4D 
 279      3400
 280 00ce 0000     		.align	2
 281              	.LC11:
 282 00d0 506F7274 		.ascii	"Port Info:    %s\015\012\000"
 282      20496E66 
 282      6F3A2020 
 282      20202573 
 282      0D0A00
 283 00e3 00       		.align	2
 284              	.LC12:
 285 00e4 41647661 		.ascii	"Advanced kernel mode\000"
 285      6E636564 
 285      206B6572 
 285      6E656C20 
 285      6D6F6465 
 286 00f9 000000   		.align	2
 287              	.LC13:
 288 00fc 506C6174 		.ascii	"Platform:     %s\015\012\000"
 288      666F726D 
 288      3A202020 
 288      20202573 
 288      0D0A00
 289 010f 00       		.align	2
 290              	.LC14:
 291 0110 53544D33 		.ascii	"STM32F30x Analog & DSP\000"
 291      32463330 
 291      7820416E 
 291      616C6F67 
 291      20262044 
 292 0127 00       		.align	2
 293              	.LC15:
 294 0128 426F6172 		.ascii	"Board:        %s\015\012\000"
ARM GAS  /tmp/cc7aAWvd.s 			page 7


 294      643A2020 
 294      20202020 
 294      20202573 
 294      0D0A00
 295 013b 00       		.align	2
 296              	.LC16:
 297 013c 52325020 		.ascii	"R2P USB module\000"
 297      55534220 
 297      6D6F6475 
 297      6C6500
 298 014b 00       		.align	2
 299              	.LC17:
 300 014c 4275696C 		.ascii	"Build time:   %s%s%s\015\012\000"
 300      64207469 
 300      6D653A20 
 300      20202573 
 300      25732573 
 301 0163 00       		.align	2
 302              	.LC18:
 303 0164 46656220 		.ascii	"Feb 13 2015\000"
 303      31332032 
 303      30313500 
 304              		.align	2
 305              	.LC19:
 306 0170 202D2000 		.ascii	" - \000"
 307              		.align	2
 308              	.LC20:
 309 0174 31363A33 		.ascii	"16:39:37\000"
 309      393A3337 
 309      00
 310              		.text
 311              		.align	2
 312              		.thumb
 313              		.thumb_func
 314              		.type	cmd_info, %function
 315              	cmd_info:
 316              	.LFB122:
 317              		.loc 2 67 0
 318              		.cfi_startproc
 319              		@ args = 0, pretend = 0, frame = 16
 320              		@ frame_needed = 0, uses_anonymous_args = 0
 321 00e0 00B5     		push	{lr}
 322              		.cfi_def_cfa_offset 4
 323              		.cfi_offset 14, -4
 324 00e2 87B0     		sub	sp, sp, #28
 325              		.cfi_def_cfa_offset 32
 326 00e4 0590     		str	r0, [sp, #20]
 327 00e6 0491     		str	r1, [sp, #16]
 328 00e8 0392     		str	r2, [sp, #12]
 329              		.loc 2 70 0
 330 00ea 049B     		ldr	r3, [sp, #16]
 331 00ec 002B     		cmp	r3, #0
 332 00ee 04DD     		ble	.L19
 333              		.loc 2 71 0
 334 00f0 0598     		ldr	r0, [sp, #20]
 335 00f2 1949     		ldr	r1, .L21
 336 00f4 FFF7CEFF 		bl	usage
ARM GAS  /tmp/cc7aAWvd.s 			page 8


 337              		.loc 2 72 0
 338 00f8 2AE0     		b	.L18
 339              	.L19:
 340              		.loc 2 75 0
 341 00fa 0598     		ldr	r0, [sp, #20]
 342 00fc 1749     		ldr	r1, .L21+4
 343 00fe 184A     		ldr	r2, .L21+8
 344 0100 FFF77EFF 		bl	chprintf
 345              		.loc 2 77 0
 346 0104 0598     		ldr	r0, [sp, #20]
 347 0106 1749     		ldr	r1, .L21+12
 348 0108 174A     		ldr	r2, .L21+16
 349 010a FFF779FF 		bl	chprintf
 350              		.loc 2 79 0
 351 010e 0598     		ldr	r0, [sp, #20]
 352 0110 1649     		ldr	r1, .L21+20
 353 0112 174A     		ldr	r2, .L21+24
 354 0114 FFF774FF 		bl	chprintf
 355              		.loc 2 81 0
 356 0118 0598     		ldr	r0, [sp, #20]
 357 011a 1649     		ldr	r1, .L21+28
 358 011c 164A     		ldr	r2, .L21+32
 359 011e FFF76FFF 		bl	chprintf
 360              		.loc 2 84 0
 361 0122 0598     		ldr	r0, [sp, #20]
 362 0124 1549     		ldr	r1, .L21+36
 363 0126 164A     		ldr	r2, .L21+40
 364 0128 FFF76AFF 		bl	chprintf
 365              		.loc 2 87 0
 366 012c 0598     		ldr	r0, [sp, #20]
 367 012e 1549     		ldr	r1, .L21+44
 368 0130 154A     		ldr	r2, .L21+48
 369 0132 FFF765FF 		bl	chprintf
 370              		.loc 2 90 0
 371 0136 0598     		ldr	r0, [sp, #20]
 372 0138 1449     		ldr	r1, .L21+52
 373 013a 154A     		ldr	r2, .L21+56
 374 013c FFF760FF 		bl	chprintf
 375              		.loc 2 94 0
 376 0140 144B     		ldr	r3, .L21+60
 377 0142 0093     		str	r3, [sp]
 378 0144 0598     		ldr	r0, [sp, #20]
 379 0146 1449     		ldr	r1, .L21+64
 380 0148 144A     		ldr	r2, .L21+68
 381 014a 154B     		ldr	r3, .L21+72
 382 014c FFF758FF 		bl	chprintf
 383              	.L18:
 384              		.loc 2 97 0
 385 0150 07B0     		add	sp, sp, #28
 386              		.cfi_def_cfa_offset 4
 387              		@ sp needed
 388 0152 5DF804FB 		ldr	pc, [sp], #4
 389              	.L22:
 390 0156 00BF     		.align	2
 391              	.L21:
 392 0158 10000000 		.word	.LC2
 393 015c 18000000 		.word	.LC3
ARM GAS  /tmp/cc7aAWvd.s 			page 9


 394 0160 2C000000 		.word	.LC4
 395 0164 34000000 		.word	.LC5
 396 0168 48000000 		.word	.LC6
 397 016c 90000000 		.word	.LC7
 398 0170 A4000000 		.word	.LC8
 399 0174 B0000000 		.word	.LC9
 400 0178 C4000000 		.word	.LC10
 401 017c D0000000 		.word	.LC11
 402 0180 E4000000 		.word	.LC12
 403 0184 FC000000 		.word	.LC13
 404 0188 10010000 		.word	.LC14
 405 018c 28010000 		.word	.LC15
 406 0190 3C010000 		.word	.LC16
 407 0194 74010000 		.word	.LC20
 408 0198 4C010000 		.word	.LC17
 409 019c 64010000 		.word	.LC18
 410 01a0 70010000 		.word	.LC19
 411              		.cfi_endproc
 412              	.LFE122:
 413              		.size	cmd_info, .-cmd_info
 414              		.section	.rodata
 415 017d 000000   		.align	2
 416              	.LC21:
 417 0180 73797374 		.ascii	"systime\000"
 417      696D6500 
 418              		.align	2
 419              	.LC22:
 420 0188 256C750D 		.ascii	"%lu\015\012\000"
 420      0A00
 421              		.text
 422              		.align	2
 423              		.thumb
 424              		.thumb_func
 425              		.type	cmd_systime, %function
 426              	cmd_systime:
 427              	.LFB123:
 428              		.loc 2 99 0
 429              		.cfi_startproc
 430              		@ args = 0, pretend = 0, frame = 16
 431              		@ frame_needed = 0, uses_anonymous_args = 0
 432 01a4 00B5     		push	{lr}
 433              		.cfi_def_cfa_offset 4
 434              		.cfi_offset 14, -4
 435 01a6 85B0     		sub	sp, sp, #20
 436              		.cfi_def_cfa_offset 24
 437 01a8 0390     		str	r0, [sp, #12]
 438 01aa 0291     		str	r1, [sp, #8]
 439 01ac 0192     		str	r2, [sp, #4]
 440              		.loc 2 102 0
 441 01ae 029B     		ldr	r3, [sp, #8]
 442 01b0 002B     		cmp	r3, #0
 443 01b2 04DD     		ble	.L24
 444              		.loc 2 103 0
 445 01b4 0398     		ldr	r0, [sp, #12]
 446 01b6 0749     		ldr	r1, .L26
 447 01b8 FFF76CFF 		bl	usage
 448              		.loc 2 104 0
ARM GAS  /tmp/cc7aAWvd.s 			page 10


 449 01bc 06E0     		b	.L23
 450              	.L24:
 451              		.loc 2 106 0
 452 01be 064B     		ldr	r3, .L26+4
 453 01c0 DB68     		ldr	r3, [r3, #12]
 454 01c2 0398     		ldr	r0, [sp, #12]
 455 01c4 0549     		ldr	r1, .L26+8
 456 01c6 1A46     		mov	r2, r3
 457 01c8 FFF71AFF 		bl	chprintf
 458              	.L23:
 459              		.loc 2 107 0
 460 01cc 05B0     		add	sp, sp, #20
 461              		.cfi_def_cfa_offset 4
 462              		@ sp needed
 463 01ce 5DF804FB 		ldr	pc, [sp], #4
 464              	.L27:
 465 01d2 00BF     		.align	2
 466              	.L26:
 467 01d4 80010000 		.word	.LC21
 468 01d8 00000000 		.word	vtlist
 469 01dc 88010000 		.word	.LC22
 470              		.cfi_endproc
 471              	.LFE123:
 472              		.size	cmd_systime, .-cmd_systime
 473              		.data
 474              		.align	2
 475              		.type	local_commands, %object
 476              		.size	local_commands, 24
 477              	local_commands:
 478 0000 10000000 		.word	.LC2
 479 0004 00000000 		.word	cmd_info
 480 0008 80010000 		.word	.LC21
 481 000c 00000000 		.word	cmd_systime
 482 0010 00000000 		.word	0
 483 0014 00000000 		.word	0
 484              		.text
 485              		.align	2
 486              		.thumb
 487              		.thumb_func
 488              		.type	cmdexec, %function
 489              	cmdexec:
 490              	.LFB124:
 491              		.loc 2 119 0
 492              		.cfi_startproc
 493              		@ args = 4, pretend = 0, frame = 16
 494              		@ frame_needed = 0, uses_anonymous_args = 0
 495 01e0 00B5     		push	{lr}
 496              		.cfi_def_cfa_offset 4
 497              		.cfi_offset 14, -4
 498 01e2 85B0     		sub	sp, sp, #20
 499              		.cfi_def_cfa_offset 24
 500 01e4 0390     		str	r0, [sp, #12]
 501 01e6 0291     		str	r1, [sp, #8]
 502 01e8 0192     		str	r2, [sp, #4]
 503 01ea 0093     		str	r3, [sp]
 504              		.loc 2 121 0
 505 01ec 13E0     		b	.L29
ARM GAS  /tmp/cc7aAWvd.s 			page 11


 506              	.L32:
 507              		.loc 2 122 0
 508 01ee 039B     		ldr	r3, [sp, #12]
 509 01f0 1B68     		ldr	r3, [r3]
 510 01f2 1846     		mov	r0, r3
 511 01f4 0199     		ldr	r1, [sp, #4]
 512 01f6 FFF7FEFF 		bl	strcasecmp
 513 01fa 0346     		mov	r3, r0
 514 01fc 002B     		cmp	r3, #0
 515 01fe 07D1     		bne	.L30
 516              		.loc 2 123 0
 517 0200 039B     		ldr	r3, [sp, #12]
 518 0202 5B68     		ldr	r3, [r3, #4]
 519 0204 0298     		ldr	r0, [sp, #8]
 520 0206 0099     		ldr	r1, [sp]
 521 0208 069A     		ldr	r2, [sp, #24]
 522 020a 9847     		blx	r3
 523              		.loc 2 124 0
 524 020c 0023     		movs	r3, #0
 525 020e 07E0     		b	.L31
 526              	.L30:
 527              		.loc 2 126 0
 528 0210 039B     		ldr	r3, [sp, #12]
 529 0212 0833     		adds	r3, r3, #8
 530 0214 0393     		str	r3, [sp, #12]
 531              	.L29:
 532              		.loc 2 121 0
 533 0216 039B     		ldr	r3, [sp, #12]
 534 0218 1B68     		ldr	r3, [r3]
 535 021a 002B     		cmp	r3, #0
 536 021c E7D1     		bne	.L32
 537              		.loc 2 128 0
 538 021e 0123     		movs	r3, #1
 539              	.L31:
 540              		.loc 2 129 0
 541 0220 1846     		mov	r0, r3
 542 0222 05B0     		add	sp, sp, #20
 543              		.cfi_def_cfa_offset 4
 544              		@ sp needed
 545 0224 5DF804FB 		ldr	pc, [sp], #4
 546              		.cfi_endproc
 547              	.LFE124:
 548              		.size	cmdexec, .-cmdexec
 549              		.section	.rodata
 550 018e 0000     		.align	2
 551              	.LC23:
 552 0190 7368656C 		.ascii	"shell\000"
 552      6C00
 553 0196 0000     		.align	2
 554              	.LC24:
 555 0198 0D0A4368 		.ascii	"\015\012ChibiOS/RT Shell\015\012\000"
 555      6962694F 
 555      532F5254 
 555      20536865 
 555      6C6C0D0A 
 556 01ad 000000   		.align	2
 557              	.LC25:
ARM GAS  /tmp/cc7aAWvd.s 			page 12


 558 01b0 63683E20 		.ascii	"ch> \000"
 558      00
 559 01b5 000000   		.align	2
 560              	.LC26:
 561 01b8 0D0A6C6F 		.ascii	"\015\012logout\000"
 561      676F7574 
 561      00
 562 01c1 000000   		.align	2
 563              	.LC27:
 564 01c4 200900   		.ascii	" \011\000"
 565 01c7 00       		.align	2
 566              	.LC28:
 567 01c8 746F6F20 		.ascii	"too many arguments\015\012\000"
 567      6D616E79 
 567      20617267 
 567      756D656E 
 567      74730D0A 
 568 01dd 000000   		.align	2
 569              	.LC29:
 570 01e0 65786974 		.ascii	"exit\000"
 570      00
 571 01e5 000000   		.align	2
 572              	.LC30:
 573 01e8 68656C70 		.ascii	"help\000"
 573      00
 574 01ed 000000   		.align	2
 575              	.LC31:
 576 01f0 436F6D6D 		.ascii	"Commands: help exit \000"
 576      616E6473 
 576      3A206865 
 576      6C702065 
 576      78697420 
 577 0205 000000   		.align	2
 578              	.LC32:
 579 0208 0D0A00   		.ascii	"\015\012\000"
 580 020b 00       		.align	2
 581              	.LC33:
 582 020c 257300   		.ascii	"%s\000"
 583 020f 00       		.align	2
 584              	.LC34:
 585 0210 203F0D0A 		.ascii	" ?\015\012\000"
 585      00
 586              		.text
 587              		.align	2
 588              		.thumb
 589              		.thumb_func
 590              		.type	shell_thread, %function
 591              	shell_thread:
 592              	.LFB125:
 593              		.loc 2 141 0
 594              		.cfi_startproc
 595              		@ args = 0, pretend = 0, frame = 120
 596              		@ frame_needed = 0, uses_anonymous_args = 0
 597 0228 00B5     		push	{lr}
 598              		.cfi_def_cfa_offset 4
 599              		.cfi_offset 14, -4
 600 022a A1B0     		sub	sp, sp, #132
ARM GAS  /tmp/cc7aAWvd.s 			page 13


 601              		.cfi_def_cfa_offset 136
 602 022c 0390     		str	r0, [sp, #12]
 603              		.loc 2 143 0
 604 022e 039B     		ldr	r3, [sp, #12]
 605 0230 1B68     		ldr	r3, [r3]
 606 0232 1D93     		str	r3, [sp, #116]
 607              		.loc 2 144 0
 608 0234 039B     		ldr	r3, [sp, #12]
 609 0236 5B68     		ldr	r3, [r3, #4]
 610 0238 1C93     		str	r3, [sp, #112]
 611              		.loc 2 148 0
 612 023a 564B     		ldr	r3, .L49
 613 023c 9B69     		ldr	r3, [r3, #24]
 614 023e 564A     		ldr	r2, .L49+4
 615 0240 9A61     		str	r2, [r3, #24]
 616              		.loc 2 149 0
 617 0242 1D98     		ldr	r0, [sp, #116]
 618 0244 5549     		ldr	r1, .L49+8
 619 0246 FFF7DBFE 		bl	chprintf
 620              	.L47:
 621              		.loc 2 151 0
 622 024a 1D98     		ldr	r0, [sp, #116]
 623 024c 5449     		ldr	r1, .L49+12
 624 024e FFF7D7FE 		bl	chprintf
 625              		.loc 2 152 0
 626 0252 0AAB     		add	r3, sp, #40
 627 0254 1D98     		ldr	r0, [sp, #116]
 628 0256 1946     		mov	r1, r3
 629 0258 4022     		movs	r2, #64
 630 025a FFF7FEFF 		bl	shellGetLine
 631 025e 0346     		mov	r3, r0
 632 0260 002B     		cmp	r3, #0
 633 0262 04D0     		beq	.L34
 634              		.loc 2 153 0
 635 0264 1D98     		ldr	r0, [sp, #116]
 636 0266 4F49     		ldr	r1, .L49+16
 637 0268 FFF7CAFE 		bl	chprintf
 638              		.loc 2 154 0
 639 026c 89E0     		b	.L35
 640              	.L34:
 641              		.loc 2 156 0
 642 026e 0AAA     		add	r2, sp, #40
 643 0270 1AAB     		add	r3, sp, #104
 644 0272 1046     		mov	r0, r2
 645 0274 4C49     		ldr	r1, .L49+20
 646 0276 1A46     		mov	r2, r3
 647 0278 FFF7D2FE 		bl	_strtok
 648 027c 1B90     		str	r0, [sp, #108]
 649              		.loc 2 157 0
 650 027e 1B9B     		ldr	r3, [sp, #108]
 651 0280 1E93     		str	r3, [sp, #120]
 652              		.loc 2 158 0
 653 0282 0023     		movs	r3, #0
 654 0284 1F93     		str	r3, [sp, #124]
 655              		.loc 2 159 0
 656 0286 12E0     		b	.L36
 657              	.L39:
ARM GAS  /tmp/cc7aAWvd.s 			page 14


 658              		.loc 2 160 0
 659 0288 1F9B     		ldr	r3, [sp, #124]
 660 028a 032B     		cmp	r3, #3
 661 028c 06DD     		ble	.L37
 662              		.loc 2 161 0
 663 028e 1D98     		ldr	r0, [sp, #116]
 664 0290 4649     		ldr	r1, .L49+24
 665 0292 FFF7B5FE 		bl	chprintf
 666              		.loc 2 162 0
 667 0296 0023     		movs	r3, #0
 668 0298 1E93     		str	r3, [sp, #120]
 669              		.loc 2 163 0
 670 029a 12E0     		b	.L38
 671              	.L37:
 672              		.loc 2 165 0
 673 029c 1F9B     		ldr	r3, [sp, #124]
 674 029e 5A1C     		adds	r2, r3, #1
 675 02a0 1F92     		str	r2, [sp, #124]
 676 02a2 9B00     		lsls	r3, r3, #2
 677 02a4 20AA     		add	r2, sp, #128
 678 02a6 1344     		add	r3, r3, r2
 679 02a8 1B9A     		ldr	r2, [sp, #108]
 680 02aa 43F86C2C 		str	r2, [r3, #-108]
 681              	.L36:
 682              		.loc 2 159 0
 683 02ae 1AAB     		add	r3, sp, #104
 684 02b0 0020     		movs	r0, #0
 685 02b2 3D49     		ldr	r1, .L49+20
 686 02b4 1A46     		mov	r2, r3
 687 02b6 FFF7B3FE 		bl	_strtok
 688 02ba 1B90     		str	r0, [sp, #108]
 689 02bc 1B9B     		ldr	r3, [sp, #108]
 690 02be 002B     		cmp	r3, #0
 691 02c0 E2D1     		bne	.L39
 692              	.L38:
 693              		.loc 2 167 0
 694 02c2 1F9B     		ldr	r3, [sp, #124]
 695 02c4 9B00     		lsls	r3, r3, #2
 696 02c6 20AA     		add	r2, sp, #128
 697 02c8 1344     		add	r3, r3, r2
 698 02ca 0022     		movs	r2, #0
 699 02cc 43F86C2C 		str	r2, [r3, #-108]
 700              		.loc 2 168 0
 701 02d0 1E9B     		ldr	r3, [sp, #120]
 702 02d2 002B     		cmp	r3, #0
 703 02d4 54D0     		beq	.L40
 704              		.loc 2 169 0
 705 02d6 1E98     		ldr	r0, [sp, #120]
 706 02d8 3549     		ldr	r1, .L49+28
 707 02da FFF7FEFF 		bl	strcasecmp
 708 02de 0346     		mov	r3, r0
 709 02e0 002B     		cmp	r3, #0
 710 02e2 08D1     		bne	.L41
 711              		.loc 2 170 0
 712 02e4 1F9B     		ldr	r3, [sp, #124]
 713 02e6 002B     		cmp	r3, #0
 714 02e8 04DD     		ble	.L42
ARM GAS  /tmp/cc7aAWvd.s 			page 15


 715              		.loc 2 171 0
 716 02ea 1D98     		ldr	r0, [sp, #116]
 717 02ec 3049     		ldr	r1, .L49+28
 718 02ee FFF7D1FE 		bl	usage
 719              		.loc 2 172 0
 720 02f2 45E0     		b	.L40
 721              	.L42:
 722              		.loc 2 174 0
 723 02f4 45E0     		b	.L35
 724              	.L41:
 725              		.loc 2 176 0
 726 02f6 1E98     		ldr	r0, [sp, #120]
 727 02f8 2E49     		ldr	r1, .L49+32
 728 02fa FFF7FEFF 		bl	strcasecmp
 729 02fe 0346     		mov	r3, r0
 730 0300 002B     		cmp	r3, #0
 731 0302 1BD1     		bne	.L43
 732              		.loc 2 177 0
 733 0304 1F9B     		ldr	r3, [sp, #124]
 734 0306 002B     		cmp	r3, #0
 735 0308 04DD     		ble	.L44
 736              		.loc 2 178 0
 737 030a 1D98     		ldr	r0, [sp, #116]
 738 030c 2949     		ldr	r1, .L49+32
 739 030e FFF7C1FE 		bl	usage
 740              		.loc 2 179 0
 741 0312 35E0     		b	.L40
 742              	.L44:
 743              		.loc 2 181 0
 744 0314 1D98     		ldr	r0, [sp, #116]
 745 0316 2849     		ldr	r1, .L49+36
 746 0318 FFF772FE 		bl	chprintf
 747              		.loc 2 182 0
 748 031c 1D98     		ldr	r0, [sp, #116]
 749 031e 2749     		ldr	r1, .L49+40
 750 0320 FFF7C6FE 		bl	list_commands
 751              		.loc 2 183 0
 752 0324 1C9B     		ldr	r3, [sp, #112]
 753 0326 002B     		cmp	r3, #0
 754 0328 03D0     		beq	.L45
 755              		.loc 2 184 0
 756 032a 1D98     		ldr	r0, [sp, #116]
 757 032c 1C99     		ldr	r1, [sp, #112]
 758 032e FFF7BFFE 		bl	list_commands
 759              	.L45:
 760              		.loc 2 185 0
 761 0332 1D98     		ldr	r0, [sp, #116]
 762 0334 2249     		ldr	r1, .L49+44
 763 0336 FFF763FE 		bl	chprintf
 764 033a 21E0     		b	.L40
 765              	.L43:
 766              		.loc 2 187 0
 767 033c 05AB     		add	r3, sp, #20
 768 033e 0093     		str	r3, [sp]
 769 0340 1E48     		ldr	r0, .L49+40
 770 0342 1D99     		ldr	r1, [sp, #116]
 771 0344 1E9A     		ldr	r2, [sp, #120]
ARM GAS  /tmp/cc7aAWvd.s 			page 16


 772 0346 1F9B     		ldr	r3, [sp, #124]
 773 0348 FFF74AFF 		bl	cmdexec
 774 034c 0346     		mov	r3, r0
 775 034e 002B     		cmp	r3, #0
 776 0350 16D0     		beq	.L40
 777              		.loc 2 187 0 is_stmt 0 discriminator 1
 778 0352 1C9B     		ldr	r3, [sp, #112]
 779 0354 002B     		cmp	r3, #0
 780 0356 0AD0     		beq	.L46
 781              		.loc 2 188 0 is_stmt 1
 782 0358 05AB     		add	r3, sp, #20
 783 035a 0093     		str	r3, [sp]
 784 035c 1C98     		ldr	r0, [sp, #112]
 785 035e 1D99     		ldr	r1, [sp, #116]
 786 0360 1E9A     		ldr	r2, [sp, #120]
 787 0362 1F9B     		ldr	r3, [sp, #124]
 788 0364 FFF73CFF 		bl	cmdexec
 789 0368 0346     		mov	r3, r0
 790 036a 002B     		cmp	r3, #0
 791 036c 08D0     		beq	.L40
 792              	.L46:
 793              		.loc 2 189 0
 794 036e 1D98     		ldr	r0, [sp, #116]
 795 0370 1449     		ldr	r1, .L49+48
 796 0372 1E9A     		ldr	r2, [sp, #120]
 797 0374 FFF744FE 		bl	chprintf
 798              		.loc 2 190 0
 799 0378 1D98     		ldr	r0, [sp, #116]
 800 037a 1349     		ldr	r1, .L49+52
 801 037c FFF740FE 		bl	chprintf
 802              	.L40:
 803              		.loc 2 193 0
 804 0380 63E7     		b	.L47
 805              	.L35:
 806              		.loc 2 194 0
 807 0382 0020     		movs	r0, #0
 808 0384 FFF7FEFF 		bl	shellExit
 809              		.loc 2 196 0
 810 0388 0023     		movs	r3, #0
 811              		.loc 2 197 0
 812 038a 1846     		mov	r0, r3
 813 038c 21B0     		add	sp, sp, #132
 814              		.cfi_def_cfa_offset 4
 815              		@ sp needed
 816 038e 5DF804FB 		ldr	pc, [sp], #4
 817              	.L50:
 818 0392 00BF     		.align	2
 819              	.L49:
 820 0394 00000000 		.word	rlist
 821 0398 90010000 		.word	.LC23
 822 039c 98010000 		.word	.LC24
 823 03a0 B0010000 		.word	.LC25
 824 03a4 B8010000 		.word	.LC26
 825 03a8 C4010000 		.word	.LC27
 826 03ac C8010000 		.word	.LC28
 827 03b0 E0010000 		.word	.LC29
 828 03b4 E8010000 		.word	.LC30
ARM GAS  /tmp/cc7aAWvd.s 			page 17


 829 03b8 F0010000 		.word	.LC31
 830 03bc 00000000 		.word	local_commands
 831 03c0 08020000 		.word	.LC32
 832 03c4 0C020000 		.word	.LC33
 833 03c8 10020000 		.word	.LC34
 834              		.cfi_endproc
 835              	.LFE125:
 836              		.size	shell_thread, .-shell_thread
 837              		.align	2
 838              		.global	shellInit
 839              		.thumb
 840              		.thumb_func
 841              		.type	shellInit, %function
 842              	shellInit:
 843              	.LFB126:
 844              		.loc 2 204 0
 845              		.cfi_startproc
 846              		@ args = 0, pretend = 0, frame = 0
 847              		@ frame_needed = 0, uses_anonymous_args = 0
 848              		@ link register save eliminated.
 849              		.loc 2 206 0
 850 03cc 014B     		ldr	r3, .L52
 851 03ce 014A     		ldr	r2, .L52
 852 03d0 1A60     		str	r2, [r3]
 853              		.loc 2 207 0
 854 03d2 7047     		bx	lr
 855              	.L53:
 856              		.align	2
 857              	.L52:
 858 03d4 00000000 		.word	shell_terminated
 859              		.cfi_endproc
 860              	.LFE126:
 861              		.size	shellInit, .-shellInit
 862              		.align	2
 863              		.global	shellExit
 864              		.thumb
 865              		.thumb_func
 866              		.type	shellExit, %function
 867              	shellExit:
 868              	.LFB127:
 869              		.loc 2 218 0
 870              		.cfi_startproc
 871              		@ args = 0, pretend = 0, frame = 8
 872              		@ frame_needed = 0, uses_anonymous_args = 0
 873 03d8 00B5     		push	{lr}
 874              		.cfi_def_cfa_offset 4
 875              		.cfi_offset 14, -4
 876 03da 83B0     		sub	sp, sp, #12
 877              		.cfi_def_cfa_offset 16
 878 03dc 0190     		str	r0, [sp, #4]
 879              	.LBB2:
 880              		.loc 2 222 0
 881 03de 2023     		movs	r3, #32
 882              	@ 222 "/opt/R2P/core/ChibiOS_2.6.5/os/various/shell.c" 1
 883 03e0 83F31188 		msr     BASEPRI, r3
 884              	@ 0 "" 2
 885              		.thumb
ARM GAS  /tmp/cc7aAWvd.s 			page 18


 886              	.LBE2:
 887 03e4 FFF7FEFF 		bl	dbg_check_lock
 888              		.loc 2 223 0
 889 03e8 0448     		ldr	r0, .L55
 890 03ea 0021     		movs	r1, #0
 891 03ec FFF7FEFF 		bl	chEvtBroadcastFlagsI
 892              		.loc 2 224 0
 893 03f0 0198     		ldr	r0, [sp, #4]
 894 03f2 FFF7FEFF 		bl	chThdExitS
 895              		.loc 2 225 0
 896 03f6 03B0     		add	sp, sp, #12
 897              		.cfi_def_cfa_offset 4
 898              		@ sp needed
 899 03f8 5DF804FB 		ldr	pc, [sp], #4
 900              	.L56:
 901              		.align	2
 902              	.L55:
 903 03fc 00000000 		.word	shell_terminated
 904              		.cfi_endproc
 905              	.LFE127:
 906              		.size	shellExit, .-shellExit
 907              		.align	2
 908              		.global	shellCreate
 909              		.thumb
 910              		.thumb_func
 911              		.type	shellCreate, %function
 912              	shellCreate:
 913              	.LFB128:
 914              		.loc 2 240 0
 915              		.cfi_startproc
 916              		@ args = 0, pretend = 0, frame = 16
 917              		@ frame_needed = 0, uses_anonymous_args = 0
 918 0400 00B5     		push	{lr}
 919              		.cfi_def_cfa_offset 4
 920              		.cfi_offset 14, -4
 921 0402 87B0     		sub	sp, sp, #28
 922              		.cfi_def_cfa_offset 32
 923 0404 0590     		str	r0, [sp, #20]
 924 0406 0491     		str	r1, [sp, #16]
 925 0408 0392     		str	r2, [sp, #12]
 926              		.loc 2 242 0
 927 040a 059B     		ldr	r3, [sp, #20]
 928 040c 0093     		str	r3, [sp]
 929 040e 0020     		movs	r0, #0
 930 0410 0499     		ldr	r1, [sp, #16]
 931 0412 039A     		ldr	r2, [sp, #12]
 932 0414 034B     		ldr	r3, .L59
 933 0416 FFF7FEFF 		bl	chThdCreateFromHeap
 934 041a 0346     		mov	r3, r0
 935              		.loc 2 243 0
 936 041c 1846     		mov	r0, r3
 937 041e 07B0     		add	sp, sp, #28
 938              		.cfi_def_cfa_offset 4
 939              		@ sp needed
 940 0420 5DF804FB 		ldr	pc, [sp], #4
 941              	.L60:
 942              		.align	2
ARM GAS  /tmp/cc7aAWvd.s 			page 19


 943              	.L59:
 944 0424 00000000 		.word	shell_thread
 945              		.cfi_endproc
 946              	.LFE128:
 947              		.size	shellCreate, .-shellCreate
 948              		.align	2
 949              		.global	shellCreateStatic
 950              		.thumb
 951              		.thumb_func
 952              		.type	shellCreateStatic, %function
 953              	shellCreateStatic:
 954              	.LFB129:
 955              		.loc 2 258 0
 956              		.cfi_startproc
 957              		@ args = 0, pretend = 0, frame = 16
 958              		@ frame_needed = 0, uses_anonymous_args = 0
 959 0428 00B5     		push	{lr}
 960              		.cfi_def_cfa_offset 4
 961              		.cfi_offset 14, -4
 962 042a 87B0     		sub	sp, sp, #28
 963              		.cfi_def_cfa_offset 32
 964 042c 0590     		str	r0, [sp, #20]
 965 042e 0491     		str	r1, [sp, #16]
 966 0430 0392     		str	r2, [sp, #12]
 967 0432 0293     		str	r3, [sp, #8]
 968              		.loc 2 260 0
 969 0434 059B     		ldr	r3, [sp, #20]
 970 0436 0093     		str	r3, [sp]
 971 0438 0498     		ldr	r0, [sp, #16]
 972 043a 0399     		ldr	r1, [sp, #12]
 973 043c 029A     		ldr	r2, [sp, #8]
 974 043e 044B     		ldr	r3, .L63
 975 0440 FFF7FEFF 		bl	chThdCreateStatic
 976 0444 0346     		mov	r3, r0
 977              		.loc 2 261 0
 978 0446 1846     		mov	r0, r3
 979 0448 07B0     		add	sp, sp, #28
 980              		.cfi_def_cfa_offset 4
 981              		@ sp needed
 982 044a 5DF804FB 		ldr	pc, [sp], #4
 983              	.L64:
 984 044e 00BF     		.align	2
 985              	.L63:
 986 0450 00000000 		.word	shell_thread
 987              		.cfi_endproc
 988              	.LFE129:
 989              		.size	shellCreateStatic, .-shellCreateStatic
 990              		.section	.rodata
 991 0215 000000   		.align	2
 992              	.LC35:
 993 0218 5E4400   		.ascii	"^D\000"
 994 021b 00       		.text
 995              		.align	2
 996              		.global	shellGetLine
 997              		.thumb
 998              		.thumb_func
 999              		.type	shellGetLine, %function
ARM GAS  /tmp/cc7aAWvd.s 			page 20


 1000              	shellGetLine:
 1001              	.LFB130:
 1002              		.loc 2 275 0
 1003              		.cfi_startproc
 1004              		@ args = 0, pretend = 0, frame = 24
 1005              		@ frame_needed = 0, uses_anonymous_args = 0
 1006 0454 00B5     		push	{lr}
 1007              		.cfi_def_cfa_offset 4
 1008              		.cfi_offset 14, -4
 1009 0456 87B0     		sub	sp, sp, #28
 1010              		.cfi_def_cfa_offset 32
 1011 0458 0390     		str	r0, [sp, #12]
 1012 045a 0291     		str	r1, [sp, #8]
 1013 045c 0192     		str	r2, [sp, #4]
 1014              		.loc 2 276 0
 1015 045e 029B     		ldr	r3, [sp, #8]
 1016 0460 0593     		str	r3, [sp, #20]
 1017              	.L77:
 1018              	.LBB3:
 1019              		.loc 2 281 0
 1020 0462 039B     		ldr	r3, [sp, #12]
 1021 0464 1B68     		ldr	r3, [r3]
 1022 0466 5B68     		ldr	r3, [r3, #4]
 1023 0468 0DF11302 		add	r2, sp, #19
 1024 046c 0398     		ldr	r0, [sp, #12]
 1025 046e 1146     		mov	r1, r2
 1026 0470 0122     		movs	r2, #1
 1027 0472 9847     		blx	r3
 1028 0474 0346     		mov	r3, r0
 1029 0476 002B     		cmp	r3, #0
 1030 0478 01D1     		bne	.L66
 1031              		.loc 2 282 0
 1032 047a 0123     		movs	r3, #1
 1033 047c 54E0     		b	.L76
 1034              	.L66:
 1035              		.loc 2 283 0
 1036 047e 9DF81330 		ldrb	r3, [sp, #19]	@ zero_extendqisi2
 1037 0482 042B     		cmp	r3, #4
 1038 0484 05D1     		bne	.L68
 1039              		.loc 2 284 0
 1040 0486 0398     		ldr	r0, [sp, #12]
 1041 0488 2949     		ldr	r1, .L78
 1042 048a FFF7B9FD 		bl	chprintf
 1043              		.loc 2 285 0
 1044 048e 0123     		movs	r3, #1
 1045 0490 4AE0     		b	.L76
 1046              	.L68:
 1047              		.loc 2 287 0
 1048 0492 9DF81330 		ldrb	r3, [sp, #19]	@ zero_extendqisi2
 1049 0496 082B     		cmp	r3, #8
 1050 0498 1ED1     		bne	.L69
 1051              		.loc 2 288 0
 1052 049a 059A     		ldr	r2, [sp, #20]
 1053 049c 029B     		ldr	r3, [sp, #8]
 1054 049e 9A42     		cmp	r2, r3
 1055 04a0 19D0     		beq	.L70
 1056              		.loc 2 289 0
ARM GAS  /tmp/cc7aAWvd.s 			page 21


 1057 04a2 039B     		ldr	r3, [sp, #12]
 1058 04a4 1B68     		ldr	r3, [r3]
 1059 04a6 9B68     		ldr	r3, [r3, #8]
 1060 04a8 9DF81320 		ldrb	r2, [sp, #19]	@ zero_extendqisi2
 1061 04ac 0398     		ldr	r0, [sp, #12]
 1062 04ae 1146     		mov	r1, r2
 1063 04b0 9847     		blx	r3
 1064              		.loc 2 290 0
 1065 04b2 039B     		ldr	r3, [sp, #12]
 1066 04b4 1B68     		ldr	r3, [r3]
 1067 04b6 9B68     		ldr	r3, [r3, #8]
 1068 04b8 0398     		ldr	r0, [sp, #12]
 1069 04ba 2021     		movs	r1, #32
 1070 04bc 9847     		blx	r3
 1071              		.loc 2 291 0
 1072 04be 039B     		ldr	r3, [sp, #12]
 1073 04c0 1B68     		ldr	r3, [r3]
 1074 04c2 9B68     		ldr	r3, [r3, #8]
 1075 04c4 9DF81320 		ldrb	r2, [sp, #19]	@ zero_extendqisi2
 1076 04c8 0398     		ldr	r0, [sp, #12]
 1077 04ca 1146     		mov	r1, r2
 1078 04cc 9847     		blx	r3
 1079              		.loc 2 292 0
 1080 04ce 059B     		ldr	r3, [sp, #20]
 1081 04d0 013B     		subs	r3, r3, #1
 1082 04d2 0593     		str	r3, [sp, #20]
 1083              		.loc 2 294 0
 1084 04d4 27E0     		b	.L75
 1085              	.L70:
 1086 04d6 26E0     		b	.L75
 1087              	.L69:
 1088              		.loc 2 296 0
 1089 04d8 9DF81330 		ldrb	r3, [sp, #19]	@ zero_extendqisi2
 1090 04dc 0D2B     		cmp	r3, #13
 1091 04de 08D1     		bne	.L72
 1092              		.loc 2 297 0
 1093 04e0 0398     		ldr	r0, [sp, #12]
 1094 04e2 1449     		ldr	r1, .L78+4
 1095 04e4 FFF78CFD 		bl	chprintf
 1096              		.loc 2 298 0
 1097 04e8 059B     		ldr	r3, [sp, #20]
 1098 04ea 0022     		movs	r2, #0
 1099 04ec 1A70     		strb	r2, [r3]
 1100              		.loc 2 299 0
 1101 04ee 0023     		movs	r3, #0
 1102 04f0 1AE0     		b	.L76
 1103              	.L72:
 1104              		.loc 2 301 0
 1105 04f2 9DF81330 		ldrb	r3, [sp, #19]	@ zero_extendqisi2
 1106 04f6 1F2B     		cmp	r3, #31
 1107 04f8 00D8     		bhi	.L73
 1108              		.loc 2 302 0
 1109 04fa 14E0     		b	.L75
 1110              	.L73:
 1111              		.loc 2 303 0
 1112 04fc 019B     		ldr	r3, [sp, #4]
 1113 04fe 013B     		subs	r3, r3, #1
ARM GAS  /tmp/cc7aAWvd.s 			page 22


 1114 0500 029A     		ldr	r2, [sp, #8]
 1115 0502 1A44     		add	r2, r2, r3
 1116 0504 059B     		ldr	r3, [sp, #20]
 1117 0506 9A42     		cmp	r2, r3
 1118 0508 0DD9     		bls	.L75
 1119              		.loc 2 304 0
 1120 050a 039B     		ldr	r3, [sp, #12]
 1121 050c 1B68     		ldr	r3, [r3]
 1122 050e 9B68     		ldr	r3, [r3, #8]
 1123 0510 9DF81320 		ldrb	r2, [sp, #19]	@ zero_extendqisi2
 1124 0514 0398     		ldr	r0, [sp, #12]
 1125 0516 1146     		mov	r1, r2
 1126 0518 9847     		blx	r3
 1127              		.loc 2 305 0
 1128 051a 059B     		ldr	r3, [sp, #20]
 1129 051c 5A1C     		adds	r2, r3, #1
 1130 051e 0592     		str	r2, [sp, #20]
 1131 0520 9DF81320 		ldrb	r2, [sp, #19]	@ zero_extendqisi2
 1132 0524 1A70     		strb	r2, [r3]
 1133              	.L75:
 1134              	.LBE3:
 1135              		.loc 2 307 0 discriminator 1
 1136 0526 9CE7     		b	.L77
 1137              	.L76:
 1138              		.loc 2 308 0
 1139 0528 1846     		mov	r0, r3
 1140 052a 07B0     		add	sp, sp, #28
 1141              		.cfi_def_cfa_offset 4
 1142              		@ sp needed
 1143 052c 5DF804FB 		ldr	pc, [sp], #4
 1144              	.L79:
 1145              		.align	2
 1146              	.L78:
 1147 0530 18020000 		.word	.LC35
 1148 0534 08020000 		.word	.LC32
 1149              		.cfi_endproc
 1150              	.LFE130:
 1151              		.size	shellGetLine, .-shellGetLine
 1152              	.Letext0:
 1153              		.file 3 "/opt/R2P/tools/gcc-arm-none-eabi-4_9-2014q4/lib/gcc/arm-none-eabi/4.9.3/include/stddef.h"
 1154              		.file 4 "/opt/R2P/tools/gcc-arm-none-eabi-4_9-2014q4/arm-none-eabi/include/machine/_default_types.
 1155              		.file 5 "/opt/R2P/tools/gcc-arm-none-eabi-4_9-2014q4/arm-none-eabi/include/stdint.h"
 1156              		.file 6 "/opt/R2P/core/ChibiOS_2.6.5/os/ports/GCC/ARMCMx/chtypes.h"
 1157              		.file 7 "/opt/R2P/core/ChibiOS_2.6.5/os/kernel/include/chlists.h"
 1158              		.file 8 "/opt/R2P/core/ChibiOS_2.6.5/os/kernel/include/chthreads.h"
 1159              		.file 9 "/opt/R2P/core/ChibiOS_2.6.5/os/ports/GCC/ARMCMx/chcore_v7m.h"
 1160              		.file 10 "/opt/R2P/core/ChibiOS_2.6.5/os/kernel/include/chvt.h"
 1161              		.file 11 "/opt/R2P/core/ChibiOS_2.6.5/os/kernel/include/chschd.h"
 1162              		.file 12 "/opt/R2P/core/ChibiOS_2.6.5/os/kernel/include/chmtx.h"
 1163              		.file 13 "/opt/R2P/core/ChibiOS_2.6.5/os/kernel/include/chevents.h"
 1164              		.file 14 "/opt/R2P/core/ChibiOS_2.6.5/os/kernel/include/chstreams.h"
 1165              		.file 15 "/opt/R2P/core/ChibiOS_2.6.5/os/various/shell.h"
 1166              		.file 16 "/opt/R2P/tools/gcc-arm-none-eabi-4_9-2014q4/lib/gcc/arm-none-eabi/4.9.3/include/stdarg.h
 1167              		.file 17 "<built-in>"
 1168              		.file 18 "/opt/R2P/core/ChibiOS_2.6.5/os/ports/common/ARMCMx/CMSIS/include/core_cm4.h"
 1169              		.section	.debug_info,"",%progbits
 1170              	.Ldebug_info0:
ARM GAS  /tmp/cc7aAWvd.s 			page 23


 1171 0000 5C0B0000 		.4byte	0xb5c
 1172 0004 0400     		.2byte	0x4
 1173 0006 00000000 		.4byte	.Ldebug_abbrev0
 1174 000a 04       		.byte	0x4
 1175 000b 01       		.uleb128 0x1
 1176 000c F3030000 		.4byte	.LASF129
 1177 0010 01       		.byte	0x1
 1178 0011 D4000000 		.4byte	.LASF130
 1179 0015 CD020000 		.4byte	.LASF131
 1180 0019 00000000 		.4byte	.Ltext0
 1181 001d 38050000 		.4byte	.Letext0-.Ltext0
 1182 0021 00000000 		.4byte	.Ldebug_line0
 1183 0025 02       		.uleb128 0x2
 1184 0026 04       		.byte	0x4
 1185 0027 05       		.byte	0x5
 1186 0028 696E7400 		.ascii	"int\000"
 1187 002c 03       		.uleb128 0x3
 1188 002d 00000000 		.4byte	.LASF2
 1189 0031 03       		.byte	0x3
 1190 0032 D4       		.byte	0xd4
 1191 0033 37000000 		.4byte	0x37
 1192 0037 04       		.uleb128 0x4
 1193 0038 04       		.byte	0x4
 1194 0039 07       		.byte	0x7
 1195 003a 81010000 		.4byte	.LASF0
 1196 003e 04       		.uleb128 0x4
 1197 003f 01       		.byte	0x1
 1198 0040 06       		.byte	0x6
 1199 0041 7E000000 		.4byte	.LASF1
 1200 0045 03       		.uleb128 0x3
 1201 0046 10000000 		.4byte	.LASF3
 1202 004a 04       		.byte	0x4
 1203 004b 1D       		.byte	0x1d
 1204 004c 50000000 		.4byte	0x50
 1205 0050 04       		.uleb128 0x4
 1206 0051 01       		.byte	0x1
 1207 0052 08       		.byte	0x8
 1208 0053 3B030000 		.4byte	.LASF4
 1209 0057 04       		.uleb128 0x4
 1210 0058 02       		.byte	0x2
 1211 0059 05       		.byte	0x5
 1212 005a 70030000 		.4byte	.LASF5
 1213 005e 04       		.uleb128 0x4
 1214 005f 02       		.byte	0x2
 1215 0060 07       		.byte	0x7
 1216 0061 E2010000 		.4byte	.LASF6
 1217 0065 03       		.uleb128 0x3
 1218 0066 2D020000 		.4byte	.LASF7
 1219 006a 04       		.byte	0x4
 1220 006b 3F       		.byte	0x3f
 1221 006c 70000000 		.4byte	0x70
 1222 0070 04       		.uleb128 0x4
 1223 0071 04       		.byte	0x4
 1224 0072 05       		.byte	0x5
 1225 0073 A4000000 		.4byte	.LASF8
 1226 0077 03       		.uleb128 0x3
 1227 0078 6B010000 		.4byte	.LASF9
ARM GAS  /tmp/cc7aAWvd.s 			page 24


 1228 007c 04       		.byte	0x4
 1229 007d 41       		.byte	0x41
 1230 007e 82000000 		.4byte	0x82
 1231 0082 04       		.uleb128 0x4
 1232 0083 04       		.byte	0x4
 1233 0084 07       		.byte	0x7
 1234 0085 88040000 		.4byte	.LASF10
 1235 0089 04       		.uleb128 0x4
 1236 008a 08       		.byte	0x8
 1237 008b 05       		.byte	0x5
 1238 008c 70000000 		.4byte	.LASF11
 1239 0090 03       		.uleb128 0x3
 1240 0091 C2020000 		.4byte	.LASF12
 1241 0095 04       		.byte	0x4
 1242 0096 5B       		.byte	0x5b
 1243 0097 9B000000 		.4byte	0x9b
 1244 009b 04       		.uleb128 0x4
 1245 009c 08       		.byte	0x8
 1246 009d 07       		.byte	0x7
 1247 009e 33000000 		.4byte	.LASF13
 1248 00a2 04       		.uleb128 0x4
 1249 00a3 04       		.byte	0x4
 1250 00a4 07       		.byte	0x7
 1251 00a5 5A020000 		.4byte	.LASF14
 1252 00a9 05       		.uleb128 0x5
 1253 00aa 04       		.byte	0x4
 1254 00ab 06       		.uleb128 0x6
 1255 00ac 04       		.byte	0x4
 1256 00ad B1000000 		.4byte	0xb1
 1257 00b1 04       		.uleb128 0x4
 1258 00b2 01       		.byte	0x1
 1259 00b3 08       		.byte	0x8
 1260 00b4 A9040000 		.4byte	.LASF15
 1261 00b8 06       		.uleb128 0x6
 1262 00b9 04       		.byte	0x4
 1263 00ba BE000000 		.4byte	0xbe
 1264 00be 07       		.uleb128 0x7
 1265 00bf B1000000 		.4byte	0xb1
 1266 00c3 03       		.uleb128 0x3
 1267 00c4 5C050000 		.4byte	.LASF16
 1268 00c8 05       		.byte	0x5
 1269 00c9 15       		.byte	0x15
 1270 00ca 45000000 		.4byte	0x45
 1271 00ce 03       		.uleb128 0x3
 1272 00cf 33030000 		.4byte	.LASF17
 1273 00d3 05       		.byte	0x5
 1274 00d4 2C       		.byte	0x2c
 1275 00d5 65000000 		.4byte	0x65
 1276 00d9 03       		.uleb128 0x3
 1277 00da D7030000 		.4byte	.LASF18
 1278 00de 05       		.byte	0x5
 1279 00df 2D       		.byte	0x2d
 1280 00e0 77000000 		.4byte	0x77
 1281 00e4 03       		.uleb128 0x3
 1282 00e5 07000000 		.4byte	.LASF19
 1283 00e9 05       		.byte	0x5
 1284 00ea 39       		.byte	0x39
ARM GAS  /tmp/cc7aAWvd.s 			page 25


 1285 00eb 90000000 		.4byte	0x90
 1286 00ef 03       		.uleb128 0x3
 1287 00f0 92000000 		.4byte	.LASF20
 1288 00f4 06       		.byte	0x6
 1289 00f5 2B       		.byte	0x2b
 1290 00f6 FA000000 		.4byte	0xfa
 1291 00fa 04       		.uleb128 0x4
 1292 00fb 01       		.byte	0x1
 1293 00fc 02       		.byte	0x2
 1294 00fd 2D030000 		.4byte	.LASF21
 1295 0101 03       		.uleb128 0x3
 1296 0102 0D020000 		.4byte	.LASF22
 1297 0106 06       		.byte	0x6
 1298 0107 2C       		.byte	0x2c
 1299 0108 C3000000 		.4byte	0xc3
 1300 010c 03       		.uleb128 0x3
 1301 010d BA000000 		.4byte	.LASF23
 1302 0111 06       		.byte	0x6
 1303 0112 2D       		.byte	0x2d
 1304 0113 C3000000 		.4byte	0xc3
 1305 0117 03       		.uleb128 0x3
 1306 0118 06030000 		.4byte	.LASF24
 1307 011c 06       		.byte	0x6
 1308 011d 2E       		.byte	0x2e
 1309 011e C3000000 		.4byte	0xc3
 1310 0122 03       		.uleb128 0x3
 1311 0123 1D030000 		.4byte	.LASF25
 1312 0127 06       		.byte	0x6
 1313 0128 30       		.byte	0x30
 1314 0129 D9000000 		.4byte	0xd9
 1315 012d 03       		.uleb128 0x3
 1316 012e F5010000 		.4byte	.LASF26
 1317 0132 06       		.byte	0x6
 1318 0133 31       		.byte	0x31
 1319 0134 CE000000 		.4byte	0xce
 1320 0138 03       		.uleb128 0x3
 1321 0139 21020000 		.4byte	.LASF27
 1322 013d 06       		.byte	0x6
 1323 013e 33       		.byte	0x33
 1324 013f D9000000 		.4byte	0xd9
 1325 0143 03       		.uleb128 0x3
 1326 0144 2E050000 		.4byte	.LASF28
 1327 0148 06       		.byte	0x6
 1328 0149 34       		.byte	0x34
 1329 014a D9000000 		.4byte	0xd9
 1330 014e 03       		.uleb128 0x3
 1331 014f D0040000 		.4byte	.LASF29
 1332 0153 06       		.byte	0x6
 1333 0154 35       		.byte	0x35
 1334 0155 D9000000 		.4byte	0xd9
 1335 0159 03       		.uleb128 0x3
 1336 015a C5030000 		.4byte	.LASF30
 1337 015e 07       		.byte	0x7
 1338 015f 2A       		.byte	0x2a
 1339 0160 64010000 		.4byte	0x164
 1340 0164 08       		.uleb128 0x8
 1341 0165 C5030000 		.4byte	.LASF30
ARM GAS  /tmp/cc7aAWvd.s 			page 26


 1342 0169 4C       		.byte	0x4c
 1343 016a 08       		.byte	0x8
 1344 016b 5E       		.byte	0x5e
 1345 016c 61020000 		.4byte	0x261
 1346 0170 09       		.uleb128 0x9
 1347 0171 98030000 		.4byte	.LASF31
 1348 0175 08       		.byte	0x8
 1349 0176 5F       		.byte	0x5f
 1350 0177 82020000 		.4byte	0x282
 1351 017b 00       		.byte	0
 1352 017c 09       		.uleb128 0x9
 1353 017d 16030000 		.4byte	.LASF32
 1354 0181 08       		.byte	0x8
 1355 0182 61       		.byte	0x61
 1356 0183 82020000 		.4byte	0x282
 1357 0187 04       		.byte	0x4
 1358 0188 09       		.uleb128 0x9
 1359 0189 69000000 		.4byte	.LASF33
 1360 018d 08       		.byte	0x8
 1361 018e 63       		.byte	0x63
 1362 018f 22010000 		.4byte	0x122
 1363 0193 08       		.byte	0x8
 1364 0194 09       		.uleb128 0x9
 1365 0195 B7050000 		.4byte	.LASF34
 1366 0199 08       		.byte	0x8
 1367 019a 64       		.byte	0x64
 1368 019b 45030000 		.4byte	0x345
 1369 019f 0C       		.byte	0xc
 1370 01a0 09       		.uleb128 0x9
 1371 01a1 0F010000 		.4byte	.LASF35
 1372 01a5 08       		.byte	0x8
 1373 01a6 66       		.byte	0x66
 1374 01a7 82020000 		.4byte	0x282
 1375 01ab 10       		.byte	0x10
 1376 01ac 09       		.uleb128 0x9
 1377 01ad 80020000 		.4byte	.LASF36
 1378 01b1 08       		.byte	0x8
 1379 01b2 67       		.byte	0x67
 1380 01b3 82020000 		.4byte	0x282
 1381 01b7 14       		.byte	0x14
 1382 01b8 09       		.uleb128 0x9
 1383 01b9 FA040000 		.4byte	.LASF37
 1384 01bd 08       		.byte	0x8
 1385 01be 6E       		.byte	0x6e
 1386 01bf B8000000 		.4byte	0xb8
 1387 01c3 18       		.byte	0x18
 1388 01c4 09       		.uleb128 0x9
 1389 01c5 76010000 		.4byte	.LASF38
 1390 01c9 08       		.byte	0x8
 1391 01ca 74       		.byte	0x74
 1392 01cb 6A050000 		.4byte	0x56a
 1393 01cf 1C       		.byte	0x1c
 1394 01d0 09       		.uleb128 0x9
 1395 01d1 7A030000 		.4byte	.LASF39
 1396 01d5 08       		.byte	0x8
 1397 01d6 79       		.byte	0x79
 1398 01d7 0C010000 		.4byte	0x10c
ARM GAS  /tmp/cc7aAWvd.s 			page 27


 1399 01db 20       		.byte	0x20
 1400 01dc 09       		.uleb128 0x9
 1401 01dd BD030000 		.4byte	.LASF40
 1402 01e1 08       		.byte	0x8
 1403 01e2 7D       		.byte	0x7d
 1404 01e3 01010000 		.4byte	0x101
 1405 01e7 21       		.byte	0x21
 1406 01e8 09       		.uleb128 0x9
 1407 01e9 CD000000 		.4byte	.LASF41
 1408 01ed 08       		.byte	0x8
 1409 01ee 82       		.byte	0x82
 1410 01ef 17010000 		.4byte	0x117
 1411 01f3 22       		.byte	0x22
 1412 01f4 09       		.uleb128 0x9
 1413 01f5 03010000 		.4byte	.LASF42
 1414 01f9 08       		.byte	0x8
 1415 01fa 8F       		.byte	0x8f
 1416 01fb 15040000 		.4byte	0x415
 1417 01ff 24       		.byte	0x24
 1418 0200 0A       		.uleb128 0xa
 1419 0201 705F7500 		.ascii	"p_u\000"
 1420 0205 08       		.byte	0x8
 1421 0206 B4       		.byte	0xb4
 1422 0207 35050000 		.4byte	0x535
 1423 020b 28       		.byte	0x28
 1424 020c 09       		.uleb128 0x9
 1425 020d 50020000 		.4byte	.LASF43
 1426 0211 08       		.byte	0x8
 1427 0212 B9       		.byte	0xb9
 1428 0213 A8020000 		.4byte	0x2a8
 1429 0217 2C       		.byte	0x2c
 1430 0218 09       		.uleb128 0x9
 1431 0219 A2010000 		.4byte	.LASF44
 1432 021d 08       		.byte	0x8
 1433 021e BF       		.byte	0xbf
 1434 021f 88020000 		.4byte	0x288
 1435 0223 30       		.byte	0x30
 1436 0224 09       		.uleb128 0x9
 1437 0225 98050000 		.4byte	.LASF45
 1438 0229 08       		.byte	0x8
 1439 022a C3       		.byte	0xc3
 1440 022b 2D010000 		.4byte	0x12d
 1441 022f 38       		.byte	0x38
 1442 0230 09       		.uleb128 0x9
 1443 0231 CC030000 		.4byte	.LASF46
 1444 0235 08       		.byte	0x8
 1445 0236 C9       		.byte	0xc9
 1446 0237 38010000 		.4byte	0x138
 1447 023b 3C       		.byte	0x3c
 1448 023c 09       		.uleb128 0x9
 1449 023d 66030000 		.4byte	.LASF47
 1450 0241 08       		.byte	0x8
 1451 0242 D0       		.byte	0xd0
 1452 0243 70050000 		.4byte	0x570
 1453 0247 40       		.byte	0x40
 1454 0248 09       		.uleb128 0x9
 1455 0249 DA040000 		.4byte	.LASF48
ARM GAS  /tmp/cc7aAWvd.s 			page 28


 1456 024d 08       		.byte	0x8
 1457 024e D4       		.byte	0xd4
 1458 024f 22010000 		.4byte	0x122
 1459 0253 44       		.byte	0x44
 1460 0254 09       		.uleb128 0x9
 1461 0255 8A000000 		.4byte	.LASF49
 1462 0259 08       		.byte	0x8
 1463 025a DA       		.byte	0xda
 1464 025b A9000000 		.4byte	0xa9
 1465 025f 48       		.byte	0x48
 1466 0260 00       		.byte	0
 1467 0261 0B       		.uleb128 0xb
 1468 0262 08       		.byte	0x8
 1469 0263 07       		.byte	0x7
 1470 0264 61       		.byte	0x61
 1471 0265 82020000 		.4byte	0x282
 1472 0269 09       		.uleb128 0x9
 1473 026a 98030000 		.4byte	.LASF31
 1474 026e 07       		.byte	0x7
 1475 026f 62       		.byte	0x62
 1476 0270 82020000 		.4byte	0x282
 1477 0274 00       		.byte	0
 1478 0275 09       		.uleb128 0x9
 1479 0276 16030000 		.4byte	.LASF32
 1480 027a 07       		.byte	0x7
 1481 027b 64       		.byte	0x64
 1482 027c 82020000 		.4byte	0x282
 1483 0280 04       		.byte	0x4
 1484 0281 00       		.byte	0
 1485 0282 06       		.uleb128 0x6
 1486 0283 04       		.byte	0x4
 1487 0284 59010000 		.4byte	0x159
 1488 0288 03       		.uleb128 0x3
 1489 0289 8E020000 		.4byte	.LASF50
 1490 028d 07       		.byte	0x7
 1491 028e 66       		.byte	0x66
 1492 028f 61020000 		.4byte	0x261
 1493 0293 0B       		.uleb128 0xb
 1494 0294 04       		.byte	0x4
 1495 0295 07       		.byte	0x7
 1496 0296 6B       		.byte	0x6b
 1497 0297 A8020000 		.4byte	0x2a8
 1498 029b 09       		.uleb128 0x9
 1499 029c 98030000 		.4byte	.LASF31
 1500 02a0 07       		.byte	0x7
 1501 02a1 6D       		.byte	0x6d
 1502 02a2 82020000 		.4byte	0x282
 1503 02a6 00       		.byte	0
 1504 02a7 00       		.byte	0
 1505 02a8 03       		.uleb128 0x3
 1506 02a9 15020000 		.4byte	.LASF51
 1507 02ad 07       		.byte	0x7
 1508 02ae 70       		.byte	0x70
 1509 02af 93020000 		.4byte	0x293
 1510 02b3 03       		.uleb128 0x3
 1511 02b4 24010000 		.4byte	.LASF52
 1512 02b8 09       		.byte	0x9
ARM GAS  /tmp/cc7aAWvd.s 			page 29


 1513 02b9 E5       		.byte	0xe5
 1514 02ba A9000000 		.4byte	0xa9
 1515 02be 03       		.uleb128 0x3
 1516 02bf 37020000 		.4byte	.LASF53
 1517 02c3 09       		.byte	0x9
 1518 02c4 EB       		.byte	0xeb
 1519 02c5 E4000000 		.4byte	0xe4
 1520 02c9 0C       		.uleb128 0xc
 1521 02ca 1A050000 		.4byte	.LASF54
 1522 02ce 24       		.byte	0x24
 1523 02cf 09       		.byte	0x9
 1524 02d0 0C01     		.2byte	0x10c
 1525 02d2 45030000 		.4byte	0x345
 1526 02d6 0D       		.uleb128 0xd
 1527 02d7 723400   		.ascii	"r4\000"
 1528 02da 09       		.byte	0x9
 1529 02db 1F01     		.2byte	0x11f
 1530 02dd B3020000 		.4byte	0x2b3
 1531 02e1 00       		.byte	0
 1532 02e2 0D       		.uleb128 0xd
 1533 02e3 723500   		.ascii	"r5\000"
 1534 02e6 09       		.byte	0x9
 1535 02e7 2001     		.2byte	0x120
 1536 02e9 B3020000 		.4byte	0x2b3
 1537 02ed 04       		.byte	0x4
 1538 02ee 0D       		.uleb128 0xd
 1539 02ef 723600   		.ascii	"r6\000"
 1540 02f2 09       		.byte	0x9
 1541 02f3 2101     		.2byte	0x121
 1542 02f5 B3020000 		.4byte	0x2b3
 1543 02f9 08       		.byte	0x8
 1544 02fa 0D       		.uleb128 0xd
 1545 02fb 723700   		.ascii	"r7\000"
 1546 02fe 09       		.byte	0x9
 1547 02ff 2201     		.2byte	0x122
 1548 0301 B3020000 		.4byte	0x2b3
 1549 0305 0C       		.byte	0xc
 1550 0306 0D       		.uleb128 0xd
 1551 0307 723800   		.ascii	"r8\000"
 1552 030a 09       		.byte	0x9
 1553 030b 2301     		.2byte	0x123
 1554 030d B3020000 		.4byte	0x2b3
 1555 0311 10       		.byte	0x10
 1556 0312 0D       		.uleb128 0xd
 1557 0313 723900   		.ascii	"r9\000"
 1558 0316 09       		.byte	0x9
 1559 0317 2401     		.2byte	0x124
 1560 0319 B3020000 		.4byte	0x2b3
 1561 031d 14       		.byte	0x14
 1562 031e 0D       		.uleb128 0xd
 1563 031f 72313000 		.ascii	"r10\000"
 1564 0323 09       		.byte	0x9
 1565 0324 2501     		.2byte	0x125
 1566 0326 B3020000 		.4byte	0x2b3
 1567 032a 18       		.byte	0x18
 1568 032b 0D       		.uleb128 0xd
 1569 032c 72313100 		.ascii	"r11\000"
ARM GAS  /tmp/cc7aAWvd.s 			page 30


 1570 0330 09       		.byte	0x9
 1571 0331 2601     		.2byte	0x126
 1572 0333 B3020000 		.4byte	0x2b3
 1573 0337 1C       		.byte	0x1c
 1574 0338 0D       		.uleb128 0xd
 1575 0339 6C7200   		.ascii	"lr\000"
 1576 033c 09       		.byte	0x9
 1577 033d 2701     		.2byte	0x127
 1578 033f B3020000 		.4byte	0x2b3
 1579 0343 20       		.byte	0x20
 1580 0344 00       		.byte	0
 1581 0345 0C       		.uleb128 0xc
 1582 0346 06050000 		.4byte	.LASF55
 1583 034a 04       		.byte	0x4
 1584 034b 09       		.byte	0x9
 1585 034c 3101     		.2byte	0x131
 1586 034e 60030000 		.4byte	0x360
 1587 0352 0D       		.uleb128 0xd
 1588 0353 72313300 		.ascii	"r13\000"
 1589 0357 09       		.byte	0x9
 1590 0358 3201     		.2byte	0x132
 1591 035a 60030000 		.4byte	0x360
 1592 035e 00       		.byte	0
 1593 035f 00       		.byte	0
 1594 0360 06       		.uleb128 0x6
 1595 0361 04       		.byte	0x4
 1596 0362 C9020000 		.4byte	0x2c9
 1597 0366 03       		.uleb128 0x3
 1598 0367 E5040000 		.4byte	.LASF56
 1599 036b 0A       		.byte	0xa
 1600 036c 58       		.byte	0x58
 1601 036d 71030000 		.4byte	0x371
 1602 0371 06       		.uleb128 0x6
 1603 0372 04       		.byte	0x4
 1604 0373 77030000 		.4byte	0x377
 1605 0377 0E       		.uleb128 0xe
 1606 0378 82030000 		.4byte	0x382
 1607 037c 0F       		.uleb128 0xf
 1608 037d A9000000 		.4byte	0xa9
 1609 0381 00       		.byte	0
 1610 0382 03       		.uleb128 0x3
 1611 0383 B2010000 		.4byte	.LASF57
 1612 0387 0A       		.byte	0xa
 1613 0388 5D       		.byte	0x5d
 1614 0389 8D030000 		.4byte	0x38d
 1615 038d 08       		.uleb128 0x8
 1616 038e B2010000 		.4byte	.LASF57
 1617 0392 14       		.byte	0x14
 1618 0393 0A       		.byte	0xa
 1619 0394 64       		.byte	0x64
 1620 0395 D6030000 		.4byte	0x3d6
 1621 0399 09       		.uleb128 0x9
 1622 039a 8E010000 		.4byte	.LASF58
 1623 039e 0A       		.byte	0xa
 1624 039f 65       		.byte	0x65
 1625 03a0 D6030000 		.4byte	0x3d6
 1626 03a4 00       		.byte	0
ARM GAS  /tmp/cc7aAWvd.s 			page 31


 1627 03a5 09       		.uleb128 0x9
 1628 03a6 2D010000 		.4byte	.LASF59
 1629 03aa 0A       		.byte	0xa
 1630 03ab 67       		.byte	0x67
 1631 03ac D6030000 		.4byte	0x3d6
 1632 03b0 04       		.byte	0x4
 1633 03b1 09       		.uleb128 0x9
 1634 03b2 48020000 		.4byte	.LASF60
 1635 03b6 0A       		.byte	0xa
 1636 03b7 69       		.byte	0x69
 1637 03b8 4E010000 		.4byte	0x14e
 1638 03bc 08       		.byte	0x8
 1639 03bd 09       		.uleb128 0x9
 1640 03be BD050000 		.4byte	.LASF61
 1641 03c2 0A       		.byte	0xa
 1642 03c3 6A       		.byte	0x6a
 1643 03c4 66030000 		.4byte	0x366
 1644 03c8 0C       		.byte	0xc
 1645 03c9 09       		.uleb128 0x9
 1646 03ca 27050000 		.4byte	.LASF62
 1647 03ce 0A       		.byte	0xa
 1648 03cf 6C       		.byte	0x6c
 1649 03d0 A9000000 		.4byte	0xa9
 1650 03d4 10       		.byte	0x10
 1651 03d5 00       		.byte	0
 1652 03d6 06       		.uleb128 0x6
 1653 03d7 04       		.byte	0x4
 1654 03d8 82030000 		.4byte	0x382
 1655 03dc 0B       		.uleb128 0xb
 1656 03dd 10       		.byte	0x10
 1657 03de 0A       		.byte	0xa
 1658 03df 76       		.byte	0x76
 1659 03e0 15040000 		.4byte	0x415
 1660 03e4 09       		.uleb128 0x9
 1661 03e5 8E010000 		.4byte	.LASF58
 1662 03e9 0A       		.byte	0xa
 1663 03ea 77       		.byte	0x77
 1664 03eb D6030000 		.4byte	0x3d6
 1665 03ef 00       		.byte	0
 1666 03f0 09       		.uleb128 0x9
 1667 03f1 2D010000 		.4byte	.LASF59
 1668 03f5 0A       		.byte	0xa
 1669 03f6 79       		.byte	0x79
 1670 03f7 D6030000 		.4byte	0x3d6
 1671 03fb 04       		.byte	0x4
 1672 03fc 09       		.uleb128 0x9
 1673 03fd 48020000 		.4byte	.LASF60
 1674 0401 0A       		.byte	0xa
 1675 0402 7B       		.byte	0x7b
 1676 0403 4E010000 		.4byte	0x14e
 1677 0407 08       		.byte	0x8
 1678 0408 09       		.uleb128 0x9
 1679 0409 E8030000 		.4byte	.LASF63
 1680 040d 0A       		.byte	0xa
 1681 040e 7C       		.byte	0x7c
 1682 040f 15040000 		.4byte	0x415
 1683 0413 0C       		.byte	0xc
ARM GAS  /tmp/cc7aAWvd.s 			page 32


 1684 0414 00       		.byte	0
 1685 0415 10       		.uleb128 0x10
 1686 0416 4E010000 		.4byte	0x14e
 1687 041a 03       		.uleb128 0x3
 1688 041b 9E050000 		.4byte	.LASF64
 1689 041f 0A       		.byte	0xa
 1690 0420 7D       		.byte	0x7d
 1691 0421 DC030000 		.4byte	0x3dc
 1692 0425 0B       		.uleb128 0xb
 1693 0426 1C       		.byte	0x1c
 1694 0427 0B       		.byte	0xb
 1695 0428 5E       		.byte	0x5e
 1696 0429 76040000 		.4byte	0x476
 1697 042d 09       		.uleb128 0x9
 1698 042e E0030000 		.4byte	.LASF65
 1699 0432 0B       		.byte	0xb
 1700 0433 5F       		.byte	0x5f
 1701 0434 88020000 		.4byte	0x288
 1702 0438 00       		.byte	0
 1703 0439 09       		.uleb128 0x9
 1704 043a 8A030000 		.4byte	.LASF66
 1705 043e 0B       		.byte	0xb
 1706 043f 60       		.byte	0x60
 1707 0440 22010000 		.4byte	0x122
 1708 0444 08       		.byte	0x8
 1709 0445 09       		.uleb128 0x9
 1710 0446 88020000 		.4byte	.LASF67
 1711 044a 0B       		.byte	0xb
 1712 044b 62       		.byte	0x62
 1713 044c 45030000 		.4byte	0x345
 1714 0450 0C       		.byte	0xc
 1715 0451 09       		.uleb128 0x9
 1716 0452 1C010000 		.4byte	.LASF68
 1717 0456 0B       		.byte	0xb
 1718 0457 65       		.byte	0x65
 1719 0458 82020000 		.4byte	0x282
 1720 045c 10       		.byte	0x10
 1721 045d 09       		.uleb128 0x9
 1722 045e BA020000 		.4byte	.LASF69
 1723 0462 0B       		.byte	0xb
 1724 0463 66       		.byte	0x66
 1725 0464 82020000 		.4byte	0x282
 1726 0468 14       		.byte	0x14
 1727 0469 09       		.uleb128 0x9
 1728 046a 9A040000 		.4byte	.LASF70
 1729 046e 0B       		.byte	0xb
 1730 046f 69       		.byte	0x69
 1731 0470 82020000 		.4byte	0x282
 1732 0474 18       		.byte	0x18
 1733 0475 00       		.byte	0
 1734 0476 03       		.uleb128 0x3
 1735 0477 29000000 		.4byte	.LASF71
 1736 047b 0B       		.byte	0xb
 1737 047c 6B       		.byte	0x6b
 1738 047d 25040000 		.4byte	0x425
 1739 0481 08       		.uleb128 0x8
 1740 0482 63020000 		.4byte	.LASF72
ARM GAS  /tmp/cc7aAWvd.s 			page 33


 1741 0486 10       		.byte	0x10
 1742 0487 0C       		.byte	0xc
 1743 0488 2C       		.byte	0x2c
 1744 0489 B2040000 		.4byte	0x4b2
 1745 048d 09       		.uleb128 0x9
 1746 048e 49030000 		.4byte	.LASF73
 1747 0492 0C       		.byte	0xc
 1748 0493 2D       		.byte	0x2d
 1749 0494 88020000 		.4byte	0x288
 1750 0498 00       		.byte	0
 1751 0499 09       		.uleb128 0x9
 1752 049a AF050000 		.4byte	.LASF74
 1753 049e 0C       		.byte	0xc
 1754 049f 2F       		.byte	0x2f
 1755 04a0 82020000 		.4byte	0x282
 1756 04a4 08       		.byte	0x8
 1757 04a5 09       		.uleb128 0x9
 1758 04a6 C9040000 		.4byte	.LASF75
 1759 04aa 0C       		.byte	0xc
 1760 04ab 31       		.byte	0x31
 1761 04ac B2040000 		.4byte	0x4b2
 1762 04b0 0C       		.byte	0xc
 1763 04b1 00       		.byte	0
 1764 04b2 06       		.uleb128 0x6
 1765 04b3 04       		.byte	0x4
 1766 04b4 81040000 		.4byte	0x481
 1767 04b8 03       		.uleb128 0x3
 1768 04b9 63020000 		.4byte	.LASF72
 1769 04bd 0C       		.byte	0xc
 1770 04be 33       		.byte	0x33
 1771 04bf 81040000 		.4byte	0x481
 1772 04c3 03       		.uleb128 0x3
 1773 04c4 70050000 		.4byte	.LASF76
 1774 04c8 0D       		.byte	0xd
 1775 04c9 2C       		.byte	0x2c
 1776 04ca CE040000 		.4byte	0x4ce
 1777 04ce 08       		.uleb128 0x8
 1778 04cf 70050000 		.4byte	.LASF76
 1779 04d3 10       		.byte	0x10
 1780 04d4 0D       		.byte	0xd
 1781 04d5 31       		.byte	0x31
 1782 04d6 0B050000 		.4byte	0x50b
 1783 04da 09       		.uleb128 0x9
 1784 04db 05020000 		.4byte	.LASF77
 1785 04df 0D       		.byte	0xd
 1786 04e0 32       		.byte	0x32
 1787 04e1 0B050000 		.4byte	0x50b
 1788 04e5 00       		.byte	0
 1789 04e6 09       		.uleb128 0x9
 1790 04e7 51030000 		.4byte	.LASF78
 1791 04eb 0D       		.byte	0xd
 1792 04ec 35       		.byte	0x35
 1793 04ed 82020000 		.4byte	0x282
 1794 04f1 04       		.byte	0x4
 1795 04f2 09       		.uleb128 0x9
 1796 04f3 78020000 		.4byte	.LASF79
 1797 04f7 0D       		.byte	0xd
ARM GAS  /tmp/cc7aAWvd.s 			page 34


 1798 04f8 37       		.byte	0x37
 1799 04f9 38010000 		.4byte	0x138
 1800 04fd 08       		.byte	0x8
 1801 04fe 09       		.uleb128 0x9
 1802 04ff 5D030000 		.4byte	.LASF80
 1803 0503 0D       		.byte	0xd
 1804 0504 3A       		.byte	0x3a
 1805 0505 43010000 		.4byte	0x143
 1806 0509 0C       		.byte	0xc
 1807 050a 00       		.byte	0
 1808 050b 06       		.uleb128 0x6
 1809 050c 04       		.byte	0x4
 1810 050d C3040000 		.4byte	0x4c3
 1811 0511 08       		.uleb128 0x8
 1812 0512 4A010000 		.4byte	.LASF81
 1813 0516 04       		.byte	0x4
 1814 0517 0D       		.byte	0xd
 1815 0518 41       		.byte	0x41
 1816 0519 2A050000 		.4byte	0x52a
 1817 051d 09       		.uleb128 0x9
 1818 051e 41050000 		.4byte	.LASF82
 1819 0522 0D       		.byte	0xd
 1820 0523 42       		.byte	0x42
 1821 0524 0B050000 		.4byte	0x50b
 1822 0528 00       		.byte	0
 1823 0529 00       		.byte	0
 1824 052a 03       		.uleb128 0x3
 1825 052b 4A010000 		.4byte	.LASF81
 1826 052f 0D       		.byte	0xd
 1827 0530 45       		.byte	0x45
 1828 0531 11050000 		.4byte	0x511
 1829 0535 11       		.uleb128 0x11
 1830 0536 04       		.byte	0x4
 1831 0537 08       		.byte	0x8
 1832 0538 96       		.byte	0x96
 1833 0539 6A050000 		.4byte	0x56a
 1834 053d 12       		.uleb128 0x12
 1835 053e 3A050000 		.4byte	.LASF83
 1836 0542 08       		.byte	0x8
 1837 0543 9D       		.byte	0x9d
 1838 0544 2D010000 		.4byte	0x12d
 1839 0548 12       		.uleb128 0x12
 1840 0549 4A000000 		.4byte	.LASF84
 1841 054d 08       		.byte	0x8
 1842 054e A4       		.byte	0xa4
 1843 054f 2D010000 		.4byte	0x12d
 1844 0553 12       		.uleb128 0x12
 1845 0554 7E050000 		.4byte	.LASF85
 1846 0558 08       		.byte	0x8
 1847 0559 AB       		.byte	0xab
 1848 055a A9000000 		.4byte	0xa9
 1849 055e 12       		.uleb128 0x12
 1850 055f 91030000 		.4byte	.LASF86
 1851 0563 08       		.byte	0x8
 1852 0564 B2       		.byte	0xb2
 1853 0565 38010000 		.4byte	0x138
 1854 0569 00       		.byte	0
ARM GAS  /tmp/cc7aAWvd.s 			page 35


 1855 056a 06       		.uleb128 0x6
 1856 056b 04       		.byte	0x4
 1857 056c BE020000 		.4byte	0x2be
 1858 0570 06       		.uleb128 0x6
 1859 0571 04       		.byte	0x4
 1860 0572 B8040000 		.4byte	0x4b8
 1861 0576 06       		.uleb128 0x6
 1862 0577 04       		.byte	0x4
 1863 0578 7C050000 		.4byte	0x57c
 1864 057c 13       		.uleb128 0x13
 1865 057d 2D010000 		.4byte	0x12d
 1866 0581 8B050000 		.4byte	0x58b
 1867 0585 0F       		.uleb128 0xf
 1868 0586 A9000000 		.4byte	0xa9
 1869 058a 00       		.byte	0
 1870 058b 06       		.uleb128 0x6
 1871 058c 04       		.byte	0x4
 1872 058d C3000000 		.4byte	0xc3
 1873 0591 08       		.uleb128 0x8
 1874 0592 A5030000 		.4byte	.LASF87
 1875 0596 10       		.byte	0x10
 1876 0597 0E       		.byte	0xe
 1877 0598 48       		.byte	0x48
 1878 0599 CE050000 		.4byte	0x5ce
 1879 059d 09       		.uleb128 0x9
 1880 059e 42020000 		.4byte	.LASF88
 1881 05a2 0E       		.byte	0xe
 1882 05a3 49       		.byte	0x49
 1883 05a4 F2050000 		.4byte	0x5f2
 1884 05a8 00       		.byte	0
 1885 05a9 09       		.uleb128 0x9
 1886 05aa A4040000 		.4byte	.LASF89
 1887 05ae 0E       		.byte	0xe
 1888 05af 49       		.byte	0x49
 1889 05b0 11060000 		.4byte	0x611
 1890 05b4 04       		.byte	0x4
 1891 05b5 0A       		.uleb128 0xa
 1892 05b6 70757400 		.ascii	"put\000"
 1893 05ba 0E       		.byte	0xe
 1894 05bb 49       		.byte	0x49
 1895 05bc 2B060000 		.4byte	0x62b
 1896 05c0 08       		.byte	0x8
 1897 05c1 0A       		.uleb128 0xa
 1898 05c2 67657400 		.ascii	"get\000"
 1899 05c6 0E       		.byte	0xe
 1900 05c7 49       		.byte	0x49
 1901 05c8 76050000 		.4byte	0x576
 1902 05cc 0C       		.byte	0xc
 1903 05cd 00       		.byte	0
 1904 05ce 13       		.uleb128 0x13
 1905 05cf 2C000000 		.4byte	0x2c
 1906 05d3 E7050000 		.4byte	0x5e7
 1907 05d7 0F       		.uleb128 0xf
 1908 05d8 A9000000 		.4byte	0xa9
 1909 05dc 0F       		.uleb128 0xf
 1910 05dd E7050000 		.4byte	0x5e7
 1911 05e1 0F       		.uleb128 0xf
ARM GAS  /tmp/cc7aAWvd.s 			page 36


 1912 05e2 2C000000 		.4byte	0x2c
 1913 05e6 00       		.byte	0
 1914 05e7 06       		.uleb128 0x6
 1915 05e8 04       		.byte	0x4
 1916 05e9 ED050000 		.4byte	0x5ed
 1917 05ed 07       		.uleb128 0x7
 1918 05ee C3000000 		.4byte	0xc3
 1919 05f2 06       		.uleb128 0x6
 1920 05f3 04       		.byte	0x4
 1921 05f4 CE050000 		.4byte	0x5ce
 1922 05f8 13       		.uleb128 0x13
 1923 05f9 2C000000 		.4byte	0x2c
 1924 05fd 11060000 		.4byte	0x611
 1925 0601 0F       		.uleb128 0xf
 1926 0602 A9000000 		.4byte	0xa9
 1927 0606 0F       		.uleb128 0xf
 1928 0607 8B050000 		.4byte	0x58b
 1929 060b 0F       		.uleb128 0xf
 1930 060c 2C000000 		.4byte	0x2c
 1931 0610 00       		.byte	0
 1932 0611 06       		.uleb128 0x6
 1933 0612 04       		.byte	0x4
 1934 0613 F8050000 		.4byte	0x5f8
 1935 0617 13       		.uleb128 0x13
 1936 0618 2D010000 		.4byte	0x12d
 1937 061c 2B060000 		.4byte	0x62b
 1938 0620 0F       		.uleb128 0xf
 1939 0621 A9000000 		.4byte	0xa9
 1940 0625 0F       		.uleb128 0xf
 1941 0626 C3000000 		.4byte	0xc3
 1942 062a 00       		.byte	0
 1943 062b 06       		.uleb128 0x6
 1944 062c 04       		.byte	0x4
 1945 062d 17060000 		.4byte	0x617
 1946 0631 0B       		.uleb128 0xb
 1947 0632 04       		.byte	0x4
 1948 0633 0E       		.byte	0xe
 1949 0634 51       		.byte	0x51
 1950 0635 46060000 		.4byte	0x646
 1951 0639 0A       		.uleb128 0xa
 1952 063a 766D7400 		.ascii	"vmt\000"
 1953 063e 0E       		.byte	0xe
 1954 063f 53       		.byte	0x53
 1955 0640 46060000 		.4byte	0x646
 1956 0644 00       		.byte	0
 1957 0645 00       		.byte	0
 1958 0646 06       		.uleb128 0x6
 1959 0647 04       		.byte	0x4
 1960 0648 4C060000 		.4byte	0x64c
 1961 064c 07       		.uleb128 0x7
 1962 064d 91050000 		.4byte	0x591
 1963 0651 03       		.uleb128 0x3
 1964 0652 56010000 		.4byte	.LASF90
 1965 0656 0E       		.byte	0xe
 1966 0657 55       		.byte	0x55
 1967 0658 31060000 		.4byte	0x631
 1968 065c 10       		.uleb128 0x10
ARM GAS  /tmp/cc7aAWvd.s 			page 37


 1969 065d CE000000 		.4byte	0xce
 1970 0661 03       		.uleb128 0x3
 1971 0662 9B020000 		.4byte	.LASF91
 1972 0666 0F       		.byte	0xf
 1973 0667 2D       		.byte	0x2d
 1974 0668 6C060000 		.4byte	0x66c
 1975 066c 06       		.uleb128 0x6
 1976 066d 04       		.byte	0x4
 1977 066e 72060000 		.4byte	0x672
 1978 0672 0E       		.uleb128 0xe
 1979 0673 87060000 		.4byte	0x687
 1980 0677 0F       		.uleb128 0xf
 1981 0678 87060000 		.4byte	0x687
 1982 067c 0F       		.uleb128 0xf
 1983 067d 25000000 		.4byte	0x25
 1984 0681 0F       		.uleb128 0xf
 1985 0682 8D060000 		.4byte	0x68d
 1986 0686 00       		.byte	0
 1987 0687 06       		.uleb128 0x6
 1988 0688 04       		.byte	0x4
 1989 0689 51060000 		.4byte	0x651
 1990 068d 06       		.uleb128 0x6
 1991 068e 04       		.byte	0x4
 1992 068f AB000000 		.4byte	0xab
 1993 0693 0B       		.uleb128 0xb
 1994 0694 08       		.byte	0x8
 1995 0695 0F       		.byte	0xf
 1996 0696 32       		.byte	0x32
 1997 0697 B4060000 		.4byte	0x6b4
 1998 069b 09       		.uleb128 0x9
 1999 069c 42010000 		.4byte	.LASF92
 2000 06a0 0F       		.byte	0xf
 2001 06a1 33       		.byte	0x33
 2002 06a2 B8000000 		.4byte	0xb8
 2003 06a6 00       		.byte	0
 2004 06a7 09       		.uleb128 0x9
 2005 06a8 64050000 		.4byte	.LASF93
 2006 06ac 0F       		.byte	0xf
 2007 06ad 34       		.byte	0x34
 2008 06ae 61060000 		.4byte	0x661
 2009 06b2 04       		.byte	0x4
 2010 06b3 00       		.byte	0
 2011 06b4 03       		.uleb128 0x3
 2012 06b5 AD000000 		.4byte	.LASF94
 2013 06b9 0F       		.byte	0xf
 2014 06ba 35       		.byte	0x35
 2015 06bb 93060000 		.4byte	0x693
 2016 06bf 0B       		.uleb128 0xb
 2017 06c0 08       		.byte	0x8
 2018 06c1 0F       		.byte	0xf
 2019 06c2 3A       		.byte	0x3a
 2020 06c3 E0060000 		.4byte	0x6e0
 2021 06c7 09       		.uleb128 0x9
 2022 06c8 99000000 		.4byte	.LASF95
 2023 06cc 0F       		.byte	0xf
 2024 06cd 3B       		.byte	0x3b
 2025 06ce 87060000 		.4byte	0x687
ARM GAS  /tmp/cc7aAWvd.s 			page 38


 2026 06d2 00       		.byte	0
 2027 06d3 09       		.uleb128 0x9
 2028 06d4 96010000 		.4byte	.LASF96
 2029 06d8 0F       		.byte	0xf
 2030 06d9 3D       		.byte	0x3d
 2031 06da E0060000 		.4byte	0x6e0
 2032 06de 04       		.byte	0x4
 2033 06df 00       		.byte	0
 2034 06e0 06       		.uleb128 0x6
 2035 06e1 04       		.byte	0x4
 2036 06e2 E6060000 		.4byte	0x6e6
 2037 06e6 07       		.uleb128 0x7
 2038 06e7 B4060000 		.4byte	0x6b4
 2039 06eb 03       		.uleb128 0x3
 2040 06ec EE040000 		.4byte	.LASF97
 2041 06f0 0F       		.byte	0xf
 2042 06f1 3F       		.byte	0x3f
 2043 06f2 BF060000 		.4byte	0x6bf
 2044 06f6 03       		.uleb128 0x3
 2045 06f7 69020000 		.4byte	.LASF98
 2046 06fb 10       		.byte	0x10
 2047 06fc 28       		.byte	0x28
 2048 06fd 01070000 		.4byte	0x701
 2049 0701 08       		.uleb128 0x8
 2050 0702 C3000000 		.4byte	.LASF99
 2051 0706 04       		.byte	0x4
 2052 0707 11       		.byte	0x11
 2053 0708 00       		.byte	0
 2054 0709 18070000 		.4byte	0x718
 2055 070d 14       		.uleb128 0x14
 2056 070e 01050000 		.4byte	.LASF100
 2057 0712 A9000000 		.4byte	0xa9
 2058 0716 00       		.byte	0
 2059 0717 00       		.byte	0
 2060 0718 03       		.uleb128 0x3
 2061 0719 1A000000 		.4byte	.LASF101
 2062 071d 10       		.byte	0x10
 2063 071e 62       		.byte	0x62
 2064 071f F6060000 		.4byte	0x6f6
 2065 0723 15       		.uleb128 0x15
 2066 0724 C5050000 		.4byte	.LASF105
 2067 0728 01       		.byte	0x1
 2068 0729 45       		.byte	0x45
 2069 072a 00000000 		.4byte	.LFB118
 2070 072e 20000000 		.4byte	.LFE118-.LFB118
 2071 0732 01       		.uleb128 0x1
 2072 0733 9C       		.byte	0x9c
 2073 0734 63070000 		.4byte	0x763
 2074 0738 16       		.uleb128 0x16
 2075 0739 63687000 		.ascii	"chp\000"
 2076 073d 01       		.byte	0x1
 2077 073e 45       		.byte	0x45
 2078 073f 87060000 		.4byte	0x687
 2079 0743 02       		.uleb128 0x2
 2080 0744 91       		.byte	0x91
 2081 0745 64       		.sleb128 -28
 2082 0746 16       		.uleb128 0x16
ARM GAS  /tmp/cc7aAWvd.s 			page 39


 2083 0747 666D7400 		.ascii	"fmt\000"
 2084 074b 01       		.byte	0x1
 2085 074c 45       		.byte	0x45
 2086 074d B8000000 		.4byte	0xb8
 2087 0751 02       		.uleb128 0x2
 2088 0752 91       		.byte	0x91
 2089 0753 74       		.sleb128 -12
 2090 0754 17       		.uleb128 0x17
 2091 0755 18       		.uleb128 0x18
 2092 0756 617000   		.ascii	"ap\000"
 2093 0759 01       		.byte	0x1
 2094 075a 46       		.byte	0x46
 2095 075b 18070000 		.4byte	0x718
 2096 075f 02       		.uleb128 0x2
 2097 0760 91       		.byte	0x91
 2098 0761 6C       		.sleb128 -20
 2099 0762 00       		.byte	0
 2100 0763 19       		.uleb128 0x19
 2101 0764 25030000 		.4byte	.LASF112
 2102 0768 02       		.byte	0x2
 2103 0769 25       		.byte	0x25
 2104 076a AB000000 		.4byte	0xab
 2105 076e 20000000 		.4byte	.LFB119
 2106 0772 72000000 		.4byte	.LFE119-.LFB119
 2107 0776 01       		.uleb128 0x1
 2108 0777 9C       		.byte	0x9c
 2109 0778 B5070000 		.4byte	0x7b5
 2110 077c 16       		.uleb128 0x16
 2111 077d 73747200 		.ascii	"str\000"
 2112 0781 02       		.byte	0x2
 2113 0782 25       		.byte	0x25
 2114 0783 AB000000 		.4byte	0xab
 2115 0787 02       		.uleb128 0x2
 2116 0788 91       		.byte	0x91
 2117 0789 6C       		.sleb128 -20
 2118 078a 1A       		.uleb128 0x1a
 2119 078b 9F030000 		.4byte	.LASF102
 2120 078f 02       		.byte	0x2
 2121 0790 25       		.byte	0x25
 2122 0791 B8000000 		.4byte	0xb8
 2123 0795 02       		.uleb128 0x2
 2124 0796 91       		.byte	0x91
 2125 0797 68       		.sleb128 -24
 2126 0798 1A       		.uleb128 0x1a
 2127 0799 0E030000 		.4byte	.LASF103
 2128 079d 02       		.byte	0x2
 2129 079e 25       		.byte	0x25
 2130 079f 8D060000 		.4byte	0x68d
 2131 07a3 02       		.uleb128 0x2
 2132 07a4 91       		.byte	0x91
 2133 07a5 64       		.sleb128 -28
 2134 07a6 1B       		.uleb128 0x1b
 2135 07a7 00030000 		.4byte	.LASF104
 2136 07ab 02       		.byte	0x2
 2137 07ac 26       		.byte	0x26
 2138 07ad AB000000 		.4byte	0xab
 2139 07b1 02       		.uleb128 0x2
ARM GAS  /tmp/cc7aAWvd.s 			page 40


 2140 07b2 91       		.byte	0x91
 2141 07b3 74       		.sleb128 -12
 2142 07b4 00       		.byte	0
 2143 07b5 15       		.uleb128 0x15
 2144 07b6 21050000 		.4byte	.LASF106
 2145 07ba 02       		.byte	0x2
 2146 07bb 36       		.byte	0x36
 2147 07bc 94000000 		.4byte	.LFB120
 2148 07c0 1C000000 		.4byte	.LFE120-.LFB120
 2149 07c4 01       		.uleb128 0x1
 2150 07c5 9C       		.byte	0x9c
 2151 07c6 E5070000 		.4byte	0x7e5
 2152 07ca 16       		.uleb128 0x16
 2153 07cb 63687000 		.ascii	"chp\000"
 2154 07cf 02       		.byte	0x2
 2155 07d0 36       		.byte	0x36
 2156 07d1 87060000 		.4byte	0x687
 2157 07d5 02       		.uleb128 0x2
 2158 07d6 91       		.byte	0x91
 2159 07d7 74       		.sleb128 -12
 2160 07d8 16       		.uleb128 0x16
 2161 07d9 7000     		.ascii	"p\000"
 2162 07db 02       		.byte	0x2
 2163 07dc 36       		.byte	0x36
 2164 07dd AB000000 		.4byte	0xab
 2165 07e1 02       		.uleb128 0x2
 2166 07e2 91       		.byte	0x91
 2167 07e3 70       		.sleb128 -16
 2168 07e4 00       		.byte	0
 2169 07e5 15       		.uleb128 0x15
 2170 07e6 8A050000 		.4byte	.LASF107
 2171 07ea 02       		.byte	0x2
 2172 07eb 3B       		.byte	0x3b
 2173 07ec B0000000 		.4byte	.LFB121
 2174 07f0 30000000 		.4byte	.LFE121-.LFB121
 2175 07f4 01       		.uleb128 0x1
 2176 07f5 9C       		.byte	0x9c
 2177 07f6 17080000 		.4byte	0x817
 2178 07fa 16       		.uleb128 0x16
 2179 07fb 63687000 		.ascii	"chp\000"
 2180 07ff 02       		.byte	0x2
 2181 0800 3B       		.byte	0x3b
 2182 0801 87060000 		.4byte	0x687
 2183 0805 02       		.uleb128 0x2
 2184 0806 91       		.byte	0x91
 2185 0807 74       		.sleb128 -12
 2186 0808 16       		.uleb128 0x16
 2187 0809 73637000 		.ascii	"scp\000"
 2188 080d 02       		.byte	0x2
 2189 080e 3B       		.byte	0x3b
 2190 080f E0060000 		.4byte	0x6e0
 2191 0813 02       		.uleb128 0x2
 2192 0814 91       		.byte	0x91
 2193 0815 70       		.sleb128 -16
 2194 0816 00       		.byte	0
 2195 0817 15       		.uleb128 0x15
 2196 0818 60000000 		.4byte	.LASF108
ARM GAS  /tmp/cc7aAWvd.s 			page 41


 2197 081c 02       		.byte	0x2
 2198 081d 43       		.byte	0x43
 2199 081e E0000000 		.4byte	.LFB122
 2200 0822 C4000000 		.4byte	.LFE122-.LFB122
 2201 0826 01       		.uleb128 0x1
 2202 0827 9C       		.byte	0x9c
 2203 0828 57080000 		.4byte	0x857
 2204 082c 16       		.uleb128 0x16
 2205 082d 63687000 		.ascii	"chp\000"
 2206 0831 02       		.byte	0x2
 2207 0832 43       		.byte	0x43
 2208 0833 87060000 		.4byte	0x687
 2209 0837 02       		.uleb128 0x2
 2210 0838 91       		.byte	0x91
 2211 0839 74       		.sleb128 -12
 2212 083a 1A       		.uleb128 0x1a
 2213 083b 85050000 		.4byte	.LASF109
 2214 083f 02       		.byte	0x2
 2215 0840 43       		.byte	0x43
 2216 0841 25000000 		.4byte	0x25
 2217 0845 02       		.uleb128 0x2
 2218 0846 91       		.byte	0x91
 2219 0847 70       		.sleb128 -16
 2220 0848 1A       		.uleb128 0x1a
 2221 0849 AA050000 		.4byte	.LASF110
 2222 084d 02       		.byte	0x2
 2223 084e 43       		.byte	0x43
 2224 084f 8D060000 		.4byte	0x68d
 2225 0853 02       		.uleb128 0x2
 2226 0854 91       		.byte	0x91
 2227 0855 6C       		.sleb128 -20
 2228 0856 00       		.byte	0
 2229 0857 15       		.uleb128 0x15
 2230 0858 0E050000 		.4byte	.LASF111
 2231 085c 02       		.byte	0x2
 2232 085d 63       		.byte	0x63
 2233 085e A4010000 		.4byte	.LFB123
 2234 0862 3C000000 		.4byte	.LFE123-.LFB123
 2235 0866 01       		.uleb128 0x1
 2236 0867 9C       		.byte	0x9c
 2237 0868 97080000 		.4byte	0x897
 2238 086c 16       		.uleb128 0x16
 2239 086d 63687000 		.ascii	"chp\000"
 2240 0871 02       		.byte	0x2
 2241 0872 63       		.byte	0x63
 2242 0873 87060000 		.4byte	0x687
 2243 0877 02       		.uleb128 0x2
 2244 0878 91       		.byte	0x91
 2245 0879 74       		.sleb128 -12
 2246 087a 1A       		.uleb128 0x1a
 2247 087b 85050000 		.4byte	.LASF109
 2248 087f 02       		.byte	0x2
 2249 0880 63       		.byte	0x63
 2250 0881 25000000 		.4byte	0x25
 2251 0885 02       		.uleb128 0x2
 2252 0886 91       		.byte	0x91
 2253 0887 70       		.sleb128 -16
ARM GAS  /tmp/cc7aAWvd.s 			page 42


 2254 0888 1A       		.uleb128 0x1a
 2255 0889 AA050000 		.4byte	.LASF110
 2256 088d 02       		.byte	0x2
 2257 088e 63       		.byte	0x63
 2258 088f 8D060000 		.4byte	0x68d
 2259 0893 02       		.uleb128 0x2
 2260 0894 91       		.byte	0x91
 2261 0895 6C       		.sleb128 -20
 2262 0896 00       		.byte	0
 2263 0897 19       		.uleb128 0x19
 2264 0898 82030000 		.4byte	.LASF113
 2265 089c 02       		.byte	0x2
 2266 089d 76       		.byte	0x76
 2267 089e EF000000 		.4byte	0xef
 2268 08a2 E0010000 		.4byte	.LFB124
 2269 08a6 48000000 		.4byte	.LFE124-.LFB124
 2270 08aa 01       		.uleb128 0x1
 2271 08ab 9C       		.byte	0x9c
 2272 08ac F7080000 		.4byte	0x8f7
 2273 08b0 16       		.uleb128 0x16
 2274 08b1 73637000 		.ascii	"scp\000"
 2275 08b5 02       		.byte	0x2
 2276 08b6 76       		.byte	0x76
 2277 08b7 E0060000 		.4byte	0x6e0
 2278 08bb 02       		.uleb128 0x2
 2279 08bc 91       		.byte	0x91
 2280 08bd 74       		.sleb128 -12
 2281 08be 16       		.uleb128 0x16
 2282 08bf 63687000 		.ascii	"chp\000"
 2283 08c3 02       		.byte	0x2
 2284 08c4 76       		.byte	0x76
 2285 08c5 87060000 		.4byte	0x687
 2286 08c9 02       		.uleb128 0x2
 2287 08ca 91       		.byte	0x91
 2288 08cb 70       		.sleb128 -16
 2289 08cc 1A       		.uleb128 0x1a
 2290 08cd AD010000 		.4byte	.LASF114
 2291 08d1 02       		.byte	0x2
 2292 08d2 77       		.byte	0x77
 2293 08d3 AB000000 		.4byte	0xab
 2294 08d7 02       		.uleb128 0x2
 2295 08d8 91       		.byte	0x91
 2296 08d9 6C       		.sleb128 -20
 2297 08da 1A       		.uleb128 0x1a
 2298 08db 85050000 		.4byte	.LASF109
 2299 08df 02       		.byte	0x2
 2300 08e0 77       		.byte	0x77
 2301 08e1 25000000 		.4byte	0x25
 2302 08e5 02       		.uleb128 0x2
 2303 08e6 91       		.byte	0x91
 2304 08e7 68       		.sleb128 -24
 2305 08e8 1A       		.uleb128 0x1a
 2306 08e9 AA050000 		.4byte	.LASF110
 2307 08ed 02       		.byte	0x2
 2308 08ee 77       		.byte	0x77
 2309 08ef 8D060000 		.4byte	0x68d
 2310 08f3 02       		.uleb128 0x2
ARM GAS  /tmp/cc7aAWvd.s 			page 43


 2311 08f4 91       		.byte	0x91
 2312 08f5 00       		.sleb128 0
 2313 08f6 00       		.byte	0
 2314 08f7 19       		.uleb128 0x19
 2315 08f8 49050000 		.4byte	.LASF115
 2316 08fc 02       		.byte	0x2
 2317 08fd 8D       		.byte	0x8d
 2318 08fe 2D010000 		.4byte	0x12d
 2319 0902 28020000 		.4byte	.LFB125
 2320 0906 A4010000 		.4byte	.LFE125-.LFB125
 2321 090a 01       		.uleb128 0x1
 2322 090b 9C       		.byte	0x9c
 2323 090c 8D090000 		.4byte	0x98d
 2324 0910 16       		.uleb128 0x16
 2325 0911 7000     		.ascii	"p\000"
 2326 0913 02       		.byte	0x2
 2327 0914 8D       		.byte	0x8d
 2328 0915 A9000000 		.4byte	0xa9
 2329 0919 03       		.uleb128 0x3
 2330 091a 91       		.byte	0x91
 2331 091b 847F     		.sleb128 -124
 2332 091d 18       		.uleb128 0x18
 2333 091e 6E00     		.ascii	"n\000"
 2334 0920 02       		.byte	0x2
 2335 0921 8E       		.byte	0x8e
 2336 0922 25000000 		.4byte	0x25
 2337 0926 02       		.uleb128 0x2
 2338 0927 91       		.byte	0x91
 2339 0928 74       		.sleb128 -12
 2340 0929 18       		.uleb128 0x18
 2341 092a 63687000 		.ascii	"chp\000"
 2342 092e 02       		.byte	0x2
 2343 092f 8F       		.byte	0x8f
 2344 0930 87060000 		.4byte	0x687
 2345 0934 02       		.uleb128 0x2
 2346 0935 91       		.byte	0x91
 2347 0936 6C       		.sleb128 -20
 2348 0937 18       		.uleb128 0x18
 2349 0938 73637000 		.ascii	"scp\000"
 2350 093c 02       		.byte	0x2
 2351 093d 90       		.byte	0x90
 2352 093e E0060000 		.4byte	0x6e0
 2353 0942 02       		.uleb128 0x2
 2354 0943 91       		.byte	0x91
 2355 0944 68       		.sleb128 -24
 2356 0945 18       		.uleb128 0x18
 2357 0946 6C7000   		.ascii	"lp\000"
 2358 0949 02       		.byte	0x2
 2359 094a 91       		.byte	0x91
 2360 094b AB000000 		.4byte	0xab
 2361 094f 02       		.uleb128 0x2
 2362 0950 91       		.byte	0x91
 2363 0951 64       		.sleb128 -28
 2364 0952 18       		.uleb128 0x18
 2365 0953 636D6400 		.ascii	"cmd\000"
 2366 0957 02       		.byte	0x2
 2367 0958 91       		.byte	0x91
ARM GAS  /tmp/cc7aAWvd.s 			page 44


 2368 0959 AB000000 		.4byte	0xab
 2369 095d 02       		.uleb128 0x2
 2370 095e 91       		.byte	0x91
 2371 095f 70       		.sleb128 -16
 2372 0960 1B       		.uleb128 0x1b
 2373 0961 0A010000 		.4byte	.LASF116
 2374 0965 02       		.byte	0x2
 2375 0966 91       		.byte	0x91
 2376 0967 AB000000 		.4byte	0xab
 2377 096b 02       		.uleb128 0x2
 2378 096c 91       		.byte	0x91
 2379 096d 60       		.sleb128 -32
 2380 096e 1B       		.uleb128 0x1b
 2381 096f 17010000 		.4byte	.LASF117
 2382 0973 02       		.byte	0x2
 2383 0974 91       		.byte	0x91
 2384 0975 8D090000 		.4byte	0x98d
 2385 0979 03       		.uleb128 0x3
 2386 097a 91       		.byte	0x91
 2387 097b A07F     		.sleb128 -96
 2388 097d 1B       		.uleb128 0x1b
 2389 097e A5050000 		.4byte	.LASF118
 2390 0982 02       		.byte	0x2
 2391 0983 92       		.byte	0x92
 2392 0984 9D090000 		.4byte	0x99d
 2393 0988 03       		.uleb128 0x3
 2394 0989 91       		.byte	0x91
 2395 098a 8C7F     		.sleb128 -116
 2396 098c 00       		.byte	0
 2397 098d 1C       		.uleb128 0x1c
 2398 098e B1000000 		.4byte	0xb1
 2399 0992 9D090000 		.4byte	0x99d
 2400 0996 1D       		.uleb128 0x1d
 2401 0997 A2000000 		.4byte	0xa2
 2402 099b 3F       		.byte	0x3f
 2403 099c 00       		.byte	0
 2404 099d 1C       		.uleb128 0x1c
 2405 099e AB000000 		.4byte	0xab
 2406 09a2 AD090000 		.4byte	0x9ad
 2407 09a6 1D       		.uleb128 0x1d
 2408 09a7 A2000000 		.4byte	0xa2
 2409 09ab 04       		.byte	0x4
 2410 09ac 00       		.byte	0
 2411 09ad 1E       		.uleb128 0x1e
 2412 09ae BF040000 		.4byte	.LASF132
 2413 09b2 02       		.byte	0x2
 2414 09b3 CC       		.byte	0xcc
 2415 09b4 CC030000 		.4byte	.LFB126
 2416 09b8 0C000000 		.4byte	.LFE126-.LFB126
 2417 09bc 01       		.uleb128 0x1
 2418 09bd 9C       		.byte	0x9c
 2419 09be 1F       		.uleb128 0x1f
 2420 09bf FB010000 		.4byte	.LASF133
 2421 09c3 02       		.byte	0x2
 2422 09c4 DA       		.byte	0xda
 2423 09c5 D8030000 		.4byte	.LFB127
 2424 09c9 28000000 		.4byte	.LFE127-.LFB127
ARM GAS  /tmp/cc7aAWvd.s 			page 45


 2425 09cd 01       		.uleb128 0x1
 2426 09ce 9C       		.byte	0x9c
 2427 09cf F9090000 		.4byte	0x9f9
 2428 09d3 16       		.uleb128 0x16
 2429 09d4 6D736700 		.ascii	"msg\000"
 2430 09d8 02       		.byte	0x2
 2431 09d9 DA       		.byte	0xda
 2432 09da 2D010000 		.4byte	0x12d
 2433 09de 02       		.uleb128 0x2
 2434 09df 91       		.byte	0x91
 2435 09e0 74       		.sleb128 -12
 2436 09e1 20       		.uleb128 0x20
 2437 09e2 DE030000 		.4byte	.LBB2
 2438 09e6 06000000 		.4byte	.LBE2-.LBB2
 2439 09ea 18       		.uleb128 0x18
 2440 09eb 746D7000 		.ascii	"tmp\000"
 2441 09ef 02       		.byte	0x2
 2442 09f0 DE       		.byte	0xde
 2443 09f1 D9000000 		.4byte	0xd9
 2444 09f5 01       		.uleb128 0x1
 2445 09f6 53       		.byte	0x53
 2446 09f7 00       		.byte	0
 2447 09f8 00       		.byte	0
 2448 09f9 21       		.uleb128 0x21
 2449 09fa D1010000 		.4byte	.LASF121
 2450 09fe 02       		.byte	0x2
 2451 09ff F0       		.byte	0xf0
 2452 0a00 82020000 		.4byte	0x282
 2453 0a04 00040000 		.4byte	.LFB128
 2454 0a08 28000000 		.4byte	.LFE128-.LFB128
 2455 0a0c 01       		.uleb128 0x1
 2456 0a0d 9C       		.byte	0x9c
 2457 0a0e 3D0A0000 		.4byte	0xa3d
 2458 0a12 16       		.uleb128 0x16
 2459 0a13 73637000 		.ascii	"scp\000"
 2460 0a17 02       		.byte	0x2
 2461 0a18 F0       		.byte	0xf0
 2462 0a19 3D0A0000 		.4byte	0xa3d
 2463 0a1d 02       		.uleb128 0x2
 2464 0a1e 91       		.byte	0x91
 2465 0a1f 74       		.sleb128 -12
 2466 0a20 1A       		.uleb128 0x1a
 2467 0a21 DD010000 		.4byte	.LASF119
 2468 0a25 02       		.byte	0x2
 2469 0a26 F0       		.byte	0xf0
 2470 0a27 2C000000 		.4byte	0x2c
 2471 0a2b 02       		.uleb128 0x2
 2472 0a2c 91       		.byte	0x91
 2473 0a2d 70       		.sleb128 -16
 2474 0a2e 1A       		.uleb128 0x1a
 2475 0a2f B5020000 		.4byte	.LASF120
 2476 0a33 02       		.byte	0x2
 2477 0a34 F0       		.byte	0xf0
 2478 0a35 22010000 		.4byte	0x122
 2479 0a39 02       		.uleb128 0x2
 2480 0a3a 91       		.byte	0x91
 2481 0a3b 6C       		.sleb128 -20
ARM GAS  /tmp/cc7aAWvd.s 			page 46


 2482 0a3c 00       		.byte	0
 2483 0a3d 06       		.uleb128 0x6
 2484 0a3e 04       		.byte	0x4
 2485 0a3f 430A0000 		.4byte	0xa43
 2486 0a43 07       		.uleb128 0x7
 2487 0a44 EB060000 		.4byte	0x6eb
 2488 0a48 22       		.uleb128 0x22
 2489 0a49 BF010000 		.4byte	.LASF122
 2490 0a4d 02       		.byte	0x2
 2491 0a4e 0101     		.2byte	0x101
 2492 0a50 82020000 		.4byte	0x282
 2493 0a54 28040000 		.4byte	.LFB129
 2494 0a58 2C000000 		.4byte	.LFE129-.LFB129
 2495 0a5c 01       		.uleb128 0x1
 2496 0a5d 9C       		.byte	0x9c
 2497 0a5e 9F0A0000 		.4byte	0xa9f
 2498 0a62 23       		.uleb128 0x23
 2499 0a63 73637000 		.ascii	"scp\000"
 2500 0a67 02       		.byte	0x2
 2501 0a68 0101     		.2byte	0x101
 2502 0a6a 3D0A0000 		.4byte	0xa3d
 2503 0a6e 02       		.uleb128 0x2
 2504 0a6f 91       		.byte	0x91
 2505 0a70 74       		.sleb128 -12
 2506 0a71 23       		.uleb128 0x23
 2507 0a72 77737000 		.ascii	"wsp\000"
 2508 0a76 02       		.byte	0x2
 2509 0a77 0101     		.2byte	0x101
 2510 0a79 A9000000 		.4byte	0xa9
 2511 0a7d 02       		.uleb128 0x2
 2512 0a7e 91       		.byte	0x91
 2513 0a7f 70       		.sleb128 -16
 2514 0a80 24       		.uleb128 0x24
 2515 0a81 DD010000 		.4byte	.LASF119
 2516 0a85 02       		.byte	0x2
 2517 0a86 0201     		.2byte	0x102
 2518 0a88 2C000000 		.4byte	0x2c
 2519 0a8c 02       		.uleb128 0x2
 2520 0a8d 91       		.byte	0x91
 2521 0a8e 6C       		.sleb128 -20
 2522 0a8f 24       		.uleb128 0x24
 2523 0a90 B5020000 		.4byte	.LASF120
 2524 0a94 02       		.byte	0x2
 2525 0a95 0201     		.2byte	0x102
 2526 0a97 22010000 		.4byte	0x122
 2527 0a9b 02       		.uleb128 0x2
 2528 0a9c 91       		.byte	0x91
 2529 0a9d 68       		.sleb128 -24
 2530 0a9e 00       		.byte	0
 2531 0a9f 22       		.uleb128 0x22
 2532 0aa0 35010000 		.4byte	.LASF123
 2533 0aa4 02       		.byte	0x2
 2534 0aa5 1301     		.2byte	0x113
 2535 0aa7 EF000000 		.4byte	0xef
 2536 0aab 54040000 		.4byte	.LFB130
 2537 0aaf E4000000 		.4byte	.LFE130-.LFB130
 2538 0ab3 01       		.uleb128 0x1
ARM GAS  /tmp/cc7aAWvd.s 			page 47


 2539 0ab4 9C       		.byte	0x9c
 2540 0ab5 0B0B0000 		.4byte	0xb0b
 2541 0ab9 23       		.uleb128 0x23
 2542 0aba 63687000 		.ascii	"chp\000"
 2543 0abe 02       		.byte	0x2
 2544 0abf 1301     		.2byte	0x113
 2545 0ac1 87060000 		.4byte	0x687
 2546 0ac5 02       		.uleb128 0x2
 2547 0ac6 91       		.byte	0x91
 2548 0ac7 6C       		.sleb128 -20
 2549 0ac8 24       		.uleb128 0x24
 2550 0ac9 17010000 		.4byte	.LASF117
 2551 0acd 02       		.byte	0x2
 2552 0ace 1301     		.2byte	0x113
 2553 0ad0 AB000000 		.4byte	0xab
 2554 0ad4 02       		.uleb128 0x2
 2555 0ad5 91       		.byte	0x91
 2556 0ad6 68       		.sleb128 -24
 2557 0ad7 24       		.uleb128 0x24
 2558 0ad8 DD010000 		.4byte	.LASF119
 2559 0adc 02       		.byte	0x2
 2560 0add 1301     		.2byte	0x113
 2561 0adf 37000000 		.4byte	0x37
 2562 0ae3 02       		.uleb128 0x2
 2563 0ae4 91       		.byte	0x91
 2564 0ae5 64       		.sleb128 -28
 2565 0ae6 25       		.uleb128 0x25
 2566 0ae7 7000     		.ascii	"p\000"
 2567 0ae9 02       		.byte	0x2
 2568 0aea 1401     		.2byte	0x114
 2569 0aec AB000000 		.4byte	0xab
 2570 0af0 02       		.uleb128 0x2
 2571 0af1 91       		.byte	0x91
 2572 0af2 74       		.sleb128 -12
 2573 0af3 20       		.uleb128 0x20
 2574 0af4 62040000 		.4byte	.LBB3
 2575 0af8 C4000000 		.4byte	.LBE3-.LBB3
 2576 0afc 25       		.uleb128 0x25
 2577 0afd 6300     		.ascii	"c\000"
 2578 0aff 02       		.byte	0x2
 2579 0b00 1701     		.2byte	0x117
 2580 0b02 B1000000 		.4byte	0xb1
 2581 0b06 02       		.uleb128 0x2
 2582 0b07 91       		.byte	0x91
 2583 0b08 73       		.sleb128 -13
 2584 0b09 00       		.byte	0
 2585 0b0a 00       		.byte	0
 2586 0b0b 1C       		.uleb128 0x1c
 2587 0b0c B4060000 		.4byte	0x6b4
 2588 0b10 1B0B0000 		.4byte	0xb1b
 2589 0b14 1D       		.uleb128 0x1d
 2590 0b15 A2000000 		.4byte	0xa2
 2591 0b19 02       		.byte	0x2
 2592 0b1a 00       		.byte	0
 2593 0b1b 1B       		.uleb128 0x1b
 2594 0b1c A6020000 		.4byte	.LASF124
 2595 0b20 02       		.byte	0x2
ARM GAS  /tmp/cc7aAWvd.s 			page 48


 2596 0b21 70       		.byte	0x70
 2597 0b22 0B0B0000 		.4byte	0xb0b
 2598 0b26 05       		.uleb128 0x5
 2599 0b27 03       		.byte	0x3
 2600 0b28 00000000 		.4byte	local_commands
 2601 0b2c 26       		.uleb128 0x26
 2602 0b2d 22000000 		.4byte	.LASF125
 2603 0b31 0A       		.byte	0xa
 2604 0b32 F5       		.byte	0xf5
 2605 0b33 1A040000 		.4byte	0x41a
 2606 0b37 26       		.uleb128 0x26
 2607 0b38 56050000 		.4byte	.LASF126
 2608 0b3c 0B       		.byte	0xb
 2609 0b3d 6F       		.byte	0x6f
 2610 0b3e 76040000 		.4byte	0x476
 2611 0b42 27       		.uleb128 0x27
 2612 0b43 53000000 		.4byte	.LASF127
 2613 0b47 12       		.byte	0x12
 2614 0b48 9806     		.2byte	0x698
 2615 0b4a 5C060000 		.4byte	0x65c
 2616 0b4e 28       		.uleb128 0x28
 2617 0b4f AE040000 		.4byte	.LASF128
 2618 0b53 02       		.byte	0x2
 2619 0b54 23       		.byte	0x23
 2620 0b55 2A050000 		.4byte	0x52a
 2621 0b59 05       		.uleb128 0x5
 2622 0b5a 03       		.byte	0x3
 2623 0b5b 00000000 		.4byte	shell_terminated
 2624 0b5f 00       		.byte	0
 2625              		.section	.debug_abbrev,"",%progbits
 2626              	.Ldebug_abbrev0:
 2627 0000 01       		.uleb128 0x1
 2628 0001 11       		.uleb128 0x11
 2629 0002 01       		.byte	0x1
 2630 0003 25       		.uleb128 0x25
 2631 0004 0E       		.uleb128 0xe
 2632 0005 13       		.uleb128 0x13
 2633 0006 0B       		.uleb128 0xb
 2634 0007 03       		.uleb128 0x3
 2635 0008 0E       		.uleb128 0xe
 2636 0009 1B       		.uleb128 0x1b
 2637 000a 0E       		.uleb128 0xe
 2638 000b 11       		.uleb128 0x11
 2639 000c 01       		.uleb128 0x1
 2640 000d 12       		.uleb128 0x12
 2641 000e 06       		.uleb128 0x6
 2642 000f 10       		.uleb128 0x10
 2643 0010 17       		.uleb128 0x17
 2644 0011 00       		.byte	0
 2645 0012 00       		.byte	0
 2646 0013 02       		.uleb128 0x2
 2647 0014 24       		.uleb128 0x24
 2648 0015 00       		.byte	0
 2649 0016 0B       		.uleb128 0xb
 2650 0017 0B       		.uleb128 0xb
 2651 0018 3E       		.uleb128 0x3e
 2652 0019 0B       		.uleb128 0xb
ARM GAS  /tmp/cc7aAWvd.s 			page 49


 2653 001a 03       		.uleb128 0x3
 2654 001b 08       		.uleb128 0x8
 2655 001c 00       		.byte	0
 2656 001d 00       		.byte	0
 2657 001e 03       		.uleb128 0x3
 2658 001f 16       		.uleb128 0x16
 2659 0020 00       		.byte	0
 2660 0021 03       		.uleb128 0x3
 2661 0022 0E       		.uleb128 0xe
 2662 0023 3A       		.uleb128 0x3a
 2663 0024 0B       		.uleb128 0xb
 2664 0025 3B       		.uleb128 0x3b
 2665 0026 0B       		.uleb128 0xb
 2666 0027 49       		.uleb128 0x49
 2667 0028 13       		.uleb128 0x13
 2668 0029 00       		.byte	0
 2669 002a 00       		.byte	0
 2670 002b 04       		.uleb128 0x4
 2671 002c 24       		.uleb128 0x24
 2672 002d 00       		.byte	0
 2673 002e 0B       		.uleb128 0xb
 2674 002f 0B       		.uleb128 0xb
 2675 0030 3E       		.uleb128 0x3e
 2676 0031 0B       		.uleb128 0xb
 2677 0032 03       		.uleb128 0x3
 2678 0033 0E       		.uleb128 0xe
 2679 0034 00       		.byte	0
 2680 0035 00       		.byte	0
 2681 0036 05       		.uleb128 0x5
 2682 0037 0F       		.uleb128 0xf
 2683 0038 00       		.byte	0
 2684 0039 0B       		.uleb128 0xb
 2685 003a 0B       		.uleb128 0xb
 2686 003b 00       		.byte	0
 2687 003c 00       		.byte	0
 2688 003d 06       		.uleb128 0x6
 2689 003e 0F       		.uleb128 0xf
 2690 003f 00       		.byte	0
 2691 0040 0B       		.uleb128 0xb
 2692 0041 0B       		.uleb128 0xb
 2693 0042 49       		.uleb128 0x49
 2694 0043 13       		.uleb128 0x13
 2695 0044 00       		.byte	0
 2696 0045 00       		.byte	0
 2697 0046 07       		.uleb128 0x7
 2698 0047 26       		.uleb128 0x26
 2699 0048 00       		.byte	0
 2700 0049 49       		.uleb128 0x49
 2701 004a 13       		.uleb128 0x13
 2702 004b 00       		.byte	0
 2703 004c 00       		.byte	0
 2704 004d 08       		.uleb128 0x8
 2705 004e 13       		.uleb128 0x13
 2706 004f 01       		.byte	0x1
 2707 0050 03       		.uleb128 0x3
 2708 0051 0E       		.uleb128 0xe
 2709 0052 0B       		.uleb128 0xb
ARM GAS  /tmp/cc7aAWvd.s 			page 50


 2710 0053 0B       		.uleb128 0xb
 2711 0054 3A       		.uleb128 0x3a
 2712 0055 0B       		.uleb128 0xb
 2713 0056 3B       		.uleb128 0x3b
 2714 0057 0B       		.uleb128 0xb
 2715 0058 01       		.uleb128 0x1
 2716 0059 13       		.uleb128 0x13
 2717 005a 00       		.byte	0
 2718 005b 00       		.byte	0
 2719 005c 09       		.uleb128 0x9
 2720 005d 0D       		.uleb128 0xd
 2721 005e 00       		.byte	0
 2722 005f 03       		.uleb128 0x3
 2723 0060 0E       		.uleb128 0xe
 2724 0061 3A       		.uleb128 0x3a
 2725 0062 0B       		.uleb128 0xb
 2726 0063 3B       		.uleb128 0x3b
 2727 0064 0B       		.uleb128 0xb
 2728 0065 49       		.uleb128 0x49
 2729 0066 13       		.uleb128 0x13
 2730 0067 38       		.uleb128 0x38
 2731 0068 0B       		.uleb128 0xb
 2732 0069 00       		.byte	0
 2733 006a 00       		.byte	0
 2734 006b 0A       		.uleb128 0xa
 2735 006c 0D       		.uleb128 0xd
 2736 006d 00       		.byte	0
 2737 006e 03       		.uleb128 0x3
 2738 006f 08       		.uleb128 0x8
 2739 0070 3A       		.uleb128 0x3a
 2740 0071 0B       		.uleb128 0xb
 2741 0072 3B       		.uleb128 0x3b
 2742 0073 0B       		.uleb128 0xb
 2743 0074 49       		.uleb128 0x49
 2744 0075 13       		.uleb128 0x13
 2745 0076 38       		.uleb128 0x38
 2746 0077 0B       		.uleb128 0xb
 2747 0078 00       		.byte	0
 2748 0079 00       		.byte	0
 2749 007a 0B       		.uleb128 0xb
 2750 007b 13       		.uleb128 0x13
 2751 007c 01       		.byte	0x1
 2752 007d 0B       		.uleb128 0xb
 2753 007e 0B       		.uleb128 0xb
 2754 007f 3A       		.uleb128 0x3a
 2755 0080 0B       		.uleb128 0xb
 2756 0081 3B       		.uleb128 0x3b
 2757 0082 0B       		.uleb128 0xb
 2758 0083 01       		.uleb128 0x1
 2759 0084 13       		.uleb128 0x13
 2760 0085 00       		.byte	0
 2761 0086 00       		.byte	0
 2762 0087 0C       		.uleb128 0xc
 2763 0088 13       		.uleb128 0x13
 2764 0089 01       		.byte	0x1
 2765 008a 03       		.uleb128 0x3
 2766 008b 0E       		.uleb128 0xe
ARM GAS  /tmp/cc7aAWvd.s 			page 51


 2767 008c 0B       		.uleb128 0xb
 2768 008d 0B       		.uleb128 0xb
 2769 008e 3A       		.uleb128 0x3a
 2770 008f 0B       		.uleb128 0xb
 2771 0090 3B       		.uleb128 0x3b
 2772 0091 05       		.uleb128 0x5
 2773 0092 01       		.uleb128 0x1
 2774 0093 13       		.uleb128 0x13
 2775 0094 00       		.byte	0
 2776 0095 00       		.byte	0
 2777 0096 0D       		.uleb128 0xd
 2778 0097 0D       		.uleb128 0xd
 2779 0098 00       		.byte	0
 2780 0099 03       		.uleb128 0x3
 2781 009a 08       		.uleb128 0x8
 2782 009b 3A       		.uleb128 0x3a
 2783 009c 0B       		.uleb128 0xb
 2784 009d 3B       		.uleb128 0x3b
 2785 009e 05       		.uleb128 0x5
 2786 009f 49       		.uleb128 0x49
 2787 00a0 13       		.uleb128 0x13
 2788 00a1 38       		.uleb128 0x38
 2789 00a2 0B       		.uleb128 0xb
 2790 00a3 00       		.byte	0
 2791 00a4 00       		.byte	0
 2792 00a5 0E       		.uleb128 0xe
 2793 00a6 15       		.uleb128 0x15
 2794 00a7 01       		.byte	0x1
 2795 00a8 27       		.uleb128 0x27
 2796 00a9 19       		.uleb128 0x19
 2797 00aa 01       		.uleb128 0x1
 2798 00ab 13       		.uleb128 0x13
 2799 00ac 00       		.byte	0
 2800 00ad 00       		.byte	0
 2801 00ae 0F       		.uleb128 0xf
 2802 00af 05       		.uleb128 0x5
 2803 00b0 00       		.byte	0
 2804 00b1 49       		.uleb128 0x49
 2805 00b2 13       		.uleb128 0x13
 2806 00b3 00       		.byte	0
 2807 00b4 00       		.byte	0
 2808 00b5 10       		.uleb128 0x10
 2809 00b6 35       		.uleb128 0x35
 2810 00b7 00       		.byte	0
 2811 00b8 49       		.uleb128 0x49
 2812 00b9 13       		.uleb128 0x13
 2813 00ba 00       		.byte	0
 2814 00bb 00       		.byte	0
 2815 00bc 11       		.uleb128 0x11
 2816 00bd 17       		.uleb128 0x17
 2817 00be 01       		.byte	0x1
 2818 00bf 0B       		.uleb128 0xb
 2819 00c0 0B       		.uleb128 0xb
 2820 00c1 3A       		.uleb128 0x3a
 2821 00c2 0B       		.uleb128 0xb
 2822 00c3 3B       		.uleb128 0x3b
 2823 00c4 0B       		.uleb128 0xb
ARM GAS  /tmp/cc7aAWvd.s 			page 52


 2824 00c5 01       		.uleb128 0x1
 2825 00c6 13       		.uleb128 0x13
 2826 00c7 00       		.byte	0
 2827 00c8 00       		.byte	0
 2828 00c9 12       		.uleb128 0x12
 2829 00ca 0D       		.uleb128 0xd
 2830 00cb 00       		.byte	0
 2831 00cc 03       		.uleb128 0x3
 2832 00cd 0E       		.uleb128 0xe
 2833 00ce 3A       		.uleb128 0x3a
 2834 00cf 0B       		.uleb128 0xb
 2835 00d0 3B       		.uleb128 0x3b
 2836 00d1 0B       		.uleb128 0xb
 2837 00d2 49       		.uleb128 0x49
 2838 00d3 13       		.uleb128 0x13
 2839 00d4 00       		.byte	0
 2840 00d5 00       		.byte	0
 2841 00d6 13       		.uleb128 0x13
 2842 00d7 15       		.uleb128 0x15
 2843 00d8 01       		.byte	0x1
 2844 00d9 27       		.uleb128 0x27
 2845 00da 19       		.uleb128 0x19
 2846 00db 49       		.uleb128 0x49
 2847 00dc 13       		.uleb128 0x13
 2848 00dd 01       		.uleb128 0x1
 2849 00de 13       		.uleb128 0x13
 2850 00df 00       		.byte	0
 2851 00e0 00       		.byte	0
 2852 00e1 14       		.uleb128 0x14
 2853 00e2 0D       		.uleb128 0xd
 2854 00e3 00       		.byte	0
 2855 00e4 03       		.uleb128 0x3
 2856 00e5 0E       		.uleb128 0xe
 2857 00e6 49       		.uleb128 0x49
 2858 00e7 13       		.uleb128 0x13
 2859 00e8 38       		.uleb128 0x38
 2860 00e9 0B       		.uleb128 0xb
 2861 00ea 34       		.uleb128 0x34
 2862 00eb 19       		.uleb128 0x19
 2863 00ec 00       		.byte	0
 2864 00ed 00       		.byte	0
 2865 00ee 15       		.uleb128 0x15
 2866 00ef 2E       		.uleb128 0x2e
 2867 00f0 01       		.byte	0x1
 2868 00f1 03       		.uleb128 0x3
 2869 00f2 0E       		.uleb128 0xe
 2870 00f3 3A       		.uleb128 0x3a
 2871 00f4 0B       		.uleb128 0xb
 2872 00f5 3B       		.uleb128 0x3b
 2873 00f6 0B       		.uleb128 0xb
 2874 00f7 27       		.uleb128 0x27
 2875 00f8 19       		.uleb128 0x19
 2876 00f9 11       		.uleb128 0x11
 2877 00fa 01       		.uleb128 0x1
 2878 00fb 12       		.uleb128 0x12
 2879 00fc 06       		.uleb128 0x6
 2880 00fd 40       		.uleb128 0x40
ARM GAS  /tmp/cc7aAWvd.s 			page 53


 2881 00fe 18       		.uleb128 0x18
 2882 00ff 9642     		.uleb128 0x2116
 2883 0101 19       		.uleb128 0x19
 2884 0102 01       		.uleb128 0x1
 2885 0103 13       		.uleb128 0x13
 2886 0104 00       		.byte	0
 2887 0105 00       		.byte	0
 2888 0106 16       		.uleb128 0x16
 2889 0107 05       		.uleb128 0x5
 2890 0108 00       		.byte	0
 2891 0109 03       		.uleb128 0x3
 2892 010a 08       		.uleb128 0x8
 2893 010b 3A       		.uleb128 0x3a
 2894 010c 0B       		.uleb128 0xb
 2895 010d 3B       		.uleb128 0x3b
 2896 010e 0B       		.uleb128 0xb
 2897 010f 49       		.uleb128 0x49
 2898 0110 13       		.uleb128 0x13
 2899 0111 02       		.uleb128 0x2
 2900 0112 18       		.uleb128 0x18
 2901 0113 00       		.byte	0
 2902 0114 00       		.byte	0
 2903 0115 17       		.uleb128 0x17
 2904 0116 18       		.uleb128 0x18
 2905 0117 00       		.byte	0
 2906 0118 00       		.byte	0
 2907 0119 00       		.byte	0
 2908 011a 18       		.uleb128 0x18
 2909 011b 34       		.uleb128 0x34
 2910 011c 00       		.byte	0
 2911 011d 03       		.uleb128 0x3
 2912 011e 08       		.uleb128 0x8
 2913 011f 3A       		.uleb128 0x3a
 2914 0120 0B       		.uleb128 0xb
 2915 0121 3B       		.uleb128 0x3b
 2916 0122 0B       		.uleb128 0xb
 2917 0123 49       		.uleb128 0x49
 2918 0124 13       		.uleb128 0x13
 2919 0125 02       		.uleb128 0x2
 2920 0126 18       		.uleb128 0x18
 2921 0127 00       		.byte	0
 2922 0128 00       		.byte	0
 2923 0129 19       		.uleb128 0x19
 2924 012a 2E       		.uleb128 0x2e
 2925 012b 01       		.byte	0x1
 2926 012c 03       		.uleb128 0x3
 2927 012d 0E       		.uleb128 0xe
 2928 012e 3A       		.uleb128 0x3a
 2929 012f 0B       		.uleb128 0xb
 2930 0130 3B       		.uleb128 0x3b
 2931 0131 0B       		.uleb128 0xb
 2932 0132 27       		.uleb128 0x27
 2933 0133 19       		.uleb128 0x19
 2934 0134 49       		.uleb128 0x49
 2935 0135 13       		.uleb128 0x13
 2936 0136 11       		.uleb128 0x11
 2937 0137 01       		.uleb128 0x1
ARM GAS  /tmp/cc7aAWvd.s 			page 54


 2938 0138 12       		.uleb128 0x12
 2939 0139 06       		.uleb128 0x6
 2940 013a 40       		.uleb128 0x40
 2941 013b 18       		.uleb128 0x18
 2942 013c 9642     		.uleb128 0x2116
 2943 013e 19       		.uleb128 0x19
 2944 013f 01       		.uleb128 0x1
 2945 0140 13       		.uleb128 0x13
 2946 0141 00       		.byte	0
 2947 0142 00       		.byte	0
 2948 0143 1A       		.uleb128 0x1a
 2949 0144 05       		.uleb128 0x5
 2950 0145 00       		.byte	0
 2951 0146 03       		.uleb128 0x3
 2952 0147 0E       		.uleb128 0xe
 2953 0148 3A       		.uleb128 0x3a
 2954 0149 0B       		.uleb128 0xb
 2955 014a 3B       		.uleb128 0x3b
 2956 014b 0B       		.uleb128 0xb
 2957 014c 49       		.uleb128 0x49
 2958 014d 13       		.uleb128 0x13
 2959 014e 02       		.uleb128 0x2
 2960 014f 18       		.uleb128 0x18
 2961 0150 00       		.byte	0
 2962 0151 00       		.byte	0
 2963 0152 1B       		.uleb128 0x1b
 2964 0153 34       		.uleb128 0x34
 2965 0154 00       		.byte	0
 2966 0155 03       		.uleb128 0x3
 2967 0156 0E       		.uleb128 0xe
 2968 0157 3A       		.uleb128 0x3a
 2969 0158 0B       		.uleb128 0xb
 2970 0159 3B       		.uleb128 0x3b
 2971 015a 0B       		.uleb128 0xb
 2972 015b 49       		.uleb128 0x49
 2973 015c 13       		.uleb128 0x13
 2974 015d 02       		.uleb128 0x2
 2975 015e 18       		.uleb128 0x18
 2976 015f 00       		.byte	0
 2977 0160 00       		.byte	0
 2978 0161 1C       		.uleb128 0x1c
 2979 0162 01       		.uleb128 0x1
 2980 0163 01       		.byte	0x1
 2981 0164 49       		.uleb128 0x49
 2982 0165 13       		.uleb128 0x13
 2983 0166 01       		.uleb128 0x1
 2984 0167 13       		.uleb128 0x13
 2985 0168 00       		.byte	0
 2986 0169 00       		.byte	0
 2987 016a 1D       		.uleb128 0x1d
 2988 016b 21       		.uleb128 0x21
 2989 016c 00       		.byte	0
 2990 016d 49       		.uleb128 0x49
 2991 016e 13       		.uleb128 0x13
 2992 016f 2F       		.uleb128 0x2f
 2993 0170 0B       		.uleb128 0xb
 2994 0171 00       		.byte	0
ARM GAS  /tmp/cc7aAWvd.s 			page 55


 2995 0172 00       		.byte	0
 2996 0173 1E       		.uleb128 0x1e
 2997 0174 2E       		.uleb128 0x2e
 2998 0175 00       		.byte	0
 2999 0176 3F       		.uleb128 0x3f
 3000 0177 19       		.uleb128 0x19
 3001 0178 03       		.uleb128 0x3
 3002 0179 0E       		.uleb128 0xe
 3003 017a 3A       		.uleb128 0x3a
 3004 017b 0B       		.uleb128 0xb
 3005 017c 3B       		.uleb128 0x3b
 3006 017d 0B       		.uleb128 0xb
 3007 017e 27       		.uleb128 0x27
 3008 017f 19       		.uleb128 0x19
 3009 0180 11       		.uleb128 0x11
 3010 0181 01       		.uleb128 0x1
 3011 0182 12       		.uleb128 0x12
 3012 0183 06       		.uleb128 0x6
 3013 0184 40       		.uleb128 0x40
 3014 0185 18       		.uleb128 0x18
 3015 0186 9742     		.uleb128 0x2117
 3016 0188 19       		.uleb128 0x19
 3017 0189 00       		.byte	0
 3018 018a 00       		.byte	0
 3019 018b 1F       		.uleb128 0x1f
 3020 018c 2E       		.uleb128 0x2e
 3021 018d 01       		.byte	0x1
 3022 018e 3F       		.uleb128 0x3f
 3023 018f 19       		.uleb128 0x19
 3024 0190 03       		.uleb128 0x3
 3025 0191 0E       		.uleb128 0xe
 3026 0192 3A       		.uleb128 0x3a
 3027 0193 0B       		.uleb128 0xb
 3028 0194 3B       		.uleb128 0x3b
 3029 0195 0B       		.uleb128 0xb
 3030 0196 27       		.uleb128 0x27
 3031 0197 19       		.uleb128 0x19
 3032 0198 11       		.uleb128 0x11
 3033 0199 01       		.uleb128 0x1
 3034 019a 12       		.uleb128 0x12
 3035 019b 06       		.uleb128 0x6
 3036 019c 40       		.uleb128 0x40
 3037 019d 18       		.uleb128 0x18
 3038 019e 9642     		.uleb128 0x2116
 3039 01a0 19       		.uleb128 0x19
 3040 01a1 01       		.uleb128 0x1
 3041 01a2 13       		.uleb128 0x13
 3042 01a3 00       		.byte	0
 3043 01a4 00       		.byte	0
 3044 01a5 20       		.uleb128 0x20
 3045 01a6 0B       		.uleb128 0xb
 3046 01a7 01       		.byte	0x1
 3047 01a8 11       		.uleb128 0x11
 3048 01a9 01       		.uleb128 0x1
 3049 01aa 12       		.uleb128 0x12
 3050 01ab 06       		.uleb128 0x6
 3051 01ac 00       		.byte	0
ARM GAS  /tmp/cc7aAWvd.s 			page 56


 3052 01ad 00       		.byte	0
 3053 01ae 21       		.uleb128 0x21
 3054 01af 2E       		.uleb128 0x2e
 3055 01b0 01       		.byte	0x1
 3056 01b1 3F       		.uleb128 0x3f
 3057 01b2 19       		.uleb128 0x19
 3058 01b3 03       		.uleb128 0x3
 3059 01b4 0E       		.uleb128 0xe
 3060 01b5 3A       		.uleb128 0x3a
 3061 01b6 0B       		.uleb128 0xb
 3062 01b7 3B       		.uleb128 0x3b
 3063 01b8 0B       		.uleb128 0xb
 3064 01b9 27       		.uleb128 0x27
 3065 01ba 19       		.uleb128 0x19
 3066 01bb 49       		.uleb128 0x49
 3067 01bc 13       		.uleb128 0x13
 3068 01bd 11       		.uleb128 0x11
 3069 01be 01       		.uleb128 0x1
 3070 01bf 12       		.uleb128 0x12
 3071 01c0 06       		.uleb128 0x6
 3072 01c1 40       		.uleb128 0x40
 3073 01c2 18       		.uleb128 0x18
 3074 01c3 9642     		.uleb128 0x2116
 3075 01c5 19       		.uleb128 0x19
 3076 01c6 01       		.uleb128 0x1
 3077 01c7 13       		.uleb128 0x13
 3078 01c8 00       		.byte	0
 3079 01c9 00       		.byte	0
 3080 01ca 22       		.uleb128 0x22
 3081 01cb 2E       		.uleb128 0x2e
 3082 01cc 01       		.byte	0x1
 3083 01cd 3F       		.uleb128 0x3f
 3084 01ce 19       		.uleb128 0x19
 3085 01cf 03       		.uleb128 0x3
 3086 01d0 0E       		.uleb128 0xe
 3087 01d1 3A       		.uleb128 0x3a
 3088 01d2 0B       		.uleb128 0xb
 3089 01d3 3B       		.uleb128 0x3b
 3090 01d4 05       		.uleb128 0x5
 3091 01d5 27       		.uleb128 0x27
 3092 01d6 19       		.uleb128 0x19
 3093 01d7 49       		.uleb128 0x49
 3094 01d8 13       		.uleb128 0x13
 3095 01d9 11       		.uleb128 0x11
 3096 01da 01       		.uleb128 0x1
 3097 01db 12       		.uleb128 0x12
 3098 01dc 06       		.uleb128 0x6
 3099 01dd 40       		.uleb128 0x40
 3100 01de 18       		.uleb128 0x18
 3101 01df 9642     		.uleb128 0x2116
 3102 01e1 19       		.uleb128 0x19
 3103 01e2 01       		.uleb128 0x1
 3104 01e3 13       		.uleb128 0x13
 3105 01e4 00       		.byte	0
 3106 01e5 00       		.byte	0
 3107 01e6 23       		.uleb128 0x23
 3108 01e7 05       		.uleb128 0x5
ARM GAS  /tmp/cc7aAWvd.s 			page 57


 3109 01e8 00       		.byte	0
 3110 01e9 03       		.uleb128 0x3
 3111 01ea 08       		.uleb128 0x8
 3112 01eb 3A       		.uleb128 0x3a
 3113 01ec 0B       		.uleb128 0xb
 3114 01ed 3B       		.uleb128 0x3b
 3115 01ee 05       		.uleb128 0x5
 3116 01ef 49       		.uleb128 0x49
 3117 01f0 13       		.uleb128 0x13
 3118 01f1 02       		.uleb128 0x2
 3119 01f2 18       		.uleb128 0x18
 3120 01f3 00       		.byte	0
 3121 01f4 00       		.byte	0
 3122 01f5 24       		.uleb128 0x24
 3123 01f6 05       		.uleb128 0x5
 3124 01f7 00       		.byte	0
 3125 01f8 03       		.uleb128 0x3
 3126 01f9 0E       		.uleb128 0xe
 3127 01fa 3A       		.uleb128 0x3a
 3128 01fb 0B       		.uleb128 0xb
 3129 01fc 3B       		.uleb128 0x3b
 3130 01fd 05       		.uleb128 0x5
 3131 01fe 49       		.uleb128 0x49
 3132 01ff 13       		.uleb128 0x13
 3133 0200 02       		.uleb128 0x2
 3134 0201 18       		.uleb128 0x18
 3135 0202 00       		.byte	0
 3136 0203 00       		.byte	0
 3137 0204 25       		.uleb128 0x25
 3138 0205 34       		.uleb128 0x34
 3139 0206 00       		.byte	0
 3140 0207 03       		.uleb128 0x3
 3141 0208 08       		.uleb128 0x8
 3142 0209 3A       		.uleb128 0x3a
 3143 020a 0B       		.uleb128 0xb
 3144 020b 3B       		.uleb128 0x3b
 3145 020c 05       		.uleb128 0x5
 3146 020d 49       		.uleb128 0x49
 3147 020e 13       		.uleb128 0x13
 3148 020f 02       		.uleb128 0x2
 3149 0210 18       		.uleb128 0x18
 3150 0211 00       		.byte	0
 3151 0212 00       		.byte	0
 3152 0213 26       		.uleb128 0x26
 3153 0214 34       		.uleb128 0x34
 3154 0215 00       		.byte	0
 3155 0216 03       		.uleb128 0x3
 3156 0217 0E       		.uleb128 0xe
 3157 0218 3A       		.uleb128 0x3a
 3158 0219 0B       		.uleb128 0xb
 3159 021a 3B       		.uleb128 0x3b
 3160 021b 0B       		.uleb128 0xb
 3161 021c 49       		.uleb128 0x49
 3162 021d 13       		.uleb128 0x13
 3163 021e 3F       		.uleb128 0x3f
 3164 021f 19       		.uleb128 0x19
 3165 0220 3C       		.uleb128 0x3c
ARM GAS  /tmp/cc7aAWvd.s 			page 58


 3166 0221 19       		.uleb128 0x19
 3167 0222 00       		.byte	0
 3168 0223 00       		.byte	0
 3169 0224 27       		.uleb128 0x27
 3170 0225 34       		.uleb128 0x34
 3171 0226 00       		.byte	0
 3172 0227 03       		.uleb128 0x3
 3173 0228 0E       		.uleb128 0xe
 3174 0229 3A       		.uleb128 0x3a
 3175 022a 0B       		.uleb128 0xb
 3176 022b 3B       		.uleb128 0x3b
 3177 022c 05       		.uleb128 0x5
 3178 022d 49       		.uleb128 0x49
 3179 022e 13       		.uleb128 0x13
 3180 022f 3F       		.uleb128 0x3f
 3181 0230 19       		.uleb128 0x19
 3182 0231 3C       		.uleb128 0x3c
 3183 0232 19       		.uleb128 0x19
 3184 0233 00       		.byte	0
 3185 0234 00       		.byte	0
 3186 0235 28       		.uleb128 0x28
 3187 0236 34       		.uleb128 0x34
 3188 0237 00       		.byte	0
 3189 0238 03       		.uleb128 0x3
 3190 0239 0E       		.uleb128 0xe
 3191 023a 3A       		.uleb128 0x3a
 3192 023b 0B       		.uleb128 0xb
 3193 023c 3B       		.uleb128 0x3b
 3194 023d 0B       		.uleb128 0xb
 3195 023e 49       		.uleb128 0x49
 3196 023f 13       		.uleb128 0x13
 3197 0240 3F       		.uleb128 0x3f
 3198 0241 19       		.uleb128 0x19
 3199 0242 02       		.uleb128 0x2
 3200 0243 18       		.uleb128 0x18
 3201 0244 00       		.byte	0
 3202 0245 00       		.byte	0
 3203 0246 00       		.byte	0
 3204              		.section	.debug_aranges,"",%progbits
 3205 0000 1C000000 		.4byte	0x1c
 3206 0004 0200     		.2byte	0x2
 3207 0006 00000000 		.4byte	.Ldebug_info0
 3208 000a 04       		.byte	0x4
 3209 000b 00       		.byte	0
 3210 000c 0000     		.2byte	0
 3211 000e 0000     		.2byte	0
 3212 0010 00000000 		.4byte	.Ltext0
 3213 0014 38050000 		.4byte	.Letext0-.Ltext0
 3214 0018 00000000 		.4byte	0
 3215 001c 00000000 		.4byte	0
 3216              		.section	.debug_line,"",%progbits
 3217              	.Ldebug_line0:
 3218 0000 6D030000 		.section	.debug_str,"MS",%progbits,1
 3218      0200A402 
 3218      00000201 
 3218      FB0E0D00 
 3218      01010101 
ARM GAS  /tmp/cc7aAWvd.s 			page 59


 3219              	.LASF2:
 3220 0000 73697A65 		.ascii	"size_t\000"
 3220      5F7400
 3221              	.LASF19:
 3222 0007 75696E74 		.ascii	"uint64_t\000"
 3222      36345F74 
 3222      00
 3223              	.LASF3:
 3224 0010 5F5F7569 		.ascii	"__uint8_t\000"
 3224      6E74385F 
 3224      7400
 3225              	.LASF101:
 3226 001a 76615F6C 		.ascii	"va_list\000"
 3226      69737400 
 3227              	.LASF125:
 3228 0022 76746C69 		.ascii	"vtlist\000"
 3228      737400
 3229              	.LASF71:
 3230 0029 52656164 		.ascii	"ReadyList\000"
 3230      794C6973 
 3230      7400
 3231              	.LASF13:
 3232 0033 6C6F6E67 		.ascii	"long long unsigned int\000"
 3232      206C6F6E 
 3232      6720756E 
 3232      7369676E 
 3232      65642069 
 3233              	.LASF84:
 3234 004a 65786974 		.ascii	"exitcode\000"
 3234      636F6465 
 3234      00
 3235              	.LASF127:
 3236 0053 49544D5F 		.ascii	"ITM_RxBuffer\000"
 3236      52784275 
 3236      66666572 
 3236      00
 3237              	.LASF108:
 3238 0060 636D645F 		.ascii	"cmd_info\000"
 3238      696E666F 
 3238      00
 3239              	.LASF33:
 3240 0069 705F7072 		.ascii	"p_prio\000"
 3240      696F00
 3241              	.LASF11:
 3242 0070 6C6F6E67 		.ascii	"long long int\000"
 3242      206C6F6E 
 3242      6720696E 
 3242      7400
 3243              	.LASF1:
 3244 007e 7369676E 		.ascii	"signed char\000"
 3244      65642063 
 3244      68617200 
 3245              	.LASF49:
 3246 008a 705F6D70 		.ascii	"p_mpool\000"
 3246      6F6F6C00 
 3247              	.LASF20:
 3248 0092 626F6F6C 		.ascii	"bool_t\000"
ARM GAS  /tmp/cc7aAWvd.s 			page 60


 3248      5F7400
 3249              	.LASF95:
 3250 0099 73635F63 		.ascii	"sc_channel\000"
 3250      68616E6E 
 3250      656C00
 3251              	.LASF8:
 3252 00a4 6C6F6E67 		.ascii	"long int\000"
 3252      20696E74 
 3252      00
 3253              	.LASF94:
 3254 00ad 5368656C 		.ascii	"ShellCommand\000"
 3254      6C436F6D 
 3254      6D616E64 
 3254      00
 3255              	.LASF23:
 3256 00ba 74737461 		.ascii	"tstate_t\000"
 3256      74655F74 
 3256      00
 3257              	.LASF99:
 3258 00c3 5F5F7661 		.ascii	"__va_list\000"
 3258      5F6C6973 
 3258      7400
 3259              	.LASF41:
 3260 00cd 705F7265 		.ascii	"p_refs\000"
 3260      667300
 3261              	.LASF130:
 3262 00d4 2F6F7074 		.ascii	"/opt/R2P/core/ChibiOS_2.6.5/os/various/shell.c\000"
 3262      2F523250 
 3262      2F636F72 
 3262      652F4368 
 3262      6962694F 
 3263              	.LASF42:
 3264 0103 705F7469 		.ascii	"p_time\000"
 3264      6D6500
 3265              	.LASF116:
 3266 010a 746F6B70 		.ascii	"tokp\000"
 3266      00
 3267              	.LASF35:
 3268 010f 705F6E65 		.ascii	"p_newer\000"
 3268      77657200 
 3269              	.LASF117:
 3270 0117 6C696E65 		.ascii	"line\000"
 3270      00
 3271              	.LASF68:
 3272 011c 725F6E65 		.ascii	"r_newer\000"
 3272      77657200 
 3273              	.LASF52:
 3274 0124 72656761 		.ascii	"regarm_t\000"
 3274      726D5F74 
 3274      00
 3275              	.LASF59:
 3276 012d 76745F70 		.ascii	"vt_prev\000"
 3276      72657600 
 3277              	.LASF123:
 3278 0135 7368656C 		.ascii	"shellGetLine\000"
 3278      6C476574 
 3278      4C696E65 
ARM GAS  /tmp/cc7aAWvd.s 			page 61


 3278      00
 3279              	.LASF92:
 3280 0142 73635F6E 		.ascii	"sc_name\000"
 3280      616D6500 
 3281              	.LASF81:
 3282 014a 4576656E 		.ascii	"EventSource\000"
 3282      74536F75 
 3282      72636500 
 3283              	.LASF90:
 3284 0156 42617365 		.ascii	"BaseSequentialStream\000"
 3284      53657175 
 3284      656E7469 
 3284      616C5374 
 3284      7265616D 
 3285              	.LASF9:
 3286 016b 5F5F7569 		.ascii	"__uint32_t\000"
 3286      6E743332 
 3286      5F7400
 3287              	.LASF38:
 3288 0176 705F7374 		.ascii	"p_stklimit\000"
 3288      6B6C696D 
 3288      697400
 3289              	.LASF0:
 3290 0181 756E7369 		.ascii	"unsigned int\000"
 3290      676E6564 
 3290      20696E74 
 3290      00
 3291              	.LASF58:
 3292 018e 76745F6E 		.ascii	"vt_next\000"
 3292      65787400 
 3293              	.LASF96:
 3294 0196 73635F63 		.ascii	"sc_commands\000"
 3294      6F6D6D61 
 3294      6E647300 
 3295              	.LASF44:
 3296 01a2 705F6D73 		.ascii	"p_msgqueue\000"
 3296      67717565 
 3296      756500
 3297              	.LASF114:
 3298 01ad 6E616D65 		.ascii	"name\000"
 3298      00
 3299              	.LASF57:
 3300 01b2 56697274 		.ascii	"VirtualTimer\000"
 3300      75616C54 
 3300      696D6572 
 3300      00
 3301              	.LASF122:
 3302 01bf 7368656C 		.ascii	"shellCreateStatic\000"
 3302      6C437265 
 3302      61746553 
 3302      74617469 
 3302      6300
 3303              	.LASF121:
 3304 01d1 7368656C 		.ascii	"shellCreate\000"
 3304      6C437265 
 3304      61746500 
 3305              	.LASF119:
ARM GAS  /tmp/cc7aAWvd.s 			page 62


 3306 01dd 73697A65 		.ascii	"size\000"
 3306      00
 3307              	.LASF6:
 3308 01e2 73686F72 		.ascii	"short unsigned int\000"
 3308      7420756E 
 3308      7369676E 
 3308      65642069 
 3308      6E7400
 3309              	.LASF26:
 3310 01f5 6D73675F 		.ascii	"msg_t\000"
 3310      7400
 3311              	.LASF133:
 3312 01fb 7368656C 		.ascii	"shellExit\000"
 3312      6C457869 
 3312      7400
 3313              	.LASF77:
 3314 0205 656C5F6E 		.ascii	"el_next\000"
 3314      65787400 
 3315              	.LASF22:
 3316 020d 746D6F64 		.ascii	"tmode_t\000"
 3316      655F7400 
 3317              	.LASF51:
 3318 0215 54687265 		.ascii	"ThreadsList\000"
 3318      6164734C 
 3318      69737400 
 3319              	.LASF27:
 3320 0221 6576656E 		.ascii	"eventmask_t\000"
 3320      746D6173 
 3320      6B5F7400 
 3321              	.LASF7:
 3322 022d 5F5F696E 		.ascii	"__int32_t\000"
 3322      7433325F 
 3322      7400
 3323              	.LASF53:
 3324 0237 73746B61 		.ascii	"stkalign_t\000"
 3324      6C69676E 
 3324      5F7400
 3325              	.LASF88:
 3326 0242 77726974 		.ascii	"write\000"
 3326      6500
 3327              	.LASF60:
 3328 0248 76745F74 		.ascii	"vt_time\000"
 3328      696D6500 
 3329              	.LASF43:
 3330 0250 705F7761 		.ascii	"p_waiting\000"
 3330      6974696E 
 3330      6700
 3331              	.LASF14:
 3332 025a 73697A65 		.ascii	"sizetype\000"
 3332      74797065 
 3332      00
 3333              	.LASF72:
 3334 0263 4D757465 		.ascii	"Mutex\000"
 3334      7800
 3335              	.LASF98:
 3336 0269 5F5F676E 		.ascii	"__gnuc_va_list\000"
 3336      75635F76 
ARM GAS  /tmp/cc7aAWvd.s 			page 63


 3336      615F6C69 
 3336      737400
 3337              	.LASF79:
 3338 0278 656C5F6D 		.ascii	"el_mask\000"
 3338      61736B00 
 3339              	.LASF36:
 3340 0280 705F6F6C 		.ascii	"p_older\000"
 3340      64657200 
 3341              	.LASF67:
 3342 0288 725F6374 		.ascii	"r_ctx\000"
 3342      7800
 3343              	.LASF50:
 3344 028e 54687265 		.ascii	"ThreadsQueue\000"
 3344      61647351 
 3344      75657565 
 3344      00
 3345              	.LASF91:
 3346 029b 7368656C 		.ascii	"shellcmd_t\000"
 3346      6C636D64 
 3346      5F7400
 3347              	.LASF124:
 3348 02a6 6C6F6361 		.ascii	"local_commands\000"
 3348      6C5F636F 
 3348      6D6D616E 
 3348      647300
 3349              	.LASF120:
 3350 02b5 7072696F 		.ascii	"prio\000"
 3350      00
 3351              	.LASF69:
 3352 02ba 725F6F6C 		.ascii	"r_older\000"
 3352      64657200 
 3353              	.LASF12:
 3354 02c2 5F5F7569 		.ascii	"__uint64_t\000"
 3354      6E743634 
 3354      5F7400
 3355              	.LASF131:
 3356 02cd 2F686F6D 		.ascii	"/home/tino/workspace/openrobots/Middleware_v2-new/\000"
 3356      652F7469 
 3356      6E6F2F77 
 3356      6F726B73 
 3356      70616365 
 3357              	.LASF104:
 3358 0300 746F6B65 		.ascii	"token\000"
 3358      6E00
 3359              	.LASF24:
 3360 0306 74726566 		.ascii	"trefs_t\000"
 3360      735F7400 
 3361              	.LASF103:
 3362 030e 73617665 		.ascii	"saveptr\000"
 3362      70747200 
 3363              	.LASF32:
 3364 0316 705F7072 		.ascii	"p_prev\000"
 3364      657600
 3365              	.LASF25:
 3366 031d 74707269 		.ascii	"tprio_t\000"
 3366      6F5F7400 
 3367              	.LASF112:
ARM GAS  /tmp/cc7aAWvd.s 			page 64


 3368 0325 5F737472 		.ascii	"_strtok\000"
 3368      746F6B00 
 3369              	.LASF21:
 3370 032d 5F426F6F 		.ascii	"_Bool\000"
 3370      6C00
 3371              	.LASF17:
 3372 0333 696E7433 		.ascii	"int32_t\000"
 3372      325F7400 
 3373              	.LASF4:
 3374 033b 756E7369 		.ascii	"unsigned char\000"
 3374      676E6564 
 3374      20636861 
 3374      7200
 3375              	.LASF73:
 3376 0349 6D5F7175 		.ascii	"m_queue\000"
 3376      65756500 
 3377              	.LASF78:
 3378 0351 656C5F6C 		.ascii	"el_listener\000"
 3378      69737465 
 3378      6E657200 
 3379              	.LASF80:
 3380 035d 656C5F66 		.ascii	"el_flags\000"
 3380      6C616773 
 3380      00
 3381              	.LASF47:
 3382 0366 705F6D74 		.ascii	"p_mtxlist\000"
 3382      786C6973 
 3382      7400
 3383              	.LASF5:
 3384 0370 73686F72 		.ascii	"short int\000"
 3384      7420696E 
 3384      7400
 3385              	.LASF39:
 3386 037a 705F7374 		.ascii	"p_state\000"
 3386      61746500 
 3387              	.LASF113:
 3388 0382 636D6465 		.ascii	"cmdexec\000"
 3388      78656300 
 3389              	.LASF66:
 3390 038a 725F7072 		.ascii	"r_prio\000"
 3390      696F00
 3391              	.LASF86:
 3392 0391 65776D61 		.ascii	"ewmask\000"
 3392      736B00
 3393              	.LASF31:
 3394 0398 705F6E65 		.ascii	"p_next\000"
 3394      787400
 3395              	.LASF102:
 3396 039f 64656C69 		.ascii	"delim\000"
 3396      6D00
 3397              	.LASF87:
 3398 03a5 42617365 		.ascii	"BaseSequentialStreamVMT\000"
 3398      53657175 
 3398      656E7469 
 3398      616C5374 
 3398      7265616D 
 3399              	.LASF40:
ARM GAS  /tmp/cc7aAWvd.s 			page 65


 3400 03bd 705F666C 		.ascii	"p_flags\000"
 3400      61677300 
 3401              	.LASF30:
 3402 03c5 54687265 		.ascii	"Thread\000"
 3402      616400
 3403              	.LASF46:
 3404 03cc 705F6570 		.ascii	"p_epending\000"
 3404      656E6469 
 3404      6E6700
 3405              	.LASF18:
 3406 03d7 75696E74 		.ascii	"uint32_t\000"
 3406      33325F74 
 3406      00
 3407              	.LASF65:
 3408 03e0 725F7175 		.ascii	"r_queue\000"
 3408      65756500 
 3409              	.LASF63:
 3410 03e8 76745F73 		.ascii	"vt_systime\000"
 3410      79737469 
 3410      6D6500
 3411              	.LASF129:
 3412 03f3 474E5520 		.ascii	"GNU C 4.9.3 20141119 (release) [ARM/embedded-4_9-br"
 3412      4320342E 
 3412      392E3320 
 3412      32303134 
 3412      31313139 
 3413 0426 616E6368 		.ascii	"anch revision 218278] -mcpu=cortex-m4 -mno-thumb-in"
 3413      20726576 
 3413      6973696F 
 3413      6E203231 
 3413      38323738 
 3414 0459 74657277 		.ascii	"terwork -mthumb -ggdb -O0 -fomit-frame-pointer\000"
 3414      6F726B20 
 3414      2D6D7468 
 3414      756D6220 
 3414      2D676764 
 3415              	.LASF10:
 3416 0488 6C6F6E67 		.ascii	"long unsigned int\000"
 3416      20756E73 
 3416      69676E65 
 3416      6420696E 
 3416      7400
 3417              	.LASF70:
 3418 049a 725F6375 		.ascii	"r_current\000"
 3418      7272656E 
 3418      7400
 3419              	.LASF89:
 3420 04a4 72656164 		.ascii	"read\000"
 3420      00
 3421              	.LASF15:
 3422 04a9 63686172 		.ascii	"char\000"
 3422      00
 3423              	.LASF128:
 3424 04ae 7368656C 		.ascii	"shell_terminated\000"
 3424      6C5F7465 
 3424      726D696E 
 3424      61746564 
ARM GAS  /tmp/cc7aAWvd.s 			page 66


 3424      00
 3425              	.LASF132:
 3426 04bf 7368656C 		.ascii	"shellInit\000"
 3426      6C496E69 
 3426      7400
 3427              	.LASF75:
 3428 04c9 6D5F6E65 		.ascii	"m_next\000"
 3428      787400
 3429              	.LASF29:
 3430 04d0 73797374 		.ascii	"systime_t\000"
 3430      696D655F 
 3430      7400
 3431              	.LASF48:
 3432 04da 705F7265 		.ascii	"p_realprio\000"
 3432      616C7072 
 3432      696F00
 3433              	.LASF56:
 3434 04e5 76746675 		.ascii	"vtfunc_t\000"
 3434      6E635F74 
 3434      00
 3435              	.LASF97:
 3436 04ee 5368656C 		.ascii	"ShellConfig\000"
 3436      6C436F6E 
 3436      66696700 
 3437              	.LASF37:
 3438 04fa 705F6E61 		.ascii	"p_name\000"
 3438      6D6500
 3439              	.LASF100:
 3440 0501 5F5F6170 		.ascii	"__ap\000"
 3440      00
 3441              	.LASF55:
 3442 0506 636F6E74 		.ascii	"context\000"
 3442      65787400 
 3443              	.LASF111:
 3444 050e 636D645F 		.ascii	"cmd_systime\000"
 3444      73797374 
 3444      696D6500 
 3445              	.LASF54:
 3446 051a 696E7463 		.ascii	"intctx\000"
 3446      747800
 3447              	.LASF106:
 3448 0521 75736167 		.ascii	"usage\000"
 3448      6500
 3449              	.LASF62:
 3450 0527 76745F70 		.ascii	"vt_par\000"
 3450      617200
 3451              	.LASF28:
 3452 052e 666C6167 		.ascii	"flagsmask_t\000"
 3452      736D6173 
 3452      6B5F7400 
 3453              	.LASF83:
 3454 053a 7264796D 		.ascii	"rdymsg\000"
 3454      736700
 3455              	.LASF82:
 3456 0541 65735F6E 		.ascii	"es_next\000"
 3456      65787400 
 3457              	.LASF115:
ARM GAS  /tmp/cc7aAWvd.s 			page 67


 3458 0549 7368656C 		.ascii	"shell_thread\000"
 3458      6C5F7468 
 3458      72656164 
 3458      00
 3459              	.LASF126:
 3460 0556 726C6973 		.ascii	"rlist\000"
 3460      7400
 3461              	.LASF16:
 3462 055c 75696E74 		.ascii	"uint8_t\000"
 3462      385F7400 
 3463              	.LASF93:
 3464 0564 73635F66 		.ascii	"sc_function\000"
 3464      756E6374 
 3464      696F6E00 
 3465              	.LASF76:
 3466 0570 4576656E 		.ascii	"EventListener\000"
 3466      744C6973 
 3466      74656E65 
 3466      7200
 3467              	.LASF85:
 3468 057e 77746F62 		.ascii	"wtobjp\000"
 3468      6A7000
 3469              	.LASF109:
 3470 0585 61726763 		.ascii	"argc\000"
 3470      00
 3471              	.LASF107:
 3472 058a 6C697374 		.ascii	"list_commands\000"
 3472      5F636F6D 
 3472      6D616E64 
 3472      7300
 3473              	.LASF45:
 3474 0598 705F6D73 		.ascii	"p_msg\000"
 3474      6700
 3475              	.LASF64:
 3476 059e 56544C69 		.ascii	"VTList\000"
 3476      737400
 3477              	.LASF118:
 3478 05a5 61726773 		.ascii	"args\000"
 3478      00
 3479              	.LASF110:
 3480 05aa 61726776 		.ascii	"argv\000"
 3480      00
 3481              	.LASF74:
 3482 05af 6D5F6F77 		.ascii	"m_owner\000"
 3482      6E657200 
 3483              	.LASF34:
 3484 05b7 705F6374 		.ascii	"p_ctx\000"
 3484      7800
 3485              	.LASF61:
 3486 05bd 76745F66 		.ascii	"vt_func\000"
 3486      756E6300 
 3487              	.LASF105:
 3488 05c5 63687072 		.ascii	"chprintf\000"
 3488      696E7466 
 3488      00
 3489              		.ident	"GCC: (GNU Tools for ARM Embedded Processors) 4.9.3 20141119 (release) [ARM/embedded-4_9-br
ARM GAS  /tmp/cc7aAWvd.s 			page 68


DEFINED SYMBOLS
                            *ABS*:00000000 shell.c
     /tmp/cc7aAWvd.s:18     .text:00000000 $t
     /tmp/cc7aAWvd.s:22     .text:00000000 chprintf
                            *COM*:00000004 shell_terminated
     /tmp/cc7aAWvd.s:69     .text:00000020 _strtok
     /tmp/cc7aAWvd.s:159    .rodata:00000000 $d
     /tmp/cc7aAWvd.s:167    .text:00000094 usage
     /tmp/cc7aAWvd.s:193    .text:000000ac $d
     /tmp/cc7aAWvd.s:202    .text:000000b0 $t
     /tmp/cc7aAWvd.s:206    .text:000000b0 list_commands
     /tmp/cc7aAWvd.s:247    .text:000000dc $d
     /tmp/cc7aAWvd.s:311    .text:000000e0 $t
     /tmp/cc7aAWvd.s:315    .text:000000e0 cmd_info
     /tmp/cc7aAWvd.s:392    .text:00000158 $d
     /tmp/cc7aAWvd.s:422    .text:000001a4 $t
     /tmp/cc7aAWvd.s:426    .text:000001a4 cmd_systime
     /tmp/cc7aAWvd.s:467    .text:000001d4 $d
     /tmp/cc7aAWvd.s:474    .data:00000000 $d
     /tmp/cc7aAWvd.s:477    .data:00000000 local_commands
     /tmp/cc7aAWvd.s:485    .text:000001e0 $t
     /tmp/cc7aAWvd.s:489    .text:000001e0 cmdexec
     /tmp/cc7aAWvd.s:591    .text:00000228 shell_thread
     /tmp/cc7aAWvd.s:1000   .text:00000454 shellGetLine
     /tmp/cc7aAWvd.s:867    .text:000003d8 shellExit
     /tmp/cc7aAWvd.s:820    .text:00000394 $d
     /tmp/cc7aAWvd.s:837    .text:000003cc $t
     /tmp/cc7aAWvd.s:842    .text:000003cc shellInit
     /tmp/cc7aAWvd.s:858    .text:000003d4 $d
     /tmp/cc7aAWvd.s:862    .text:000003d8 $t
     /tmp/cc7aAWvd.s:903    .text:000003fc $d
     /tmp/cc7aAWvd.s:907    .text:00000400 $t
     /tmp/cc7aAWvd.s:912    .text:00000400 shellCreate
     /tmp/cc7aAWvd.s:944    .text:00000424 $d
     /tmp/cc7aAWvd.s:948    .text:00000428 $t
     /tmp/cc7aAWvd.s:953    .text:00000428 shellCreateStatic
     /tmp/cc7aAWvd.s:986    .text:00000450 $d
     /tmp/cc7aAWvd.s:995    .text:00000454 $t
     /tmp/cc7aAWvd.s:1147   .text:00000530 $d
                     .debug_frame:00000010 $d

UNDEFINED SYMBOLS
chvprintf
strspn
strpbrk
vtlist
strcasecmp
rlist
dbg_check_lock
chEvtBroadcastFlagsI
chThdExitS
chThdCreateFromHeap
chThdCreateStatic
