ARM GAS  /tmp/cc7aAWvd.s 			page 1


   1              		.syntax unified
   2              		.cpu cortex-m4
   3              		.fpu softvfp
   4              		.eabi_attribute 20, 1
   5              		.eabi_attribute 21, 1
   6              		.eabi_attribute 23, 3
   7              		.eabi_attribute 24, 1
   8              		.eabi_attribute 25, 1
   9              		.eabi_attribute 26, 1
  10              		.eabi_attribute 30, 6
  11              		.eabi_attribute 34, 1
  12              		.eabi_attribute 18, 4
  13              		.thumb
  14              		.file	"shell.c"
  15              		.text
  16              	.Ltext0:
  17              		.cfi_sections	.debug_frame
  18              		.align	2
  19              		.thumb
  20              		.thumb_func
  21              		.type	chprintf, %function
  22              	chprintf:
  23              	.LFB118:
  24              		.file 1 "/opt/R2P/core/ChibiOS_2.6.5/os/various/chprintf.h"
  25              		.loc 1 69 0
  26              		.cfi_startproc
  27              		@ args = 4, pretend = 12, frame = 16
  28              		@ frame_needed = 0, uses_anonymous_args = 1
  29 0000 0EB4     		push	{r1, r2, r3}
  30              		.cfi_def_cfa_offset 12
  31              		.cfi_offset 1, -12
  32              		.cfi_offset 2, -8
  33              		.cfi_offset 3, -4
  34 0002 00B5     		push	{lr}
  35              		.cfi_def_cfa_offset 16
  36              		.cfi_offset 14, -16
  37 0004 84B0     		sub	sp, sp, #16
  38              		.cfi_def_cfa_offset 32
  39 0006 0190     		str	r0, [sp, #4]
  40              		.loc 1 72 0
  41 0008 06AB     		add	r3, sp, #24
  42 000a 0393     		str	r3, [sp, #12]
  43              		.loc 1 73 0
  44 000c 0198     		ldr	r0, [sp, #4]
  45 000e 0599     		ldr	r1, [sp, #20]
  46 0010 039A     		ldr	r2, [sp, #12]
  47 0012 FFF7FEFF 		bl	chvprintf
  48              		.loc 1 75 0
  49 0016 04B0     		add	sp, sp, #16
  50              		.cfi_def_cfa_offset 16
  51              		@ sp needed
  52 0018 5DF804EB 		ldr	lr, [sp], #4
  53              		.cfi_restore 14
  54              		.cfi_def_cfa_offset 12
  55 001c 03B0     		add	sp, sp, #12
  56              		.cfi_restore 3
  57              		.cfi_restore 2
ARM GAS  /tmp/cc7aAWvd.s 			page 2


  58              		.cfi_restore 1
  59              		.cfi_def_cfa_offset 0
  60 001e 7047     		bx	lr
  61              		.cfi_endproc
  62              	.LFE118:
  63              		.size	chprintf, .-chprintf
  64              		.comm	shell_terminated,4,4
  65              		.align	2
  66              		.thumb
  67              		.thumb_func
  68              		.type	_strtok, %function
  69              	_strtok:
  70              	.LFB119:
  71              		.file 2 "/opt/R2P/core/ChibiOS_2.6.5/os/various/shell.c"
  72              		.loc 2 37 0
  73              		.cfi_startproc
  74              		@ args = 0, pretend = 0, frame = 24
  75              		@ frame_needed = 0, uses_anonymous_args = 0
  76 0020 00B5     		push	{lr}
  77              		.cfi_def_cfa_offset 4
  78              		.cfi_offset 14, -4
  79 0022 87B0     		sub	sp, sp, #28
  80              		.cfi_def_cfa_offset 32
  81 0024 0390     		str	r0, [sp, #12]
  82 0026 0291     		str	r1, [sp, #8]
  83 0028 0192     		str	r2, [sp, #4]
  84              		.loc 2 39 0
  85 002a 039B     		ldr	r3, [sp, #12]
  86 002c 002B     		cmp	r3, #0
  87 002e 02D0     		beq	.L3
  88              		.loc 2 40 0
  89 0030 019B     		ldr	r3, [sp, #4]
  90 0032 039A     		ldr	r2, [sp, #12]
  91 0034 1A60     		str	r2, [r3]
  92              	.L3:
  93              		.loc 2 41 0
  94 0036 019B     		ldr	r3, [sp, #4]
  95 0038 1B68     		ldr	r3, [r3]
  96 003a 0593     		str	r3, [sp, #20]
  97              		.loc 2 43 0
  98 003c 059B     		ldr	r3, [sp, #20]
  99 003e 002B     		cmp	r3, #0
 100 0040 01D1     		bne	.L4
 101              		.loc 2 44 0
 102 0042 0023     		movs	r3, #0
 103 0044 21E0     		b	.L5
 104              	.L4:
 105              		.loc 2 46 0
 106 0046 0598     		ldr	r0, [sp, #20]
 107 0048 0299     		ldr	r1, [sp, #8]
 108 004a FFF7FEFF 		bl	strspn
 109 004e 0246     		mov	r2, r0
 110 0050 059B     		ldr	r3, [sp, #20]
 111 0052 1344     		add	r3, r3, r2
 112 0054 0593     		str	r3, [sp, #20]
 113              		.loc 2 47 0
 114 0056 0598     		ldr	r0, [sp, #20]
ARM GAS  /tmp/cc7aAWvd.s 			page 3


 115 0058 0299     		ldr	r1, [sp, #8]
 116 005a FFF7FEFF 		bl	strpbrk
 117 005e 0246     		mov	r2, r0
 118 0060 019B     		ldr	r3, [sp, #4]
 119 0062 1A60     		str	r2, [r3]
 120              		.loc 2 48 0
 121 0064 019B     		ldr	r3, [sp, #4]
 122 0066 1B68     		ldr	r3, [r3]
 123 0068 002B     		cmp	r3, #0
 124 006a 06D0     		beq	.L6
 125              		.loc 2 49 0
 126 006c 019B     		ldr	r3, [sp, #4]
 127 006e 1B68     		ldr	r3, [r3]
 128 0070 591C     		adds	r1, r3, #1
 129 0072 019A     		ldr	r2, [sp, #4]
 130 0074 1160     		str	r1, [r2]
 131 0076 0022     		movs	r2, #0
 132 0078 1A70     		strb	r2, [r3]
 133              	.L6:
 134              		.loc 2 51 0
 135 007a 059B     		ldr	r3, [sp, #20]
 136 007c 1B78     		ldrb	r3, [r3]	@ zero_extendqisi2
 137 007e 002B     		cmp	r3, #0
 138 0080 01D0     		beq	.L7
 139              		.loc 2 51 0 is_stmt 0 discriminator 1
 140 0082 059B     		ldr	r3, [sp, #20]
 141 0084 00E0     		b	.L9
 142              	.L7:
 143              		.loc 2 51 0 discriminator 2
 144 0086 0023     		movs	r3, #0
 145              	.L9:
 146              		.loc 2 51 0
 147 0088 00BF     		nop
 148              	.L5:
 149              		.loc 2 52 0 is_stmt 1
 150 008a 1846     		mov	r0, r3
 151 008c 07B0     		add	sp, sp, #28
 152              		.cfi_def_cfa_offset 4
 153              		@ sp needed
 154 008e 5DF804FB 		ldr	pc, [sp], #4
 155              		.cfi_endproc
 156              	.LFE119:
 157              		.size	_strtok, .-_strtok
 158              		.section	.rodata
 159              		.align	2
 160              	.LC0:
 161 0000 55736167 		.ascii	"Usage: %s\015\012\000"
 161      653A2025 
 161      730D0A00 
 162              		.text
 163 0092 00BF     		.align	2
 164              		.thumb
 165              		.thumb_func
 166              		.type	usage, %function
 167              	usage:
 168              	.LFB120:
 169              		.loc 2 54 0
ARM GAS  /tmp/cc7aAWvd.s 			page 4


 170              		.cfi_startproc
 171              		@ args = 0, pretend = 0, frame = 8
 172              		@ frame_needed = 0, uses_anonymous_args = 0
 173 0094 00B5     		push	{lr}
 174              		.cfi_def_cfa_offset 4
 175              		.cfi_offset 14, -4
 176 0096 83B0     		sub	sp, sp, #12
 177              		.cfi_def_cfa_offset 16
 178 0098 0190     		str	r0, [sp, #4]
 179 009a 0091     		str	r1, [sp]
 180              		.loc 2 56 0
 181 009c 0198     		ldr	r0, [sp, #4]
 182 009e 0349     		ldr	r1, .L11
 183 00a0 009A     		ldr	r2, [sp]
 184 00a2 FFF7ADFF 		bl	chprintf
 185              		.loc 2 57 0
 186 00a6 03B0     		add	sp, sp, #12
 187              		.cfi_def_cfa_offset 4
 188              		@ sp needed
 189 00a8 5DF804FB 		ldr	pc, [sp], #4
 190              	.L12:
 191              		.align	2
 192              	.L11:
 193 00ac 00000000 		.word	.LC0
 194              		.cfi_endproc
 195              	.LFE120:
 196              		.size	usage, .-usage
 197              		.section	.rodata
 198              		.align	2
 199              	.LC1:
 200 000c 25732000 		.ascii	"%s \000"
 201              		.text
 202              		.align	2
 203              		.thumb
 204              		.thumb_func
 205              		.type	list_commands, %function
 206              	list_commands:
 207              	.LFB121:
 208              		.loc 2 59 0
 209              		.cfi_startproc
 210              		@ args = 0, pretend = 0, frame = 8
 211              		@ frame_needed = 0, uses_anonymous_args = 0
 212 00b0 00B5     		push	{lr}
 213              		.cfi_def_cfa_offset 4
 214              		.cfi_offset 14, -4
 215 00b2 83B0     		sub	sp, sp, #12
 216              		.cfi_def_cfa_offset 16
 217 00b4 0190     		str	r0, [sp, #4]
 218 00b6 0091     		str	r1, [sp]
 219              		.loc 2 61 0
 220 00b8 09E0     		b	.L14
 221              	.L15:
 222              		.loc 2 62 0
 223 00ba 009B     		ldr	r3, [sp]
 224 00bc 1B68     		ldr	r3, [r3]
 225 00be 0198     		ldr	r0, [sp, #4]
 226 00c0 0649     		ldr	r1, .L16
ARM GAS  /tmp/cc7aAWvd.s 			page 5


 227 00c2 1A46     		mov	r2, r3
 228 00c4 FFF79CFF 		bl	chprintf
 229              		.loc 2 63 0
 230 00c8 009B     		ldr	r3, [sp]
 231 00ca 0833     		adds	r3, r3, #8
 232 00cc 0093     		str	r3, [sp]
 233              	.L14:
 234              		.loc 2 61 0
 235 00ce 009B     		ldr	r3, [sp]
 236 00d0 1B68     		ldr	r3, [r3]
 237 00d2 002B     		cmp	r3, #0
 238 00d4 F1D1     		bne	.L15
 239              		.loc 2 65 0
 240 00d6 03B0     		add	sp, sp, #12
 241              		.cfi_def_cfa_offset 4
 242              		@ sp needed
 243 00d8 5DF804FB 		ldr	pc, [sp], #4
 244              	.L17:
 245              		.align	2
 246              	.L16:
 247 00dc 0C000000 		.word	.LC1
 248              		.cfi_endproc
 249              	.LFE121:
 250              		.size	list_commands, .-list_commands
 251              		.section	.rodata
 252              		.align	2
 253              	.LC2:
 254 0010 696E666F 		.ascii	"info\000"
 254      00
 255 0015 000000   		.align	2
 256              	.LC3:
 257 0018 4B65726E 		.ascii	"Kernel:       %s\015\012\000"
 257      656C3A20 
 257      20202020 
 257      20202573 
 257      0D0A00
 258 002b 00       		.align	2
 259              	.LC4:
 260 002c 322E362E 		.ascii	"2.6.5\000"
 260      3500
 261 0032 0000     		.align	2
 262              	.LC5:
 263 0034 436F6D70 		.ascii	"Compiler:     %s\015\012\000"
 263      696C6572 
 263      3A202020 
 263      20202573 
 263      0D0A00
 264 0047 00       		.align	2
 265              	.LC6:
 266 0048 47434320 		.ascii	"GCC 4.9.3 20141119 (release) [ARM/embedded-4_9-bran"
 266      342E392E 
 266      33203230 
 266      31343131 
 266      31392028 
 267 007b 63682072 		.ascii	"ch revision 218278]\000"
 267      65766973 
 267      696F6E20 
ARM GAS  /tmp/cc7aAWvd.s 			page 6


 267      32313832 
 267      37385D00 
 268 008f 00       		.align	2
 269              	.LC7:
 270 0090 41726368 		.ascii	"Architecture: %s\015\012\000"
 270      69746563 
 270      74757265 
 270      3A202573 
 270      0D0A00
 271 00a3 00       		.align	2
 272              	.LC8:
 273 00a4 41524D76 		.ascii	"ARMv7-ME\000"
 273      372D4D45 
 273      00
 274 00ad 000000   		.align	2
 275              	.LC9:
 276 00b0 436F7265 		.ascii	"Core Variant: %s\015\012\000"
 276      20566172 
 276      69616E74 
 276      3A202573 
 276      0D0A00
 277 00c3 00       		.align	2
 278              	.LC10:
 279 00c4 436F7274 		.ascii	"Cortex-M4\000"
 279      65782D4D 
 279      3400
 280 00ce 0000     		.align	2
 281              	.LC11:
 282 00d0 506F7274 		.ascii	"Port Info:    %s\015\012\000"
 282      20496E66 
 282      6F3A2020 
 282      20202573 
 282      0D0A00
 283 00e3 00       		.align	2
 284              	.LC12:
 285 00e4 41647661 		.ascii	"Advanced kernel mode\000"
 285      6E636564 
 285      206B6572 
 285      6E656C20 
 285      6D6F6465 
 286 00f9 000000   		.align	2
 287              	.LC13:
 288 00fc 506C6174 		.ascii	"Platform:     %s\015\012\000"
 288      666F726D 
 288      3A202020 
 288      20202573 
 288      0D0A00
 289 010f 00       		.align	2
 290              	.LC14:
 291 0110 53544D33 		.ascii	"STM32F30x Analog & DSP\000"
 291      32463330 
 291      7820416E 
 291      616C6F67 
 291      20262044 
 292 0127 00       		.align	2
 293              	.LC15:
 294 0128 426F6172 		.ascii	"Board:        %s\015\012\000"
ARM GAS  /tmp/cc7aAWvd.s 			page 7


 294      643A2020 
 294      20202020 
 294      20202573 
 294      0D0A00
 295 013b 00       		.align	2
 296              	.LC16:
 297 013c 52325020 		.ascii	"R2P USB module\000"
 297      55534220 
 297      6D6F6475 
 297      6C6500
 298 014b 00       		.align	2
 299              	.LC17:
 300 014c 4275696C 		.ascii	"Build time:   %s%s%s\015\012\000"
 300      64207469 
 300      6D653A20 
 300      20202573 
 300      25732573 
 301 0163 00       		.align	2
 302              	.LC18:
 303 0164 46656220 		.ascii	"Feb 13 2015\000"
 303      31332032 
 303      30313500 
 304              		.align	2
 305              	.LC19:
 306 0170 202D2000 		.ascii	" - \000"
 307              		.align	2
 308              	.LC20:
 309 0174 31363A33 		.ascii	"16:39:37\000"
 309      393A3337 
 309      00
 310              		.text
 311              		.align	2
 312              		.thumb
 313              		.thumb_func
 314              		.type	cmd_info, %function
 315              	cmd_info:
 316              	.LFB122:
 317              		.loc 2 67 0
 318              		.cfi_startproc
 319              		@ args = 0, pretend = 0, frame = 16
 320              		@ frame_needed = 0, uses_anonymous_args = 0
 321 00e0 00B5     		push	{lr}
 322              		.cfi_def_cfa_offset 4
 323              		.cfi_offset 14, -4
 324 00e2 87B0     		sub	sp, sp, #28
 325              		.cfi_def_cfa_offset 32
 326 00e4 0590     		str	r0, [sp, #20]
 327 00e6 0491     		str	r1, [sp, #16]
 328 00e8 0392     		str	r2, [sp, #12]
 329              		.loc 2 70 0
 330 00ea 049B     		ldr	r3, [sp, #16]
 331 00ec 002B     		cmp	r3, #0
 332 00ee 04DD     		ble	.L19
 333              		.loc 2 71 0
 334 00f0 0598     		ldr	r0, [sp, #20]
 335 00f2 1949     		ldr	r1, .L21
 336 00f4 FFF7CEFF 		bl	usage
ARM GAS  /tmp/cc7aAWvd.s 			page 8


 337              		.loc 2 72 0
 338 00f8 2AE0     		b	.L18
 339              	.L19:
 340              		.loc 2 75 0
 341 00fa 0598     		ldr	r0, [sp, #20]
 342 00fc 1749     		ldr	r1, .L21+4
 343 00fe 184A     		ldr	r2, .L21+8
 344 0100 FFF77EFF 		bl	chprintf
 345              		.loc 2 77 0
 346 0104 0598     		ldr	r0, [sp, #20]
 347 0106 1749     		ldr	r1, .L21+12
 348 0108 174A     		ldr	r2, .L21+16
 349 010a FFF779FF 		bl	chprintf
 350              		.loc 2 79 0
 351 010e 0598     		ldr	r0, [sp, #20]
 352 0110 1649     		ldr	r1, .L21+20
 353 0112 174A     		ldr	r2, .L21+24
 354 0114 FFF774FF 		bl	chprintf
 355              		.loc 2 81 0
 356 0118 0598     		ldr	r0, [sp, #20]
 357 011a 1649     		ldr	r1, .L21+28
 358 011c 164A     		ldr	r2, .L21+32
 359 011e FFF76FFF 		bl	chprintf
 360              		.loc 2 84 0
 361 0122 0598     		ldr	r0, [sp, #20]
 362 0124 1549     		ldr	r1, .L21+36
 363 0126 164A     		ldr	r2, .L21+40
 364 0128 FFF76AFF 		bl	chprintf
 365              		.loc 2 87 0
 366 012c 0598     		ldr	r0, [sp, #20]
 367 012e 1549     		ldr	r1, .L21+44
 368 0130 154A     		ldr	r2, .L21+48
 369 0132 FFF765FF 		bl	chprintf
 370              		.loc 2 90 0
 371 0136 0598     		ldr	r0, [sp, #20]
 372 0138 1449     		ldr	r1, .L21+52
 373 013a 154A     		ldr	r2, .L21+56
 374 013c FFF760FF 		bl	chprintf
 375              		.loc 2 94 0
 376 0140 144B     		ldr	r3, .L21+60
 377 0142 0093     		str	r3, [sp]
 378 0144 0598     		ldr	r0, [sp, #20]
 379 0146 1449     		ldr	r1, .L21+64
 380 0148 144A     		ldr	r2, .L21+68
 381 014a 154B     		ldr	r3, .L21+72
 382 014c FFF758FF 		bl	chprintf
 383              	.L18:
 384              		.loc 2 97 0
 385 0150 07B0     		add	sp, sp, #28
 386              		.cfi_def_cfa_offset 4
 387              		@ sp needed
 388 0152 5DF804FB 		ldr	pc, [sp], #4
 389              	.L22:
 390 0156 00BF     		.align	2
 391              	.L21:
 392 0158 10000000 		.word	.LC2
 393 015c 18000000 		.word	.LC3
ARM GAS  /tmp/cc7aAWvd.s 			page 9


 394 0160 2C000000 		.word	.LC4
 395 0164 34000000 		.word	.LC5
 396 0168 48000000 		.word	.LC6
 397 016c 90000000 		.word	.LC7
 398 0170 A4000000 		.word	.LC8
 399 0174 B0000000 		.word	.LC9
 400 0178 C4000000 		.word	.LC10
 401 017c D0000000 		.word	.LC11
 402 0180 E4000000 		.word	.LC12
 403 0184 FC000000 		.word	.LC13
 404 0188 10010000 		.word	.LC14
 405 018c 28010000 		.word	.LC15
 406 0190 3C010000 		.word	.LC16
 407 0194 74010000 		.word	.LC20
 408 0198 4C010000 		.word	.LC17
 409 019c 64010000 		.word	.LC18
 410 01a0 70010000 		.word	.LC19
 411              		.cfi_endproc
 412              	.LFE122:
 413              		.size	cmd_info, .-cmd_info
 414              		.section	.rodata
 415 017d 000000   		.align	2
 416              	.LC21:
 417 0180 73797374 		.ascii	"systime\000"
 417      696D6500 
 418              		.align	2
 419              	.LC22:
 420 0188 256C750D 		.ascii	"%lu\015\012\000"
 420      0A00
 421              		.text
 422              		.align	2
 423              		.thumb
 424              		.thumb_func
 425              		.type	cmd_systime, %function
 426              	cmd_systime:
 427              	.LFB123:
 428              		.loc 2 99 0
 429              		.cfi_startproc
 430              		@ args = 0, pretend = 0, frame = 16
 431              		@ frame_needed = 0, uses_anonymous_args = 0
 432 01a4 00B5     		push	{lr}
 433              		.cfi_def_cfa_offset 4
 434              		.cfi_offset 14, -4
 435 01a6 85B0     		sub	sp, sp, #20
 436              		.cfi_def_cfa_offset 24
 437 01a8 0390     		str	r0, [sp, #12]
 438 01aa 0291     		str	r1, [sp, #8]
 439 01ac 0192     		str	r2, [sp, #4]
 440              		.loc 2 102 0
 441 01ae 029B     		ldr	r3, [sp, #8]
 442 01b0 002B     		cmp	r3, #0
 443 01b2 04DD     		ble	.L24
 444              		.loc 2 103 0
 445 01b4 0398     		ldr	r0, [sp, #12]
 446 01b6 0749     		ldr	r1, .L26
 447 01b8 FFF76CFF 		bl	usage
 448              		.loc 2 104 0
ARM GAS  /tmp/cc7aAWvd.s 			page 10


 449 01bc 06E0     		b	.L23
 450              	.L24:
 451              		.loc 2 106 0
 452 01be 064B     		ldr	r3, .L26+4
 453 01c0 DB68     		ldr	r3, [r3, #12]
 454 01c2 0398     		ldr	r0, [sp, #12]
 455 01c4 0549     		ldr	r1, .L26+8
 456 01c6 1A46     		mov	r2, r3
 457 01c8 FFF71AFF 		bl	chprintf
 458              	.L23:
 459              		.loc 2 107 0
 460 01cc 05B0     		add	sp, sp, #20
 461              		.cfi_def_cfa_offset 4
 462              		@ sp needed
 463 01ce 5DF804FB 		ldr	pc, [sp], #4
 464              	.L27:
 465 01d2 00BF     		.align	2
 466              	.L26:
 467 01d4 80010000 		.word	.LC21
 468 01d8 00000000 		.word	vtlist
 469 01dc 88010000 		.word	.LC22
 470              		.cfi_endproc
 471              	.LFE123:
 472              		.size	cmd_systime, .-cmd_systime
 473              		.data
 474              		.align	2
 475              		.type	local_commands, %object
 476              		.size	local_commands, 24
 477              	local_commands:
 478 0000 10000000 		.word	.LC2
 479 0004 00000000 		.word	cmd_info
 480 0008 80010000 		.word	.LC21
 481 000c 00000000 		.word	cmd_systime
 482 0010 00000000 		.word	0
 483 0014 00000000 		.word	0
 484              		.text
 485              		.align	2
 486              		.thumb
 487              		.thumb_func
 488              		.type	cmdexec, %function
 489              	cmdexec:
 490              	.LFB124:
 491              		.loc 2 119 0
 492              		.cfi_startproc
 493              		@ args = 4, pretend = 0, frame = 16
 494              		@ frame_needed = 0, uses_anonymous_args = 0
 495 01e0 00B5     		push	{lr}
 496              		.cfi_def_cfa_offset 4
 497              		.cfi_offset 14, -4
 498 01e2 85B0     		sub	sp, sp, #20
 499              		.cfi_def_cfa_offset 24
 500 01e4 0390     		str	r0, [sp, #12]
 501 01e6 0291     		str	r1, [sp, #8]
 502 01e8 0192     		str	r2, [sp, #4]
 503 01ea 0093     		str	r3, [sp]
 504              		.loc 2 121 0
 505 01ec 13E0     		b	.L29
ARM GAS  /tmp/cc7aAWvd.s 			page 11


 506              	.L32:
 507              		.loc 2 122 0
 508 01ee 039B     		ldr	r3, [sp, #12]
 509 01f0 1B68     		ldr	r3, [r3]
 510 01f2 1846     		mov	r0, r3
 511 01f4 0199     		ldr	r1, [sp, #4]
 512 01f6 FFF7FEFF 		bl	strcasecmp
 513 01fa 0346     		mov	r3, r0
 514 01fc 002B     		cmp	r3, #0
 515 01fe 07D1     		bne	.L30
 516              		.loc 2 123 0
 517 0200 039B     		ldr	r3, [sp, #12]
 518 0202 5B68     		ldr	r3, [r3, #4]
 519 0204 0298     		ldr	r0, [sp, #8]
 520 0206 0099     		ldr	r1, [sp]
 521 0208 069A     		ldr	r2, [sp, #24]
 522 020a 9847     		blx	r3
 523              		.loc 2 124 0
 524 020c 0023     		movs	r3, #0
 525 020e 07E0     		b	.L31
 526              	.L30:
 527              		.loc 2 126 0
 528 0210 039B     		ldr	r3, [sp, #12]
 529 0212 0833     		adds	r3, r3, #8
 530 0214 0393     		str	r3, [sp, #12]
 531              	.L29:
 532              		.loc 2 121 0
 533 0216 039B     		ldr	r3, [sp, #12]
 534 0218 1B68     		ldr	r3, [r3]
 535 021a 002B     		cmp	r3, #0
 536 021c E7D1     		bne	.L32
 537              		.loc 2 128 0
 538 021e 0123     		movs	r3, #1
 539              	.L31:
 540              		.loc 2 129 0
 541 0220 1846     		mov	r0, r3
 542 0222 05B0     		add	sp, sp, #20
 543              		.cfi_def_cfa_offset 4
 544              		@ sp needed
 545 0224 5DF804FB 		ldr	pc, [sp], #4
 546              		.cfi_endproc
 547              	.LFE124:
 548              		.size	cmdexec, .-cmdexec
 549              		.section	.rodata
 550 018e 0000     		.align	2
 551              	.LC23:
 552 0190 7368656C 		.ascii	"shell\000"
 552      6C00
 553 0196 0000     		.align	2
 554              	.LC24:
 555 0198 0D0A4368 		.ascii	"\015\012ChibiOS/RT Shell\015\012\000"
 555      6962694F 
 555      532F5254 
 555      20536865 
 555      6C6C0D0A 
 556 01ad 000000   		.align	2
 557              	.LC25:
ARM GAS  /tmp/cc7aAWvd.s 			page 12


 558 01b0 63683E20 		.ascii	"ch> \000"
 558      00
 559 01b5 000000   		.align	2
 560              	.LC26:
 561 01b8 0D0A6C6F 		.ascii	"\015\012logout\000"
 561      676F7574 
 561      00
 562 01c1 000000   		.align	2
 563              	.LC27:
 564 01c4 200900   		.ascii	" \011\000"
 565 01c7 00       		.align	2
 566              	.LC28:
 567 01c8 746F6F20 		.ascii	"too many arguments\015\012\000"
 567      6D616E79 
 567      20617267 
 567      756D656E 
 567      74730D0A 
 568 01dd 000000   		.align	2
 569              	.LC29:
 570 01e0 65786974 		.ascii	"exit\000"
 570      00
 571 01e5 000000   		.align	2
 572              	.LC30:
 573 01e8 68656C70 		.ascii	"help\000"
 573      00
 574 01ed 000000   		.align	2
 575              	.LC31:
 576 01f0 436F6D6D 		.ascii	"Commands: help exit \000"
 576      616E6473 
 576      3A206865 
 576      6C702065 
 576      78697420 
 577 0205 000000   		.align	2
 578              	.LC32:
 579 0208 0D0A00   		.ascii	"\015\012\000"
 580 020b 00       		.align	2
 581              	.LC33:
 582 020c 257300   		.ascii	"%s\000"
 583 020f 00       		.align	2
 584              	.LC34:
 585 0210 203F0D0A 		.ascii	" ?\015\012\000"
 585      00
 586              		.text
 587              		.align	2
 588              		.thumb
 589              		.thumb_func
 590              		.type	shell_thread, %function
 591              	shell_thread:
 592              	.LFB125:
 593              		.loc 2 141 0
 594              		.cfi_startproc
 595              		@ args = 0, pretend = 0, frame = 120
 596              		@ frame_needed = 0, uses_anonymous_args = 0
 597 0228 00B5     		push	{lr}
 598              		.cfi_def_cfa_offset 4
 599              		.cfi_offset 14, -4
 600 022a A1B0     		sub	sp, sp, #132
ARM GAS  /tmp/cc7aAWvd.s 			page 13


 601              		.cfi_def_cfa_offset 136
 602 022c 0390     		str	r0, [sp, #12]
 603              		.loc 2 143 0
 604 022e 039B     		ldr	r3, [sp, #12]
 605 0230 1B68     		ldr	r3, [r3]
 606 0232 1D93     		str	r3, [sp, #116]
 607              		.loc 2 144 0
 608 0234 039B     		ldr	r3, [sp, #12]
 609 0236 5B68     		ldr	r3, [r3, #4]
 610 0238 1C93     		str	r3, [sp, #112]
 611              		.loc 2 148 0
 612 023a 564B     		ldr	r3, .L49
 613 023c 9B69     		ldr	r3, [r3, #24]
 614 023e 564A     		ldr	r2, .L49+4
 615 0240 9A61     		str	r2, [r3, #24]
 616              		.loc 2 149 0
 617 0242 1D98     		ldr	r0, [sp, #116]
 618 0244 5549     		ldr	r1, .L49+8
 619 0246 FFF7DBFE 		bl	chprintf
 620              	.L47:
 621              		.loc 2 151 0
 622 024a 1D98     		ldr	r0, [sp, #116]
 623 024c 5449     		ldr	r1, .L49+12
 624 024e FFF7D7FE 		bl	chprintf
 625              		.loc 2 152 0
 626 0252 0AAB     		add	r3, sp, #40
 627 0254 1D98     		ldr	r0, [sp, #116]
 628 0256 1946     		mov	r1, r3
 629 0258 4022     		movs	r2, #64
 630 025a FFF7FEFF 		bl	shellGetLine
 631 025e 0346     		mov	r3, r0
 632 0260 002B     		cmp	r3, #0
 633 0262 04D0     		beq	.L34
 634              		.loc 2 153 0
 635 0264 1D98     		ldr	r0, [sp, #116]
 636 0266 4F49     		ldr	r1, .L49+16
 637 0268 FFF7CAFE 		bl	chprintf
 638              		.loc 2 154 0
 639 026c 89E0     		b	.L35
 640              	.L34:
 641              		.loc 2 156 0
 642 026e 0AAA     		add	r2, sp, #40
 643 0270 1AAB     		add	r3, sp, #104
 644 0272 1046     		mov	r0, r2
 645 0274 4C49     		ldr	r1, .L49+20
 646 0276 1A46     		mov	r2, r3
 647 0278 FFF7D2FE 		bl	_strtok
 648 027c 1B90     		str	r0, [sp, #108]
 649              		.loc 2 157 0
 650 027e 1B9B     		ldr	r3, [sp, #108]
 651 0280 1E93     		str	r3, [sp, #120]
 652              		.loc 2 158 0
 653 0282 0023     		movs	r3, #0
 654 0284 1F93     		str	r3, [sp, #124]
 655              		.loc 2 159 0
 656 0286 12E0     		b	.L36
 657              	.L39:
ARM GAS  /tmp/cc7aAWvd.s 			page 14


 658              		.loc 2 160 0
 659 0288 1F9B     		ldr	r3, [sp, #124]
 660 028a 032B     		cmp	r3, #3
 661 028c 06DD     		ble	.L37
 662              		.loc 2 161 0
 663 028e 1D98     		ldr	r0, [sp, #116]
 664 0290 4649     		ldr	r1, .L49+24
 665 0292 FFF7B5FE 		bl	chprintf
 666              		.loc 2 162 0
 667 0296 0023     		movs	r3, #0
 668 0298 1E93     		str	r3, [sp, #120]
 669              		.loc 2 163 0
 670 029a 12E0     		b	.L38
 671              	.L37:
 672              		.loc 2 165 0
 673 029c 1F9B     		ldr	r3, [sp, #124]
 674 029e 5A1C     		adds	r2, r3, #1
 675 02a0 1F92     		str	r2, [sp, #124]
 676 02a2 9B00     		lsls	r3, r3, #2
 677 02a4 20AA     		add	r2, sp, #128
 678 02a6 1344     		add	r3, r3, r2
 679 02a8 1B9A     		ldr	r2, [sp, #108]
 680 02aa 43F86C2C 		str	r2, [r3, #-108]
 681              	.L36:
 682              		.loc 2 159 0
 683 02ae 1AAB     		add	r3, sp, #104
 684 02b0 0020     		movs	r0, #0
 685 02b2 3D49     		ldr	r1, .L49+20
 686 02b4 1A46     		mov	r2, r3
 687 02b6 FFF7B3FE 		bl	_strtok
 688 02ba 1B90     		str	r0, [sp, #108]
 689 02bc 1B9B     		ldr	r3, [sp, #108]
 690 02be 002B     		cmp	r3, #0
 691 02c0 E2D1     		bne	.L39
 692              	.L38:
 693              		.loc 2 167 0
 694 02c2 1F9B     		ldr	r3, [sp, #124]
 695 02c4 9B00     		lsls	r3, r3, #2
 696 02c6 20AA     		add	r2, sp, #128
 697 02c8 1344     		add	r3, r3, r2
 698 02ca 0022     		movs	r2, #0
 699 02cc 43F86C2C 		str	r2, [r3, #-108]
 700              		.loc 2 168 0
 701 02d0 1E9B     		ldr	r3, [sp, #120]
 702 02d2 002B     		cmp	r3, #0
 703 02d4 54D0     		beq	.L40
 704              		.loc 2 169 0
 705 02d6 1E98     		ldr	r0, [sp, #120]
 706 02d8 3549     		ldr	r1, .L49+28
 707 02da FFF7FEFF 		bl	strcasecmp
 708 02de 0346     		mov	r3, r0
 709 02e0 002B     		cmp	r3, #0
 710 02e2 08D1     		bne	.L41
 711              		.loc 2 170 0
 712 02e4 1F9B     		ldr	r3, [sp, #124]
 713 02e6 002B     		cmp	r3, #0
 714 02e8 04DD     		ble	.L42
ARM GAS  /tmp/cc7aAWvd.s 			page 15


 715              		.loc 2 171 0
 716 02ea 1D98     		ldr	r0, [sp, #116]
 717 02ec 3049     		ldr	r1, .L49+28
 718 02ee FFF7D1FE 		bl	usage
 719              		.loc 2 172 0
 720 02f2 45E0     		b	.L40
 721              	.L42:
 722              		.loc 2 174 0
 723 02f4 45E0     		b	.L35
 724              	.L41:
 725              		.loc 2 176 0
 726 02f6 1E98     		ldr	r0, [sp, #120]
 727 02f8 2E49     		ldr	r1, .L49+32
 728 02fa FFF7FEFF 		bl	strcasecmp
 729 02fe 0346     		mov	r3, r0
 730 0300 002B     		cmp	r3, #0
 731 0302 1BD1     		bne	.L43
 732              		.loc 2 177 0
 733 0304 1F9B     		ldr	r3, [sp, #124]
 734 0306 002B     		cmp	r3, #0
 735 0308 04DD     		ble	.L44
 736              		.loc 2 178 0
 737 030a 1D98     		ldr	r0, [sp, #116]
 738 030c 2949     		ldr	r1, .L49+32
 739 030e FFF7C1FE 		bl	usage
 740              		.loc 2 179 0
 741 0312 35E0     		b	.L40
 742              	.L44:
 743              		.loc 2 181 0
 744 0314 1D98     		ldr	r0, [sp, #116]
 745 0316 2849     		ldr	r1, .L49+36
 746 0318 FFF772FE 		bl	chprintf
 747              		.loc 2 182 0
 748 031c 1D98     		ldr	r0, [sp, #116]
 749 031e 2749     		ldr	r1, .L49+40
 750 0320 FFF7C6FE 		bl	list_commands
 751              		.loc 2 183 0
 752 0324 1C9B     		ldr	r3, [sp, #112]
 753 0326 002B     		cmp	r3, #0
 754 0328 03D0     		beq	.L45
 755              		.loc 2 184 0
 756 032a 1D98     		ldr	r0, [sp, #116]
 757 032c 1C99     		ldr	r1, [sp, #112]
 758 032e FFF7BFFE 		bl	list_commands
 759              	.L45:
 760              		.loc 2 185 0
 761 0332 1D98     		ldr	r0, [sp, #116]
 762 0334 2249     		ldr	r1, .L49+44
 763 0336 FFF763FE 		bl	chprintf
 764 033a 21E0     		b	.L40
 765              	.L43:
 766              		.loc 2 187 0
 767 033c 05AB     		add	r3, sp, #20
 768 033e 0093     		str	r3, [sp]
 769 0340 1E48     		ldr	r0, .L49+40
 770 0342 1D99     		ldr	r1, [sp, #116]
 771 0344 1E9A     		ldr	r2, [sp, #120]
ARM GAS  /tmp/cc7aAWvd.s 			page 16


 772 0346 1F9B     		ldr	r3, [sp, #124]
 773 0348 FFF74AFF 		bl	cmdexec
 774 034c 0346     		mov	r3, r0
 775 034e 002B     		cmp	r3, #0
 776 0350 16D0     		beq	.L40
 777              		.loc 2 187 0 is_stmt 0 discriminator 1
 778 0352 1C9B     		ldr	r3, [sp, #112]
 779 0354 002B     		cmp	r3, #0
 780 0356 0AD0     		beq	.L46
 781              		.loc 2 188 0 is_stmt 1
 782 0358 05AB     		add	r3, sp, #20
 783 035a 0093     		str	r3, [sp]
 784 035c 1C98     		ldr	r0, [sp, #112]
 785 035e 1D99     		ldr	r1, [sp, #116]
 786 0360 1E9A     		ldr	r2, [sp, #120]
 787 0362 1F9B     		ldr	r3, [sp, #124]
 788 0364 FFF73CFF 		bl	cmdexec
 789 0368 0346     		mov	r3, r0
 790 036a 002B     		cmp	r3, #0
 791 036c 08D0     		beq	.L40
 792              	.L46:
 793              		.loc 2 189 0
 794 036e 1D98     		ldr	r0, [sp, #116]
 795 0370 1449     		ldr	r1, .L49+48
 796 0372 1E9A     		ldr	r2, [sp, #120]
 797 0374 FFF744FE 		bl	chprintf
 798              		.loc 2 190 0
 799 0378 1D98     		ldr	r0, [sp, #116]
 800 037a 1349     		ldr	r1, .L49+52
 801 037c FFF740FE 		bl	chprintf
 802              	.L40:
 803              		.loc 2 193 0
 804 0380 63E7     		b	.L47
 805              	.L35:
 806              		.loc 2 194 0
 807 0382 0020     		movs	r0, #0
 808 0384 FFF7FEFF 		bl	shellExit
 809              		.loc 2 196 0
 810 0388 0023     		movs	r3, #0
 811              		.loc 2 197 0
 812 038a 1846     		mov	r0, r3
 813 038c 21B0     		add	sp, sp, #132
 814              		.cfi_def_cfa_offset 4
 815              		@ sp needed
 816 038e 5DF804FB 		ldr	pc, [sp], #4
 817              	.L50:
 818 0392 00BF     		.align	2
 819              	.L49:
 820 0394 00000000 		.word	rlist
 821 0398 90010000 		.word	.LC23
 822 039c 98010000 		.word	.LC24
 823 03a0 B0010000 		.word	.LC25
 824 03a4 B8010000 		.word	.LC26
 825 03a8 C4010000 		.word	.LC27
 826 03ac C8010000 		.word	.LC28
 827 03b0 E0010000 		.word	.LC29
 828 03b4 E8010000 		.word	.LC30
ARM GAS  /tmp/cc7aAWvd.s 			page 17


 829 03b8 F0010000 		.word	.LC31
 830 03bc 00000000 		.word	local_commands
 831 03c0 08020000 		.word	.LC32
 832 03c4 0C020000 		.word	.LC33
 833 03c8 10020000 		.word	.LC34
 834              		.cfi_endproc
 835              	.LFE125:
 836              		.size	shell_thread, .-shell_thread
 837              		.align	2
 838              		.global	shellInit
 839              		.thumb
 840              		.thumb_func
 841              		.type	shellInit, %function
 842              	shellInit:
 843              	.LFB126:
 844              		.loc 2 204 0
 845              		.cfi_startproc
 846              		@ args = 0, pretend = 0, frame = 0
 847              		@ frame_needed = 0, uses_anonymous_args = 0
 848              		@ link register save eliminated.
 849              		.loc 2 206 0
 850 03cc 014B     		ldr	r3, .L52
 851 03ce 014A     		ldr	r2, .L52
 852 03d0 1A60     		str	r2, [r3]
 853              		.loc 2 207 0
 854 03d2 7047     		bx	lr
 855              	.L53:
 856              		.align	2
 857              	.L52:
 858 03d4 00000000 		.word	shell_terminated
 859              		.cfi_endproc
 860              	.LFE126:
 861              		.size	shellInit, .-shellInit
 862              		.align	2
 863              		.global	shellExit
 864              		.thumb
 865              		.thumb_func
 866              		.type	shellExit, %function
 867              	shellExit:
 868              	.LFB127:
 869              		.loc 2 218 0
 870              		.cfi_startproc
 871              		@ args = 0, pretend = 0, frame = 8
 872              		@ frame_needed = 0, uses_anonymous_args = 0
 873 03d8 00B5     		push	{lr}
 874              		.cfi_def_cfa_offset 4
 875              		.cfi_offset 14, -4
 876 03da 83B0     		sub	sp, sp, #12
 877              		.cfi_def_cfa_offset 16
 878 03dc 0190     		str	r0, [sp, #4]
 879              	.LBB2:
 880              		.loc 2 222 0
 881 03de 2023     		movs	r3, #32
 882              	@ 222 "/opt/R2P/core/ChibiOS_2.6.5/os/various/shell.c" 1
 883 03e0 83F31188 		msr     BASEPRI, r3
 884              	@ 0 "" 2
 885              		.thumb
ARM GAS  /tmp/cc7aAWvd.s 			page 18


 886              	.LBE2:
 887 03e4 FFF7FEFF 		bl	dbg_check_lock
 888              		.loc 2 223 0
 889 03e8 0448     		ldr	r0, .L55
 890 03ea 0021     		movs	r1, #0
 891 03ec FFF7FEFF 		bl	chEvtBroadcastFlagsI
 892              		.loc 2 224 0
 893 03f0 0198     		ldr	r0, [sp, #4]
 894 03f2 FFF7FEFF 		bl	chThdExitS
 895              		.loc 2 225 0
 896 03f6 03B0     		add	sp, sp, #12
 897              		.cfi_def_cfa_offset 4
 898              		@ sp needed
 899 03f8 5DF804FB 		ldr	pc, [sp], #4
 900              	.L56:
 901              		.align	2
 902              	.L55:
 903 03fc 00000000 		.word	shell_terminated
 904              		.cfi_endproc
 905              	.LFE127:
 906              		.size	shellExit, .-shellExit
 907              		.align	2
 908              		.global	shellCreate
 909              		.thumb
 910              		.thumb_func
 911              		.type	shellCreate, %function
 912              	shellCreate:
 913              	.LFB128:
 914              		.loc 2 240 0
 915              		.cfi_startproc
 916              		@ args = 0, pretend = 0, frame = 16
 917              		@ frame_needed = 0, uses_anonymous_args = 0
 918 0400 00B5     		push	{lr}
 919              		.cfi_def_cfa_offset 4
 920              		.cfi_offset 14, -4
 921 0402 87B0     		sub	sp, sp, #28
 922              		.cfi_def_cfa_offset 32
 923 0404 0590     		str	r0, [sp, #20]
 924 0406 0491     		str	r1, [sp, #16]
 925 0408 0392     		str	r2, [sp, #12]
 926              		.loc 2 242 0
 927 040a 059B     		ldr	r3, [sp, #20]
 928 040c 0093     		str	r3, [sp]
 929 040e 0020     		movs	r0, #0
 930 0410 0499     		ldr	r1, [sp, #16]
 931 0412 039A     		ldr	r2, [sp, #12]
 932 0414 034B     		ldr	r3, .L59
 933 0416 FFF7FEFF 		bl	chThdCreateFromHeap
 934 041a 0346     		mov	r3, r0
 935              		.loc 2 243 0
 936 041c 1846     		mov	r0, r3
 937 041e 07B0     		add	sp, sp, #28
 938              		.cfi_def_cfa_offset 4
 939              		@ sp needed
 940 0420 5DF804FB 		ldr	pc, [sp], #4
 941              	.L60:
 942              		.align	2
ARM GAS  /tmp/cc7aAWvd.s 			page 19


 943              	.L59:
 944 0424 00000000 		.word	shell_thread
 945              		.cfi_endproc
 946              	.LFE128:
 947              		.size	shellCreate, .-shellCreate
 948              		.align	2
 949              		.global	shellCreateStatic
 950              		.thumb
 951              		.thumb_func
 952              		.type	shellCreateStatic, %function
 953              	shellCreateStatic:
 954              	.LFB129:
 955              		.loc 2 258 0
 956              		.cfi_startproc
 957              		@ args = 0, pretend = 0, frame = 16
 958              		@ frame_needed = 0, uses_anonymous_args = 0
 959 0428 00B5     		push	{lr}
 960              		.cfi_def_cfa_offset 4
 961              		.cfi_offset 14, -4
 962 042a 87B0     		sub	sp, sp, #28
 963              		.cfi_def_cfa_offset 32
 964 042c 0590     		str	r0, [sp, #20]
 965 042e 0491     		str	r1, [sp, #16]
 966 0430 0392     		str	r2, [sp, #12]
 967 0432 0293     		str	r3, [sp, #8]
 968              		.loc 2 260 0
 969 0434 059B     		ldr	r3, [sp, #20]
 970 0436 0093     		str	r3, [sp]
 971 0438 0498     		ldr	r0, [sp, #16]
 972 043a 0399     		ldr	r1, [sp, #12]
 973 043c 029A     		ldr	r2, [sp, #8]
 974 043e 044B     		ldr	r3, .L63
 975 0440 FFF7FEFF 		bl	chThdCreateStatic
 976 0444 0346     		mov	r3, r0
 977              		.loc 2 261 0
 978 0446 1846     		mov	r0, r3
 979 0448 07B0     		add	sp, sp, #28
 980              		.cfi_def_cfa_offset 4
 981              		@ sp needed
 982 044a 5DF804FB 		ldr	pc, [sp], #4
 983              	.L64:
 984 044e 00BF     		.align	2
 985              	.L63:
 986 0450 00000000 		.word	shell_thread
 987              		.cfi_endproc
 988              	.LFE129:
 989              		.size	shellCreateStatic, .-shellCreateStatic
 990              		.section	.rodata
 991 0215 000000   		.align	2
 992              	.LC35:
 993 0218 5E4400   		.ascii	"^D\000"
 994 021b 00       		.text
 995              		.align	2
 996              		.global	shellGetLine
 997              		.thumb
 998              		.thumb_func
 999              		.type	shellGetLine, %function
ARM GAS  /tmp/cc7aAWvd.s 			page 20


 1000              	shellGetLine:
 1001              	.LFB130:
 1002              		.loc 2 275 0
 1003              		.cfi_startproc
 1004              		@ args = 0, pretend = 0, frame = 24
 1005              		@ frame_needed = 0, uses_anonymous_args = 0
 1006 0454 00B5     		push	{lr}
 1007              		.cfi_def_cfa_offset 4
 1008              		.cfi_offset 14, -4
 1009 0456 87B0     		sub	sp, sp, #28
 1010              		.cfi_def_cfa_offset 32
 1011 0458 0390     		str	r0, [sp, #12]
 1012 045a 0291     		str	r1, [sp, #8]
 1013 045c 0192     		str	r2, [sp, #4]
 1014              		.loc 2 276 0
 1015 045e 029B     		ldr	r3, [sp, #8]
 1016 0460 0593     		str	r3, [sp, #20]
 1017              	.L77:
 1018              	.LBB3:
 1019              		.loc 2 281 0
 1020 0462 039B     		ldr	r3, [sp, #12]
 1021 0464 1B68     		ldr	r3, [r3]
 1022 0466 5B68     		ldr	r3, [r3, #4]
 1023 0468 0DF11302 		add	r2, sp, #19
 1024 046c 0398     		ldr	r0, [sp, #12]
 1025 046e 1146     		mov	r1, r2
 1026 0470 0122     		movs	r2, #1
 1027 0472 9847     		blx	r3
 1028 0474 0346     		mov	r3, r0
 1029 0476 002B     		cmp	r3, #0
 1030 0478 01D1     		bne	.L66
 1031              		.loc 2 282 0
 1032 047a 0123     		movs	r3, #1
 1033 047c 54E0     		b	.L76
 1034              	.L66:
 1035              		.loc 2 283 0
 1036 047e 9DF81330 		ldrb	r3, [sp, #19]	@ zero_extendqisi2
 1037 0482 042B     		cmp	r3, #4
 1038 0484 05D1     		bne	.L68
 1039              		.loc 2 284 0
 1040 0486 0398     		ldr	r0, [sp, #12]
 1041 0488 2949     		ldr	r1, .L78
 1042 048a FFF7B9FD 		bl	chprintf
 1043              		.loc 2 285 0
 1044 048e 0123     		movs	r3, #1
 1045 0490 4AE0     		b	.L76
 1046              	.L68:
 1047              		.loc 2 287 0
 1048 0492 9DF81330 		ldrb	r3, [sp, #19]	@ zero_extendqisi2
 1049 0496 082B     		cmp	r3, #8
 1050 0498 1ED1     		bne	.L69
 1051              		.loc 2 288 0
 1052 049a 059A     		ldr	r2, [sp, #20]
 1053 049c 029B     		ldr	r3, [sp, #8]
 1054 049e 9A42     		cmp	r2, r3
 1055 04a0 19D0     		beq	.L70
 1056              		.loc 2 289 0
ARM GAS  /tmp/cc7aAWvd.s 			page 21


 1057 04a2 039B     		ldr	r3, [sp, #12]
 1058 04a4 1B68     		ldr	r3, [r3]
 1059 04a6 9B68     		ldr	r3, [r3, #8]
 1060 04a8 9DF81320 		ldrb	r2, [sp, #19]	@ zero_extendqisi2
 1061 04ac 0398     		ldr	r0, [sp, #12]
 1062 04ae 1146     		mov	r1, r2
 1063 04b0 9847     		blx	r3
 1064              		.loc 2 290 0
 1065 04b2 039B     		ldr	r3, [sp, #12]
 1066 04b4 1B68     		ldr	r3, [r3]
 1067 04b6 9B68     		ldr	r3, [r3, #8]
 1068 04b8 0398     		ldr	r0, [sp, #12]
 1069 04ba 2021     		movs	r1, #32
 1070 04bc 9847     		blx	r3
 1071              		.loc 2 291 0
 1072 04be 039B     		ldr	r3, [sp, #12]
 1073 04c0 1B68     		ldr	r3, [r3]
 1074 04c2 9B68     		ldr	r3, [r3, #8]
 1075 04c4 9DF81320 		ldrb	r2, [sp, #19]	@ zero_extendqisi2
 1076 04c8 0398     		ldr	r0, [sp, #12]
 1077 04ca 1146     		mov	r1, r2
 1078 04cc 9847     		blx	r3
 1079              		.loc 2 292 0
 1080 04ce 059B     		ldr	r3, [sp, #20]
 1081 04d0 013B     		subs	r3, r3, #1
 1082 04d2 0593     		str	r3, [sp, #20]
 1083              		.loc 2 294 0
 1084 04d4 27E0     		b	.L75
 1085              	.L70:
 1086 04d6 26E0     		b	.L75
 1087              	.L69:
 1088              		.loc 2 296 0
 1089 04d8 9DF81330 		ldrb	r3, [sp, #19]	@ zero_extendqisi2
 1090 04dc 0D2B     		cmp	r3, #13
 1091 04de 08D1     		bne	.L72
 1092              		.loc 2 297 0
 1093 04e0 0398     		ldr	r0, [sp, #12]
 1094 04e2 1449     		ldr	r1, .L78+4
 1095 04e4 FFF78CFD 		bl	chprintf
 1096              		.loc 2 298 0
 1097 04e8 059B     		ldr	r3, [sp, #20]
 1098 04ea 0022     		movs	r2, #0
 1099 04ec 1A70     		strb	r2, [r3]
 1100              		.loc 2 299 0
 1101 04ee 0023     		movs	r3, #0
 1102 04f0 1AE0     		b	.L76
 1103              	.L72:
 1104              		.loc 2 301 0
 1105 04f2 9DF81330 		ldrb	r3, [sp, #19]	@ zero_extendqisi2
 1106 04f6 1F2B     		cmp	r3, #31
 1107 04f8 00D8     		bhi	.L73
 1108              		.loc 2 302 0
 1109 04fa 14E0     		b	.L75
 1110              	.L73:
 1111              		.loc 2 303 0
 1112 04fc 019B     		ldr	r3, [sp, #4]
 1113 04fe 013B     		subs	r3, r3, #1
ARM GAS  /tmp/cc7aAWvd.s 			page 22


 1114 0500 029A     		ldr	r2, [sp, #8]
 1115 0502 1A44     		add	r2, r2, r3
 1116 0504 059B     		ldr	r3, [sp, #20]
 1117 0506 9A42     		cmp	r2, r3
 1118 0508 0DD9     		bls	.L75
 1119              		.loc 2 304 0
 1120 050a 039B     		ldr	r3, [sp, #12]
 1121 050c 1B68     		ldr	r3, [r3]
 1122 050e 9B68     		ldr	r3, [r3, #8]
 1123 0510 9DF81320 		ldrb	r2, [sp, #19]	@ zero_extendqisi2
 1124 0514 0398     		ldr	r0, [sp, #12]
 1125 0516 1146     		mov	r1, r2
 1126 0518 9847     		blx	r3
 1127              		.loc 2 305 0
 1128 051a 059B     		ldr	r3, [sp, #20]
 1129 051c 5A1C     		adds	r2, r3, #1
 1130 051e 0592     		str	r2, [sp, #20]
 1131 0520 9DF81320 		ldrb	r2, [sp, #19]	@ zero_extendqisi2
 1132 0524 1A70     		strb	r2, [r3]
 1133              	.L75:
 1134              	.LBE3:
 1135              		.loc 2 307 0 discriminator 1
 1136 0526 9CE7     		b	.L77
 1137              	.L76:
 1138              		.loc 2 308 0
 1139 0528 1846     		mov	r0, r3
 1140 052a 07B0     		add	sp, sp, #28
 1141              		.cfi_def_cfa_offset 4
 1142              		@ sp needed
 1143 052c 5DF804FB 		ldr	pc, [sp], #4
 1144              	.L79:
 1145              		.align	2
 1146              	.L78:
 1147 0530 18020000 		.word	.LC35
 1148 0534 08020000 		.word	.LC32
 1149              		.cfi_endproc
 1150              	.LFE130:
 1151              		.size	shellGetLine, .-shellGetLine
 1152              	.Letext0:
 1153              		.file 3 "/opt/R2P/tools/gcc-arm-none-eabi-4_9-2014q4/lib/gcc/arm-none-eabi/4.9.3/include/stddef.h"
 1154              		.file 4 "/opt/R2P/tools/gcc-arm-none-eabi-4_9-2014q4/arm-none-eabi/include/machine/_default_types.
 1155              		.file 5 "/opt/R2P/tools/gcc-arm-none-eabi-4_9-2014q4/arm-none-eabi/include/stdint.h"
 1156              		.file 6 "/opt/R2P/core/ChibiOS_2.6.5/os/ports/GCC/ARMCMx/chtypes.h"
 1157              		.file 7 "/opt/R2P/core/ChibiOS_2.6.5/os/kernel/include/chlists.h"
 1158              		.file 8 "/opt/R2P/core/ChibiOS_2.6.5/os/kernel/include/chthreads.h"
 1159              		.file 9 "/opt/R2P/core/ChibiOS_2.6.5/os/ports/GCC/ARMCMx/chcore_v7m.h"
 1160              		.file 10 "/opt/R2P/core/ChibiOS_2.6.5/os/kernel/include/chvt.h"
 1161              		.file 11 "/opt/R2P/core/ChibiOS_2.6.5/os/kernel/include/chschd.h"
 1162              		.file 12 "/opt/R2P/core/ChibiOS_2.6.5/os/kernel/include/chmtx.h"
 1163              		.file 13 "/opt/R2P/core/ChibiOS_2.6.5/os/kernel/include/chevents.h"
 1164              		.file 14 "/opt/R2P/core/ChibiOS_2.6.5/os/kernel/include/chstreams.h"
 1165              		.file 15 "/opt/R2P/core/ChibiOS_2.6.5/os/various/shell.h"
 1166              		.file 16 "/opt/R2P/tools/gcc-arm-none-eabi-4_9-2014q4/lib/gcc/arm-none-eabi/4.9.3/include/stdarg.h
 1167              		.file 17 "<built-in>"
 1168              		.file 18 "/opt/R2P/core/ChibiOS_2.6.5/os/ports/common/ARMCMx/CMSIS/include/core_cm4.h"