ARM GAS  /tmp/ccrDjA4K.s 			page 1


   1              		.syntax unified
   2              		.cpu cortex-m4
   3              		.fpu softvfp
   4              		.eabi_attribute 20, 1
   5              		.eabi_attribute 21, 1
   6              		.eabi_attribute 23, 3
   7              		.eabi_attribute 24, 1
   8              		.eabi_attribute 25, 1
   9              		.eabi_attribute 26, 1
  10              		.eabi_attribute 30, 6
  11              		.eabi_attribute 34, 1
  12              		.eabi_attribute 18, 4
  13              		.thumb
  14              		.file	"SimplePool_.cpp"
  15              		.text
  16              	.Ltext0:
  17              		.cfi_sections	.debug_frame
  18              		.section	.text._ZN3r2p10UncopyableC2Ev,"axG",%progbits,_ZN3r2p10UncopyableC5Ev,comdat
  19              		.align	2
  20              		.weak	_ZN3r2p10UncopyableC2Ev
  21              		.thumb
  22              		.thumb_func
  23              		.type	_ZN3r2p10UncopyableC2Ev, %function
  24              	_ZN3r2p10UncopyableC2Ev:
  25              	.LFB6:
  26              		.file 1 "/opt/R2P/core/Middleware/include/r2p/Uncopyable.hpp"
  27              		.loc 1 20 0
  28              		.cfi_startproc
  29              		@ args = 0, pretend = 0, frame = 8
  30              		@ frame_needed = 0, uses_anonymous_args = 0
  31              		@ link register save eliminated.
  32 0000 82B0     		sub	sp, sp, #8
  33              		.cfi_def_cfa_offset 8
  34 0002 0190     		str	r0, [sp, #4]
  35              		.loc 1 20 0
  36 0004 019B     		ldr	r3, [sp, #4]
  37 0006 1846     		mov	r0, r3
  38 0008 02B0     		add	sp, sp, #8
  39              		.cfi_def_cfa_offset 0
  40              		@ sp needed
  41 000a 7047     		bx	lr
  42              		.cfi_endproc
  43              	.LFE6:
  44              		.size	_ZN3r2p10UncopyableC2Ev, .-_ZN3r2p10UncopyableC2Ev
  45              		.weak	_ZN3r2p10UncopyableC1Ev
  46              		.thumb_set _ZN3r2p10UncopyableC1Ev,_ZN3r2p10UncopyableC2Ev
  47              		.section	.text._ZN3r2p8SysLock_7acquireEv,"axG",%progbits,_ZN3r2p8SysLock_7acquireEv,comdat
  48              		.align	2
  49              		.weak	_ZN3r2p8SysLock_7acquireEv
  50              		.thumb
  51              		.thumb_func
  52              		.type	_ZN3r2p8SysLock_7acquireEv, %function
  53              	_ZN3r2p8SysLock_7acquireEv:
  54              	.LFB18:
  55              		.file 2 "/opt/R2P/core/Middleware/port/chibios/include/r2p/impl/SysLock_.hpp"
  56              		.loc 2 20 0
  57              		.cfi_startproc
ARM GAS  /tmp/ccrDjA4K.s 			page 2


  58              		@ args = 0, pretend = 0, frame = 0
  59              		@ frame_needed = 0, uses_anonymous_args = 0
  60 0000 08B5     		push	{r3, lr}
  61              		.cfi_def_cfa_offset 8
  62              		.cfi_offset 3, -8
  63              		.cfi_offset 14, -4
  64              	.LBB2:
  65              	.LBB3:
  66              	.LBB4:
  67              		.loc 2 22 0
  68 0002 2023     		movs	r3, #32
  69              	@ 22 "/opt/R2P/core/Middleware/port/chibios/include/r2p/impl/SysLock_.hpp" 1
  70 0004 83F31188 		msr     BASEPRI, r3
  71              	@ 0 "" 2
  72              		.thumb
  73              	.LBE4:
  74 0008 FFF7FEFF 		bl	dbg_check_lock
  75              	.LBE3:
  76              	.LBE2:
  77              		.loc 2 23 0
  78 000c 08BD     		pop	{r3, pc}
  79              		.cfi_endproc
  80              	.LFE18:
  81              		.size	_ZN3r2p8SysLock_7acquireEv, .-_ZN3r2p8SysLock_7acquireEv
  82 000e 00BF     		.section	.text._ZN3r2p8SysLock_7releaseEv,"axG",%progbits,_ZN3r2p8SysLock_7releaseEv,comdat
  83              		.align	2
  84              		.weak	_ZN3r2p8SysLock_7releaseEv
  85              		.thumb
  86              		.thumb_func
  87              		.type	_ZN3r2p8SysLock_7releaseEv, %function
  88              	_ZN3r2p8SysLock_7releaseEv:
  89              	.LFB19:
  90              		.loc 2 27 0
  91              		.cfi_startproc
  92              		@ args = 0, pretend = 0, frame = 0
  93              		@ frame_needed = 0, uses_anonymous_args = 0
  94 0000 08B5     		push	{r3, lr}
  95              		.cfi_def_cfa_offset 8
  96              		.cfi_offset 3, -8
  97              		.cfi_offset 14, -4
  98              	.LBB5:
  99              	.LBB6:
 100              		.loc 2 29 0
 101 0002 FFF7FEFF 		bl	dbg_check_unlock
 102              	.LBB7:
 103 0006 0023     		movs	r3, #0
 104              	@ 29 "/opt/R2P/core/Middleware/port/chibios/include/r2p/impl/SysLock_.hpp" 1
 105 0008 83F31188 		msr     BASEPRI, r3
 106              	@ 0 "" 2
 107              		.thumb
 108              	.LBE7:
 109              	.LBE6:
 110              	.LBE5:
 111              		.loc 2 30 0
 112 000c 08BD     		pop	{r3, pc}
 113              		.cfi_endproc
 114              	.LFE19:
ARM GAS  /tmp/ccrDjA4K.s 			page 3


 115              		.size	_ZN3r2p8SysLock_7releaseEv, .-_ZN3r2p8SysLock_7releaseEv
 116 000e 00BF     		.section	.text._ZN3r2p7SysLock7acquireEv,"axG",%progbits,_ZN3r2p7SysLock7acquireEv,comdat
 117              		.align	2
 118              		.weak	_ZN3r2p7SysLock7acquireEv
 119              		.thumb
 120              		.thumb_func
 121              		.type	_ZN3r2p7SysLock7acquireEv, %function
 122              	_ZN3r2p7SysLock7acquireEv:
 123              	.LFB26:
 124              		.file 3 "/opt/R2P/core/Middleware/include/r2p/SysLock.hpp"
 125              		.loc 3 27 0
 126              		.cfi_startproc
 127              		@ args = 0, pretend = 0, frame = 0
 128              		@ frame_needed = 0, uses_anonymous_args = 0
 129 0000 08B5     		push	{r3, lr}
 130              		.cfi_def_cfa_offset 8
 131              		.cfi_offset 3, -8
 132              		.cfi_offset 14, -4
 133              		.loc 3 29 0
 134 0002 FFF7FEFF 		bl	_ZN3r2p8SysLock_7acquireEv
 135              		.loc 3 30 0
 136 0006 08BD     		pop	{r3, pc}
 137              		.cfi_endproc
 138              	.LFE26:
 139              		.size	_ZN3r2p7SysLock7acquireEv, .-_ZN3r2p7SysLock7acquireEv
 140              		.section	.text._ZN3r2p7SysLock7releaseEv,"axG",%progbits,_ZN3r2p7SysLock7releaseEv,comdat
 141              		.align	2
 142              		.weak	_ZN3r2p7SysLock7releaseEv
 143              		.thumb
 144              		.thumb_func
 145              		.type	_ZN3r2p7SysLock7releaseEv, %function
 146              	_ZN3r2p7SysLock7releaseEv:
 147              	.LFB27:
 148              		.loc 3 34 0
 149              		.cfi_startproc
 150              		@ args = 0, pretend = 0, frame = 0
 151              		@ frame_needed = 0, uses_anonymous_args = 0
 152 0000 08B5     		push	{r3, lr}
 153              		.cfi_def_cfa_offset 8
 154              		.cfi_offset 3, -8
 155              		.cfi_offset 14, -4
 156              		.loc 3 36 0
 157 0002 FFF7FEFF 		bl	_ZN3r2p8SysLock_7releaseEv
 158              		.loc 3 37 0
 159 0006 08BD     		pop	{r3, pc}
 160              		.cfi_endproc
 161              	.LFE27:
 162              		.size	_ZN3r2p7SysLock7releaseEv, .-_ZN3r2p7SysLock7releaseEv
 163              		.text
 164              		.align	2
 165              		.global	_ZN3r2p11SimplePool_12alloc_unsafeEv
 166              		.thumb
 167              		.thumb_func
 168              		.type	_ZN3r2p11SimplePool_12alloc_unsafeEv, %function
 169              	_ZN3r2p11SimplePool_12alloc_unsafeEv:
 170              	.LFB36:
 171              		.file 4 "/opt/R2P/core/Middleware/src/impl/SimplePool_.cpp"
ARM GAS  /tmp/ccrDjA4K.s 			page 4


 172              		.loc 4 7 0
 173              		.cfi_startproc
 174              		@ args = 0, pretend = 0, frame = 16
 175              		@ frame_needed = 0, uses_anonymous_args = 0
 176              		@ link register save eliminated.
 177 0000 84B0     		sub	sp, sp, #16
 178              		.cfi_def_cfa_offset 16
 179 0002 0190     		str	r0, [sp, #4]
 180              	.LBB8:
 181              	.LBB9:
 182              		.loc 4 9 0
 183 0004 019B     		ldr	r3, [sp, #4]
 184 0006 1B68     		ldr	r3, [r3]
 185 0008 002B     		cmp	r3, #0
 186 000a 09D0     		beq	.L9
 187              	.LBB10:
 188              		.loc 4 10 0
 189 000c 019B     		ldr	r3, [sp, #4]
 190 000e 1B68     		ldr	r3, [r3]
 191 0010 0393     		str	r3, [sp, #12]
 192              		.loc 4 11 0
 193 0012 019B     		ldr	r3, [sp, #4]
 194 0014 1B68     		ldr	r3, [r3]
 195 0016 1A68     		ldr	r2, [r3]
 196 0018 019B     		ldr	r3, [sp, #4]
 197 001a 1A60     		str	r2, [r3]
 198              		.loc 4 12 0
 199 001c 039B     		ldr	r3, [sp, #12]
 200 001e 00E0     		b	.L10
 201              	.L9:
 202              	.LBE10:
 203              	.LBE9:
 204              		.loc 4 14 0
 205 0020 0023     		movs	r3, #0
 206              	.L10:
 207              	.LBE8:
 208              		.loc 4 15 0
 209 0022 1846     		mov	r0, r3
 210 0024 04B0     		add	sp, sp, #16
 211              		.cfi_def_cfa_offset 0
 212              		@ sp needed
 213 0026 7047     		bx	lr
 214              		.cfi_endproc
 215              	.LFE36:
 216              		.size	_ZN3r2p11SimplePool_12alloc_unsafeEv, .-_ZN3r2p11SimplePool_12alloc_unsafeEv
 217              		.align	2
 218              		.global	_ZN3r2p11SimplePool_11free_unsafeEPv
 219              		.thumb
 220              		.thumb_func
 221              		.type	_ZN3r2p11SimplePool_11free_unsafeEPv, %function
 222              	_ZN3r2p11SimplePool_11free_unsafeEPv:
 223              	.LFB37:
 224              		.loc 4 18 0
 225              		.cfi_startproc
 226              		@ args = 0, pretend = 0, frame = 8
 227              		@ frame_needed = 0, uses_anonymous_args = 0
 228              		@ link register save eliminated.
ARM GAS  /tmp/ccrDjA4K.s 			page 5


 229 0028 82B0     		sub	sp, sp, #8
 230              		.cfi_def_cfa_offset 8
 231 002a 0190     		str	r0, [sp, #4]
 232 002c 0091     		str	r1, [sp]
 233              		.loc 4 20 0
 234 002e 009B     		ldr	r3, [sp]
 235 0030 002B     		cmp	r3, #0
 236 0032 06D0     		beq	.L11
 237              		.loc 4 21 0
 238 0034 019B     		ldr	r3, [sp, #4]
 239 0036 1A68     		ldr	r2, [r3]
 240 0038 009B     		ldr	r3, [sp]
 241 003a 1A60     		str	r2, [r3]
 242              		.loc 4 22 0
 243 003c 019B     		ldr	r3, [sp, #4]
 244 003e 009A     		ldr	r2, [sp]
 245 0040 1A60     		str	r2, [r3]
 246              	.L11:
 247              		.loc 4 24 0
 248 0042 02B0     		add	sp, sp, #8
 249              		.cfi_def_cfa_offset 0
 250              		@ sp needed
 251 0044 7047     		bx	lr
 252              		.cfi_endproc
 253              	.LFE37:
 254              		.size	_ZN3r2p11SimplePool_11free_unsafeEPv, .-_ZN3r2p11SimplePool_11free_unsafeEPv
 255 0046 00BF     		.align	2
 256              		.global	_ZN3r2p11SimplePool_5allocEv
 257              		.thumb
 258              		.thumb_func
 259              		.type	_ZN3r2p11SimplePool_5allocEv, %function
 260              	_ZN3r2p11SimplePool_5allocEv:
 261              	.LFB38:
 262              		.loc 4 27 0
 263              		.cfi_startproc
 264              		@ args = 0, pretend = 0, frame = 16
 265              		@ frame_needed = 0, uses_anonymous_args = 0
 266 0048 00B5     		push	{lr}
 267              		.cfi_def_cfa_offset 4
 268              		.cfi_offset 14, -4
 269 004a 85B0     		sub	sp, sp, #20
 270              		.cfi_def_cfa_offset 24
 271 004c 0190     		str	r0, [sp, #4]
 272              	.LBB11:
 273              		.loc 4 29 0
 274 004e FFF7FEFF 		bl	_ZN3r2p7SysLock7acquireEv
 275              	.LBB12:
 276              		.loc 4 30 0
 277 0052 019B     		ldr	r3, [sp, #4]
 278 0054 1B68     		ldr	r3, [r3]
 279 0056 002B     		cmp	r3, #0
 280 0058 0BD0     		beq	.L14
 281              	.LBB13:
 282              		.loc 4 31 0
 283 005a 019B     		ldr	r3, [sp, #4]
 284 005c 1B68     		ldr	r3, [r3]
 285 005e 0393     		str	r3, [sp, #12]
ARM GAS  /tmp/ccrDjA4K.s 			page 6


 286              		.loc 4 32 0
 287 0060 019B     		ldr	r3, [sp, #4]
 288 0062 1B68     		ldr	r3, [r3]
 289 0064 1A68     		ldr	r2, [r3]
 290 0066 019B     		ldr	r3, [sp, #4]
 291 0068 1A60     		str	r2, [r3]
 292              		.loc 4 33 0
 293 006a FFF7FEFF 		bl	_ZN3r2p7SysLock7releaseEv
 294              		.loc 4 34 0
 295 006e 039B     		ldr	r3, [sp, #12]
 296 0070 02E0     		b	.L15
 297              	.L14:
 298              	.LBE13:
 299              		.loc 4 36 0
 300 0072 FFF7FEFF 		bl	_ZN3r2p7SysLock7releaseEv
 301              		.loc 4 37 0
 302 0076 0023     		movs	r3, #0
 303              	.L15:
 304              	.LBE12:
 305              	.LBE11:
 306              		.loc 4 39 0
 307 0078 1846     		mov	r0, r3
 308 007a 05B0     		add	sp, sp, #20
 309              		.cfi_def_cfa_offset 4
 310              		@ sp needed
 311 007c 5DF804FB 		ldr	pc, [sp], #4
 312              		.cfi_endproc
 313              	.LFE38:
 314              		.size	_ZN3r2p11SimplePool_5allocEv, .-_ZN3r2p11SimplePool_5allocEv
 315              		.align	2
 316              		.global	_ZN3r2p11SimplePool_4freeEPv
 317              		.thumb
 318              		.thumb_func
 319              		.type	_ZN3r2p11SimplePool_4freeEPv, %function
 320              	_ZN3r2p11SimplePool_4freeEPv:
 321              	.LFB39:
 322              		.loc 4 42 0
 323              		.cfi_startproc
 324              		@ args = 0, pretend = 0, frame = 8
 325              		@ frame_needed = 0, uses_anonymous_args = 0
 326 0080 00B5     		push	{lr}
 327              		.cfi_def_cfa_offset 4
 328              		.cfi_offset 14, -4
 329 0082 83B0     		sub	sp, sp, #12
 330              		.cfi_def_cfa_offset 16
 331 0084 0190     		str	r0, [sp, #4]
 332 0086 0091     		str	r1, [sp]
 333              		.loc 4 44 0
 334 0088 009B     		ldr	r3, [sp]
 335 008a 002B     		cmp	r3, #0
 336 008c 0AD0     		beq	.L16
 337              		.loc 4 45 0
 338 008e FFF7FEFF 		bl	_ZN3r2p7SysLock7acquireEv
 339              		.loc 4 46 0
 340 0092 019B     		ldr	r3, [sp, #4]
 341 0094 1A68     		ldr	r2, [r3]
 342 0096 009B     		ldr	r3, [sp]
ARM GAS  /tmp/ccrDjA4K.s 			page 7


 343 0098 1A60     		str	r2, [r3]
 344              		.loc 4 47 0
 345 009a 019B     		ldr	r3, [sp, #4]
 346 009c 009A     		ldr	r2, [sp]
 347 009e 1A60     		str	r2, [r3]
 348              		.loc 4 48 0
 349 00a0 FFF7FEFF 		bl	_ZN3r2p7SysLock7releaseEv
 350              	.L16:
 351              		.loc 4 50 0
 352 00a4 03B0     		add	sp, sp, #12
 353              		.cfi_def_cfa_offset 4
 354              		@ sp needed
 355 00a6 5DF804FB 		ldr	pc, [sp], #4
 356              		.cfi_endproc
 357              	.LFE39:
 358              		.size	_ZN3r2p11SimplePool_4freeEPv, .-_ZN3r2p11SimplePool_4freeEPv
 359              		.section	.rodata
 360              		.align	2
 361              	.LC0:
 362 0000 5232505F 		.ascii	"R2P_ASSERT()\000"
 362      41535345 
 362      52542829 
 362      00
 363 000d 000000   		.text
 364 00aa 00BF     		.align	2
 365              		.global	_ZN3r2p11SimplePool_4growEPvjj
 366              		.thumb
 367              		.thumb_func
 368              		.type	_ZN3r2p11SimplePool_4growEPvjj, %function
 369              	_ZN3r2p11SimplePool_4growEPvjj:
 370              	.LFB40:
 371              		.loc 4 53 0
 372              		.cfi_startproc
 373              		@ args = 0, pretend = 0, frame = 24
 374              		@ frame_needed = 0, uses_anonymous_args = 0
 375 00ac 00B5     		push	{lr}
 376              		.cfi_def_cfa_offset 4
 377              		.cfi_offset 14, -4
 378 00ae 87B0     		sub	sp, sp, #28
 379              		.cfi_def_cfa_offset 32
 380 00b0 0390     		str	r0, [sp, #12]
 381 00b2 0291     		str	r1, [sp, #8]
 382 00b4 0192     		str	r2, [sp, #4]
 383 00b6 0093     		str	r3, [sp]
 384              	.LBB14:
 385              		.loc 4 55 0
 386 00b8 029B     		ldr	r3, [sp, #8]
 387 00ba 002B     		cmp	r3, #0
 388 00bc 02D1     		bne	.L19
 389              		.loc 4 55 0 is_stmt 0 discriminator 1
 390 00be 1348     		ldr	r0, .L24
 391 00c0 FFF7FEFF 		bl	chDbgPanic
 392              	.L19:
 393              		.loc 4 56 0 is_stmt 1
 394 00c4 019B     		ldr	r3, [sp, #4]
 395 00c6 002B     		cmp	r3, #0
 396 00c8 02D1     		bne	.L20
ARM GAS  /tmp/ccrDjA4K.s 			page 8


 397              		.loc 4 56 0 is_stmt 0 discriminator 1
 398 00ca 1048     		ldr	r0, .L24
 399 00cc FFF7FEFF 		bl	chDbgPanic
 400              	.L20:
 401              		.loc 4 57 0 is_stmt 1
 402 00d0 009B     		ldr	r3, [sp]
 403 00d2 042B     		cmp	r3, #4
 404 00d4 02D2     		bcs	.L21
 405              		.loc 4 57 0 is_stmt 0 discriminator 1
 406 00d6 0D48     		ldr	r0, .L24
 407 00d8 FFF7FEFF 		bl	chDbgPanic
 408              	.L21:
 409              	.LBB15:
 410              		.loc 4 59 0 is_stmt 1
 411 00dc 029B     		ldr	r3, [sp, #8]
 412 00de 0593     		str	r3, [sp, #20]
 413 00e0 07E0     		b	.L22
 414              	.L23:
 415              		.loc 4 61 0 discriminator 3
 416 00e2 0398     		ldr	r0, [sp, #12]
 417 00e4 0599     		ldr	r1, [sp, #20]
 418 00e6 FFF7FEFF 		bl	_ZN3r2p11SimplePool_4freeEPv
 419              		.loc 4 59 0 discriminator 3
 420 00ea 059A     		ldr	r2, [sp, #20]
 421 00ec 009B     		ldr	r3, [sp]
 422 00ee 1344     		add	r3, r3, r2
 423 00f0 0593     		str	r3, [sp, #20]
 424              	.L22:
 425              		.loc 4 60 0 discriminator 1
 426 00f2 019B     		ldr	r3, [sp, #4]
 427 00f4 5A1E     		subs	r2, r3, #1
 428 00f6 0192     		str	r2, [sp, #4]
 429              		.loc 4 59 0 discriminator 1
 430 00f8 002B     		cmp	r3, #0
 431 00fa 14BF     		ite	ne
 432 00fc 0123     		movne	r3, #1
 433 00fe 0023     		moveq	r3, #0
 434 0100 DBB2     		uxtb	r3, r3
 435 0102 002B     		cmp	r3, #0
 436 0104 EDD1     		bne	.L23
 437              	.LBE15:
 438              	.LBE14:
 439              		.loc 4 63 0
 440 0106 07B0     		add	sp, sp, #28
 441              		.cfi_def_cfa_offset 4
 442              		@ sp needed
 443 0108 5DF804FB 		ldr	pc, [sp], #4
 444              	.L25:
 445              		.align	2
 446              	.L24:
 447 010c 00000000 		.word	.LC0
 448              		.cfi_endproc
 449              	.LFE40:
 450              		.size	_ZN3r2p11SimplePool_4growEPvjj, .-_ZN3r2p11SimplePool_4growEPvjj
 451              		.align	2
 452              		.global	_ZN3r2p11SimplePool_C2Ev
 453              		.thumb
ARM GAS  /tmp/ccrDjA4K.s 			page 9


 454              		.thumb_func
 455              		.type	_ZN3r2p11SimplePool_C2Ev, %function
 456              	_ZN3r2p11SimplePool_C2Ev:
 457              	.LFB42:
 458              		.loc 4 66 0
 459              		.cfi_startproc
 460              		@ args = 0, pretend = 0, frame = 8
 461              		@ frame_needed = 0, uses_anonymous_args = 0
 462 0110 00B5     		push	{lr}
 463              		.cfi_def_cfa_offset 4
 464              		.cfi_offset 14, -4
 465 0112 83B0     		sub	sp, sp, #12
 466              		.cfi_def_cfa_offset 16
 467 0114 0190     		str	r0, [sp, #4]
 468              	.LBB16:
 469              		.loc 4 68 0
 470 0116 0198     		ldr	r0, [sp, #4]
 471 0118 FFF7FEFF 		bl	_ZN3r2p10UncopyableC2Ev
 472 011c 019B     		ldr	r3, [sp, #4]
 473 011e 0022     		movs	r2, #0
 474 0120 1A60     		str	r2, [r3]
 475              	.LBE16:
 476              		.loc 4 69 0
 477 0122 019B     		ldr	r3, [sp, #4]
 478 0124 1846     		mov	r0, r3
 479 0126 03B0     		add	sp, sp, #12
 480              		.cfi_def_cfa_offset 4
 481              		@ sp needed
 482 0128 5DF804FB 		ldr	pc, [sp], #4
 483              		.cfi_endproc
 484              	.LFE42:
 485              		.size	_ZN3r2p11SimplePool_C2Ev, .-_ZN3r2p11SimplePool_C2Ev
 486              		.global	_ZN3r2p11SimplePool_C1Ev
 487              		.thumb_set _ZN3r2p11SimplePool_C1Ev,_ZN3r2p11SimplePool_C2Ev
 488              		.align	2
 489              		.global	_ZN3r2p11SimplePool_C2EPvjj
 490              		.thumb
 491              		.thumb_func
 492              		.type	_ZN3r2p11SimplePool_C2EPvjj, %function
 493              	_ZN3r2p11SimplePool_C2EPvjj:
 494              	.LFB45:
 495              		.loc 4 72 0
 496              		.cfi_startproc
 497              		@ args = 0, pretend = 0, frame = 16
 498              		@ frame_needed = 0, uses_anonymous_args = 0
 499 012c 00B5     		push	{lr}
 500              		.cfi_def_cfa_offset 4
 501              		.cfi_offset 14, -4
 502 012e 85B0     		sub	sp, sp, #20
 503              		.cfi_def_cfa_offset 24
 504 0130 0390     		str	r0, [sp, #12]
 505 0132 0291     		str	r1, [sp, #8]
 506 0134 0192     		str	r2, [sp, #4]
 507 0136 0093     		str	r3, [sp]
 508              	.LBB17:
 509              		.loc 4 74 0
 510 0138 0398     		ldr	r0, [sp, #12]
ARM GAS  /tmp/ccrDjA4K.s 			page 10


 511 013a FFF7FEFF 		bl	_ZN3r2p10UncopyableC2Ev
 512 013e 039B     		ldr	r3, [sp, #12]
 513 0140 0022     		movs	r2, #0
 514 0142 1A60     		str	r2, [r3]
 515              		.loc 4 76 0
 516 0144 0398     		ldr	r0, [sp, #12]
 517 0146 0299     		ldr	r1, [sp, #8]
 518 0148 019A     		ldr	r2, [sp, #4]
 519 014a 009B     		ldr	r3, [sp]
 520 014c FFF7FEFF 		bl	_ZN3r2p11SimplePool_4growEPvjj
 521              	.LBE17:
 522              		.loc 4 77 0
 523 0150 039B     		ldr	r3, [sp, #12]
 524 0152 1846     		mov	r0, r3
 525 0154 05B0     		add	sp, sp, #20
 526              		.cfi_def_cfa_offset 4
 527              		@ sp needed
 528 0156 5DF804FB 		ldr	pc, [sp], #4
 529              		.cfi_endproc
 530              	.LFE45:
 531              		.size	_ZN3r2p11SimplePool_C2EPvjj, .-_ZN3r2p11SimplePool_C2EPvjj
 532              		.global	_ZN3r2p11SimplePool_C1EPvjj
 533              		.thumb_set _ZN3r2p11SimplePool_C1EPvjj,_ZN3r2p11SimplePool_C2EPvjj
 534              	.Letext0:
 535              		.file 5 "/opt/R2P/tools/gcc-arm-none-eabi-4_9-2014q4/lib/gcc/arm-none-eabi/4.9.3/include/stddef.h"
 536              		.file 6 "/opt/R2P/tools/gcc-arm-none-eabi-4_9-2014q4/arm-none-eabi/include/machine/_default_types.
 537              		.file 7 "/opt/R2P/tools/gcc-arm-none-eabi-4_9-2014q4/arm-none-eabi/include/c++/4.9.3/cstring"
 538              		.file 8 "/opt/R2P/tools/gcc-arm-none-eabi-4_9-2014q4/arm-none-eabi/include/string.h"
 539              		.file 9 "<built-in>"
 540              		.file 10 "/opt/R2P/core/Middleware/include/r2p/impl/SimplePool_.hpp"
 541              		.file 11 "/opt/R2P/tools/gcc-arm-none-eabi-4_9-2014q4/arm-none-eabi/include/stdint.h"