ARM GAS  /tmp/ccrDjA4K.s 			page 1


   1              		.syntax unified
   2              		.cpu cortex-m4
   3              		.fpu softvfp
   4              		.eabi_attribute 20, 1
   5              		.eabi_attribute 21, 1
   6              		.eabi_attribute 23, 3
   7              		.eabi_attribute 24, 1
   8              		.eabi_attribute 25, 1
   9              		.eabi_attribute 26, 1
  10              		.eabi_attribute 30, 6
  11              		.eabi_attribute 34, 1
  12              		.eabi_attribute 18, 4
  13              		.thumb
  14              		.file	"SimplePool_.cpp"
  15              		.text
  16              	.Ltext0:
  17              		.cfi_sections	.debug_frame
  18              		.section	.text._ZN3r2p10UncopyableC2Ev,"axG",%progbits,_ZN3r2p10UncopyableC5Ev,comdat
  19              		.align	2
  20              		.weak	_ZN3r2p10UncopyableC2Ev
  21              		.thumb
  22              		.thumb_func
  23              		.type	_ZN3r2p10UncopyableC2Ev, %function
  24              	_ZN3r2p10UncopyableC2Ev:
  25              	.LFB6:
  26              		.file 1 "/opt/R2P/core/Middleware/include/r2p/Uncopyable.hpp"
  27              		.loc 1 20 0
  28              		.cfi_startproc
  29              		@ args = 0, pretend = 0, frame = 8
  30              		@ frame_needed = 0, uses_anonymous_args = 0
  31              		@ link register save eliminated.
  32 0000 82B0     		sub	sp, sp, #8
  33              		.cfi_def_cfa_offset 8
  34 0002 0190     		str	r0, [sp, #4]
  35              		.loc 1 20 0
  36 0004 019B     		ldr	r3, [sp, #4]
  37 0006 1846     		mov	r0, r3
  38 0008 02B0     		add	sp, sp, #8
  39              		.cfi_def_cfa_offset 0
  40              		@ sp needed
  41 000a 7047     		bx	lr
  42              		.cfi_endproc
  43              	.LFE6:
  44              		.size	_ZN3r2p10UncopyableC2Ev, .-_ZN3r2p10UncopyableC2Ev
  45              		.weak	_ZN3r2p10UncopyableC1Ev
  46              		.thumb_set _ZN3r2p10UncopyableC1Ev,_ZN3r2p10UncopyableC2Ev
  47              		.section	.text._ZN3r2p8SysLock_7acquireEv,"axG",%progbits,_ZN3r2p8SysLock_7acquireEv,comdat
  48              		.align	2
  49              		.weak	_ZN3r2p8SysLock_7acquireEv
  50              		.thumb
  51              		.thumb_func
  52              		.type	_ZN3r2p8SysLock_7acquireEv, %function
  53              	_ZN3r2p8SysLock_7acquireEv:
  54              	.LFB18:
  55              		.file 2 "/opt/R2P/core/Middleware/port/chibios/include/r2p/impl/SysLock_.hpp"
  56              		.loc 2 20 0
  57              		.cfi_startproc
ARM GAS  /tmp/ccrDjA4K.s 			page 2


  58              		@ args = 0, pretend = 0, frame = 0
  59              		@ frame_needed = 0, uses_anonymous_args = 0
  60 0000 08B5     		push	{r3, lr}
  61              		.cfi_def_cfa_offset 8
  62              		.cfi_offset 3, -8
  63              		.cfi_offset 14, -4
  64              	.LBB2:
  65              	.LBB3:
  66              	.LBB4:
  67              		.loc 2 22 0
  68 0002 2023     		movs	r3, #32
  69              	@ 22 "/opt/R2P/core/Middleware/port/chibios/include/r2p/impl/SysLock_.hpp" 1
  70 0004 83F31188 		msr     BASEPRI, r3
  71              	@ 0 "" 2
  72              		.thumb
  73              	.LBE4:
  74 0008 FFF7FEFF 		bl	dbg_check_lock
  75              	.LBE3:
  76              	.LBE2:
  77              		.loc 2 23 0
  78 000c 08BD     		pop	{r3, pc}
  79              		.cfi_endproc
  80              	.LFE18:
  81              		.size	_ZN3r2p8SysLock_7acquireEv, .-_ZN3r2p8SysLock_7acquireEv
  82 000e 00BF     		.section	.text._ZN3r2p8SysLock_7releaseEv,"axG",%progbits,_ZN3r2p8SysLock_7releaseEv,comdat
  83              		.align	2
  84              		.weak	_ZN3r2p8SysLock_7releaseEv
  85              		.thumb
  86              		.thumb_func
  87              		.type	_ZN3r2p8SysLock_7releaseEv, %function
  88              	_ZN3r2p8SysLock_7releaseEv:
  89              	.LFB19:
  90              		.loc 2 27 0
  91              		.cfi_startproc
  92              		@ args = 0, pretend = 0, frame = 0
  93              		@ frame_needed = 0, uses_anonymous_args = 0
  94 0000 08B5     		push	{r3, lr}
  95              		.cfi_def_cfa_offset 8
  96              		.cfi_offset 3, -8
  97              		.cfi_offset 14, -4
  98              	.LBB5:
  99              	.LBB6:
 100              		.loc 2 29 0
 101 0002 FFF7FEFF 		bl	dbg_check_unlock
 102              	.LBB7:
 103 0006 0023     		movs	r3, #0
 104              	@ 29 "/opt/R2P/core/Middleware/port/chibios/include/r2p/impl/SysLock_.hpp" 1
 105 0008 83F31188 		msr     BASEPRI, r3
 106              	@ 0 "" 2
 107              		.thumb
 108              	.LBE7:
 109              	.LBE6:
 110              	.LBE5:
 111              		.loc 2 30 0
 112 000c 08BD     		pop	{r3, pc}
 113              		.cfi_endproc
 114              	.LFE19:
ARM GAS  /tmp/ccrDjA4K.s 			page 3


 115              		.size	_ZN3r2p8SysLock_7releaseEv, .-_ZN3r2p8SysLock_7releaseEv
 116 000e 00BF     		.section	.text._ZN3r2p7SysLock7acquireEv,"axG",%progbits,_ZN3r2p7SysLock7acquireEv,comdat
 117              		.align	2
 118              		.weak	_ZN3r2p7SysLock7acquireEv
 119              		.thumb
 120              		.thumb_func
 121              		.type	_ZN3r2p7SysLock7acquireEv, %function
 122              	_ZN3r2p7SysLock7acquireEv:
 123              	.LFB26:
 124              		.file 3 "/opt/R2P/core/Middleware/include/r2p/SysLock.hpp"
 125              		.loc 3 27 0
 126              		.cfi_startproc
 127              		@ args = 0, pretend = 0, frame = 0
 128              		@ frame_needed = 0, uses_anonymous_args = 0
 129 0000 08B5     		push	{r3, lr}
 130              		.cfi_def_cfa_offset 8
 131              		.cfi_offset 3, -8
 132              		.cfi_offset 14, -4
 133              		.loc 3 29 0
 134 0002 FFF7FEFF 		bl	_ZN3r2p8SysLock_7acquireEv
 135              		.loc 3 30 0
 136 0006 08BD     		pop	{r3, pc}
 137              		.cfi_endproc
 138              	.LFE26:
 139              		.size	_ZN3r2p7SysLock7acquireEv, .-_ZN3r2p7SysLock7acquireEv
 140              		.section	.text._ZN3r2p7SysLock7releaseEv,"axG",%progbits,_ZN3r2p7SysLock7releaseEv,comdat
 141              		.align	2
 142              		.weak	_ZN3r2p7SysLock7releaseEv
 143              		.thumb
 144              		.thumb_func
 145              		.type	_ZN3r2p7SysLock7releaseEv, %function
 146              	_ZN3r2p7SysLock7releaseEv:
 147              	.LFB27:
 148              		.loc 3 34 0
 149              		.cfi_startproc
 150              		@ args = 0, pretend = 0, frame = 0
 151              		@ frame_needed = 0, uses_anonymous_args = 0
 152 0000 08B5     		push	{r3, lr}
 153              		.cfi_def_cfa_offset 8
 154              		.cfi_offset 3, -8
 155              		.cfi_offset 14, -4
 156              		.loc 3 36 0
 157 0002 FFF7FEFF 		bl	_ZN3r2p8SysLock_7releaseEv
 158              		.loc 3 37 0
 159 0006 08BD     		pop	{r3, pc}
 160              		.cfi_endproc
 161              	.LFE27:
 162              		.size	_ZN3r2p7SysLock7releaseEv, .-_ZN3r2p7SysLock7releaseEv
 163              		.text
 164              		.align	2
 165              		.global	_ZN3r2p11SimplePool_12alloc_unsafeEv
 166              		.thumb
 167              		.thumb_func
 168              		.type	_ZN3r2p11SimplePool_12alloc_unsafeEv, %function
 169              	_ZN3r2p11SimplePool_12alloc_unsafeEv:
 170              	.LFB36:
 171              		.file 4 "/opt/R2P/core/Middleware/src/impl/SimplePool_.cpp"
ARM GAS  /tmp/ccrDjA4K.s 			page 4


 172              		.loc 4 7 0
 173              		.cfi_startproc
 174              		@ args = 0, pretend = 0, frame = 16
 175              		@ frame_needed = 0, uses_anonymous_args = 0
 176              		@ link register save eliminated.
 177 0000 84B0     		sub	sp, sp, #16
 178              		.cfi_def_cfa_offset 16
 179 0002 0190     		str	r0, [sp, #4]
 180              	.LBB8:
 181              	.LBB9:
 182              		.loc 4 9 0
 183 0004 019B     		ldr	r3, [sp, #4]
 184 0006 1B68     		ldr	r3, [r3]
 185 0008 002B     		cmp	r3, #0
 186 000a 09D0     		beq	.L9
 187              	.LBB10:
 188              		.loc 4 10 0
 189 000c 019B     		ldr	r3, [sp, #4]
 190 000e 1B68     		ldr	r3, [r3]
 191 0010 0393     		str	r3, [sp, #12]
 192              		.loc 4 11 0
 193 0012 019B     		ldr	r3, [sp, #4]
 194 0014 1B68     		ldr	r3, [r3]
 195 0016 1A68     		ldr	r2, [r3]
 196 0018 019B     		ldr	r3, [sp, #4]
 197 001a 1A60     		str	r2, [r3]
 198              		.loc 4 12 0
 199 001c 039B     		ldr	r3, [sp, #12]
 200 001e 00E0     		b	.L10
 201              	.L9:
 202              	.LBE10:
 203              	.LBE9:
 204              		.loc 4 14 0
 205 0020 0023     		movs	r3, #0
 206              	.L10:
 207              	.LBE8:
 208              		.loc 4 15 0
 209 0022 1846     		mov	r0, r3
 210 0024 04B0     		add	sp, sp, #16
 211              		.cfi_def_cfa_offset 0
 212              		@ sp needed
 213 0026 7047     		bx	lr
 214              		.cfi_endproc
 215              	.LFE36:
 216              		.size	_ZN3r2p11SimplePool_12alloc_unsafeEv, .-_ZN3r2p11SimplePool_12alloc_unsafeEv
 217              		.align	2
 218              		.global	_ZN3r2p11SimplePool_11free_unsafeEPv
 219              		.thumb
 220              		.thumb_func
 221              		.type	_ZN3r2p11SimplePool_11free_unsafeEPv, %function
 222              	_ZN3r2p11SimplePool_11free_unsafeEPv:
 223              	.LFB37:
 224              		.loc 4 18 0
 225              		.cfi_startproc
 226              		@ args = 0, pretend = 0, frame = 8
 227              		@ frame_needed = 0, uses_anonymous_args = 0
 228              		@ link register save eliminated.
ARM GAS  /tmp/ccrDjA4K.s 			page 5


 229 0028 82B0     		sub	sp, sp, #8
 230              		.cfi_def_cfa_offset 8
 231 002a 0190     		str	r0, [sp, #4]
 232 002c 0091     		str	r1, [sp]
 233              		.loc 4 20 0
 234 002e 009B     		ldr	r3, [sp]
 235 0030 002B     		cmp	r3, #0
 236 0032 06D0     		beq	.L11
 237              		.loc 4 21 0
 238 0034 019B     		ldr	r3, [sp, #4]
 239 0036 1A68     		ldr	r2, [r3]
 240 0038 009B     		ldr	r3, [sp]
 241 003a 1A60     		str	r2, [r3]
 242              		.loc 4 22 0
 243 003c 019B     		ldr	r3, [sp, #4]
 244 003e 009A     		ldr	r2, [sp]
 245 0040 1A60     		str	r2, [r3]
 246              	.L11:
 247              		.loc 4 24 0
 248 0042 02B0     		add	sp, sp, #8
 249              		.cfi_def_cfa_offset 0
 250              		@ sp needed
 251 0044 7047     		bx	lr
 252              		.cfi_endproc
 253              	.LFE37:
 254              		.size	_ZN3r2p11SimplePool_11free_unsafeEPv, .-_ZN3r2p11SimplePool_11free_unsafeEPv
 255 0046 00BF     		.align	2
 256              		.global	_ZN3r2p11SimplePool_5allocEv
 257              		.thumb
 258              		.thumb_func
 259              		.type	_ZN3r2p11SimplePool_5allocEv, %function
 260              	_ZN3r2p11SimplePool_5allocEv:
 261              	.LFB38:
 262              		.loc 4 27 0
 263              		.cfi_startproc
 264              		@ args = 0, pretend = 0, frame = 16
 265              		@ frame_needed = 0, uses_anonymous_args = 0
 266 0048 00B5     		push	{lr}
 267              		.cfi_def_cfa_offset 4
 268              		.cfi_offset 14, -4
 269 004a 85B0     		sub	sp, sp, #20
 270              		.cfi_def_cfa_offset 24
 271 004c 0190     		str	r0, [sp, #4]
 272              	.LBB11:
 273              		.loc 4 29 0
 274 004e FFF7FEFF 		bl	_ZN3r2p7SysLock7acquireEv
 275              	.LBB12:
 276              		.loc 4 30 0
 277 0052 019B     		ldr	r3, [sp, #4]
 278 0054 1B68     		ldr	r3, [r3]
 279 0056 002B     		cmp	r3, #0
 280 0058 0BD0     		beq	.L14
 281              	.LBB13:
 282              		.loc 4 31 0
 283 005a 019B     		ldr	r3, [sp, #4]
 284 005c 1B68     		ldr	r3, [r3]
 285 005e 0393     		str	r3, [sp, #12]
ARM GAS  /tmp/ccrDjA4K.s 			page 6


 286              		.loc 4 32 0
 287 0060 019B     		ldr	r3, [sp, #4]
 288 0062 1B68     		ldr	r3, [r3]
 289 0064 1A68     		ldr	r2, [r3]
 290 0066 019B     		ldr	r3, [sp, #4]
 291 0068 1A60     		str	r2, [r3]
 292              		.loc 4 33 0
 293 006a FFF7FEFF 		bl	_ZN3r2p7SysLock7releaseEv
 294              		.loc 4 34 0
 295 006e 039B     		ldr	r3, [sp, #12]
 296 0070 02E0     		b	.L15
 297              	.L14:
 298              	.LBE13:
 299              		.loc 4 36 0
 300 0072 FFF7FEFF 		bl	_ZN3r2p7SysLock7releaseEv
 301              		.loc 4 37 0
 302 0076 0023     		movs	r3, #0
 303              	.L15:
 304              	.LBE12:
 305              	.LBE11:
 306              		.loc 4 39 0
 307 0078 1846     		mov	r0, r3
 308 007a 05B0     		add	sp, sp, #20
 309              		.cfi_def_cfa_offset 4
 310              		@ sp needed
 311 007c 5DF804FB 		ldr	pc, [sp], #4
 312              		.cfi_endproc
 313              	.LFE38:
 314              		.size	_ZN3r2p11SimplePool_5allocEv, .-_ZN3r2p11SimplePool_5allocEv
 315              		.align	2
 316              		.global	_ZN3r2p11SimplePool_4freeEPv
 317              		.thumb
 318              		.thumb_func
 319              		.type	_ZN3r2p11SimplePool_4freeEPv, %function
 320              	_ZN3r2p11SimplePool_4freeEPv:
 321              	.LFB39:
 322              		.loc 4 42 0
 323              		.cfi_startproc
 324              		@ args = 0, pretend = 0, frame = 8
 325              		@ frame_needed = 0, uses_anonymous_args = 0
 326 0080 00B5     		push	{lr}
 327              		.cfi_def_cfa_offset 4
 328              		.cfi_offset 14, -4
 329 0082 83B0     		sub	sp, sp, #12
 330              		.cfi_def_cfa_offset 16
 331 0084 0190     		str	r0, [sp, #4]
 332 0086 0091     		str	r1, [sp]
 333              		.loc 4 44 0
 334 0088 009B     		ldr	r3, [sp]
 335 008a 002B     		cmp	r3, #0
 336 008c 0AD0     		beq	.L16
 337              		.loc 4 45 0
 338 008e FFF7FEFF 		bl	_ZN3r2p7SysLock7acquireEv
 339              		.loc 4 46 0
 340 0092 019B     		ldr	r3, [sp, #4]
 341 0094 1A68     		ldr	r2, [r3]
 342 0096 009B     		ldr	r3, [sp]
ARM GAS  /tmp/ccrDjA4K.s 			page 7


 343 0098 1A60     		str	r2, [r3]
 344              		.loc 4 47 0
 345 009a 019B     		ldr	r3, [sp, #4]
 346 009c 009A     		ldr	r2, [sp]
 347 009e 1A60     		str	r2, [r3]
 348              		.loc 4 48 0
 349 00a0 FFF7FEFF 		bl	_ZN3r2p7SysLock7releaseEv
 350              	.L16:
 351              		.loc 4 50 0
 352 00a4 03B0     		add	sp, sp, #12
 353              		.cfi_def_cfa_offset 4
 354              		@ sp needed
 355 00a6 5DF804FB 		ldr	pc, [sp], #4
 356              		.cfi_endproc
 357              	.LFE39:
 358              		.size	_ZN3r2p11SimplePool_4freeEPv, .-_ZN3r2p11SimplePool_4freeEPv
 359              		.section	.rodata
 360              		.align	2
 361              	.LC0:
 362 0000 5232505F 		.ascii	"R2P_ASSERT()\000"
 362      41535345 
 362      52542829 
 362      00
 363 000d 000000   		.text
 364 00aa 00BF     		.align	2
 365              		.global	_ZN3r2p11SimplePool_4growEPvjj
 366              		.thumb
 367              		.thumb_func
 368              		.type	_ZN3r2p11SimplePool_4growEPvjj, %function
 369              	_ZN3r2p11SimplePool_4growEPvjj:
 370              	.LFB40:
 371              		.loc 4 53 0
 372              		.cfi_startproc
 373              		@ args = 0, pretend = 0, frame = 24
 374              		@ frame_needed = 0, uses_anonymous_args = 0
 375 00ac 00B5     		push	{lr}
 376              		.cfi_def_cfa_offset 4
 377              		.cfi_offset 14, -4
 378 00ae 87B0     		sub	sp, sp, #28
 379              		.cfi_def_cfa_offset 32
 380 00b0 0390     		str	r0, [sp, #12]
 381 00b2 0291     		str	r1, [sp, #8]
 382 00b4 0192     		str	r2, [sp, #4]
 383 00b6 0093     		str	r3, [sp]
 384              	.LBB14:
 385              		.loc 4 55 0
 386 00b8 029B     		ldr	r3, [sp, #8]
 387 00ba 002B     		cmp	r3, #0
 388 00bc 02D1     		bne	.L19
 389              		.loc 4 55 0 is_stmt 0 discriminator 1
 390 00be 1348     		ldr	r0, .L24
 391 00c0 FFF7FEFF 		bl	chDbgPanic
 392              	.L19:
 393              		.loc 4 56 0 is_stmt 1
 394 00c4 019B     		ldr	r3, [sp, #4]
 395 00c6 002B     		cmp	r3, #0
 396 00c8 02D1     		bne	.L20
ARM GAS  /tmp/ccrDjA4K.s 			page 8


 397              		.loc 4 56 0 is_stmt 0 discriminator 1
 398 00ca 1048     		ldr	r0, .L24
 399 00cc FFF7FEFF 		bl	chDbgPanic
 400              	.L20:
 401              		.loc 4 57 0 is_stmt 1
 402 00d0 009B     		ldr	r3, [sp]
 403 00d2 042B     		cmp	r3, #4
 404 00d4 02D2     		bcs	.L21
 405              		.loc 4 57 0 is_stmt 0 discriminator 1
 406 00d6 0D48     		ldr	r0, .L24
 407 00d8 FFF7FEFF 		bl	chDbgPanic
 408              	.L21:
 409              	.LBB15:
 410              		.loc 4 59 0 is_stmt 1
 411 00dc 029B     		ldr	r3, [sp, #8]
 412 00de 0593     		str	r3, [sp, #20]
 413 00e0 07E0     		b	.L22
 414              	.L23:
 415              		.loc 4 61 0 discriminator 3
 416 00e2 0398     		ldr	r0, [sp, #12]
 417 00e4 0599     		ldr	r1, [sp, #20]
 418 00e6 FFF7FEFF 		bl	_ZN3r2p11SimplePool_4freeEPv
 419              		.loc 4 59 0 discriminator 3
 420 00ea 059A     		ldr	r2, [sp, #20]
 421 00ec 009B     		ldr	r3, [sp]
 422 00ee 1344     		add	r3, r3, r2
 423 00f0 0593     		str	r3, [sp, #20]
 424              	.L22:
 425              		.loc 4 60 0 discriminator 1
 426 00f2 019B     		ldr	r3, [sp, #4]
 427 00f4 5A1E     		subs	r2, r3, #1
 428 00f6 0192     		str	r2, [sp, #4]
 429              		.loc 4 59 0 discriminator 1
 430 00f8 002B     		cmp	r3, #0
 431 00fa 14BF     		ite	ne
 432 00fc 0123     		movne	r3, #1
 433 00fe 0023     		moveq	r3, #0
 434 0100 DBB2     		uxtb	r3, r3
 435 0102 002B     		cmp	r3, #0
 436 0104 EDD1     		bne	.L23
 437              	.LBE15:
 438              	.LBE14:
 439              		.loc 4 63 0
 440 0106 07B0     		add	sp, sp, #28
 441              		.cfi_def_cfa_offset 4
 442              		@ sp needed
 443 0108 5DF804FB 		ldr	pc, [sp], #4
 444              	.L25:
 445              		.align	2
 446              	.L24:
 447 010c 00000000 		.word	.LC0
 448              		.cfi_endproc
 449              	.LFE40:
 450              		.size	_ZN3r2p11SimplePool_4growEPvjj, .-_ZN3r2p11SimplePool_4growEPvjj
 451              		.align	2
 452              		.global	_ZN3r2p11SimplePool_C2Ev
 453              		.thumb
ARM GAS  /tmp/ccrDjA4K.s 			page 9


 454              		.thumb_func
 455              		.type	_ZN3r2p11SimplePool_C2Ev, %function
 456              	_ZN3r2p11SimplePool_C2Ev:
 457              	.LFB42:
 458              		.loc 4 66 0
 459              		.cfi_startproc
 460              		@ args = 0, pretend = 0, frame = 8
 461              		@ frame_needed = 0, uses_anonymous_args = 0
 462 0110 00B5     		push	{lr}
 463              		.cfi_def_cfa_offset 4
 464              		.cfi_offset 14, -4
 465 0112 83B0     		sub	sp, sp, #12
 466              		.cfi_def_cfa_offset 16
 467 0114 0190     		str	r0, [sp, #4]
 468              	.LBB16:
 469              		.loc 4 68 0
 470 0116 0198     		ldr	r0, [sp, #4]
 471 0118 FFF7FEFF 		bl	_ZN3r2p10UncopyableC2Ev
 472 011c 019B     		ldr	r3, [sp, #4]
 473 011e 0022     		movs	r2, #0
 474 0120 1A60     		str	r2, [r3]
 475              	.LBE16:
 476              		.loc 4 69 0
 477 0122 019B     		ldr	r3, [sp, #4]
 478 0124 1846     		mov	r0, r3
 479 0126 03B0     		add	sp, sp, #12
 480              		.cfi_def_cfa_offset 4
 481              		@ sp needed
 482 0128 5DF804FB 		ldr	pc, [sp], #4
 483              		.cfi_endproc
 484              	.LFE42:
 485              		.size	_ZN3r2p11SimplePool_C2Ev, .-_ZN3r2p11SimplePool_C2Ev
 486              		.global	_ZN3r2p11SimplePool_C1Ev
 487              		.thumb_set _ZN3r2p11SimplePool_C1Ev,_ZN3r2p11SimplePool_C2Ev
 488              		.align	2
 489              		.global	_ZN3r2p11SimplePool_C2EPvjj
 490              		.thumb
 491              		.thumb_func
 492              		.type	_ZN3r2p11SimplePool_C2EPvjj, %function
 493              	_ZN3r2p11SimplePool_C2EPvjj:
 494              	.LFB45:
 495              		.loc 4 72 0
 496              		.cfi_startproc
 497              		@ args = 0, pretend = 0, frame = 16
 498              		@ frame_needed = 0, uses_anonymous_args = 0
 499 012c 00B5     		push	{lr}
 500              		.cfi_def_cfa_offset 4
 501              		.cfi_offset 14, -4
 502 012e 85B0     		sub	sp, sp, #20
 503              		.cfi_def_cfa_offset 24
 504 0130 0390     		str	r0, [sp, #12]
 505 0132 0291     		str	r1, [sp, #8]
 506 0134 0192     		str	r2, [sp, #4]
 507 0136 0093     		str	r3, [sp]
 508              	.LBB17:
 509              		.loc 4 74 0
 510 0138 0398     		ldr	r0, [sp, #12]
ARM GAS  /tmp/ccrDjA4K.s 			page 10


 511 013a FFF7FEFF 		bl	_ZN3r2p10UncopyableC2Ev
 512 013e 039B     		ldr	r3, [sp, #12]
 513 0140 0022     		movs	r2, #0
 514 0142 1A60     		str	r2, [r3]
 515              		.loc 4 76 0
 516 0144 0398     		ldr	r0, [sp, #12]
 517 0146 0299     		ldr	r1, [sp, #8]
 518 0148 019A     		ldr	r2, [sp, #4]
 519 014a 009B     		ldr	r3, [sp]
 520 014c FFF7FEFF 		bl	_ZN3r2p11SimplePool_4growEPvjj
 521              	.LBE17:
 522              		.loc 4 77 0
 523 0150 039B     		ldr	r3, [sp, #12]
 524 0152 1846     		mov	r0, r3
 525 0154 05B0     		add	sp, sp, #20
 526              		.cfi_def_cfa_offset 4
 527              		@ sp needed
 528 0156 5DF804FB 		ldr	pc, [sp], #4
 529              		.cfi_endproc
 530              	.LFE45:
 531              		.size	_ZN3r2p11SimplePool_C2EPvjj, .-_ZN3r2p11SimplePool_C2EPvjj
 532              		.global	_ZN3r2p11SimplePool_C1EPvjj
 533              		.thumb_set _ZN3r2p11SimplePool_C1EPvjj,_ZN3r2p11SimplePool_C2EPvjj
 534              	.Letext0:
 535              		.file 5 "/opt/R2P/tools/gcc-arm-none-eabi-4_9-2014q4/lib/gcc/arm-none-eabi/4.9.3/include/stddef.h"
 536              		.file 6 "/opt/R2P/tools/gcc-arm-none-eabi-4_9-2014q4/arm-none-eabi/include/machine/_default_types.
 537              		.file 7 "/opt/R2P/tools/gcc-arm-none-eabi-4_9-2014q4/arm-none-eabi/include/c++/4.9.3/cstring"
 538              		.file 8 "/opt/R2P/tools/gcc-arm-none-eabi-4_9-2014q4/arm-none-eabi/include/string.h"
 539              		.file 9 "<built-in>"
 540              		.file 10 "/opt/R2P/core/Middleware/include/r2p/impl/SimplePool_.hpp"
 541              		.file 11 "/opt/R2P/tools/gcc-arm-none-eabi-4_9-2014q4/arm-none-eabi/include/stdint.h"
 542 015a 00BF     		.section	.debug_info,"",%progbits
 543              	.Ldebug_info0:
 544 0000 4C060000 		.4byte	0x64c
 545 0004 0400     		.2byte	0x4
 546 0006 00000000 		.4byte	.Ldebug_abbrev0
 547 000a 04       		.byte	0x4
 548 000b 01       		.uleb128 0x1
 549 000c 13010000 		.4byte	.LASF53
 550 0010 04       		.byte	0x4
 551 0011 1A020000 		.4byte	.LASF54
 552 0015 9C000000 		.4byte	.LASF55
 553 0019 00000000 		.4byte	.Ldebug_ranges0+0
 554 001d 00000000 		.4byte	0
 555 0021 00000000 		.4byte	.Ldebug_line0
 556 0025 02       		.uleb128 0x2
 557 0026 04       		.byte	0x4
 558 0027 05       		.byte	0x5
 559 0028 696E7400 		.ascii	"int\000"
 560 002c 03       		.uleb128 0x3
 561 002d 1B000000 		.4byte	.LASF2
 562 0031 05       		.byte	0x5
 563 0032 D4       		.byte	0xd4
 564 0033 37000000 		.4byte	0x37
 565 0037 04       		.uleb128 0x4
 566 0038 04       		.byte	0x4
 567 0039 07       		.byte	0x7
ARM GAS  /tmp/ccrDjA4K.s 			page 11


 568 003a 96020000 		.4byte	.LASF0
 569 003e 04       		.uleb128 0x4
 570 003f 01       		.byte	0x1
 571 0040 06       		.byte	0x6
 572 0041 F4000000 		.4byte	.LASF1
 573 0045 03       		.uleb128 0x3
 574 0046 11000000 		.4byte	.LASF3
 575 004a 06       		.byte	0x6
 576 004b 1D       		.byte	0x1d
 577 004c 50000000 		.4byte	0x50
 578 0050 04       		.uleb128 0x4
 579 0051 01       		.byte	0x1
 580 0052 08       		.byte	0x8
 581 0053 00010000 		.4byte	.LASF4
 582 0057 04       		.uleb128 0x4
 583 0058 02       		.byte	0x2
 584 0059 05       		.byte	0x5
 585 005a 4C020000 		.4byte	.LASF5
 586 005e 04       		.uleb128 0x4
 587 005f 02       		.byte	0x2
 588 0060 07       		.byte	0x7
 589 0061 F3010000 		.4byte	.LASF6
 590 0065 04       		.uleb128 0x4
 591 0066 04       		.byte	0x4
 592 0067 05       		.byte	0x5
 593 0068 7F000000 		.4byte	.LASF7
 594 006c 03       		.uleb128 0x3
 595 006d 06020000 		.4byte	.LASF8
 596 0071 06       		.byte	0x6
 597 0072 41       		.byte	0x41
 598 0073 77000000 		.4byte	0x77
 599 0077 04       		.uleb128 0x4
 600 0078 04       		.byte	0x4
 601 0079 07       		.byte	0x7
 602 007a E1010000 		.4byte	.LASF9
 603 007e 04       		.uleb128 0x4
 604 007f 08       		.byte	0x8
 605 0080 05       		.byte	0x5
 606 0081 0C030000 		.4byte	.LASF10
 607 0085 04       		.uleb128 0x4
 608 0086 08       		.byte	0x8
 609 0087 07       		.byte	0x7
 610 0088 AB020000 		.4byte	.LASF11
 611 008c 04       		.uleb128 0x4
 612 008d 04       		.byte	0x4
 613 008e 07       		.byte	0x7
 614 008f FE020000 		.4byte	.LASF12
 615 0093 05       		.uleb128 0x5
 616 0094 04       		.byte	0x4
 617 0095 06       		.uleb128 0x6
 618 0096 04       		.byte	0x4
 619 0097 9B000000 		.4byte	0x9b
 620 009b 04       		.uleb128 0x4
 621 009c 01       		.byte	0x1
 622 009d 08       		.byte	0x8
 623 009e 35030000 		.4byte	.LASF13
 624 00a2 06       		.uleb128 0x6
ARM GAS  /tmp/ccrDjA4K.s 			page 12


 625 00a3 04       		.byte	0x4
 626 00a4 A8000000 		.4byte	0xa8
 627 00a8 07       		.uleb128 0x7
 628 00a9 9B000000 		.4byte	0x9b
 629 00ad 08       		.uleb128 0x8
 630 00ae 73746400 		.ascii	"std\000"
 631 00b2 09       		.byte	0x9
 632 00b3 00       		.byte	0
 633 00b4 D5000000 		.4byte	0xd5
 634 00b8 09       		.uleb128 0x9
 635 00b9 07       		.byte	0x7
 636 00ba 52       		.byte	0x52
 637 00bb D5000000 		.4byte	0xd5
 638 00bf 09       		.uleb128 0x9
 639 00c0 07       		.byte	0x7
 640 00c1 55       		.byte	0x55
 641 00c2 EF000000 		.4byte	0xef
 642 00c6 09       		.uleb128 0x9
 643 00c7 07       		.byte	0x7
 644 00c8 5B       		.byte	0x5b
 645 00c9 04010000 		.4byte	0x104
 646 00cd 09       		.uleb128 0x9
 647 00ce 07       		.byte	0x7
 648 00cf 5C       		.byte	0x5c
 649 00d0 1E010000 		.4byte	0x11e
 650 00d4 00       		.byte	0
 651 00d5 0A       		.uleb128 0xa
 652 00d6 09000000 		.4byte	.LASF14
 653 00da 08       		.byte	0x8
 654 00db 1D       		.byte	0x1d
 655 00dc 25000000 		.4byte	0x25
 656 00e0 EF000000 		.4byte	0xef
 657 00e4 0B       		.uleb128 0xb
 658 00e5 A2000000 		.4byte	0xa2
 659 00e9 0B       		.uleb128 0xb
 660 00ea A2000000 		.4byte	0xa2
 661 00ee 00       		.byte	0
 662 00ef 0A       		.uleb128 0xa
 663 00f0 92030000 		.4byte	.LASF15
 664 00f4 08       		.byte	0x8
 665 00f5 20       		.byte	0x20
 666 00f6 95000000 		.4byte	0x95
 667 00fa 04010000 		.4byte	0x104
 668 00fe 0B       		.uleb128 0xb
 669 00ff 25000000 		.4byte	0x25
 670 0103 00       		.byte	0
 671 0104 0A       		.uleb128 0xa
 672 0105 D1030000 		.4byte	.LASF16
 673 0109 08       		.byte	0x8
 674 010a 2A       		.byte	0x2a
 675 010b 95000000 		.4byte	0x95
 676 010f 1E010000 		.4byte	0x11e
 677 0113 0B       		.uleb128 0xb
 678 0114 95000000 		.4byte	0x95
 679 0118 0B       		.uleb128 0xb
 680 0119 A2000000 		.4byte	0xa2
 681 011d 00       		.byte	0
ARM GAS  /tmp/ccrDjA4K.s 			page 13


 682 011e 0A       		.uleb128 0xa
 683 011f 69020000 		.4byte	.LASF17
 684 0123 08       		.byte	0x8
 685 0124 2C       		.byte	0x2c
 686 0125 2C000000 		.4byte	0x2c
 687 0129 3D010000 		.4byte	0x13d
 688 012d 0B       		.uleb128 0xb
 689 012e 95000000 		.4byte	0x95
 690 0132 0B       		.uleb128 0xb
 691 0133 A2000000 		.4byte	0xa2
 692 0137 0B       		.uleb128 0xb
 693 0138 2C000000 		.4byte	0x2c
 694 013c 00       		.byte	0
 695 013d 08       		.uleb128 0x8
 696 013e 72327000 		.ascii	"r2p\000"
 697 0142 01       		.byte	0x1
 698 0143 03       		.byte	0x3
 699 0144 4D030000 		.4byte	0x34d
 700 0148 0C       		.uleb128 0xc
 701 0149 5E020000 		.4byte	.LASF18
 702 014d 01       		.byte	0x1
 703 014e 01       		.byte	0x1
 704 014f 06       		.byte	0x6
 705 0150 A8010000 		.4byte	0x1a8
 706 0154 0D       		.uleb128 0xd
 707 0155 5E020000 		.4byte	.LASF18
 708 0159 01       		.byte	0x1
 709 015a 09       		.byte	0x9
 710 015b 4D030000 		.4byte	0x34d
 711 015f 67010000 		.4byte	0x167
 712 0163 72010000 		.4byte	0x172
 713 0167 0E       		.uleb128 0xe
 714 0168 4D030000 		.4byte	0x34d
 715 016c 0B       		.uleb128 0xb
 716 016d 53030000 		.4byte	0x353
 717 0171 00       		.byte	0
 718 0172 0F       		.uleb128 0xf
 719 0173 5E020000 		.4byte	.LASF18
 720 0177 01       		.byte	0x1
 721 0178 14       		.byte	0x14
 722 0179 4D030000 		.4byte	0x34d
 723 017d 02       		.byte	0x2
 724 017e 86010000 		.4byte	0x186
 725 0182 8C010000 		.4byte	0x18c
 726 0186 0E       		.uleb128 0xe
 727 0187 4D030000 		.4byte	0x34d
 728 018b 00       		.byte	0
 729 018c 10       		.uleb128 0x10
 730 018d 73000000 		.4byte	.LASF19
 731 0191 01       		.byte	0x1
 732 0192 15       		.byte	0x15
 733 0193 93000000 		.4byte	0x93
 734 0197 02       		.byte	0x2
 735 0198 9C010000 		.4byte	0x19c
 736 019c 0E       		.uleb128 0xe
 737 019d 4D030000 		.4byte	0x34d
 738 01a1 0E       		.uleb128 0xe
ARM GAS  /tmp/ccrDjA4K.s 			page 14


 739 01a2 25000000 		.4byte	0x25
 740 01a6 00       		.byte	0
 741 01a7 00       		.byte	0
 742 01a8 07       		.uleb128 0x7
 743 01a9 48010000 		.4byte	0x148
 744 01ad 0C       		.uleb128 0xc
 745 01ae 11020000 		.4byte	.LASF20
 746 01b2 01       		.byte	0x1
 747 01b3 02       		.byte	0x2
 748 01b4 09       		.byte	0x9
 749 01b5 F1010000 		.4byte	0x1f1
 750 01b9 11       		.uleb128 0x11
 751 01ba 48010000 		.4byte	0x148
 752 01be 00       		.byte	0
 753 01bf 0D       		.uleb128 0xd
 754 01c0 11020000 		.4byte	.LASF20
 755 01c4 02       		.byte	0x2
 756 01c5 0B       		.byte	0xb
 757 01c6 7C030000 		.4byte	0x37c
 758 01ca D2010000 		.4byte	0x1d2
 759 01ce D8010000 		.4byte	0x1d8
 760 01d2 0E       		.uleb128 0xe
 761 01d3 7C030000 		.4byte	0x37c
 762 01d7 00       		.byte	0
 763 01d8 12       		.uleb128 0x12
 764 01d9 A3020000 		.4byte	.LASF21
 765 01dd 02       		.byte	0x2
 766 01de 0E       		.byte	0xe
 767 01df 46030000 		.4byte	.LASF23
 768 01e3 01       		.byte	0x1
 769 01e4 12       		.uleb128 0x12
 770 01e5 11040000 		.4byte	.LASF22
 771 01e9 02       		.byte	0x2
 772 01ea 0F       		.byte	0xf
 773 01eb 1A030000 		.4byte	.LASF24
 774 01ef 01       		.byte	0x1
 775 01f0 00       		.byte	0
 776 01f1 0C       		.uleb128 0xc
 777 01f2 56020000 		.4byte	.LASF25
 778 01f6 01       		.byte	0x1
 779 01f7 03       		.byte	0x3
 780 01f8 09       		.byte	0x9
 781 01f9 35020000 		.4byte	0x235
 782 01fd 11       		.uleb128 0x11
 783 01fe 48010000 		.4byte	0x148
 784 0202 00       		.byte	0
 785 0203 0D       		.uleb128 0xd
 786 0204 56020000 		.4byte	.LASF25
 787 0208 03       		.byte	0x3
 788 0209 12       		.byte	0x12
 789 020a 82030000 		.4byte	0x382
 790 020e 16020000 		.4byte	0x216
 791 0212 1C020000 		.4byte	0x21c
 792 0216 0E       		.uleb128 0xe
 793 0217 82030000 		.4byte	0x382
 794 021b 00       		.byte	0
 795 021c 12       		.uleb128 0x12
ARM GAS  /tmp/ccrDjA4K.s 			page 15


 796 021d A3020000 		.4byte	.LASF21
 797 0221 03       		.byte	0x3
 798 0222 15       		.byte	0x15
 799 0223 9B030000 		.4byte	.LASF26
 800 0227 01       		.byte	0x1
 801 0228 12       		.uleb128 0x12
 802 0229 11040000 		.4byte	.LASF22
 803 022d 03       		.byte	0x3
 804 022e 16       		.byte	0x16
 805 022f 33000000 		.4byte	.LASF27
 806 0233 01       		.byte	0x1
 807 0234 00       		.byte	0
 808 0235 13       		.uleb128 0x13
 809 0236 3A030000 		.4byte	.LASF40
 810 023a 04       		.byte	0x4
 811 023b 0A       		.byte	0xa
 812 023c 08       		.byte	0x8
 813 023d 14       		.uleb128 0x14
 814 023e FD030000 		.4byte	.LASF56
 815 0242 04       		.byte	0x4
 816 0243 0A       		.byte	0xa
 817 0244 0A       		.byte	0xa
 818 0245 01       		.byte	0x1
 819 0246 57020000 		.4byte	0x257
 820 024a 15       		.uleb128 0x15
 821 024b 83030000 		.4byte	.LASF28
 822 024f 0A       		.byte	0xa
 823 0250 0B       		.byte	0xb
 824 0251 88030000 		.4byte	0x388
 825 0255 00       		.byte	0
 826 0256 00       		.byte	0
 827 0257 11       		.uleb128 0x11
 828 0258 48010000 		.4byte	0x148
 829 025c 00       		.byte	0
 830 025d 15       		.uleb128 0x15
 831 025e 0B040000 		.4byte	.LASF29
 832 0262 0A       		.byte	0xa
 833 0263 0F       		.byte	0xf
 834 0264 88030000 		.4byte	0x388
 835 0268 00       		.byte	0
 836 0269 16       		.uleb128 0x16
 837 026a 4D000000 		.4byte	.LASF31
 838 026e 0A       		.byte	0xa
 839 026f 12       		.byte	0x12
 840 0270 D8030000 		.4byte	.LASF33
 841 0274 93000000 		.4byte	0x93
 842 0278 01       		.byte	0x1
 843 0279 81020000 		.4byte	0x281
 844 027d 87020000 		.4byte	0x287
 845 0281 0E       		.uleb128 0xe
 846 0282 8E030000 		.4byte	0x38e
 847 0286 00       		.byte	0
 848 0287 17       		.uleb128 0x17
 849 0288 22000000 		.4byte	.LASF30
 850 028c 0A       		.byte	0xa
 851 028d 13       		.byte	0x13
 852 028e 71020000 		.4byte	.LASF36
ARM GAS  /tmp/ccrDjA4K.s 			page 16


 853 0292 01       		.byte	0x1
 854 0293 9B020000 		.4byte	0x29b
 855 0297 A6020000 		.4byte	0x2a6
 856 029b 0E       		.uleb128 0xe
 857 029c 8E030000 		.4byte	0x38e
 858 02a0 0B       		.uleb128 0xb
 859 02a1 93000000 		.4byte	0x93
 860 02a5 00       		.byte	0
 861 02a6 16       		.uleb128 0x16
 862 02a7 CF000000 		.4byte	.LASF32
 863 02ab 0A       		.byte	0xa
 864 02ac 15       		.byte	0x15
 865 02ad DA020000 		.4byte	.LASF34
 866 02b1 93000000 		.4byte	0x93
 867 02b5 01       		.byte	0x1
 868 02b6 BE020000 		.4byte	0x2be
 869 02ba C4020000 		.4byte	0x2c4
 870 02be 0E       		.uleb128 0xe
 871 02bf 8E030000 		.4byte	0x38e
 872 02c3 00       		.byte	0
 873 02c4 17       		.uleb128 0x17
 874 02c5 07030000 		.4byte	.LASF35
 875 02c9 0A       		.byte	0xa
 876 02ca 16       		.byte	0x16
 877 02cb 66030000 		.4byte	.LASF37
 878 02cf 01       		.byte	0x1
 879 02d0 D8020000 		.4byte	0x2d8
 880 02d4 E3020000 		.4byte	0x2e3
 881 02d8 0E       		.uleb128 0xe
 882 02d9 8E030000 		.4byte	0x38e
 883 02dd 0B       		.uleb128 0xb
 884 02de 93000000 		.4byte	0x93
 885 02e2 00       		.byte	0
 886 02e3 17       		.uleb128 0x17
 887 02e4 DC010000 		.4byte	.LASF38
 888 02e8 0A       		.byte	0xa
 889 02e9 17       		.byte	0x17
 890 02ea D5000000 		.4byte	.LASF39
 891 02ee 01       		.byte	0x1
 892 02ef F7020000 		.4byte	0x2f7
 893 02f3 0C030000 		.4byte	0x30c
 894 02f7 0E       		.uleb128 0xe
 895 02f8 8E030000 		.4byte	0x38e
 896 02fc 0B       		.uleb128 0xb
 897 02fd 93000000 		.4byte	0x93
 898 0301 0B       		.uleb128 0xb
 899 0302 2C000000 		.4byte	0x2c
 900 0306 0B       		.uleb128 0xb
 901 0307 2C000000 		.4byte	0x2c
 902 030b 00       		.byte	0
 903 030c 0F       		.uleb128 0xf
 904 030d 3A030000 		.4byte	.LASF40
 905 0311 0A       		.byte	0xa
 906 0312 1A       		.byte	0x1a
 907 0313 8E030000 		.4byte	0x38e
 908 0317 01       		.byte	0x1
 909 0318 20030000 		.4byte	0x320
ARM GAS  /tmp/ccrDjA4K.s 			page 17


 910 031c 26030000 		.4byte	0x326
 911 0320 0E       		.uleb128 0xe
 912 0321 8E030000 		.4byte	0x38e
 913 0325 00       		.byte	0
 914 0326 10       		.uleb128 0x10
 915 0327 3A030000 		.4byte	.LASF40
 916 032b 0A       		.byte	0xa
 917 032c 1B       		.byte	0x1b
 918 032d 8E030000 		.4byte	0x38e
 919 0331 01       		.byte	0x1
 920 0332 36030000 		.4byte	0x336
 921 0336 0E       		.uleb128 0xe
 922 0337 8E030000 		.4byte	0x38e
 923 033b 0B       		.uleb128 0xb
 924 033c 93000000 		.4byte	0x93
 925 0340 0B       		.uleb128 0xb
 926 0341 2C000000 		.4byte	0x2c
 927 0345 0B       		.uleb128 0xb
 928 0346 2C000000 		.4byte	0x2c
 929 034a 00       		.byte	0
 930 034b 00       		.byte	0
 931 034c 00       		.byte	0
 932 034d 06       		.uleb128 0x6
 933 034e 04       		.byte	0x4
 934 034f 48010000 		.4byte	0x148
 935 0353 18       		.uleb128 0x18
 936 0354 04       		.byte	0x4
 937 0355 A8010000 		.4byte	0x1a8
 938 0359 03       		.uleb128 0x3
 939 035a 8D000000 		.4byte	.LASF41
 940 035e 0B       		.byte	0xb
 941 035f 15       		.byte	0x15
 942 0360 45000000 		.4byte	0x45
 943 0364 03       		.uleb128 0x3
 944 0365 89030000 		.4byte	.LASF42
 945 0369 0B       		.byte	0xb
 946 036a 2D       		.byte	0x2d
 947 036b 6C000000 		.4byte	0x6c
 948 036f 04       		.uleb128 0x4
 949 0370 01       		.byte	0x1
 950 0371 02       		.byte	0x2
 951 0372 88000000 		.4byte	.LASF43
 952 0376 06       		.uleb128 0x6
 953 0377 04       		.byte	0x4
 954 0378 59030000 		.4byte	0x359
 955 037c 06       		.uleb128 0x6
 956 037d 04       		.byte	0x4
 957 037e AD010000 		.4byte	0x1ad
 958 0382 06       		.uleb128 0x6
 959 0383 04       		.byte	0x4
 960 0384 F1010000 		.4byte	0x1f1
 961 0388 06       		.uleb128 0x6
 962 0389 04       		.byte	0x4
 963 038a 3D020000 		.4byte	0x23d
 964 038e 06       		.uleb128 0x6
 965 038f 04       		.byte	0x4
 966 0390 35020000 		.4byte	0x235
ARM GAS  /tmp/ccrDjA4K.s 			page 18


 967 0394 19       		.uleb128 0x19
 968 0395 72010000 		.4byte	0x172
 969 0399 02       		.byte	0x2
 970 039a A2030000 		.4byte	0x3a2
 971 039e AC030000 		.4byte	0x3ac
 972 03a2 1A       		.uleb128 0x1a
 973 03a3 0E010000 		.4byte	.LASF45
 974 03a7 AC030000 		.4byte	0x3ac
 975 03ab 00       		.byte	0
 976 03ac 07       		.uleb128 0x7
 977 03ad 4D030000 		.4byte	0x34d
 978 03b1 1B       		.uleb128 0x1b
 979 03b2 94030000 		.4byte	0x394
 980 03b6 C2020000 		.4byte	.LASF51
 981 03ba 00000000 		.4byte	.LFB6
 982 03be 0C000000 		.4byte	.LFE6-.LFB6
 983 03c2 01       		.uleb128 0x1
 984 03c3 9C       		.byte	0x9c
 985 03c4 CC030000 		.4byte	0x3cc
 986 03c8 D5030000 		.4byte	0x3d5
 987 03cc 1C       		.uleb128 0x1c
 988 03cd A2030000 		.4byte	0x3a2
 989 03d1 02       		.uleb128 0x2
 990 03d2 91       		.byte	0x91
 991 03d3 7C       		.sleb128 -4
 992 03d4 00       		.byte	0
 993 03d5 1D       		.uleb128 0x1d
 994 03d6 D8010000 		.4byte	0x1d8
 995 03da 14       		.byte	0x14
 996 03db 00000000 		.4byte	.LFB18
 997 03df 0E000000 		.4byte	.LFE18-.LFB18
 998 03e3 01       		.uleb128 0x1
 999 03e4 9C       		.byte	0x9c
 1000 03e5 01040000 		.4byte	0x401
 1001 03e9 1E       		.uleb128 0x1e
 1002 03ea 02000000 		.4byte	.LBB4
 1003 03ee 06000000 		.4byte	.LBE4-.LBB4
 1004 03f2 1F       		.uleb128 0x1f
 1005 03f3 746D7000 		.ascii	"tmp\000"
 1006 03f7 02       		.byte	0x2
 1007 03f8 16       		.byte	0x16
 1008 03f9 64030000 		.4byte	0x364
 1009 03fd 01       		.uleb128 0x1
 1010 03fe 53       		.byte	0x53
 1011 03ff 00       		.byte	0
 1012 0400 00       		.byte	0
 1013 0401 1D       		.uleb128 0x1d
 1014 0402 E4010000 		.4byte	0x1e4
 1015 0406 1B       		.byte	0x1b
 1016 0407 00000000 		.4byte	.LFB19
 1017 040b 0E000000 		.4byte	.LFE19-.LFB19
 1018 040f 01       		.uleb128 0x1
 1019 0410 9C       		.byte	0x9c
 1020 0411 2D040000 		.4byte	0x42d
 1021 0415 1E       		.uleb128 0x1e
 1022 0416 06000000 		.4byte	.LBB7
 1023 041a 06000000 		.4byte	.LBE7-.LBB7
ARM GAS  /tmp/ccrDjA4K.s 			page 19


 1024 041e 1F       		.uleb128 0x1f
 1025 041f 746D7000 		.ascii	"tmp\000"
 1026 0423 02       		.byte	0x2
 1027 0424 1D       		.byte	0x1d
 1028 0425 64030000 		.4byte	0x364
 1029 0429 01       		.uleb128 0x1
 1030 042a 53       		.byte	0x53
 1031 042b 00       		.byte	0
 1032 042c 00       		.byte	0
 1033 042d 20       		.uleb128 0x20
 1034 042e 1C020000 		.4byte	0x21c
 1035 0432 1B       		.byte	0x1b
 1036 0433 00000000 		.4byte	.LFB26
 1037 0437 08000000 		.4byte	.LFE26-.LFB26
 1038 043b 01       		.uleb128 0x1
 1039 043c 9C       		.byte	0x9c
 1040 043d 20       		.uleb128 0x20
 1041 043e 28020000 		.4byte	0x228
 1042 0442 22       		.byte	0x22
 1043 0443 00000000 		.4byte	.LFB27
 1044 0447 08000000 		.4byte	.LFE27-.LFB27
 1045 044b 01       		.uleb128 0x1
 1046 044c 9C       		.byte	0x9c
 1047 044d 21       		.uleb128 0x21
 1048 044e 69020000 		.4byte	0x269
 1049 0452 04       		.byte	0x4
 1050 0453 07       		.byte	0x7
 1051 0454 00000000 		.4byte	.LFB36
 1052 0458 28000000 		.4byte	.LFE36-.LFB36
 1053 045c 01       		.uleb128 0x1
 1054 045d 9C       		.byte	0x9c
 1055 045e 66040000 		.4byte	0x466
 1056 0462 8B040000 		.4byte	0x48b
 1057 0466 22       		.uleb128 0x22
 1058 0467 0E010000 		.4byte	.LASF45
 1059 046b 8B040000 		.4byte	0x48b
 1060 046f 02       		.uleb128 0x2
 1061 0470 91       		.byte	0x91
 1062 0471 74       		.sleb128 -12
 1063 0472 1E       		.uleb128 0x1e
 1064 0473 0C000000 		.4byte	.LBB10
 1065 0477 14000000 		.4byte	.LBE10-.LBB10
 1066 047b 23       		.uleb128 0x23
 1067 047c F7020000 		.4byte	.LASF44
 1068 0480 04       		.byte	0x4
 1069 0481 0A       		.byte	0xa
 1070 0482 93000000 		.4byte	0x93
 1071 0486 02       		.uleb128 0x2
 1072 0487 91       		.byte	0x91
 1073 0488 7C       		.sleb128 -4
 1074 0489 00       		.byte	0
 1075 048a 00       		.byte	0
 1076 048b 07       		.uleb128 0x7
 1077 048c 8E030000 		.4byte	0x38e
 1078 0490 21       		.uleb128 0x21
 1079 0491 87020000 		.4byte	0x287
 1080 0495 04       		.byte	0x4
ARM GAS  /tmp/ccrDjA4K.s 			page 20


 1081 0496 12       		.byte	0x12
 1082 0497 28000000 		.4byte	.LFB37
 1083 049b 1E000000 		.4byte	.LFE37-.LFB37
 1084 049f 01       		.uleb128 0x1
 1085 04a0 9C       		.byte	0x9c
 1086 04a1 A9040000 		.4byte	0x4a9
 1087 04a5 C4040000 		.4byte	0x4c4
 1088 04a9 22       		.uleb128 0x22
 1089 04aa 0E010000 		.4byte	.LASF45
 1090 04ae 8B040000 		.4byte	0x48b
 1091 04b2 02       		.uleb128 0x2
 1092 04b3 91       		.byte	0x91
 1093 04b4 7C       		.sleb128 -4
 1094 04b5 24       		.uleb128 0x24
 1095 04b6 61030000 		.4byte	.LASF46
 1096 04ba 04       		.byte	0x4
 1097 04bb 12       		.byte	0x12
 1098 04bc 93000000 		.4byte	0x93
 1099 04c0 02       		.uleb128 0x2
 1100 04c1 91       		.byte	0x91
 1101 04c2 78       		.sleb128 -8
 1102 04c3 00       		.byte	0
 1103 04c4 25       		.uleb128 0x25
 1104 04c5 A6020000 		.4byte	0x2a6
 1105 04c9 04       		.byte	0x4
 1106 04ca 1B       		.byte	0x1b
 1107 04cb 48000000 		.4byte	.LFB38
 1108 04cf 38000000 		.4byte	.LFE38-.LFB38
 1109 04d3 01       		.uleb128 0x1
 1110 04d4 9C       		.byte	0x9c
 1111 04d5 DD040000 		.4byte	0x4dd
 1112 04d9 02050000 		.4byte	0x502
 1113 04dd 22       		.uleb128 0x22
 1114 04de 0E010000 		.4byte	.LASF45
 1115 04e2 8B040000 		.4byte	0x48b
 1116 04e6 02       		.uleb128 0x2
 1117 04e7 91       		.byte	0x91
 1118 04e8 6C       		.sleb128 -20
 1119 04e9 1E       		.uleb128 0x1e
 1120 04ea 5A000000 		.4byte	.LBB13
 1121 04ee 18000000 		.4byte	.LBE13-.LBB13
 1122 04f2 23       		.uleb128 0x23
 1123 04f3 F7020000 		.4byte	.LASF44
 1124 04f7 04       		.byte	0x4
 1125 04f8 1F       		.byte	0x1f
 1126 04f9 93000000 		.4byte	0x93
 1127 04fd 02       		.uleb128 0x2
 1128 04fe 91       		.byte	0x91
 1129 04ff 74       		.sleb128 -12
 1130 0500 00       		.byte	0
 1131 0501 00       		.byte	0
 1132 0502 25       		.uleb128 0x25
 1133 0503 C4020000 		.4byte	0x2c4
 1134 0507 04       		.byte	0x4
 1135 0508 2A       		.byte	0x2a
 1136 0509 80000000 		.4byte	.LFB39
 1137 050d 2A000000 		.4byte	.LFE39-.LFB39
ARM GAS  /tmp/ccrDjA4K.s 			page 21


 1138 0511 01       		.uleb128 0x1
 1139 0512 9C       		.byte	0x9c
 1140 0513 1B050000 		.4byte	0x51b
 1141 0517 36050000 		.4byte	0x536
 1142 051b 22       		.uleb128 0x22
 1143 051c 0E010000 		.4byte	.LASF45
 1144 0520 8B040000 		.4byte	0x48b
 1145 0524 02       		.uleb128 0x2
 1146 0525 91       		.byte	0x91
 1147 0526 74       		.sleb128 -12
 1148 0527 24       		.uleb128 0x24
 1149 0528 61030000 		.4byte	.LASF46
 1150 052c 04       		.byte	0x4
 1151 052d 2A       		.byte	0x2a
 1152 052e 93000000 		.4byte	0x93
 1153 0532 02       		.uleb128 0x2
 1154 0533 91       		.byte	0x91
 1155 0534 70       		.sleb128 -16
 1156 0535 00       		.byte	0
 1157 0536 25       		.uleb128 0x25
 1158 0537 E3020000 		.4byte	0x2e3
 1159 053b 04       		.byte	0x4
 1160 053c 35       		.byte	0x35
 1161 053d AC000000 		.4byte	.LFB40
 1162 0541 64000000 		.4byte	.LFE40-.LFB40
 1163 0545 01       		.uleb128 0x1
 1164 0546 9C       		.byte	0x9c
 1165 0547 4F050000 		.4byte	0x54f
 1166 054b 9E050000 		.4byte	0x59e
 1167 054f 22       		.uleb128 0x22
 1168 0550 0E010000 		.4byte	.LASF45
 1169 0554 8B040000 		.4byte	0x48b
 1170 0558 02       		.uleb128 0x2
 1171 0559 91       		.byte	0x91
 1172 055a 6C       		.sleb128 -20
 1173 055b 24       		.uleb128 0x24
 1174 055c 95000000 		.4byte	.LASF47
 1175 0560 04       		.byte	0x4
 1176 0561 35       		.byte	0x35
 1177 0562 93000000 		.4byte	0x93
 1178 0566 02       		.uleb128 0x2
 1179 0567 91       		.byte	0x91
 1180 0568 68       		.sleb128 -24
 1181 0569 24       		.uleb128 0x24
 1182 056a 04040000 		.4byte	.LASF48
 1183 056e 04       		.byte	0x4
 1184 056f 35       		.byte	0x35
 1185 0570 2C000000 		.4byte	0x2c
 1186 0574 02       		.uleb128 0x2
 1187 0575 91       		.byte	0x91
 1188 0576 64       		.sleb128 -28
 1189 0577 24       		.uleb128 0x24
 1190 0578 00000000 		.4byte	.LASF49
 1191 057c 04       		.byte	0x4
 1192 057d 35       		.byte	0x35
 1193 057e 2C000000 		.4byte	0x2c
 1194 0582 02       		.uleb128 0x2
ARM GAS  /tmp/ccrDjA4K.s 			page 22


 1195 0583 91       		.byte	0x91
 1196 0584 60       		.sleb128 -32
 1197 0585 1E       		.uleb128 0x1e
 1198 0586 DC000000 		.4byte	.LBB15
 1199 058a 2A000000 		.4byte	.LBE15-.LBB15
 1200 058e 23       		.uleb128 0x23
 1201 058f 2E000000 		.4byte	.LASF50
 1202 0593 04       		.byte	0x4
 1203 0594 3B       		.byte	0x3b
 1204 0595 76030000 		.4byte	0x376
 1205 0599 02       		.uleb128 0x2
 1206 059a 91       		.byte	0x91
 1207 059b 74       		.sleb128 -12
 1208 059c 00       		.byte	0
 1209 059d 00       		.byte	0
 1210 059e 26       		.uleb128 0x26
 1211 059f 0C030000 		.4byte	0x30c
 1212 05a3 04       		.byte	0x4
 1213 05a4 42       		.byte	0x42
 1214 05a5 00       		.byte	0
 1215 05a6 AE050000 		.4byte	0x5ae
 1216 05aa B8050000 		.4byte	0x5b8
 1217 05ae 1A       		.uleb128 0x1a
 1218 05af 0E010000 		.4byte	.LASF45
 1219 05b3 8B040000 		.4byte	0x48b
 1220 05b7 00       		.byte	0
 1221 05b8 27       		.uleb128 0x27
 1222 05b9 9E050000 		.4byte	0x59e
 1223 05bd 5A000000 		.4byte	.LASF52
 1224 05c1 10010000 		.4byte	.LFB42
 1225 05c5 1C000000 		.4byte	.LFE42-.LFB42
 1226 05c9 01       		.uleb128 0x1
 1227 05ca 9C       		.byte	0x9c
 1228 05cb D3050000 		.4byte	0x5d3
 1229 05cf DC050000 		.4byte	0x5dc
 1230 05d3 1C       		.uleb128 0x1c
 1231 05d4 AE050000 		.4byte	0x5ae
 1232 05d8 02       		.uleb128 0x2
 1233 05d9 91       		.byte	0x91
 1234 05da 74       		.sleb128 -12
 1235 05db 00       		.byte	0
 1236 05dc 26       		.uleb128 0x26
 1237 05dd 26030000 		.4byte	0x326
 1238 05e1 04       		.byte	0x4
 1239 05e2 48       		.byte	0x48
 1240 05e3 00       		.byte	0
 1241 05e4 EC050000 		.4byte	0x5ec
 1242 05e8 17060000 		.4byte	0x617
 1243 05ec 1A       		.uleb128 0x1a
 1244 05ed 0E010000 		.4byte	.LASF45
 1245 05f1 8B040000 		.4byte	0x48b
 1246 05f5 28       		.uleb128 0x28
 1247 05f6 95000000 		.4byte	.LASF47
 1248 05fa 04       		.byte	0x4
 1249 05fb 48       		.byte	0x48
 1250 05fc 93000000 		.4byte	0x93
 1251 0600 28       		.uleb128 0x28
ARM GAS  /tmp/ccrDjA4K.s 			page 23


 1252 0601 04040000 		.4byte	.LASF48
 1253 0605 04       		.byte	0x4
 1254 0606 48       		.byte	0x48
 1255 0607 2C000000 		.4byte	0x2c
 1256 060b 28       		.uleb128 0x28
 1257 060c 00000000 		.4byte	.LASF49
 1258 0610 04       		.byte	0x4
 1259 0611 48       		.byte	0x48
 1260 0612 2C000000 		.4byte	0x2c
 1261 0616 00       		.byte	0
 1262 0617 29       		.uleb128 0x29
 1263 0618 DC050000 		.4byte	0x5dc
 1264 061c B5030000 		.4byte	.LASF57
 1265 0620 2C010000 		.4byte	.LFB45
 1266 0624 2E000000 		.4byte	.LFE45-.LFB45
 1267 0628 01       		.uleb128 0x1
 1268 0629 9C       		.byte	0x9c
 1269 062a 2E060000 		.4byte	0x62e
 1270 062e 1C       		.uleb128 0x1c
 1271 062f EC050000 		.4byte	0x5ec
 1272 0633 02       		.uleb128 0x2
 1273 0634 91       		.byte	0x91
 1274 0635 74       		.sleb128 -12
 1275 0636 1C       		.uleb128 0x1c
 1276 0637 F5050000 		.4byte	0x5f5
 1277 063b 02       		.uleb128 0x2
 1278 063c 91       		.byte	0x91
 1279 063d 70       		.sleb128 -16
 1280 063e 1C       		.uleb128 0x1c
 1281 063f 00060000 		.4byte	0x600
 1282 0643 02       		.uleb128 0x2
 1283 0644 91       		.byte	0x91
 1284 0645 6C       		.sleb128 -20
 1285 0646 1C       		.uleb128 0x1c
 1286 0647 0B060000 		.4byte	0x60b
 1287 064b 02       		.uleb128 0x2
 1288 064c 91       		.byte	0x91
 1289 064d 68       		.sleb128 -24
 1290 064e 00       		.byte	0
 1291 064f 00       		.byte	0
 1292              		.section	.debug_abbrev,"",%progbits
 1293              	.Ldebug_abbrev0:
 1294 0000 01       		.uleb128 0x1
 1295 0001 11       		.uleb128 0x11
 1296 0002 01       		.byte	0x1
 1297 0003 25       		.uleb128 0x25
 1298 0004 0E       		.uleb128 0xe
 1299 0005 13       		.uleb128 0x13
 1300 0006 0B       		.uleb128 0xb
 1301 0007 03       		.uleb128 0x3
 1302 0008 0E       		.uleb128 0xe
 1303 0009 1B       		.uleb128 0x1b
 1304 000a 0E       		.uleb128 0xe
 1305 000b 55       		.uleb128 0x55
 1306 000c 17       		.uleb128 0x17
 1307 000d 11       		.uleb128 0x11
 1308 000e 01       		.uleb128 0x1
ARM GAS  /tmp/ccrDjA4K.s 			page 24


 1309 000f 10       		.uleb128 0x10
 1310 0010 17       		.uleb128 0x17
 1311 0011 00       		.byte	0
 1312 0012 00       		.byte	0
 1313 0013 02       		.uleb128 0x2
 1314 0014 24       		.uleb128 0x24
 1315 0015 00       		.byte	0
 1316 0016 0B       		.uleb128 0xb
 1317 0017 0B       		.uleb128 0xb
 1318 0018 3E       		.uleb128 0x3e
 1319 0019 0B       		.uleb128 0xb
 1320 001a 03       		.uleb128 0x3
 1321 001b 08       		.uleb128 0x8
 1322 001c 00       		.byte	0
 1323 001d 00       		.byte	0
 1324 001e 03       		.uleb128 0x3
 1325 001f 16       		.uleb128 0x16
 1326 0020 00       		.byte	0
 1327 0021 03       		.uleb128 0x3
 1328 0022 0E       		.uleb128 0xe
 1329 0023 3A       		.uleb128 0x3a
 1330 0024 0B       		.uleb128 0xb
 1331 0025 3B       		.uleb128 0x3b
 1332 0026 0B       		.uleb128 0xb
 1333 0027 49       		.uleb128 0x49
 1334 0028 13       		.uleb128 0x13
 1335 0029 00       		.byte	0
 1336 002a 00       		.byte	0
 1337 002b 04       		.uleb128 0x4
 1338 002c 24       		.uleb128 0x24
 1339 002d 00       		.byte	0
 1340 002e 0B       		.uleb128 0xb
 1341 002f 0B       		.uleb128 0xb
 1342 0030 3E       		.uleb128 0x3e
 1343 0031 0B       		.uleb128 0xb
 1344 0032 03       		.uleb128 0x3
 1345 0033 0E       		.uleb128 0xe
 1346 0034 00       		.byte	0
 1347 0035 00       		.byte	0
 1348 0036 05       		.uleb128 0x5
 1349 0037 0F       		.uleb128 0xf
 1350 0038 00       		.byte	0
 1351 0039 0B       		.uleb128 0xb
 1352 003a 0B       		.uleb128 0xb
 1353 003b 00       		.byte	0
 1354 003c 00       		.byte	0
 1355 003d 06       		.uleb128 0x6
 1356 003e 0F       		.uleb128 0xf
 1357 003f 00       		.byte	0
 1358 0040 0B       		.uleb128 0xb
 1359 0041 0B       		.uleb128 0xb
 1360 0042 49       		.uleb128 0x49
 1361 0043 13       		.uleb128 0x13
 1362 0044 00       		.byte	0
 1363 0045 00       		.byte	0
 1364 0046 07       		.uleb128 0x7
 1365 0047 26       		.uleb128 0x26
ARM GAS  /tmp/ccrDjA4K.s 			page 25


 1366 0048 00       		.byte	0
 1367 0049 49       		.uleb128 0x49
 1368 004a 13       		.uleb128 0x13
 1369 004b 00       		.byte	0
 1370 004c 00       		.byte	0
 1371 004d 08       		.uleb128 0x8
 1372 004e 39       		.uleb128 0x39
 1373 004f 01       		.byte	0x1
 1374 0050 03       		.uleb128 0x3
 1375 0051 08       		.uleb128 0x8
 1376 0052 3A       		.uleb128 0x3a
 1377 0053 0B       		.uleb128 0xb
 1378 0054 3B       		.uleb128 0x3b
 1379 0055 0B       		.uleb128 0xb
 1380 0056 01       		.uleb128 0x1
 1381 0057 13       		.uleb128 0x13
 1382 0058 00       		.byte	0
 1383 0059 00       		.byte	0
 1384 005a 09       		.uleb128 0x9
 1385 005b 08       		.uleb128 0x8
 1386 005c 00       		.byte	0
 1387 005d 3A       		.uleb128 0x3a
 1388 005e 0B       		.uleb128 0xb
 1389 005f 3B       		.uleb128 0x3b
 1390 0060 0B       		.uleb128 0xb
 1391 0061 18       		.uleb128 0x18
 1392 0062 13       		.uleb128 0x13
 1393 0063 00       		.byte	0
 1394 0064 00       		.byte	0
 1395 0065 0A       		.uleb128 0xa
 1396 0066 2E       		.uleb128 0x2e
 1397 0067 01       		.byte	0x1
 1398 0068 3F       		.uleb128 0x3f
 1399 0069 19       		.uleb128 0x19
 1400 006a 03       		.uleb128 0x3
 1401 006b 0E       		.uleb128 0xe
 1402 006c 3A       		.uleb128 0x3a
 1403 006d 0B       		.uleb128 0xb
 1404 006e 3B       		.uleb128 0x3b
 1405 006f 0B       		.uleb128 0xb
 1406 0070 49       		.uleb128 0x49
 1407 0071 13       		.uleb128 0x13
 1408 0072 3C       		.uleb128 0x3c
 1409 0073 19       		.uleb128 0x19
 1410 0074 01       		.uleb128 0x1
 1411 0075 13       		.uleb128 0x13
 1412 0076 00       		.byte	0
 1413 0077 00       		.byte	0
 1414 0078 0B       		.uleb128 0xb
 1415 0079 05       		.uleb128 0x5
 1416 007a 00       		.byte	0
 1417 007b 49       		.uleb128 0x49
 1418 007c 13       		.uleb128 0x13
 1419 007d 00       		.byte	0
 1420 007e 00       		.byte	0
 1421 007f 0C       		.uleb128 0xc
 1422 0080 02       		.uleb128 0x2
ARM GAS  /tmp/ccrDjA4K.s 			page 26


 1423 0081 01       		.byte	0x1
 1424 0082 03       		.uleb128 0x3
 1425 0083 0E       		.uleb128 0xe
 1426 0084 0B       		.uleb128 0xb
 1427 0085 0B       		.uleb128 0xb
 1428 0086 3A       		.uleb128 0x3a
 1429 0087 0B       		.uleb128 0xb
 1430 0088 3B       		.uleb128 0x3b
 1431 0089 0B       		.uleb128 0xb
 1432 008a 01       		.uleb128 0x1
 1433 008b 13       		.uleb128 0x13
 1434 008c 00       		.byte	0
 1435 008d 00       		.byte	0
 1436 008e 0D       		.uleb128 0xd
 1437 008f 2E       		.uleb128 0x2e
 1438 0090 01       		.byte	0x1
 1439 0091 3F       		.uleb128 0x3f
 1440 0092 19       		.uleb128 0x19
 1441 0093 03       		.uleb128 0x3
 1442 0094 0E       		.uleb128 0xe
 1443 0095 3A       		.uleb128 0x3a
 1444 0096 0B       		.uleb128 0xb
 1445 0097 3B       		.uleb128 0x3b
 1446 0098 0B       		.uleb128 0xb
 1447 0099 49       		.uleb128 0x49
 1448 009a 13       		.uleb128 0x13
 1449 009b 3C       		.uleb128 0x3c
 1450 009c 19       		.uleb128 0x19
 1451 009d 64       		.uleb128 0x64
 1452 009e 13       		.uleb128 0x13
 1453 009f 01       		.uleb128 0x1
 1454 00a0 13       		.uleb128 0x13
 1455 00a1 00       		.byte	0
 1456 00a2 00       		.byte	0
 1457 00a3 0E       		.uleb128 0xe
 1458 00a4 05       		.uleb128 0x5
 1459 00a5 00       		.byte	0
 1460 00a6 49       		.uleb128 0x49
 1461 00a7 13       		.uleb128 0x13
 1462 00a8 34       		.uleb128 0x34
 1463 00a9 19       		.uleb128 0x19
 1464 00aa 00       		.byte	0
 1465 00ab 00       		.byte	0
 1466 00ac 0F       		.uleb128 0xf
 1467 00ad 2E       		.uleb128 0x2e
 1468 00ae 01       		.byte	0x1
 1469 00af 3F       		.uleb128 0x3f
 1470 00b0 19       		.uleb128 0x19
 1471 00b1 03       		.uleb128 0x3
 1472 00b2 0E       		.uleb128 0xe
 1473 00b3 3A       		.uleb128 0x3a
 1474 00b4 0B       		.uleb128 0xb
 1475 00b5 3B       		.uleb128 0x3b
 1476 00b6 0B       		.uleb128 0xb
 1477 00b7 49       		.uleb128 0x49
 1478 00b8 13       		.uleb128 0x13
 1479 00b9 32       		.uleb128 0x32
ARM GAS  /tmp/ccrDjA4K.s 			page 27


 1480 00ba 0B       		.uleb128 0xb
 1481 00bb 3C       		.uleb128 0x3c
 1482 00bc 19       		.uleb128 0x19
 1483 00bd 64       		.uleb128 0x64
 1484 00be 13       		.uleb128 0x13
 1485 00bf 01       		.uleb128 0x1
 1486 00c0 13       		.uleb128 0x13
 1487 00c1 00       		.byte	0
 1488 00c2 00       		.byte	0
 1489 00c3 10       		.uleb128 0x10
 1490 00c4 2E       		.uleb128 0x2e
 1491 00c5 01       		.byte	0x1
 1492 00c6 3F       		.uleb128 0x3f
 1493 00c7 19       		.uleb128 0x19
 1494 00c8 03       		.uleb128 0x3
 1495 00c9 0E       		.uleb128 0xe
 1496 00ca 3A       		.uleb128 0x3a
 1497 00cb 0B       		.uleb128 0xb
 1498 00cc 3B       		.uleb128 0x3b
 1499 00cd 0B       		.uleb128 0xb
 1500 00ce 49       		.uleb128 0x49
 1501 00cf 13       		.uleb128 0x13
 1502 00d0 32       		.uleb128 0x32
 1503 00d1 0B       		.uleb128 0xb
 1504 00d2 3C       		.uleb128 0x3c
 1505 00d3 19       		.uleb128 0x19
 1506 00d4 64       		.uleb128 0x64
 1507 00d5 13       		.uleb128 0x13
 1508 00d6 00       		.byte	0
 1509 00d7 00       		.byte	0
 1510 00d8 11       		.uleb128 0x11
 1511 00d9 1C       		.uleb128 0x1c
 1512 00da 00       		.byte	0
 1513 00db 49       		.uleb128 0x49
 1514 00dc 13       		.uleb128 0x13
 1515 00dd 38       		.uleb128 0x38
 1516 00de 0B       		.uleb128 0xb
 1517 00df 00       		.byte	0
 1518 00e0 00       		.byte	0
 1519 00e1 12       		.uleb128 0x12
 1520 00e2 2E       		.uleb128 0x2e
 1521 00e3 00       		.byte	0
 1522 00e4 3F       		.uleb128 0x3f
 1523 00e5 19       		.uleb128 0x19
 1524 00e6 03       		.uleb128 0x3
 1525 00e7 0E       		.uleb128 0xe
 1526 00e8 3A       		.uleb128 0x3a
 1527 00e9 0B       		.uleb128 0xb
 1528 00ea 3B       		.uleb128 0x3b
 1529 00eb 0B       		.uleb128 0xb
 1530 00ec 6E       		.uleb128 0x6e
 1531 00ed 0E       		.uleb128 0xe
 1532 00ee 32       		.uleb128 0x32
 1533 00ef 0B       		.uleb128 0xb
 1534 00f0 3C       		.uleb128 0x3c
 1535 00f1 19       		.uleb128 0x19
 1536 00f2 00       		.byte	0
ARM GAS  /tmp/ccrDjA4K.s 			page 28


 1537 00f3 00       		.byte	0
 1538 00f4 13       		.uleb128 0x13
 1539 00f5 02       		.uleb128 0x2
 1540 00f6 01       		.byte	0x1
 1541 00f7 03       		.uleb128 0x3
 1542 00f8 0E       		.uleb128 0xe
 1543 00f9 0B       		.uleb128 0xb
 1544 00fa 0B       		.uleb128 0xb
 1545 00fb 3A       		.uleb128 0x3a
 1546 00fc 0B       		.uleb128 0xb
 1547 00fd 3B       		.uleb128 0x3b
 1548 00fe 0B       		.uleb128 0xb
 1549 00ff 00       		.byte	0
 1550 0100 00       		.byte	0
 1551 0101 14       		.uleb128 0x14
 1552 0102 13       		.uleb128 0x13
 1553 0103 01       		.byte	0x1
 1554 0104 03       		.uleb128 0x3
 1555 0105 0E       		.uleb128 0xe
 1556 0106 0B       		.uleb128 0xb
 1557 0107 0B       		.uleb128 0xb
 1558 0108 3A       		.uleb128 0x3a
 1559 0109 0B       		.uleb128 0xb
 1560 010a 3B       		.uleb128 0x3b
 1561 010b 0B       		.uleb128 0xb
 1562 010c 32       		.uleb128 0x32
 1563 010d 0B       		.uleb128 0xb
 1564 010e 01       		.uleb128 0x1
 1565 010f 13       		.uleb128 0x13
 1566 0110 00       		.byte	0
 1567 0111 00       		.byte	0
 1568 0112 15       		.uleb128 0x15
 1569 0113 0D       		.uleb128 0xd
 1570 0114 00       		.byte	0
 1571 0115 03       		.uleb128 0x3
 1572 0116 0E       		.uleb128 0xe
 1573 0117 3A       		.uleb128 0x3a
 1574 0118 0B       		.uleb128 0xb
 1575 0119 3B       		.uleb128 0x3b
 1576 011a 0B       		.uleb128 0xb
 1577 011b 49       		.uleb128 0x49
 1578 011c 13       		.uleb128 0x13
 1579 011d 38       		.uleb128 0x38
 1580 011e 0B       		.uleb128 0xb
 1581 011f 00       		.byte	0
 1582 0120 00       		.byte	0
 1583 0121 16       		.uleb128 0x16
 1584 0122 2E       		.uleb128 0x2e
 1585 0123 01       		.byte	0x1
 1586 0124 3F       		.uleb128 0x3f
 1587 0125 19       		.uleb128 0x19
 1588 0126 03       		.uleb128 0x3
 1589 0127 0E       		.uleb128 0xe
 1590 0128 3A       		.uleb128 0x3a
 1591 0129 0B       		.uleb128 0xb
 1592 012a 3B       		.uleb128 0x3b
 1593 012b 0B       		.uleb128 0xb
ARM GAS  /tmp/ccrDjA4K.s 			page 29


 1594 012c 6E       		.uleb128 0x6e
 1595 012d 0E       		.uleb128 0xe
 1596 012e 49       		.uleb128 0x49
 1597 012f 13       		.uleb128 0x13
 1598 0130 32       		.uleb128 0x32
 1599 0131 0B       		.uleb128 0xb
 1600 0132 3C       		.uleb128 0x3c
 1601 0133 19       		.uleb128 0x19
 1602 0134 64       		.uleb128 0x64
 1603 0135 13       		.uleb128 0x13
 1604 0136 01       		.uleb128 0x1
 1605 0137 13       		.uleb128 0x13
 1606 0138 00       		.byte	0
 1607 0139 00       		.byte	0
 1608 013a 17       		.uleb128 0x17
 1609 013b 2E       		.uleb128 0x2e
 1610 013c 01       		.byte	0x1
 1611 013d 3F       		.uleb128 0x3f
 1612 013e 19       		.uleb128 0x19
 1613 013f 03       		.uleb128 0x3
 1614 0140 0E       		.uleb128 0xe
 1615 0141 3A       		.uleb128 0x3a
 1616 0142 0B       		.uleb128 0xb
 1617 0143 3B       		.uleb128 0x3b
 1618 0144 0B       		.uleb128 0xb
 1619 0145 6E       		.uleb128 0x6e
 1620 0146 0E       		.uleb128 0xe
 1621 0147 32       		.uleb128 0x32
 1622 0148 0B       		.uleb128 0xb
 1623 0149 3C       		.uleb128 0x3c
 1624 014a 19       		.uleb128 0x19
 1625 014b 64       		.uleb128 0x64
 1626 014c 13       		.uleb128 0x13
 1627 014d 01       		.uleb128 0x1
 1628 014e 13       		.uleb128 0x13
 1629 014f 00       		.byte	0
 1630 0150 00       		.byte	0
 1631 0151 18       		.uleb128 0x18
 1632 0152 10       		.uleb128 0x10
 1633 0153 00       		.byte	0
 1634 0154 0B       		.uleb128 0xb
 1635 0155 0B       		.uleb128 0xb
 1636 0156 49       		.uleb128 0x49
 1637 0157 13       		.uleb128 0x13
 1638 0158 00       		.byte	0
 1639 0159 00       		.byte	0
 1640 015a 19       		.uleb128 0x19
 1641 015b 2E       		.uleb128 0x2e
 1642 015c 01       		.byte	0x1
 1643 015d 47       		.uleb128 0x47
 1644 015e 13       		.uleb128 0x13
 1645 015f 20       		.uleb128 0x20
 1646 0160 0B       		.uleb128 0xb
 1647 0161 64       		.uleb128 0x64
 1648 0162 13       		.uleb128 0x13
 1649 0163 01       		.uleb128 0x1
 1650 0164 13       		.uleb128 0x13
ARM GAS  /tmp/ccrDjA4K.s 			page 30


 1651 0165 00       		.byte	0
 1652 0166 00       		.byte	0
 1653 0167 1A       		.uleb128 0x1a
 1654 0168 05       		.uleb128 0x5
 1655 0169 00       		.byte	0
 1656 016a 03       		.uleb128 0x3
 1657 016b 0E       		.uleb128 0xe
 1658 016c 49       		.uleb128 0x49
 1659 016d 13       		.uleb128 0x13
 1660 016e 34       		.uleb128 0x34
 1661 016f 19       		.uleb128 0x19
 1662 0170 00       		.byte	0
 1663 0171 00       		.byte	0
 1664 0172 1B       		.uleb128 0x1b
 1665 0173 2E       		.uleb128 0x2e
 1666 0174 01       		.byte	0x1
 1667 0175 31       		.uleb128 0x31
 1668 0176 13       		.uleb128 0x13
 1669 0177 6E       		.uleb128 0x6e
 1670 0178 0E       		.uleb128 0xe
 1671 0179 11       		.uleb128 0x11
 1672 017a 01       		.uleb128 0x1
 1673 017b 12       		.uleb128 0x12
 1674 017c 06       		.uleb128 0x6
 1675 017d 40       		.uleb128 0x40
 1676 017e 18       		.uleb128 0x18
 1677 017f 64       		.uleb128 0x64
 1678 0180 13       		.uleb128 0x13
 1679 0181 9742     		.uleb128 0x2117
 1680 0183 19       		.uleb128 0x19
 1681 0184 01       		.uleb128 0x1
 1682 0185 13       		.uleb128 0x13
 1683 0186 00       		.byte	0
 1684 0187 00       		.byte	0
 1685 0188 1C       		.uleb128 0x1c
 1686 0189 05       		.uleb128 0x5
 1687 018a 00       		.byte	0
 1688 018b 31       		.uleb128 0x31
 1689 018c 13       		.uleb128 0x13
 1690 018d 02       		.uleb128 0x2
 1691 018e 18       		.uleb128 0x18
 1692 018f 00       		.byte	0
 1693 0190 00       		.byte	0
 1694 0191 1D       		.uleb128 0x1d
 1695 0192 2E       		.uleb128 0x2e
 1696 0193 01       		.byte	0x1
 1697 0194 47       		.uleb128 0x47
 1698 0195 13       		.uleb128 0x13
 1699 0196 3B       		.uleb128 0x3b
 1700 0197 0B       		.uleb128 0xb
 1701 0198 11       		.uleb128 0x11
 1702 0199 01       		.uleb128 0x1
 1703 019a 12       		.uleb128 0x12
 1704 019b 06       		.uleb128 0x6
 1705 019c 40       		.uleb128 0x40
 1706 019d 18       		.uleb128 0x18
 1707 019e 9642     		.uleb128 0x2116
ARM GAS  /tmp/ccrDjA4K.s 			page 31


 1708 01a0 19       		.uleb128 0x19
 1709 01a1 01       		.uleb128 0x1
 1710 01a2 13       		.uleb128 0x13
 1711 01a3 00       		.byte	0
 1712 01a4 00       		.byte	0
 1713 01a5 1E       		.uleb128 0x1e
 1714 01a6 0B       		.uleb128 0xb
 1715 01a7 01       		.byte	0x1
 1716 01a8 11       		.uleb128 0x11
 1717 01a9 01       		.uleb128 0x1
 1718 01aa 12       		.uleb128 0x12
 1719 01ab 06       		.uleb128 0x6
 1720 01ac 00       		.byte	0
 1721 01ad 00       		.byte	0
 1722 01ae 1F       		.uleb128 0x1f
 1723 01af 34       		.uleb128 0x34
 1724 01b0 00       		.byte	0
 1725 01b1 03       		.uleb128 0x3
 1726 01b2 08       		.uleb128 0x8
 1727 01b3 3A       		.uleb128 0x3a
 1728 01b4 0B       		.uleb128 0xb
 1729 01b5 3B       		.uleb128 0x3b
 1730 01b6 0B       		.uleb128 0xb
 1731 01b7 49       		.uleb128 0x49
 1732 01b8 13       		.uleb128 0x13
 1733 01b9 02       		.uleb128 0x2
 1734 01ba 18       		.uleb128 0x18
 1735 01bb 00       		.byte	0
 1736 01bc 00       		.byte	0
 1737 01bd 20       		.uleb128 0x20
 1738 01be 2E       		.uleb128 0x2e
 1739 01bf 00       		.byte	0
 1740 01c0 47       		.uleb128 0x47
 1741 01c1 13       		.uleb128 0x13
 1742 01c2 3B       		.uleb128 0x3b
 1743 01c3 0B       		.uleb128 0xb
 1744 01c4 11       		.uleb128 0x11
 1745 01c5 01       		.uleb128 0x1
 1746 01c6 12       		.uleb128 0x12
 1747 01c7 06       		.uleb128 0x6
 1748 01c8 40       		.uleb128 0x40
 1749 01c9 18       		.uleb128 0x18
 1750 01ca 9642     		.uleb128 0x2116
 1751 01cc 19       		.uleb128 0x19
 1752 01cd 00       		.byte	0
 1753 01ce 00       		.byte	0
 1754 01cf 21       		.uleb128 0x21
 1755 01d0 2E       		.uleb128 0x2e
 1756 01d1 01       		.byte	0x1
 1757 01d2 47       		.uleb128 0x47
 1758 01d3 13       		.uleb128 0x13
 1759 01d4 3A       		.uleb128 0x3a
 1760 01d5 0B       		.uleb128 0xb
 1761 01d6 3B       		.uleb128 0x3b
 1762 01d7 0B       		.uleb128 0xb
 1763 01d8 11       		.uleb128 0x11
 1764 01d9 01       		.uleb128 0x1
ARM GAS  /tmp/ccrDjA4K.s 			page 32


 1765 01da 12       		.uleb128 0x12
 1766 01db 06       		.uleb128 0x6
 1767 01dc 40       		.uleb128 0x40
 1768 01dd 18       		.uleb128 0x18
 1769 01de 64       		.uleb128 0x64
 1770 01df 13       		.uleb128 0x13
 1771 01e0 9742     		.uleb128 0x2117
 1772 01e2 19       		.uleb128 0x19
 1773 01e3 01       		.uleb128 0x1
 1774 01e4 13       		.uleb128 0x13
 1775 01e5 00       		.byte	0
 1776 01e6 00       		.byte	0
 1777 01e7 22       		.uleb128 0x22
 1778 01e8 05       		.uleb128 0x5
 1779 01e9 00       		.byte	0
 1780 01ea 03       		.uleb128 0x3
 1781 01eb 0E       		.uleb128 0xe
 1782 01ec 49       		.uleb128 0x49
 1783 01ed 13       		.uleb128 0x13
 1784 01ee 34       		.uleb128 0x34
 1785 01ef 19       		.uleb128 0x19
 1786 01f0 02       		.uleb128 0x2
 1787 01f1 18       		.uleb128 0x18
 1788 01f2 00       		.byte	0
 1789 01f3 00       		.byte	0
 1790 01f4 23       		.uleb128 0x23
 1791 01f5 34       		.uleb128 0x34
 1792 01f6 00       		.byte	0
 1793 01f7 03       		.uleb128 0x3
 1794 01f8 0E       		.uleb128 0xe
 1795 01f9 3A       		.uleb128 0x3a
 1796 01fa 0B       		.uleb128 0xb
 1797 01fb 3B       		.uleb128 0x3b
 1798 01fc 0B       		.uleb128 0xb
 1799 01fd 49       		.uleb128 0x49
 1800 01fe 13       		.uleb128 0x13
 1801 01ff 02       		.uleb128 0x2
 1802 0200 18       		.uleb128 0x18
 1803 0201 00       		.byte	0
 1804 0202 00       		.byte	0
 1805 0203 24       		.uleb128 0x24
 1806 0204 05       		.uleb128 0x5
 1807 0205 00       		.byte	0
 1808 0206 03       		.uleb128 0x3
 1809 0207 0E       		.uleb128 0xe
 1810 0208 3A       		.uleb128 0x3a
 1811 0209 0B       		.uleb128 0xb
 1812 020a 3B       		.uleb128 0x3b
 1813 020b 0B       		.uleb128 0xb
 1814 020c 49       		.uleb128 0x49
 1815 020d 13       		.uleb128 0x13
 1816 020e 02       		.uleb128 0x2
 1817 020f 18       		.uleb128 0x18
 1818 0210 00       		.byte	0
 1819 0211 00       		.byte	0
 1820 0212 25       		.uleb128 0x25
 1821 0213 2E       		.uleb128 0x2e
ARM GAS  /tmp/ccrDjA4K.s 			page 33


 1822 0214 01       		.byte	0x1
 1823 0215 47       		.uleb128 0x47
 1824 0216 13       		.uleb128 0x13
 1825 0217 3A       		.uleb128 0x3a
 1826 0218 0B       		.uleb128 0xb
 1827 0219 3B       		.uleb128 0x3b
 1828 021a 0B       		.uleb128 0xb
 1829 021b 11       		.uleb128 0x11
 1830 021c 01       		.uleb128 0x1
 1831 021d 12       		.uleb128 0x12
 1832 021e 06       		.uleb128 0x6
 1833 021f 40       		.uleb128 0x40
 1834 0220 18       		.uleb128 0x18
 1835 0221 64       		.uleb128 0x64
 1836 0222 13       		.uleb128 0x13
 1837 0223 9642     		.uleb128 0x2116
 1838 0225 19       		.uleb128 0x19
 1839 0226 01       		.uleb128 0x1
 1840 0227 13       		.uleb128 0x13
 1841 0228 00       		.byte	0
 1842 0229 00       		.byte	0
 1843 022a 26       		.uleb128 0x26
 1844 022b 2E       		.uleb128 0x2e
 1845 022c 01       		.byte	0x1
 1846 022d 47       		.uleb128 0x47
 1847 022e 13       		.uleb128 0x13
 1848 022f 3A       		.uleb128 0x3a
 1849 0230 0B       		.uleb128 0xb
 1850 0231 3B       		.uleb128 0x3b
 1851 0232 0B       		.uleb128 0xb
 1852 0233 20       		.uleb128 0x20
 1853 0234 0B       		.uleb128 0xb
 1854 0235 64       		.uleb128 0x64
 1855 0236 13       		.uleb128 0x13
 1856 0237 01       		.uleb128 0x1
 1857 0238 13       		.uleb128 0x13
 1858 0239 00       		.byte	0
 1859 023a 00       		.byte	0
 1860 023b 27       		.uleb128 0x27
 1861 023c 2E       		.uleb128 0x2e
 1862 023d 01       		.byte	0x1
 1863 023e 31       		.uleb128 0x31
 1864 023f 13       		.uleb128 0x13
 1865 0240 6E       		.uleb128 0x6e
 1866 0241 0E       		.uleb128 0xe
 1867 0242 11       		.uleb128 0x11
 1868 0243 01       		.uleb128 0x1
 1869 0244 12       		.uleb128 0x12
 1870 0245 06       		.uleb128 0x6
 1871 0246 40       		.uleb128 0x40
 1872 0247 18       		.uleb128 0x18
 1873 0248 64       		.uleb128 0x64
 1874 0249 13       		.uleb128 0x13
 1875 024a 9642     		.uleb128 0x2116
 1876 024c 19       		.uleb128 0x19
 1877 024d 01       		.uleb128 0x1
 1878 024e 13       		.uleb128 0x13
ARM GAS  /tmp/ccrDjA4K.s 			page 34


 1879 024f 00       		.byte	0
 1880 0250 00       		.byte	0
 1881 0251 28       		.uleb128 0x28
 1882 0252 05       		.uleb128 0x5
 1883 0253 00       		.byte	0
 1884 0254 03       		.uleb128 0x3
 1885 0255 0E       		.uleb128 0xe
 1886 0256 3A       		.uleb128 0x3a
 1887 0257 0B       		.uleb128 0xb
 1888 0258 3B       		.uleb128 0x3b
 1889 0259 0B       		.uleb128 0xb
 1890 025a 49       		.uleb128 0x49
 1891 025b 13       		.uleb128 0x13
 1892 025c 00       		.byte	0
 1893 025d 00       		.byte	0
 1894 025e 29       		.uleb128 0x29
 1895 025f 2E       		.uleb128 0x2e
 1896 0260 01       		.byte	0x1
 1897 0261 31       		.uleb128 0x31
 1898 0262 13       		.uleb128 0x13
 1899 0263 6E       		.uleb128 0x6e
 1900 0264 0E       		.uleb128 0xe
 1901 0265 11       		.uleb128 0x11
 1902 0266 01       		.uleb128 0x1
 1903 0267 12       		.uleb128 0x12
 1904 0268 06       		.uleb128 0x6
 1905 0269 40       		.uleb128 0x40
 1906 026a 18       		.uleb128 0x18
 1907 026b 64       		.uleb128 0x64
 1908 026c 13       		.uleb128 0x13
 1909 026d 9642     		.uleb128 0x2116
 1910 026f 19       		.uleb128 0x19
 1911 0270 00       		.byte	0
 1912 0271 00       		.byte	0
 1913 0272 00       		.byte	0
 1914              		.section	.debug_aranges,"",%progbits
 1915 0000 44000000 		.4byte	0x44
 1916 0004 0200     		.2byte	0x2
 1917 0006 00000000 		.4byte	.Ldebug_info0
 1918 000a 04       		.byte	0x4
 1919 000b 00       		.byte	0
 1920 000c 0000     		.2byte	0
 1921 000e 0000     		.2byte	0
 1922 0010 00000000 		.4byte	.Ltext0
 1923 0014 5A010000 		.4byte	.Letext0-.Ltext0
 1924 0018 00000000 		.4byte	.LFB6
 1925 001c 0C000000 		.4byte	.LFE6-.LFB6
 1926 0020 00000000 		.4byte	.LFB18
 1927 0024 0E000000 		.4byte	.LFE18-.LFB18
 1928 0028 00000000 		.4byte	.LFB19
 1929 002c 0E000000 		.4byte	.LFE19-.LFB19
 1930 0030 00000000 		.4byte	.LFB26
 1931 0034 08000000 		.4byte	.LFE26-.LFB26
 1932 0038 00000000 		.4byte	.LFB27
 1933 003c 08000000 		.4byte	.LFE27-.LFB27
 1934 0040 00000000 		.4byte	0
 1935 0044 00000000 		.4byte	0
ARM GAS  /tmp/ccrDjA4K.s 			page 35


 1936              		.section	.debug_ranges,"",%progbits
 1937              	.Ldebug_ranges0:
 1938 0000 00000000 		.4byte	.Ltext0
 1939 0004 5A010000 		.4byte	.Letext0
 1940 0008 00000000 		.4byte	.LFB6
 1941 000c 0C000000 		.4byte	.LFE6
 1942 0010 00000000 		.4byte	.LFB18
 1943 0014 0E000000 		.4byte	.LFE18
 1944 0018 00000000 		.4byte	.LFB19
 1945 001c 0E000000 		.4byte	.LFE19
 1946 0020 00000000 		.4byte	.LFB26
 1947 0024 08000000 		.4byte	.LFE26
 1948 0028 00000000 		.4byte	.LFB27
 1949 002c 08000000 		.4byte	.LFE27
 1950 0030 00000000 		.4byte	0
 1951 0034 00000000 		.4byte	0
 1952              		.section	.debug_line,"",%progbits
 1953              	.Ldebug_line0:
 1954 0000 4E030000 		.section	.debug_str,"MS",%progbits,1
 1954      02008B02 
 1954      00000201 
 1954      FB0E0D00 
 1954      01010101 
 1955              	.LASF49:
 1956 0000 626C6F63 		.ascii	"blocklen\000"
 1956      6B6C656E 
 1956      00
 1957              	.LASF14:
 1958 0009 73747263 		.ascii	"strcoll\000"
 1958      6F6C6C00 
 1959              	.LASF3:
 1960 0011 5F5F7569 		.ascii	"__uint8_t\000"
 1960      6E74385F 
 1960      7400
 1961              	.LASF2:
 1962 001b 73697A65 		.ascii	"size_t\000"
 1962      5F7400
 1963              	.LASF30:
 1964 0022 66726565 		.ascii	"free_unsafe\000"
 1964      5F756E73 
 1964      61666500 
 1965              	.LASF50:
 1966 002e 63757270 		.ascii	"curp\000"
 1966      00
 1967              	.LASF27:
 1968 0033 5F5A4E33 		.ascii	"_ZN3r2p7SysLock7releaseEv\000"
 1968      72327037 
 1968      5379734C 
 1968      6F636B37 
 1968      72656C65 
 1969              	.LASF31:
 1970 004d 616C6C6F 		.ascii	"alloc_unsafe\000"
 1970      635F756E 
 1970      73616665 
 1970      00
 1971              	.LASF52:
 1972 005a 5F5A4E33 		.ascii	"_ZN3r2p11SimplePool_C2Ev\000"
ARM GAS  /tmp/ccrDjA4K.s 			page 36


 1972      72327031 
 1972      3153696D 
 1972      706C6550 
 1972      6F6F6C5F 
 1973              	.LASF19:
 1974 0073 7E556E63 		.ascii	"~Uncopyable\000"
 1974      6F707961 
 1974      626C6500 
 1975              	.LASF7:
 1976 007f 6C6F6E67 		.ascii	"long int\000"
 1976      20696E74 
 1976      00
 1977              	.LASF43:
 1978 0088 626F6F6C 		.ascii	"bool\000"
 1978      00
 1979              	.LASF41:
 1980 008d 75696E74 		.ascii	"uint8_t\000"
 1980      385F7400 
 1981              	.LASF47:
 1982 0095 61727261 		.ascii	"arrayp\000"
 1982      797000
 1983              	.LASF55:
 1984 009c 2F686F6D 		.ascii	"/home/tino/workspace/openrobots/Middleware_v2-new/\000"
 1984      652F7469 
 1984      6E6F2F77 
 1984      6F726B73 
 1984      70616365 
 1985              	.LASF32:
 1986 00cf 616C6C6F 		.ascii	"alloc\000"
 1986      6300
 1987              	.LASF39:
 1988 00d5 5F5A4E33 		.ascii	"_ZN3r2p11SimplePool_4growEPvjj\000"
 1988      72327031 
 1988      3153696D 
 1988      706C6550 
 1988      6F6F6C5F 
 1989              	.LASF1:
 1990 00f4 7369676E 		.ascii	"signed char\000"
 1990      65642063 
 1990      68617200 
 1991              	.LASF4:
 1992 0100 756E7369 		.ascii	"unsigned char\000"
 1992      676E6564 
 1992      20636861 
 1992      7200
 1993              	.LASF45:
 1994 010e 74686973 		.ascii	"this\000"
 1994      00
 1995              	.LASF53:
 1996 0113 474E5520 		.ascii	"GNU C++ 4.9.3 20141119 (release) [ARM/embedded-4_9-"
 1996      432B2B20 
 1996      342E392E 
 1996      33203230 
 1996      31343131 
 1997 0146 6272616E 		.ascii	"branch revision 218278] -mcpu=cortex-m4 -mno-thumb-"
 1997      63682072 
 1997      65766973 
ARM GAS  /tmp/ccrDjA4K.s 			page 37


 1997      696F6E20 
 1997      32313832 
 1998 0179 696E7465 		.ascii	"interwork -mthumb -ggdb -O0 -fomit-frame-pointer -f"
 1998      72776F72 
 1998      6B202D6D 
 1998      7468756D 
 1998      62202D67 
 1999 01ac 6E6F2D72 		.ascii	"no-rtti -fno-exceptions -fno-threadsafe-statics\000"
 1999      74746920 
 1999      2D666E6F 
 1999      2D657863 
 1999      65707469 
 2000              	.LASF38:
 2001 01dc 67726F77 		.ascii	"grow\000"
 2001      00
 2002              	.LASF9:
 2003 01e1 6C6F6E67 		.ascii	"long unsigned int\000"
 2003      20756E73 
 2003      69676E65 
 2003      6420696E 
 2003      7400
 2004              	.LASF6:
 2005 01f3 73686F72 		.ascii	"short unsigned int\000"
 2005      7420756E 
 2005      7369676E 
 2005      65642069 
 2005      6E7400
 2006              	.LASF8:
 2007 0206 5F5F7569 		.ascii	"__uint32_t\000"
 2007      6E743332 
 2007      5F7400
 2008              	.LASF20:
 2009 0211 5379734C 		.ascii	"SysLock_\000"
 2009      6F636B5F 
 2009      00
 2010              	.LASF54:
 2011 021a 2F6F7074 		.ascii	"/opt/R2P/core/Middleware/src/impl/SimplePool_.cpp\000"
 2011      2F523250 
 2011      2F636F72 
 2011      652F4D69 
 2011      64646C65 
 2012              	.LASF5:
 2013 024c 73686F72 		.ascii	"short int\000"
 2013      7420696E 
 2013      7400
 2014              	.LASF25:
 2015 0256 5379734C 		.ascii	"SysLock\000"
 2015      6F636B00 
 2016              	.LASF18:
 2017 025e 556E636F 		.ascii	"Uncopyable\000"
 2017      70796162 
 2017      6C6500
 2018              	.LASF17:
 2019 0269 73747278 		.ascii	"strxfrm\000"
 2019      66726D00 
 2020              	.LASF36:
 2021 0271 5F5A4E33 		.ascii	"_ZN3r2p11SimplePool_11free_unsafeEPv\000"
ARM GAS  /tmp/ccrDjA4K.s 			page 38


 2021      72327031 
 2021      3153696D 
 2021      706C6550 
 2021      6F6F6C5F 
 2022              	.LASF0:
 2023 0296 756E7369 		.ascii	"unsigned int\000"
 2023      676E6564 
 2023      20696E74 
 2023      00
 2024              	.LASF21:
 2025 02a3 61637175 		.ascii	"acquire\000"
 2025      69726500 
 2026              	.LASF11:
 2027 02ab 6C6F6E67 		.ascii	"long long unsigned int\000"
 2027      206C6F6E 
 2027      6720756E 
 2027      7369676E 
 2027      65642069 
 2028              	.LASF51:
 2029 02c2 5F5A4E33 		.ascii	"_ZN3r2p10UncopyableC2Ev\000"
 2029      72327031 
 2029      30556E63 
 2029      6F707961 
 2029      626C6543 
 2030              	.LASF34:
 2031 02da 5F5A4E33 		.ascii	"_ZN3r2p11SimplePool_5allocEv\000"
 2031      72327031 
 2031      3153696D 
 2031      706C6550 
 2031      6F6F6C5F 
 2032              	.LASF44:
 2033 02f7 626C6F63 		.ascii	"blockp\000"
 2033      6B7000
 2034              	.LASF12:
 2035 02fe 73697A65 		.ascii	"sizetype\000"
 2035      74797065 
 2035      00
 2036              	.LASF35:
 2037 0307 66726565 		.ascii	"free\000"
 2037      00
 2038              	.LASF10:
 2039 030c 6C6F6E67 		.ascii	"long long int\000"
 2039      206C6F6E 
 2039      6720696E 
 2039      7400
 2040              	.LASF24:
 2041 031a 5F5A4E33 		.ascii	"_ZN3r2p8SysLock_7releaseEv\000"
 2041      72327038 
 2041      5379734C 
 2041      6F636B5F 
 2041      3772656C 
 2042              	.LASF13:
 2043 0335 63686172 		.ascii	"char\000"
 2043      00
 2044              	.LASF40:
 2045 033a 53696D70 		.ascii	"SimplePool_\000"
 2045      6C65506F 
ARM GAS  /tmp/ccrDjA4K.s 			page 39


 2045      6F6C5F00 
 2046              	.LASF23:
 2047 0346 5F5A4E33 		.ascii	"_ZN3r2p8SysLock_7acquireEv\000"
 2047      72327038 
 2047      5379734C 
 2047      6F636B5F 
 2047      37616371 
 2048              	.LASF46:
 2049 0361 6F626A70 		.ascii	"objp\000"
 2049      00
 2050              	.LASF37:
 2051 0366 5F5A4E33 		.ascii	"_ZN3r2p11SimplePool_4freeEPv\000"
 2051      72327031 
 2051      3153696D 
 2051      706C6550 
 2051      6F6F6C5F 
 2052              	.LASF28:
 2053 0383 6E657874 		.ascii	"nextp\000"
 2053      7000
 2054              	.LASF42:
 2055 0389 75696E74 		.ascii	"uint32_t\000"
 2055      33325F74 
 2055      00
 2056              	.LASF15:
 2057 0392 73747265 		.ascii	"strerror\000"
 2057      72726F72 
 2057      00
 2058              	.LASF26:
 2059 039b 5F5A4E33 		.ascii	"_ZN3r2p7SysLock7acquireEv\000"
 2059      72327037 
 2059      5379734C 
 2059      6F636B37 
 2059      61637175 
 2060              	.LASF57:
 2061 03b5 5F5A4E33 		.ascii	"_ZN3r2p11SimplePool_C2EPvjj\000"
 2061      72327031 
 2061      3153696D 
 2061      706C6550 
 2061      6F6F6C5F 
 2062              	.LASF16:
 2063 03d1 73747274 		.ascii	"strtok\000"
 2063      6F6B00
 2064              	.LASF33:
 2065 03d8 5F5A4E33 		.ascii	"_ZN3r2p11SimplePool_12alloc_unsafeEv\000"
 2065      72327031 
 2065      3153696D 
 2065      706C6550 
 2065      6F6F6C5F 
 2066              	.LASF56:
 2067 03fd 48656164 		.ascii	"Header\000"
 2067      657200
 2068              	.LASF48:
 2069 0404 6C656E67 		.ascii	"length\000"
 2069      746800
 2070              	.LASF29:
 2071 040b 68656164 		.ascii	"headp\000"
 2071      7000
ARM GAS  /tmp/ccrDjA4K.s 			page 40


 2072              	.LASF22:
 2073 0411 72656C65 		.ascii	"release\000"
 2073      61736500 
 2074              		.ident	"GCC: (GNU Tools for ARM Embedded Processors) 4.9.3 20141119 (release) [ARM/embedded-4_9-br
ARM GAS  /tmp/ccrDjA4K.s 			page 41


DEFINED SYMBOLS
                            *ABS*:00000000 SimplePool_.cpp
     /tmp/ccrDjA4K.s:19     .text._ZN3r2p10UncopyableC2Ev:00000000 $t
     /tmp/ccrDjA4K.s:24     .text._ZN3r2p10UncopyableC2Ev:00000000 _ZN3r2p10UncopyableC2Ev
     /tmp/ccrDjA4K.s:24     .text._ZN3r2p10UncopyableC2Ev:00000000 _ZN3r2p10UncopyableC1Ev
     /tmp/ccrDjA4K.s:48     .text._ZN3r2p8SysLock_7acquireEv:00000000 $t
     /tmp/ccrDjA4K.s:53     .text._ZN3r2p8SysLock_7acquireEv:00000000 _ZN3r2p8SysLock_7acquireEv
     /tmp/ccrDjA4K.s:83     .text._ZN3r2p8SysLock_7releaseEv:00000000 $t
     /tmp/ccrDjA4K.s:88     .text._ZN3r2p8SysLock_7releaseEv:00000000 _ZN3r2p8SysLock_7releaseEv
     /tmp/ccrDjA4K.s:117    .text._ZN3r2p7SysLock7acquireEv:00000000 $t
     /tmp/ccrDjA4K.s:122    .text._ZN3r2p7SysLock7acquireEv:00000000 _ZN3r2p7SysLock7acquireEv
     /tmp/ccrDjA4K.s:141    .text._ZN3r2p7SysLock7releaseEv:00000000 $t
     /tmp/ccrDjA4K.s:146    .text._ZN3r2p7SysLock7releaseEv:00000000 _ZN3r2p7SysLock7releaseEv
     /tmp/ccrDjA4K.s:164    .text:00000000 $t
     /tmp/ccrDjA4K.s:169    .text:00000000 _ZN3r2p11SimplePool_12alloc_unsafeEv
     /tmp/ccrDjA4K.s:222    .text:00000028 _ZN3r2p11SimplePool_11free_unsafeEPv
     /tmp/ccrDjA4K.s:260    .text:00000048 _ZN3r2p11SimplePool_5allocEv
     /tmp/ccrDjA4K.s:320    .text:00000080 _ZN3r2p11SimplePool_4freeEPv
     /tmp/ccrDjA4K.s:360    .rodata:00000000 $d
     /tmp/ccrDjA4K.s:369    .text:000000ac _ZN3r2p11SimplePool_4growEPvjj
     /tmp/ccrDjA4K.s:447    .text:0000010c $d
     /tmp/ccrDjA4K.s:451    .text:00000110 $t
     /tmp/ccrDjA4K.s:456    .text:00000110 _ZN3r2p11SimplePool_C2Ev
     /tmp/ccrDjA4K.s:456    .text:00000110 _ZN3r2p11SimplePool_C1Ev
     /tmp/ccrDjA4K.s:493    .text:0000012c _ZN3r2p11SimplePool_C2EPvjj
     /tmp/ccrDjA4K.s:493    .text:0000012c _ZN3r2p11SimplePool_C1EPvjj
                     .debug_frame:00000010 $d
                           .group:00000000 _ZN3r2p10UncopyableC5Ev

UNDEFINED SYMBOLS
dbg_check_lock
dbg_check_unlock
chDbgPanic
