ARM GAS  /tmp/ccWd5K7d.s 			page 1


   1              		.syntax unified
   2              		.cpu cortex-m4
   3              		.fpu softvfp
   4              		.eabi_attribute 20, 1
   5              		.eabi_attribute 21, 1
   6              		.eabi_attribute 23, 3
   7              		.eabi_attribute 24, 1
   8              		.eabi_attribute 25, 1
   9              		.eabi_attribute 26, 1
  10              		.eabi_attribute 30, 6
  11              		.eabi_attribute 34, 1
  12              		.eabi_attribute 18, 4
  13              		.thumb
  14              		.file	"spi.c"
  15              		.text
  16              	.Ltext0:
  17              		.cfi_sections	.debug_frame
  18              		.align	2
  19              		.global	spiInit
  20              		.thumb
  21              		.thumb_func
  22              		.type	spiInit, %function
  23              	spiInit:
  24              	.LFB118:
  25              		.file 1 "/opt/R2P/core/ChibiOS_2.6.5/os/hal/src/spi.c"
  26              		.loc 1 68 0
  27              		.cfi_startproc
  28              		@ args = 0, pretend = 0, frame = 0
  29              		@ frame_needed = 0, uses_anonymous_args = 0
  30 0000 08B5     		push	{r3, lr}
  31              		.cfi_def_cfa_offset 8
  32              		.cfi_offset 3, -8
  33              		.cfi_offset 14, -4
  34              		.loc 1 70 0
  35 0002 FFF7FEFF 		bl	spi_lld_init
  36              		.loc 1 71 0
  37 0006 08BD     		pop	{r3, pc}
  38              		.cfi_endproc
  39              	.LFE118:
  40              		.size	spiInit, .-spiInit
  41              		.align	2
  42              		.global	spiObjectInit
  43              		.thumb
  44              		.thumb_func
  45              		.type	spiObjectInit, %function
  46              	spiObjectInit:
  47              	.LFB119:
  48              		.loc 1 80 0
  49              		.cfi_startproc
  50              		@ args = 0, pretend = 0, frame = 8
  51              		@ frame_needed = 0, uses_anonymous_args = 0
  52 0008 00B5     		push	{lr}
  53              		.cfi_def_cfa_offset 4
  54              		.cfi_offset 14, -4
  55 000a 83B0     		sub	sp, sp, #12
  56              		.cfi_def_cfa_offset 16
  57 000c 0190     		str	r0, [sp, #4]
ARM GAS  /tmp/ccWd5K7d.s 			page 2


  58              		.loc 1 82 0
  59 000e 019B     		ldr	r3, [sp, #4]
  60 0010 0122     		movs	r2, #1
  61 0012 1A70     		strb	r2, [r3]
  62              		.loc 1 83 0
  63 0014 019B     		ldr	r3, [sp, #4]
  64 0016 0022     		movs	r2, #0
  65 0018 5A60     		str	r2, [r3, #4]
  66              		.loc 1 85 0
  67 001a 019B     		ldr	r3, [sp, #4]
  68 001c 0022     		movs	r2, #0
  69 001e 9A60     		str	r2, [r3, #8]
  70              		.loc 1 89 0
  71 0020 019B     		ldr	r3, [sp, #4]
  72 0022 0C33     		adds	r3, r3, #12
  73 0024 1846     		mov	r0, r3
  74 0026 FFF7FEFF 		bl	chMtxInit
  75              		.loc 1 97 0
  76 002a 03B0     		add	sp, sp, #12
  77              		.cfi_def_cfa_offset 4
  78              		@ sp needed
  79 002c 5DF804FB 		ldr	pc, [sp], #4
  80              		.cfi_endproc
  81              	.LFE119:
  82              		.size	spiObjectInit, .-spiObjectInit
  83              		.section	.rodata
  84              		.align	2
  85              	.LC0:
  86 0000 22737069 		.ascii	"\"spiStart\"()\000"
  86      53746172 
  86      74222829 
  86      00
  87 000d 000000   		.align	2
  88              	.LC1:
  89 0010 73706953 		.ascii	"spiStart(), #1\000"
  89      74617274 
  89      28292C20 
  89      233100
  90              		.text
  91              		.align	2
  92              		.global	spiStart
  93              		.thumb
  94              		.thumb_func
  95              		.type	spiStart, %function
  96              	spiStart:
  97              	.LFB120:
  98              		.loc 1 107 0
  99              		.cfi_startproc
 100              		@ args = 0, pretend = 0, frame = 8
 101              		@ frame_needed = 0, uses_anonymous_args = 0
 102 0030 00B5     		push	{lr}
 103              		.cfi_def_cfa_offset 4
 104              		.cfi_offset 14, -4
 105 0032 83B0     		sub	sp, sp, #12
 106              		.cfi_def_cfa_offset 16
 107 0034 0190     		str	r0, [sp, #4]
 108 0036 0091     		str	r1, [sp]
ARM GAS  /tmp/ccWd5K7d.s 			page 3


 109              		.loc 1 109 0
 110 0038 019B     		ldr	r3, [sp, #4]
 111 003a 002B     		cmp	r3, #0
 112 003c 02D0     		beq	.L4
 113              		.loc 1 109 0 is_stmt 0 discriminator 2
 114 003e 009B     		ldr	r3, [sp]
 115 0040 002B     		cmp	r3, #0
 116 0042 02D1     		bne	.L5
 117              	.L4:
 118              		.loc 1 109 0 discriminator 3
 119 0044 1148     		ldr	r0, .L7
 120 0046 FFF7FEFF 		bl	chDbgPanic
 121              	.L5:
 122              	.LBB2:
 123              		.loc 1 111 0 is_stmt 1
 124 004a 2023     		movs	r3, #32
 125              	@ 111 "/opt/R2P/core/ChibiOS_2.6.5/os/hal/src/spi.c" 1
 126 004c 83F31188 		msr     BASEPRI, r3
 127              	@ 0 "" 2
 128              		.thumb
 129              	.LBE2:
 130 0050 FFF7FEFF 		bl	dbg_check_lock
 131              		.loc 1 112 0
 132 0054 019B     		ldr	r3, [sp, #4]
 133 0056 1B78     		ldrb	r3, [r3]	@ zero_extendqisi2
 134 0058 012B     		cmp	r3, #1
 135 005a 06D0     		beq	.L6
 136              		.loc 1 112 0 is_stmt 0 discriminator 1
 137 005c 019B     		ldr	r3, [sp, #4]
 138 005e 1B78     		ldrb	r3, [r3]	@ zero_extendqisi2
 139 0060 022B     		cmp	r3, #2
 140 0062 02D0     		beq	.L6
 141              		.loc 1 112 0 discriminator 2
 142 0064 0A48     		ldr	r0, .L7+4
 143 0066 FFF7FEFF 		bl	chDbgPanic
 144              	.L6:
 145              		.loc 1 114 0 is_stmt 1
 146 006a 019B     		ldr	r3, [sp, #4]
 147 006c 009A     		ldr	r2, [sp]
 148 006e 5A60     		str	r2, [r3, #4]
 149              		.loc 1 115 0
 150 0070 0198     		ldr	r0, [sp, #4]
 151 0072 FFF7FEFF 		bl	spi_lld_start
 152              		.loc 1 116 0
 153 0076 019B     		ldr	r3, [sp, #4]
 154 0078 0222     		movs	r2, #2
 155 007a 1A70     		strb	r2, [r3]
 156              		.loc 1 117 0
 157 007c FFF7FEFF 		bl	dbg_check_unlock
 158              	.LBB3:
 159 0080 0023     		movs	r3, #0
 160              	@ 117 "/opt/R2P/core/ChibiOS_2.6.5/os/hal/src/spi.c" 1
 161 0082 83F31188 		msr     BASEPRI, r3
 162              	@ 0 "" 2
 163              		.thumb
 164              	.LBE3:
 165              		.loc 1 118 0
ARM GAS  /tmp/ccWd5K7d.s 			page 4


 166 0086 03B0     		add	sp, sp, #12
 167              		.cfi_def_cfa_offset 4
 168              		@ sp needed
 169 0088 5DF804FB 		ldr	pc, [sp], #4
 170              	.L8:
 171              		.align	2
 172              	.L7:
 173 008c 00000000 		.word	.LC0
 174 0090 10000000 		.word	.LC1
 175              		.cfi_endproc
 176              	.LFE120:
 177              		.size	spiStart, .-spiStart
 178              		.section	.rodata
 179 001f 00       		.align	2
 180              	.LC2:
 181 0020 22737069 		.ascii	"\"spiStop\"()\000"
 181      53746F70 
 181      22282900 
 182              		.align	2
 183              	.LC3:
 184 002c 73706953 		.ascii	"spiStop(), #1\000"
 184      746F7028 
 184      292C2023 
 184      3100
 185              		.text
 186              		.align	2
 187              		.global	spiStop
 188              		.thumb
 189              		.thumb_func
 190              		.type	spiStop, %function
 191              	spiStop:
 192              	.LFB121:
 193              		.loc 1 129 0
 194              		.cfi_startproc
 195              		@ args = 0, pretend = 0, frame = 8
 196              		@ frame_needed = 0, uses_anonymous_args = 0
 197 0094 00B5     		push	{lr}
 198              		.cfi_def_cfa_offset 4
 199              		.cfi_offset 14, -4
 200 0096 83B0     		sub	sp, sp, #12
 201              		.cfi_def_cfa_offset 16
 202 0098 0190     		str	r0, [sp, #4]
 203              		.loc 1 131 0
 204 009a 019B     		ldr	r3, [sp, #4]
 205 009c 002B     		cmp	r3, #0
 206 009e 02D1     		bne	.L10
 207              		.loc 1 131 0 is_stmt 0 discriminator 1
 208 00a0 1148     		ldr	r0, .L12
 209 00a2 FFF7FEFF 		bl	chDbgPanic
 210              	.L10:
 211              	.LBB4:
 212              		.loc 1 133 0 is_stmt 1
 213 00a6 2023     		movs	r3, #32
 214              	@ 133 "/opt/R2P/core/ChibiOS_2.6.5/os/hal/src/spi.c" 1
 215 00a8 83F31188 		msr     BASEPRI, r3
 216              	@ 0 "" 2
 217              		.thumb
ARM GAS  /tmp/ccWd5K7d.s 			page 5


 218              	.LBE4:
 219 00ac FFF7FEFF 		bl	dbg_check_lock
 220              		.loc 1 134 0
 221 00b0 019B     		ldr	r3, [sp, #4]
 222 00b2 1B78     		ldrb	r3, [r3]	@ zero_extendqisi2
 223 00b4 012B     		cmp	r3, #1
 224 00b6 06D0     		beq	.L11
 225              		.loc 1 134 0 is_stmt 0 discriminator 1
 226 00b8 019B     		ldr	r3, [sp, #4]
 227 00ba 1B78     		ldrb	r3, [r3]	@ zero_extendqisi2
 228 00bc 022B     		cmp	r3, #2
 229 00be 02D0     		beq	.L11
 230              		.loc 1 134 0 discriminator 2
 231 00c0 0A48     		ldr	r0, .L12+4
 232 00c2 FFF7FEFF 		bl	chDbgPanic
 233              	.L11:
 234              		.loc 1 136 0 is_stmt 1
 235 00c6 0198     		ldr	r0, [sp, #4]
 236 00c8 FFF7FEFF 		bl	spi_lld_unselect
 237              		.loc 1 137 0
 238 00cc 0198     		ldr	r0, [sp, #4]
 239 00ce FFF7FEFF 		bl	spi_lld_stop
 240              		.loc 1 138 0
 241 00d2 019B     		ldr	r3, [sp, #4]
 242 00d4 0122     		movs	r2, #1
 243 00d6 1A70     		strb	r2, [r3]
 244              		.loc 1 139 0
 245 00d8 FFF7FEFF 		bl	dbg_check_unlock
 246              	.LBB5:
 247 00dc 0023     		movs	r3, #0
 248              	@ 139 "/opt/R2P/core/ChibiOS_2.6.5/os/hal/src/spi.c" 1
 249 00de 83F31188 		msr     BASEPRI, r3
 250              	@ 0 "" 2
 251              		.thumb
 252              	.LBE5:
 253              		.loc 1 140 0
 254 00e2 03B0     		add	sp, sp, #12
 255              		.cfi_def_cfa_offset 4
 256              		@ sp needed
 257 00e4 5DF804FB 		ldr	pc, [sp], #4
 258              	.L13:
 259              		.align	2
 260              	.L12:
 261 00e8 20000000 		.word	.LC2
 262 00ec 2C000000 		.word	.LC3
 263              		.cfi_endproc
 264              	.LFE121:
 265              		.size	spiStop, .-spiStop
 266              		.section	.rodata
 267 003a 0000     		.align	2
 268              	.LC4:
 269 003c 22737069 		.ascii	"\"spiSelect\"()\000"
 269      53656C65 
 269      63742228 
 269      2900
 270 004a 0000     		.align	2
 271              	.LC5:
ARM GAS  /tmp/ccWd5K7d.s 			page 6


 272 004c 73706953 		.ascii	"spiSelect(), #1\000"
 272      656C6563 
 272      7428292C 
 272      20233100 
 273              		.text
 274              		.align	2
 275              		.global	spiSelect
 276              		.thumb
 277              		.thumb_func
 278              		.type	spiSelect, %function
 279              	spiSelect:
 280              	.LFB122:
 281              		.loc 1 149 0
 282              		.cfi_startproc
 283              		@ args = 0, pretend = 0, frame = 8
 284              		@ frame_needed = 0, uses_anonymous_args = 0
 285 00f0 00B5     		push	{lr}
 286              		.cfi_def_cfa_offset 4
 287              		.cfi_offset 14, -4
 288 00f2 83B0     		sub	sp, sp, #12
 289              		.cfi_def_cfa_offset 16
 290 00f4 0190     		str	r0, [sp, #4]
 291              		.loc 1 151 0
 292 00f6 019B     		ldr	r3, [sp, #4]
 293 00f8 002B     		cmp	r3, #0
 294 00fa 02D1     		bne	.L15
 295              		.loc 1 151 0 is_stmt 0 discriminator 1
 296 00fc 0C48     		ldr	r0, .L17
 297 00fe FFF7FEFF 		bl	chDbgPanic
 298              	.L15:
 299              	.LBB6:
 300              		.loc 1 153 0 is_stmt 1
 301 0102 2023     		movs	r3, #32
 302              	@ 153 "/opt/R2P/core/ChibiOS_2.6.5/os/hal/src/spi.c" 1
 303 0104 83F31188 		msr     BASEPRI, r3
 304              	@ 0 "" 2
 305              		.thumb
 306              	.LBE6:
 307 0108 FFF7FEFF 		bl	dbg_check_lock
 308              		.loc 1 154 0
 309 010c 019B     		ldr	r3, [sp, #4]
 310 010e 1B78     		ldrb	r3, [r3]	@ zero_extendqisi2
 311 0110 022B     		cmp	r3, #2
 312 0112 02D0     		beq	.L16
 313              		.loc 1 154 0 is_stmt 0 discriminator 1
 314 0114 0748     		ldr	r0, .L17+4
 315 0116 FFF7FEFF 		bl	chDbgPanic
 316              	.L16:
 317              		.loc 1 155 0 is_stmt 1
 318 011a 0198     		ldr	r0, [sp, #4]
 319 011c FFF7FEFF 		bl	spi_lld_select
 320              		.loc 1 156 0
 321 0120 FFF7FEFF 		bl	dbg_check_unlock
 322              	.LBB7:
 323 0124 0023     		movs	r3, #0
 324              	@ 156 "/opt/R2P/core/ChibiOS_2.6.5/os/hal/src/spi.c" 1
 325 0126 83F31188 		msr     BASEPRI, r3
ARM GAS  /tmp/ccWd5K7d.s 			page 7


 326              	@ 0 "" 2
 327              		.thumb
 328              	.LBE7:
 329              		.loc 1 157 0
 330 012a 03B0     		add	sp, sp, #12
 331              		.cfi_def_cfa_offset 4
 332              		@ sp needed
 333 012c 5DF804FB 		ldr	pc, [sp], #4
 334              	.L18:
 335              		.align	2
 336              	.L17:
 337 0130 3C000000 		.word	.LC4
 338 0134 4C000000 		.word	.LC5
 339              		.cfi_endproc
 340              	.LFE122:
 341              		.size	spiSelect, .-spiSelect
 342              		.section	.rodata
 343              		.align	2
 344              	.LC6:
 345 005c 22737069 		.ascii	"\"spiUnselect\"()\000"
 345      556E7365 
 345      6C656374 
 345      22282900 
 346              		.align	2
 347              	.LC7:
 348 006c 73706955 		.ascii	"spiUnselect(), #1\000"
 348      6E73656C 
 348      65637428 
 348      292C2023 
 348      3100
 349              		.text
 350              		.align	2
 351              		.global	spiUnselect
 352              		.thumb
 353              		.thumb_func
 354              		.type	spiUnselect, %function
 355              	spiUnselect:
 356              	.LFB123:
 357              		.loc 1 167 0
 358              		.cfi_startproc
 359              		@ args = 0, pretend = 0, frame = 8
 360              		@ frame_needed = 0, uses_anonymous_args = 0
 361 0138 00B5     		push	{lr}
 362              		.cfi_def_cfa_offset 4
 363              		.cfi_offset 14, -4
 364 013a 83B0     		sub	sp, sp, #12
 365              		.cfi_def_cfa_offset 16
 366 013c 0190     		str	r0, [sp, #4]
 367              		.loc 1 169 0
 368 013e 019B     		ldr	r3, [sp, #4]
 369 0140 002B     		cmp	r3, #0
 370 0142 02D1     		bne	.L20
 371              		.loc 1 169 0 is_stmt 0 discriminator 1
 372 0144 0C48     		ldr	r0, .L22
 373 0146 FFF7FEFF 		bl	chDbgPanic
 374              	.L20:
 375              	.LBB8:
ARM GAS  /tmp/ccWd5K7d.s 			page 8


 376              		.loc 1 171 0 is_stmt 1
 377 014a 2023     		movs	r3, #32
 378              	@ 171 "/opt/R2P/core/ChibiOS_2.6.5/os/hal/src/spi.c" 1
 379 014c 83F31188 		msr     BASEPRI, r3
 380              	@ 0 "" 2
 381              		.thumb
 382              	.LBE8:
 383 0150 FFF7FEFF 		bl	dbg_check_lock
 384              		.loc 1 172 0
 385 0154 019B     		ldr	r3, [sp, #4]
 386 0156 1B78     		ldrb	r3, [r3]	@ zero_extendqisi2
 387 0158 022B     		cmp	r3, #2
 388 015a 02D0     		beq	.L21
 389              		.loc 1 172 0 is_stmt 0 discriminator 1
 390 015c 0748     		ldr	r0, .L22+4
 391 015e FFF7FEFF 		bl	chDbgPanic
 392              	.L21:
 393              		.loc 1 173 0 is_stmt 1
 394 0162 0198     		ldr	r0, [sp, #4]
 395 0164 FFF7FEFF 		bl	spi_lld_unselect
 396              		.loc 1 174 0
 397 0168 FFF7FEFF 		bl	dbg_check_unlock
 398              	.LBB9:
 399 016c 0023     		movs	r3, #0
 400              	@ 174 "/opt/R2P/core/ChibiOS_2.6.5/os/hal/src/spi.c" 1
 401 016e 83F31188 		msr     BASEPRI, r3
 402              	@ 0 "" 2
 403              		.thumb
 404              	.LBE9:
 405              		.loc 1 175 0
 406 0172 03B0     		add	sp, sp, #12
 407              		.cfi_def_cfa_offset 4
 408              		@ sp needed
 409 0174 5DF804FB 		ldr	pc, [sp], #4
 410              	.L23:
 411              		.align	2
 412              	.L22:
 413 0178 5C000000 		.word	.LC6
 414 017c 6C000000 		.word	.LC7
 415              		.cfi_endproc
 416              	.LFE123:
 417              		.size	spiUnselect, .-spiUnselect
 418              		.section	.rodata
 419 007e 0000     		.align	2
 420              	.LC8:
 421 0080 22737069 		.ascii	"\"spiStartIgnore\"()\000"
 421      53746172 
 421      7449676E 
 421      6F726522 
 421      282900
 422 0093 00       		.align	2
 423              	.LC9:
 424 0094 73706953 		.ascii	"spiStartIgnore(), #1\000"
 424      74617274 
 424      49676E6F 
 424      72652829 
 424      2C202331 
ARM GAS  /tmp/ccWd5K7d.s 			page 9


 425              		.text
 426              		.align	2
 427              		.global	spiStartIgnore
 428              		.thumb
 429              		.thumb_func
 430              		.type	spiStartIgnore, %function
 431              	spiStartIgnore:
 432              	.LFB124:
 433              		.loc 1 190 0
 434              		.cfi_startproc
 435              		@ args = 0, pretend = 0, frame = 8
 436              		@ frame_needed = 0, uses_anonymous_args = 0
 437 0180 00B5     		push	{lr}
 438              		.cfi_def_cfa_offset 4
 439              		.cfi_offset 14, -4
 440 0182 83B0     		sub	sp, sp, #12
 441              		.cfi_def_cfa_offset 16
 442 0184 0190     		str	r0, [sp, #4]
 443 0186 0091     		str	r1, [sp]
 444              		.loc 1 192 0
 445 0188 019B     		ldr	r3, [sp, #4]
 446 018a 002B     		cmp	r3, #0
 447 018c 02D0     		beq	.L25
 448              		.loc 1 192 0 is_stmt 0 discriminator 2
 449 018e 009B     		ldr	r3, [sp]
 450 0190 002B     		cmp	r3, #0
 451 0192 02D1     		bne	.L26
 452              	.L25:
 453              		.loc 1 192 0 discriminator 3
 454 0194 0E48     		ldr	r0, .L28
 455 0196 FFF7FEFF 		bl	chDbgPanic
 456              	.L26:
 457              	.LBB10:
 458              		.loc 1 194 0 is_stmt 1
 459 019a 2023     		movs	r3, #32
 460              	@ 194 "/opt/R2P/core/ChibiOS_2.6.5/os/hal/src/spi.c" 1
 461 019c 83F31188 		msr     BASEPRI, r3
 462              	@ 0 "" 2
 463              		.thumb
 464              	.LBE10:
 465 01a0 FFF7FEFF 		bl	dbg_check_lock
 466              		.loc 1 195 0
 467 01a4 019B     		ldr	r3, [sp, #4]
 468 01a6 1B78     		ldrb	r3, [r3]	@ zero_extendqisi2
 469 01a8 022B     		cmp	r3, #2
 470 01aa 02D0     		beq	.L27
 471              		.loc 1 195 0 is_stmt 0 discriminator 1
 472 01ac 0948     		ldr	r0, .L28+4
 473 01ae FFF7FEFF 		bl	chDbgPanic
 474              	.L27:
 475              		.loc 1 196 0 is_stmt 1
 476 01b2 019B     		ldr	r3, [sp, #4]
 477 01b4 0322     		movs	r2, #3
 478 01b6 1A70     		strb	r2, [r3]
 479 01b8 0198     		ldr	r0, [sp, #4]
 480 01ba 0099     		ldr	r1, [sp]
 481 01bc FFF7FEFF 		bl	spi_lld_ignore
ARM GAS  /tmp/ccWd5K7d.s 			page 10


 482              		.loc 1 197 0
 483 01c0 FFF7FEFF 		bl	dbg_check_unlock
 484              	.LBB11:
 485 01c4 0023     		movs	r3, #0
 486              	@ 197 "/opt/R2P/core/ChibiOS_2.6.5/os/hal/src/spi.c" 1
 487 01c6 83F31188 		msr     BASEPRI, r3
 488              	@ 0 "" 2
 489              		.thumb
 490              	.LBE11:
 491              		.loc 1 198 0
 492 01ca 03B0     		add	sp, sp, #12
 493              		.cfi_def_cfa_offset 4
 494              		@ sp needed
 495 01cc 5DF804FB 		ldr	pc, [sp], #4
 496              	.L29:
 497              		.align	2
 498              	.L28:
 499 01d0 80000000 		.word	.LC8
 500 01d4 94000000 		.word	.LC9
 501              		.cfi_endproc
 502              	.LFE124:
 503              		.size	spiStartIgnore, .-spiStartIgnore
 504              		.section	.rodata
 505 00a9 000000   		.align	2
 506              	.LC10:
 507 00ac 22737069 		.ascii	"\"spiStartExchange\"()\000"
 507      53746172 
 507      74457863 
 507      68616E67 
 507      65222829 
 508 00c1 000000   		.align	2
 509              	.LC11:
 510 00c4 73706953 		.ascii	"spiStartExchange(), #1\000"
 510      74617274 
 510      45786368 
 510      616E6765 
 510      28292C20 
 511              		.text
 512              		.align	2
 513              		.global	spiStartExchange
 514              		.thumb
 515              		.thumb_func
 516              		.type	spiStartExchange, %function
 517              	spiStartExchange:
 518              	.LFB125:
 519              		.loc 1 218 0
 520              		.cfi_startproc
 521              		@ args = 0, pretend = 0, frame = 16
 522              		@ frame_needed = 0, uses_anonymous_args = 0
 523 01d8 00B5     		push	{lr}
 524              		.cfi_def_cfa_offset 4
 525              		.cfi_offset 14, -4
 526 01da 85B0     		sub	sp, sp, #20
 527              		.cfi_def_cfa_offset 24
 528 01dc 0390     		str	r0, [sp, #12]
 529 01de 0291     		str	r1, [sp, #8]
 530 01e0 0192     		str	r2, [sp, #4]
ARM GAS  /tmp/ccWd5K7d.s 			page 11


 531 01e2 0093     		str	r3, [sp]
 532              		.loc 1 220 0
 533 01e4 039B     		ldr	r3, [sp, #12]
 534 01e6 002B     		cmp	r3, #0
 535 01e8 08D0     		beq	.L31
 536              		.loc 1 220 0 is_stmt 0 discriminator 2
 537 01ea 029B     		ldr	r3, [sp, #8]
 538 01ec 002B     		cmp	r3, #0
 539 01ee 05D0     		beq	.L31
 540              		.loc 1 220 0 discriminator 4
 541 01f0 009B     		ldr	r3, [sp]
 542 01f2 002B     		cmp	r3, #0
 543 01f4 02D0     		beq	.L31
 544              		.loc 1 220 0 discriminator 6
 545 01f6 019B     		ldr	r3, [sp, #4]
 546 01f8 002B     		cmp	r3, #0
 547 01fa 02D1     		bne	.L32
 548              	.L31:
 549              		.loc 1 220 0 discriminator 7
 550 01fc 0F48     		ldr	r0, .L34
 551 01fe FFF7FEFF 		bl	chDbgPanic
 552              	.L32:
 553              	.LBB12:
 554              		.loc 1 223 0 is_stmt 1
 555 0202 2023     		movs	r3, #32
 556              	@ 223 "/opt/R2P/core/ChibiOS_2.6.5/os/hal/src/spi.c" 1
 557 0204 83F31188 		msr     BASEPRI, r3
 558              	@ 0 "" 2
 559              		.thumb
 560              	.LBE12:
 561 0208 FFF7FEFF 		bl	dbg_check_lock
 562              		.loc 1 224 0
 563 020c 039B     		ldr	r3, [sp, #12]
 564 020e 1B78     		ldrb	r3, [r3]	@ zero_extendqisi2
 565 0210 022B     		cmp	r3, #2
 566 0212 02D0     		beq	.L33
 567              		.loc 1 224 0 is_stmt 0 discriminator 1
 568 0214 0A48     		ldr	r0, .L34+4
 569 0216 FFF7FEFF 		bl	chDbgPanic
 570              	.L33:
 571              		.loc 1 225 0 is_stmt 1
 572 021a 039B     		ldr	r3, [sp, #12]
 573 021c 0322     		movs	r2, #3
 574 021e 1A70     		strb	r2, [r3]
 575 0220 0398     		ldr	r0, [sp, #12]
 576 0222 0299     		ldr	r1, [sp, #8]
 577 0224 019A     		ldr	r2, [sp, #4]
 578 0226 009B     		ldr	r3, [sp]
 579 0228 FFF7FEFF 		bl	spi_lld_exchange
 580              		.loc 1 226 0
 581 022c FFF7FEFF 		bl	dbg_check_unlock
 582              	.LBB13:
 583 0230 0023     		movs	r3, #0
 584              	@ 226 "/opt/R2P/core/ChibiOS_2.6.5/os/hal/src/spi.c" 1
 585 0232 83F31188 		msr     BASEPRI, r3
 586              	@ 0 "" 2
 587              		.thumb
ARM GAS  /tmp/ccWd5K7d.s 			page 12


 588              	.LBE13:
 589              		.loc 1 227 0
 590 0236 05B0     		add	sp, sp, #20
 591              		.cfi_def_cfa_offset 4
 592              		@ sp needed
 593 0238 5DF804FB 		ldr	pc, [sp], #4
 594              	.L35:
 595              		.align	2
 596              	.L34:
 597 023c AC000000 		.word	.LC10
 598 0240 C4000000 		.word	.LC11
 599              		.cfi_endproc
 600              	.LFE125:
 601              		.size	spiStartExchange, .-spiStartExchange
 602              		.section	.rodata
 603 00db 00       		.align	2
 604              	.LC12:
 605 00dc 22737069 		.ascii	"\"spiStartSend\"()\000"
 605      53746172 
 605      7453656E 
 605      64222829 
 605      00
 606 00ed 000000   		.align	2
 607              	.LC13:
 608 00f0 73706953 		.ascii	"spiStartSend(), #1\000"
 608      74617274 
 608      53656E64 
 608      28292C20 
 608      233100
 609              		.text
 610              		.align	2
 611              		.global	spiStartSend
 612              		.thumb
 613              		.thumb_func
 614              		.type	spiStartSend, %function
 615              	spiStartSend:
 616              	.LFB126:
 617              		.loc 1 244 0
 618              		.cfi_startproc
 619              		@ args = 0, pretend = 0, frame = 16
 620              		@ frame_needed = 0, uses_anonymous_args = 0
 621 0244 00B5     		push	{lr}
 622              		.cfi_def_cfa_offset 4
 623              		.cfi_offset 14, -4
 624 0246 85B0     		sub	sp, sp, #20
 625              		.cfi_def_cfa_offset 24
 626 0248 0390     		str	r0, [sp, #12]
 627 024a 0291     		str	r1, [sp, #8]
 628 024c 0192     		str	r2, [sp, #4]
 629              		.loc 1 246 0
 630 024e 039B     		ldr	r3, [sp, #12]
 631 0250 002B     		cmp	r3, #0
 632 0252 05D0     		beq	.L37
 633              		.loc 1 246 0 is_stmt 0 discriminator 2
 634 0254 029B     		ldr	r3, [sp, #8]
 635 0256 002B     		cmp	r3, #0
 636 0258 02D0     		beq	.L37
ARM GAS  /tmp/ccWd5K7d.s 			page 13


 637              		.loc 1 246 0 discriminator 4
 638 025a 019B     		ldr	r3, [sp, #4]
 639 025c 002B     		cmp	r3, #0
 640 025e 02D1     		bne	.L38
 641              	.L37:
 642              		.loc 1 246 0 discriminator 5
 643 0260 0F48     		ldr	r0, .L40
 644 0262 FFF7FEFF 		bl	chDbgPanic
 645              	.L38:
 646              	.LBB14:
 647              		.loc 1 249 0 is_stmt 1
 648 0266 2023     		movs	r3, #32
 649              	@ 249 "/opt/R2P/core/ChibiOS_2.6.5/os/hal/src/spi.c" 1
 650 0268 83F31188 		msr     BASEPRI, r3
 651              	@ 0 "" 2
 652              		.thumb
 653              	.LBE14:
 654 026c FFF7FEFF 		bl	dbg_check_lock
 655              		.loc 1 250 0
 656 0270 039B     		ldr	r3, [sp, #12]
 657 0272 1B78     		ldrb	r3, [r3]	@ zero_extendqisi2
 658 0274 022B     		cmp	r3, #2
 659 0276 02D0     		beq	.L39
 660              		.loc 1 250 0 is_stmt 0 discriminator 1
 661 0278 0A48     		ldr	r0, .L40+4
 662 027a FFF7FEFF 		bl	chDbgPanic
 663              	.L39:
 664              		.loc 1 251 0 is_stmt 1
 665 027e 039B     		ldr	r3, [sp, #12]
 666 0280 0322     		movs	r2, #3
 667 0282 1A70     		strb	r2, [r3]
 668 0284 0398     		ldr	r0, [sp, #12]
 669 0286 0299     		ldr	r1, [sp, #8]
 670 0288 019A     		ldr	r2, [sp, #4]
 671 028a FFF7FEFF 		bl	spi_lld_send
 672              		.loc 1 252 0
 673 028e FFF7FEFF 		bl	dbg_check_unlock
 674              	.LBB15:
 675 0292 0023     		movs	r3, #0
 676              	@ 252 "/opt/R2P/core/ChibiOS_2.6.5/os/hal/src/spi.c" 1
 677 0294 83F31188 		msr     BASEPRI, r3
 678              	@ 0 "" 2
 679              		.thumb
 680              	.LBE15:
 681              		.loc 1 253 0
 682 0298 05B0     		add	sp, sp, #20
 683              		.cfi_def_cfa_offset 4
 684              		@ sp needed
 685 029a 5DF804FB 		ldr	pc, [sp], #4
 686              	.L41:
 687 029e 00BF     		.align	2
 688              	.L40:
 689 02a0 DC000000 		.word	.LC12
 690 02a4 F0000000 		.word	.LC13
 691              		.cfi_endproc
 692              	.LFE126:
 693              		.size	spiStartSend, .-spiStartSend
ARM GAS  /tmp/ccWd5K7d.s 			page 14


 694              		.section	.rodata
 695 0103 00       		.align	2
 696              	.LC14:
 697 0104 22737069 		.ascii	"\"spiStartReceive\"()\000"
 697      53746172 
 697      74526563 
 697      65697665 
 697      22282900 
 698              		.align	2
 699              	.LC15:
 700 0118 73706953 		.ascii	"spiStartReceive(), #1\000"
 700      74617274 
 700      52656365 
 700      69766528 
 700      292C2023 
 701              		.text
 702              		.align	2
 703              		.global	spiStartReceive
 704              		.thumb
 705              		.thumb_func
 706              		.type	spiStartReceive, %function
 707              	spiStartReceive:
 708              	.LFB127:
 709              		.loc 1 270 0
 710              		.cfi_startproc
 711              		@ args = 0, pretend = 0, frame = 16
 712              		@ frame_needed = 0, uses_anonymous_args = 0
 713 02a8 00B5     		push	{lr}
 714              		.cfi_def_cfa_offset 4
 715              		.cfi_offset 14, -4
 716 02aa 85B0     		sub	sp, sp, #20
 717              		.cfi_def_cfa_offset 24
 718 02ac 0390     		str	r0, [sp, #12]
 719 02ae 0291     		str	r1, [sp, #8]
 720 02b0 0192     		str	r2, [sp, #4]
 721              		.loc 1 272 0
 722 02b2 039B     		ldr	r3, [sp, #12]
 723 02b4 002B     		cmp	r3, #0
 724 02b6 05D0     		beq	.L43
 725              		.loc 1 272 0 is_stmt 0 discriminator 2
 726 02b8 029B     		ldr	r3, [sp, #8]
 727 02ba 002B     		cmp	r3, #0
 728 02bc 02D0     		beq	.L43
 729              		.loc 1 272 0 discriminator 4
 730 02be 019B     		ldr	r3, [sp, #4]
 731 02c0 002B     		cmp	r3, #0
 732 02c2 02D1     		bne	.L44
 733              	.L43:
 734              		.loc 1 272 0 discriminator 5
 735 02c4 0F48     		ldr	r0, .L46
 736 02c6 FFF7FEFF 		bl	chDbgPanic
 737              	.L44:
 738              	.LBB16:
 739              		.loc 1 275 0 is_stmt 1
 740 02ca 2023     		movs	r3, #32
 741              	@ 275 "/opt/R2P/core/ChibiOS_2.6.5/os/hal/src/spi.c" 1
 742 02cc 83F31188 		msr     BASEPRI, r3
ARM GAS  /tmp/ccWd5K7d.s 			page 15


 743              	@ 0 "" 2
 744              		.thumb
 745              	.LBE16:
 746 02d0 FFF7FEFF 		bl	dbg_check_lock
 747              		.loc 1 276 0
 748 02d4 039B     		ldr	r3, [sp, #12]
 749 02d6 1B78     		ldrb	r3, [r3]	@ zero_extendqisi2
 750 02d8 022B     		cmp	r3, #2
 751 02da 02D0     		beq	.L45
 752              		.loc 1 276 0 is_stmt 0 discriminator 1
 753 02dc 0A48     		ldr	r0, .L46+4
 754 02de FFF7FEFF 		bl	chDbgPanic
 755              	.L45:
 756              		.loc 1 277 0 is_stmt 1
 757 02e2 039B     		ldr	r3, [sp, #12]
 758 02e4 0322     		movs	r2, #3
 759 02e6 1A70     		strb	r2, [r3]
 760 02e8 0398     		ldr	r0, [sp, #12]
 761 02ea 0299     		ldr	r1, [sp, #8]
 762 02ec 019A     		ldr	r2, [sp, #4]
 763 02ee FFF7FEFF 		bl	spi_lld_receive
 764              		.loc 1 278 0
 765 02f2 FFF7FEFF 		bl	dbg_check_unlock
 766              	.LBB17:
 767 02f6 0023     		movs	r3, #0
 768              	@ 278 "/opt/R2P/core/ChibiOS_2.6.5/os/hal/src/spi.c" 1
 769 02f8 83F31188 		msr     BASEPRI, r3
 770              	@ 0 "" 2
 771              		.thumb
 772              	.LBE17:
 773              		.loc 1 279 0
 774 02fc 05B0     		add	sp, sp, #20
 775              		.cfi_def_cfa_offset 4
 776              		@ sp needed
 777 02fe 5DF804FB 		ldr	pc, [sp], #4
 778              	.L47:
 779 0302 00BF     		.align	2
 780              	.L46:
 781 0304 04010000 		.word	.LC14
 782 0308 18010000 		.word	.LC15
 783              		.cfi_endproc
 784              	.LFE127:
 785              		.size	spiStartReceive, .-spiStartReceive
 786              		.section	.rodata
 787 012e 0000     		.align	2
 788              	.LC16:
 789 0130 22737069 		.ascii	"\"spiIgnoreWait\"()\000"
 789      49676E6F 
 789      72655761 
 789      69742228 
 789      2900
 790 0142 0000     		.align	2
 791              	.LC17:
 792 0144 73706949 		.ascii	"spiIgnore(), #1\000"
 792      676E6F72 
 792      6528292C 
 792      20233100 
ARM GAS  /tmp/ccWd5K7d.s 			page 16


 793              		.align	2
 794              	.LC18:
 795 0154 73706949 		.ascii	"spiIgnore(), #2\000"
 795      676E6F72 
 795      6528292C 
 795      20233200 
 796              		.align	2
 797              	.LC19:
 798 0164 5F737069 		.ascii	"_spi_wait(), #1\000"
 798      5F776169 
 798      7428292C 
 798      20233100 
 799              		.text
 800              		.align	2
 801              		.global	spiIgnore
 802              		.thumb
 803              		.thumb_func
 804              		.type	spiIgnore, %function
 805              	spiIgnore:
 806              	.LFB128:
 807              		.loc 1 296 0
 808              		.cfi_startproc
 809              		@ args = 0, pretend = 0, frame = 8
 810              		@ frame_needed = 0, uses_anonymous_args = 0
 811 030c 00B5     		push	{lr}
 812              		.cfi_def_cfa_offset 4
 813              		.cfi_offset 14, -4
 814 030e 83B0     		sub	sp, sp, #12
 815              		.cfi_def_cfa_offset 16
 816 0310 0190     		str	r0, [sp, #4]
 817 0312 0091     		str	r1, [sp]
 818              		.loc 1 298 0
 819 0314 019B     		ldr	r3, [sp, #4]
 820 0316 002B     		cmp	r3, #0
 821 0318 02D0     		beq	.L49
 822              		.loc 1 298 0 is_stmt 0 discriminator 2
 823 031a 009B     		ldr	r3, [sp]
 824 031c 002B     		cmp	r3, #0
 825 031e 02D1     		bne	.L50
 826              	.L49:
 827              		.loc 1 298 0 discriminator 3
 828 0320 1948     		ldr	r0, .L54
 829 0322 FFF7FEFF 		bl	chDbgPanic
 830              	.L50:
 831              	.LBB18:
 832              		.loc 1 300 0 is_stmt 1
 833 0326 2023     		movs	r3, #32
 834              	@ 300 "/opt/R2P/core/ChibiOS_2.6.5/os/hal/src/spi.c" 1
 835 0328 83F31188 		msr     BASEPRI, r3
 836              	@ 0 "" 2
 837              		.thumb
 838              	.LBE18:
 839 032c FFF7FEFF 		bl	dbg_check_lock
 840              		.loc 1 301 0
 841 0330 019B     		ldr	r3, [sp, #4]
 842 0332 1B78     		ldrb	r3, [r3]	@ zero_extendqisi2
 843 0334 022B     		cmp	r3, #2
ARM GAS  /tmp/ccWd5K7d.s 			page 17


 844 0336 02D0     		beq	.L51
 845              		.loc 1 301 0 is_stmt 0 discriminator 1
 846 0338 1448     		ldr	r0, .L54+4
 847 033a FFF7FEFF 		bl	chDbgPanic
 848              	.L51:
 849              		.loc 1 302 0 is_stmt 1
 850 033e 019B     		ldr	r3, [sp, #4]
 851 0340 5B68     		ldr	r3, [r3, #4]
 852 0342 1B68     		ldr	r3, [r3]
 853 0344 002B     		cmp	r3, #0
 854 0346 02D0     		beq	.L52
 855              		.loc 1 302 0 is_stmt 0 discriminator 1
 856 0348 1148     		ldr	r0, .L54+8
 857 034a FFF7FEFF 		bl	chDbgPanic
 858              	.L52:
 859              		.loc 1 303 0 is_stmt 1
 860 034e 019B     		ldr	r3, [sp, #4]
 861 0350 0322     		movs	r2, #3
 862 0352 1A70     		strb	r2, [r3]
 863 0354 0198     		ldr	r0, [sp, #4]
 864 0356 0099     		ldr	r1, [sp]
 865 0358 FFF7FEFF 		bl	spi_lld_ignore
 866              		.loc 1 304 0
 867 035c 019B     		ldr	r3, [sp, #4]
 868 035e 9B68     		ldr	r3, [r3, #8]
 869 0360 002B     		cmp	r3, #0
 870 0362 02D0     		beq	.L53
 871              		.loc 1 304 0 is_stmt 0 discriminator 1
 872 0364 0B48     		ldr	r0, .L54+12
 873 0366 FFF7FEFF 		bl	chDbgPanic
 874              	.L53:
 875              		.loc 1 304 0 discriminator 3
 876 036a 0B4B     		ldr	r3, .L54+16
 877 036c 9A69     		ldr	r2, [r3, #24]
 878 036e 019B     		ldr	r3, [sp, #4]
 879 0370 9A60     		str	r2, [r3, #8]
 880 0372 0220     		movs	r0, #2
 881 0374 FFF7FEFF 		bl	chSchGoSleepS
 882              		.loc 1 305 0 is_stmt 1 discriminator 3
 883 0378 FFF7FEFF 		bl	dbg_check_unlock
 884              	.LBB19:
 885 037c 0023     		movs	r3, #0
 886              	@ 305 "/opt/R2P/core/ChibiOS_2.6.5/os/hal/src/spi.c" 1
 887 037e 83F31188 		msr     BASEPRI, r3
 888              	@ 0 "" 2
 889              		.thumb
 890              	.LBE19:
 891              		.loc 1 306 0 discriminator 3
 892 0382 03B0     		add	sp, sp, #12
 893              		.cfi_def_cfa_offset 4
 894              		@ sp needed
 895 0384 5DF804FB 		ldr	pc, [sp], #4
 896              	.L55:
 897              		.align	2
 898              	.L54:
 899 0388 30010000 		.word	.LC16
 900 038c 44010000 		.word	.LC17
ARM GAS  /tmp/ccWd5K7d.s 			page 18


 901 0390 54010000 		.word	.LC18
 902 0394 64010000 		.word	.LC19
 903 0398 00000000 		.word	rlist
 904              		.cfi_endproc
 905              	.LFE128:
 906              		.size	spiIgnore, .-spiIgnore
 907              		.section	.rodata
 908              		.align	2
 909              	.LC20:
 910 0174 22737069 		.ascii	"\"spiExchange\"()\000"
 910      45786368 
 910      616E6765 
 910      22282900 
 911              		.align	2
 912              	.LC21:
 913 0184 73706945 		.ascii	"spiExchange(), #1\000"
 913      78636861 
 913      6E676528 
 913      292C2023 
 913      3100
 914 0196 0000     		.align	2
 915              	.LC22:
 916 0198 73706945 		.ascii	"spiExchange(), #2\000"
 916      78636861 
 916      6E676528 
 916      292C2023 
 916      3200
 917              		.text
 918              		.align	2
 919              		.global	spiExchange
 920              		.thumb
 921              		.thumb_func
 922              		.type	spiExchange, %function
 923              	spiExchange:
 924              	.LFB129:
 925              		.loc 1 327 0
 926              		.cfi_startproc
 927              		@ args = 0, pretend = 0, frame = 16
 928              		@ frame_needed = 0, uses_anonymous_args = 0
 929 039c 00B5     		push	{lr}
 930              		.cfi_def_cfa_offset 4
 931              		.cfi_offset 14, -4
 932 039e 85B0     		sub	sp, sp, #20
 933              		.cfi_def_cfa_offset 24
 934 03a0 0390     		str	r0, [sp, #12]
 935 03a2 0291     		str	r1, [sp, #8]
 936 03a4 0192     		str	r2, [sp, #4]
 937 03a6 0093     		str	r3, [sp]
 938              		.loc 1 329 0
 939 03a8 039B     		ldr	r3, [sp, #12]
 940 03aa 002B     		cmp	r3, #0
 941 03ac 08D0     		beq	.L57
 942              		.loc 1 329 0 is_stmt 0 discriminator 2
 943 03ae 029B     		ldr	r3, [sp, #8]
 944 03b0 002B     		cmp	r3, #0
 945 03b2 05D0     		beq	.L57
 946              		.loc 1 329 0 discriminator 4
ARM GAS  /tmp/ccWd5K7d.s 			page 19


 947 03b4 009B     		ldr	r3, [sp]
 948 03b6 002B     		cmp	r3, #0
 949 03b8 02D0     		beq	.L57
 950              		.loc 1 329 0 discriminator 6
 951 03ba 019B     		ldr	r3, [sp, #4]
 952 03bc 002B     		cmp	r3, #0
 953 03be 02D1     		bne	.L58
 954              	.L57:
 955              		.loc 1 329 0 discriminator 7
 956 03c0 1A48     		ldr	r0, .L62
 957 03c2 FFF7FEFF 		bl	chDbgPanic
 958              	.L58:
 959              	.LBB20:
 960              		.loc 1 332 0 is_stmt 1
 961 03c6 2023     		movs	r3, #32
 962              	@ 332 "/opt/R2P/core/ChibiOS_2.6.5/os/hal/src/spi.c" 1
 963 03c8 83F31188 		msr     BASEPRI, r3
 964              	@ 0 "" 2
 965              		.thumb
 966              	.LBE20:
 967 03cc FFF7FEFF 		bl	dbg_check_lock
 968              		.loc 1 333 0
 969 03d0 039B     		ldr	r3, [sp, #12]
 970 03d2 1B78     		ldrb	r3, [r3]	@ zero_extendqisi2
 971 03d4 022B     		cmp	r3, #2
 972 03d6 02D0     		beq	.L59
 973              		.loc 1 333 0 is_stmt 0 discriminator 1
 974 03d8 1548     		ldr	r0, .L62+4
 975 03da FFF7FEFF 		bl	chDbgPanic
 976              	.L59:
 977              		.loc 1 334 0 is_stmt 1
 978 03de 039B     		ldr	r3, [sp, #12]
 979 03e0 5B68     		ldr	r3, [r3, #4]
 980 03e2 1B68     		ldr	r3, [r3]
 981 03e4 002B     		cmp	r3, #0
 982 03e6 02D0     		beq	.L60
 983              		.loc 1 334 0 is_stmt 0 discriminator 1
 984 03e8 1248     		ldr	r0, .L62+8
 985 03ea FFF7FEFF 		bl	chDbgPanic
 986              	.L60:
 987              		.loc 1 336 0 is_stmt 1
 988 03ee 039B     		ldr	r3, [sp, #12]
 989 03f0 0322     		movs	r2, #3
 990 03f2 1A70     		strb	r2, [r3]
 991 03f4 0398     		ldr	r0, [sp, #12]
 992 03f6 0299     		ldr	r1, [sp, #8]
 993 03f8 019A     		ldr	r2, [sp, #4]
 994 03fa 009B     		ldr	r3, [sp]
 995 03fc FFF7FEFF 		bl	spi_lld_exchange
 996              		.loc 1 337 0
 997 0400 039B     		ldr	r3, [sp, #12]
 998 0402 9B68     		ldr	r3, [r3, #8]
 999 0404 002B     		cmp	r3, #0
 1000 0406 02D0     		beq	.L61
 1001              		.loc 1 337 0 is_stmt 0 discriminator 1
 1002 0408 0B48     		ldr	r0, .L62+12
 1003 040a FFF7FEFF 		bl	chDbgPanic
ARM GAS  /tmp/ccWd5K7d.s 			page 20


 1004              	.L61:
 1005              		.loc 1 337 0 discriminator 3
 1006 040e 0B4B     		ldr	r3, .L62+16
 1007 0410 9A69     		ldr	r2, [r3, #24]
 1008 0412 039B     		ldr	r3, [sp, #12]
 1009 0414 9A60     		str	r2, [r3, #8]
 1010 0416 0220     		movs	r0, #2
 1011 0418 FFF7FEFF 		bl	chSchGoSleepS
 1012              		.loc 1 338 0 is_stmt 1 discriminator 3
 1013 041c FFF7FEFF 		bl	dbg_check_unlock
 1014              	.LBB21:
 1015 0420 0023     		movs	r3, #0
 1016              	@ 338 "/opt/R2P/core/ChibiOS_2.6.5/os/hal/src/spi.c" 1
 1017 0422 83F31188 		msr     BASEPRI, r3
 1018              	@ 0 "" 2
 1019              		.thumb
 1020              	.LBE21:
 1021              		.loc 1 339 0 discriminator 3
 1022 0426 05B0     		add	sp, sp, #20
 1023              		.cfi_def_cfa_offset 4
 1024              		@ sp needed
 1025 0428 5DF804FB 		ldr	pc, [sp], #4
 1026              	.L63:
 1027              		.align	2
 1028              	.L62:
 1029 042c 74010000 		.word	.LC20
 1030 0430 84010000 		.word	.LC21
 1031 0434 98010000 		.word	.LC22
 1032 0438 64010000 		.word	.LC19
 1033 043c 00000000 		.word	rlist
 1034              		.cfi_endproc
 1035              	.LFE129:
 1036              		.size	spiExchange, .-spiExchange
 1037              		.section	.rodata
 1038 01aa 0000     		.align	2
 1039              	.LC23:
 1040 01ac 22737069 		.ascii	"\"spiSend\"()\000"
 1040      53656E64 
 1040      22282900 
 1041              		.align	2
 1042              	.LC24:
 1043 01b8 73706953 		.ascii	"spiSend(), #1\000"
 1043      656E6428 
 1043      292C2023 
 1043      3100
 1044 01c6 0000     		.align	2
 1045              	.LC25:
 1046 01c8 73706953 		.ascii	"spiSend(), #2\000"
 1046      656E6428 
 1046      292C2023 
 1046      3200
 1047              		.text
 1048              		.align	2
 1049              		.global	spiSend
 1050              		.thumb
 1051              		.thumb_func
 1052              		.type	spiSend, %function
ARM GAS  /tmp/ccWd5K7d.s 			page 21


 1053              	spiSend:
 1054              	.LFB130:
 1055              		.loc 1 357 0
 1056              		.cfi_startproc
 1057              		@ args = 0, pretend = 0, frame = 16
 1058              		@ frame_needed = 0, uses_anonymous_args = 0
 1059 0440 00B5     		push	{lr}
 1060              		.cfi_def_cfa_offset 4
 1061              		.cfi_offset 14, -4
 1062 0442 85B0     		sub	sp, sp, #20
 1063              		.cfi_def_cfa_offset 24
 1064 0444 0390     		str	r0, [sp, #12]
 1065 0446 0291     		str	r1, [sp, #8]
 1066 0448 0192     		str	r2, [sp, #4]
 1067              		.loc 1 359 0
 1068 044a 039B     		ldr	r3, [sp, #12]
 1069 044c 002B     		cmp	r3, #0
 1070 044e 05D0     		beq	.L65
 1071              		.loc 1 359 0 is_stmt 0 discriminator 2
 1072 0450 029B     		ldr	r3, [sp, #8]
 1073 0452 002B     		cmp	r3, #0
 1074 0454 02D0     		beq	.L65
 1075              		.loc 1 359 0 discriminator 4
 1076 0456 019B     		ldr	r3, [sp, #4]
 1077 0458 002B     		cmp	r3, #0
 1078 045a 02D1     		bne	.L66
 1079              	.L65:
 1080              		.loc 1 359 0 discriminator 5
 1081 045c 1A48     		ldr	r0, .L70
 1082 045e FFF7FEFF 		bl	chDbgPanic
 1083              	.L66:
 1084              	.LBB22:
 1085              		.loc 1 361 0 is_stmt 1
 1086 0462 2023     		movs	r3, #32
 1087              	@ 361 "/opt/R2P/core/ChibiOS_2.6.5/os/hal/src/spi.c" 1
 1088 0464 83F31188 		msr     BASEPRI, r3
 1089              	@ 0 "" 2
 1090              		.thumb
 1091              	.LBE22:
 1092 0468 FFF7FEFF 		bl	dbg_check_lock
 1093              		.loc 1 362 0
 1094 046c 039B     		ldr	r3, [sp, #12]
 1095 046e 1B78     		ldrb	r3, [r3]	@ zero_extendqisi2
 1096 0470 022B     		cmp	r3, #2
 1097 0472 02D0     		beq	.L67
 1098              		.loc 1 362 0 is_stmt 0 discriminator 1
 1099 0474 1548     		ldr	r0, .L70+4
 1100 0476 FFF7FEFF 		bl	chDbgPanic
 1101              	.L67:
 1102              		.loc 1 363 0 is_stmt 1
 1103 047a 039B     		ldr	r3, [sp, #12]
 1104 047c 5B68     		ldr	r3, [r3, #4]
 1105 047e 1B68     		ldr	r3, [r3]
 1106 0480 002B     		cmp	r3, #0
 1107 0482 02D0     		beq	.L68
 1108              		.loc 1 363 0 is_stmt 0 discriminator 1
 1109 0484 1248     		ldr	r0, .L70+8
ARM GAS  /tmp/ccWd5K7d.s 			page 22


 1110 0486 FFF7FEFF 		bl	chDbgPanic
 1111              	.L68:
 1112              		.loc 1 364 0 is_stmt 1
 1113 048a 039B     		ldr	r3, [sp, #12]
 1114 048c 0322     		movs	r2, #3
 1115 048e 1A70     		strb	r2, [r3]
 1116 0490 0398     		ldr	r0, [sp, #12]
 1117 0492 0299     		ldr	r1, [sp, #8]
 1118 0494 019A     		ldr	r2, [sp, #4]
 1119 0496 FFF7FEFF 		bl	spi_lld_send
 1120              		.loc 1 365 0
 1121 049a 039B     		ldr	r3, [sp, #12]
 1122 049c 9B68     		ldr	r3, [r3, #8]
 1123 049e 002B     		cmp	r3, #0
 1124 04a0 02D0     		beq	.L69
 1125              		.loc 1 365 0 is_stmt 0 discriminator 1
 1126 04a2 0C48     		ldr	r0, .L70+12
 1127 04a4 FFF7FEFF 		bl	chDbgPanic
 1128              	.L69:
 1129              		.loc 1 365 0 discriminator 3
 1130 04a8 0B4B     		ldr	r3, .L70+16
 1131 04aa 9A69     		ldr	r2, [r3, #24]
 1132 04ac 039B     		ldr	r3, [sp, #12]
 1133 04ae 9A60     		str	r2, [r3, #8]
 1134 04b0 0220     		movs	r0, #2
 1135 04b2 FFF7FEFF 		bl	chSchGoSleepS
 1136              		.loc 1 366 0 is_stmt 1 discriminator 3
 1137 04b6 FFF7FEFF 		bl	dbg_check_unlock
 1138              	.LBB23:
 1139 04ba 0023     		movs	r3, #0
 1140              	@ 366 "/opt/R2P/core/ChibiOS_2.6.5/os/hal/src/spi.c" 1
 1141 04bc 83F31188 		msr     BASEPRI, r3
 1142              	@ 0 "" 2
 1143              		.thumb
 1144              	.LBE23:
 1145              		.loc 1 367 0 discriminator 3
 1146 04c0 05B0     		add	sp, sp, #20
 1147              		.cfi_def_cfa_offset 4
 1148              		@ sp needed
 1149 04c2 5DF804FB 		ldr	pc, [sp], #4
 1150              	.L71:
 1151 04c6 00BF     		.align	2
 1152              	.L70:
 1153 04c8 AC010000 		.word	.LC23
 1154 04cc B8010000 		.word	.LC24
 1155 04d0 C8010000 		.word	.LC25
 1156 04d4 64010000 		.word	.LC19
 1157 04d8 00000000 		.word	rlist
 1158              		.cfi_endproc
 1159              	.LFE130:
 1160              		.size	spiSend, .-spiSend
 1161              		.section	.rodata
 1162 01d6 0000     		.align	2
 1163              	.LC26:
 1164 01d8 22737069 		.ascii	"\"spiReceive\"()\000"
 1164      52656365 
 1164      69766522 
ARM GAS  /tmp/ccWd5K7d.s 			page 23


 1164      282900
 1165 01e7 00       		.align	2
 1166              	.LC27:
 1167 01e8 73706952 		.ascii	"spiReceive(), #1\000"
 1167      65636569 
 1167      76652829 
 1167      2C202331 
 1167      00
 1168 01f9 000000   		.align	2
 1169              	.LC28:
 1170 01fc 73706952 		.ascii	"spiReceive(), #2\000"
 1170      65636569 
 1170      76652829 
 1170      2C202332 
 1170      00
 1171              		.text
 1172              		.align	2
 1173              		.global	spiReceive
 1174              		.thumb
 1175              		.thumb_func
 1176              		.type	spiReceive, %function
 1177              	spiReceive:
 1178              	.LFB131:
 1179              		.loc 1 385 0
 1180              		.cfi_startproc
 1181              		@ args = 0, pretend = 0, frame = 16
 1182              		@ frame_needed = 0, uses_anonymous_args = 0
 1183 04dc 00B5     		push	{lr}
 1184              		.cfi_def_cfa_offset 4
 1185              		.cfi_offset 14, -4
 1186 04de 85B0     		sub	sp, sp, #20
 1187              		.cfi_def_cfa_offset 24
 1188 04e0 0390     		str	r0, [sp, #12]
 1189 04e2 0291     		str	r1, [sp, #8]
 1190 04e4 0192     		str	r2, [sp, #4]
 1191              		.loc 1 387 0
 1192 04e6 039B     		ldr	r3, [sp, #12]
 1193 04e8 002B     		cmp	r3, #0
 1194 04ea 05D0     		beq	.L73
 1195              		.loc 1 387 0 is_stmt 0 discriminator 2
 1196 04ec 029B     		ldr	r3, [sp, #8]
 1197 04ee 002B     		cmp	r3, #0
 1198 04f0 02D0     		beq	.L73
 1199              		.loc 1 387 0 discriminator 4
 1200 04f2 019B     		ldr	r3, [sp, #4]
 1201 04f4 002B     		cmp	r3, #0
 1202 04f6 02D1     		bne	.L74
 1203              	.L73:
 1204              		.loc 1 387 0 discriminator 5
 1205 04f8 1A48     		ldr	r0, .L78
 1206 04fa FFF7FEFF 		bl	chDbgPanic
 1207              	.L74:
 1208              	.LBB24:
 1209              		.loc 1 390 0 is_stmt 1
 1210 04fe 2023     		movs	r3, #32
 1211              	@ 390 "/opt/R2P/core/ChibiOS_2.6.5/os/hal/src/spi.c" 1
 1212 0500 83F31188 		msr     BASEPRI, r3
ARM GAS  /tmp/ccWd5K7d.s 			page 24


 1213              	@ 0 "" 2
 1214              		.thumb
 1215              	.LBE24:
 1216 0504 FFF7FEFF 		bl	dbg_check_lock
 1217              		.loc 1 391 0
 1218 0508 039B     		ldr	r3, [sp, #12]
 1219 050a 1B78     		ldrb	r3, [r3]	@ zero_extendqisi2
 1220 050c 022B     		cmp	r3, #2
 1221 050e 02D0     		beq	.L75
 1222              		.loc 1 391 0 is_stmt 0 discriminator 1
 1223 0510 1548     		ldr	r0, .L78+4
 1224 0512 FFF7FEFF 		bl	chDbgPanic
 1225              	.L75:
 1226              		.loc 1 392 0 is_stmt 1
 1227 0516 039B     		ldr	r3, [sp, #12]
 1228 0518 5B68     		ldr	r3, [r3, #4]
 1229 051a 1B68     		ldr	r3, [r3]
 1230 051c 002B     		cmp	r3, #0
 1231 051e 02D0     		beq	.L76
 1232              		.loc 1 392 0 is_stmt 0 discriminator 1
 1233 0520 1248     		ldr	r0, .L78+8
 1234 0522 FFF7FEFF 		bl	chDbgPanic
 1235              	.L76:
 1236              		.loc 1 394 0 is_stmt 1
 1237 0526 039B     		ldr	r3, [sp, #12]
 1238 0528 0322     		movs	r2, #3
 1239 052a 1A70     		strb	r2, [r3]
 1240 052c 0398     		ldr	r0, [sp, #12]
 1241 052e 0299     		ldr	r1, [sp, #8]
 1242 0530 019A     		ldr	r2, [sp, #4]
 1243 0532 FFF7FEFF 		bl	spi_lld_receive
 1244              		.loc 1 395 0
 1245 0536 039B     		ldr	r3, [sp, #12]
 1246 0538 9B68     		ldr	r3, [r3, #8]
 1247 053a 002B     		cmp	r3, #0
 1248 053c 02D0     		beq	.L77
 1249              		.loc 1 395 0 is_stmt 0 discriminator 1
 1250 053e 0C48     		ldr	r0, .L78+12
 1251 0540 FFF7FEFF 		bl	chDbgPanic
 1252              	.L77:
 1253              		.loc 1 395 0 discriminator 3
 1254 0544 0B4B     		ldr	r3, .L78+16
 1255 0546 9A69     		ldr	r2, [r3, #24]
 1256 0548 039B     		ldr	r3, [sp, #12]
 1257 054a 9A60     		str	r2, [r3, #8]
 1258 054c 0220     		movs	r0, #2
 1259 054e FFF7FEFF 		bl	chSchGoSleepS
 1260              		.loc 1 396 0 is_stmt 1 discriminator 3
 1261 0552 FFF7FEFF 		bl	dbg_check_unlock
 1262              	.LBB25:
 1263 0556 0023     		movs	r3, #0
 1264              	@ 396 "/opt/R2P/core/ChibiOS_2.6.5/os/hal/src/spi.c" 1
 1265 0558 83F31188 		msr     BASEPRI, r3
 1266              	@ 0 "" 2
 1267              		.thumb
 1268              	.LBE25:
 1269              		.loc 1 397 0 discriminator 3
ARM GAS  /tmp/ccWd5K7d.s 			page 25


 1270 055c 05B0     		add	sp, sp, #20
 1271              		.cfi_def_cfa_offset 4
 1272              		@ sp needed
 1273 055e 5DF804FB 		ldr	pc, [sp], #4
 1274              	.L79:
 1275 0562 00BF     		.align	2
 1276              	.L78:
 1277 0564 D8010000 		.word	.LC26
 1278 0568 E8010000 		.word	.LC27
 1279 056c FC010000 		.word	.LC28
 1280 0570 64010000 		.word	.LC19
 1281 0574 00000000 		.word	rlist
 1282              		.cfi_endproc
 1283              	.LFE131:
 1284              		.size	spiReceive, .-spiReceive
 1285              		.section	.rodata
 1286 020d 000000   		.align	2
 1287              	.LC29:
 1288 0210 22737069 		.ascii	"\"spiAcquireBus\"()\000"
 1288      41637175 
 1288      69726542 
 1288      75732228 
 1288      2900
 1289              		.text
 1290              		.align	2
 1291              		.global	spiAcquireBus
 1292              		.thumb
 1293              		.thumb_func
 1294              		.type	spiAcquireBus, %function
 1295              	spiAcquireBus:
 1296              	.LFB132:
 1297              		.loc 1 412 0
 1298              		.cfi_startproc
 1299              		@ args = 0, pretend = 0, frame = 8
 1300              		@ frame_needed = 0, uses_anonymous_args = 0
 1301 0578 00B5     		push	{lr}
 1302              		.cfi_def_cfa_offset 4
 1303              		.cfi_offset 14, -4
 1304 057a 83B0     		sub	sp, sp, #12
 1305              		.cfi_def_cfa_offset 16
 1306 057c 0190     		str	r0, [sp, #4]
 1307              		.loc 1 414 0
 1308 057e 019B     		ldr	r3, [sp, #4]
 1309 0580 002B     		cmp	r3, #0
 1310 0582 02D1     		bne	.L81
 1311              		.loc 1 414 0 is_stmt 0 discriminator 1
 1312 0584 0548     		ldr	r0, .L82
 1313 0586 FFF7FEFF 		bl	chDbgPanic
 1314              	.L81:
 1315              		.loc 1 417 0 is_stmt 1
 1316 058a 019B     		ldr	r3, [sp, #4]
 1317 058c 0C33     		adds	r3, r3, #12
 1318 058e 1846     		mov	r0, r3
 1319 0590 FFF7FEFF 		bl	chMtxLock
 1320              		.loc 1 421 0
 1321 0594 03B0     		add	sp, sp, #12
 1322              		.cfi_def_cfa_offset 4
ARM GAS  /tmp/ccWd5K7d.s 			page 26


 1323              		@ sp needed
 1324 0596 5DF804FB 		ldr	pc, [sp], #4
 1325              	.L83:
 1326 059a 00BF     		.align	2
 1327              	.L82:
 1328 059c 10020000 		.word	.LC29
 1329              		.cfi_endproc
 1330              	.LFE132:
 1331              		.size	spiAcquireBus, .-spiAcquireBus
 1332              		.section	.rodata
 1333 0222 0000     		.align	2
 1334              	.LC30:
 1335 0224 22737069 		.ascii	"\"spiReleaseBus\"()\000"
 1335      52656C65 
 1335      61736542 
 1335      75732228 
 1335      2900
 1336 0236 0000     		.text
 1337              		.align	2
 1338              		.global	spiReleaseBus
 1339              		.thumb
 1340              		.thumb_func
 1341              		.type	spiReleaseBus, %function
 1342              	spiReleaseBus:
 1343              	.LFB133:
 1344              		.loc 1 432 0
 1345              		.cfi_startproc
 1346              		@ args = 0, pretend = 0, frame = 8
 1347              		@ frame_needed = 0, uses_anonymous_args = 0
 1348 05a0 00B5     		push	{lr}
 1349              		.cfi_def_cfa_offset 4
 1350              		.cfi_offset 14, -4
 1351 05a2 83B0     		sub	sp, sp, #12
 1352              		.cfi_def_cfa_offset 16
 1353 05a4 0190     		str	r0, [sp, #4]
 1354              		.loc 1 434 0
 1355 05a6 019B     		ldr	r3, [sp, #4]
 1356 05a8 002B     		cmp	r3, #0
 1357 05aa 02D1     		bne	.L85
 1358              		.loc 1 434 0 is_stmt 0 discriminator 1
 1359 05ac 0348     		ldr	r0, .L86
 1360 05ae FFF7FEFF 		bl	chDbgPanic
 1361              	.L85:
 1362              		.loc 1 438 0 is_stmt 1
 1363 05b2 FFF7FEFF 		bl	chMtxUnlock
 1364              		.loc 1 442 0
 1365 05b6 03B0     		add	sp, sp, #12
 1366              		.cfi_def_cfa_offset 4
 1367              		@ sp needed
 1368 05b8 5DF804FB 		ldr	pc, [sp], #4
 1369              	.L87:
 1370              		.align	2
 1371              	.L86:
 1372 05bc 24020000 		.word	.LC30
 1373              		.cfi_endproc
 1374              	.LFE133:
 1375              		.size	spiReleaseBus, .-spiReleaseBus
ARM GAS  /tmp/ccWd5K7d.s 			page 27


 1376              	.Letext0:
 1377              		.file 2 "/opt/R2P/tools/gcc-arm-none-eabi-4_9-2014q4/lib/gcc/arm-none-eabi/4.9.3/include/stddef.h"
 1378              		.file 3 "/opt/R2P/tools/gcc-arm-none-eabi-4_9-2014q4/arm-none-eabi/include/machine/_default_types.
 1379              		.file 4 "/opt/R2P/tools/gcc-arm-none-eabi-4_9-2014q4/arm-none-eabi/include/stdint.h"
 1380              		.file 5 "/opt/R2P/core/ChibiOS_2.6.5/os/ports/GCC/ARMCMx/chtypes.h"
 1381              		.file 6 "/opt/R2P/core/ChibiOS_2.6.5/os/kernel/include/chlists.h"
 1382              		.file 7 "/opt/R2P/core/ChibiOS_2.6.5/os/kernel/include/chthreads.h"
 1383              		.file 8 "/opt/R2P/core/ChibiOS_2.6.5/os/ports/GCC/ARMCMx/chcore_v7m.h"
 1384              		.file 9 "/opt/R2P/core/ChibiOS_2.6.5/os/kernel/include/chschd.h"
 1385              		.file 10 "/opt/R2P/core/ChibiOS_2.6.5/os/kernel/include/chmtx.h"
 1386              		.file 11 "/opt/R2P/core/ChibiOS_2.6.5/os/hal/platforms/STM32F30x/stm32f30x.h"
 1387              		.file 12 "/opt/R2P/core/ChibiOS_2.6.5/os/hal/platforms/STM32F30x/stm32_dma.h"
 1388              		.file 13 "/opt/R2P/core/ChibiOS_2.6.5/os/hal/platforms/STM32/GPIOv2/pal_lld.h"
 1389              		.file 14 "/opt/R2P/core/ChibiOS_2.6.5/os/hal/include/spi.h"
 1390              		.file 15 "/opt/R2P/core/ChibiOS_2.6.5/os/hal/platforms/STM32/SPIv2/spi_lld.h"
 1391              		.file 16 "/opt/R2P/core/ChibiOS_2.6.5/os/ports/common/ARMCMx/CMSIS/include/core_cm4.h"