ARM GAS  /tmp/cck4I4CR.s 			page 1


   1              		.syntax unified
   2              		.cpu cortex-m4
   3              		.fpu softvfp
   4              		.eabi_attribute 20, 1
   5              		.eabi_attribute 21, 1
   6              		.eabi_attribute 23, 3
   7              		.eabi_attribute 24, 1
   8              		.eabi_attribute 25, 1
   9              		.eabi_attribute 26, 1
  10              		.eabi_attribute 30, 6
  11              		.eabi_attribute 34, 1
  12              		.eabi_attribute 18, 4
  13              		.thumb
  14              		.file	"spi_lld.c"
  15              		.text
  16              	.Ltext0:
  17              		.cfi_sections	.debug_frame
  18              		.comm	SPID2,48,4
  19              		.bss
  20              		.align	1
  21              	dummytx:
  22 0000 0000     		.space	2
  23              		.align	1
  24              	dummyrx:
  25 0002 0000     		.space	2
  26              		.text
  27              		.align	2
  28              		.thumb
  29              		.thumb_func
  30              		.type	spi_lld_serve_rx_interrupt, %function
  31              	spi_lld_serve_rx_interrupt:
  32              	.LFB118:
  33              		.file 1 "/opt/R2P/core/ChibiOS_2.6.5/os/hal/platforms/STM32/SPIv2/spi_lld.c"
  34              		.loc 1 94 0
  35              		.cfi_startproc
  36              		@ args = 0, pretend = 0, frame = 16
  37              		@ frame_needed = 0, uses_anonymous_args = 0
  38 0000 00B5     		push	{lr}
  39              		.cfi_def_cfa_offset 4
  40              		.cfi_offset 14, -4
  41 0002 85B0     		sub	sp, sp, #20
  42              		.cfi_def_cfa_offset 24
  43 0004 0190     		str	r0, [sp, #4]
  44 0006 0091     		str	r1, [sp]
  45              		.loc 1 98 0
  46 0008 009B     		ldr	r3, [sp]
  47 000a 03F00803 		and	r3, r3, #8
  48 000e 002B     		cmp	r3, #0
  49 0010 01D0     		beq	.L2
  50              		.loc 1 99 0
  51 0012 FFF7FEFF 		bl	port_halt
  52              	.L2:
  53              		.loc 1 106 0
  54 0016 019B     		ldr	r3, [sp, #4]
  55 0018 5B6A     		ldr	r3, [r3, #36]
  56 001a 1B68     		ldr	r3, [r3]
  57 001c 019A     		ldr	r2, [sp, #4]
ARM GAS  /tmp/cck4I4CR.s 			page 2


  58 001e 526A     		ldr	r2, [r2, #36]
  59 0020 1268     		ldr	r2, [r2]
  60 0022 1268     		ldr	r2, [r2]
  61 0024 22F00F02 		bic	r2, r2, #15
  62 0028 1A60     		str	r2, [r3]
  63 002a 019B     		ldr	r3, [sp, #4]
  64 002c 5B6A     		ldr	r3, [r3, #36]
  65 002e 5B68     		ldr	r3, [r3, #4]
  66 0030 019A     		ldr	r2, [sp, #4]
  67 0032 526A     		ldr	r2, [r2, #36]
  68 0034 127A     		ldrb	r2, [r2, #8]	@ zero_extendqisi2
  69 0036 1146     		mov	r1, r2
  70 0038 0F22     		movs	r2, #15
  71 003a 8A40     		lsls	r2, r2, r1
  72 003c 1A60     		str	r2, [r3]
  73              		.loc 1 107 0
  74 003e 019B     		ldr	r3, [sp, #4]
  75 0040 1B6A     		ldr	r3, [r3, #32]
  76 0042 1B68     		ldr	r3, [r3]
  77 0044 019A     		ldr	r2, [sp, #4]
  78 0046 126A     		ldr	r2, [r2, #32]
  79 0048 1268     		ldr	r2, [r2]
  80 004a 1268     		ldr	r2, [r2]
  81 004c 22F00F02 		bic	r2, r2, #15
  82 0050 1A60     		str	r2, [r3]
  83 0052 019B     		ldr	r3, [sp, #4]
  84 0054 1B6A     		ldr	r3, [r3, #32]
  85 0056 5B68     		ldr	r3, [r3, #4]
  86 0058 019A     		ldr	r2, [sp, #4]
  87 005a 126A     		ldr	r2, [r2, #32]
  88 005c 127A     		ldrb	r2, [r2, #8]	@ zero_extendqisi2
  89 005e 1146     		mov	r1, r2
  90 0060 0F22     		movs	r2, #15
  91 0062 8A40     		lsls	r2, r2, r1
  92 0064 1A60     		str	r2, [r3]
  93              		.loc 1 111 0
  94 0066 019B     		ldr	r3, [sp, #4]
  95 0068 5B68     		ldr	r3, [r3, #4]
  96 006a 1B68     		ldr	r3, [r3]
  97 006c 002B     		cmp	r3, #0
  98 006e 0FD0     		beq	.L3
  99              		.loc 1 111 0 is_stmt 0 discriminator 1
 100 0070 019B     		ldr	r3, [sp, #4]
 101 0072 0422     		movs	r2, #4
 102 0074 1A70     		strb	r2, [r3]
 103 0076 019B     		ldr	r3, [sp, #4]
 104 0078 5B68     		ldr	r3, [r3, #4]
 105 007a 1B68     		ldr	r3, [r3]
 106 007c 0198     		ldr	r0, [sp, #4]
 107 007e 9847     		blx	r3
 108 0080 019B     		ldr	r3, [sp, #4]
 109 0082 1B78     		ldrb	r3, [r3]	@ zero_extendqisi2
 110 0084 042B     		cmp	r3, #4
 111 0086 06D1     		bne	.L5
 112              		.loc 1 111 0 discriminator 3
 113 0088 019B     		ldr	r3, [sp, #4]
 114 008a 0222     		movs	r2, #2
ARM GAS  /tmp/cck4I4CR.s 			page 3


 115 008c 1A70     		strb	r2, [r3]
 116 008e 02E0     		b	.L5
 117              	.L3:
 118              		.loc 1 111 0 discriminator 2
 119 0090 019B     		ldr	r3, [sp, #4]
 120 0092 0222     		movs	r2, #2
 121 0094 1A70     		strb	r2, [r3]
 122              	.L5:
 123              	.LBB2:
 124              		.loc 1 111 0 discriminator 4
 125 0096 2023     		movs	r3, #32
 126              	@ 111 "/opt/R2P/core/ChibiOS_2.6.5/os/hal/platforms/STM32/SPIv2/spi_lld.c" 1
 127 0098 83F31188 		msr     BASEPRI, r3
 128              	@ 0 "" 2
 129              		.thumb
 130              	.LBE2:
 131 009c FFF7FEFF 		bl	dbg_check_lock_from_isr
 132 00a0 019B     		ldr	r3, [sp, #4]
 133 00a2 9B68     		ldr	r3, [r3, #8]
 134 00a4 002B     		cmp	r3, #0
 135 00a6 0BD0     		beq	.L6
 136              	.LBB3:
 137              		.loc 1 111 0 discriminator 5
 138 00a8 019B     		ldr	r3, [sp, #4]
 139 00aa 9B68     		ldr	r3, [r3, #8]
 140 00ac 0393     		str	r3, [sp, #12]
 141 00ae 019B     		ldr	r3, [sp, #4]
 142 00b0 0022     		movs	r2, #0
 143 00b2 9A60     		str	r2, [r3, #8]
 144 00b4 039B     		ldr	r3, [sp, #12]
 145 00b6 0022     		movs	r2, #0
 146 00b8 9A62     		str	r2, [r3, #40]
 147 00ba 0398     		ldr	r0, [sp, #12]
 148 00bc FFF7FEFF 		bl	chSchReadyI
 149              	.L6:
 150              	.LBE3:
 151              		.loc 1 111 0 discriminator 7
 152 00c0 FFF7FEFF 		bl	dbg_check_unlock_from_isr
 153              	.LBB4:
 154 00c4 0023     		movs	r3, #0
 155              	@ 111 "/opt/R2P/core/ChibiOS_2.6.5/os/hal/platforms/STM32/SPIv2/spi_lld.c" 1
 156 00c6 83F31188 		msr     BASEPRI, r3
 157              	@ 0 "" 2
 158              		.thumb
 159              	.LBE4:
 160              		.loc 1 112 0 is_stmt 1 discriminator 7
 161 00ca 05B0     		add	sp, sp, #20
 162              		.cfi_def_cfa_offset 4
 163              		@ sp needed
 164 00cc 5DF804FB 		ldr	pc, [sp], #4
 165              		.cfi_endproc
 166              	.LFE118:
 167              		.size	spi_lld_serve_rx_interrupt, .-spi_lld_serve_rx_interrupt
 168              		.align	2
 169              		.thumb
 170              		.thumb_func
 171              		.type	spi_lld_serve_tx_interrupt, %function
ARM GAS  /tmp/cck4I4CR.s 			page 4


 172              	spi_lld_serve_tx_interrupt:
 173              	.LFB119:
 174              		.loc 1 120 0
 175              		.cfi_startproc
 176              		@ args = 0, pretend = 0, frame = 8
 177              		@ frame_needed = 0, uses_anonymous_args = 0
 178 00d0 00B5     		push	{lr}
 179              		.cfi_def_cfa_offset 4
 180              		.cfi_offset 14, -4
 181 00d2 83B0     		sub	sp, sp, #12
 182              		.cfi_def_cfa_offset 16
 183 00d4 0190     		str	r0, [sp, #4]
 184 00d6 0091     		str	r1, [sp]
 185              		.loc 1 125 0
 186 00d8 009B     		ldr	r3, [sp]
 187 00da 03F00803 		and	r3, r3, #8
 188 00de 002B     		cmp	r3, #0
 189 00e0 01D0     		beq	.L7
 190              		.loc 1 126 0
 191 00e2 FFF7FEFF 		bl	port_halt
 192              	.L7:
 193              		.loc 1 132 0
 194 00e6 03B0     		add	sp, sp, #12
 195              		.cfi_def_cfa_offset 4
 196              		@ sp needed
 197 00e8 5DF804FB 		ldr	pc, [sp], #4
 198              		.cfi_endproc
 199              	.LFE119:
 200              		.size	spi_lld_serve_tx_interrupt, .-spi_lld_serve_tx_interrupt
 201              		.align	2
 202              		.global	spi_lld_init
 203              		.thumb
 204              		.thumb_func
 205              		.type	spi_lld_init, %function
 206              	spi_lld_init:
 207              	.LFB120:
 208              		.loc 1 147 0
 209              		.cfi_startproc
 210              		@ args = 0, pretend = 0, frame = 0
 211              		@ frame_needed = 0, uses_anonymous_args = 0
 212 00ec 08B5     		push	{r3, lr}
 213              		.cfi_def_cfa_offset 8
 214              		.cfi_offset 3, -8
 215              		.cfi_offset 14, -4
 216              		.loc 1 149 0
 217 00ee 0C4B     		ldr	r3, .L10
 218 00f0 4FF6FF72 		movw	r2, #65535
 219 00f4 1A80     		strh	r2, [r3]	@ movhi
 220              		.loc 1 170 0
 221 00f6 0B48     		ldr	r0, .L10+4
 222 00f8 FFF7FEFF 		bl	spiObjectInit
 223              		.loc 1 171 0
 224 00fc 094B     		ldr	r3, .L10+4
 225 00fe 0A4A     		ldr	r2, .L10+8
 226 0100 DA61     		str	r2, [r3, #28]
 227              		.loc 1 172 0
 228 0102 084B     		ldr	r3, .L10+4
ARM GAS  /tmp/cck4I4CR.s 			page 5


 229 0104 094A     		ldr	r2, .L10+12
 230 0106 1A62     		str	r2, [r3, #32]
 231              		.loc 1 173 0
 232 0108 064B     		ldr	r3, .L10+4
 233 010a 094A     		ldr	r2, .L10+16
 234 010c 5A62     		str	r2, [r3, #36]
 235              		.loc 1 174 0
 236 010e 054B     		ldr	r3, .L10+4
 237 0110 41F20A02 		movw	r2, #4106
 238 0114 9A62     		str	r2, [r3, #40]
 239              		.loc 1 180 0
 240 0116 034B     		ldr	r3, .L10+4
 241 0118 41F21802 		movw	r2, #4120
 242 011c DA62     		str	r2, [r3, #44]
 243              		.loc 1 204 0
 244 011e 08BD     		pop	{r3, pc}
 245              	.L11:
 246              		.align	2
 247              	.L10:
 248 0120 00000000 		.word	dummytx
 249 0124 00000000 		.word	SPID2
 250 0128 00380040 		.word	1073756160
 251 012c 24000000 		.word	_stm32_dma_streams+36
 252 0130 30000000 		.word	_stm32_dma_streams+48
 253              		.cfi_endproc
 254              	.LFE120:
 255              		.size	spi_lld_init, .-spi_lld_init
 256              		.section	.rodata
 257              		.align	2
 258              	.LC0:
 259 0000 7370695F 		.ascii	"spi_lld_start(), #3\000"
 259      6C6C645F 
 259      73746172 
 259      7428292C 
 259      20233300 
 260              		.align	2
 261              	.LC1:
 262 0014 7370695F 		.ascii	"spi_lld_start(), #4\000"
 262      6C6C645F 
 262      73746172 
 262      7428292C 
 262      20233400 
 263              		.text
 264              		.align	2
 265              		.global	spi_lld_start
 266              		.thumb
 267              		.thumb_func
 268              		.type	spi_lld_start, %function
 269              	spi_lld_start:
 270              	.LFB121:
 271              		.loc 1 213 0
 272              		.cfi_startproc
 273              		@ args = 0, pretend = 0, frame = 16
 274              		@ frame_needed = 0, uses_anonymous_args = 0
 275 0134 00B5     		push	{lr}
 276              		.cfi_def_cfa_offset 4
 277              		.cfi_offset 14, -4
ARM GAS  /tmp/cck4I4CR.s 			page 6


 278 0136 85B0     		sub	sp, sp, #20
 279              		.cfi_def_cfa_offset 24
 280 0138 0190     		str	r0, [sp, #4]
 281              		.loc 1 217 0
 282 013a 019B     		ldr	r3, [sp, #4]
 283 013c 1B78     		ldrb	r3, [r3]	@ zero_extendqisi2
 284 013e 012B     		cmp	r3, #1
 285 0140 3BD1     		bne	.L13
 286              		.loc 1 235 0
 287 0142 019B     		ldr	r3, [sp, #4]
 288 0144 444A     		ldr	r2, .L20
 289 0146 9342     		cmp	r3, r2
 290 0148 29D1     		bne	.L14
 291              	.LBB5:
 292              		.loc 1 237 0
 293 014a 019B     		ldr	r3, [sp, #4]
 294 014c 1B6A     		ldr	r3, [r3, #32]
 295 014e 1846     		mov	r0, r3
 296 0150 0A21     		movs	r1, #10
 297 0152 424A     		ldr	r2, .L20+4
 298 0154 019B     		ldr	r3, [sp, #4]
 299 0156 FFF7FEFF 		bl	dmaStreamAllocate
 300 015a 0346     		mov	r3, r0
 301 015c 8DF80F30 		strb	r3, [sp, #15]
 302              		.loc 1 241 0
 303 0160 9DF80F30 		ldrb	r3, [sp, #15]	@ zero_extendqisi2
 304 0164 002B     		cmp	r3, #0
 305 0166 02D0     		beq	.L15
 306              		.loc 1 241 0 is_stmt 0 discriminator 1
 307 0168 3D48     		ldr	r0, .L20+8
 308 016a FFF7FEFF 		bl	chDbgPanic
 309              	.L15:
 310              		.loc 1 242 0 is_stmt 1
 311 016e 019B     		ldr	r3, [sp, #4]
 312 0170 5B6A     		ldr	r3, [r3, #36]
 313 0172 1846     		mov	r0, r3
 314 0174 0A21     		movs	r1, #10
 315 0176 3B4A     		ldr	r2, .L20+12
 316 0178 019B     		ldr	r3, [sp, #4]
 317 017a FFF7FEFF 		bl	dmaStreamAllocate
 318 017e 0346     		mov	r3, r0
 319 0180 8DF80F30 		strb	r3, [sp, #15]
 320              		.loc 1 246 0
 321 0184 9DF80F30 		ldrb	r3, [sp, #15]	@ zero_extendqisi2
 322 0188 002B     		cmp	r3, #0
 323 018a 02D0     		beq	.L16
 324              		.loc 1 246 0 is_stmt 0 discriminator 1
 325 018c 3648     		ldr	r0, .L20+16
 326 018e FFF7FEFF 		bl	chDbgPanic
 327              	.L16:
 328              		.loc 1 247 0 is_stmt 1
 329 0192 364A     		ldr	r2, .L20+20
 330 0194 354B     		ldr	r3, .L20+20
 331 0196 DB69     		ldr	r3, [r3, #28]
 332 0198 43F48043 		orr	r3, r3, #16384
 333 019c D361     		str	r3, [r2, #28]
 334              	.L14:
ARM GAS  /tmp/cck4I4CR.s 			page 7


 335              	.LBE5:
 336              		.loc 1 268 0
 337 019e 019B     		ldr	r3, [sp, #4]
 338 01a0 1B6A     		ldr	r3, [r3, #32]
 339 01a2 1B68     		ldr	r3, [r3]
 340 01a4 019A     		ldr	r2, [sp, #4]
 341 01a6 D269     		ldr	r2, [r2, #28]
 342 01a8 0C32     		adds	r2, r2, #12
 343 01aa 9A60     		str	r2, [r3, #8]
 344              		.loc 1 269 0
 345 01ac 019B     		ldr	r3, [sp, #4]
 346 01ae 5B6A     		ldr	r3, [r3, #36]
 347 01b0 1B68     		ldr	r3, [r3]
 348 01b2 019A     		ldr	r2, [sp, #4]
 349 01b4 D269     		ldr	r2, [r2, #28]
 350 01b6 0C32     		adds	r2, r2, #12
 351 01b8 9A60     		str	r2, [r3, #8]
 352              	.L13:
 353              		.loc 1 273 0
 354 01ba 019B     		ldr	r3, [sp, #4]
 355 01bc 5B68     		ldr	r3, [r3, #4]
 356 01be 9B89     		ldrh	r3, [r3, #12]
 357 01c0 03F47063 		and	r3, r3, #3840
 358 01c4 0293     		str	r3, [sp, #8]
 359              		.loc 1 274 0
 360 01c6 029B     		ldr	r3, [sp, #8]
 361 01c8 002B     		cmp	r3, #0
 362 01ca 03D0     		beq	.L17
 363              		.loc 1 274 0 is_stmt 0 discriminator 1
 364 01cc 029B     		ldr	r3, [sp, #8]
 365 01ce B3F5E06F 		cmp	r3, #1792
 366 01d2 0CD8     		bhi	.L18
 367              	.L17:
 368              		.loc 1 276 0 is_stmt 1
 369 01d4 019B     		ldr	r3, [sp, #4]
 370 01d6 9B6A     		ldr	r3, [r3, #40]
 371              		.loc 1 277 0
 372 01d8 23F47062 		bic	r2, r3, #3840
 373              		.loc 1 276 0
 374 01dc 019B     		ldr	r3, [sp, #4]
 375 01de 9A62     		str	r2, [r3, #40]
 376              		.loc 1 278 0
 377 01e0 019B     		ldr	r3, [sp, #4]
 378 01e2 DB6A     		ldr	r3, [r3, #44]
 379              		.loc 1 279 0
 380 01e4 23F47062 		bic	r2, r3, #3840
 381              		.loc 1 278 0
 382 01e8 019B     		ldr	r3, [sp, #4]
 383 01ea DA62     		str	r2, [r3, #44]
 384 01ec 0FE0     		b	.L19
 385              	.L18:
 386              		.loc 1 283 0
 387 01ee 019B     		ldr	r3, [sp, #4]
 388 01f0 9B6A     		ldr	r3, [r3, #40]
 389 01f2 23F47063 		bic	r3, r3, #3840
 390              		.loc 1 284 0
 391 01f6 43F4A062 		orr	r2, r3, #1280
ARM GAS  /tmp/cck4I4CR.s 			page 8


 392              		.loc 1 283 0
 393 01fa 019B     		ldr	r3, [sp, #4]
 394 01fc 9A62     		str	r2, [r3, #40]
 395              		.loc 1 285 0
 396 01fe 019B     		ldr	r3, [sp, #4]
 397 0200 DB6A     		ldr	r3, [r3, #44]
 398 0202 23F47063 		bic	r3, r3, #3840
 399              		.loc 1 286 0
 400 0206 43F4A062 		orr	r2, r3, #1280
 401              		.loc 1 285 0
 402 020a 019B     		ldr	r3, [sp, #4]
 403 020c DA62     		str	r2, [r3, #44]
 404              	.L19:
 405              		.loc 1 289 0
 406 020e 019B     		ldr	r3, [sp, #4]
 407 0210 DB69     		ldr	r3, [r3, #28]
 408 0212 0022     		movs	r2, #0
 409 0214 1A80     		strh	r2, [r3]	@ movhi
 410              		.loc 1 290 0
 411 0216 019B     		ldr	r3, [sp, #4]
 412 0218 DB69     		ldr	r3, [r3, #28]
 413 021a 019A     		ldr	r2, [sp, #4]
 414 021c 5268     		ldr	r2, [r2, #4]
 415 021e 5289     		ldrh	r2, [r2, #10]
 416 0220 42F44172 		orr	r2, r2, #772
 417 0224 92B2     		uxth	r2, r2
 418 0226 1A80     		strh	r2, [r3]	@ movhi
 419              		.loc 1 292 0
 420 0228 019B     		ldr	r3, [sp, #4]
 421 022a DA69     		ldr	r2, [r3, #28]
 422 022c 019B     		ldr	r3, [sp, #4]
 423 022e 5B68     		ldr	r3, [r3, #4]
 424 0230 9B89     		ldrh	r3, [r3, #12]
 425 0232 43F48053 		orr	r3, r3, #4096
 426 0236 43F00703 		orr	r3, r3, #7
 427 023a 9BB2     		uxth	r3, r3
 428 023c 9380     		strh	r3, [r2, #4]	@ movhi
 429              		.loc 1 294 0
 430 023e 019B     		ldr	r3, [sp, #4]
 431 0240 DB69     		ldr	r3, [r3, #28]
 432 0242 019A     		ldr	r2, [sp, #4]
 433 0244 D269     		ldr	r2, [r2, #28]
 434 0246 1288     		ldrh	r2, [r2]	@ movhi
 435 0248 92B2     		uxth	r2, r2
 436 024a 42F04002 		orr	r2, r2, #64
 437 024e 92B2     		uxth	r2, r2
 438 0250 1A80     		strh	r2, [r3]	@ movhi
 439              		.loc 1 295 0
 440 0252 05B0     		add	sp, sp, #20
 441              		.cfi_def_cfa_offset 4
 442              		@ sp needed
 443 0254 5DF804FB 		ldr	pc, [sp], #4
 444              	.L21:
 445              		.align	2
 446              	.L20:
 447 0258 00000000 		.word	SPID2
 448 025c 00000000 		.word	spi_lld_serve_rx_interrupt
ARM GAS  /tmp/cck4I4CR.s 			page 9


 449 0260 00000000 		.word	.LC0
 450 0264 00000000 		.word	spi_lld_serve_tx_interrupt
 451 0268 14000000 		.word	.LC1
 452 026c 00100240 		.word	1073876992
 453              		.cfi_endproc
 454              	.LFE121:
 455              		.size	spi_lld_start, .-spi_lld_start
 456              		.align	2
 457              		.global	spi_lld_stop
 458              		.thumb
 459              		.thumb_func
 460              		.type	spi_lld_stop, %function
 461              	spi_lld_stop:
 462              	.LFB122:
 463              		.loc 1 304 0
 464              		.cfi_startproc
 465              		@ args = 0, pretend = 0, frame = 8
 466              		@ frame_needed = 0, uses_anonymous_args = 0
 467 0270 00B5     		push	{lr}
 468              		.cfi_def_cfa_offset 4
 469              		.cfi_offset 14, -4
 470 0272 83B0     		sub	sp, sp, #12
 471              		.cfi_def_cfa_offset 16
 472 0274 0190     		str	r0, [sp, #4]
 473              		.loc 1 307 0
 474 0276 019B     		ldr	r3, [sp, #4]
 475 0278 1B78     		ldrb	r3, [r3]	@ zero_extendqisi2
 476 027a 022B     		cmp	r3, #2
 477 027c 1BD1     		bne	.L22
 478              		.loc 1 310 0
 479 027e 019B     		ldr	r3, [sp, #4]
 480 0280 DB69     		ldr	r3, [r3, #28]
 481 0282 0022     		movs	r2, #0
 482 0284 1A80     		strh	r2, [r3]	@ movhi
 483              		.loc 1 311 0
 484 0286 019B     		ldr	r3, [sp, #4]
 485 0288 DB69     		ldr	r3, [r3, #28]
 486 028a 0022     		movs	r2, #0
 487 028c 9A80     		strh	r2, [r3, #4]	@ movhi
 488              		.loc 1 312 0
 489 028e 019B     		ldr	r3, [sp, #4]
 490 0290 1B6A     		ldr	r3, [r3, #32]
 491 0292 1846     		mov	r0, r3
 492 0294 FFF7FEFF 		bl	dmaStreamRelease
 493              		.loc 1 313 0
 494 0298 019B     		ldr	r3, [sp, #4]
 495 029a 5B6A     		ldr	r3, [r3, #36]
 496 029c 1846     		mov	r0, r3
 497 029e FFF7FEFF 		bl	dmaStreamRelease
 498              		.loc 1 320 0
 499 02a2 019B     		ldr	r3, [sp, #4]
 500 02a4 054A     		ldr	r2, .L24
 501 02a6 9342     		cmp	r3, r2
 502 02a8 05D1     		bne	.L22
 503              		.loc 1 321 0
 504 02aa 054A     		ldr	r2, .L24+4
 505 02ac 044B     		ldr	r3, .L24+4
ARM GAS  /tmp/cck4I4CR.s 			page 10


 506 02ae DB69     		ldr	r3, [r3, #28]
 507 02b0 23F48043 		bic	r3, r3, #16384
 508 02b4 D361     		str	r3, [r2, #28]
 509              	.L22:
 510              		.loc 1 328 0
 511 02b6 03B0     		add	sp, sp, #12
 512              		.cfi_def_cfa_offset 4
 513              		@ sp needed
 514 02b8 5DF804FB 		ldr	pc, [sp], #4
 515              	.L25:
 516              		.align	2
 517              	.L24:
 518 02bc 00000000 		.word	SPID2
 519 02c0 00100240 		.word	1073876992
 520              		.cfi_endproc
 521              	.LFE122:
 522              		.size	spi_lld_stop, .-spi_lld_stop
 523              		.align	2
 524              		.global	spi_lld_select
 525              		.thumb
 526              		.thumb_func
 527              		.type	spi_lld_select, %function
 528              	spi_lld_select:
 529              	.LFB123:
 530              		.loc 1 337 0
 531              		.cfi_startproc
 532              		@ args = 0, pretend = 0, frame = 8
 533              		@ frame_needed = 0, uses_anonymous_args = 0
 534              		@ link register save eliminated.
 535 02c4 82B0     		sub	sp, sp, #8
 536              		.cfi_def_cfa_offset 8
 537 02c6 0190     		str	r0, [sp, #4]
 538              		.loc 1 339 0
 539 02c8 019B     		ldr	r3, [sp, #4]
 540 02ca 5B68     		ldr	r3, [r3, #4]
 541 02cc 5B68     		ldr	r3, [r3, #4]
 542 02ce 019A     		ldr	r2, [sp, #4]
 543 02d0 5268     		ldr	r2, [r2, #4]
 544 02d2 1289     		ldrh	r2, [r2, #8]
 545 02d4 1146     		mov	r1, r2
 546 02d6 0122     		movs	r2, #1
 547 02d8 8A40     		lsls	r2, r2, r1
 548 02da 92B2     		uxth	r2, r2
 549 02dc 5A83     		strh	r2, [r3, #26]	@ movhi
 550              		.loc 1 340 0
 551 02de 02B0     		add	sp, sp, #8
 552              		.cfi_def_cfa_offset 0
 553              		@ sp needed
 554 02e0 7047     		bx	lr
 555              		.cfi_endproc
 556              	.LFE123:
 557              		.size	spi_lld_select, .-spi_lld_select
 558 02e2 00BF     		.align	2
 559              		.global	spi_lld_unselect
 560              		.thumb
 561              		.thumb_func
 562              		.type	spi_lld_unselect, %function
ARM GAS  /tmp/cck4I4CR.s 			page 11


 563              	spi_lld_unselect:
 564              	.LFB124:
 565              		.loc 1 350 0
 566              		.cfi_startproc
 567              		@ args = 0, pretend = 0, frame = 8
 568              		@ frame_needed = 0, uses_anonymous_args = 0
 569              		@ link register save eliminated.
 570 02e4 82B0     		sub	sp, sp, #8
 571              		.cfi_def_cfa_offset 8
 572 02e6 0190     		str	r0, [sp, #4]
 573              		.loc 1 352 0
 574 02e8 019B     		ldr	r3, [sp, #4]
 575 02ea 5B68     		ldr	r3, [r3, #4]
 576 02ec 5B68     		ldr	r3, [r3, #4]
 577 02ee 019A     		ldr	r2, [sp, #4]
 578 02f0 5268     		ldr	r2, [r2, #4]
 579 02f2 1289     		ldrh	r2, [r2, #8]
 580 02f4 1146     		mov	r1, r2
 581 02f6 0122     		movs	r2, #1
 582 02f8 8A40     		lsls	r2, r2, r1
 583 02fa 92B2     		uxth	r2, r2
 584 02fc 1A83     		strh	r2, [r3, #24]	@ movhi
 585              		.loc 1 353 0
 586 02fe 02B0     		add	sp, sp, #8
 587              		.cfi_def_cfa_offset 0
 588              		@ sp needed
 589 0300 7047     		bx	lr
 590              		.cfi_endproc
 591              	.LFE124:
 592              		.size	spi_lld_unselect, .-spi_lld_unselect
 593 0302 00BF     		.align	2
 594              		.global	spi_lld_ignore
 595              		.thumb
 596              		.thumb_func
 597              		.type	spi_lld_ignore, %function
 598              	spi_lld_ignore:
 599              	.LFB125:
 600              		.loc 1 366 0
 601              		.cfi_startproc
 602              		@ args = 0, pretend = 0, frame = 8
 603              		@ frame_needed = 0, uses_anonymous_args = 0
 604              		@ link register save eliminated.
 605 0304 82B0     		sub	sp, sp, #8
 606              		.cfi_def_cfa_offset 8
 607 0306 0190     		str	r0, [sp, #4]
 608 0308 0091     		str	r1, [sp]
 609              		.loc 1 368 0
 610 030a 019B     		ldr	r3, [sp, #4]
 611 030c 1B6A     		ldr	r3, [r3, #32]
 612 030e 1B68     		ldr	r3, [r3]
 613 0310 194A     		ldr	r2, .L29
 614 0312 DA60     		str	r2, [r3, #12]
 615              		.loc 1 369 0
 616 0314 019B     		ldr	r3, [sp, #4]
 617 0316 1B6A     		ldr	r3, [r3, #32]
 618 0318 1B68     		ldr	r3, [r3]
 619 031a 009A     		ldr	r2, [sp]
ARM GAS  /tmp/cck4I4CR.s 			page 12


 620 031c 5A60     		str	r2, [r3, #4]
 621              		.loc 1 370 0
 622 031e 019B     		ldr	r3, [sp, #4]
 623 0320 1B6A     		ldr	r3, [r3, #32]
 624 0322 1B68     		ldr	r3, [r3]
 625 0324 019A     		ldr	r2, [sp, #4]
 626 0326 926A     		ldr	r2, [r2, #40]
 627 0328 1A60     		str	r2, [r3]
 628              		.loc 1 372 0
 629 032a 019B     		ldr	r3, [sp, #4]
 630 032c 5B6A     		ldr	r3, [r3, #36]
 631 032e 1B68     		ldr	r3, [r3]
 632 0330 124A     		ldr	r2, .L29+4
 633 0332 DA60     		str	r2, [r3, #12]
 634              		.loc 1 373 0
 635 0334 019B     		ldr	r3, [sp, #4]
 636 0336 5B6A     		ldr	r3, [r3, #36]
 637 0338 1B68     		ldr	r3, [r3]
 638 033a 009A     		ldr	r2, [sp]
 639 033c 5A60     		str	r2, [r3, #4]
 640              		.loc 1 374 0
 641 033e 019B     		ldr	r3, [sp, #4]
 642 0340 5B6A     		ldr	r3, [r3, #36]
 643 0342 1B68     		ldr	r3, [r3]
 644 0344 019A     		ldr	r2, [sp, #4]
 645 0346 D26A     		ldr	r2, [r2, #44]
 646 0348 1A60     		str	r2, [r3]
 647              		.loc 1 376 0
 648 034a 019B     		ldr	r3, [sp, #4]
 649 034c 1B6A     		ldr	r3, [r3, #32]
 650 034e 1B68     		ldr	r3, [r3]
 651 0350 019A     		ldr	r2, [sp, #4]
 652 0352 126A     		ldr	r2, [r2, #32]
 653 0354 1268     		ldr	r2, [r2]
 654 0356 1268     		ldr	r2, [r2]
 655 0358 42F00102 		orr	r2, r2, #1
 656 035c 1A60     		str	r2, [r3]
 657              		.loc 1 377 0
 658 035e 019B     		ldr	r3, [sp, #4]
 659 0360 5B6A     		ldr	r3, [r3, #36]
 660 0362 1B68     		ldr	r3, [r3]
 661 0364 019A     		ldr	r2, [sp, #4]
 662 0366 526A     		ldr	r2, [r2, #36]
 663 0368 1268     		ldr	r2, [r2]
 664 036a 1268     		ldr	r2, [r2]
 665 036c 42F00102 		orr	r2, r2, #1
 666 0370 1A60     		str	r2, [r3]
 667              		.loc 1 378 0
 668 0372 02B0     		add	sp, sp, #8
 669              		.cfi_def_cfa_offset 0
 670              		@ sp needed
 671 0374 7047     		bx	lr
 672              	.L30:
 673 0376 00BF     		.align	2
 674              	.L29:
 675 0378 02000000 		.word	dummyrx
 676 037c 00000000 		.word	dummytx
ARM GAS  /tmp/cck4I4CR.s 			page 13


 677              		.cfi_endproc
 678              	.LFE125:
 679              		.size	spi_lld_ignore, .-spi_lld_ignore
 680              		.align	2
 681              		.global	spi_lld_exchange
 682              		.thumb
 683              		.thumb_func
 684              		.type	spi_lld_exchange, %function
 685              	spi_lld_exchange:
 686              	.LFB126:
 687              		.loc 1 396 0
 688              		.cfi_startproc
 689              		@ args = 0, pretend = 0, frame = 16
 690              		@ frame_needed = 0, uses_anonymous_args = 0
 691              		@ link register save eliminated.
 692 0380 84B0     		sub	sp, sp, #16
 693              		.cfi_def_cfa_offset 16
 694 0382 0390     		str	r0, [sp, #12]
 695 0384 0291     		str	r1, [sp, #8]
 696 0386 0192     		str	r2, [sp, #4]
 697 0388 0093     		str	r3, [sp]
 698              		.loc 1 398 0
 699 038a 039B     		ldr	r3, [sp, #12]
 700 038c 1B6A     		ldr	r3, [r3, #32]
 701 038e 1B68     		ldr	r3, [r3]
 702 0390 009A     		ldr	r2, [sp]
 703 0392 DA60     		str	r2, [r3, #12]
 704              		.loc 1 399 0
 705 0394 039B     		ldr	r3, [sp, #12]
 706 0396 1B6A     		ldr	r3, [r3, #32]
 707 0398 1B68     		ldr	r3, [r3]
 708 039a 029A     		ldr	r2, [sp, #8]
 709 039c 5A60     		str	r2, [r3, #4]
 710              		.loc 1 400 0
 711 039e 039B     		ldr	r3, [sp, #12]
 712 03a0 1B6A     		ldr	r3, [r3, #32]
 713 03a2 1B68     		ldr	r3, [r3]
 714 03a4 039A     		ldr	r2, [sp, #12]
 715 03a6 926A     		ldr	r2, [r2, #40]
 716 03a8 42F08002 		orr	r2, r2, #128
 717 03ac 1A60     		str	r2, [r3]
 718              		.loc 1 402 0
 719 03ae 039B     		ldr	r3, [sp, #12]
 720 03b0 5B6A     		ldr	r3, [r3, #36]
 721 03b2 1B68     		ldr	r3, [r3]
 722 03b4 019A     		ldr	r2, [sp, #4]
 723 03b6 DA60     		str	r2, [r3, #12]
 724              		.loc 1 403 0
 725 03b8 039B     		ldr	r3, [sp, #12]
 726 03ba 5B6A     		ldr	r3, [r3, #36]
 727 03bc 1B68     		ldr	r3, [r3]
 728 03be 029A     		ldr	r2, [sp, #8]
 729 03c0 5A60     		str	r2, [r3, #4]
 730              		.loc 1 404 0
 731 03c2 039B     		ldr	r3, [sp, #12]
 732 03c4 5B6A     		ldr	r3, [r3, #36]
 733 03c6 1B68     		ldr	r3, [r3]
ARM GAS  /tmp/cck4I4CR.s 			page 14


 734 03c8 039A     		ldr	r2, [sp, #12]
 735 03ca D26A     		ldr	r2, [r2, #44]
 736 03cc 42F08002 		orr	r2, r2, #128
 737 03d0 1A60     		str	r2, [r3]
 738              		.loc 1 406 0
 739 03d2 039B     		ldr	r3, [sp, #12]
 740 03d4 1B6A     		ldr	r3, [r3, #32]
 741 03d6 1B68     		ldr	r3, [r3]
 742 03d8 039A     		ldr	r2, [sp, #12]
 743 03da 126A     		ldr	r2, [r2, #32]
 744 03dc 1268     		ldr	r2, [r2]
 745 03de 1268     		ldr	r2, [r2]
 746 03e0 42F00102 		orr	r2, r2, #1
 747 03e4 1A60     		str	r2, [r3]
 748              		.loc 1 407 0
 749 03e6 039B     		ldr	r3, [sp, #12]
 750 03e8 5B6A     		ldr	r3, [r3, #36]
 751 03ea 1B68     		ldr	r3, [r3]
 752 03ec 039A     		ldr	r2, [sp, #12]
 753 03ee 526A     		ldr	r2, [r2, #36]
 754 03f0 1268     		ldr	r2, [r2]
 755 03f2 1268     		ldr	r2, [r2]
 756 03f4 42F00102 		orr	r2, r2, #1
 757 03f8 1A60     		str	r2, [r3]
 758              		.loc 1 408 0
 759 03fa 04B0     		add	sp, sp, #16
 760              		.cfi_def_cfa_offset 0
 761              		@ sp needed
 762 03fc 7047     		bx	lr
 763              		.cfi_endproc
 764              	.LFE126:
 765              		.size	spi_lld_exchange, .-spi_lld_exchange
 766 03fe 00BF     		.align	2
 767              		.global	spi_lld_send
 768              		.thumb
 769              		.thumb_func
 770              		.type	spi_lld_send, %function
 771              	spi_lld_send:
 772              	.LFB127:
 773              		.loc 1 423 0
 774              		.cfi_startproc
 775              		@ args = 0, pretend = 0, frame = 16
 776              		@ frame_needed = 0, uses_anonymous_args = 0
 777              		@ link register save eliminated.
 778 0400 84B0     		sub	sp, sp, #16
 779              		.cfi_def_cfa_offset 16
 780 0402 0390     		str	r0, [sp, #12]
 781 0404 0291     		str	r1, [sp, #8]
 782 0406 0192     		str	r2, [sp, #4]
 783              		.loc 1 425 0
 784 0408 039B     		ldr	r3, [sp, #12]
 785 040a 1B6A     		ldr	r3, [r3, #32]
 786 040c 1B68     		ldr	r3, [r3]
 787 040e 1A4A     		ldr	r2, .L33
 788 0410 DA60     		str	r2, [r3, #12]
 789              		.loc 1 426 0
 790 0412 039B     		ldr	r3, [sp, #12]
ARM GAS  /tmp/cck4I4CR.s 			page 15


 791 0414 1B6A     		ldr	r3, [r3, #32]
 792 0416 1B68     		ldr	r3, [r3]
 793 0418 029A     		ldr	r2, [sp, #8]
 794 041a 5A60     		str	r2, [r3, #4]
 795              		.loc 1 427 0
 796 041c 039B     		ldr	r3, [sp, #12]
 797 041e 1B6A     		ldr	r3, [r3, #32]
 798 0420 1B68     		ldr	r3, [r3]
 799 0422 039A     		ldr	r2, [sp, #12]
 800 0424 926A     		ldr	r2, [r2, #40]
 801 0426 1A60     		str	r2, [r3]
 802              		.loc 1 429 0
 803 0428 039B     		ldr	r3, [sp, #12]
 804 042a 5B6A     		ldr	r3, [r3, #36]
 805 042c 1B68     		ldr	r3, [r3]
 806 042e 019A     		ldr	r2, [sp, #4]
 807 0430 DA60     		str	r2, [r3, #12]
 808              		.loc 1 430 0
 809 0432 039B     		ldr	r3, [sp, #12]
 810 0434 5B6A     		ldr	r3, [r3, #36]
 811 0436 1B68     		ldr	r3, [r3]
 812 0438 029A     		ldr	r2, [sp, #8]
 813 043a 5A60     		str	r2, [r3, #4]
 814              		.loc 1 431 0
 815 043c 039B     		ldr	r3, [sp, #12]
 816 043e 5B6A     		ldr	r3, [r3, #36]
 817 0440 1B68     		ldr	r3, [r3]
 818 0442 039A     		ldr	r2, [sp, #12]
 819 0444 D26A     		ldr	r2, [r2, #44]
 820 0446 42F08002 		orr	r2, r2, #128
 821 044a 1A60     		str	r2, [r3]
 822              		.loc 1 433 0
 823 044c 039B     		ldr	r3, [sp, #12]
 824 044e 1B6A     		ldr	r3, [r3, #32]
 825 0450 1B68     		ldr	r3, [r3]
 826 0452 039A     		ldr	r2, [sp, #12]
 827 0454 126A     		ldr	r2, [r2, #32]
 828 0456 1268     		ldr	r2, [r2]
 829 0458 1268     		ldr	r2, [r2]
 830 045a 42F00102 		orr	r2, r2, #1
 831 045e 1A60     		str	r2, [r3]
 832              		.loc 1 434 0
 833 0460 039B     		ldr	r3, [sp, #12]
 834 0462 5B6A     		ldr	r3, [r3, #36]
 835 0464 1B68     		ldr	r3, [r3]
 836 0466 039A     		ldr	r2, [sp, #12]
 837 0468 526A     		ldr	r2, [r2, #36]
 838 046a 1268     		ldr	r2, [r2]
 839 046c 1268     		ldr	r2, [r2]
 840 046e 42F00102 		orr	r2, r2, #1
 841 0472 1A60     		str	r2, [r3]
 842              		.loc 1 435 0
 843 0474 04B0     		add	sp, sp, #16
 844              		.cfi_def_cfa_offset 0
 845              		@ sp needed
 846 0476 7047     		bx	lr
 847              	.L34:
ARM GAS  /tmp/cck4I4CR.s 			page 16


 848              		.align	2
 849              	.L33:
 850 0478 02000000 		.word	dummyrx
 851              		.cfi_endproc
 852              	.LFE127:
 853              		.size	spi_lld_send, .-spi_lld_send
 854              		.align	2
 855              		.global	spi_lld_receive
 856              		.thumb
 857              		.thumb_func
 858              		.type	spi_lld_receive, %function
 859              	spi_lld_receive:
 860              	.LFB128:
 861              		.loc 1 450 0
 862              		.cfi_startproc
 863              		@ args = 0, pretend = 0, frame = 16
 864              		@ frame_needed = 0, uses_anonymous_args = 0
 865              		@ link register save eliminated.
 866 047c 84B0     		sub	sp, sp, #16
 867              		.cfi_def_cfa_offset 16
 868 047e 0390     		str	r0, [sp, #12]
 869 0480 0291     		str	r1, [sp, #8]
 870 0482 0192     		str	r2, [sp, #4]
 871              		.loc 1 452 0
 872 0484 039B     		ldr	r3, [sp, #12]
 873 0486 1B6A     		ldr	r3, [r3, #32]
 874 0488 1B68     		ldr	r3, [r3]
 875 048a 019A     		ldr	r2, [sp, #4]
 876 048c DA60     		str	r2, [r3, #12]
 877              		.loc 1 453 0
 878 048e 039B     		ldr	r3, [sp, #12]
 879 0490 1B6A     		ldr	r3, [r3, #32]
 880 0492 1B68     		ldr	r3, [r3]
 881 0494 029A     		ldr	r2, [sp, #8]
 882 0496 5A60     		str	r2, [r3, #4]
 883              		.loc 1 454 0
 884 0498 039B     		ldr	r3, [sp, #12]
 885 049a 1B6A     		ldr	r3, [r3, #32]
 886 049c 1B68     		ldr	r3, [r3]
 887 049e 039A     		ldr	r2, [sp, #12]
 888 04a0 926A     		ldr	r2, [r2, #40]
 889 04a2 42F08002 		orr	r2, r2, #128
 890 04a6 1A60     		str	r2, [r3]
 891              		.loc 1 456 0
 892 04a8 039B     		ldr	r3, [sp, #12]
 893 04aa 5B6A     		ldr	r3, [r3, #36]
 894 04ac 1B68     		ldr	r3, [r3]
 895 04ae 114A     		ldr	r2, .L36
 896 04b0 DA60     		str	r2, [r3, #12]
 897              		.loc 1 457 0
 898 04b2 039B     		ldr	r3, [sp, #12]
 899 04b4 5B6A     		ldr	r3, [r3, #36]
 900 04b6 1B68     		ldr	r3, [r3]
 901 04b8 029A     		ldr	r2, [sp, #8]
 902 04ba 5A60     		str	r2, [r3, #4]
 903              		.loc 1 458 0
 904 04bc 039B     		ldr	r3, [sp, #12]
ARM GAS  /tmp/cck4I4CR.s 			page 17


 905 04be 5B6A     		ldr	r3, [r3, #36]
 906 04c0 1B68     		ldr	r3, [r3]
 907 04c2 039A     		ldr	r2, [sp, #12]
 908 04c4 D26A     		ldr	r2, [r2, #44]
 909 04c6 1A60     		str	r2, [r3]
 910              		.loc 1 460 0
 911 04c8 039B     		ldr	r3, [sp, #12]
 912 04ca 1B6A     		ldr	r3, [r3, #32]
 913 04cc 1B68     		ldr	r3, [r3]
 914 04ce 039A     		ldr	r2, [sp, #12]
 915 04d0 126A     		ldr	r2, [r2, #32]
 916 04d2 1268     		ldr	r2, [r2]
 917 04d4 1268     		ldr	r2, [r2]
 918 04d6 42F00102 		orr	r2, r2, #1
 919 04da 1A60     		str	r2, [r3]
 920              		.loc 1 461 0
 921 04dc 039B     		ldr	r3, [sp, #12]
 922 04de 5B6A     		ldr	r3, [r3, #36]
 923 04e0 1B68     		ldr	r3, [r3]
 924 04e2 039A     		ldr	r2, [sp, #12]
 925 04e4 526A     		ldr	r2, [r2, #36]
 926 04e6 1268     		ldr	r2, [r2]
 927 04e8 1268     		ldr	r2, [r2]
 928 04ea 42F00102 		orr	r2, r2, #1
 929 04ee 1A60     		str	r2, [r3]
 930              		.loc 1 462 0
 931 04f0 04B0     		add	sp, sp, #16
 932              		.cfi_def_cfa_offset 0
 933              		@ sp needed
 934 04f2 7047     		bx	lr
 935              	.L37:
 936              		.align	2
 937              	.L36:
 938 04f4 00000000 		.word	dummytx
 939              		.cfi_endproc
 940              	.LFE128:
 941              		.size	spi_lld_receive, .-spi_lld_receive
 942              		.align	2
 943              		.global	spi_lld_polled_exchange
 944              		.thumb
 945              		.thumb_func
 946              		.type	spi_lld_polled_exchange, %function
 947              	spi_lld_polled_exchange:
 948              	.LFB129:
 949              		.loc 1 476 0
 950              		.cfi_startproc
 951              		@ args = 0, pretend = 0, frame = 16
 952              		@ frame_needed = 0, uses_anonymous_args = 0
 953              		@ link register save eliminated.
 954 04f8 84B0     		sub	sp, sp, #16
 955              		.cfi_def_cfa_offset 16
 956 04fa 0190     		str	r0, [sp, #4]
 957 04fc 0B46     		mov	r3, r1
 958 04fe ADF80230 		strh	r3, [sp, #2]	@ movhi
 959              		.loc 1 483 0
 960 0502 019B     		ldr	r3, [sp, #4]
 961 0504 5B68     		ldr	r3, [r3, #4]
ARM GAS  /tmp/cck4I4CR.s 			page 18


 962 0506 9B89     		ldrh	r3, [r3, #12]
 963 0508 03F47063 		and	r3, r3, #3840
 964 050c B3F5E06F 		cmp	r3, #1792
 965 0510 16DC     		bgt	.L39
 966              	.LBB6:
 967              		.loc 1 486 0
 968 0512 019B     		ldr	r3, [sp, #4]
 969 0514 DB69     		ldr	r3, [r3, #28]
 970 0516 0C33     		adds	r3, r3, #12
 971 0518 0393     		str	r3, [sp, #12]
 972              		.loc 1 487 0
 973 051a BDF80230 		ldrh	r3, [sp, #2]	@ movhi
 974 051e DAB2     		uxtb	r2, r3
 975 0520 039B     		ldr	r3, [sp, #12]
 976 0522 1A70     		strb	r2, [r3]
 977              		.loc 1 488 0
 978 0524 00BF     		nop
 979              	.L40:
 980              		.loc 1 488 0 is_stmt 0 discriminator 1
 981 0526 019B     		ldr	r3, [sp, #4]
 982 0528 DB69     		ldr	r3, [r3, #28]
 983 052a 1B89     		ldrh	r3, [r3, #8]	@ movhi
 984 052c 9BB2     		uxth	r3, r3
 985 052e 03F00103 		and	r3, r3, #1
 986 0532 002B     		cmp	r3, #0
 987 0534 F7D0     		beq	.L40
 988              		.loc 1 490 0 is_stmt 1
 989 0536 039B     		ldr	r3, [sp, #12]
 990 0538 1B78     		ldrb	r3, [r3]
 991 053a DBB2     		uxtb	r3, r3
 992 053c 9BB2     		uxth	r3, r3
 993 053e 11E0     		b	.L41
 994              	.L39:
 995              	.LBE6:
 996              		.loc 1 493 0
 997 0540 019B     		ldr	r3, [sp, #4]
 998 0542 DB69     		ldr	r3, [r3, #28]
 999 0544 BDF80220 		ldrh	r2, [sp, #2]	@ movhi
 1000 0548 9A81     		strh	r2, [r3, #12]	@ movhi
 1001              		.loc 1 494 0
 1002 054a 00BF     		nop
 1003              	.L42:
 1004              		.loc 1 494 0 is_stmt 0 discriminator 1
 1005 054c 019B     		ldr	r3, [sp, #4]
 1006 054e DB69     		ldr	r3, [r3, #28]
 1007 0550 1B89     		ldrh	r3, [r3, #8]	@ movhi
 1008 0552 9BB2     		uxth	r3, r3
 1009 0554 03F00103 		and	r3, r3, #1
 1010 0558 002B     		cmp	r3, #0
 1011 055a F7D0     		beq	.L42
 1012              		.loc 1 496 0 is_stmt 1
 1013 055c 019B     		ldr	r3, [sp, #4]
 1014 055e DB69     		ldr	r3, [r3, #28]
 1015 0560 9B89     		ldrh	r3, [r3, #12]	@ movhi
 1016 0562 9BB2     		uxth	r3, r3
 1017              	.L41:
 1018              		.loc 1 498 0
ARM GAS  /tmp/cck4I4CR.s 			page 19


 1019 0564 1846     		mov	r0, r3
 1020 0566 04B0     		add	sp, sp, #16
 1021              		.cfi_def_cfa_offset 0
 1022              		@ sp needed
 1023 0568 7047     		bx	lr
 1024              		.cfi_endproc
 1025              	.LFE129:
 1026              		.size	spi_lld_polled_exchange, .-spi_lld_polled_exchange
 1027              	.Letext0:
 1028              		.file 2 "/opt/R2P/tools/gcc-arm-none-eabi-4_9-2014q4/lib/gcc/arm-none-eabi/4.9.3/include/stddef.h"
 1029              		.file 3 "/opt/R2P/tools/gcc-arm-none-eabi-4_9-2014q4/arm-none-eabi/include/machine/_default_types.
 1030              		.file 4 "/opt/R2P/tools/gcc-arm-none-eabi-4_9-2014q4/arm-none-eabi/include/stdint.h"
 1031              		.file 5 "/opt/R2P/core/ChibiOS_2.6.5/os/ports/GCC/ARMCMx/chtypes.h"
 1032              		.file 6 "/opt/R2P/core/ChibiOS_2.6.5/os/kernel/include/chlists.h"
 1033              		.file 7 "/opt/R2P/core/ChibiOS_2.6.5/os/kernel/include/chthreads.h"
 1034              		.file 8 "/opt/R2P/core/ChibiOS_2.6.5/os/ports/GCC/ARMCMx/chcore_v7m.h"
 1035              		.file 9 "/opt/R2P/core/ChibiOS_2.6.5/os/kernel/include/chmtx.h"
 1036              		.file 10 "/opt/R2P/core/ChibiOS_2.6.5/os/hal/platforms/STM32F30x/stm32f30x.h"
 1037              		.file 11 "/opt/R2P/core/ChibiOS_2.6.5/os/hal/platforms/STM32F30x/stm32_dma.h"
 1038              		.file 12 "/opt/R2P/core/ChibiOS_2.6.5/os/hal/platforms/STM32/GPIOv2/pal_lld.h"
 1039              		.file 13 "/opt/R2P/core/ChibiOS_2.6.5/os/hal/include/spi.h"
 1040              		.file 14 "/opt/R2P/core/ChibiOS_2.6.5/os/hal/platforms/STM32/SPIv2/spi_lld.h"
 1041              		.file 15 "/opt/R2P/core/ChibiOS_2.6.5/os/ports/common/ARMCMx/CMSIS/include/core_cm4.h"