ARM GAS  /tmp/cck4I4CR.s 			page 1


   1              		.syntax unified
   2              		.cpu cortex-m4
   3              		.fpu softvfp
   4              		.eabi_attribute 20, 1
   5              		.eabi_attribute 21, 1
   6              		.eabi_attribute 23, 3
   7              		.eabi_attribute 24, 1
   8              		.eabi_attribute 25, 1
   9              		.eabi_attribute 26, 1
  10              		.eabi_attribute 30, 6
  11              		.eabi_attribute 34, 1
  12              		.eabi_attribute 18, 4
  13              		.thumb
  14              		.file	"spi_lld.c"
  15              		.text
  16              	.Ltext0:
  17              		.cfi_sections	.debug_frame
  18              		.comm	SPID2,48,4
  19              		.bss
  20              		.align	1
  21              	dummytx:
  22 0000 0000     		.space	2
  23              		.align	1
  24              	dummyrx:
  25 0002 0000     		.space	2
  26              		.text
  27              		.align	2
  28              		.thumb
  29              		.thumb_func
  30              		.type	spi_lld_serve_rx_interrupt, %function
  31              	spi_lld_serve_rx_interrupt:
  32              	.LFB118:
  33              		.file 1 "/opt/R2P/core/ChibiOS_2.6.5/os/hal/platforms/STM32/SPIv2/spi_lld.c"
  34              		.loc 1 94 0
  35              		.cfi_startproc
  36              		@ args = 0, pretend = 0, frame = 16
  37              		@ frame_needed = 0, uses_anonymous_args = 0
  38 0000 00B5     		push	{lr}
  39              		.cfi_def_cfa_offset 4
  40              		.cfi_offset 14, -4
  41 0002 85B0     		sub	sp, sp, #20
  42              		.cfi_def_cfa_offset 24
  43 0004 0190     		str	r0, [sp, #4]
  44 0006 0091     		str	r1, [sp]
  45              		.loc 1 98 0
  46 0008 009B     		ldr	r3, [sp]
  47 000a 03F00803 		and	r3, r3, #8
  48 000e 002B     		cmp	r3, #0
  49 0010 01D0     		beq	.L2
  50              		.loc 1 99 0
  51 0012 FFF7FEFF 		bl	port_halt
  52              	.L2:
  53              		.loc 1 106 0
  54 0016 019B     		ldr	r3, [sp, #4]
  55 0018 5B6A     		ldr	r3, [r3, #36]
  56 001a 1B68     		ldr	r3, [r3]
  57 001c 019A     		ldr	r2, [sp, #4]
ARM GAS  /tmp/cck4I4CR.s 			page 2


  58 001e 526A     		ldr	r2, [r2, #36]
  59 0020 1268     		ldr	r2, [r2]
  60 0022 1268     		ldr	r2, [r2]
  61 0024 22F00F02 		bic	r2, r2, #15
  62 0028 1A60     		str	r2, [r3]
  63 002a 019B     		ldr	r3, [sp, #4]
  64 002c 5B6A     		ldr	r3, [r3, #36]
  65 002e 5B68     		ldr	r3, [r3, #4]
  66 0030 019A     		ldr	r2, [sp, #4]
  67 0032 526A     		ldr	r2, [r2, #36]
  68 0034 127A     		ldrb	r2, [r2, #8]	@ zero_extendqisi2
  69 0036 1146     		mov	r1, r2
  70 0038 0F22     		movs	r2, #15
  71 003a 8A40     		lsls	r2, r2, r1
  72 003c 1A60     		str	r2, [r3]
  73              		.loc 1 107 0
  74 003e 019B     		ldr	r3, [sp, #4]
  75 0040 1B6A     		ldr	r3, [r3, #32]
  76 0042 1B68     		ldr	r3, [r3]
  77 0044 019A     		ldr	r2, [sp, #4]
  78 0046 126A     		ldr	r2, [r2, #32]
  79 0048 1268     		ldr	r2, [r2]
  80 004a 1268     		ldr	r2, [r2]
  81 004c 22F00F02 		bic	r2, r2, #15
  82 0050 1A60     		str	r2, [r3]
  83 0052 019B     		ldr	r3, [sp, #4]
  84 0054 1B6A     		ldr	r3, [r3, #32]
  85 0056 5B68     		ldr	r3, [r3, #4]
  86 0058 019A     		ldr	r2, [sp, #4]
  87 005a 126A     		ldr	r2, [r2, #32]
  88 005c 127A     		ldrb	r2, [r2, #8]	@ zero_extendqisi2
  89 005e 1146     		mov	r1, r2
  90 0060 0F22     		movs	r2, #15
  91 0062 8A40     		lsls	r2, r2, r1
  92 0064 1A60     		str	r2, [r3]
  93              		.loc 1 111 0
  94 0066 019B     		ldr	r3, [sp, #4]
  95 0068 5B68     		ldr	r3, [r3, #4]
  96 006a 1B68     		ldr	r3, [r3]
  97 006c 002B     		cmp	r3, #0
  98 006e 0FD0     		beq	.L3
  99              		.loc 1 111 0 is_stmt 0 discriminator 1
 100 0070 019B     		ldr	r3, [sp, #4]
 101 0072 0422     		movs	r2, #4
 102 0074 1A70     		strb	r2, [r3]
 103 0076 019B     		ldr	r3, [sp, #4]
 104 0078 5B68     		ldr	r3, [r3, #4]
 105 007a 1B68     		ldr	r3, [r3]
 106 007c 0198     		ldr	r0, [sp, #4]
 107 007e 9847     		blx	r3
 108 0080 019B     		ldr	r3, [sp, #4]
 109 0082 1B78     		ldrb	r3, [r3]	@ zero_extendqisi2
 110 0084 042B     		cmp	r3, #4
 111 0086 06D1     		bne	.L5
 112              		.loc 1 111 0 discriminator 3
 113 0088 019B     		ldr	r3, [sp, #4]
 114 008a 0222     		movs	r2, #2
ARM GAS  /tmp/cck4I4CR.s 			page 3


 115 008c 1A70     		strb	r2, [r3]
 116 008e 02E0     		b	.L5
 117              	.L3:
 118              		.loc 1 111 0 discriminator 2
 119 0090 019B     		ldr	r3, [sp, #4]
 120 0092 0222     		movs	r2, #2
 121 0094 1A70     		strb	r2, [r3]
 122              	.L5:
 123              	.LBB2:
 124              		.loc 1 111 0 discriminator 4
 125 0096 2023     		movs	r3, #32
 126              	@ 111 "/opt/R2P/core/ChibiOS_2.6.5/os/hal/platforms/STM32/SPIv2/spi_lld.c" 1
 127 0098 83F31188 		msr     BASEPRI, r3
 128              	@ 0 "" 2
 129              		.thumb
 130              	.LBE2:
 131 009c FFF7FEFF 		bl	dbg_check_lock_from_isr
 132 00a0 019B     		ldr	r3, [sp, #4]
 133 00a2 9B68     		ldr	r3, [r3, #8]
 134 00a4 002B     		cmp	r3, #0
 135 00a6 0BD0     		beq	.L6
 136              	.LBB3:
 137              		.loc 1 111 0 discriminator 5
 138 00a8 019B     		ldr	r3, [sp, #4]
 139 00aa 9B68     		ldr	r3, [r3, #8]
 140 00ac 0393     		str	r3, [sp, #12]
 141 00ae 019B     		ldr	r3, [sp, #4]
 142 00b0 0022     		movs	r2, #0
 143 00b2 9A60     		str	r2, [r3, #8]
 144 00b4 039B     		ldr	r3, [sp, #12]
 145 00b6 0022     		movs	r2, #0
 146 00b8 9A62     		str	r2, [r3, #40]
 147 00ba 0398     		ldr	r0, [sp, #12]
 148 00bc FFF7FEFF 		bl	chSchReadyI
 149              	.L6:
 150              	.LBE3:
 151              		.loc 1 111 0 discriminator 7
 152 00c0 FFF7FEFF 		bl	dbg_check_unlock_from_isr
 153              	.LBB4:
 154 00c4 0023     		movs	r3, #0
 155              	@ 111 "/opt/R2P/core/ChibiOS_2.6.5/os/hal/platforms/STM32/SPIv2/spi_lld.c" 1
 156 00c6 83F31188 		msr     BASEPRI, r3
 157              	@ 0 "" 2
 158              		.thumb
 159              	.LBE4:
 160              		.loc 1 112 0 is_stmt 1 discriminator 7
 161 00ca 05B0     		add	sp, sp, #20
 162              		.cfi_def_cfa_offset 4
 163              		@ sp needed
 164 00cc 5DF804FB 		ldr	pc, [sp], #4
 165              		.cfi_endproc
 166              	.LFE118:
 167              		.size	spi_lld_serve_rx_interrupt, .-spi_lld_serve_rx_interrupt
 168              		.align	2
 169              		.thumb
 170              		.thumb_func
 171              		.type	spi_lld_serve_tx_interrupt, %function
ARM GAS  /tmp/cck4I4CR.s 			page 4


 172              	spi_lld_serve_tx_interrupt:
 173              	.LFB119:
 174              		.loc 1 120 0
 175              		.cfi_startproc
 176              		@ args = 0, pretend = 0, frame = 8
 177              		@ frame_needed = 0, uses_anonymous_args = 0
 178 00d0 00B5     		push	{lr}
 179              		.cfi_def_cfa_offset 4
 180              		.cfi_offset 14, -4
 181 00d2 83B0     		sub	sp, sp, #12
 182              		.cfi_def_cfa_offset 16
 183 00d4 0190     		str	r0, [sp, #4]
 184 00d6 0091     		str	r1, [sp]
 185              		.loc 1 125 0
 186 00d8 009B     		ldr	r3, [sp]
 187 00da 03F00803 		and	r3, r3, #8
 188 00de 002B     		cmp	r3, #0
 189 00e0 01D0     		beq	.L7
 190              		.loc 1 126 0
 191 00e2 FFF7FEFF 		bl	port_halt
 192              	.L7:
 193              		.loc 1 132 0
 194 00e6 03B0     		add	sp, sp, #12
 195              		.cfi_def_cfa_offset 4
 196              		@ sp needed
 197 00e8 5DF804FB 		ldr	pc, [sp], #4
 198              		.cfi_endproc
 199              	.LFE119:
 200              		.size	spi_lld_serve_tx_interrupt, .-spi_lld_serve_tx_interrupt
 201              		.align	2
 202              		.global	spi_lld_init
 203              		.thumb
 204              		.thumb_func
 205              		.type	spi_lld_init, %function
 206              	spi_lld_init:
 207              	.LFB120:
 208              		.loc 1 147 0
 209              		.cfi_startproc
 210              		@ args = 0, pretend = 0, frame = 0
 211              		@ frame_needed = 0, uses_anonymous_args = 0
 212 00ec 08B5     		push	{r3, lr}
 213              		.cfi_def_cfa_offset 8
 214              		.cfi_offset 3, -8
 215              		.cfi_offset 14, -4
 216              		.loc 1 149 0
 217 00ee 0C4B     		ldr	r3, .L10
 218 00f0 4FF6FF72 		movw	r2, #65535
 219 00f4 1A80     		strh	r2, [r3]	@ movhi
 220              		.loc 1 170 0
 221 00f6 0B48     		ldr	r0, .L10+4
 222 00f8 FFF7FEFF 		bl	spiObjectInit
 223              		.loc 1 171 0
 224 00fc 094B     		ldr	r3, .L10+4
 225 00fe 0A4A     		ldr	r2, .L10+8
 226 0100 DA61     		str	r2, [r3, #28]
 227              		.loc 1 172 0
 228 0102 084B     		ldr	r3, .L10+4
ARM GAS  /tmp/cck4I4CR.s 			page 5


 229 0104 094A     		ldr	r2, .L10+12
 230 0106 1A62     		str	r2, [r3, #32]
 231              		.loc 1 173 0
 232 0108 064B     		ldr	r3, .L10+4
 233 010a 094A     		ldr	r2, .L10+16
 234 010c 5A62     		str	r2, [r3, #36]
 235              		.loc 1 174 0
 236 010e 054B     		ldr	r3, .L10+4
 237 0110 41F20A02 		movw	r2, #4106
 238 0114 9A62     		str	r2, [r3, #40]
 239              		.loc 1 180 0
 240 0116 034B     		ldr	r3, .L10+4
 241 0118 41F21802 		movw	r2, #4120
 242 011c DA62     		str	r2, [r3, #44]
 243              		.loc 1 204 0
 244 011e 08BD     		pop	{r3, pc}
 245              	.L11:
 246              		.align	2
 247              	.L10:
 248 0120 00000000 		.word	dummytx
 249 0124 00000000 		.word	SPID2
 250 0128 00380040 		.word	1073756160
 251 012c 24000000 		.word	_stm32_dma_streams+36
 252 0130 30000000 		.word	_stm32_dma_streams+48
 253              		.cfi_endproc
 254              	.LFE120:
 255              		.size	spi_lld_init, .-spi_lld_init
 256              		.section	.rodata
 257              		.align	2
 258              	.LC0:
 259 0000 7370695F 		.ascii	"spi_lld_start(), #3\000"
 259      6C6C645F 
 259      73746172 
 259      7428292C 
 259      20233300 
 260              		.align	2
 261              	.LC1:
 262 0014 7370695F 		.ascii	"spi_lld_start(), #4\000"
 262      6C6C645F 
 262      73746172 
 262      7428292C 
 262      20233400 
 263              		.text
 264              		.align	2
 265              		.global	spi_lld_start
 266              		.thumb
 267              		.thumb_func
 268              		.type	spi_lld_start, %function
 269              	spi_lld_start:
 270              	.LFB121:
 271              		.loc 1 213 0
 272              		.cfi_startproc
 273              		@ args = 0, pretend = 0, frame = 16
 274              		@ frame_needed = 0, uses_anonymous_args = 0
 275 0134 00B5     		push	{lr}
 276              		.cfi_def_cfa_offset 4
 277              		.cfi_offset 14, -4
ARM GAS  /tmp/cck4I4CR.s 			page 6


 278 0136 85B0     		sub	sp, sp, #20
 279              		.cfi_def_cfa_offset 24
 280 0138 0190     		str	r0, [sp, #4]
 281              		.loc 1 217 0
 282 013a 019B     		ldr	r3, [sp, #4]
 283 013c 1B78     		ldrb	r3, [r3]	@ zero_extendqisi2
 284 013e 012B     		cmp	r3, #1
 285 0140 3BD1     		bne	.L13
 286              		.loc 1 235 0
 287 0142 019B     		ldr	r3, [sp, #4]
 288 0144 444A     		ldr	r2, .L20
 289 0146 9342     		cmp	r3, r2
 290 0148 29D1     		bne	.L14
 291              	.LBB5:
 292              		.loc 1 237 0
 293 014a 019B     		ldr	r3, [sp, #4]
 294 014c 1B6A     		ldr	r3, [r3, #32]
 295 014e 1846     		mov	r0, r3
 296 0150 0A21     		movs	r1, #10
 297 0152 424A     		ldr	r2, .L20+4
 298 0154 019B     		ldr	r3, [sp, #4]
 299 0156 FFF7FEFF 		bl	dmaStreamAllocate
 300 015a 0346     		mov	r3, r0
 301 015c 8DF80F30 		strb	r3, [sp, #15]
 302              		.loc 1 241 0
 303 0160 9DF80F30 		ldrb	r3, [sp, #15]	@ zero_extendqisi2
 304 0164 002B     		cmp	r3, #0
 305 0166 02D0     		beq	.L15
 306              		.loc 1 241 0 is_stmt 0 discriminator 1
 307 0168 3D48     		ldr	r0, .L20+8
 308 016a FFF7FEFF 		bl	chDbgPanic
 309              	.L15:
 310              		.loc 1 242 0 is_stmt 1
 311 016e 019B     		ldr	r3, [sp, #4]
 312 0170 5B6A     		ldr	r3, [r3, #36]
 313 0172 1846     		mov	r0, r3
 314 0174 0A21     		movs	r1, #10
 315 0176 3B4A     		ldr	r2, .L20+12
 316 0178 019B     		ldr	r3, [sp, #4]
 317 017a FFF7FEFF 		bl	dmaStreamAllocate
 318 017e 0346     		mov	r3, r0
 319 0180 8DF80F30 		strb	r3, [sp, #15]
 320              		.loc 1 246 0
 321 0184 9DF80F30 		ldrb	r3, [sp, #15]	@ zero_extendqisi2
 322 0188 002B     		cmp	r3, #0
 323 018a 02D0     		beq	.L16
 324              		.loc 1 246 0 is_stmt 0 discriminator 1
 325 018c 3648     		ldr	r0, .L20+16
 326 018e FFF7FEFF 		bl	chDbgPanic
 327              	.L16:
 328              		.loc 1 247 0 is_stmt 1
 329 0192 364A     		ldr	r2, .L20+20
 330 0194 354B     		ldr	r3, .L20+20
 331 0196 DB69     		ldr	r3, [r3, #28]
 332 0198 43F48043 		orr	r3, r3, #16384
 333 019c D361     		str	r3, [r2, #28]
 334              	.L14:
ARM GAS  /tmp/cck4I4CR.s 			page 7


 335              	.LBE5:
 336              		.loc 1 268 0
 337 019e 019B     		ldr	r3, [sp, #4]
 338 01a0 1B6A     		ldr	r3, [r3, #32]
 339 01a2 1B68     		ldr	r3, [r3]
 340 01a4 019A     		ldr	r2, [sp, #4]
 341 01a6 D269     		ldr	r2, [r2, #28]
 342 01a8 0C32     		adds	r2, r2, #12
 343 01aa 9A60     		str	r2, [r3, #8]
 344              		.loc 1 269 0
 345 01ac 019B     		ldr	r3, [sp, #4]
 346 01ae 5B6A     		ldr	r3, [r3, #36]
 347 01b0 1B68     		ldr	r3, [r3]
 348 01b2 019A     		ldr	r2, [sp, #4]
 349 01b4 D269     		ldr	r2, [r2, #28]
 350 01b6 0C32     		adds	r2, r2, #12
 351 01b8 9A60     		str	r2, [r3, #8]
 352              	.L13:
 353              		.loc 1 273 0
 354 01ba 019B     		ldr	r3, [sp, #4]
 355 01bc 5B68     		ldr	r3, [r3, #4]
 356 01be 9B89     		ldrh	r3, [r3, #12]
 357 01c0 03F47063 		and	r3, r3, #3840
 358 01c4 0293     		str	r3, [sp, #8]
 359              		.loc 1 274 0
 360 01c6 029B     		ldr	r3, [sp, #8]
 361 01c8 002B     		cmp	r3, #0
 362 01ca 03D0     		beq	.L17
 363              		.loc 1 274 0 is_stmt 0 discriminator 1
 364 01cc 029B     		ldr	r3, [sp, #8]
 365 01ce B3F5E06F 		cmp	r3, #1792
 366 01d2 0CD8     		bhi	.L18
 367              	.L17:
 368              		.loc 1 276 0 is_stmt 1
 369 01d4 019B     		ldr	r3, [sp, #4]
 370 01d6 9B6A     		ldr	r3, [r3, #40]
 371              		.loc 1 277 0
 372 01d8 23F47062 		bic	r2, r3, #3840
 373              		.loc 1 276 0
 374 01dc 019B     		ldr	r3, [sp, #4]
 375 01de 9A62     		str	r2, [r3, #40]
 376              		.loc 1 278 0
 377 01e0 019B     		ldr	r3, [sp, #4]
 378 01e2 DB6A     		ldr	r3, [r3, #44]
 379              		.loc 1 279 0
 380 01e4 23F47062 		bic	r2, r3, #3840
 381              		.loc 1 278 0
 382 01e8 019B     		ldr	r3, [sp, #4]
 383 01ea DA62     		str	r2, [r3, #44]
 384 01ec 0FE0     		b	.L19
 385              	.L18:
 386              		.loc 1 283 0
 387 01ee 019B     		ldr	r3, [sp, #4]
 388 01f0 9B6A     		ldr	r3, [r3, #40]
 389 01f2 23F47063 		bic	r3, r3, #3840
 390              		.loc 1 284 0
 391 01f6 43F4A062 		orr	r2, r3, #1280
ARM GAS  /tmp/cck4I4CR.s 			page 8


 392              		.loc 1 283 0
 393 01fa 019B     		ldr	r3, [sp, #4]
 394 01fc 9A62     		str	r2, [r3, #40]
 395              		.loc 1 285 0
 396 01fe 019B     		ldr	r3, [sp, #4]
 397 0200 DB6A     		ldr	r3, [r3, #44]
 398 0202 23F47063 		bic	r3, r3, #3840
 399              		.loc 1 286 0
 400 0206 43F4A062 		orr	r2, r3, #1280
 401              		.loc 1 285 0
 402 020a 019B     		ldr	r3, [sp, #4]
 403 020c DA62     		str	r2, [r3, #44]
 404              	.L19:
 405              		.loc 1 289 0
 406 020e 019B     		ldr	r3, [sp, #4]
 407 0210 DB69     		ldr	r3, [r3, #28]
 408 0212 0022     		movs	r2, #0
 409 0214 1A80     		strh	r2, [r3]	@ movhi
 410              		.loc 1 290 0
 411 0216 019B     		ldr	r3, [sp, #4]
 412 0218 DB69     		ldr	r3, [r3, #28]
 413 021a 019A     		ldr	r2, [sp, #4]
 414 021c 5268     		ldr	r2, [r2, #4]
 415 021e 5289     		ldrh	r2, [r2, #10]
 416 0220 42F44172 		orr	r2, r2, #772
 417 0224 92B2     		uxth	r2, r2
 418 0226 1A80     		strh	r2, [r3]	@ movhi
 419              		.loc 1 292 0
 420 0228 019B     		ldr	r3, [sp, #4]
 421 022a DA69     		ldr	r2, [r3, #28]
 422 022c 019B     		ldr	r3, [sp, #4]
 423 022e 5B68     		ldr	r3, [r3, #4]
 424 0230 9B89     		ldrh	r3, [r3, #12]
 425 0232 43F48053 		orr	r3, r3, #4096
 426 0236 43F00703 		orr	r3, r3, #7
 427 023a 9BB2     		uxth	r3, r3
 428 023c 9380     		strh	r3, [r2, #4]	@ movhi
 429              		.loc 1 294 0
 430 023e 019B     		ldr	r3, [sp, #4]
 431 0240 DB69     		ldr	r3, [r3, #28]
 432 0242 019A     		ldr	r2, [sp, #4]
 433 0244 D269     		ldr	r2, [r2, #28]
 434 0246 1288     		ldrh	r2, [r2]	@ movhi
 435 0248 92B2     		uxth	r2, r2
 436 024a 42F04002 		orr	r2, r2, #64
 437 024e 92B2     		uxth	r2, r2
 438 0250 1A80     		strh	r2, [r3]	@ movhi
 439              		.loc 1 295 0
 440 0252 05B0     		add	sp, sp, #20
 441              		.cfi_def_cfa_offset 4
 442              		@ sp needed
 443 0254 5DF804FB 		ldr	pc, [sp], #4
 444              	.L21:
 445              		.align	2
 446              	.L20:
 447 0258 00000000 		.word	SPID2
 448 025c 00000000 		.word	spi_lld_serve_rx_interrupt
ARM GAS  /tmp/cck4I4CR.s 			page 9


 449 0260 00000000 		.word	.LC0
 450 0264 00000000 		.word	spi_lld_serve_tx_interrupt
 451 0268 14000000 		.word	.LC1
 452 026c 00100240 		.word	1073876992
 453              		.cfi_endproc
 454              	.LFE121:
 455              		.size	spi_lld_start, .-spi_lld_start
 456              		.align	2
 457              		.global	spi_lld_stop
 458              		.thumb
 459              		.thumb_func
 460              		.type	spi_lld_stop, %function
 461              	spi_lld_stop:
 462              	.LFB122:
 463              		.loc 1 304 0
 464              		.cfi_startproc
 465              		@ args = 0, pretend = 0, frame = 8
 466              		@ frame_needed = 0, uses_anonymous_args = 0
 467 0270 00B5     		push	{lr}
 468              		.cfi_def_cfa_offset 4
 469              		.cfi_offset 14, -4
 470 0272 83B0     		sub	sp, sp, #12
 471              		.cfi_def_cfa_offset 16
 472 0274 0190     		str	r0, [sp, #4]
 473              		.loc 1 307 0
 474 0276 019B     		ldr	r3, [sp, #4]
 475 0278 1B78     		ldrb	r3, [r3]	@ zero_extendqisi2
 476 027a 022B     		cmp	r3, #2
 477 027c 1BD1     		bne	.L22
 478              		.loc 1 310 0
 479 027e 019B     		ldr	r3, [sp, #4]
 480 0280 DB69     		ldr	r3, [r3, #28]
 481 0282 0022     		movs	r2, #0
 482 0284 1A80     		strh	r2, [r3]	@ movhi
 483              		.loc 1 311 0
 484 0286 019B     		ldr	r3, [sp, #4]
 485 0288 DB69     		ldr	r3, [r3, #28]
 486 028a 0022     		movs	r2, #0
 487 028c 9A80     		strh	r2, [r3, #4]	@ movhi
 488              		.loc 1 312 0
 489 028e 019B     		ldr	r3, [sp, #4]
 490 0290 1B6A     		ldr	r3, [r3, #32]
 491 0292 1846     		mov	r0, r3
 492 0294 FFF7FEFF 		bl	dmaStreamRelease
 493              		.loc 1 313 0
 494 0298 019B     		ldr	r3, [sp, #4]
 495 029a 5B6A     		ldr	r3, [r3, #36]
 496 029c 1846     		mov	r0, r3
 497 029e FFF7FEFF 		bl	dmaStreamRelease
 498              		.loc 1 320 0
 499 02a2 019B     		ldr	r3, [sp, #4]
 500 02a4 054A     		ldr	r2, .L24
 501 02a6 9342     		cmp	r3, r2
 502 02a8 05D1     		bne	.L22
 503              		.loc 1 321 0
 504 02aa 054A     		ldr	r2, .L24+4
 505 02ac 044B     		ldr	r3, .L24+4
ARM GAS  /tmp/cck4I4CR.s 			page 10


 506 02ae DB69     		ldr	r3, [r3, #28]
 507 02b0 23F48043 		bic	r3, r3, #16384
 508 02b4 D361     		str	r3, [r2, #28]
 509              	.L22:
 510              		.loc 1 328 0
 511 02b6 03B0     		add	sp, sp, #12
 512              		.cfi_def_cfa_offset 4
 513              		@ sp needed
 514 02b8 5DF804FB 		ldr	pc, [sp], #4
 515              	.L25:
 516              		.align	2
 517              	.L24:
 518 02bc 00000000 		.word	SPID2
 519 02c0 00100240 		.word	1073876992
 520              		.cfi_endproc
 521              	.LFE122:
 522              		.size	spi_lld_stop, .-spi_lld_stop
 523              		.align	2
 524              		.global	spi_lld_select
 525              		.thumb
 526              		.thumb_func
 527              		.type	spi_lld_select, %function
 528              	spi_lld_select:
 529              	.LFB123:
 530              		.loc 1 337 0
 531              		.cfi_startproc
 532              		@ args = 0, pretend = 0, frame = 8
 533              		@ frame_needed = 0, uses_anonymous_args = 0
 534              		@ link register save eliminated.
 535 02c4 82B0     		sub	sp, sp, #8
 536              		.cfi_def_cfa_offset 8
 537 02c6 0190     		str	r0, [sp, #4]
 538              		.loc 1 339 0
 539 02c8 019B     		ldr	r3, [sp, #4]
 540 02ca 5B68     		ldr	r3, [r3, #4]
 541 02cc 5B68     		ldr	r3, [r3, #4]
 542 02ce 019A     		ldr	r2, [sp, #4]
 543 02d0 5268     		ldr	r2, [r2, #4]
 544 02d2 1289     		ldrh	r2, [r2, #8]
 545 02d4 1146     		mov	r1, r2
 546 02d6 0122     		movs	r2, #1
 547 02d8 8A40     		lsls	r2, r2, r1
 548 02da 92B2     		uxth	r2, r2
 549 02dc 5A83     		strh	r2, [r3, #26]	@ movhi
 550              		.loc 1 340 0
 551 02de 02B0     		add	sp, sp, #8
 552              		.cfi_def_cfa_offset 0
 553              		@ sp needed
 554 02e0 7047     		bx	lr
 555              		.cfi_endproc
 556              	.LFE123:
 557              		.size	spi_lld_select, .-spi_lld_select
 558 02e2 00BF     		.align	2
 559              		.global	spi_lld_unselect
 560              		.thumb
 561              		.thumb_func
 562              		.type	spi_lld_unselect, %function
ARM GAS  /tmp/cck4I4CR.s 			page 11


 563              	spi_lld_unselect:
 564              	.LFB124:
 565              		.loc 1 350 0
 566              		.cfi_startproc
 567              		@ args = 0, pretend = 0, frame = 8
 568              		@ frame_needed = 0, uses_anonymous_args = 0
 569              		@ link register save eliminated.
 570 02e4 82B0     		sub	sp, sp, #8
 571              		.cfi_def_cfa_offset 8
 572 02e6 0190     		str	r0, [sp, #4]
 573              		.loc 1 352 0
 574 02e8 019B     		ldr	r3, [sp, #4]
 575 02ea 5B68     		ldr	r3, [r3, #4]
 576 02ec 5B68     		ldr	r3, [r3, #4]
 577 02ee 019A     		ldr	r2, [sp, #4]
 578 02f0 5268     		ldr	r2, [r2, #4]
 579 02f2 1289     		ldrh	r2, [r2, #8]
 580 02f4 1146     		mov	r1, r2
 581 02f6 0122     		movs	r2, #1
 582 02f8 8A40     		lsls	r2, r2, r1
 583 02fa 92B2     		uxth	r2, r2
 584 02fc 1A83     		strh	r2, [r3, #24]	@ movhi
 585              		.loc 1 353 0
 586 02fe 02B0     		add	sp, sp, #8
 587              		.cfi_def_cfa_offset 0
 588              		@ sp needed
 589 0300 7047     		bx	lr
 590              		.cfi_endproc
 591              	.LFE124:
 592              		.size	spi_lld_unselect, .-spi_lld_unselect
 593 0302 00BF     		.align	2
 594              		.global	spi_lld_ignore
 595              		.thumb
 596              		.thumb_func
 597              		.type	spi_lld_ignore, %function
 598              	spi_lld_ignore:
 599              	.LFB125:
 600              		.loc 1 366 0
 601              		.cfi_startproc
 602              		@ args = 0, pretend = 0, frame = 8
 603              		@ frame_needed = 0, uses_anonymous_args = 0
 604              		@ link register save eliminated.
 605 0304 82B0     		sub	sp, sp, #8
 606              		.cfi_def_cfa_offset 8
 607 0306 0190     		str	r0, [sp, #4]
 608 0308 0091     		str	r1, [sp]
 609              		.loc 1 368 0
 610 030a 019B     		ldr	r3, [sp, #4]
 611 030c 1B6A     		ldr	r3, [r3, #32]
 612 030e 1B68     		ldr	r3, [r3]
 613 0310 194A     		ldr	r2, .L29
 614 0312 DA60     		str	r2, [r3, #12]
 615              		.loc 1 369 0
 616 0314 019B     		ldr	r3, [sp, #4]
 617 0316 1B6A     		ldr	r3, [r3, #32]
 618 0318 1B68     		ldr	r3, [r3]
 619 031a 009A     		ldr	r2, [sp]
ARM GAS  /tmp/cck4I4CR.s 			page 12


 620 031c 5A60     		str	r2, [r3, #4]
 621              		.loc 1 370 0
 622 031e 019B     		ldr	r3, [sp, #4]
 623 0320 1B6A     		ldr	r3, [r3, #32]
 624 0322 1B68     		ldr	r3, [r3]
 625 0324 019A     		ldr	r2, [sp, #4]
 626 0326 926A     		ldr	r2, [r2, #40]
 627 0328 1A60     		str	r2, [r3]
 628              		.loc 1 372 0
 629 032a 019B     		ldr	r3, [sp, #4]
 630 032c 5B6A     		ldr	r3, [r3, #36]
 631 032e 1B68     		ldr	r3, [r3]
 632 0330 124A     		ldr	r2, .L29+4
 633 0332 DA60     		str	r2, [r3, #12]
 634              		.loc 1 373 0
 635 0334 019B     		ldr	r3, [sp, #4]
 636 0336 5B6A     		ldr	r3, [r3, #36]
 637 0338 1B68     		ldr	r3, [r3]
 638 033a 009A     		ldr	r2, [sp]
 639 033c 5A60     		str	r2, [r3, #4]
 640              		.loc 1 374 0
 641 033e 019B     		ldr	r3, [sp, #4]
 642 0340 5B6A     		ldr	r3, [r3, #36]
 643 0342 1B68     		ldr	r3, [r3]
 644 0344 019A     		ldr	r2, [sp, #4]
 645 0346 D26A     		ldr	r2, [r2, #44]
 646 0348 1A60     		str	r2, [r3]
 647              		.loc 1 376 0
 648 034a 019B     		ldr	r3, [sp, #4]
 649 034c 1B6A     		ldr	r3, [r3, #32]
 650 034e 1B68     		ldr	r3, [r3]
 651 0350 019A     		ldr	r2, [sp, #4]
 652 0352 126A     		ldr	r2, [r2, #32]
 653 0354 1268     		ldr	r2, [r2]
 654 0356 1268     		ldr	r2, [r2]
 655 0358 42F00102 		orr	r2, r2, #1
 656 035c 1A60     		str	r2, [r3]
 657              		.loc 1 377 0
 658 035e 019B     		ldr	r3, [sp, #4]
 659 0360 5B6A     		ldr	r3, [r3, #36]
 660 0362 1B68     		ldr	r3, [r3]
 661 0364 019A     		ldr	r2, [sp, #4]
 662 0366 526A     		ldr	r2, [r2, #36]
 663 0368 1268     		ldr	r2, [r2]
 664 036a 1268     		ldr	r2, [r2]
 665 036c 42F00102 		orr	r2, r2, #1
 666 0370 1A60     		str	r2, [r3]
 667              		.loc 1 378 0
 668 0372 02B0     		add	sp, sp, #8
 669              		.cfi_def_cfa_offset 0
 670              		@ sp needed
 671 0374 7047     		bx	lr
 672              	.L30:
 673 0376 00BF     		.align	2
 674              	.L29:
 675 0378 02000000 		.word	dummyrx
 676 037c 00000000 		.word	dummytx
ARM GAS  /tmp/cck4I4CR.s 			page 13


 677              		.cfi_endproc
 678              	.LFE125:
 679              		.size	spi_lld_ignore, .-spi_lld_ignore
 680              		.align	2
 681              		.global	spi_lld_exchange
 682              		.thumb
 683              		.thumb_func
 684              		.type	spi_lld_exchange, %function
 685              	spi_lld_exchange:
 686              	.LFB126:
 687              		.loc 1 396 0
 688              		.cfi_startproc
 689              		@ args = 0, pretend = 0, frame = 16
 690              		@ frame_needed = 0, uses_anonymous_args = 0
 691              		@ link register save eliminated.
 692 0380 84B0     		sub	sp, sp, #16
 693              		.cfi_def_cfa_offset 16
 694 0382 0390     		str	r0, [sp, #12]
 695 0384 0291     		str	r1, [sp, #8]
 696 0386 0192     		str	r2, [sp, #4]
 697 0388 0093     		str	r3, [sp]
 698              		.loc 1 398 0
 699 038a 039B     		ldr	r3, [sp, #12]
 700 038c 1B6A     		ldr	r3, [r3, #32]
 701 038e 1B68     		ldr	r3, [r3]
 702 0390 009A     		ldr	r2, [sp]
 703 0392 DA60     		str	r2, [r3, #12]
 704              		.loc 1 399 0
 705 0394 039B     		ldr	r3, [sp, #12]
 706 0396 1B6A     		ldr	r3, [r3, #32]
 707 0398 1B68     		ldr	r3, [r3]
 708 039a 029A     		ldr	r2, [sp, #8]
 709 039c 5A60     		str	r2, [r3, #4]
 710              		.loc 1 400 0
 711 039e 039B     		ldr	r3, [sp, #12]
 712 03a0 1B6A     		ldr	r3, [r3, #32]
 713 03a2 1B68     		ldr	r3, [r3]
 714 03a4 039A     		ldr	r2, [sp, #12]
 715 03a6 926A     		ldr	r2, [r2, #40]
 716 03a8 42F08002 		orr	r2, r2, #128
 717 03ac 1A60     		str	r2, [r3]
 718              		.loc 1 402 0
 719 03ae 039B     		ldr	r3, [sp, #12]
 720 03b0 5B6A     		ldr	r3, [r3, #36]
 721 03b2 1B68     		ldr	r3, [r3]
 722 03b4 019A     		ldr	r2, [sp, #4]
 723 03b6 DA60     		str	r2, [r3, #12]
 724              		.loc 1 403 0
 725 03b8 039B     		ldr	r3, [sp, #12]
 726 03ba 5B6A     		ldr	r3, [r3, #36]
 727 03bc 1B68     		ldr	r3, [r3]
 728 03be 029A     		ldr	r2, [sp, #8]
 729 03c0 5A60     		str	r2, [r3, #4]
 730              		.loc 1 404 0
 731 03c2 039B     		ldr	r3, [sp, #12]
 732 03c4 5B6A     		ldr	r3, [r3, #36]
 733 03c6 1B68     		ldr	r3, [r3]
ARM GAS  /tmp/cck4I4CR.s 			page 14


 734 03c8 039A     		ldr	r2, [sp, #12]
 735 03ca D26A     		ldr	r2, [r2, #44]
 736 03cc 42F08002 		orr	r2, r2, #128
 737 03d0 1A60     		str	r2, [r3]
 738              		.loc 1 406 0
 739 03d2 039B     		ldr	r3, [sp, #12]
 740 03d4 1B6A     		ldr	r3, [r3, #32]
 741 03d6 1B68     		ldr	r3, [r3]
 742 03d8 039A     		ldr	r2, [sp, #12]
 743 03da 126A     		ldr	r2, [r2, #32]
 744 03dc 1268     		ldr	r2, [r2]
 745 03de 1268     		ldr	r2, [r2]
 746 03e0 42F00102 		orr	r2, r2, #1
 747 03e4 1A60     		str	r2, [r3]
 748              		.loc 1 407 0
 749 03e6 039B     		ldr	r3, [sp, #12]
 750 03e8 5B6A     		ldr	r3, [r3, #36]
 751 03ea 1B68     		ldr	r3, [r3]
 752 03ec 039A     		ldr	r2, [sp, #12]
 753 03ee 526A     		ldr	r2, [r2, #36]
 754 03f0 1268     		ldr	r2, [r2]
 755 03f2 1268     		ldr	r2, [r2]
 756 03f4 42F00102 		orr	r2, r2, #1
 757 03f8 1A60     		str	r2, [r3]
 758              		.loc 1 408 0
 759 03fa 04B0     		add	sp, sp, #16
 760              		.cfi_def_cfa_offset 0
 761              		@ sp needed
 762 03fc 7047     		bx	lr
 763              		.cfi_endproc
 764              	.LFE126:
 765              		.size	spi_lld_exchange, .-spi_lld_exchange
 766 03fe 00BF     		.align	2
 767              		.global	spi_lld_send
 768              		.thumb
 769              		.thumb_func
 770              		.type	spi_lld_send, %function
 771              	spi_lld_send:
 772              	.LFB127:
 773              		.loc 1 423 0
 774              		.cfi_startproc
 775              		@ args = 0, pretend = 0, frame = 16
 776              		@ frame_needed = 0, uses_anonymous_args = 0
 777              		@ link register save eliminated.
 778 0400 84B0     		sub	sp, sp, #16
 779              		.cfi_def_cfa_offset 16
 780 0402 0390     		str	r0, [sp, #12]
 781 0404 0291     		str	r1, [sp, #8]
 782 0406 0192     		str	r2, [sp, #4]
 783              		.loc 1 425 0
 784 0408 039B     		ldr	r3, [sp, #12]
 785 040a 1B6A     		ldr	r3, [r3, #32]
 786 040c 1B68     		ldr	r3, [r3]
 787 040e 1A4A     		ldr	r2, .L33
 788 0410 DA60     		str	r2, [r3, #12]
 789              		.loc 1 426 0
 790 0412 039B     		ldr	r3, [sp, #12]
ARM GAS  /tmp/cck4I4CR.s 			page 15


 791 0414 1B6A     		ldr	r3, [r3, #32]
 792 0416 1B68     		ldr	r3, [r3]
 793 0418 029A     		ldr	r2, [sp, #8]
 794 041a 5A60     		str	r2, [r3, #4]
 795              		.loc 1 427 0
 796 041c 039B     		ldr	r3, [sp, #12]
 797 041e 1B6A     		ldr	r3, [r3, #32]
 798 0420 1B68     		ldr	r3, [r3]
 799 0422 039A     		ldr	r2, [sp, #12]
 800 0424 926A     		ldr	r2, [r2, #40]
 801 0426 1A60     		str	r2, [r3]
 802              		.loc 1 429 0
 803 0428 039B     		ldr	r3, [sp, #12]
 804 042a 5B6A     		ldr	r3, [r3, #36]
 805 042c 1B68     		ldr	r3, [r3]
 806 042e 019A     		ldr	r2, [sp, #4]
 807 0430 DA60     		str	r2, [r3, #12]
 808              		.loc 1 430 0
 809 0432 039B     		ldr	r3, [sp, #12]
 810 0434 5B6A     		ldr	r3, [r3, #36]
 811 0436 1B68     		ldr	r3, [r3]
 812 0438 029A     		ldr	r2, [sp, #8]
 813 043a 5A60     		str	r2, [r3, #4]
 814              		.loc 1 431 0
 815 043c 039B     		ldr	r3, [sp, #12]
 816 043e 5B6A     		ldr	r3, [r3, #36]
 817 0440 1B68     		ldr	r3, [r3]
 818 0442 039A     		ldr	r2, [sp, #12]
 819 0444 D26A     		ldr	r2, [r2, #44]
 820 0446 42F08002 		orr	r2, r2, #128
 821 044a 1A60     		str	r2, [r3]
 822              		.loc 1 433 0
 823 044c 039B     		ldr	r3, [sp, #12]
 824 044e 1B6A     		ldr	r3, [r3, #32]
 825 0450 1B68     		ldr	r3, [r3]
 826 0452 039A     		ldr	r2, [sp, #12]
 827 0454 126A     		ldr	r2, [r2, #32]
 828 0456 1268     		ldr	r2, [r2]
 829 0458 1268     		ldr	r2, [r2]
 830 045a 42F00102 		orr	r2, r2, #1
 831 045e 1A60     		str	r2, [r3]
 832              		.loc 1 434 0
 833 0460 039B     		ldr	r3, [sp, #12]
 834 0462 5B6A     		ldr	r3, [r3, #36]
 835 0464 1B68     		ldr	r3, [r3]
 836 0466 039A     		ldr	r2, [sp, #12]
 837 0468 526A     		ldr	r2, [r2, #36]
 838 046a 1268     		ldr	r2, [r2]
 839 046c 1268     		ldr	r2, [r2]
 840 046e 42F00102 		orr	r2, r2, #1
 841 0472 1A60     		str	r2, [r3]
 842              		.loc 1 435 0
 843 0474 04B0     		add	sp, sp, #16
 844              		.cfi_def_cfa_offset 0
 845              		@ sp needed
 846 0476 7047     		bx	lr
 847              	.L34:
ARM GAS  /tmp/cck4I4CR.s 			page 16


 848              		.align	2
 849              	.L33:
 850 0478 02000000 		.word	dummyrx
 851              		.cfi_endproc
 852              	.LFE127:
 853              		.size	spi_lld_send, .-spi_lld_send
 854              		.align	2
 855              		.global	spi_lld_receive
 856              		.thumb
 857              		.thumb_func
 858              		.type	spi_lld_receive, %function
 859              	spi_lld_receive:
 860              	.LFB128:
 861              		.loc 1 450 0
 862              		.cfi_startproc
 863              		@ args = 0, pretend = 0, frame = 16
 864              		@ frame_needed = 0, uses_anonymous_args = 0
 865              		@ link register save eliminated.
 866 047c 84B0     		sub	sp, sp, #16
 867              		.cfi_def_cfa_offset 16
 868 047e 0390     		str	r0, [sp, #12]
 869 0480 0291     		str	r1, [sp, #8]
 870 0482 0192     		str	r2, [sp, #4]
 871              		.loc 1 452 0
 872 0484 039B     		ldr	r3, [sp, #12]
 873 0486 1B6A     		ldr	r3, [r3, #32]
 874 0488 1B68     		ldr	r3, [r3]
 875 048a 019A     		ldr	r2, [sp, #4]
 876 048c DA60     		str	r2, [r3, #12]
 877              		.loc 1 453 0
 878 048e 039B     		ldr	r3, [sp, #12]
 879 0490 1B6A     		ldr	r3, [r3, #32]
 880 0492 1B68     		ldr	r3, [r3]
 881 0494 029A     		ldr	r2, [sp, #8]
 882 0496 5A60     		str	r2, [r3, #4]
 883              		.loc 1 454 0
 884 0498 039B     		ldr	r3, [sp, #12]
 885 049a 1B6A     		ldr	r3, [r3, #32]
 886 049c 1B68     		ldr	r3, [r3]
 887 049e 039A     		ldr	r2, [sp, #12]
 888 04a0 926A     		ldr	r2, [r2, #40]
 889 04a2 42F08002 		orr	r2, r2, #128
 890 04a6 1A60     		str	r2, [r3]
 891              		.loc 1 456 0
 892 04a8 039B     		ldr	r3, [sp, #12]
 893 04aa 5B6A     		ldr	r3, [r3, #36]
 894 04ac 1B68     		ldr	r3, [r3]
 895 04ae 114A     		ldr	r2, .L36
 896 04b0 DA60     		str	r2, [r3, #12]
 897              		.loc 1 457 0
 898 04b2 039B     		ldr	r3, [sp, #12]
 899 04b4 5B6A     		ldr	r3, [r3, #36]
 900 04b6 1B68     		ldr	r3, [r3]
 901 04b8 029A     		ldr	r2, [sp, #8]
 902 04ba 5A60     		str	r2, [r3, #4]
 903              		.loc 1 458 0
 904 04bc 039B     		ldr	r3, [sp, #12]
ARM GAS  /tmp/cck4I4CR.s 			page 17


 905 04be 5B6A     		ldr	r3, [r3, #36]
 906 04c0 1B68     		ldr	r3, [r3]
 907 04c2 039A     		ldr	r2, [sp, #12]
 908 04c4 D26A     		ldr	r2, [r2, #44]
 909 04c6 1A60     		str	r2, [r3]
 910              		.loc 1 460 0
 911 04c8 039B     		ldr	r3, [sp, #12]
 912 04ca 1B6A     		ldr	r3, [r3, #32]
 913 04cc 1B68     		ldr	r3, [r3]
 914 04ce 039A     		ldr	r2, [sp, #12]
 915 04d0 126A     		ldr	r2, [r2, #32]
 916 04d2 1268     		ldr	r2, [r2]
 917 04d4 1268     		ldr	r2, [r2]
 918 04d6 42F00102 		orr	r2, r2, #1
 919 04da 1A60     		str	r2, [r3]
 920              		.loc 1 461 0
 921 04dc 039B     		ldr	r3, [sp, #12]
 922 04de 5B6A     		ldr	r3, [r3, #36]
 923 04e0 1B68     		ldr	r3, [r3]
 924 04e2 039A     		ldr	r2, [sp, #12]
 925 04e4 526A     		ldr	r2, [r2, #36]
 926 04e6 1268     		ldr	r2, [r2]
 927 04e8 1268     		ldr	r2, [r2]
 928 04ea 42F00102 		orr	r2, r2, #1
 929 04ee 1A60     		str	r2, [r3]
 930              		.loc 1 462 0
 931 04f0 04B0     		add	sp, sp, #16
 932              		.cfi_def_cfa_offset 0
 933              		@ sp needed
 934 04f2 7047     		bx	lr
 935              	.L37:
 936              		.align	2
 937              	.L36:
 938 04f4 00000000 		.word	dummytx
 939              		.cfi_endproc
 940              	.LFE128:
 941              		.size	spi_lld_receive, .-spi_lld_receive
 942              		.align	2
 943              		.global	spi_lld_polled_exchange
 944              		.thumb
 945              		.thumb_func
 946              		.type	spi_lld_polled_exchange, %function
 947              	spi_lld_polled_exchange:
 948              	.LFB129:
 949              		.loc 1 476 0
 950              		.cfi_startproc
 951              		@ args = 0, pretend = 0, frame = 16
 952              		@ frame_needed = 0, uses_anonymous_args = 0
 953              		@ link register save eliminated.
 954 04f8 84B0     		sub	sp, sp, #16
 955              		.cfi_def_cfa_offset 16
 956 04fa 0190     		str	r0, [sp, #4]
 957 04fc 0B46     		mov	r3, r1
 958 04fe ADF80230 		strh	r3, [sp, #2]	@ movhi
 959              		.loc 1 483 0
 960 0502 019B     		ldr	r3, [sp, #4]
 961 0504 5B68     		ldr	r3, [r3, #4]
ARM GAS  /tmp/cck4I4CR.s 			page 18


 962 0506 9B89     		ldrh	r3, [r3, #12]
 963 0508 03F47063 		and	r3, r3, #3840
 964 050c B3F5E06F 		cmp	r3, #1792
 965 0510 16DC     		bgt	.L39
 966              	.LBB6:
 967              		.loc 1 486 0
 968 0512 019B     		ldr	r3, [sp, #4]
 969 0514 DB69     		ldr	r3, [r3, #28]
 970 0516 0C33     		adds	r3, r3, #12
 971 0518 0393     		str	r3, [sp, #12]
 972              		.loc 1 487 0
 973 051a BDF80230 		ldrh	r3, [sp, #2]	@ movhi
 974 051e DAB2     		uxtb	r2, r3
 975 0520 039B     		ldr	r3, [sp, #12]
 976 0522 1A70     		strb	r2, [r3]
 977              		.loc 1 488 0
 978 0524 00BF     		nop
 979              	.L40:
 980              		.loc 1 488 0 is_stmt 0 discriminator 1
 981 0526 019B     		ldr	r3, [sp, #4]
 982 0528 DB69     		ldr	r3, [r3, #28]
 983 052a 1B89     		ldrh	r3, [r3, #8]	@ movhi
 984 052c 9BB2     		uxth	r3, r3
 985 052e 03F00103 		and	r3, r3, #1
 986 0532 002B     		cmp	r3, #0
 987 0534 F7D0     		beq	.L40
 988              		.loc 1 490 0 is_stmt 1
 989 0536 039B     		ldr	r3, [sp, #12]
 990 0538 1B78     		ldrb	r3, [r3]
 991 053a DBB2     		uxtb	r3, r3
 992 053c 9BB2     		uxth	r3, r3
 993 053e 11E0     		b	.L41
 994              	.L39:
 995              	.LBE6:
 996              		.loc 1 493 0
 997 0540 019B     		ldr	r3, [sp, #4]
 998 0542 DB69     		ldr	r3, [r3, #28]
 999 0544 BDF80220 		ldrh	r2, [sp, #2]	@ movhi
 1000 0548 9A81     		strh	r2, [r3, #12]	@ movhi
 1001              		.loc 1 494 0
 1002 054a 00BF     		nop
 1003              	.L42:
 1004              		.loc 1 494 0 is_stmt 0 discriminator 1
 1005 054c 019B     		ldr	r3, [sp, #4]
 1006 054e DB69     		ldr	r3, [r3, #28]
 1007 0550 1B89     		ldrh	r3, [r3, #8]	@ movhi
 1008 0552 9BB2     		uxth	r3, r3
 1009 0554 03F00103 		and	r3, r3, #1
 1010 0558 002B     		cmp	r3, #0
 1011 055a F7D0     		beq	.L42
 1012              		.loc 1 496 0 is_stmt 1
 1013 055c 019B     		ldr	r3, [sp, #4]
 1014 055e DB69     		ldr	r3, [r3, #28]
 1015 0560 9B89     		ldrh	r3, [r3, #12]	@ movhi
 1016 0562 9BB2     		uxth	r3, r3
 1017              	.L41:
 1018              		.loc 1 498 0
ARM GAS  /tmp/cck4I4CR.s 			page 19


 1019 0564 1846     		mov	r0, r3
 1020 0566 04B0     		add	sp, sp, #16
 1021              		.cfi_def_cfa_offset 0
 1022              		@ sp needed
 1023 0568 7047     		bx	lr
 1024              		.cfi_endproc
 1025              	.LFE129:
 1026              		.size	spi_lld_polled_exchange, .-spi_lld_polled_exchange
 1027              	.Letext0:
 1028              		.file 2 "/opt/R2P/tools/gcc-arm-none-eabi-4_9-2014q4/lib/gcc/arm-none-eabi/4.9.3/include/stddef.h"
 1029              		.file 3 "/opt/R2P/tools/gcc-arm-none-eabi-4_9-2014q4/arm-none-eabi/include/machine/_default_types.
 1030              		.file 4 "/opt/R2P/tools/gcc-arm-none-eabi-4_9-2014q4/arm-none-eabi/include/stdint.h"
 1031              		.file 5 "/opt/R2P/core/ChibiOS_2.6.5/os/ports/GCC/ARMCMx/chtypes.h"
 1032              		.file 6 "/opt/R2P/core/ChibiOS_2.6.5/os/kernel/include/chlists.h"
 1033              		.file 7 "/opt/R2P/core/ChibiOS_2.6.5/os/kernel/include/chthreads.h"
 1034              		.file 8 "/opt/R2P/core/ChibiOS_2.6.5/os/ports/GCC/ARMCMx/chcore_v7m.h"
 1035              		.file 9 "/opt/R2P/core/ChibiOS_2.6.5/os/kernel/include/chmtx.h"
 1036              		.file 10 "/opt/R2P/core/ChibiOS_2.6.5/os/hal/platforms/STM32F30x/stm32f30x.h"
 1037              		.file 11 "/opt/R2P/core/ChibiOS_2.6.5/os/hal/platforms/STM32F30x/stm32_dma.h"
 1038              		.file 12 "/opt/R2P/core/ChibiOS_2.6.5/os/hal/platforms/STM32/GPIOv2/pal_lld.h"
 1039              		.file 13 "/opt/R2P/core/ChibiOS_2.6.5/os/hal/include/spi.h"
 1040              		.file 14 "/opt/R2P/core/ChibiOS_2.6.5/os/hal/platforms/STM32/SPIv2/spi_lld.h"
 1041              		.file 15 "/opt/R2P/core/ChibiOS_2.6.5/os/ports/common/ARMCMx/CMSIS/include/core_cm4.h"
 1042 056a 00BF     		.section	.debug_info,"",%progbits
 1043              	.Ldebug_info0:
 1044 0000 050C0000 		.4byte	0xc05
 1045 0004 0400     		.2byte	0x4
 1046 0006 00000000 		.4byte	.Ldebug_abbrev0
 1047 000a 04       		.byte	0x4
 1048 000b 01       		.uleb128 0x1
 1049 000c 63040000 		.4byte	.LASF155
 1050 0010 01       		.byte	0x1
 1051 0011 64060000 		.4byte	.LASF156
 1052 0015 00000000 		.4byte	.Ltext0
 1053 0019 6A050000 		.4byte	.Letext0-.Ltext0
 1054 001d 00000000 		.4byte	.Ldebug_line0
 1055 0021 02       		.uleb128 0x2
 1056 0022 04       		.byte	0x4
 1057 0023 05       		.byte	0x5
 1058 0024 696E7400 		.ascii	"int\000"
 1059 0028 03       		.uleb128 0x3
 1060 0029 00000000 		.4byte	.LASF2
 1061 002d 02       		.byte	0x2
 1062 002e D4       		.byte	0xd4
 1063 002f 33000000 		.4byte	0x33
 1064 0033 04       		.uleb128 0x4
 1065 0034 04       		.byte	0x4
 1066 0035 07       		.byte	0x7
 1067 0036 F1010000 		.4byte	.LASF0
 1068 003a 04       		.uleb128 0x4
 1069 003b 01       		.byte	0x1
 1070 003c 06       		.byte	0x6
 1071 003d D7000000 		.4byte	.LASF1
 1072 0041 03       		.uleb128 0x3
 1073 0042 25000000 		.4byte	.LASF3
 1074 0046 03       		.byte	0x3
 1075 0047 1D       		.byte	0x1d
ARM GAS  /tmp/cck4I4CR.s 			page 20


 1076 0048 4C000000 		.4byte	0x4c
 1077 004c 04       		.uleb128 0x4
 1078 004d 01       		.byte	0x1
 1079 004e 08       		.byte	0x8
 1080 004f C5030000 		.4byte	.LASF4
 1081 0053 04       		.uleb128 0x4
 1082 0054 02       		.byte	0x2
 1083 0055 05       		.byte	0x5
 1084 0056 FE030000 		.4byte	.LASF5
 1085 005a 03       		.uleb128 0x3
 1086 005b 30050000 		.4byte	.LASF6
 1087 005f 03       		.byte	0x3
 1088 0060 2B       		.byte	0x2b
 1089 0061 65000000 		.4byte	0x65
 1090 0065 04       		.uleb128 0x4
 1091 0066 02       		.byte	0x2
 1092 0067 07       		.byte	0x7
 1093 0068 66020000 		.4byte	.LASF7
 1094 006c 03       		.uleb128 0x3
 1095 006d 62050000 		.4byte	.LASF8
 1096 0071 03       		.byte	0x3
 1097 0072 3F       		.byte	0x3f
 1098 0073 77000000 		.4byte	0x77
 1099 0077 04       		.uleb128 0x4
 1100 0078 04       		.byte	0x4
 1101 0079 05       		.byte	0x5
 1102 007a 14010000 		.4byte	.LASF9
 1103 007e 03       		.uleb128 0x3
 1104 007f A5010000 		.4byte	.LASF10
 1105 0083 03       		.byte	0x3
 1106 0084 41       		.byte	0x41
 1107 0085 89000000 		.4byte	0x89
 1108 0089 04       		.uleb128 0x4
 1109 008a 04       		.byte	0x4
 1110 008b 07       		.byte	0x7
 1111 008c F8040000 		.4byte	.LASF11
 1112 0090 04       		.uleb128 0x4
 1113 0091 08       		.byte	0x8
 1114 0092 05       		.byte	0x5
 1115 0093 C9000000 		.4byte	.LASF12
 1116 0097 03       		.uleb128 0x3
 1117 0098 27030000 		.4byte	.LASF13
 1118 009c 03       		.byte	0x3
 1119 009d 5B       		.byte	0x5b
 1120 009e A2000000 		.4byte	0xa2
 1121 00a2 04       		.uleb128 0x4
 1122 00a3 08       		.byte	0x8
 1123 00a4 07       		.byte	0x7
 1124 00a5 53000000 		.4byte	.LASF14
 1125 00a9 03       		.uleb128 0x3
 1126 00aa EC050000 		.4byte	.LASF15
 1127 00ae 04       		.byte	0x4
 1128 00af 15       		.byte	0x15
 1129 00b0 41000000 		.4byte	0x41
 1130 00b4 03       		.uleb128 0x3
 1131 00b5 62010000 		.4byte	.LASF16
 1132 00b9 04       		.byte	0x4
ARM GAS  /tmp/cck4I4CR.s 			page 21


 1133 00ba 21       		.byte	0x21
 1134 00bb 5A000000 		.4byte	0x5a
 1135 00bf 03       		.uleb128 0x3
 1136 00c0 BD030000 		.4byte	.LASF17
 1137 00c4 04       		.byte	0x4
 1138 00c5 2C       		.byte	0x2c
 1139 00c6 6C000000 		.4byte	0x6c
 1140 00ca 03       		.uleb128 0x3
 1141 00cb 52040000 		.4byte	.LASF18
 1142 00cf 04       		.byte	0x4
 1143 00d0 2D       		.byte	0x2d
 1144 00d1 7E000000 		.4byte	0x7e
 1145 00d5 03       		.uleb128 0x3
 1146 00d6 0E000000 		.4byte	.LASF19
 1147 00da 04       		.byte	0x4
 1148 00db 39       		.byte	0x39
 1149 00dc 97000000 		.4byte	0x97
 1150 00e0 03       		.uleb128 0x3
 1151 00e1 F9000000 		.4byte	.LASF20
 1152 00e5 05       		.byte	0x5
 1153 00e6 2B       		.byte	0x2b
 1154 00e7 EB000000 		.4byte	0xeb
 1155 00eb 04       		.uleb128 0x4
 1156 00ec 01       		.byte	0x1
 1157 00ed 02       		.byte	0x2
 1158 00ee B7030000 		.4byte	.LASF21
 1159 00f2 03       		.uleb128 0x3
 1160 00f3 87020000 		.4byte	.LASF22
 1161 00f7 05       		.byte	0x5
 1162 00f8 2C       		.byte	0x2c
 1163 00f9 A9000000 		.4byte	0xa9
 1164 00fd 03       		.uleb128 0x3
 1165 00fe 41010000 		.4byte	.LASF23
 1166 0102 05       		.byte	0x5
 1167 0103 2D       		.byte	0x2d
 1168 0104 A9000000 		.4byte	0xa9
 1169 0108 03       		.uleb128 0x3
 1170 0109 5B040000 		.4byte	.LASF24
 1171 010d 05       		.byte	0x5
 1172 010e 2E       		.byte	0x2e
 1173 010f A9000000 		.4byte	0xa9
 1174 0113 03       		.uleb128 0x3
 1175 0114 A9030000 		.4byte	.LASF25
 1176 0118 05       		.byte	0x5
 1177 0119 30       		.byte	0x30
 1178 011a CA000000 		.4byte	0xca
 1179 011e 03       		.uleb128 0x3
 1180 011f 79020000 		.4byte	.LASF26
 1181 0123 05       		.byte	0x5
 1182 0124 31       		.byte	0x31
 1183 0125 BF000000 		.4byte	0xbf
 1184 0129 03       		.uleb128 0x3
 1185 012a 9B020000 		.4byte	.LASF27
 1186 012e 05       		.byte	0x5
 1187 012f 33       		.byte	0x33
 1188 0130 CA000000 		.4byte	0xca
 1189 0134 03       		.uleb128 0x3
ARM GAS  /tmp/cck4I4CR.s 			page 22


 1190 0135 4D050000 		.4byte	.LASF28
 1191 0139 05       		.byte	0x5
 1192 013a 35       		.byte	0x35
 1193 013b CA000000 		.4byte	0xca
 1194 013f 03       		.uleb128 0x3
 1195 0140 C4020000 		.4byte	.LASF29
 1196 0144 06       		.byte	0x6
 1197 0145 2A       		.byte	0x2a
 1198 0146 4A010000 		.4byte	0x14a
 1199 014a 05       		.uleb128 0x5
 1200 014b C4020000 		.4byte	.LASF29
 1201 014f 4C       		.byte	0x4c
 1202 0150 07       		.byte	0x7
 1203 0151 5E       		.byte	0x5e
 1204 0152 47020000 		.4byte	0x247
 1205 0156 06       		.uleb128 0x6
 1206 0157 F0020000 		.4byte	.LASF30
 1207 015b 07       		.byte	0x7
 1208 015c 5F       		.byte	0x5f
 1209 015d 68020000 		.4byte	0x268
 1210 0161 00       		.byte	0
 1211 0162 06       		.uleb128 0x6
 1212 0163 84030000 		.4byte	.LASF31
 1213 0167 07       		.byte	0x7
 1214 0168 61       		.byte	0x61
 1215 0169 68020000 		.4byte	0x268
 1216 016d 04       		.byte	0x4
 1217 016e 06       		.uleb128 0x6
 1218 016f BC000000 		.4byte	.LASF32
 1219 0173 07       		.byte	0x7
 1220 0174 63       		.byte	0x63
 1221 0175 13010000 		.4byte	0x113
 1222 0179 08       		.byte	0x8
 1223 017a 06       		.uleb128 0x6
 1224 017b A7060000 		.4byte	.LASF33
 1225 017f 07       		.byte	0x7
 1226 0180 64       		.byte	0x64
 1227 0181 2D030000 		.4byte	0x32d
 1228 0185 0C       		.byte	0xc
 1229 0186 06       		.uleb128 0x6
 1230 0187 7E010000 		.4byte	.LASF34
 1231 018b 07       		.byte	0x7
 1232 018c 66       		.byte	0x66
 1233 018d 68020000 		.4byte	0x268
 1234 0191 10       		.byte	0x10
 1235 0192 06       		.uleb128 0x6
 1236 0193 F7020000 		.4byte	.LASF35
 1237 0197 07       		.byte	0x7
 1238 0198 67       		.byte	0x67
 1239 0199 68020000 		.4byte	0x268
 1240 019d 14       		.byte	0x14
 1241 019e 06       		.uleb128 0x6
 1242 019f 28060000 		.4byte	.LASF36
 1243 01a3 07       		.byte	0x7
 1244 01a4 6E       		.byte	0x6e
 1245 01a5 DB030000 		.4byte	0x3db
 1246 01a9 18       		.byte	0x18
ARM GAS  /tmp/cck4I4CR.s 			page 23


 1247 01aa 06       		.uleb128 0x6
 1248 01ab E6010000 		.4byte	.LASF37
 1249 01af 07       		.byte	0x7
 1250 01b0 74       		.byte	0x74
 1251 01b1 ED030000 		.4byte	0x3ed
 1252 01b5 1C       		.byte	0x1c
 1253 01b6 06       		.uleb128 0x6
 1254 01b7 EC030000 		.4byte	.LASF38
 1255 01bb 07       		.byte	0x7
 1256 01bc 79       		.byte	0x79
 1257 01bd FD000000 		.4byte	0xfd
 1258 01c1 20       		.byte	0x20
 1259 01c2 06       		.uleb128 0x6
 1260 01c3 20040000 		.4byte	.LASF39
 1261 01c7 07       		.byte	0x7
 1262 01c8 7D       		.byte	0x7d
 1263 01c9 F2000000 		.4byte	0xf2
 1264 01cd 21       		.byte	0x21
 1265 01ce 06       		.uleb128 0x6
 1266 01cf 5B010000 		.4byte	.LASF40
 1267 01d3 07       		.byte	0x7
 1268 01d4 82       		.byte	0x82
 1269 01d5 08010000 		.4byte	0x108
 1270 01d9 22       		.byte	0x22
 1271 01da 06       		.uleb128 0x6
 1272 01db 6B010000 		.4byte	.LASF41
 1273 01df 07       		.byte	0x7
 1274 01e0 8F       		.byte	0x8f
 1275 01e1 5F030000 		.4byte	0x35f
 1276 01e5 24       		.byte	0x24
 1277 01e6 07       		.uleb128 0x7
 1278 01e7 705F7500 		.ascii	"p_u\000"
 1279 01eb 07       		.byte	0x7
 1280 01ec B4       		.byte	0xb4
 1281 01ed A6030000 		.4byte	0x3a6
 1282 01f1 28       		.byte	0x28
 1283 01f2 06       		.uleb128 0x6
 1284 01f3 CB020000 		.4byte	.LASF42
 1285 01f7 07       		.byte	0x7
 1286 01f8 B9       		.byte	0xb9
 1287 01f9 8E020000 		.4byte	0x28e
 1288 01fd 2C       		.byte	0x2c
 1289 01fe 06       		.uleb128 0x6
 1290 01ff 2E020000 		.4byte	.LASF43
 1291 0203 07       		.byte	0x7
 1292 0204 BF       		.byte	0xbf
 1293 0205 6E020000 		.4byte	0x26e
 1294 0209 30       		.byte	0x30
 1295 020a 06       		.uleb128 0x6
 1296 020b 51060000 		.4byte	.LASF44
 1297 020f 07       		.byte	0x7
 1298 0210 C3       		.byte	0xc3
 1299 0211 1E010000 		.4byte	0x11e
 1300 0215 38       		.byte	0x38
 1301 0216 06       		.uleb128 0x6
 1302 0217 38040000 		.4byte	.LASF45
 1303 021b 07       		.byte	0x7
ARM GAS  /tmp/cck4I4CR.s 			page 24


 1304 021c C9       		.byte	0xc9
 1305 021d 29010000 		.4byte	0x129
 1306 0221 3C       		.byte	0x3c
 1307 0222 06       		.uleb128 0x6
 1308 0223 F4030000 		.4byte	.LASF46
 1309 0227 07       		.byte	0x7
 1310 0228 D0       		.byte	0xd0
 1311 0229 F3030000 		.4byte	0x3f3
 1312 022d 40       		.byte	0x40
 1313 022e 06       		.uleb128 0x6
 1314 022f 57050000 		.4byte	.LASF47
 1315 0233 07       		.byte	0x7
 1316 0234 D4       		.byte	0xd4
 1317 0235 13010000 		.4byte	0x113
 1318 0239 44       		.byte	0x44
 1319 023a 06       		.uleb128 0x6
 1320 023b B0010000 		.4byte	.LASF48
 1321 023f 07       		.byte	0x7
 1322 0240 DA       		.byte	0xda
 1323 0241 A4020000 		.4byte	0x2a4
 1324 0245 48       		.byte	0x48
 1325 0246 00       		.byte	0
 1326 0247 08       		.uleb128 0x8
 1327 0248 08       		.byte	0x8
 1328 0249 06       		.byte	0x6
 1329 024a 61       		.byte	0x61
 1330 024b 68020000 		.4byte	0x268
 1331 024f 06       		.uleb128 0x6
 1332 0250 F0020000 		.4byte	.LASF30
 1333 0254 06       		.byte	0x6
 1334 0255 62       		.byte	0x62
 1335 0256 68020000 		.4byte	0x268
 1336 025a 00       		.byte	0
 1337 025b 06       		.uleb128 0x6
 1338 025c 84030000 		.4byte	.LASF31
 1339 0260 06       		.byte	0x6
 1340 0261 64       		.byte	0x64
 1341 0262 68020000 		.4byte	0x268
 1342 0266 04       		.byte	0x4
 1343 0267 00       		.byte	0
 1344 0268 09       		.uleb128 0x9
 1345 0269 04       		.byte	0x4
 1346 026a 3F010000 		.4byte	0x13f
 1347 026e 03       		.uleb128 0x3
 1348 026f FF020000 		.4byte	.LASF49
 1349 0273 06       		.byte	0x6
 1350 0274 66       		.byte	0x66
 1351 0275 47020000 		.4byte	0x247
 1352 0279 08       		.uleb128 0x8
 1353 027a 04       		.byte	0x4
 1354 027b 06       		.byte	0x6
 1355 027c 6B       		.byte	0x6b
 1356 027d 8E020000 		.4byte	0x28e
 1357 0281 06       		.uleb128 0x6
 1358 0282 F0020000 		.4byte	.LASF30
 1359 0286 06       		.byte	0x6
 1360 0287 6D       		.byte	0x6d
ARM GAS  /tmp/cck4I4CR.s 			page 25


 1361 0288 68020000 		.4byte	0x268
 1362 028c 00       		.byte	0
 1363 028d 00       		.byte	0
 1364 028e 03       		.uleb128 0x3
 1365 028f 8F020000 		.4byte	.LASF50
 1366 0293 06       		.byte	0x6
 1367 0294 70       		.byte	0x70
 1368 0295 79020000 		.4byte	0x279
 1369 0299 03       		.uleb128 0x3
 1370 029a B8010000 		.4byte	.LASF51
 1371 029e 08       		.byte	0x8
 1372 029f E5       		.byte	0xe5
 1373 02a0 A4020000 		.4byte	0x2a4
 1374 02a4 0A       		.uleb128 0xa
 1375 02a5 04       		.byte	0x4
 1376 02a6 03       		.uleb128 0x3
 1377 02a7 AC020000 		.4byte	.LASF52
 1378 02ab 08       		.byte	0x8
 1379 02ac EB       		.byte	0xeb
 1380 02ad D5000000 		.4byte	0xd5
 1381 02b1 0B       		.uleb128 0xb
 1382 02b2 95050000 		.4byte	.LASF53
 1383 02b6 24       		.byte	0x24
 1384 02b7 08       		.byte	0x8
 1385 02b8 0C01     		.2byte	0x10c
 1386 02ba 2D030000 		.4byte	0x32d
 1387 02be 0C       		.uleb128 0xc
 1388 02bf 723400   		.ascii	"r4\000"
 1389 02c2 08       		.byte	0x8
 1390 02c3 1F01     		.2byte	0x11f
 1391 02c5 99020000 		.4byte	0x299
 1392 02c9 00       		.byte	0
 1393 02ca 0C       		.uleb128 0xc
 1394 02cb 723500   		.ascii	"r5\000"
 1395 02ce 08       		.byte	0x8
 1396 02cf 2001     		.2byte	0x120
 1397 02d1 99020000 		.4byte	0x299
 1398 02d5 04       		.byte	0x4
 1399 02d6 0C       		.uleb128 0xc
 1400 02d7 723600   		.ascii	"r6\000"
 1401 02da 08       		.byte	0x8
 1402 02db 2101     		.2byte	0x121
 1403 02dd 99020000 		.4byte	0x299
 1404 02e1 08       		.byte	0x8
 1405 02e2 0C       		.uleb128 0xc
 1406 02e3 723700   		.ascii	"r7\000"
 1407 02e6 08       		.byte	0x8
 1408 02e7 2201     		.2byte	0x122
 1409 02e9 99020000 		.4byte	0x299
 1410 02ed 0C       		.byte	0xc
 1411 02ee 0C       		.uleb128 0xc
 1412 02ef 723800   		.ascii	"r8\000"
 1413 02f2 08       		.byte	0x8
 1414 02f3 2301     		.2byte	0x123
 1415 02f5 99020000 		.4byte	0x299
 1416 02f9 10       		.byte	0x10
 1417 02fa 0C       		.uleb128 0xc
ARM GAS  /tmp/cck4I4CR.s 			page 26


 1418 02fb 723900   		.ascii	"r9\000"
 1419 02fe 08       		.byte	0x8
 1420 02ff 2401     		.2byte	0x124
 1421 0301 99020000 		.4byte	0x299
 1422 0305 14       		.byte	0x14
 1423 0306 0C       		.uleb128 0xc
 1424 0307 72313000 		.ascii	"r10\000"
 1425 030b 08       		.byte	0x8
 1426 030c 2501     		.2byte	0x125
 1427 030e 99020000 		.4byte	0x299
 1428 0312 18       		.byte	0x18
 1429 0313 0C       		.uleb128 0xc
 1430 0314 72313100 		.ascii	"r11\000"
 1431 0318 08       		.byte	0x8
 1432 0319 2601     		.2byte	0x126
 1433 031b 99020000 		.4byte	0x299
 1434 031f 1C       		.byte	0x1c
 1435 0320 0C       		.uleb128 0xc
 1436 0321 6C7200   		.ascii	"lr\000"
 1437 0324 08       		.byte	0x8
 1438 0325 2701     		.2byte	0x127
 1439 0327 99020000 		.4byte	0x299
 1440 032b 20       		.byte	0x20
 1441 032c 00       		.byte	0
 1442 032d 0B       		.uleb128 0xb
 1443 032e 5E020000 		.4byte	.LASF54
 1444 0332 04       		.byte	0x4
 1445 0333 08       		.byte	0x8
 1446 0334 3101     		.2byte	0x131
 1447 0336 48030000 		.4byte	0x348
 1448 033a 0C       		.uleb128 0xc
 1449 033b 72313300 		.ascii	"r13\000"
 1450 033f 08       		.byte	0x8
 1451 0340 3201     		.2byte	0x132
 1452 0342 48030000 		.4byte	0x348
 1453 0346 00       		.byte	0
 1454 0347 00       		.byte	0
 1455 0348 09       		.uleb128 0x9
 1456 0349 04       		.byte	0x4
 1457 034a B1020000 		.4byte	0x2b1
 1458 034e 0D       		.uleb128 0xd
 1459 034f A9000000 		.4byte	0xa9
 1460 0353 0D       		.uleb128 0xd
 1461 0354 CA000000 		.4byte	0xca
 1462 0358 04       		.uleb128 0x4
 1463 0359 04       		.byte	0x4
 1464 035a 07       		.byte	0x7
 1465 035b DB020000 		.4byte	.LASF55
 1466 035f 0D       		.uleb128 0xd
 1467 0360 34010000 		.4byte	0x134
 1468 0364 05       		.uleb128 0x5
 1469 0365 EA020000 		.4byte	.LASF56
 1470 0369 10       		.byte	0x10
 1471 036a 09       		.byte	0x9
 1472 036b 2C       		.byte	0x2c
 1473 036c 95030000 		.4byte	0x395
 1474 0370 06       		.uleb128 0x6
ARM GAS  /tmp/cck4I4CR.s 			page 27


 1475 0371 00010000 		.4byte	.LASF57
 1476 0375 09       		.byte	0x9
 1477 0376 2D       		.byte	0x2d
 1478 0377 6E020000 		.4byte	0x26e
 1479 037b 00       		.byte	0
 1480 037c 06       		.uleb128 0x6
 1481 037d 5C060000 		.4byte	.LASF58
 1482 0381 09       		.byte	0x9
 1483 0382 2F       		.byte	0x2f
 1484 0383 68020000 		.4byte	0x268
 1485 0387 08       		.byte	0x8
 1486 0388 06       		.uleb128 0x6
 1487 0389 46050000 		.4byte	.LASF59
 1488 038d 09       		.byte	0x9
 1489 038e 31       		.byte	0x31
 1490 038f 95030000 		.4byte	0x395
 1491 0393 0C       		.byte	0xc
 1492 0394 00       		.byte	0
 1493 0395 09       		.uleb128 0x9
 1494 0396 04       		.byte	0x4
 1495 0397 64030000 		.4byte	0x364
 1496 039b 03       		.uleb128 0x3
 1497 039c EA020000 		.4byte	.LASF56
 1498 03a0 09       		.byte	0x9
 1499 03a1 33       		.byte	0x33
 1500 03a2 64030000 		.4byte	0x364
 1501 03a6 0E       		.uleb128 0xe
 1502 03a7 04       		.byte	0x4
 1503 03a8 07       		.byte	0x7
 1504 03a9 96       		.byte	0x96
 1505 03aa DB030000 		.4byte	0x3db
 1506 03ae 0F       		.uleb128 0xf
 1507 03af 07000000 		.4byte	.LASF60
 1508 03b3 07       		.byte	0x7
 1509 03b4 9D       		.byte	0x9d
 1510 03b5 1E010000 		.4byte	0x11e
 1511 03b9 0F       		.uleb128 0xf
 1512 03ba 76000000 		.4byte	.LASF61
 1513 03be 07       		.byte	0x7
 1514 03bf A4       		.byte	0xa4
 1515 03c0 1E010000 		.4byte	0x11e
 1516 03c4 0F       		.uleb128 0xf
 1517 03c5 06060000 		.4byte	.LASF62
 1518 03c9 07       		.byte	0x7
 1519 03ca AB       		.byte	0xab
 1520 03cb A4020000 		.4byte	0x2a4
 1521 03cf 0F       		.uleb128 0xf
 1522 03d0 FF050000 		.4byte	.LASF63
 1523 03d4 07       		.byte	0x7
 1524 03d5 B2       		.byte	0xb2
 1525 03d6 29010000 		.4byte	0x129
 1526 03da 00       		.byte	0
 1527 03db 09       		.uleb128 0x9
 1528 03dc 04       		.byte	0x4
 1529 03dd E1030000 		.4byte	0x3e1
 1530 03e1 10       		.uleb128 0x10
 1531 03e2 E6030000 		.4byte	0x3e6
ARM GAS  /tmp/cck4I4CR.s 			page 28


 1532 03e6 04       		.uleb128 0x4
 1533 03e7 01       		.byte	0x1
 1534 03e8 08       		.byte	0x8
 1535 03e9 0A050000 		.4byte	.LASF64
 1536 03ed 09       		.uleb128 0x9
 1537 03ee 04       		.byte	0x4
 1538 03ef A6020000 		.4byte	0x2a6
 1539 03f3 09       		.uleb128 0x9
 1540 03f4 04       		.byte	0x4
 1541 03f5 9B030000 		.4byte	0x39b
 1542 03f9 0D       		.uleb128 0xd
 1543 03fa B4000000 		.4byte	0xb4
 1544 03fe 0D       		.uleb128 0xd
 1545 03ff BF000000 		.4byte	0xbf
 1546 0403 11       		.uleb128 0x11
 1547 0404 10       		.byte	0x10
 1548 0405 0A       		.byte	0xa
 1549 0406 E501     		.2byte	0x1e5
 1550 0408 41040000 		.4byte	0x441
 1551 040c 0C       		.uleb128 0xc
 1552 040d 43435200 		.ascii	"CCR\000"
 1553 0411 0A       		.byte	0xa
 1554 0412 E701     		.2byte	0x1e7
 1555 0414 53030000 		.4byte	0x353
 1556 0418 00       		.byte	0
 1557 0419 12       		.uleb128 0x12
 1558 041a C0050000 		.4byte	.LASF65
 1559 041e 0A       		.byte	0xa
 1560 041f E801     		.2byte	0x1e8
 1561 0421 53030000 		.4byte	0x353
 1562 0425 04       		.byte	0x4
 1563 0426 12       		.uleb128 0x12
 1564 0427 1A020000 		.4byte	.LASF66
 1565 042b 0A       		.byte	0xa
 1566 042c E901     		.2byte	0x1e9
 1567 042e 53030000 		.4byte	0x353
 1568 0432 08       		.byte	0x8
 1569 0433 12       		.uleb128 0x12
 1570 0434 A7020000 		.4byte	.LASF67
 1571 0438 0A       		.byte	0xa
 1572 0439 EA01     		.2byte	0x1ea
 1573 043b 53030000 		.4byte	0x353
 1574 043f 0C       		.byte	0xc
 1575 0440 00       		.byte	0
 1576 0441 13       		.uleb128 0x13
 1577 0442 32030000 		.4byte	.LASF68
 1578 0446 0A       		.byte	0xa
 1579 0447 EB01     		.2byte	0x1eb
 1580 0449 03040000 		.4byte	0x403
 1581 044d 11       		.uleb128 0x11
 1582 044e 34       		.byte	0x34
 1583 044f 0A       		.byte	0xa
 1584 0450 8502     		.2byte	0x285
 1585 0452 FF040000 		.4byte	0x4ff
 1586 0456 0C       		.uleb128 0xc
 1587 0457 435200   		.ascii	"CR\000"
 1588 045a 0A       		.byte	0xa
ARM GAS  /tmp/cck4I4CR.s 			page 29


 1589 045b 8702     		.2byte	0x287
 1590 045d 53030000 		.4byte	0x353
 1591 0461 00       		.byte	0
 1592 0462 12       		.uleb128 0x12
 1593 0463 15020000 		.4byte	.LASF69
 1594 0467 0A       		.byte	0xa
 1595 0468 8802     		.2byte	0x288
 1596 046a 53030000 		.4byte	0x353
 1597 046e 04       		.byte	0x4
 1598 046f 0C       		.uleb128 0xc
 1599 0470 43495200 		.ascii	"CIR\000"
 1600 0474 0A       		.byte	0xa
 1601 0475 8902     		.2byte	0x289
 1602 0477 53030000 		.4byte	0x353
 1603 047b 08       		.byte	0x8
 1604 047c 12       		.uleb128 0x12
 1605 047d 38010000 		.4byte	.LASF70
 1606 0481 0A       		.byte	0xa
 1607 0482 8A02     		.2byte	0x28a
 1608 0484 53030000 		.4byte	0x353
 1609 0488 0C       		.byte	0xc
 1610 0489 12       		.uleb128 0x12
 1611 048a 1E030000 		.4byte	.LASF71
 1612 048e 0A       		.byte	0xa
 1613 048f 8B02     		.2byte	0x28b
 1614 0491 53030000 		.4byte	0x353
 1615 0495 10       		.byte	0x10
 1616 0496 12       		.uleb128 0x12
 1617 0497 AD060000 		.4byte	.LASF72
 1618 049b 0A       		.byte	0xa
 1619 049c 8C02     		.2byte	0x28c
 1620 049e 53030000 		.4byte	0x353
 1621 04a2 14       		.byte	0x14
 1622 04a3 12       		.uleb128 0x12
 1623 04a4 28040000 		.4byte	.LASF73
 1624 04a8 0A       		.byte	0xa
 1625 04a9 8D02     		.2byte	0x28d
 1626 04ab 53030000 		.4byte	0x353
 1627 04af 18       		.byte	0x18
 1628 04b0 12       		.uleb128 0x12
 1629 04b1 73050000 		.4byte	.LASF74
 1630 04b5 0A       		.byte	0xa
 1631 04b6 8E02     		.2byte	0x28e
 1632 04b8 53030000 		.4byte	0x353
 1633 04bc 1C       		.byte	0x1c
 1634 04bd 12       		.uleb128 0x12
 1635 04be C6050000 		.4byte	.LASF75
 1636 04c2 0A       		.byte	0xa
 1637 04c3 8F02     		.2byte	0x28f
 1638 04c5 53030000 		.4byte	0x353
 1639 04c9 20       		.byte	0x20
 1640 04ca 0C       		.uleb128 0xc
 1641 04cb 43535200 		.ascii	"CSR\000"
 1642 04cf 0A       		.byte	0xa
 1643 04d0 9002     		.2byte	0x290
 1644 04d2 53030000 		.4byte	0x353
 1645 04d6 24       		.byte	0x24
ARM GAS  /tmp/cck4I4CR.s 			page 30


 1646 04d7 12       		.uleb128 0x12
 1647 04d8 16030000 		.4byte	.LASF76
 1648 04dc 0A       		.byte	0xa
 1649 04dd 9102     		.2byte	0x291
 1650 04df 53030000 		.4byte	0x353
 1651 04e3 28       		.byte	0x28
 1652 04e4 12       		.uleb128 0x12
 1653 04e5 E0050000 		.4byte	.LASF77
 1654 04e9 0A       		.byte	0xa
 1655 04ea 9202     		.2byte	0x292
 1656 04ec 53030000 		.4byte	0x353
 1657 04f0 2C       		.byte	0x2c
 1658 04f1 12       		.uleb128 0x12
 1659 04f2 E6050000 		.4byte	.LASF78
 1660 04f6 0A       		.byte	0xa
 1661 04f7 9302     		.2byte	0x293
 1662 04f9 53030000 		.4byte	0x353
 1663 04fd 30       		.byte	0x30
 1664 04fe 00       		.byte	0
 1665 04ff 13       		.uleb128 0x13
 1666 0500 46020000 		.4byte	.LASF79
 1667 0504 0A       		.byte	0xa
 1668 0505 9402     		.2byte	0x294
 1669 0507 4D040000 		.4byte	0x44d
 1670 050b 11       		.uleb128 0x11
 1671 050c 24       		.byte	0x24
 1672 050d 0A       		.byte	0xa
 1673 050e C702     		.2byte	0x2c7
 1674 0510 FD050000 		.4byte	0x5fd
 1675 0514 0C       		.uleb128 0xc
 1676 0515 43523100 		.ascii	"CR1\000"
 1677 0519 0A       		.byte	0xa
 1678 051a C902     		.2byte	0x2c9
 1679 051c F9030000 		.4byte	0x3f9
 1680 0520 00       		.byte	0
 1681 0521 12       		.uleb128 0x12
 1682 0522 52030000 		.4byte	.LASF80
 1683 0526 0A       		.byte	0xa
 1684 0527 CA02     		.2byte	0x2ca
 1685 0529 B4000000 		.4byte	0xb4
 1686 052d 02       		.byte	0x2
 1687 052e 0C       		.uleb128 0xc
 1688 052f 43523200 		.ascii	"CR2\000"
 1689 0533 0A       		.byte	0xa
 1690 0534 CB02     		.2byte	0x2cb
 1691 0536 F9030000 		.4byte	0x3f9
 1692 053a 04       		.byte	0x4
 1693 053b 12       		.uleb128 0x12
 1694 053c 5C030000 		.4byte	.LASF81
 1695 0540 0A       		.byte	0xa
 1696 0541 CC02     		.2byte	0x2cc
 1697 0543 B4000000 		.4byte	0xb4
 1698 0547 06       		.byte	0x6
 1699 0548 0C       		.uleb128 0xc
 1700 0549 535200   		.ascii	"SR\000"
 1701 054c 0A       		.byte	0xa
 1702 054d CD02     		.2byte	0x2cd
ARM GAS  /tmp/cck4I4CR.s 			page 31


 1703 054f F9030000 		.4byte	0x3f9
 1704 0553 08       		.byte	0x8
 1705 0554 12       		.uleb128 0x12
 1706 0555 66030000 		.4byte	.LASF82
 1707 0559 0A       		.byte	0xa
 1708 055a CE02     		.2byte	0x2ce
 1709 055c B4000000 		.4byte	0xb4
 1710 0560 0A       		.byte	0xa
 1711 0561 0C       		.uleb128 0xc
 1712 0562 445200   		.ascii	"DR\000"
 1713 0565 0A       		.byte	0xa
 1714 0566 CF02     		.2byte	0x2cf
 1715 0568 F9030000 		.4byte	0x3f9
 1716 056c 0C       		.byte	0xc
 1717 056d 12       		.uleb128 0x12
 1718 056e 70030000 		.4byte	.LASF83
 1719 0572 0A       		.byte	0xa
 1720 0573 D002     		.2byte	0x2d0
 1721 0575 B4000000 		.4byte	0xb4
 1722 0579 0E       		.byte	0xe
 1723 057a 12       		.uleb128 0x12
 1724 057b 6A000000 		.4byte	.LASF84
 1725 057f 0A       		.byte	0xa
 1726 0580 D102     		.2byte	0x2d1
 1727 0582 F9030000 		.4byte	0x3f9
 1728 0586 10       		.byte	0x10
 1729 0587 12       		.uleb128 0x12
 1730 0588 7A030000 		.4byte	.LASF85
 1731 058c 0A       		.byte	0xa
 1732 058d D202     		.2byte	0x2d2
 1733 058f B4000000 		.4byte	0xb4
 1734 0593 12       		.byte	0x12
 1735 0594 12       		.uleb128 0x12
 1736 0595 CB050000 		.4byte	.LASF86
 1737 0599 0A       		.byte	0xa
 1738 059a D302     		.2byte	0x2d3
 1739 059c F9030000 		.4byte	0x3f9
 1740 05a0 14       		.byte	0x14
 1741 05a1 12       		.uleb128 0x12
 1742 05a2 48040000 		.4byte	.LASF87
 1743 05a6 0A       		.byte	0xa
 1744 05a7 D402     		.2byte	0x2d4
 1745 05a9 B4000000 		.4byte	0xb4
 1746 05ad 16       		.byte	0x16
 1747 05ae 12       		.uleb128 0x12
 1748 05af 4B030000 		.4byte	.LASF88
 1749 05b3 0A       		.byte	0xa
 1750 05b4 D502     		.2byte	0x2d5
 1751 05b6 F9030000 		.4byte	0x3f9
 1752 05ba 18       		.byte	0x18
 1753 05bb 12       		.uleb128 0x12
 1754 05bc 8B030000 		.4byte	.LASF89
 1755 05c0 0A       		.byte	0xa
 1756 05c1 D602     		.2byte	0x2d6
 1757 05c3 B4000000 		.4byte	0xb4
 1758 05c7 1A       		.byte	0x1a
 1759 05c8 12       		.uleb128 0x12
ARM GAS  /tmp/cck4I4CR.s 			page 32


 1760 05c9 F1000000 		.4byte	.LASF90
 1761 05cd 0A       		.byte	0xa
 1762 05ce D702     		.2byte	0x2d7
 1763 05d0 F9030000 		.4byte	0x3f9
 1764 05d4 1C       		.byte	0x1c
 1765 05d5 12       		.uleb128 0x12
 1766 05d6 95030000 		.4byte	.LASF91
 1767 05da 0A       		.byte	0xa
 1768 05db D802     		.2byte	0x2d8
 1769 05dd B4000000 		.4byte	0xb4
 1770 05e1 1E       		.byte	0x1e
 1771 05e2 12       		.uleb128 0x12
 1772 05e3 D5020000 		.4byte	.LASF92
 1773 05e7 0A       		.byte	0xa
 1774 05e8 D902     		.2byte	0x2d9
 1775 05ea F9030000 		.4byte	0x3f9
 1776 05ee 20       		.byte	0x20
 1777 05ef 12       		.uleb128 0x12
 1778 05f0 9F030000 		.4byte	.LASF93
 1779 05f4 0A       		.byte	0xa
 1780 05f5 DA02     		.2byte	0x2da
 1781 05f7 B4000000 		.4byte	0xb4
 1782 05fb 22       		.byte	0x22
 1783 05fc 00       		.byte	0
 1784 05fd 13       		.uleb128 0x13
 1785 05fe 72010000 		.4byte	.LASF94
 1786 0602 0A       		.byte	0xa
 1787 0603 DB02     		.2byte	0x2db
 1788 0605 0B050000 		.4byte	0x50b
 1789 0609 08       		.uleb128 0x8
 1790 060a 0C       		.byte	0xc
 1791 060b 0B       		.byte	0xb
 1792 060c C1       		.byte	0xc1
 1793 060d 4E060000 		.4byte	0x64e
 1794 0611 06       		.uleb128 0x6
 1795 0612 30040000 		.4byte	.LASF95
 1796 0616 0B       		.byte	0xb
 1797 0617 C2       		.byte	0xc2
 1798 0618 4E060000 		.4byte	0x64e
 1799 061c 00       		.byte	0
 1800 061d 06       		.uleb128 0x6
 1801 061e 43040000 		.4byte	.LASF96
 1802 0622 0B       		.byte	0xb
 1803 0623 C3       		.byte	0xc3
 1804 0624 54060000 		.4byte	0x654
 1805 0628 04       		.byte	0x4
 1806 0629 06       		.uleb128 0x6
 1807 062a 57020000 		.4byte	.LASF97
 1808 062e 0B       		.byte	0xb
 1809 062f C4       		.byte	0xc4
 1810 0630 A9000000 		.4byte	0xa9
 1811 0634 08       		.byte	0x8
 1812 0635 06       		.uleb128 0x6
 1813 0636 C1010000 		.4byte	.LASF98
 1814 063a 0B       		.byte	0xb
 1815 063b C6       		.byte	0xc6
 1816 063c A9000000 		.4byte	0xa9
ARM GAS  /tmp/cck4I4CR.s 			page 33


 1817 0640 09       		.byte	0x9
 1818 0641 06       		.uleb128 0x6
 1819 0642 17000000 		.4byte	.LASF99
 1820 0646 0B       		.byte	0xb
 1821 0647 C7       		.byte	0xc7
 1822 0648 A9000000 		.4byte	0xa9
 1823 064c 0A       		.byte	0xa
 1824 064d 00       		.byte	0
 1825 064e 09       		.uleb128 0x9
 1826 064f 04       		.byte	0x4
 1827 0650 41040000 		.4byte	0x441
 1828 0654 09       		.uleb128 0x9
 1829 0655 04       		.byte	0x4
 1830 0656 53030000 		.4byte	0x353
 1831 065a 03       		.uleb128 0x3
 1832 065b D3030000 		.4byte	.LASF100
 1833 065f 0B       		.byte	0xb
 1834 0660 C8       		.byte	0xc8
 1835 0661 09060000 		.4byte	0x609
 1836 0665 03       		.uleb128 0x3
 1837 0666 1F020000 		.4byte	.LASF101
 1838 066a 0B       		.byte	0xb
 1839 066b D1       		.byte	0xd1
 1840 066c 70060000 		.4byte	0x670
 1841 0670 09       		.uleb128 0x9
 1842 0671 04       		.byte	0x4
 1843 0672 76060000 		.4byte	0x676
 1844 0676 14       		.uleb128 0x14
 1845 0677 86060000 		.4byte	0x686
 1846 067b 15       		.uleb128 0x15
 1847 067c A4020000 		.4byte	0x2a4
 1848 0680 15       		.uleb128 0x15
 1849 0681 CA000000 		.4byte	0xca
 1850 0685 00       		.byte	0
 1851 0686 08       		.uleb128 0x8
 1852 0687 04       		.byte	0x4
 1853 0688 0C       		.byte	0xc
 1854 0689 96       		.byte	0x96
 1855 068a A7060000 		.4byte	0x6a7
 1856 068e 07       		.uleb128 0x7
 1857 068f 73657400 		.ascii	"set\000"
 1858 0693 0C       		.byte	0xc
 1859 0694 97       		.byte	0x97
 1860 0695 B4000000 		.4byte	0xb4
 1861 0699 00       		.byte	0
 1862 069a 06       		.uleb128 0x6
 1863 069b E4020000 		.4byte	.LASF102
 1864 069f 0C       		.byte	0xc
 1865 06a0 98       		.byte	0x98
 1866 06a1 B4000000 		.4byte	0xb4
 1867 06a5 02       		.byte	0x2
 1868 06a6 00       		.byte	0
 1869 06a7 0E       		.uleb128 0xe
 1870 06a8 04       		.byte	0x4
 1871 06a9 0C       		.byte	0xc
 1872 06aa 94       		.byte	0x94
 1873 06ab C2060000 		.4byte	0x6c2
ARM GAS  /tmp/cck4I4CR.s 			page 34


 1874 06af 16       		.uleb128 0x16
 1875 06b0 5700     		.ascii	"W\000"
 1876 06b2 0C       		.byte	0xc
 1877 06b3 95       		.byte	0x95
 1878 06b4 CA000000 		.4byte	0xca
 1879 06b8 16       		.uleb128 0x16
 1880 06b9 4800     		.ascii	"H\000"
 1881 06bb 0C       		.byte	0xc
 1882 06bc 99       		.byte	0x99
 1883 06bd 86060000 		.4byte	0x686
 1884 06c1 00       		.byte	0
 1885 06c2 08       		.uleb128 0x8
 1886 06c3 28       		.byte	0x28
 1887 06c4 0C       		.byte	0xc
 1888 06c5 8C       		.byte	0x8c
 1889 06c6 43070000 		.4byte	0x743
 1890 06ca 06       		.uleb128 0x6
 1891 06cb 4D000000 		.4byte	.LASF103
 1892 06cf 0C       		.byte	0xc
 1893 06d0 8E       		.byte	0x8e
 1894 06d1 53030000 		.4byte	0x353
 1895 06d5 00       		.byte	0
 1896 06d6 06       		.uleb128 0x6
 1897 06d7 1E000000 		.4byte	.LASF104
 1898 06db 0C       		.byte	0xc
 1899 06dc 8F       		.byte	0x8f
 1900 06dd 53030000 		.4byte	0x353
 1901 06e1 04       		.byte	0x4
 1902 06e2 06       		.uleb128 0x6
 1903 06e3 9D010000 		.4byte	.LASF105
 1904 06e7 0C       		.byte	0xc
 1905 06e8 90       		.byte	0x90
 1906 06e9 53030000 		.4byte	0x353
 1907 06ed 08       		.byte	0x8
 1908 06ee 06       		.uleb128 0x6
 1909 06ef 70000000 		.4byte	.LASF106
 1910 06f3 0C       		.byte	0xc
 1911 06f4 91       		.byte	0x91
 1912 06f5 53030000 		.4byte	0x353
 1913 06f9 0C       		.byte	0xc
 1914 06fa 07       		.uleb128 0x7
 1915 06fb 49445200 		.ascii	"IDR\000"
 1916 06ff 0C       		.byte	0xc
 1917 0700 92       		.byte	0x92
 1918 0701 53030000 		.4byte	0x353
 1919 0705 10       		.byte	0x10
 1920 0706 07       		.uleb128 0x7
 1921 0707 4F445200 		.ascii	"ODR\000"
 1922 070b 0C       		.byte	0xc
 1923 070c 93       		.byte	0x93
 1924 070d 53030000 		.4byte	0x353
 1925 0711 14       		.byte	0x14
 1926 0712 06       		.uleb128 0x6
 1927 0713 E3000000 		.4byte	.LASF107
 1928 0717 0C       		.byte	0xc
 1929 0718 9A       		.byte	0x9a
 1930 0719 43070000 		.4byte	0x743
ARM GAS  /tmp/cck4I4CR.s 			page 35


 1931 071d 18       		.byte	0x18
 1932 071e 06       		.uleb128 0x6
 1933 071f 52020000 		.4byte	.LASF108
 1934 0723 0C       		.byte	0xc
 1935 0724 9B       		.byte	0x9b
 1936 0725 53030000 		.4byte	0x353
 1937 0729 1C       		.byte	0x1c
 1938 072a 06       		.uleb128 0x6
 1939 072b 46030000 		.4byte	.LASF109
 1940 072f 0C       		.byte	0xc
 1941 0730 9C       		.byte	0x9c
 1942 0731 53030000 		.4byte	0x353
 1943 0735 20       		.byte	0x20
 1944 0736 06       		.uleb128 0x6
 1945 0737 57060000 		.4byte	.LASF110
 1946 073b 0C       		.byte	0xc
 1947 073c 9D       		.byte	0x9d
 1948 073d 53030000 		.4byte	0x353
 1949 0741 24       		.byte	0x24
 1950 0742 00       		.byte	0
 1951 0743 0D       		.uleb128 0xd
 1952 0744 A7060000 		.4byte	0x6a7
 1953 0748 03       		.uleb128 0x3
 1954 0749 39020000 		.4byte	.LASF111
 1955 074d 0C       		.byte	0xc
 1956 074e 9E       		.byte	0x9e
 1957 074f C2060000 		.4byte	0x6c2
 1958 0753 03       		.uleb128 0x3
 1959 0754 3A000000 		.4byte	.LASF112
 1960 0758 0C       		.byte	0xc
 1961 0759 F0       		.byte	0xf0
 1962 075a CA000000 		.4byte	0xca
 1963 075e 03       		.uleb128 0x3
 1964 075f 7B050000 		.4byte	.LASF113
 1965 0763 0C       		.byte	0xc
 1966 0764 FD       		.byte	0xfd
 1967 0765 69070000 		.4byte	0x769
 1968 0769 09       		.uleb128 0x9
 1969 076a 04       		.byte	0x4
 1970 076b 48070000 		.4byte	0x748
 1971 076f 09       		.uleb128 0x9
 1972 0770 04       		.byte	0x4
 1973 0771 75070000 		.4byte	0x775
 1974 0775 10       		.uleb128 0x10
 1975 0776 5A060000 		.4byte	0x65a
 1976 077a 17       		.uleb128 0x17
 1977 077b 01       		.byte	0x1
 1978 077c 0D       		.byte	0xd
 1979 077d 55       		.byte	0x55
 1980 077e A1070000 		.4byte	0x7a1
 1981 0782 18       		.uleb128 0x18
 1982 0783 A6050000 		.4byte	.LASF114
 1983 0787 00       		.sleb128 0
 1984 0788 18       		.uleb128 0x18
 1985 0789 E8000000 		.4byte	.LASF115
 1986 078d 01       		.sleb128 1
 1987 078e 18       		.uleb128 0x18
ARM GAS  /tmp/cck4I4CR.s 			page 36


 1988 078f 9C050000 		.4byte	.LASF116
 1989 0793 02       		.sleb128 2
 1990 0794 18       		.uleb128 0x18
 1991 0795 2F000000 		.4byte	.LASF117
 1992 0799 03       		.sleb128 3
 1993 079a 18       		.uleb128 0x18
 1994 079b 1C050000 		.4byte	.LASF118
 1995 079f 04       		.sleb128 4
 1996 07a0 00       		.byte	0
 1997 07a1 03       		.uleb128 0x3
 1998 07a2 3B050000 		.4byte	.LASF119
 1999 07a6 0D       		.byte	0xd
 2000 07a7 5B       		.byte	0x5b
 2001 07a8 7A070000 		.4byte	0x77a
 2002 07ac 13       		.uleb128 0x13
 2003 07ad 98000000 		.4byte	.LASF120
 2004 07b1 0E       		.byte	0xe
 2005 07b2 2301     		.2byte	0x123
 2006 07b4 B8070000 		.4byte	0x7b8
 2007 07b8 0B       		.uleb128 0xb
 2008 07b9 98000000 		.4byte	.LASF120
 2009 07bd 30       		.byte	0x30
 2010 07be 0E       		.byte	0xe
 2011 07bf 4B01     		.2byte	0x14b
 2012 07c1 3B080000 		.4byte	0x83b
 2013 07c5 12       		.uleb128 0x12
 2014 07c6 0E010000 		.4byte	.LASF121
 2015 07ca 0E       		.byte	0xe
 2016 07cb 4F01     		.2byte	0x14f
 2017 07cd A1070000 		.4byte	0x7a1
 2018 07d1 00       		.byte	0
 2019 07d2 12       		.uleb128 0x12
 2020 07d3 29050000 		.4byte	.LASF122
 2021 07d7 0E       		.byte	0xe
 2022 07d8 5301     		.2byte	0x153
 2023 07da B5080000 		.4byte	0x8b5
 2024 07de 04       		.byte	0x4
 2025 07df 12       		.uleb128 0x12
 2026 07e0 6C050000 		.4byte	.LASF123
 2027 07e4 0E       		.byte	0xe
 2028 07e5 5801     		.2byte	0x158
 2029 07e7 68020000 		.4byte	0x268
 2030 07eb 08       		.byte	0x8
 2031 07ec 12       		.uleb128 0x12
 2032 07ed B1030000 		.4byte	.LASF124
 2033 07f1 0E       		.byte	0xe
 2034 07f2 5F01     		.2byte	0x15f
 2035 07f4 9B030000 		.4byte	0x39b
 2036 07f8 0C       		.byte	0xc
 2037 07f9 0C       		.uleb128 0xc
 2038 07fa 73706900 		.ascii	"spi\000"
 2039 07fe 0E       		.byte	0xe
 2040 07ff 6B01     		.2byte	0x16b
 2041 0801 C0080000 		.4byte	0x8c0
 2042 0805 1C       		.byte	0x1c
 2043 0806 12       		.uleb128 0x12
 2044 0807 47000000 		.4byte	.LASF125
ARM GAS  /tmp/cck4I4CR.s 			page 37


 2045 080b 0E       		.byte	0xe
 2046 080c 6F01     		.2byte	0x16f
 2047 080e 6F070000 		.4byte	0x76f
 2048 0812 20       		.byte	0x20
 2049 0813 12       		.uleb128 0x12
 2050 0814 97010000 		.4byte	.LASF126
 2051 0818 0E       		.byte	0xe
 2052 0819 7301     		.2byte	0x173
 2053 081b 6F070000 		.4byte	0x76f
 2054 081f 24       		.byte	0x24
 2055 0820 12       		.uleb128 0x12
 2056 0821 8D010000 		.4byte	.LASF127
 2057 0825 0E       		.byte	0xe
 2058 0826 7701     		.2byte	0x177
 2059 0828 CA000000 		.4byte	0xca
 2060 082c 28       		.byte	0x28
 2061 082d 12       		.uleb128 0x12
 2062 082e 0C030000 		.4byte	.LASF128
 2063 0832 0E       		.byte	0xe
 2064 0833 7B01     		.2byte	0x17b
 2065 0835 CA000000 		.4byte	0xca
 2066 0839 2C       		.byte	0x2c
 2067 083a 00       		.byte	0
 2068 083b 13       		.uleb128 0x13
 2069 083c CB010000 		.4byte	.LASF129
 2070 0840 0E       		.byte	0xe
 2071 0841 2B01     		.2byte	0x12b
 2072 0843 47080000 		.4byte	0x847
 2073 0847 09       		.uleb128 0x9
 2074 0848 04       		.byte	0x4
 2075 0849 4D080000 		.4byte	0x84d
 2076 084d 14       		.uleb128 0x14
 2077 084e 58080000 		.4byte	0x858
 2078 0852 15       		.uleb128 0x15
 2079 0853 58080000 		.4byte	0x858
 2080 0857 00       		.byte	0
 2081 0858 09       		.uleb128 0x9
 2082 0859 04       		.byte	0x4
 2083 085a AC070000 		.4byte	0x7ac
 2084 085e 11       		.uleb128 0x11
 2085 085f 10       		.byte	0x10
 2086 0860 0E       		.byte	0xe
 2087 0861 3001     		.2byte	0x130
 2088 0863 A9080000 		.4byte	0x8a9
 2089 0867 12       		.uleb128 0x12
 2090 0868 86010000 		.4byte	.LASF130
 2091 086c 0E       		.byte	0xe
 2092 086d 3401     		.2byte	0x134
 2093 086f 3B080000 		.4byte	0x83b
 2094 0873 00       		.byte	0
 2095 0874 12       		.uleb128 0x12
 2096 0875 A2000000 		.4byte	.LASF131
 2097 0879 0E       		.byte	0xe
 2098 087a 3901     		.2byte	0x139
 2099 087c 5E070000 		.4byte	0x75e
 2100 0880 04       		.byte	0x4
 2101 0881 12       		.uleb128 0x12
ARM GAS  /tmp/cck4I4CR.s 			page 38


 2102 0882 C3000000 		.4byte	.LASF132
 2103 0886 0E       		.byte	0xe
 2104 0887 3D01     		.2byte	0x13d
 2105 0889 B4000000 		.4byte	0xb4
 2106 088d 08       		.byte	0x8
 2107 088e 0C       		.uleb128 0xc
 2108 088f 63723100 		.ascii	"cr1\000"
 2109 0893 0E       		.byte	0xe
 2110 0894 4101     		.2byte	0x141
 2111 0896 B4000000 		.4byte	0xb4
 2112 089a 0A       		.byte	0xa
 2113 089b 0C       		.uleb128 0xc
 2114 089c 63723200 		.ascii	"cr2\000"
 2115 08a0 0E       		.byte	0xe
 2116 08a1 4501     		.2byte	0x145
 2117 08a3 B4000000 		.4byte	0xb4
 2118 08a7 0C       		.byte	0xc
 2119 08a8 00       		.byte	0
 2120 08a9 13       		.uleb128 0x13
 2121 08aa 47060000 		.4byte	.LASF133
 2122 08ae 0E       		.byte	0xe
 2123 08af 4601     		.2byte	0x146
 2124 08b1 5E080000 		.4byte	0x85e
 2125 08b5 09       		.uleb128 0x9
 2126 08b6 04       		.byte	0x4
 2127 08b7 BB080000 		.4byte	0x8bb
 2128 08bb 10       		.uleb128 0x10
 2129 08bc A9080000 		.4byte	0x8a9
 2130 08c0 09       		.uleb128 0x9
 2131 08c1 04       		.byte	0x4
 2132 08c2 FD050000 		.4byte	0x5fd
 2133 08c6 19       		.uleb128 0x19
 2134 08c7 1D010000 		.4byte	.LASF136
 2135 08cb 01       		.byte	0x1
 2136 08cc 5E       		.byte	0x5e
 2137 08cd 00000000 		.4byte	.LFB118
 2138 08d1 D0000000 		.4byte	.LFE118-.LFB118
 2139 08d5 01       		.uleb128 0x1
 2140 08d6 9C       		.byte	0x9c
 2141 08d7 45090000 		.4byte	0x945
 2142 08db 1A       		.uleb128 0x1a
 2143 08dc F4050000 		.4byte	.LASF134
 2144 08e0 01       		.byte	0x1
 2145 08e1 5E       		.byte	0x5e
 2146 08e2 58080000 		.4byte	0x858
 2147 08e6 02       		.uleb128 0x2
 2148 08e7 91       		.byte	0x91
 2149 08e8 6C       		.sleb128 -20
 2150 08e9 1A       		.uleb128 0x1a
 2151 08ea F9050000 		.4byte	.LASF135
 2152 08ee 01       		.byte	0x1
 2153 08ef 5E       		.byte	0x5e
 2154 08f0 CA000000 		.4byte	0xca
 2155 08f4 02       		.uleb128 0x2
 2156 08f5 91       		.byte	0x91
 2157 08f6 68       		.sleb128 -24
 2158 08f7 1B       		.uleb128 0x1b
ARM GAS  /tmp/cck4I4CR.s 			page 39


 2159 08f8 96000000 		.4byte	.LBB2
 2160 08fc 06000000 		.4byte	.LBE2-.LBB2
 2161 0900 12090000 		.4byte	0x912
 2162 0904 1C       		.uleb128 0x1c
 2163 0905 746D7000 		.ascii	"tmp\000"
 2164 0909 01       		.byte	0x1
 2165 090a 6F       		.byte	0x6f
 2166 090b CA000000 		.4byte	0xca
 2167 090f 01       		.uleb128 0x1
 2168 0910 53       		.byte	0x53
 2169 0911 00       		.byte	0
 2170 0912 1B       		.uleb128 0x1b
 2171 0913 A8000000 		.4byte	.LBB3
 2172 0917 18000000 		.4byte	.LBE3-.LBB3
 2173 091b 2D090000 		.4byte	0x92d
 2174 091f 1C       		.uleb128 0x1c
 2175 0920 747000   		.ascii	"tp\000"
 2176 0923 01       		.byte	0x1
 2177 0924 6F       		.byte	0x6f
 2178 0925 68020000 		.4byte	0x268
 2179 0929 02       		.uleb128 0x2
 2180 092a 91       		.byte	0x91
 2181 092b 74       		.sleb128 -12
 2182 092c 00       		.byte	0
 2183 092d 1D       		.uleb128 0x1d
 2184 092e C4000000 		.4byte	.LBB4
 2185 0932 06000000 		.4byte	.LBE4-.LBB4
 2186 0936 1C       		.uleb128 0x1c
 2187 0937 746D7000 		.ascii	"tmp\000"
 2188 093b 01       		.byte	0x1
 2189 093c 6F       		.byte	0x6f
 2190 093d CA000000 		.4byte	0xca
 2191 0941 01       		.uleb128 0x1
 2192 0942 53       		.byte	0x53
 2193 0943 00       		.byte	0
 2194 0944 00       		.byte	0
 2195 0945 19       		.uleb128 0x19
 2196 0946 0D060000 		.4byte	.LASF137
 2197 094a 01       		.byte	0x1
 2198 094b 78       		.byte	0x78
 2199 094c D0000000 		.4byte	.LFB119
 2200 0950 1C000000 		.4byte	.LFE119-.LFB119
 2201 0954 01       		.uleb128 0x1
 2202 0955 9C       		.byte	0x9c
 2203 0956 77090000 		.4byte	0x977
 2204 095a 1A       		.uleb128 0x1a
 2205 095b F4050000 		.4byte	.LASF134
 2206 095f 01       		.byte	0x1
 2207 0960 78       		.byte	0x78
 2208 0961 58080000 		.4byte	0x858
 2209 0965 02       		.uleb128 0x2
 2210 0966 91       		.byte	0x91
 2211 0967 74       		.sleb128 -12
 2212 0968 1A       		.uleb128 0x1a
 2213 0969 F9050000 		.4byte	.LASF135
 2214 096d 01       		.byte	0x1
 2215 096e 78       		.byte	0x78
ARM GAS  /tmp/cck4I4CR.s 			page 40


 2216 096f CA000000 		.4byte	0xca
 2217 0973 02       		.uleb128 0x2
 2218 0974 91       		.byte	0x91
 2219 0975 70       		.sleb128 -16
 2220 0976 00       		.byte	0
 2221 0977 1E       		.uleb128 0x1e
 2222 0978 B7020000 		.4byte	.LASF157
 2223 097c 01       		.byte	0x1
 2224 097d 93       		.byte	0x93
 2225 097e EC000000 		.4byte	.LFB120
 2226 0982 48000000 		.4byte	.LFE120-.LFB120
 2227 0986 01       		.uleb128 0x1
 2228 0987 9C       		.byte	0x9c
 2229 0988 1F       		.uleb128 0x1f
 2230 0989 D2050000 		.4byte	.LASF138
 2231 098d 01       		.byte	0x1
 2232 098e D5       		.byte	0xd5
 2233 098f 34010000 		.4byte	.LFB121
 2234 0993 3C010000 		.4byte	.LFE121-.LFB121
 2235 0997 01       		.uleb128 0x1
 2236 0998 9C       		.byte	0x9c
 2237 0999 CF090000 		.4byte	0x9cf
 2238 099d 1A       		.uleb128 0x1a
 2239 099e F4050000 		.4byte	.LASF134
 2240 09a2 01       		.byte	0x1
 2241 09a3 D5       		.byte	0xd5
 2242 09a4 58080000 		.4byte	0x858
 2243 09a8 02       		.uleb128 0x2
 2244 09a9 91       		.byte	0x91
 2245 09aa 6C       		.sleb128 -20
 2246 09ab 1C       		.uleb128 0x1c
 2247 09ac 647300   		.ascii	"ds\000"
 2248 09af 01       		.byte	0x1
 2249 09b0 D6       		.byte	0xd6
 2250 09b1 CA000000 		.4byte	0xca
 2251 09b5 02       		.uleb128 0x2
 2252 09b6 91       		.byte	0x91
 2253 09b7 70       		.sleb128 -16
 2254 09b8 1D       		.uleb128 0x1d
 2255 09b9 4A010000 		.4byte	.LBB5
 2256 09bd 54000000 		.4byte	.LBE5-.LBB5
 2257 09c1 1C       		.uleb128 0x1c
 2258 09c2 6200     		.ascii	"b\000"
 2259 09c4 01       		.byte	0x1
 2260 09c5 EC       		.byte	0xec
 2261 09c6 E0000000 		.4byte	0xe0
 2262 09ca 02       		.uleb128 0x2
 2263 09cb 91       		.byte	0x91
 2264 09cc 77       		.sleb128 -9
 2265 09cd 00       		.byte	0
 2266 09ce 00       		.byte	0
 2267 09cf 20       		.uleb128 0x20
 2268 09d0 0F050000 		.4byte	.LASF139
 2269 09d4 01       		.byte	0x1
 2270 09d5 3001     		.2byte	0x130
 2271 09d7 70020000 		.4byte	.LFB122
 2272 09db 54000000 		.4byte	.LFE122-.LFB122
ARM GAS  /tmp/cck4I4CR.s 			page 41


 2273 09df 01       		.uleb128 0x1
 2274 09e0 9C       		.byte	0x9c
 2275 09e1 F5090000 		.4byte	0x9f5
 2276 09e5 21       		.uleb128 0x21
 2277 09e6 F4050000 		.4byte	.LASF134
 2278 09ea 01       		.byte	0x1
 2279 09eb 3001     		.2byte	0x130
 2280 09ed 58080000 		.4byte	0x858
 2281 09f1 02       		.uleb128 0x2
 2282 09f2 91       		.byte	0x91
 2283 09f3 74       		.sleb128 -12
 2284 09f4 00       		.byte	0
 2285 09f5 22       		.uleb128 0x22
 2286 09f6 86050000 		.4byte	.LASF140
 2287 09fa 01       		.byte	0x1
 2288 09fb 5101     		.2byte	0x151
 2289 09fd C4020000 		.4byte	.LFB123
 2290 0a01 1E000000 		.4byte	.LFE123-.LFB123
 2291 0a05 01       		.uleb128 0x1
 2292 0a06 9C       		.byte	0x9c
 2293 0a07 1B0A0000 		.4byte	0xa1b
 2294 0a0b 21       		.uleb128 0x21
 2295 0a0c F4050000 		.4byte	.LASF134
 2296 0a10 01       		.byte	0x1
 2297 0a11 5101     		.2byte	0x151
 2298 0a13 58080000 		.4byte	0x858
 2299 0a17 02       		.uleb128 0x2
 2300 0a18 91       		.byte	0x91
 2301 0a19 7C       		.sleb128 -4
 2302 0a1a 00       		.byte	0
 2303 0a1b 22       		.uleb128 0x22
 2304 0a1c FE010000 		.4byte	.LASF141
 2305 0a20 01       		.byte	0x1
 2306 0a21 5E01     		.2byte	0x15e
 2307 0a23 E4020000 		.4byte	.LFB124
 2308 0a27 1E000000 		.4byte	.LFE124-.LFB124
 2309 0a2b 01       		.uleb128 0x1
 2310 0a2c 9C       		.byte	0x9c
 2311 0a2d 410A0000 		.4byte	0xa41
 2312 0a31 21       		.uleb128 0x21
 2313 0a32 F4050000 		.4byte	.LASF134
 2314 0a36 01       		.byte	0x1
 2315 0a37 5E01     		.2byte	0x15e
 2316 0a39 58080000 		.4byte	0x858
 2317 0a3d 02       		.uleb128 0x2
 2318 0a3e 91       		.byte	0x91
 2319 0a3f 7C       		.sleb128 -4
 2320 0a40 00       		.byte	0
 2321 0a41 22       		.uleb128 0x22
 2322 0a42 B1050000 		.4byte	.LASF142
 2323 0a46 01       		.byte	0x1
 2324 0a47 6E01     		.2byte	0x16e
 2325 0a49 04030000 		.4byte	.LFB125
 2326 0a4d 7C000000 		.4byte	.LFE125-.LFB125
 2327 0a51 01       		.uleb128 0x1
 2328 0a52 9C       		.byte	0x9c
 2329 0a53 740A0000 		.4byte	0xa74
ARM GAS  /tmp/cck4I4CR.s 			page 42


 2330 0a57 21       		.uleb128 0x21
 2331 0a58 F4050000 		.4byte	.LASF134
 2332 0a5c 01       		.byte	0x1
 2333 0a5d 6E01     		.2byte	0x16e
 2334 0a5f 58080000 		.4byte	0x858
 2335 0a63 02       		.uleb128 0x2
 2336 0a64 91       		.byte	0x91
 2337 0a65 7C       		.sleb128 -4
 2338 0a66 23       		.uleb128 0x23
 2339 0a67 6E00     		.ascii	"n\000"
 2340 0a69 01       		.byte	0x1
 2341 0a6a 6E01     		.2byte	0x16e
 2342 0a6c 28000000 		.4byte	0x28
 2343 0a70 02       		.uleb128 0x2
 2344 0a71 91       		.byte	0x91
 2345 0a72 78       		.sleb128 -8
 2346 0a73 00       		.byte	0
 2347 0a74 22       		.uleb128 0x22
 2348 0a75 4A010000 		.4byte	.LASF143
 2349 0a79 01       		.byte	0x1
 2350 0a7a 8B01     		.2byte	0x18b
 2351 0a7c 80030000 		.4byte	.LFB126
 2352 0a80 7E000000 		.4byte	.LFE126-.LFB126
 2353 0a84 01       		.uleb128 0x1
 2354 0a85 9C       		.byte	0x9c
 2355 0a86 C50A0000 		.4byte	0xac5
 2356 0a8a 21       		.uleb128 0x21
 2357 0a8b F4050000 		.4byte	.LASF134
 2358 0a8f 01       		.byte	0x1
 2359 0a90 8B01     		.2byte	0x18b
 2360 0a92 58080000 		.4byte	0x858
 2361 0a96 02       		.uleb128 0x2
 2362 0a97 91       		.byte	0x91
 2363 0a98 7C       		.sleb128 -4
 2364 0a99 23       		.uleb128 0x23
 2365 0a9a 6E00     		.ascii	"n\000"
 2366 0a9c 01       		.byte	0x1
 2367 0a9d 8B01     		.2byte	0x18b
 2368 0a9f 28000000 		.4byte	0x28
 2369 0aa3 02       		.uleb128 0x2
 2370 0aa4 91       		.byte	0x91
 2371 0aa5 78       		.sleb128 -8
 2372 0aa6 21       		.uleb128 0x21
 2373 0aa7 0F020000 		.4byte	.LASF144
 2374 0aab 01       		.byte	0x1
 2375 0aac 8C01     		.2byte	0x18c
 2376 0aae C50A0000 		.4byte	0xac5
 2377 0ab2 02       		.uleb128 0x2
 2378 0ab3 91       		.byte	0x91
 2379 0ab4 74       		.sleb128 -12
 2380 0ab5 21       		.uleb128 0x21
 2381 0ab6 B6000000 		.4byte	.LASF145
 2382 0aba 01       		.byte	0x1
 2383 0abb 8C01     		.2byte	0x18c
 2384 0abd A4020000 		.4byte	0x2a4
 2385 0ac1 02       		.uleb128 0x2
 2386 0ac2 91       		.byte	0x91
ARM GAS  /tmp/cck4I4CR.s 			page 43


 2387 0ac3 70       		.sleb128 -16
 2388 0ac4 00       		.byte	0
 2389 0ac5 09       		.uleb128 0x9
 2390 0ac6 04       		.byte	0x4
 2391 0ac7 CB0A0000 		.4byte	0xacb
 2392 0acb 24       		.uleb128 0x24
 2393 0acc 22       		.uleb128 0x22
 2394 0acd D9010000 		.4byte	.LASF146
 2395 0ad1 01       		.byte	0x1
 2396 0ad2 A701     		.2byte	0x1a7
 2397 0ad4 00040000 		.4byte	.LFB127
 2398 0ad8 7C000000 		.4byte	.LFE127-.LFB127
 2399 0adc 01       		.uleb128 0x1
 2400 0add 9C       		.byte	0x9c
 2401 0ade 0E0B0000 		.4byte	0xb0e
 2402 0ae2 21       		.uleb128 0x21
 2403 0ae3 F4050000 		.4byte	.LASF134
 2404 0ae7 01       		.byte	0x1
 2405 0ae8 A701     		.2byte	0x1a7
 2406 0aea 58080000 		.4byte	0x858
 2407 0aee 02       		.uleb128 0x2
 2408 0aef 91       		.byte	0x91
 2409 0af0 7C       		.sleb128 -4
 2410 0af1 23       		.uleb128 0x23
 2411 0af2 6E00     		.ascii	"n\000"
 2412 0af4 01       		.byte	0x1
 2413 0af5 A701     		.2byte	0x1a7
 2414 0af7 28000000 		.4byte	0x28
 2415 0afb 02       		.uleb128 0x2
 2416 0afc 91       		.byte	0x91
 2417 0afd 78       		.sleb128 -8
 2418 0afe 21       		.uleb128 0x21
 2419 0aff 0F020000 		.4byte	.LASF144
 2420 0b03 01       		.byte	0x1
 2421 0b04 A701     		.2byte	0x1a7
 2422 0b06 C50A0000 		.4byte	0xac5
 2423 0b0a 02       		.uleb128 0x2
 2424 0b0b 91       		.byte	0x91
 2425 0b0c 74       		.sleb128 -12
 2426 0b0d 00       		.byte	0
 2427 0b0e 22       		.uleb128 0x22
 2428 0b0f 08040000 		.4byte	.LASF147
 2429 0b13 01       		.byte	0x1
 2430 0b14 C201     		.2byte	0x1c2
 2431 0b16 7C040000 		.4byte	.LFB128
 2432 0b1a 7C000000 		.4byte	.LFE128-.LFB128
 2433 0b1e 01       		.uleb128 0x1
 2434 0b1f 9C       		.byte	0x9c
 2435 0b20 500B0000 		.4byte	0xb50
 2436 0b24 21       		.uleb128 0x21
 2437 0b25 F4050000 		.4byte	.LASF134
 2438 0b29 01       		.byte	0x1
 2439 0b2a C201     		.2byte	0x1c2
 2440 0b2c 58080000 		.4byte	0x858
 2441 0b30 02       		.uleb128 0x2
 2442 0b31 91       		.byte	0x91
 2443 0b32 7C       		.sleb128 -4
ARM GAS  /tmp/cck4I4CR.s 			page 44


 2444 0b33 23       		.uleb128 0x23
 2445 0b34 6E00     		.ascii	"n\000"
 2446 0b36 01       		.byte	0x1
 2447 0b37 C201     		.2byte	0x1c2
 2448 0b39 28000000 		.4byte	0x28
 2449 0b3d 02       		.uleb128 0x2
 2450 0b3e 91       		.byte	0x91
 2451 0b3f 78       		.sleb128 -8
 2452 0b40 21       		.uleb128 0x21
 2453 0b41 B6000000 		.4byte	.LASF145
 2454 0b45 01       		.byte	0x1
 2455 0b46 C201     		.2byte	0x1c2
 2456 0b48 A4020000 		.4byte	0x2a4
 2457 0b4c 02       		.uleb128 0x2
 2458 0b4d 91       		.byte	0x91
 2459 0b4e 74       		.sleb128 -12
 2460 0b4f 00       		.byte	0
 2461 0b50 25       		.uleb128 0x25
 2462 0b51 2F060000 		.4byte	.LASF158
 2463 0b55 01       		.byte	0x1
 2464 0b56 DC01     		.2byte	0x1dc
 2465 0b58 B4000000 		.4byte	0xb4
 2466 0b5c F8040000 		.4byte	.LFB129
 2467 0b60 72000000 		.4byte	.LFE129-.LFB129
 2468 0b64 01       		.uleb128 0x1
 2469 0b65 9C       		.byte	0x9c
 2470 0b66 A20B0000 		.4byte	0xba2
 2471 0b6a 21       		.uleb128 0x21
 2472 0b6b F4050000 		.4byte	.LASF134
 2473 0b6f 01       		.byte	0x1
 2474 0b70 DC01     		.2byte	0x1dc
 2475 0b72 58080000 		.4byte	0x858
 2476 0b76 02       		.uleb128 0x2
 2477 0b77 91       		.byte	0x91
 2478 0b78 74       		.sleb128 -12
 2479 0b79 21       		.uleb128 0x21
 2480 0b7a 08010000 		.4byte	.LASF148
 2481 0b7e 01       		.byte	0x1
 2482 0b7f DC01     		.2byte	0x1dc
 2483 0b81 B4000000 		.4byte	0xb4
 2484 0b85 02       		.uleb128 0x2
 2485 0b86 91       		.byte	0x91
 2486 0b87 72       		.sleb128 -14
 2487 0b88 1D       		.uleb128 0x1d
 2488 0b89 12050000 		.4byte	.LBB6
 2489 0b8d 2E000000 		.4byte	.LBE6-.LBB6
 2490 0b91 26       		.uleb128 0x26
 2491 0b92 7F000000 		.4byte	.LASF149
 2492 0b96 01       		.byte	0x1
 2493 0b97 E601     		.2byte	0x1e6
 2494 0b99 A20B0000 		.4byte	0xba2
 2495 0b9d 02       		.uleb128 0x2
 2496 0b9e 91       		.byte	0x91
 2497 0b9f 7C       		.sleb128 -4
 2498 0ba0 00       		.byte	0
 2499 0ba1 00       		.byte	0
 2500 0ba2 09       		.uleb128 0x9
ARM GAS  /tmp/cck4I4CR.s 			page 45


 2501 0ba3 04       		.byte	0x4
 2502 0ba4 4E030000 		.4byte	0x34e
 2503 0ba8 27       		.uleb128 0x27
 2504 0ba9 18040000 		.4byte	.LASF150
 2505 0bad 01       		.byte	0x1
 2506 0bae 51       		.byte	0x51
 2507 0baf B4000000 		.4byte	0xb4
 2508 0bb3 05       		.uleb128 0x5
 2509 0bb4 03       		.byte	0x3
 2510 0bb5 00000000 		.4byte	dummytx
 2511 0bb9 27       		.uleb128 0x27
 2512 0bba 7F020000 		.4byte	.LASF151
 2513 0bbe 01       		.byte	0x1
 2514 0bbf 52       		.byte	0x52
 2515 0bc0 B4000000 		.4byte	0xb4
 2516 0bc4 05       		.uleb128 0x5
 2517 0bc5 03       		.byte	0x3
 2518 0bc6 02000000 		.4byte	dummyrx
 2519 0bca 28       		.uleb128 0x28
 2520 0bcb A9000000 		.4byte	.LASF152
 2521 0bcf 0F       		.byte	0xf
 2522 0bd0 9806     		.2byte	0x698
 2523 0bd2 FE030000 		.4byte	0x3fe
 2524 0bd6 29       		.uleb128 0x29
 2525 0bd7 5A060000 		.4byte	0x65a
 2526 0bdb E60B0000 		.4byte	0xbe6
 2527 0bdf 2A       		.uleb128 0x2a
 2528 0be0 58030000 		.4byte	0x358
 2529 0be4 0B       		.byte	0xb
 2530 0be5 00       		.byte	0
 2531 0be6 28       		.uleb128 0x28
 2532 0be7 85000000 		.4byte	.LASF153
 2533 0beb 0B       		.byte	0xb
 2534 0bec 8401     		.2byte	0x184
 2535 0bee F20B0000 		.4byte	0xbf2
 2536 0bf2 10       		.uleb128 0x10
 2537 0bf3 D60B0000 		.4byte	0xbd6
 2538 0bf7 2B       		.uleb128 0x2b
 2539 0bf8 E6030000 		.4byte	.LASF154
 2540 0bfc 01       		.byte	0x1
 2541 0bfd 45       		.byte	0x45
 2542 0bfe AC070000 		.4byte	0x7ac
 2543 0c02 05       		.uleb128 0x5
 2544 0c03 03       		.byte	0x3
 2545 0c04 00000000 		.4byte	SPID2
 2546 0c08 00       		.byte	0
 2547              		.section	.debug_abbrev,"",%progbits
 2548              	.Ldebug_abbrev0:
 2549 0000 01       		.uleb128 0x1
 2550 0001 11       		.uleb128 0x11
 2551 0002 01       		.byte	0x1
 2552 0003 25       		.uleb128 0x25
 2553 0004 0E       		.uleb128 0xe
 2554 0005 13       		.uleb128 0x13
 2555 0006 0B       		.uleb128 0xb
 2556 0007 03       		.uleb128 0x3
 2557 0008 0E       		.uleb128 0xe
ARM GAS  /tmp/cck4I4CR.s 			page 46


 2558 0009 11       		.uleb128 0x11
 2559 000a 01       		.uleb128 0x1
 2560 000b 12       		.uleb128 0x12
 2561 000c 06       		.uleb128 0x6
 2562 000d 10       		.uleb128 0x10
 2563 000e 17       		.uleb128 0x17
 2564 000f 00       		.byte	0
 2565 0010 00       		.byte	0
 2566 0011 02       		.uleb128 0x2
 2567 0012 24       		.uleb128 0x24
 2568 0013 00       		.byte	0
 2569 0014 0B       		.uleb128 0xb
 2570 0015 0B       		.uleb128 0xb
 2571 0016 3E       		.uleb128 0x3e
 2572 0017 0B       		.uleb128 0xb
 2573 0018 03       		.uleb128 0x3
 2574 0019 08       		.uleb128 0x8
 2575 001a 00       		.byte	0
 2576 001b 00       		.byte	0
 2577 001c 03       		.uleb128 0x3
 2578 001d 16       		.uleb128 0x16
 2579 001e 00       		.byte	0
 2580 001f 03       		.uleb128 0x3
 2581 0020 0E       		.uleb128 0xe
 2582 0021 3A       		.uleb128 0x3a
 2583 0022 0B       		.uleb128 0xb
 2584 0023 3B       		.uleb128 0x3b
 2585 0024 0B       		.uleb128 0xb
 2586 0025 49       		.uleb128 0x49
 2587 0026 13       		.uleb128 0x13
 2588 0027 00       		.byte	0
 2589 0028 00       		.byte	0
 2590 0029 04       		.uleb128 0x4
 2591 002a 24       		.uleb128 0x24
 2592 002b 00       		.byte	0
 2593 002c 0B       		.uleb128 0xb
 2594 002d 0B       		.uleb128 0xb
 2595 002e 3E       		.uleb128 0x3e
 2596 002f 0B       		.uleb128 0xb
 2597 0030 03       		.uleb128 0x3
 2598 0031 0E       		.uleb128 0xe
 2599 0032 00       		.byte	0
 2600 0033 00       		.byte	0
 2601 0034 05       		.uleb128 0x5
 2602 0035 13       		.uleb128 0x13
 2603 0036 01       		.byte	0x1
 2604 0037 03       		.uleb128 0x3
 2605 0038 0E       		.uleb128 0xe
 2606 0039 0B       		.uleb128 0xb
 2607 003a 0B       		.uleb128 0xb
 2608 003b 3A       		.uleb128 0x3a
 2609 003c 0B       		.uleb128 0xb
 2610 003d 3B       		.uleb128 0x3b
 2611 003e 0B       		.uleb128 0xb
 2612 003f 01       		.uleb128 0x1
 2613 0040 13       		.uleb128 0x13
 2614 0041 00       		.byte	0
ARM GAS  /tmp/cck4I4CR.s 			page 47


 2615 0042 00       		.byte	0
 2616 0043 06       		.uleb128 0x6
 2617 0044 0D       		.uleb128 0xd
 2618 0045 00       		.byte	0
 2619 0046 03       		.uleb128 0x3
 2620 0047 0E       		.uleb128 0xe
 2621 0048 3A       		.uleb128 0x3a
 2622 0049 0B       		.uleb128 0xb
 2623 004a 3B       		.uleb128 0x3b
 2624 004b 0B       		.uleb128 0xb
 2625 004c 49       		.uleb128 0x49
 2626 004d 13       		.uleb128 0x13
 2627 004e 38       		.uleb128 0x38
 2628 004f 0B       		.uleb128 0xb
 2629 0050 00       		.byte	0
 2630 0051 00       		.byte	0
 2631 0052 07       		.uleb128 0x7
 2632 0053 0D       		.uleb128 0xd
 2633 0054 00       		.byte	0
 2634 0055 03       		.uleb128 0x3
 2635 0056 08       		.uleb128 0x8
 2636 0057 3A       		.uleb128 0x3a
 2637 0058 0B       		.uleb128 0xb
 2638 0059 3B       		.uleb128 0x3b
 2639 005a 0B       		.uleb128 0xb
 2640 005b 49       		.uleb128 0x49
 2641 005c 13       		.uleb128 0x13
 2642 005d 38       		.uleb128 0x38
 2643 005e 0B       		.uleb128 0xb
 2644 005f 00       		.byte	0
 2645 0060 00       		.byte	0
 2646 0061 08       		.uleb128 0x8
 2647 0062 13       		.uleb128 0x13
 2648 0063 01       		.byte	0x1
 2649 0064 0B       		.uleb128 0xb
 2650 0065 0B       		.uleb128 0xb
 2651 0066 3A       		.uleb128 0x3a
 2652 0067 0B       		.uleb128 0xb
 2653 0068 3B       		.uleb128 0x3b
 2654 0069 0B       		.uleb128 0xb
 2655 006a 01       		.uleb128 0x1
 2656 006b 13       		.uleb128 0x13
 2657 006c 00       		.byte	0
 2658 006d 00       		.byte	0
 2659 006e 09       		.uleb128 0x9
 2660 006f 0F       		.uleb128 0xf
 2661 0070 00       		.byte	0
 2662 0071 0B       		.uleb128 0xb
 2663 0072 0B       		.uleb128 0xb
 2664 0073 49       		.uleb128 0x49
 2665 0074 13       		.uleb128 0x13
 2666 0075 00       		.byte	0
 2667 0076 00       		.byte	0
 2668 0077 0A       		.uleb128 0xa
 2669 0078 0F       		.uleb128 0xf
 2670 0079 00       		.byte	0
 2671 007a 0B       		.uleb128 0xb
ARM GAS  /tmp/cck4I4CR.s 			page 48


 2672 007b 0B       		.uleb128 0xb
 2673 007c 00       		.byte	0
 2674 007d 00       		.byte	0
 2675 007e 0B       		.uleb128 0xb
 2676 007f 13       		.uleb128 0x13
 2677 0080 01       		.byte	0x1
 2678 0081 03       		.uleb128 0x3
 2679 0082 0E       		.uleb128 0xe
 2680 0083 0B       		.uleb128 0xb
 2681 0084 0B       		.uleb128 0xb
 2682 0085 3A       		.uleb128 0x3a
 2683 0086 0B       		.uleb128 0xb
 2684 0087 3B       		.uleb128 0x3b
 2685 0088 05       		.uleb128 0x5
 2686 0089 01       		.uleb128 0x1
 2687 008a 13       		.uleb128 0x13
 2688 008b 00       		.byte	0
 2689 008c 00       		.byte	0
 2690 008d 0C       		.uleb128 0xc
 2691 008e 0D       		.uleb128 0xd
 2692 008f 00       		.byte	0
 2693 0090 03       		.uleb128 0x3
 2694 0091 08       		.uleb128 0x8
 2695 0092 3A       		.uleb128 0x3a
 2696 0093 0B       		.uleb128 0xb
 2697 0094 3B       		.uleb128 0x3b
 2698 0095 05       		.uleb128 0x5
 2699 0096 49       		.uleb128 0x49
 2700 0097 13       		.uleb128 0x13
 2701 0098 38       		.uleb128 0x38
 2702 0099 0B       		.uleb128 0xb
 2703 009a 00       		.byte	0
 2704 009b 00       		.byte	0
 2705 009c 0D       		.uleb128 0xd
 2706 009d 35       		.uleb128 0x35
 2707 009e 00       		.byte	0
 2708 009f 49       		.uleb128 0x49
 2709 00a0 13       		.uleb128 0x13
 2710 00a1 00       		.byte	0
 2711 00a2 00       		.byte	0
 2712 00a3 0E       		.uleb128 0xe
 2713 00a4 17       		.uleb128 0x17
 2714 00a5 01       		.byte	0x1
 2715 00a6 0B       		.uleb128 0xb
 2716 00a7 0B       		.uleb128 0xb
 2717 00a8 3A       		.uleb128 0x3a
 2718 00a9 0B       		.uleb128 0xb
 2719 00aa 3B       		.uleb128 0x3b
 2720 00ab 0B       		.uleb128 0xb
 2721 00ac 01       		.uleb128 0x1
 2722 00ad 13       		.uleb128 0x13
 2723 00ae 00       		.byte	0
 2724 00af 00       		.byte	0
 2725 00b0 0F       		.uleb128 0xf
 2726 00b1 0D       		.uleb128 0xd
 2727 00b2 00       		.byte	0
 2728 00b3 03       		.uleb128 0x3
ARM GAS  /tmp/cck4I4CR.s 			page 49


 2729 00b4 0E       		.uleb128 0xe
 2730 00b5 3A       		.uleb128 0x3a
 2731 00b6 0B       		.uleb128 0xb
 2732 00b7 3B       		.uleb128 0x3b
 2733 00b8 0B       		.uleb128 0xb
 2734 00b9 49       		.uleb128 0x49
 2735 00ba 13       		.uleb128 0x13
 2736 00bb 00       		.byte	0
 2737 00bc 00       		.byte	0
 2738 00bd 10       		.uleb128 0x10
 2739 00be 26       		.uleb128 0x26
 2740 00bf 00       		.byte	0
 2741 00c0 49       		.uleb128 0x49
 2742 00c1 13       		.uleb128 0x13
 2743 00c2 00       		.byte	0
 2744 00c3 00       		.byte	0
 2745 00c4 11       		.uleb128 0x11
 2746 00c5 13       		.uleb128 0x13
 2747 00c6 01       		.byte	0x1
 2748 00c7 0B       		.uleb128 0xb
 2749 00c8 0B       		.uleb128 0xb
 2750 00c9 3A       		.uleb128 0x3a
 2751 00ca 0B       		.uleb128 0xb
 2752 00cb 3B       		.uleb128 0x3b
 2753 00cc 05       		.uleb128 0x5
 2754 00cd 01       		.uleb128 0x1
 2755 00ce 13       		.uleb128 0x13
 2756 00cf 00       		.byte	0
 2757 00d0 00       		.byte	0
 2758 00d1 12       		.uleb128 0x12
 2759 00d2 0D       		.uleb128 0xd
 2760 00d3 00       		.byte	0
 2761 00d4 03       		.uleb128 0x3
 2762 00d5 0E       		.uleb128 0xe
 2763 00d6 3A       		.uleb128 0x3a
 2764 00d7 0B       		.uleb128 0xb
 2765 00d8 3B       		.uleb128 0x3b
 2766 00d9 05       		.uleb128 0x5
 2767 00da 49       		.uleb128 0x49
 2768 00db 13       		.uleb128 0x13
 2769 00dc 38       		.uleb128 0x38
 2770 00dd 0B       		.uleb128 0xb
 2771 00de 00       		.byte	0
 2772 00df 00       		.byte	0
 2773 00e0 13       		.uleb128 0x13
 2774 00e1 16       		.uleb128 0x16
 2775 00e2 00       		.byte	0
 2776 00e3 03       		.uleb128 0x3
 2777 00e4 0E       		.uleb128 0xe
 2778 00e5 3A       		.uleb128 0x3a
 2779 00e6 0B       		.uleb128 0xb
 2780 00e7 3B       		.uleb128 0x3b
 2781 00e8 05       		.uleb128 0x5
 2782 00e9 49       		.uleb128 0x49
 2783 00ea 13       		.uleb128 0x13
 2784 00eb 00       		.byte	0
 2785 00ec 00       		.byte	0
ARM GAS  /tmp/cck4I4CR.s 			page 50


 2786 00ed 14       		.uleb128 0x14
 2787 00ee 15       		.uleb128 0x15
 2788 00ef 01       		.byte	0x1
 2789 00f0 27       		.uleb128 0x27
 2790 00f1 19       		.uleb128 0x19
 2791 00f2 01       		.uleb128 0x1
 2792 00f3 13       		.uleb128 0x13
 2793 00f4 00       		.byte	0
 2794 00f5 00       		.byte	0
 2795 00f6 15       		.uleb128 0x15
 2796 00f7 05       		.uleb128 0x5
 2797 00f8 00       		.byte	0
 2798 00f9 49       		.uleb128 0x49
 2799 00fa 13       		.uleb128 0x13
 2800 00fb 00       		.byte	0
 2801 00fc 00       		.byte	0
 2802 00fd 16       		.uleb128 0x16
 2803 00fe 0D       		.uleb128 0xd
 2804 00ff 00       		.byte	0
 2805 0100 03       		.uleb128 0x3
 2806 0101 08       		.uleb128 0x8
 2807 0102 3A       		.uleb128 0x3a
 2808 0103 0B       		.uleb128 0xb
 2809 0104 3B       		.uleb128 0x3b
 2810 0105 0B       		.uleb128 0xb
 2811 0106 49       		.uleb128 0x49
 2812 0107 13       		.uleb128 0x13
 2813 0108 00       		.byte	0
 2814 0109 00       		.byte	0
 2815 010a 17       		.uleb128 0x17
 2816 010b 04       		.uleb128 0x4
 2817 010c 01       		.byte	0x1
 2818 010d 0B       		.uleb128 0xb
 2819 010e 0B       		.uleb128 0xb
 2820 010f 3A       		.uleb128 0x3a
 2821 0110 0B       		.uleb128 0xb
 2822 0111 3B       		.uleb128 0x3b
 2823 0112 0B       		.uleb128 0xb
 2824 0113 01       		.uleb128 0x1
 2825 0114 13       		.uleb128 0x13
 2826 0115 00       		.byte	0
 2827 0116 00       		.byte	0
 2828 0117 18       		.uleb128 0x18
 2829 0118 28       		.uleb128 0x28
 2830 0119 00       		.byte	0
 2831 011a 03       		.uleb128 0x3
 2832 011b 0E       		.uleb128 0xe
 2833 011c 1C       		.uleb128 0x1c
 2834 011d 0D       		.uleb128 0xd
 2835 011e 00       		.byte	0
 2836 011f 00       		.byte	0
 2837 0120 19       		.uleb128 0x19
 2838 0121 2E       		.uleb128 0x2e
 2839 0122 01       		.byte	0x1
 2840 0123 03       		.uleb128 0x3
 2841 0124 0E       		.uleb128 0xe
 2842 0125 3A       		.uleb128 0x3a
ARM GAS  /tmp/cck4I4CR.s 			page 51


 2843 0126 0B       		.uleb128 0xb
 2844 0127 3B       		.uleb128 0x3b
 2845 0128 0B       		.uleb128 0xb
 2846 0129 27       		.uleb128 0x27
 2847 012a 19       		.uleb128 0x19
 2848 012b 11       		.uleb128 0x11
 2849 012c 01       		.uleb128 0x1
 2850 012d 12       		.uleb128 0x12
 2851 012e 06       		.uleb128 0x6
 2852 012f 40       		.uleb128 0x40
 2853 0130 18       		.uleb128 0x18
 2854 0131 9642     		.uleb128 0x2116
 2855 0133 19       		.uleb128 0x19
 2856 0134 01       		.uleb128 0x1
 2857 0135 13       		.uleb128 0x13
 2858 0136 00       		.byte	0
 2859 0137 00       		.byte	0
 2860 0138 1A       		.uleb128 0x1a
 2861 0139 05       		.uleb128 0x5
 2862 013a 00       		.byte	0
 2863 013b 03       		.uleb128 0x3
 2864 013c 0E       		.uleb128 0xe
 2865 013d 3A       		.uleb128 0x3a
 2866 013e 0B       		.uleb128 0xb
 2867 013f 3B       		.uleb128 0x3b
 2868 0140 0B       		.uleb128 0xb
 2869 0141 49       		.uleb128 0x49
 2870 0142 13       		.uleb128 0x13
 2871 0143 02       		.uleb128 0x2
 2872 0144 18       		.uleb128 0x18
 2873 0145 00       		.byte	0
 2874 0146 00       		.byte	0
 2875 0147 1B       		.uleb128 0x1b
 2876 0148 0B       		.uleb128 0xb
 2877 0149 01       		.byte	0x1
 2878 014a 11       		.uleb128 0x11
 2879 014b 01       		.uleb128 0x1
 2880 014c 12       		.uleb128 0x12
 2881 014d 06       		.uleb128 0x6
 2882 014e 01       		.uleb128 0x1
 2883 014f 13       		.uleb128 0x13
 2884 0150 00       		.byte	0
 2885 0151 00       		.byte	0
 2886 0152 1C       		.uleb128 0x1c
 2887 0153 34       		.uleb128 0x34
 2888 0154 00       		.byte	0
 2889 0155 03       		.uleb128 0x3
 2890 0156 08       		.uleb128 0x8
 2891 0157 3A       		.uleb128 0x3a
 2892 0158 0B       		.uleb128 0xb
 2893 0159 3B       		.uleb128 0x3b
 2894 015a 0B       		.uleb128 0xb
 2895 015b 49       		.uleb128 0x49
 2896 015c 13       		.uleb128 0x13
 2897 015d 02       		.uleb128 0x2
 2898 015e 18       		.uleb128 0x18
 2899 015f 00       		.byte	0
ARM GAS  /tmp/cck4I4CR.s 			page 52


 2900 0160 00       		.byte	0
 2901 0161 1D       		.uleb128 0x1d
 2902 0162 0B       		.uleb128 0xb
 2903 0163 01       		.byte	0x1
 2904 0164 11       		.uleb128 0x11
 2905 0165 01       		.uleb128 0x1
 2906 0166 12       		.uleb128 0x12
 2907 0167 06       		.uleb128 0x6
 2908 0168 00       		.byte	0
 2909 0169 00       		.byte	0
 2910 016a 1E       		.uleb128 0x1e
 2911 016b 2E       		.uleb128 0x2e
 2912 016c 00       		.byte	0
 2913 016d 3F       		.uleb128 0x3f
 2914 016e 19       		.uleb128 0x19
 2915 016f 03       		.uleb128 0x3
 2916 0170 0E       		.uleb128 0xe
 2917 0171 3A       		.uleb128 0x3a
 2918 0172 0B       		.uleb128 0xb
 2919 0173 3B       		.uleb128 0x3b
 2920 0174 0B       		.uleb128 0xb
 2921 0175 27       		.uleb128 0x27
 2922 0176 19       		.uleb128 0x19
 2923 0177 11       		.uleb128 0x11
 2924 0178 01       		.uleb128 0x1
 2925 0179 12       		.uleb128 0x12
 2926 017a 06       		.uleb128 0x6
 2927 017b 40       		.uleb128 0x40
 2928 017c 18       		.uleb128 0x18
 2929 017d 9642     		.uleb128 0x2116
 2930 017f 19       		.uleb128 0x19
 2931 0180 00       		.byte	0
 2932 0181 00       		.byte	0
 2933 0182 1F       		.uleb128 0x1f
 2934 0183 2E       		.uleb128 0x2e
 2935 0184 01       		.byte	0x1
 2936 0185 3F       		.uleb128 0x3f
 2937 0186 19       		.uleb128 0x19
 2938 0187 03       		.uleb128 0x3
 2939 0188 0E       		.uleb128 0xe
 2940 0189 3A       		.uleb128 0x3a
 2941 018a 0B       		.uleb128 0xb
 2942 018b 3B       		.uleb128 0x3b
 2943 018c 0B       		.uleb128 0xb
 2944 018d 27       		.uleb128 0x27
 2945 018e 19       		.uleb128 0x19
 2946 018f 11       		.uleb128 0x11
 2947 0190 01       		.uleb128 0x1
 2948 0191 12       		.uleb128 0x12
 2949 0192 06       		.uleb128 0x6
 2950 0193 40       		.uleb128 0x40
 2951 0194 18       		.uleb128 0x18
 2952 0195 9642     		.uleb128 0x2116
 2953 0197 19       		.uleb128 0x19
 2954 0198 01       		.uleb128 0x1
 2955 0199 13       		.uleb128 0x13
 2956 019a 00       		.byte	0
ARM GAS  /tmp/cck4I4CR.s 			page 53


 2957 019b 00       		.byte	0
 2958 019c 20       		.uleb128 0x20
 2959 019d 2E       		.uleb128 0x2e
 2960 019e 01       		.byte	0x1
 2961 019f 3F       		.uleb128 0x3f
 2962 01a0 19       		.uleb128 0x19
 2963 01a1 03       		.uleb128 0x3
 2964 01a2 0E       		.uleb128 0xe
 2965 01a3 3A       		.uleb128 0x3a
 2966 01a4 0B       		.uleb128 0xb
 2967 01a5 3B       		.uleb128 0x3b
 2968 01a6 05       		.uleb128 0x5
 2969 01a7 27       		.uleb128 0x27
 2970 01a8 19       		.uleb128 0x19
 2971 01a9 11       		.uleb128 0x11
 2972 01aa 01       		.uleb128 0x1
 2973 01ab 12       		.uleb128 0x12
 2974 01ac 06       		.uleb128 0x6
 2975 01ad 40       		.uleb128 0x40
 2976 01ae 18       		.uleb128 0x18
 2977 01af 9642     		.uleb128 0x2116
 2978 01b1 19       		.uleb128 0x19
 2979 01b2 01       		.uleb128 0x1
 2980 01b3 13       		.uleb128 0x13
 2981 01b4 00       		.byte	0
 2982 01b5 00       		.byte	0
 2983 01b6 21       		.uleb128 0x21
 2984 01b7 05       		.uleb128 0x5
 2985 01b8 00       		.byte	0
 2986 01b9 03       		.uleb128 0x3
 2987 01ba 0E       		.uleb128 0xe
 2988 01bb 3A       		.uleb128 0x3a
 2989 01bc 0B       		.uleb128 0xb
 2990 01bd 3B       		.uleb128 0x3b
 2991 01be 05       		.uleb128 0x5
 2992 01bf 49       		.uleb128 0x49
 2993 01c0 13       		.uleb128 0x13
 2994 01c1 02       		.uleb128 0x2
 2995 01c2 18       		.uleb128 0x18
 2996 01c3 00       		.byte	0
 2997 01c4 00       		.byte	0
 2998 01c5 22       		.uleb128 0x22
 2999 01c6 2E       		.uleb128 0x2e
 3000 01c7 01       		.byte	0x1
 3001 01c8 3F       		.uleb128 0x3f
 3002 01c9 19       		.uleb128 0x19
 3003 01ca 03       		.uleb128 0x3
 3004 01cb 0E       		.uleb128 0xe
 3005 01cc 3A       		.uleb128 0x3a
 3006 01cd 0B       		.uleb128 0xb
 3007 01ce 3B       		.uleb128 0x3b
 3008 01cf 05       		.uleb128 0x5
 3009 01d0 27       		.uleb128 0x27
 3010 01d1 19       		.uleb128 0x19
 3011 01d2 11       		.uleb128 0x11
 3012 01d3 01       		.uleb128 0x1
 3013 01d4 12       		.uleb128 0x12
ARM GAS  /tmp/cck4I4CR.s 			page 54


 3014 01d5 06       		.uleb128 0x6
 3015 01d6 40       		.uleb128 0x40
 3016 01d7 18       		.uleb128 0x18
 3017 01d8 9742     		.uleb128 0x2117
 3018 01da 19       		.uleb128 0x19
 3019 01db 01       		.uleb128 0x1
 3020 01dc 13       		.uleb128 0x13
 3021 01dd 00       		.byte	0
 3022 01de 00       		.byte	0
 3023 01df 23       		.uleb128 0x23
 3024 01e0 05       		.uleb128 0x5
 3025 01e1 00       		.byte	0
 3026 01e2 03       		.uleb128 0x3
 3027 01e3 08       		.uleb128 0x8
 3028 01e4 3A       		.uleb128 0x3a
 3029 01e5 0B       		.uleb128 0xb
 3030 01e6 3B       		.uleb128 0x3b
 3031 01e7 05       		.uleb128 0x5
 3032 01e8 49       		.uleb128 0x49
 3033 01e9 13       		.uleb128 0x13
 3034 01ea 02       		.uleb128 0x2
 3035 01eb 18       		.uleb128 0x18
 3036 01ec 00       		.byte	0
 3037 01ed 00       		.byte	0
 3038 01ee 24       		.uleb128 0x24
 3039 01ef 26       		.uleb128 0x26
 3040 01f0 00       		.byte	0
 3041 01f1 00       		.byte	0
 3042 01f2 00       		.byte	0
 3043 01f3 25       		.uleb128 0x25
 3044 01f4 2E       		.uleb128 0x2e
 3045 01f5 01       		.byte	0x1
 3046 01f6 3F       		.uleb128 0x3f
 3047 01f7 19       		.uleb128 0x19
 3048 01f8 03       		.uleb128 0x3
 3049 01f9 0E       		.uleb128 0xe
 3050 01fa 3A       		.uleb128 0x3a
 3051 01fb 0B       		.uleb128 0xb
 3052 01fc 3B       		.uleb128 0x3b
 3053 01fd 05       		.uleb128 0x5
 3054 01fe 27       		.uleb128 0x27
 3055 01ff 19       		.uleb128 0x19
 3056 0200 49       		.uleb128 0x49
 3057 0201 13       		.uleb128 0x13
 3058 0202 11       		.uleb128 0x11
 3059 0203 01       		.uleb128 0x1
 3060 0204 12       		.uleb128 0x12
 3061 0205 06       		.uleb128 0x6
 3062 0206 40       		.uleb128 0x40
 3063 0207 18       		.uleb128 0x18
 3064 0208 9742     		.uleb128 0x2117
 3065 020a 19       		.uleb128 0x19
 3066 020b 01       		.uleb128 0x1
 3067 020c 13       		.uleb128 0x13
 3068 020d 00       		.byte	0
 3069 020e 00       		.byte	0
 3070 020f 26       		.uleb128 0x26
ARM GAS  /tmp/cck4I4CR.s 			page 55


 3071 0210 34       		.uleb128 0x34
 3072 0211 00       		.byte	0
 3073 0212 03       		.uleb128 0x3
 3074 0213 0E       		.uleb128 0xe
 3075 0214 3A       		.uleb128 0x3a
 3076 0215 0B       		.uleb128 0xb
 3077 0216 3B       		.uleb128 0x3b
 3078 0217 05       		.uleb128 0x5
 3079 0218 49       		.uleb128 0x49
 3080 0219 13       		.uleb128 0x13
 3081 021a 02       		.uleb128 0x2
 3082 021b 18       		.uleb128 0x18
 3083 021c 00       		.byte	0
 3084 021d 00       		.byte	0
 3085 021e 27       		.uleb128 0x27
 3086 021f 34       		.uleb128 0x34
 3087 0220 00       		.byte	0
 3088 0221 03       		.uleb128 0x3
 3089 0222 0E       		.uleb128 0xe
 3090 0223 3A       		.uleb128 0x3a
 3091 0224 0B       		.uleb128 0xb
 3092 0225 3B       		.uleb128 0x3b
 3093 0226 0B       		.uleb128 0xb
 3094 0227 49       		.uleb128 0x49
 3095 0228 13       		.uleb128 0x13
 3096 0229 02       		.uleb128 0x2
 3097 022a 18       		.uleb128 0x18
 3098 022b 00       		.byte	0
 3099 022c 00       		.byte	0
 3100 022d 28       		.uleb128 0x28
 3101 022e 34       		.uleb128 0x34
 3102 022f 00       		.byte	0
 3103 0230 03       		.uleb128 0x3
 3104 0231 0E       		.uleb128 0xe
 3105 0232 3A       		.uleb128 0x3a
 3106 0233 0B       		.uleb128 0xb
 3107 0234 3B       		.uleb128 0x3b
 3108 0235 05       		.uleb128 0x5
 3109 0236 49       		.uleb128 0x49
 3110 0237 13       		.uleb128 0x13
 3111 0238 3F       		.uleb128 0x3f
 3112 0239 19       		.uleb128 0x19
 3113 023a 3C       		.uleb128 0x3c
 3114 023b 19       		.uleb128 0x19
 3115 023c 00       		.byte	0
 3116 023d 00       		.byte	0
 3117 023e 29       		.uleb128 0x29
 3118 023f 01       		.uleb128 0x1
 3119 0240 01       		.byte	0x1
 3120 0241 49       		.uleb128 0x49
 3121 0242 13       		.uleb128 0x13
 3122 0243 01       		.uleb128 0x1
 3123 0244 13       		.uleb128 0x13
 3124 0245 00       		.byte	0
 3125 0246 00       		.byte	0
 3126 0247 2A       		.uleb128 0x2a
 3127 0248 21       		.uleb128 0x21
ARM GAS  /tmp/cck4I4CR.s 			page 56


 3128 0249 00       		.byte	0
 3129 024a 49       		.uleb128 0x49
 3130 024b 13       		.uleb128 0x13
 3131 024c 2F       		.uleb128 0x2f
 3132 024d 0B       		.uleb128 0xb
 3133 024e 00       		.byte	0
 3134 024f 00       		.byte	0
 3135 0250 2B       		.uleb128 0x2b
 3136 0251 34       		.uleb128 0x34
 3137 0252 00       		.byte	0
 3138 0253 03       		.uleb128 0x3
 3139 0254 0E       		.uleb128 0xe
 3140 0255 3A       		.uleb128 0x3a
 3141 0256 0B       		.uleb128 0xb
 3142 0257 3B       		.uleb128 0x3b
 3143 0258 0B       		.uleb128 0xb
 3144 0259 49       		.uleb128 0x49
 3145 025a 13       		.uleb128 0x13
 3146 025b 3F       		.uleb128 0x3f
 3147 025c 19       		.uleb128 0x19
 3148 025d 02       		.uleb128 0x2
 3149 025e 18       		.uleb128 0x18
 3150 025f 00       		.byte	0
 3151 0260 00       		.byte	0
 3152 0261 00       		.byte	0
 3153              		.section	.debug_aranges,"",%progbits
 3154 0000 1C000000 		.4byte	0x1c
 3155 0004 0200     		.2byte	0x2
 3156 0006 00000000 		.4byte	.Ldebug_info0
 3157 000a 04       		.byte	0x4
 3158 000b 00       		.byte	0
 3159 000c 0000     		.2byte	0
 3160 000e 0000     		.2byte	0
 3161 0010 00000000 		.4byte	.Ltext0
 3162 0014 6A050000 		.4byte	.Letext0-.Ltext0
 3163 0018 00000000 		.4byte	0
 3164 001c 00000000 		.4byte	0
 3165              		.section	.debug_line,"",%progbits
 3166              	.Ldebug_line0:
 3167 0000 1B040000 		.section	.debug_str,"MS",%progbits,1
 3167      02002F03 
 3167      00000201 
 3167      FB0E0D00 
 3167      01010101 
 3168              	.LASF2:
 3169 0000 73697A65 		.ascii	"size_t\000"
 3169      5F7400
 3170              	.LASF60:
 3171 0007 7264796D 		.ascii	"rdymsg\000"
 3171      736700
 3172              	.LASF19:
 3173 000e 75696E74 		.ascii	"uint64_t\000"
 3173      36345F74 
 3173      00
 3174              	.LASF99:
 3175 0017 76656374 		.ascii	"vector\000"
 3175      6F7200
ARM GAS  /tmp/cck4I4CR.s 			page 57


 3176              	.LASF104:
 3177 001e 4F545950 		.ascii	"OTYPER\000"
 3177      455200
 3178              	.LASF3:
 3179 0025 5F5F7569 		.ascii	"__uint8_t\000"
 3179      6E74385F 
 3179      7400
 3180              	.LASF117:
 3181 002f 5350495F 		.ascii	"SPI_ACTIVE\000"
 3181      41435449 
 3181      564500
 3182              	.LASF112:
 3183 003a 696F706F 		.ascii	"ioportmask_t\000"
 3183      72746D61 
 3183      736B5F74 
 3183      00
 3184              	.LASF125:
 3185 0047 646D6172 		.ascii	"dmarx\000"
 3185      7800
 3186              	.LASF103:
 3187 004d 4D4F4445 		.ascii	"MODER\000"
 3187      5200
 3188              	.LASF14:
 3189 0053 6C6F6E67 		.ascii	"long long unsigned int\000"
 3189      206C6F6E 
 3189      6720756E 
 3189      7369676E 
 3189      65642069 
 3190              	.LASF84:
 3191 006a 43524350 		.ascii	"CRCPR\000"
 3191      5200
 3192              	.LASF106:
 3193 0070 50555044 		.ascii	"PUPDR\000"
 3193      5200
 3194              	.LASF61:
 3195 0076 65786974 		.ascii	"exitcode\000"
 3195      636F6465 
 3195      00
 3196              	.LASF149:
 3197 007f 73706964 		.ascii	"spidr\000"
 3197      7200
 3198              	.LASF153:
 3199 0085 5F73746D 		.ascii	"_stm32_dma_streams\000"
 3199      33325F64 
 3199      6D615F73 
 3199      74726561 
 3199      6D7300
 3200              	.LASF120:
 3201 0098 53504944 		.ascii	"SPIDriver\000"
 3201      72697665 
 3201      7200
 3202              	.LASF131:
 3203 00a2 7373706F 		.ascii	"ssport\000"
 3203      727400
 3204              	.LASF152:
 3205 00a9 49544D5F 		.ascii	"ITM_RxBuffer\000"
 3205      52784275 
ARM GAS  /tmp/cck4I4CR.s 			page 58


 3205      66666572 
 3205      00
 3206              	.LASF145:
 3207 00b6 72786275 		.ascii	"rxbuf\000"
 3207      6600
 3208              	.LASF32:
 3209 00bc 705F7072 		.ascii	"p_prio\000"
 3209      696F00
 3210              	.LASF132:
 3211 00c3 73737061 		.ascii	"sspad\000"
 3211      6400
 3212              	.LASF12:
 3213 00c9 6C6F6E67 		.ascii	"long long int\000"
 3213      206C6F6E 
 3213      6720696E 
 3213      7400
 3214              	.LASF1:
 3215 00d7 7369676E 		.ascii	"signed char\000"
 3215      65642063 
 3215      68617200 
 3216              	.LASF107:
 3217 00e3 42535252 		.ascii	"BSRR\000"
 3217      00
 3218              	.LASF115:
 3219 00e8 5350495F 		.ascii	"SPI_STOP\000"
 3219      53544F50 
 3219      00
 3220              	.LASF90:
 3221 00f1 49325343 		.ascii	"I2SCFGR\000"
 3221      46475200 
 3222              	.LASF20:
 3223 00f9 626F6F6C 		.ascii	"bool_t\000"
 3223      5F7400
 3224              	.LASF57:
 3225 0100 6D5F7175 		.ascii	"m_queue\000"
 3225      65756500 
 3226              	.LASF148:
 3227 0108 6672616D 		.ascii	"frame\000"
 3227      6500
 3228              	.LASF121:
 3229 010e 73746174 		.ascii	"state\000"
 3229      6500
 3230              	.LASF9:
 3231 0114 6C6F6E67 		.ascii	"long int\000"
 3231      20696E74 
 3231      00
 3232              	.LASF136:
 3233 011d 7370695F 		.ascii	"spi_lld_serve_rx_interrupt\000"
 3233      6C6C645F 
 3233      73657276 
 3233      655F7278 
 3233      5F696E74 
 3234              	.LASF70:
 3235 0138 41504232 		.ascii	"APB2RSTR\000"
 3235      52535452 
 3235      00
 3236              	.LASF23:
ARM GAS  /tmp/cck4I4CR.s 			page 59


 3237 0141 74737461 		.ascii	"tstate_t\000"
 3237      74655F74 
 3237      00
 3238              	.LASF143:
 3239 014a 7370695F 		.ascii	"spi_lld_exchange\000"
 3239      6C6C645F 
 3239      65786368 
 3239      616E6765 
 3239      00
 3240              	.LASF40:
 3241 015b 705F7265 		.ascii	"p_refs\000"
 3241      667300
 3242              	.LASF16:
 3243 0162 75696E74 		.ascii	"uint16_t\000"
 3243      31365F74 
 3243      00
 3244              	.LASF41:
 3245 016b 705F7469 		.ascii	"p_time\000"
 3245      6D6500
 3246              	.LASF94:
 3247 0172 5350495F 		.ascii	"SPI_TypeDef\000"
 3247      54797065 
 3247      44656600 
 3248              	.LASF34:
 3249 017e 705F6E65 		.ascii	"p_newer\000"
 3249      77657200 
 3250              	.LASF130:
 3251 0186 656E645F 		.ascii	"end_cb\000"
 3251      636200
 3252              	.LASF127:
 3253 018d 7278646D 		.ascii	"rxdmamode\000"
 3253      616D6F64 
 3253      6500
 3254              	.LASF126:
 3255 0197 646D6174 		.ascii	"dmatx\000"
 3255      7800
 3256              	.LASF105:
 3257 019d 4F535045 		.ascii	"OSPEEDR\000"
 3257      45445200 
 3258              	.LASF10:
 3259 01a5 5F5F7569 		.ascii	"__uint32_t\000"
 3259      6E743332 
 3259      5F7400
 3260              	.LASF48:
 3261 01b0 705F6D70 		.ascii	"p_mpool\000"
 3261      6F6F6C00 
 3262              	.LASF51:
 3263 01b8 72656761 		.ascii	"regarm_t\000"
 3263      726D5F74 
 3263      00
 3264              	.LASF98:
 3265 01c1 73656C66 		.ascii	"selfindex\000"
 3265      696E6465 
 3265      7800
 3266              	.LASF129:
 3267 01cb 73706963 		.ascii	"spicallback_t\000"
 3267      616C6C62 
ARM GAS  /tmp/cck4I4CR.s 			page 60


 3267      61636B5F 
 3267      7400
 3268              	.LASF146:
 3269 01d9 7370695F 		.ascii	"spi_lld_send\000"
 3269      6C6C645F 
 3269      73656E64 
 3269      00
 3270              	.LASF37:
 3271 01e6 705F7374 		.ascii	"p_stklimit\000"
 3271      6B6C696D 
 3271      697400
 3272              	.LASF0:
 3273 01f1 756E7369 		.ascii	"unsigned int\000"
 3273      676E6564 
 3273      20696E74 
 3273      00
 3274              	.LASF141:
 3275 01fe 7370695F 		.ascii	"spi_lld_unselect\000"
 3275      6C6C645F 
 3275      756E7365 
 3275      6C656374 
 3275      00
 3276              	.LASF144:
 3277 020f 74786275 		.ascii	"txbuf\000"
 3277      6600
 3278              	.LASF69:
 3279 0215 43464752 		.ascii	"CFGR\000"
 3279      00
 3280              	.LASF66:
 3281 021a 43504152 		.ascii	"CPAR\000"
 3281      00
 3282              	.LASF101:
 3283 021f 73746D33 		.ascii	"stm32_dmaisr_t\000"
 3283      325F646D 
 3283      61697372 
 3283      5F7400
 3284              	.LASF43:
 3285 022e 705F6D73 		.ascii	"p_msgqueue\000"
 3285      67717565 
 3285      756500
 3286              	.LASF111:
 3287 0239 4750494F 		.ascii	"GPIO_TypeDef\000"
 3287      5F547970 
 3287      65446566 
 3287      00
 3288              	.LASF79:
 3289 0246 5243435F 		.ascii	"RCC_TypeDef\000"
 3289      54797065 
 3289      44656600 
 3290              	.LASF108:
 3291 0252 4C434B52 		.ascii	"LCKR\000"
 3291      00
 3292              	.LASF97:
 3293 0257 69736869 		.ascii	"ishift\000"
 3293      667400
 3294              	.LASF54:
 3295 025e 636F6E74 		.ascii	"context\000"
ARM GAS  /tmp/cck4I4CR.s 			page 61


 3295      65787400 
 3296              	.LASF7:
 3297 0266 73686F72 		.ascii	"short unsigned int\000"
 3297      7420756E 
 3297      7369676E 
 3297      65642069 
 3297      6E7400
 3298              	.LASF26:
 3299 0279 6D73675F 		.ascii	"msg_t\000"
 3299      7400
 3300              	.LASF151:
 3301 027f 64756D6D 		.ascii	"dummyrx\000"
 3301      79727800 
 3302              	.LASF22:
 3303 0287 746D6F64 		.ascii	"tmode_t\000"
 3303      655F7400 
 3304              	.LASF50:
 3305 028f 54687265 		.ascii	"ThreadsList\000"
 3305      6164734C 
 3305      69737400 
 3306              	.LASF27:
 3307 029b 6576656E 		.ascii	"eventmask_t\000"
 3307      746D6173 
 3307      6B5F7400 
 3308              	.LASF67:
 3309 02a7 434D4152 		.ascii	"CMAR\000"
 3309      00
 3310              	.LASF52:
 3311 02ac 73746B61 		.ascii	"stkalign_t\000"
 3311      6C69676E 
 3311      5F7400
 3312              	.LASF157:
 3313 02b7 7370695F 		.ascii	"spi_lld_init\000"
 3313      6C6C645F 
 3313      696E6974 
 3313      00
 3314              	.LASF29:
 3315 02c4 54687265 		.ascii	"Thread\000"
 3315      616400
 3316              	.LASF42:
 3317 02cb 705F7761 		.ascii	"p_waiting\000"
 3317      6974696E 
 3317      6700
 3318              	.LASF92:
 3319 02d5 49325350 		.ascii	"I2SPR\000"
 3319      5200
 3320              	.LASF55:
 3321 02db 73697A65 		.ascii	"sizetype\000"
 3321      74797065 
 3321      00
 3322              	.LASF102:
 3323 02e4 636C6561 		.ascii	"clear\000"
 3323      7200
 3324              	.LASF56:
 3325 02ea 4D757465 		.ascii	"Mutex\000"
 3325      7800
 3326              	.LASF30:
ARM GAS  /tmp/cck4I4CR.s 			page 62


 3327 02f0 705F6E65 		.ascii	"p_next\000"
 3327      787400
 3328              	.LASF35:
 3329 02f7 705F6F6C 		.ascii	"p_older\000"
 3329      64657200 
 3330              	.LASF49:
 3331 02ff 54687265 		.ascii	"ThreadsQueue\000"
 3331      61647351 
 3331      75657565 
 3331      00
 3332              	.LASF128:
 3333 030c 7478646D 		.ascii	"txdmamode\000"
 3333      616D6F64 
 3333      6500
 3334              	.LASF76:
 3335 0316 41484252 		.ascii	"AHBRSTR\000"
 3335      53545200 
 3336              	.LASF71:
 3337 031e 41504231 		.ascii	"APB1RSTR\000"
 3337      52535452 
 3337      00
 3338              	.LASF13:
 3339 0327 5F5F7569 		.ascii	"__uint64_t\000"
 3339      6E743634 
 3339      5F7400
 3340              	.LASF68:
 3341 0332 444D415F 		.ascii	"DMA_Channel_TypeDef\000"
 3341      4368616E 
 3341      6E656C5F 
 3341      54797065 
 3341      44656600 
 3342              	.LASF109:
 3343 0346 4146524C 		.ascii	"AFRL\000"
 3343      00
 3344              	.LASF88:
 3345 034b 54584352 		.ascii	"TXCRCR\000"
 3345      435200
 3346              	.LASF80:
 3347 0352 52455345 		.ascii	"RESERVED0\000"
 3347      52564544 
 3347      3000
 3348              	.LASF81:
 3349 035c 52455345 		.ascii	"RESERVED1\000"
 3349      52564544 
 3349      3100
 3350              	.LASF82:
 3351 0366 52455345 		.ascii	"RESERVED2\000"
 3351      52564544 
 3351      3200
 3352              	.LASF83:
 3353 0370 52455345 		.ascii	"RESERVED3\000"
 3353      52564544 
 3353      3300
 3354              	.LASF85:
 3355 037a 52455345 		.ascii	"RESERVED4\000"
 3355      52564544 
 3355      3400
ARM GAS  /tmp/cck4I4CR.s 			page 63


 3356              	.LASF31:
 3357 0384 705F7072 		.ascii	"p_prev\000"
 3357      657600
 3358              	.LASF89:
 3359 038b 52455345 		.ascii	"RESERVED6\000"
 3359      52564544 
 3359      3600
 3360              	.LASF91:
 3361 0395 52455345 		.ascii	"RESERVED7\000"
 3361      52564544 
 3361      3700
 3362              	.LASF93:
 3363 039f 52455345 		.ascii	"RESERVED8\000"
 3363      52564544 
 3363      3800
 3364              	.LASF25:
 3365 03a9 74707269 		.ascii	"tprio_t\000"
 3365      6F5F7400 
 3366              	.LASF124:
 3367 03b1 6D757465 		.ascii	"mutex\000"
 3367      7800
 3368              	.LASF21:
 3369 03b7 5F426F6F 		.ascii	"_Bool\000"
 3369      6C00
 3370              	.LASF17:
 3371 03bd 696E7433 		.ascii	"int32_t\000"
 3371      325F7400 
 3372              	.LASF4:
 3373 03c5 756E7369 		.ascii	"unsigned char\000"
 3373      676E6564 
 3373      20636861 
 3373      7200
 3374              	.LASF100:
 3375 03d3 73746D33 		.ascii	"stm32_dma_stream_t\000"
 3375      325F646D 
 3375      615F7374 
 3375      7265616D 
 3375      5F7400
 3376              	.LASF154:
 3377 03e6 53504944 		.ascii	"SPID2\000"
 3377      3200
 3378              	.LASF38:
 3379 03ec 705F7374 		.ascii	"p_state\000"
 3379      61746500 
 3380              	.LASF46:
 3381 03f4 705F6D74 		.ascii	"p_mtxlist\000"
 3381      786C6973 
 3381      7400
 3382              	.LASF5:
 3383 03fe 73686F72 		.ascii	"short int\000"
 3383      7420696E 
 3383      7400
 3384              	.LASF147:
 3385 0408 7370695F 		.ascii	"spi_lld_receive\000"
 3385      6C6C645F 
 3385      72656365 
 3385      69766500 
ARM GAS  /tmp/cck4I4CR.s 			page 64


 3386              	.LASF150:
 3387 0418 64756D6D 		.ascii	"dummytx\000"
 3387      79747800 
 3388              	.LASF39:
 3389 0420 705F666C 		.ascii	"p_flags\000"
 3389      61677300 
 3390              	.LASF73:
 3391 0428 41504232 		.ascii	"APB2ENR\000"
 3391      454E5200 
 3392              	.LASF95:
 3393 0430 6368616E 		.ascii	"channel\000"
 3393      6E656C00 
 3394              	.LASF45:
 3395 0438 705F6570 		.ascii	"p_epending\000"
 3395      656E6469 
 3395      6E6700
 3396              	.LASF96:
 3397 0443 69666372 		.ascii	"ifcr\000"
 3397      00
 3398              	.LASF87:
 3399 0448 52455345 		.ascii	"RESERVED5\000"
 3399      52564544 
 3399      3500
 3400              	.LASF18:
 3401 0452 75696E74 		.ascii	"uint32_t\000"
 3401      33325F74 
 3401      00
 3402              	.LASF24:
 3403 045b 74726566 		.ascii	"trefs_t\000"
 3403      735F7400 
 3404              	.LASF155:
 3405 0463 474E5520 		.ascii	"GNU C 4.9.3 20141119 (release) [ARM/embedded-4_9-br"
 3405      4320342E 
 3405      392E3320 
 3405      32303134 
 3405      31313139 
 3406 0496 616E6368 		.ascii	"anch revision 218278] -mcpu=cortex-m4 -mno-thumb-in"
 3406      20726576 
 3406      6973696F 
 3406      6E203231 
 3406      38323738 
 3407 04c9 74657277 		.ascii	"terwork -mthumb -ggdb -O0 -fomit-frame-pointer\000"
 3407      6F726B20 
 3407      2D6D7468 
 3407      756D6220 
 3407      2D676764 
 3408              	.LASF11:
 3409 04f8 6C6F6E67 		.ascii	"long unsigned int\000"
 3409      20756E73 
 3409      69676E65 
 3409      6420696E 
 3409      7400
 3410              	.LASF64:
 3411 050a 63686172 		.ascii	"char\000"
 3411      00
 3412              	.LASF139:
 3413 050f 7370695F 		.ascii	"spi_lld_stop\000"
ARM GAS  /tmp/cck4I4CR.s 			page 65


 3413      6C6C645F 
 3413      73746F70 
 3413      00
 3414              	.LASF118:
 3415 051c 5350495F 		.ascii	"SPI_COMPLETE\000"
 3415      434F4D50 
 3415      4C455445 
 3415      00
 3416              	.LASF122:
 3417 0529 636F6E66 		.ascii	"config\000"
 3417      696700
 3418              	.LASF6:
 3419 0530 5F5F7569 		.ascii	"__uint16_t\000"
 3419      6E743136 
 3419      5F7400
 3420              	.LASF119:
 3421 053b 73706973 		.ascii	"spistate_t\000"
 3421      74617465 
 3421      5F7400
 3422              	.LASF59:
 3423 0546 6D5F6E65 		.ascii	"m_next\000"
 3423      787400
 3424              	.LASF28:
 3425 054d 73797374 		.ascii	"systime_t\000"
 3425      696D655F 
 3425      7400
 3426              	.LASF47:
 3427 0557 705F7265 		.ascii	"p_realprio\000"
 3427      616C7072 
 3427      696F00
 3428              	.LASF8:
 3429 0562 5F5F696E 		.ascii	"__int32_t\000"
 3429      7433325F 
 3429      7400
 3430              	.LASF123:
 3431 056c 74687265 		.ascii	"thread\000"
 3431      616400
 3432              	.LASF74:
 3433 0573 41504231 		.ascii	"APB1ENR\000"
 3433      454E5200 
 3434              	.LASF113:
 3435 057b 696F706F 		.ascii	"ioportid_t\000"
 3435      72746964 
 3435      5F7400
 3436              	.LASF140:
 3437 0586 7370695F 		.ascii	"spi_lld_select\000"
 3437      6C6C645F 
 3437      73656C65 
 3437      637400
 3438              	.LASF53:
 3439 0595 696E7463 		.ascii	"intctx\000"
 3439      747800
 3440              	.LASF116:
 3441 059c 5350495F 		.ascii	"SPI_READY\000"
 3441      52454144 
 3441      5900
 3442              	.LASF114:
ARM GAS  /tmp/cck4I4CR.s 			page 66


 3443 05a6 5350495F 		.ascii	"SPI_UNINIT\000"
 3443      554E494E 
 3443      495400
 3444              	.LASF142:
 3445 05b1 7370695F 		.ascii	"spi_lld_ignore\000"
 3445      6C6C645F 
 3445      69676E6F 
 3445      726500
 3446              	.LASF65:
 3447 05c0 434E4454 		.ascii	"CNDTR\000"
 3447      5200
 3448              	.LASF75:
 3449 05c6 42444352 		.ascii	"BDCR\000"
 3449      00
 3450              	.LASF86:
 3451 05cb 52584352 		.ascii	"RXCRCR\000"
 3451      435200
 3452              	.LASF138:
 3453 05d2 7370695F 		.ascii	"spi_lld_start\000"
 3453      6C6C645F 
 3453      73746172 
 3453      7400
 3454              	.LASF77:
 3455 05e0 43464752 		.ascii	"CFGR2\000"
 3455      3200
 3456              	.LASF78:
 3457 05e6 43464752 		.ascii	"CFGR3\000"
 3457      3300
 3458              	.LASF15:
 3459 05ec 75696E74 		.ascii	"uint8_t\000"
 3459      385F7400 
 3460              	.LASF134:
 3461 05f4 73706970 		.ascii	"spip\000"
 3461      00
 3462              	.LASF135:
 3463 05f9 666C6167 		.ascii	"flags\000"
 3463      7300
 3464              	.LASF63:
 3465 05ff 65776D61 		.ascii	"ewmask\000"
 3465      736B00
 3466              	.LASF62:
 3467 0606 77746F62 		.ascii	"wtobjp\000"
 3467      6A7000
 3468              	.LASF137:
 3469 060d 7370695F 		.ascii	"spi_lld_serve_tx_interrupt\000"
 3469      6C6C645F 
 3469      73657276 
 3469      655F7478 
 3469      5F696E74 
 3470              	.LASF36:
 3471 0628 705F6E61 		.ascii	"p_name\000"
 3471      6D6500
 3472              	.LASF158:
 3473 062f 7370695F 		.ascii	"spi_lld_polled_exchange\000"
 3473      6C6C645F 
 3473      706F6C6C 
 3473      65645F65 
ARM GAS  /tmp/cck4I4CR.s 			page 67


 3473      78636861 
 3474              	.LASF133:
 3475 0647 53504943 		.ascii	"SPIConfig\000"
 3475      6F6E6669 
 3475      6700
 3476              	.LASF44:
 3477 0651 705F6D73 		.ascii	"p_msg\000"
 3477      6700
 3478              	.LASF110:
 3479 0657 41465248 		.ascii	"AFRH\000"
 3479      00
 3480              	.LASF58:
 3481 065c 6D5F6F77 		.ascii	"m_owner\000"
 3481      6E657200 
 3482              	.LASF156:
 3483 0664 2F6F7074 		.ascii	"/opt/R2P/core/ChibiOS_2.6.5/os/hal/platforms/STM32/"
 3483      2F523250 
 3483      2F636F72 
 3483      652F4368 
 3483      6962694F 
 3484 0697 53504976 		.ascii	"SPIv2/spi_lld.c\000"
 3484      322F7370 
 3484      695F6C6C 
 3484      642E6300 
 3485              	.LASF33:
 3486 06a7 705F6374 		.ascii	"p_ctx\000"
 3486      7800
 3487              	.LASF72:
 3488 06ad 41484245 		.ascii	"AHBENR\000"
 3488      4E5200
 3489              		.ident	"GCC: (GNU Tools for ARM Embedded Processors) 4.9.3 20141119 (release) [ARM/embedded-4_9-br
ARM GAS  /tmp/cck4I4CR.s 			page 68


DEFINED SYMBOLS
                            *ABS*:00000000 spi_lld.c
                            *COM*:00000030 SPID2
     /tmp/cck4I4CR.s:20     .bss:00000000 $d
     /tmp/cck4I4CR.s:21     .bss:00000000 dummytx
     /tmp/cck4I4CR.s:24     .bss:00000002 dummyrx
     /tmp/cck4I4CR.s:27     .text:00000000 $t
     /tmp/cck4I4CR.s:31     .text:00000000 spi_lld_serve_rx_interrupt
     /tmp/cck4I4CR.s:172    .text:000000d0 spi_lld_serve_tx_interrupt
     /tmp/cck4I4CR.s:206    .text:000000ec spi_lld_init
     /tmp/cck4I4CR.s:248    .text:00000120 $d
     /tmp/cck4I4CR.s:257    .rodata:00000000 $d
     /tmp/cck4I4CR.s:264    .text:00000134 $t
     /tmp/cck4I4CR.s:269    .text:00000134 spi_lld_start
     /tmp/cck4I4CR.s:447    .text:00000258 $d
     /tmp/cck4I4CR.s:456    .text:00000270 $t
     /tmp/cck4I4CR.s:461    .text:00000270 spi_lld_stop
     /tmp/cck4I4CR.s:518    .text:000002bc $d
     /tmp/cck4I4CR.s:523    .text:000002c4 $t
     /tmp/cck4I4CR.s:528    .text:000002c4 spi_lld_select
     /tmp/cck4I4CR.s:563    .text:000002e4 spi_lld_unselect
     /tmp/cck4I4CR.s:598    .text:00000304 spi_lld_ignore
     /tmp/cck4I4CR.s:675    .text:00000378 $d
     /tmp/cck4I4CR.s:680    .text:00000380 $t
     /tmp/cck4I4CR.s:685    .text:00000380 spi_lld_exchange
     /tmp/cck4I4CR.s:771    .text:00000400 spi_lld_send
     /tmp/cck4I4CR.s:850    .text:00000478 $d
     /tmp/cck4I4CR.s:854    .text:0000047c $t
     /tmp/cck4I4CR.s:859    .text:0000047c spi_lld_receive
     /tmp/cck4I4CR.s:938    .text:000004f4 $d
     /tmp/cck4I4CR.s:942    .text:000004f8 $t
     /tmp/cck4I4CR.s:947    .text:000004f8 spi_lld_polled_exchange
                     .debug_frame:00000010 $d

UNDEFINED SYMBOLS
port_halt
dbg_check_lock_from_isr
chSchReadyI
dbg_check_unlock_from_isr
spiObjectInit
_stm32_dma_streams
dmaStreamAllocate
chDbgPanic
dmaStreamRelease
