ARM GAS  /tmp/ccR8yuzq.s 			page 1


   1              		.syntax unified
   2              		.cpu cortex-m4
   3              		.fpu softvfp
   4              		.eabi_attribute 20, 1
   5              		.eabi_attribute 21, 1
   6              		.eabi_attribute 23, 3
   7              		.eabi_attribute 24, 1
   8              		.eabi_attribute 25, 1
   9              		.eabi_attribute 26, 1
  10              		.eabi_attribute 30, 6
  11              		.eabi_attribute 34, 1
  12              		.eabi_attribute 18, 4
  13              		.thumb
  14              		.file	"srt.c"
  15              		.text
  16              	.Ltext0:
  17              		.cfi_sections	.debug_frame
  18              		.align	2
  19              		.global	srt_laxity
  20              		.thumb
  21              		.thumb_func
  22              		.type	srt_laxity, %function
  23              	srt_laxity:
  24              	.LFB118:
  25              		.file 1 "/opt/R2P/core/RTCAN/src/srt.c"
  26              		.loc 1 22 0
  27              		.cfi_startproc
  28              		@ args = 0, pretend = 0, frame = 16
  29              		@ frame_needed = 0, uses_anonymous_args = 0
  30              		@ link register save eliminated.
  31 0000 84B0     		sub	sp, sp, #16
  32              		.cfi_def_cfa_offset 16
  33 0002 0190     		str	r0, [sp, #4]
  34              		.loc 1 25 0
  35 0004 019B     		ldr	r3, [sp, #4]
  36 0006 D3F80D20 		ldr	r2, [r3, #13]	@ unaligned
  37 000a 0A4B     		ldr	r3, .L5
  38 000c DB68     		ldr	r3, [r3, #12]
  39 000e D31A     		subs	r3, r2, r3
  40 0010 0393     		str	r3, [sp, #12]
  41              		.loc 1 27 0
  42 0012 039B     		ldr	r3, [sp, #12]
  43 0014 002B     		cmp	r3, #0
  44 0016 02DB     		blt	.L2
  45              		.loc 1 27 0 is_stmt 0 discriminator 1
  46 0018 039B     		ldr	r3, [sp, #12]
  47 001a 402B     		cmp	r3, #64
  48 001c 01DD     		ble	.L3
  49              	.L2:
  50              		.loc 1 28 0 is_stmt 1
  51 001e 3F23     		movs	r3, #63
  52 0020 04E0     		b	.L4
  53              	.L3:
  54              		.loc 1 31 0
  55 0022 039B     		ldr	r3, [sp, #12]
  56 0024 DBB2     		uxtb	r3, r3
  57 0026 03F03F03 		and	r3, r3, #63
ARM GAS  /tmp/ccR8yuzq.s 			page 2


  58 002a DBB2     		uxtb	r3, r3
  59              	.L4:
  60              		.loc 1 32 0
  61 002c 1846     		mov	r0, r3
  62 002e 04B0     		add	sp, sp, #16
  63              		.cfi_def_cfa_offset 0
  64              		@ sp needed
  65 0030 7047     		bx	lr
  66              	.L6:
  67 0032 00BF     		.align	2
  68              	.L5:
  69 0034 00000000 		.word	vtlist
  70              		.cfi_endproc
  71              	.LFE118:
  72              		.size	srt_laxity, .-srt_laxity
  73              		.align	2
  74              		.global	srt_transmit
  75              		.thumb
  76              		.thumb_func
  77              		.type	srt_transmit, %function
  78              	srt_transmit:
  79              	.LFB119:
  80              		.loc 1 40 0
  81              		.cfi_startproc
  82              		@ args = 0, pretend = 0, frame = 32
  83              		@ frame_needed = 0, uses_anonymous_args = 0
  84 0038 00B5     		push	{lr}
  85              		.cfi_def_cfa_offset 4
  86              		.cfi_offset 14, -4
  87 003a 89B0     		sub	sp, sp, #36
  88              		.cfi_def_cfa_offset 40
  89 003c 0190     		str	r0, [sp, #4]
  90              		.loc 1 44 0
  91 003e 019B     		ldr	r3, [sp, #4]
  92 0040 03F10C02 		add	r2, r3, #12
  93 0044 019B     		ldr	r3, [sp, #4]
  94 0046 DB68     		ldr	r3, [r3, #12]
  95 0048 9A42     		cmp	r2, r3
  96 004a 01D1     		bne	.L8
  97              		.loc 1 45 0
  98 004c 0023     		movs	r3, #0
  99 004e 70E0     		b	.L14
 100              	.L8:
 101              		.loc 1 48 0
 102 0050 0198     		ldr	r0, [sp, #4]
 103 0052 FFF7FEFF 		bl	rtcan_lld_can_txe
 104 0056 0346     		mov	r3, r0
 105 0058 83F00103 		eor	r3, r3, #1
 106 005c DBB2     		uxtb	r3, r3
 107 005e 002B     		cmp	r3, #0
 108 0060 01D0     		beq	.L10
 109              		.loc 1 49 0
 110 0062 0023     		movs	r3, #0
 111 0064 65E0     		b	.L14
 112              	.L10:
 113              		.loc 1 52 0
 114 0066 019B     		ldr	r3, [sp, #4]
ARM GAS  /tmp/ccR8yuzq.s 			page 3


 115 0068 1B69     		ldr	r3, [r3, #16]
 116 006a 002B     		cmp	r3, #0
 117 006c 01D0     		beq	.L11
 118              		.loc 1 53 0
 119 006e 0023     		movs	r3, #0
 120 0070 5FE0     		b	.L14
 121              	.L11:
 122              		.loc 1 56 0
 123 0072 019B     		ldr	r3, [sp, #4]
 124 0074 0C33     		adds	r3, r3, #12
 125 0076 1846     		mov	r0, r3
 126 0078 FFF7FEFF 		bl	msgqueue_get
 127 007c 0790     		str	r0, [sp, #28]
 128              		.loc 1 67 0
 129 007e 0798     		ldr	r0, [sp, #28]
 130 0080 FFF7FEFF 		bl	srt_laxity
 131 0084 0346     		mov	r3, r0
 132 0086 DA05     		lsls	r2, r3, #23
 133 0088 079B     		ldr	r3, [sp, #28]
 134 008a B3F81130 		ldrh	r3, [r3, #17]	@ unaligned
 135 008e 9BB2     		uxth	r3, r3
 136 0090 DB01     		lsls	r3, r3, #7
 137 0092 1A43     		orrs	r2, r2, r3
 138 0094 079B     		ldr	r3, [sp, #28]
 139 0096 5B7F     		ldrb	r3, [r3, #29]
 140 0098 C3F30603 		ubfx	r3, r3, #0, #7
 141 009c DBB2     		uxtb	r3, r3
 142 009e 03F07F03 		and	r3, r3, #127
 143 00a2 1343     		orrs	r3, r3, r2
 144 00a4 23F06042 		bic	r2, r3, #-536870912
 145 00a8 039B     		ldr	r3, [sp, #12]
 146 00aa 62F31C03 		bfi	r3, r2, #0, #29
 147 00ae 0393     		str	r3, [sp, #12]
 148              		.loc 1 69 0
 149 00b0 079B     		ldr	r3, [sp, #28]
 150 00b2 5B7F     		ldrb	r3, [r3, #29]
 151 00b4 C3F30603 		ubfx	r3, r3, #0, #7
 152 00b8 DBB2     		uxtb	r3, r3
 153 00ba 002B     		cmp	r3, #0
 154 00bc 07DD     		ble	.L12
 155              		.loc 1 70 0
 156 00be 9DF81030 		ldrb	r3, [sp, #16]
 157 00c2 0822     		movs	r2, #8
 158 00c4 62F30303 		bfi	r3, r2, #0, #4
 159 00c8 8DF81030 		strb	r3, [sp, #16]
 160 00cc 16E0     		b	.L13
 161              	.L12:
 162              		.loc 1 72 0
 163 00ce 079B     		ldr	r3, [sp, #28]
 164 00d0 D3F81530 		ldr	r3, [r3, #21]	@ unaligned
 165 00d4 079A     		ldr	r2, [sp, #28]
 166 00d6 B2F81320 		ldrh	r2, [r2, #19]	@ unaligned
 167 00da 92B2     		uxth	r2, r2
 168 00dc 1344     		add	r3, r3, r2
 169 00de 1A46     		mov	r2, r3
 170 00e0 079B     		ldr	r3, [sp, #28]
 171 00e2 D3F81930 		ldr	r3, [r3, #25]	@ unaligned
ARM GAS  /tmp/ccR8yuzq.s 			page 4


 172 00e6 D31A     		subs	r3, r2, r3
 173 00e8 DBB2     		uxtb	r3, r3
 174 00ea 03F00F03 		and	r3, r3, #15
 175 00ee DAB2     		uxtb	r2, r3
 176 00f0 9DF81030 		ldrb	r3, [sp, #16]
 177 00f4 62F30303 		bfi	r3, r2, #0, #4
 178 00f8 8DF81030 		strb	r3, [sp, #16]
 179              	.L13:
 180              		.loc 1 75 0
 181 00fc 079B     		ldr	r3, [sp, #28]
 182 00fe D3F81930 		ldr	r3, [r3, #25]	@ unaligned
 183 0102 1B68     		ldr	r3, [r3]
 184 0104 0593     		str	r3, [sp, #20]
 185              		.loc 1 76 0
 186 0106 079B     		ldr	r3, [sp, #28]
 187 0108 D3F81930 		ldr	r3, [r3, #25]	@ unaligned
 188 010c 5B68     		ldr	r3, [r3, #4]
 189 010e 0693     		str	r3, [sp, #24]
 190              		.loc 1 78 0
 191 0110 03AB     		add	r3, sp, #12
 192 0112 0198     		ldr	r0, [sp, #4]
 193 0114 1946     		mov	r1, r3
 194 0116 FFF7FEFF 		bl	rtcan_lld_can_transmit
 195              		.loc 1 79 0
 196 011a 9DF81130 		ldrb	r3, [sp, #17]	@ zero_extendqisi2
 197 011e 1A46     		mov	r2, r3
 198 0120 019B     		ldr	r3, [sp, #4]
 199 0122 0432     		adds	r2, r2, #4
 200 0124 0799     		ldr	r1, [sp, #28]
 201 0126 43F82210 		str	r1, [r3, r2, lsl #2]
 202              		.loc 1 80 0
 203 012a 079B     		ldr	r3, [sp, #28]
 204 012c 0422     		movs	r2, #4
 205 012e 1A71     		strb	r2, [r3, #4]
 206              		.loc 1 82 0
 207 0130 0123     		movs	r3, #1
 208              	.L14:
 209              		.loc 1 83 0 discriminator 1
 210 0132 1846     		mov	r0, r3
 211 0134 09B0     		add	sp, sp, #36
 212              		.cfi_def_cfa_offset 4
 213              		@ sp needed
 214 0136 5DF804FB 		ldr	pc, [sp], #4
 215              		.cfi_endproc
 216              	.LFE119:
 217              		.size	srt_transmit, .-srt_transmit
 218              	.Letext0:
 219              		.file 2 "/opt/R2P/tools/gcc-arm-none-eabi-4_9-2014q4/arm-none-eabi/include/machine/_default_types.
 220              		.file 3 "/opt/R2P/tools/gcc-arm-none-eabi-4_9-2014q4/arm-none-eabi/include/stdint.h"
 221              		.file 4 "/opt/R2P/core/ChibiOS_2.6.5/os/ports/GCC/ARMCMx/chtypes.h"
 222              		.file 5 "/opt/R2P/core/ChibiOS_2.6.5/os/kernel/include/chvt.h"
 223              		.file 6 "/opt/R2P/core/ChibiOS_2.6.5/os/hal/platforms/STM32F30x/stm32f30x.h"
 224              		.file 7 "/opt/R2P/core/RTCAN/include/rtcan.h"
 225              		.file 8 "/opt/R2P/core/RTCAN/include/msgqueue.h"
 226              		.file 9 "/opt/R2P/core/ChibiOS_2.6.5/os/ports/common/ARMCMx/CMSIS/include/core_cm4.h"