ARM GAS  /tmp/ccR8yuzq.s 			page 1


   1              		.syntax unified
   2              		.cpu cortex-m4
   3              		.fpu softvfp
   4              		.eabi_attribute 20, 1
   5              		.eabi_attribute 21, 1
   6              		.eabi_attribute 23, 3
   7              		.eabi_attribute 24, 1
   8              		.eabi_attribute 25, 1
   9              		.eabi_attribute 26, 1
  10              		.eabi_attribute 30, 6
  11              		.eabi_attribute 34, 1
  12              		.eabi_attribute 18, 4
  13              		.thumb
  14              		.file	"srt.c"
  15              		.text
  16              	.Ltext0:
  17              		.cfi_sections	.debug_frame
  18              		.align	2
  19              		.global	srt_laxity
  20              		.thumb
  21              		.thumb_func
  22              		.type	srt_laxity, %function
  23              	srt_laxity:
  24              	.LFB118:
  25              		.file 1 "/opt/R2P/core/RTCAN/src/srt.c"
  26              		.loc 1 22 0
  27              		.cfi_startproc
  28              		@ args = 0, pretend = 0, frame = 16
  29              		@ frame_needed = 0, uses_anonymous_args = 0
  30              		@ link register save eliminated.
  31 0000 84B0     		sub	sp, sp, #16
  32              		.cfi_def_cfa_offset 16
  33 0002 0190     		str	r0, [sp, #4]
  34              		.loc 1 25 0
  35 0004 019B     		ldr	r3, [sp, #4]
  36 0006 D3F80D20 		ldr	r2, [r3, #13]	@ unaligned
  37 000a 0A4B     		ldr	r3, .L5
  38 000c DB68     		ldr	r3, [r3, #12]
  39 000e D31A     		subs	r3, r2, r3
  40 0010 0393     		str	r3, [sp, #12]
  41              		.loc 1 27 0
  42 0012 039B     		ldr	r3, [sp, #12]
  43 0014 002B     		cmp	r3, #0
  44 0016 02DB     		blt	.L2
  45              		.loc 1 27 0 is_stmt 0 discriminator 1
  46 0018 039B     		ldr	r3, [sp, #12]
  47 001a 402B     		cmp	r3, #64
  48 001c 01DD     		ble	.L3
  49              	.L2:
  50              		.loc 1 28 0 is_stmt 1
  51 001e 3F23     		movs	r3, #63
  52 0020 04E0     		b	.L4
  53              	.L3:
  54              		.loc 1 31 0
  55 0022 039B     		ldr	r3, [sp, #12]
  56 0024 DBB2     		uxtb	r3, r3
  57 0026 03F03F03 		and	r3, r3, #63
ARM GAS  /tmp/ccR8yuzq.s 			page 2


  58 002a DBB2     		uxtb	r3, r3
  59              	.L4:
  60              		.loc 1 32 0
  61 002c 1846     		mov	r0, r3
  62 002e 04B0     		add	sp, sp, #16
  63              		.cfi_def_cfa_offset 0
  64              		@ sp needed
  65 0030 7047     		bx	lr
  66              	.L6:
  67 0032 00BF     		.align	2
  68              	.L5:
  69 0034 00000000 		.word	vtlist
  70              		.cfi_endproc
  71              	.LFE118:
  72              		.size	srt_laxity, .-srt_laxity
  73              		.align	2
  74              		.global	srt_transmit
  75              		.thumb
  76              		.thumb_func
  77              		.type	srt_transmit, %function
  78              	srt_transmit:
  79              	.LFB119:
  80              		.loc 1 40 0
  81              		.cfi_startproc
  82              		@ args = 0, pretend = 0, frame = 32
  83              		@ frame_needed = 0, uses_anonymous_args = 0
  84 0038 00B5     		push	{lr}
  85              		.cfi_def_cfa_offset 4
  86              		.cfi_offset 14, -4
  87 003a 89B0     		sub	sp, sp, #36
  88              		.cfi_def_cfa_offset 40
  89 003c 0190     		str	r0, [sp, #4]
  90              		.loc 1 44 0
  91 003e 019B     		ldr	r3, [sp, #4]
  92 0040 03F10C02 		add	r2, r3, #12
  93 0044 019B     		ldr	r3, [sp, #4]
  94 0046 DB68     		ldr	r3, [r3, #12]
  95 0048 9A42     		cmp	r2, r3
  96 004a 01D1     		bne	.L8
  97              		.loc 1 45 0
  98 004c 0023     		movs	r3, #0
  99 004e 70E0     		b	.L14
 100              	.L8:
 101              		.loc 1 48 0
 102 0050 0198     		ldr	r0, [sp, #4]
 103 0052 FFF7FEFF 		bl	rtcan_lld_can_txe
 104 0056 0346     		mov	r3, r0
 105 0058 83F00103 		eor	r3, r3, #1
 106 005c DBB2     		uxtb	r3, r3
 107 005e 002B     		cmp	r3, #0
 108 0060 01D0     		beq	.L10
 109              		.loc 1 49 0
 110 0062 0023     		movs	r3, #0
 111 0064 65E0     		b	.L14
 112              	.L10:
 113              		.loc 1 52 0
 114 0066 019B     		ldr	r3, [sp, #4]
ARM GAS  /tmp/ccR8yuzq.s 			page 3


 115 0068 1B69     		ldr	r3, [r3, #16]
 116 006a 002B     		cmp	r3, #0
 117 006c 01D0     		beq	.L11
 118              		.loc 1 53 0
 119 006e 0023     		movs	r3, #0
 120 0070 5FE0     		b	.L14
 121              	.L11:
 122              		.loc 1 56 0
 123 0072 019B     		ldr	r3, [sp, #4]
 124 0074 0C33     		adds	r3, r3, #12
 125 0076 1846     		mov	r0, r3
 126 0078 FFF7FEFF 		bl	msgqueue_get
 127 007c 0790     		str	r0, [sp, #28]
 128              		.loc 1 67 0
 129 007e 0798     		ldr	r0, [sp, #28]
 130 0080 FFF7FEFF 		bl	srt_laxity
 131 0084 0346     		mov	r3, r0
 132 0086 DA05     		lsls	r2, r3, #23
 133 0088 079B     		ldr	r3, [sp, #28]
 134 008a B3F81130 		ldrh	r3, [r3, #17]	@ unaligned
 135 008e 9BB2     		uxth	r3, r3
 136 0090 DB01     		lsls	r3, r3, #7
 137 0092 1A43     		orrs	r2, r2, r3
 138 0094 079B     		ldr	r3, [sp, #28]
 139 0096 5B7F     		ldrb	r3, [r3, #29]
 140 0098 C3F30603 		ubfx	r3, r3, #0, #7
 141 009c DBB2     		uxtb	r3, r3
 142 009e 03F07F03 		and	r3, r3, #127
 143 00a2 1343     		orrs	r3, r3, r2
 144 00a4 23F06042 		bic	r2, r3, #-536870912
 145 00a8 039B     		ldr	r3, [sp, #12]
 146 00aa 62F31C03 		bfi	r3, r2, #0, #29
 147 00ae 0393     		str	r3, [sp, #12]
 148              		.loc 1 69 0
 149 00b0 079B     		ldr	r3, [sp, #28]
 150 00b2 5B7F     		ldrb	r3, [r3, #29]
 151 00b4 C3F30603 		ubfx	r3, r3, #0, #7
 152 00b8 DBB2     		uxtb	r3, r3
 153 00ba 002B     		cmp	r3, #0
 154 00bc 07DD     		ble	.L12
 155              		.loc 1 70 0
 156 00be 9DF81030 		ldrb	r3, [sp, #16]
 157 00c2 0822     		movs	r2, #8
 158 00c4 62F30303 		bfi	r3, r2, #0, #4
 159 00c8 8DF81030 		strb	r3, [sp, #16]
 160 00cc 16E0     		b	.L13
 161              	.L12:
 162              		.loc 1 72 0
 163 00ce 079B     		ldr	r3, [sp, #28]
 164 00d0 D3F81530 		ldr	r3, [r3, #21]	@ unaligned
 165 00d4 079A     		ldr	r2, [sp, #28]
 166 00d6 B2F81320 		ldrh	r2, [r2, #19]	@ unaligned
 167 00da 92B2     		uxth	r2, r2
 168 00dc 1344     		add	r3, r3, r2
 169 00de 1A46     		mov	r2, r3
 170 00e0 079B     		ldr	r3, [sp, #28]
 171 00e2 D3F81930 		ldr	r3, [r3, #25]	@ unaligned
ARM GAS  /tmp/ccR8yuzq.s 			page 4


 172 00e6 D31A     		subs	r3, r2, r3
 173 00e8 DBB2     		uxtb	r3, r3
 174 00ea 03F00F03 		and	r3, r3, #15
 175 00ee DAB2     		uxtb	r2, r3
 176 00f0 9DF81030 		ldrb	r3, [sp, #16]
 177 00f4 62F30303 		bfi	r3, r2, #0, #4
 178 00f8 8DF81030 		strb	r3, [sp, #16]
 179              	.L13:
 180              		.loc 1 75 0
 181 00fc 079B     		ldr	r3, [sp, #28]
 182 00fe D3F81930 		ldr	r3, [r3, #25]	@ unaligned
 183 0102 1B68     		ldr	r3, [r3]
 184 0104 0593     		str	r3, [sp, #20]
 185              		.loc 1 76 0
 186 0106 079B     		ldr	r3, [sp, #28]
 187 0108 D3F81930 		ldr	r3, [r3, #25]	@ unaligned
 188 010c 5B68     		ldr	r3, [r3, #4]
 189 010e 0693     		str	r3, [sp, #24]
 190              		.loc 1 78 0
 191 0110 03AB     		add	r3, sp, #12
 192 0112 0198     		ldr	r0, [sp, #4]
 193 0114 1946     		mov	r1, r3
 194 0116 FFF7FEFF 		bl	rtcan_lld_can_transmit
 195              		.loc 1 79 0
 196 011a 9DF81130 		ldrb	r3, [sp, #17]	@ zero_extendqisi2
 197 011e 1A46     		mov	r2, r3
 198 0120 019B     		ldr	r3, [sp, #4]
 199 0122 0432     		adds	r2, r2, #4
 200 0124 0799     		ldr	r1, [sp, #28]
 201 0126 43F82210 		str	r1, [r3, r2, lsl #2]
 202              		.loc 1 80 0
 203 012a 079B     		ldr	r3, [sp, #28]
 204 012c 0422     		movs	r2, #4
 205 012e 1A71     		strb	r2, [r3, #4]
 206              		.loc 1 82 0
 207 0130 0123     		movs	r3, #1
 208              	.L14:
 209              		.loc 1 83 0 discriminator 1
 210 0132 1846     		mov	r0, r3
 211 0134 09B0     		add	sp, sp, #36
 212              		.cfi_def_cfa_offset 4
 213              		@ sp needed
 214 0136 5DF804FB 		ldr	pc, [sp], #4
 215              		.cfi_endproc
 216              	.LFE119:
 217              		.size	srt_transmit, .-srt_transmit
 218              	.Letext0:
 219              		.file 2 "/opt/R2P/tools/gcc-arm-none-eabi-4_9-2014q4/arm-none-eabi/include/machine/_default_types.
 220              		.file 3 "/opt/R2P/tools/gcc-arm-none-eabi-4_9-2014q4/arm-none-eabi/include/stdint.h"
 221              		.file 4 "/opt/R2P/core/ChibiOS_2.6.5/os/ports/GCC/ARMCMx/chtypes.h"
 222              		.file 5 "/opt/R2P/core/ChibiOS_2.6.5/os/kernel/include/chvt.h"
 223              		.file 6 "/opt/R2P/core/ChibiOS_2.6.5/os/hal/platforms/STM32F30x/stm32f30x.h"
 224              		.file 7 "/opt/R2P/core/RTCAN/include/rtcan.h"
 225              		.file 8 "/opt/R2P/core/RTCAN/include/msgqueue.h"
 226              		.file 9 "/opt/R2P/core/ChibiOS_2.6.5/os/ports/common/ARMCMx/CMSIS/include/core_cm4.h"
 227 013a 00BF     		.section	.debug_info,"",%progbits
 228              	.Ldebug_info0:
ARM GAS  /tmp/ccR8yuzq.s 			page 5


 229 0000 78090000 		.4byte	0x978
 230 0004 0400     		.2byte	0x4
 231 0006 00000000 		.4byte	.Ldebug_abbrev0
 232 000a 04       		.byte	0x4
 233 000b 01       		.uleb128 0x1
 234 000c E9030000 		.4byte	.LASF129
 235 0010 01       		.byte	0x1
 236 0011 0F020000 		.4byte	.LASF130
 237 0015 00000000 		.4byte	.Ltext0
 238 0019 3A010000 		.4byte	.Letext0-.Ltext0
 239 001d 00000000 		.4byte	.Ldebug_line0
 240 0021 02       		.uleb128 0x2
 241 0022 04       		.byte	0x4
 242 0023 05       		.byte	0x5
 243 0024 696E7400 		.ascii	"int\000"
 244 0028 03       		.uleb128 0x3
 245 0029 04       		.byte	0x4
 246 002a 07       		.byte	0x7
 247 002b 7E010000 		.4byte	.LASF0
 248 002f 03       		.uleb128 0x3
 249 0030 01       		.byte	0x1
 250 0031 06       		.byte	0x6
 251 0032 98000000 		.4byte	.LASF1
 252 0036 04       		.uleb128 0x4
 253 0037 22000000 		.4byte	.LASF4
 254 003b 02       		.byte	0x2
 255 003c 1D       		.byte	0x1d
 256 003d 41000000 		.4byte	0x41
 257 0041 03       		.uleb128 0x3
 258 0042 01       		.byte	0x1
 259 0043 08       		.byte	0x8
 260 0044 72030000 		.4byte	.LASF2
 261 0048 03       		.uleb128 0x3
 262 0049 02       		.byte	0x2
 263 004a 05       		.byte	0x5
 264 004b 8D030000 		.4byte	.LASF3
 265 004f 04       		.uleb128 0x4
 266 0050 41010000 		.4byte	.LASF5
 267 0054 02       		.byte	0x2
 268 0055 2B       		.byte	0x2b
 269 0056 5A000000 		.4byte	0x5a
 270 005a 03       		.uleb128 0x3
 271 005b 02       		.byte	0x2
 272 005c 07       		.byte	0x7
 273 005d E0040000 		.4byte	.LASF6
 274 0061 04       		.uleb128 0x4
 275 0062 50020000 		.4byte	.LASF7
 276 0066 02       		.byte	0x2
 277 0067 3F       		.byte	0x3f
 278 0068 6C000000 		.4byte	0x6c
 279 006c 03       		.uleb128 0x3
 280 006d 04       		.byte	0x4
 281 006e 05       		.byte	0x5
 282 006f F1000000 		.4byte	.LASF8
 283 0073 04       		.uleb128 0x4
 284 0074 4C010000 		.4byte	.LASF9
 285 0078 02       		.byte	0x2
ARM GAS  /tmp/ccR8yuzq.s 			page 6


 286 0079 41       		.byte	0x41
 287 007a 7E000000 		.4byte	0x7e
 288 007e 03       		.uleb128 0x3
 289 007f 04       		.byte	0x4
 290 0080 07       		.byte	0x7
 291 0081 A8010000 		.4byte	.LASF10
 292 0085 03       		.uleb128 0x3
 293 0086 08       		.byte	0x8
 294 0087 05       		.byte	0x5
 295 0088 22010000 		.4byte	.LASF11
 296 008c 03       		.uleb128 0x3
 297 008d 08       		.byte	0x8
 298 008e 07       		.byte	0x7
 299 008f 57000000 		.4byte	.LASF12
 300 0093 04       		.uleb128 0x4
 301 0094 3F050000 		.4byte	.LASF13
 302 0098 03       		.byte	0x3
 303 0099 15       		.byte	0x15
 304 009a 36000000 		.4byte	0x36
 305 009e 04       		.uleb128 0x4
 306 009f 93010000 		.4byte	.LASF14
 307 00a3 03       		.byte	0x3
 308 00a4 21       		.byte	0x21
 309 00a5 4F000000 		.4byte	0x4f
 310 00a9 04       		.uleb128 0x4
 311 00aa 6A030000 		.4byte	.LASF15
 312 00ae 03       		.byte	0x3
 313 00af 2C       		.byte	0x2c
 314 00b0 61000000 		.4byte	0x61
 315 00b4 04       		.uleb128 0x4
 316 00b5 D5030000 		.4byte	.LASF16
 317 00b9 03       		.byte	0x3
 318 00ba 2D       		.byte	0x2d
 319 00bb 73000000 		.4byte	0x73
 320 00bf 04       		.uleb128 0x4
 321 00c0 B5000000 		.4byte	.LASF17
 322 00c4 04       		.byte	0x4
 323 00c5 2B       		.byte	0x2b
 324 00c6 CA000000 		.4byte	0xca
 325 00ca 03       		.uleb128 0x3
 326 00cb 01       		.byte	0x1
 327 00cc 02       		.byte	0x2
 328 00cd 64030000 		.4byte	.LASF18
 329 00d1 04       		.uleb128 0x4
 330 00d2 AA040000 		.4byte	.LASF19
 331 00d6 04       		.byte	0x4
 332 00d7 35       		.byte	0x35
 333 00d8 B4000000 		.4byte	0xb4
 334 00dc 05       		.uleb128 0x5
 335 00dd 04       		.byte	0x4
 336 00de 06       		.uleb128 0x6
 337 00df B4000000 		.4byte	0xb4
 338 00e3 03       		.uleb128 0x3
 339 00e4 04       		.byte	0x4
 340 00e5 07       		.byte	0x7
 341 00e6 A4020000 		.4byte	.LASF20
 342 00ea 04       		.uleb128 0x4
ARM GAS  /tmp/ccR8yuzq.s 			page 7


 343 00eb B4040000 		.4byte	.LASF21
 344 00ef 05       		.byte	0x5
 345 00f0 58       		.byte	0x58
 346 00f1 F5000000 		.4byte	0xf5
 347 00f5 07       		.uleb128 0x7
 348 00f6 04       		.byte	0x4
 349 00f7 FB000000 		.4byte	0xfb
 350 00fb 08       		.uleb128 0x8
 351 00fc 06010000 		.4byte	0x106
 352 0100 09       		.uleb128 0x9
 353 0101 DC000000 		.4byte	0xdc
 354 0105 00       		.byte	0
 355 0106 04       		.uleb128 0x4
 356 0107 C4010000 		.4byte	.LASF22
 357 010b 05       		.byte	0x5
 358 010c 5D       		.byte	0x5d
 359 010d 11010000 		.4byte	0x111
 360 0111 0A       		.uleb128 0xa
 361 0112 C4010000 		.4byte	.LASF22
 362 0116 14       		.byte	0x14
 363 0117 05       		.byte	0x5
 364 0118 64       		.byte	0x64
 365 0119 5A010000 		.4byte	0x15a
 366 011d 0B       		.uleb128 0xb
 367 011e 8B010000 		.4byte	.LASF23
 368 0122 05       		.byte	0x5
 369 0123 65       		.byte	0x65
 370 0124 5A010000 		.4byte	0x15a
 371 0128 00       		.byte	0
 372 0129 0B       		.uleb128 0xb
 373 012a 57010000 		.4byte	.LASF24
 374 012e 05       		.byte	0x5
 375 012f 67       		.byte	0x67
 376 0130 5A010000 		.4byte	0x15a
 377 0134 04       		.byte	0x4
 378 0135 0B       		.uleb128 0xb
 379 0136 91020000 		.4byte	.LASF25
 380 013a 05       		.byte	0x5
 381 013b 69       		.byte	0x69
 382 013c D1000000 		.4byte	0xd1
 383 0140 08       		.byte	0x8
 384 0141 0B       		.uleb128 0xb
 385 0142 BC020000 		.4byte	.LASF26
 386 0146 05       		.byte	0x5
 387 0147 6A       		.byte	0x6a
 388 0148 EA000000 		.4byte	0xea
 389 014c 0C       		.byte	0xc
 390 014d 0B       		.uleb128 0xb
 391 014e F3040000 		.4byte	.LASF27
 392 0152 05       		.byte	0x5
 393 0153 6C       		.byte	0x6c
 394 0154 DC000000 		.4byte	0xdc
 395 0158 10       		.byte	0x10
 396 0159 00       		.byte	0
 397 015a 07       		.uleb128 0x7
 398 015b 04       		.byte	0x4
 399 015c 06010000 		.4byte	0x106
ARM GAS  /tmp/ccR8yuzq.s 			page 8


 400 0160 0C       		.uleb128 0xc
 401 0161 10       		.byte	0x10
 402 0162 05       		.byte	0x5
 403 0163 76       		.byte	0x76
 404 0164 99010000 		.4byte	0x199
 405 0168 0B       		.uleb128 0xb
 406 0169 8B010000 		.4byte	.LASF23
 407 016d 05       		.byte	0x5
 408 016e 77       		.byte	0x77
 409 016f 5A010000 		.4byte	0x15a
 410 0173 00       		.byte	0
 411 0174 0B       		.uleb128 0xb
 412 0175 57010000 		.4byte	.LASF24
 413 0179 05       		.byte	0x5
 414 017a 79       		.byte	0x79
 415 017b 5A010000 		.4byte	0x15a
 416 017f 04       		.byte	0x4
 417 0180 0B       		.uleb128 0xb
 418 0181 91020000 		.4byte	.LASF25
 419 0185 05       		.byte	0x5
 420 0186 7B       		.byte	0x7b
 421 0187 D1000000 		.4byte	0xd1
 422 018b 08       		.byte	0x8
 423 018c 0B       		.uleb128 0xb
 424 018d DE030000 		.4byte	.LASF28
 425 0191 05       		.byte	0x5
 426 0192 7C       		.byte	0x7c
 427 0193 99010000 		.4byte	0x199
 428 0197 0C       		.byte	0xc
 429 0198 00       		.byte	0
 430 0199 06       		.uleb128 0x6
 431 019a D1000000 		.4byte	0xd1
 432 019e 04       		.uleb128 0x4
 433 019f DD020000 		.4byte	.LASF29
 434 01a3 05       		.byte	0x5
 435 01a4 7D       		.byte	0x7d
 436 01a5 60010000 		.4byte	0x160
 437 01a9 03       		.uleb128 0x3
 438 01aa 01       		.byte	0x1
 439 01ab 08       		.byte	0x8
 440 01ac 7E040000 		.4byte	.LASF30
 441 01b0 07       		.uleb128 0x7
 442 01b1 04       		.byte	0x4
 443 01b2 93000000 		.4byte	0x93
 444 01b6 07       		.uleb128 0x7
 445 01b7 04       		.byte	0x4
 446 01b8 BC010000 		.4byte	0x1bc
 447 01bc 0D       		.uleb128 0xd
 448 01bd 93000000 		.4byte	0x93
 449 01c1 0E       		.uleb128 0xe
 450 01c2 B4000000 		.4byte	0xb4
 451 01c6 D1010000 		.4byte	0x1d1
 452 01ca 0F       		.uleb128 0xf
 453 01cb E3000000 		.4byte	0xe3
 454 01cf 07       		.byte	0x7
 455 01d0 00       		.byte	0
 456 01d1 0E       		.uleb128 0xe
ARM GAS  /tmp/ccR8yuzq.s 			page 9


 457 01d2 B4000000 		.4byte	0xb4
 458 01d6 E1010000 		.4byte	0x1e1
 459 01da 0F       		.uleb128 0xf
 460 01db E3000000 		.4byte	0xe3
 461 01df 01       		.byte	0x1
 462 01e0 00       		.byte	0
 463 01e1 06       		.uleb128 0x6
 464 01e2 9E000000 		.4byte	0x9e
 465 01e6 06       		.uleb128 0x6
 466 01e7 A9000000 		.4byte	0xa9
 467 01eb 10       		.uleb128 0x10
 468 01ec 10       		.byte	0x10
 469 01ed 06       		.byte	0x6
 470 01ee 6C01     		.2byte	0x16c
 471 01f0 29020000 		.4byte	0x229
 472 01f4 11       		.uleb128 0x11
 473 01f5 54495200 		.ascii	"TIR\000"
 474 01f9 06       		.byte	0x6
 475 01fa 6E01     		.2byte	0x16e
 476 01fc DE000000 		.4byte	0xde
 477 0200 00       		.byte	0
 478 0201 12       		.uleb128 0x12
 479 0202 5F010000 		.4byte	.LASF31
 480 0206 06       		.byte	0x6
 481 0207 6F01     		.2byte	0x16f
 482 0209 DE000000 		.4byte	0xde
 483 020d 04       		.byte	0x4
 484 020e 12       		.uleb128 0x12
 485 020f EC000000 		.4byte	.LASF32
 486 0213 06       		.byte	0x6
 487 0214 7001     		.2byte	0x170
 488 0216 DE000000 		.4byte	0xde
 489 021a 08       		.byte	0x8
 490 021b 12       		.uleb128 0x12
 491 021c E4020000 		.4byte	.LASF33
 492 0220 06       		.byte	0x6
 493 0221 7101     		.2byte	0x171
 494 0223 DE000000 		.4byte	0xde
 495 0227 0C       		.byte	0xc
 496 0228 00       		.byte	0
 497 0229 13       		.uleb128 0x13
 498 022a FA000000 		.4byte	.LASF34
 499 022e 06       		.byte	0x6
 500 022f 7201     		.2byte	0x172
 501 0231 EB010000 		.4byte	0x1eb
 502 0235 10       		.uleb128 0x10
 503 0236 10       		.byte	0x10
 504 0237 06       		.byte	0x6
 505 0238 7701     		.2byte	0x177
 506 023a 73020000 		.4byte	0x273
 507 023e 11       		.uleb128 0x11
 508 023f 52495200 		.ascii	"RIR\000"
 509 0243 06       		.byte	0x6
 510 0244 7901     		.2byte	0x179
 511 0246 DE000000 		.4byte	0xde
 512 024a 00       		.byte	0
 513 024b 12       		.uleb128 0x12
ARM GAS  /tmp/ccR8yuzq.s 			page 10


 514 024c BA010000 		.4byte	.LASF35
 515 0250 06       		.byte	0x6
 516 0251 7A01     		.2byte	0x17a
 517 0253 DE000000 		.4byte	0xde
 518 0257 04       		.byte	0x4
 519 0258 12       		.uleb128 0x12
 520 0259 69010000 		.4byte	.LASF36
 521 025d 06       		.byte	0x6
 522 025e 7B01     		.2byte	0x17b
 523 0260 DE000000 		.4byte	0xde
 524 0264 08       		.byte	0x8
 525 0265 12       		.uleb128 0x12
 526 0266 A5040000 		.4byte	.LASF37
 527 026a 06       		.byte	0x6
 528 026b 7C01     		.2byte	0x17c
 529 026d DE000000 		.4byte	0xde
 530 0271 0C       		.byte	0xc
 531 0272 00       		.byte	0
 532 0273 13       		.uleb128 0x13
 533 0274 27050000 		.4byte	.LASF38
 534 0278 06       		.byte	0x6
 535 0279 7D01     		.2byte	0x17d
 536 027b 35020000 		.4byte	0x235
 537 027f 10       		.uleb128 0x10
 538 0280 08       		.byte	0x8
 539 0281 06       		.byte	0x6
 540 0282 8201     		.2byte	0x182
 541 0284 A3020000 		.4byte	0x2a3
 542 0288 11       		.uleb128 0x11
 543 0289 46523100 		.ascii	"FR1\000"
 544 028d 06       		.byte	0x6
 545 028e 8401     		.2byte	0x184
 546 0290 DE000000 		.4byte	0xde
 547 0294 00       		.byte	0
 548 0295 11       		.uleb128 0x11
 549 0296 46523200 		.ascii	"FR2\000"
 550 029a 06       		.byte	0x6
 551 029b 8501     		.2byte	0x185
 552 029d DE000000 		.4byte	0xde
 553 02a1 04       		.byte	0x4
 554 02a2 00       		.byte	0
 555 02a3 13       		.uleb128 0x13
 556 02a4 E0010000 		.4byte	.LASF39
 557 02a8 06       		.byte	0x6
 558 02a9 8601     		.2byte	0x186
 559 02ab 7F020000 		.4byte	0x27f
 560 02af 14       		.uleb128 0x14
 561 02b0 2003     		.2byte	0x320
 562 02b2 06       		.byte	0x6
 563 02b3 8B01     		.2byte	0x18b
 564 02b5 E5030000 		.4byte	0x3e5
 565 02b9 11       		.uleb128 0x11
 566 02ba 4D435200 		.ascii	"MCR\000"
 567 02be 06       		.byte	0x6
 568 02bf 8D01     		.2byte	0x18d
 569 02c1 DE000000 		.4byte	0xde
 570 02c5 00       		.byte	0
ARM GAS  /tmp/ccR8yuzq.s 			page 11


 571 02c6 11       		.uleb128 0x11
 572 02c7 4D535200 		.ascii	"MSR\000"
 573 02cb 06       		.byte	0x6
 574 02cc 8E01     		.2byte	0x18e
 575 02ce DE000000 		.4byte	0xde
 576 02d2 04       		.byte	0x4
 577 02d3 11       		.uleb128 0x11
 578 02d4 54535200 		.ascii	"TSR\000"
 579 02d8 06       		.byte	0x6
 580 02d9 8F01     		.2byte	0x18f
 581 02db DE000000 		.4byte	0xde
 582 02df 08       		.byte	0x8
 583 02e0 12       		.uleb128 0x12
 584 02e1 3C010000 		.4byte	.LASF40
 585 02e5 06       		.byte	0x6
 586 02e6 9001     		.2byte	0x190
 587 02e8 DE000000 		.4byte	0xde
 588 02ec 0C       		.byte	0xc
 589 02ed 12       		.uleb128 0x12
 590 02ee DB010000 		.4byte	.LASF41
 591 02f2 06       		.byte	0x6
 592 02f3 9101     		.2byte	0x191
 593 02f5 DE000000 		.4byte	0xde
 594 02f9 10       		.byte	0x10
 595 02fa 11       		.uleb128 0x11
 596 02fb 49455200 		.ascii	"IER\000"
 597 02ff 06       		.byte	0x6
 598 0300 9201     		.2byte	0x192
 599 0302 DE000000 		.4byte	0xde
 600 0306 14       		.byte	0x14
 601 0307 11       		.uleb128 0x11
 602 0308 45535200 		.ascii	"ESR\000"
 603 030c 06       		.byte	0x6
 604 030d 9301     		.2byte	0x193
 605 030f DE000000 		.4byte	0xde
 606 0313 18       		.byte	0x18
 607 0314 11       		.uleb128 0x11
 608 0315 42545200 		.ascii	"BTR\000"
 609 0319 06       		.byte	0x6
 610 031a 9401     		.2byte	0x194
 611 031c DE000000 		.4byte	0xde
 612 0320 1C       		.byte	0x1c
 613 0321 12       		.uleb128 0x12
 614 0322 1B030000 		.4byte	.LASF42
 615 0326 06       		.byte	0x6
 616 0327 9501     		.2byte	0x195
 617 0329 E5030000 		.4byte	0x3e5
 618 032d 20       		.byte	0x20
 619 032e 15       		.uleb128 0x15
 620 032f 05000000 		.4byte	.LASF43
 621 0333 06       		.byte	0x6
 622 0334 9601     		.2byte	0x196
 623 0336 F5030000 		.4byte	0x3f5
 624 033a 8001     		.2byte	0x180
 625 033c 15       		.uleb128 0x15
 626 033d BD040000 		.4byte	.LASF44
 627 0341 06       		.byte	0x6
ARM GAS  /tmp/ccR8yuzq.s 			page 12


 628 0342 9701     		.2byte	0x197
 629 0344 05040000 		.4byte	0x405
 630 0348 B001     		.2byte	0x1b0
 631 034a 15       		.uleb128 0x15
 632 034b 25030000 		.4byte	.LASF45
 633 034f 06       		.byte	0x6
 634 0350 9801     		.2byte	0x198
 635 0352 15040000 		.4byte	0x415
 636 0356 D001     		.2byte	0x1d0
 637 0358 16       		.uleb128 0x16
 638 0359 464D5200 		.ascii	"FMR\000"
 639 035d 06       		.byte	0x6
 640 035e 9901     		.2byte	0x199
 641 0360 DE000000 		.4byte	0xde
 642 0364 0002     		.2byte	0x200
 643 0366 15       		.uleb128 0x15
 644 0367 4B020000 		.4byte	.LASF46
 645 036b 06       		.byte	0x6
 646 036c 9A01     		.2byte	0x19a
 647 036e DE000000 		.4byte	0xde
 648 0372 0402     		.2byte	0x204
 649 0374 15       		.uleb128 0x15
 650 0375 2F030000 		.4byte	.LASF47
 651 0379 06       		.byte	0x6
 652 037a 9B01     		.2byte	0x19b
 653 037c B4000000 		.4byte	0xb4
 654 0380 0802     		.2byte	0x208
 655 0382 15       		.uleb128 0x15
 656 0383 BF010000 		.4byte	.LASF48
 657 0387 06       		.byte	0x6
 658 0388 9C01     		.2byte	0x19c
 659 038a DE000000 		.4byte	0xde
 660 038e 0C02     		.2byte	0x20c
 661 0390 15       		.uleb128 0x15
 662 0391 39030000 		.4byte	.LASF49
 663 0395 06       		.byte	0x6
 664 0396 9D01     		.2byte	0x19d
 665 0398 B4000000 		.4byte	0xb4
 666 039c 1002     		.2byte	0x210
 667 039e 15       		.uleb128 0x15
 668 039f 03030000 		.4byte	.LASF50
 669 03a3 06       		.byte	0x6
 670 03a4 9E01     		.2byte	0x19e
 671 03a6 DE000000 		.4byte	0xde
 672 03aa 1402     		.2byte	0x214
 673 03ac 15       		.uleb128 0x15
 674 03ad C1030000 		.4byte	.LASF51
 675 03b1 06       		.byte	0x6
 676 03b2 9F01     		.2byte	0x19f
 677 03b4 B4000000 		.4byte	0xb4
 678 03b8 1802     		.2byte	0x218
 679 03ba 15       		.uleb128 0x15
 680 03bb 55030000 		.4byte	.LASF52
 681 03bf 06       		.byte	0x6
 682 03c0 A001     		.2byte	0x1a0
 683 03c2 DE000000 		.4byte	0xde
 684 03c6 1C02     		.2byte	0x21c
ARM GAS  /tmp/ccR8yuzq.s 			page 13


 685 03c8 15       		.uleb128 0x15
 686 03c9 CB030000 		.4byte	.LASF53
 687 03cd 06       		.byte	0x6
 688 03ce A101     		.2byte	0x1a1
 689 03d0 C1010000 		.4byte	0x1c1
 690 03d4 2002     		.2byte	0x220
 691 03d6 15       		.uleb128 0x15
 692 03d7 2D020000 		.4byte	.LASF54
 693 03db 06       		.byte	0x6
 694 03dc A201     		.2byte	0x1a2
 695 03de 25040000 		.4byte	0x425
 696 03e2 4002     		.2byte	0x240
 697 03e4 00       		.byte	0
 698 03e5 0E       		.uleb128 0xe
 699 03e6 B4000000 		.4byte	0xb4
 700 03ea F5030000 		.4byte	0x3f5
 701 03ee 0F       		.uleb128 0xf
 702 03ef E3000000 		.4byte	0xe3
 703 03f3 57       		.byte	0x57
 704 03f4 00       		.byte	0
 705 03f5 0E       		.uleb128 0xe
 706 03f6 29020000 		.4byte	0x229
 707 03fa 05040000 		.4byte	0x405
 708 03fe 0F       		.uleb128 0xf
 709 03ff E3000000 		.4byte	0xe3
 710 0403 02       		.byte	0x2
 711 0404 00       		.byte	0
 712 0405 0E       		.uleb128 0xe
 713 0406 73020000 		.4byte	0x273
 714 040a 15040000 		.4byte	0x415
 715 040e 0F       		.uleb128 0xf
 716 040f E3000000 		.4byte	0xe3
 717 0413 01       		.byte	0x1
 718 0414 00       		.byte	0
 719 0415 0E       		.uleb128 0xe
 720 0416 B4000000 		.4byte	0xb4
 721 041a 25040000 		.4byte	0x425
 722 041e 0F       		.uleb128 0xf
 723 041f E3000000 		.4byte	0xe3
 724 0423 0B       		.byte	0xb
 725 0424 00       		.byte	0
 726 0425 0E       		.uleb128 0xe
 727 0426 A3020000 		.4byte	0x2a3
 728 042a 35040000 		.4byte	0x435
 729 042e 0F       		.uleb128 0xf
 730 042f E3000000 		.4byte	0xe3
 731 0433 1B       		.byte	0x1b
 732 0434 00       		.byte	0
 733 0435 13       		.uleb128 0x13
 734 0436 33000000 		.4byte	.LASF55
 735 043a 06       		.byte	0x6
 736 043b A301     		.2byte	0x1a3
 737 043d AF020000 		.4byte	0x2af
 738 0441 10       		.uleb128 0x10
 739 0442 60       		.byte	0x60
 740 0443 06       		.byte	0x6
 741 0444 E002     		.2byte	0x2e0
ARM GAS  /tmp/ccR8yuzq.s 			page 14


 742 0446 C2050000 		.4byte	0x5c2
 743 044a 11       		.uleb128 0x11
 744 044b 43523100 		.ascii	"CR1\000"
 745 044f 06       		.byte	0x6
 746 0450 E202     		.2byte	0x2e2
 747 0452 E1010000 		.4byte	0x1e1
 748 0456 00       		.byte	0
 749 0457 12       		.uleb128 0x12
 750 0458 1B030000 		.4byte	.LASF42
 751 045c 06       		.byte	0x6
 752 045d E302     		.2byte	0x2e3
 753 045f 9E000000 		.4byte	0x9e
 754 0463 02       		.byte	0x2
 755 0464 11       		.uleb128 0x11
 756 0465 43523200 		.ascii	"CR2\000"
 757 0469 06       		.byte	0x6
 758 046a E402     		.2byte	0x2e4
 759 046c DE000000 		.4byte	0xde
 760 0470 04       		.byte	0x4
 761 0471 12       		.uleb128 0x12
 762 0472 D6010000 		.4byte	.LASF56
 763 0476 06       		.byte	0x6
 764 0477 E502     		.2byte	0x2e5
 765 0479 DE000000 		.4byte	0xde
 766 047d 08       		.byte	0x8
 767 047e 12       		.uleb128 0x12
 768 047f 00000000 		.4byte	.LASF57
 769 0483 06       		.byte	0x6
 770 0484 E602     		.2byte	0x2e6
 771 0486 DE000000 		.4byte	0xde
 772 048a 0C       		.byte	0xc
 773 048b 11       		.uleb128 0x11
 774 048c 535200   		.ascii	"SR\000"
 775 048f 06       		.byte	0x6
 776 0490 E702     		.2byte	0x2e7
 777 0492 DE000000 		.4byte	0xde
 778 0496 10       		.byte	0x10
 779 0497 11       		.uleb128 0x11
 780 0498 45475200 		.ascii	"EGR\000"
 781 049c 06       		.byte	0x6
 782 049d E802     		.2byte	0x2e8
 783 049f DE000000 		.4byte	0xde
 784 04a3 14       		.byte	0x14
 785 04a4 12       		.uleb128 0x12
 786 04a5 86000000 		.4byte	.LASF58
 787 04a9 06       		.byte	0x6
 788 04aa E902     		.2byte	0x2e9
 789 04ac DE000000 		.4byte	0xde
 790 04b0 18       		.byte	0x18
 791 04b1 12       		.uleb128 0x12
 792 04b2 8C000000 		.4byte	.LASF59
 793 04b6 06       		.byte	0x6
 794 04b7 EA02     		.2byte	0x2ea
 795 04b9 DE000000 		.4byte	0xde
 796 04bd 1C       		.byte	0x1c
 797 04be 12       		.uleb128 0x12
 798 04bf 1D010000 		.4byte	.LASF60
ARM GAS  /tmp/ccR8yuzq.s 			page 15


 799 04c3 06       		.byte	0x6
 800 04c4 EB02     		.2byte	0x2eb
 801 04c6 DE000000 		.4byte	0xde
 802 04ca 20       		.byte	0x20
 803 04cb 11       		.uleb128 0x11
 804 04cc 434E5400 		.ascii	"CNT\000"
 805 04d0 06       		.byte	0x6
 806 04d1 EC02     		.2byte	0x2ec
 807 04d3 DE000000 		.4byte	0xde
 808 04d7 24       		.byte	0x24
 809 04d8 11       		.uleb128 0x11
 810 04d9 50534300 		.ascii	"PSC\000"
 811 04dd 06       		.byte	0x6
 812 04de ED02     		.2byte	0x2ed
 813 04e0 E1010000 		.4byte	0x1e1
 814 04e4 28       		.byte	0x28
 815 04e5 12       		.uleb128 0x12
 816 04e6 5A030000 		.4byte	.LASF61
 817 04ea 06       		.byte	0x6
 818 04eb EE02     		.2byte	0x2ee
 819 04ed 9E000000 		.4byte	0x9e
 820 04f1 2A       		.byte	0x2a
 821 04f2 11       		.uleb128 0x11
 822 04f3 41525200 		.ascii	"ARR\000"
 823 04f7 06       		.byte	0x6
 824 04f8 EF02     		.2byte	0x2ef
 825 04fa DE000000 		.4byte	0xde
 826 04fe 2C       		.byte	0x2c
 827 04ff 11       		.uleb128 0x11
 828 0500 52435200 		.ascii	"RCR\000"
 829 0504 06       		.byte	0x6
 830 0505 F002     		.2byte	0x2f0
 831 0507 E1010000 		.4byte	0x1e1
 832 050b 30       		.byte	0x30
 833 050c 12       		.uleb128 0x12
 834 050d C5000000 		.4byte	.LASF62
 835 0511 06       		.byte	0x6
 836 0512 F102     		.2byte	0x2f1
 837 0514 9E000000 		.4byte	0x9e
 838 0518 32       		.byte	0x32
 839 0519 12       		.uleb128 0x12
 840 051a 52000000 		.4byte	.LASF63
 841 051e 06       		.byte	0x6
 842 051f F202     		.2byte	0x2f2
 843 0521 DE000000 		.4byte	0xde
 844 0525 34       		.byte	0x34
 845 0526 12       		.uleb128 0x12
 846 0527 07050000 		.4byte	.LASF64
 847 052b 06       		.byte	0x6
 848 052c F302     		.2byte	0x2f3
 849 052e DE000000 		.4byte	0xde
 850 0532 38       		.byte	0x38
 851 0533 12       		.uleb128 0x12
 852 0534 0C050000 		.4byte	.LASF65
 853 0538 06       		.byte	0x6
 854 0539 F402     		.2byte	0x2f4
 855 053b DE000000 		.4byte	0xde
ARM GAS  /tmp/ccR8yuzq.s 			page 16


 856 053f 3C       		.byte	0x3c
 857 0540 12       		.uleb128 0x12
 858 0541 11050000 		.4byte	.LASF66
 859 0545 06       		.byte	0x6
 860 0546 F502     		.2byte	0x2f5
 861 0548 DE000000 		.4byte	0xde
 862 054c 40       		.byte	0x40
 863 054d 12       		.uleb128 0x12
 864 054e 64010000 		.4byte	.LASF67
 865 0552 06       		.byte	0x6
 866 0553 F602     		.2byte	0x2f6
 867 0555 DE000000 		.4byte	0xde
 868 0559 44       		.byte	0x44
 869 055a 11       		.uleb128 0x11
 870 055b 44435200 		.ascii	"DCR\000"
 871 055f 06       		.byte	0x6
 872 0560 F702     		.2byte	0x2f7
 873 0562 E1010000 		.4byte	0x1e1
 874 0566 48       		.byte	0x48
 875 0567 12       		.uleb128 0x12
 876 0568 D0000000 		.4byte	.LASF68
 877 056c 06       		.byte	0x6
 878 056d F802     		.2byte	0x2f8
 879 056f 9E000000 		.4byte	0x9e
 880 0573 4A       		.byte	0x4a
 881 0574 12       		.uleb128 0x12
 882 0575 A0040000 		.4byte	.LASF69
 883 0579 06       		.byte	0x6
 884 057a F902     		.2byte	0x2f9
 885 057c E1010000 		.4byte	0x1e1
 886 0580 4C       		.byte	0x4c
 887 0581 12       		.uleb128 0x12
 888 0582 DB000000 		.4byte	.LASF70
 889 0586 06       		.byte	0x6
 890 0587 FA02     		.2byte	0x2fa
 891 0589 9E000000 		.4byte	0x9e
 892 058d 4E       		.byte	0x4e
 893 058e 11       		.uleb128 0x11
 894 058f 4F5200   		.ascii	"OR\000"
 895 0592 06       		.byte	0x6
 896 0593 FB02     		.2byte	0x2fb
 897 0595 E1010000 		.4byte	0x1e1
 898 0599 50       		.byte	0x50
 899 059a 12       		.uleb128 0x12
 900 059b 92000000 		.4byte	.LASF71
 901 059f 06       		.byte	0x6
 902 05a0 FC02     		.2byte	0x2fc
 903 05a2 DE000000 		.4byte	0xde
 904 05a6 54       		.byte	0x54
 905 05a7 12       		.uleb128 0x12
 906 05a8 16050000 		.4byte	.LASF72
 907 05ac 06       		.byte	0x6
 908 05ad FD02     		.2byte	0x2fd
 909 05af DE000000 		.4byte	0xde
 910 05b3 58       		.byte	0x58
 911 05b4 12       		.uleb128 0x12
 912 05b5 1B050000 		.4byte	.LASF73
ARM GAS  /tmp/ccR8yuzq.s 			page 17


 913 05b9 06       		.byte	0x6
 914 05ba FE02     		.2byte	0x2fe
 915 05bc DE000000 		.4byte	0xde
 916 05c0 5C       		.byte	0x5c
 917 05c1 00       		.byte	0
 918 05c2 13       		.uleb128 0x13
 919 05c3 3F000000 		.4byte	.LASF74
 920 05c7 06       		.byte	0x6
 921 05c8 FF02     		.2byte	0x2ff
 922 05ca 41040000 		.4byte	0x441
 923 05ce 04       		.uleb128 0x4
 924 05cf 83040000 		.4byte	.LASF75
 925 05d3 07       		.byte	0x7
 926 05d4 5E       		.byte	0x5e
 927 05d5 D9050000 		.4byte	0x5d9
 928 05d9 0A       		.uleb128 0xa
 929 05da 83040000 		.4byte	.LASF75
 930 05de 1E       		.byte	0x1e
 931 05df 07       		.byte	0x7
 932 05e0 B9       		.byte	0xb9
 933 05e1 5A060000 		.4byte	0x65a
 934 05e5 0B       		.uleb128 0xb
 935 05e6 81000000 		.4byte	.LASF76
 936 05ea 07       		.byte	0x7
 937 05eb BA       		.byte	0xba
 938 05ec 76060000 		.4byte	0x676
 939 05f0 00       		.byte	0
 940 05f1 0B       		.uleb128 0xb
 941 05f2 20050000 		.4byte	.LASF77
 942 05f6 07       		.byte	0x7
 943 05f7 BB       		.byte	0xbb
 944 05f8 ED060000 		.4byte	0x6ed
 945 05fc 04       		.byte	0x4
 946 05fd 0B       		.uleb128 0xb
 947 05fe FB010000 		.4byte	.LASF78
 948 0602 07       		.byte	0x7
 949 0603 BC       		.byte	0xbc
 950 0604 5A060000 		.4byte	0x65a
 951 0608 05       		.byte	0x5
 952 0609 0B       		.uleb128 0xb
 953 060a 30010000 		.4byte	.LASF79
 954 060e 07       		.byte	0x7
 955 060f BD       		.byte	0xbd
 956 0610 DC000000 		.4byte	0xdc
 957 0614 09       		.byte	0x9
 958 0615 17       		.uleb128 0x17
 959 0616 62080000 		.4byte	0x862
 960 061a 0D       		.byte	0xd
 961 061b 18       		.uleb128 0x18
 962 061c 696400   		.ascii	"id\000"
 963 061f 07       		.byte	0x7
 964 0620 C7       		.byte	0xc7
 965 0621 F8060000 		.4byte	0x6f8
 966 0625 11       		.byte	0x11
 967 0626 0B       		.uleb128 0xb
 968 0627 53050000 		.4byte	.LASF80
 969 062b 07       		.byte	0x7
ARM GAS  /tmp/ccR8yuzq.s 			page 18


 970 062c C8       		.byte	0xc8
 971 062d 9E000000 		.4byte	0x9e
 972 0631 13       		.byte	0x13
 973 0632 0B       		.uleb128 0xb
 974 0633 D1010000 		.4byte	.LASF81
 975 0637 07       		.byte	0x7
 976 0638 C9       		.byte	0xc9
 977 0639 B6010000 		.4byte	0x1b6
 978 063d 15       		.byte	0x15
 979 063e 18       		.uleb128 0x18
 980 063f 70747200 		.ascii	"ptr\000"
 981 0643 07       		.byte	0x7
 982 0644 CA       		.byte	0xca
 983 0645 B0010000 		.4byte	0x1b0
 984 0649 19       		.byte	0x19
 985 064a 19       		.uleb128 0x19
 986 064b A8030000 		.4byte	.LASF112
 987 064f 07       		.byte	0x7
 988 0650 CB       		.byte	0xcb
 989 0651 93000000 		.4byte	0x93
 990 0655 01       		.byte	0x1
 991 0656 07       		.byte	0x7
 992 0657 01       		.byte	0x1
 993 0658 1D       		.byte	0x1d
 994 0659 00       		.byte	0
 995 065a 04       		.uleb128 0x4
 996 065b EF020000 		.4byte	.LASF82
 997 065f 07       		.byte	0x7
 998 0660 63       		.byte	0x63
 999 0661 65060000 		.4byte	0x665
 1000 0665 07       		.uleb128 0x7
 1001 0666 04       		.byte	0x4
 1002 0667 6B060000 		.4byte	0x66b
 1003 066b 08       		.uleb128 0x8
 1004 066c 76060000 		.4byte	0x676
 1005 0670 09       		.uleb128 0x9
 1006 0671 76060000 		.4byte	0x676
 1007 0675 00       		.byte	0
 1008 0676 07       		.uleb128 0x7
 1009 0677 04       		.byte	0x4
 1010 0678 CE050000 		.4byte	0x5ce
 1011 067c 1A       		.uleb128 0x1a
 1012 067d 01       		.byte	0x1
 1013 067e 07       		.byte	0x7
 1014 067f 68       		.byte	0x68
 1015 0680 AF060000 		.4byte	0x6af
 1016 0684 1B       		.uleb128 0x1b
 1017 0685 CA020000 		.4byte	.LASF83
 1018 0689 00       		.sleb128 0
 1019 068a 1B       		.uleb128 0x1b
 1020 068b 10000000 		.4byte	.LASF84
 1021 068f 01       		.sleb128 1
 1022 0690 1B       		.uleb128 0x1b
 1023 0691 AD020000 		.4byte	.LASF85
 1024 0695 02       		.sleb128 2
 1025 0696 1B       		.uleb128 0x1b
 1026 0697 47050000 		.4byte	.LASF86
ARM GAS  /tmp/ccR8yuzq.s 			page 19


 1027 069b 03       		.sleb128 3
 1028 069c 1B       		.uleb128 0x1b
 1029 069d 3D020000 		.4byte	.LASF87
 1030 06a1 04       		.sleb128 4
 1031 06a2 1B       		.uleb128 0x1b
 1032 06a3 9C010000 		.4byte	.LASF88
 1033 06a7 05       		.sleb128 5
 1034 06a8 1B       		.uleb128 0x1b
 1035 06a9 58050000 		.4byte	.LASF89
 1036 06ad 06       		.sleb128 6
 1037 06ae 00       		.byte	0
 1038 06af 04       		.uleb128 0x4
 1039 06b0 09030000 		.4byte	.LASF90
 1040 06b4 07       		.byte	0x7
 1041 06b5 70       		.byte	0x70
 1042 06b6 7C060000 		.4byte	0x67c
 1043 06ba 1A       		.uleb128 0x1a
 1044 06bb 01       		.byte	0x1
 1045 06bc 07       		.byte	0x7
 1046 06bd 75       		.byte	0x75
 1047 06be ED060000 		.4byte	0x6ed
 1048 06c2 1B       		.uleb128 0x1b
 1049 06c3 A4000000 		.4byte	.LASF91
 1050 06c7 00       		.sleb128 0
 1051 06c8 1B       		.uleb128 0x1b
 1052 06c9 D1040000 		.4byte	.LASF92
 1053 06cd 01       		.sleb128 1
 1054 06ce 1B       		.uleb128 0x1b
 1055 06cf B1030000 		.4byte	.LASF93
 1056 06d3 02       		.sleb128 2
 1057 06d4 1B       		.uleb128 0x1b
 1058 06d5 97030000 		.4byte	.LASF94
 1059 06d9 03       		.sleb128 3
 1060 06da 1B       		.uleb128 0x1b
 1061 06db 81020000 		.4byte	.LASF95
 1062 06df 04       		.sleb128 4
 1063 06e0 1B       		.uleb128 0x1b
 1064 06e1 43030000 		.4byte	.LASF96
 1065 06e5 05       		.sleb128 5
 1066 06e6 1B       		.uleb128 0x1b
 1067 06e7 5F020000 		.4byte	.LASF97
 1068 06eb 06       		.sleb128 6
 1069 06ec 00       		.byte	0
 1070 06ed 04       		.uleb128 0x4
 1071 06ee 6F020000 		.4byte	.LASF98
 1072 06f2 07       		.byte	0x7
 1073 06f3 7D       		.byte	0x7d
 1074 06f4 BA060000 		.4byte	0x6ba
 1075 06f8 04       		.uleb128 0x4
 1076 06f9 04020000 		.4byte	.LASF99
 1077 06fd 07       		.byte	0x7
 1078 06fe 83       		.byte	0x83
 1079 06ff 9E000000 		.4byte	0x9e
 1080 0703 0C       		.uleb128 0xc
 1081 0704 04       		.byte	0x4
 1082 0705 08       		.byte	0x8
 1083 0706 1E       		.byte	0x1e
ARM GAS  /tmp/ccR8yuzq.s 			page 20


 1084 0707 18070000 		.4byte	0x718
 1085 070b 0B       		.uleb128 0xb
 1086 070c 81000000 		.4byte	.LASF76
 1087 0710 08       		.byte	0x8
 1088 0711 20       		.byte	0x20
 1089 0712 76060000 		.4byte	0x676
 1090 0716 00       		.byte	0
 1091 0717 00       		.byte	0
 1092 0718 04       		.uleb128 0x4
 1093 0719 8D050000 		.4byte	.LASF100
 1094 071d 08       		.byte	0x8
 1095 071e 21       		.byte	0x21
 1096 071f 03070000 		.4byte	0x703
 1097 0723 0A       		.uleb128 0xa
 1098 0724 6E000000 		.4byte	.LASF101
 1099 0728 60       		.byte	0x60
 1100 0729 07       		.byte	0x7
 1101 072a E3       		.byte	0xe3
 1102 072b 9F070000 		.4byte	0x79f
 1103 072f 0B       		.uleb128 0xb
 1104 0730 E6000000 		.4byte	.LASF102
 1105 0734 07       		.byte	0x7
 1106 0735 E7       		.byte	0xe7
 1107 0736 AF060000 		.4byte	0x6af
 1108 073a 00       		.byte	0
 1109 073b 0B       		.uleb128 0xb
 1110 073c 37010000 		.4byte	.LASF103
 1111 0740 07       		.byte	0x7
 1112 0741 EB       		.byte	0xeb
 1113 0742 B4000000 		.4byte	0xb4
 1114 0746 04       		.byte	0x4
 1115 0747 0B       		.uleb128 0xb
 1116 0748 FA040000 		.4byte	.LASF104
 1117 074c 07       		.byte	0x7
 1118 074d EF       		.byte	0xef
 1119 074e B4000000 		.4byte	0xb4
 1120 0752 08       		.byte	0x8
 1121 0753 0B       		.uleb128 0xb
 1122 0754 8F040000 		.4byte	.LASF105
 1123 0758 07       		.byte	0x7
 1124 0759 F3       		.byte	0xf3
 1125 075a 18070000 		.4byte	0x718
 1126 075e 0C       		.byte	0xc
 1127 075f 0B       		.uleb128 0xb
 1128 0760 C4020000 		.4byte	.LASF106
 1129 0764 07       		.byte	0x7
 1130 0765 F7       		.byte	0xf7
 1131 0766 AD080000 		.4byte	0x8ad
 1132 076a 10       		.byte	0x10
 1133 076b 0B       		.uleb128 0xb
 1134 076c 85050000 		.4byte	.LASF107
 1135 0770 07       		.byte	0x7
 1136 0771 FB       		.byte	0xfb
 1137 0772 BD080000 		.4byte	0x8bd
 1138 0776 1C       		.byte	0x1c
 1139 0777 12       		.uleb128 0x12
 1140 0778 99040000 		.4byte	.LASF108
ARM GAS  /tmp/ccR8yuzq.s 			page 21


 1141 077c 07       		.byte	0x7
 1142 077d 0901     		.2byte	0x109
 1143 077f CD080000 		.4byte	0x8cd
 1144 0783 54       		.byte	0x54
 1145 0784 11       		.uleb128 0x11
 1146 0785 74696D00 		.ascii	"tim\000"
 1147 0789 07       		.byte	0x7
 1148 078a 0E01     		.2byte	0x10e
 1149 078c D8080000 		.4byte	0x8d8
 1150 0790 58       		.byte	0x58
 1151 0791 11       		.uleb128 0x11
 1152 0792 63616E00 		.ascii	"can\000"
 1153 0796 07       		.byte	0x7
 1154 0797 1301     		.2byte	0x113
 1155 0799 DE080000 		.4byte	0x8de
 1156 079d 5C       		.byte	0x5c
 1157 079e 00       		.byte	0
 1158 079f 1C       		.uleb128 0x1c
 1159 07a0 08       		.byte	0x8
 1160 07a1 07       		.byte	0x7
 1161 07a2 A1       		.byte	0xa1
 1162 07a3 C9070000 		.4byte	0x7c9
 1163 07a7 1D       		.uleb128 0x1d
 1164 07a8 D7020000 		.4byte	.LASF109
 1165 07ac 07       		.byte	0x7
 1166 07ad A2       		.byte	0xa2
 1167 07ae C9070000 		.4byte	0x7c9
 1168 07b2 1D       		.uleb128 0x1d
 1169 07b3 00050000 		.4byte	.LASF110
 1170 07b7 07       		.byte	0x7
 1171 07b8 A3       		.byte	0xa3
 1172 07b9 D9070000 		.4byte	0x7d9
 1173 07bd 1D       		.uleb128 0x1d
 1174 07be 7A000000 		.4byte	.LASF111
 1175 07c2 07       		.byte	0x7
 1176 07c3 A4       		.byte	0xa4
 1177 07c4 D1010000 		.4byte	0x1d1
 1178 07c8 00       		.byte	0
 1179 07c9 0E       		.uleb128 0xe
 1180 07ca 93000000 		.4byte	0x93
 1181 07ce D9070000 		.4byte	0x7d9
 1182 07d2 0F       		.uleb128 0xf
 1183 07d3 E3000000 		.4byte	0xe3
 1184 07d7 07       		.byte	0x7
 1185 07d8 00       		.byte	0
 1186 07d9 0E       		.uleb128 0xe
 1187 07da 9E000000 		.4byte	0x9e
 1188 07de E9070000 		.4byte	0x7e9
 1189 07e2 0F       		.uleb128 0xf
 1190 07e3 E3000000 		.4byte	0xe3
 1191 07e7 03       		.byte	0x3
 1192 07e8 00       		.byte	0
 1193 07e9 0C       		.uleb128 0xc
 1194 07ea 10       		.byte	0x10
 1195 07eb 07       		.byte	0x7
 1196 07ec 9D       		.byte	0x9d
 1197 07ed 21080000 		.4byte	0x821
ARM GAS  /tmp/ccR8yuzq.s 			page 22


 1198 07f1 1E       		.uleb128 0x1e
 1199 07f2 696400   		.ascii	"id\000"
 1200 07f5 07       		.byte	0x7
 1201 07f6 9E       		.byte	0x9e
 1202 07f7 B4000000 		.4byte	0xb4
 1203 07fb 04       		.byte	0x4
 1204 07fc 1D       		.byte	0x1d
 1205 07fd 03       		.byte	0x3
 1206 07fe 00       		.byte	0
 1207 07ff 1E       		.uleb128 0x1e
 1208 0800 6C656E00 		.ascii	"len\000"
 1209 0804 07       		.byte	0x7
 1210 0805 9F       		.byte	0x9f
 1211 0806 93000000 		.4byte	0x93
 1212 080a 01       		.byte	0x1
 1213 080b 04       		.byte	0x4
 1214 080c 04       		.byte	0x4
 1215 080d 04       		.byte	0x4
 1216 080e 0B       		.uleb128 0xb
 1217 080f 16030000 		.4byte	.LASF113
 1218 0813 07       		.byte	0x7
 1219 0814 A0       		.byte	0xa0
 1220 0815 93000000 		.4byte	0x93
 1221 0819 05       		.byte	0x5
 1222 081a 17       		.uleb128 0x17
 1223 081b 9F070000 		.4byte	0x79f
 1224 081f 08       		.byte	0x8
 1225 0820 00       		.byte	0
 1226 0821 04       		.uleb128 0x4
 1227 0822 6E010000 		.4byte	.LASF114
 1228 0826 07       		.byte	0x7
 1229 0827 A6       		.byte	0xa6
 1230 0828 E9070000 		.4byte	0x7e9
 1231 082c 0C       		.uleb128 0xc
 1232 082d 04       		.byte	0x4
 1233 082e 07       		.byte	0x7
 1234 082f BF       		.byte	0xbf
 1235 0830 41080000 		.4byte	0x841
 1236 0834 0B       		.uleb128 0xb
 1237 0835 7C050000 		.4byte	.LASF115
 1238 0839 07       		.byte	0x7
 1239 083a C0       		.byte	0xc0
 1240 083b B4000000 		.4byte	0xb4
 1241 083f 00       		.byte	0
 1242 0840 00       		.byte	0
 1243 0841 0C       		.uleb128 0xc
 1244 0842 04       		.byte	0x4
 1245 0843 07       		.byte	0x7
 1246 0844 C2       		.byte	0xc2
 1247 0845 62080000 		.4byte	0x862
 1248 0849 0B       		.uleb128 0xb
 1249 084a 37010000 		.4byte	.LASF103
 1250 084e 07       		.byte	0x7
 1251 084f C3       		.byte	0xc3
 1252 0850 9E000000 		.4byte	0x9e
 1253 0854 00       		.byte	0
 1254 0855 0B       		.uleb128 0xb
ARM GAS  /tmp/ccR8yuzq.s 			page 23


 1255 0856 4B000000 		.4byte	.LASF116
 1256 085a 07       		.byte	0x7
 1257 085b C4       		.byte	0xc4
 1258 085c 9E000000 		.4byte	0x9e
 1259 0860 02       		.byte	0x2
 1260 0861 00       		.byte	0
 1261 0862 1C       		.uleb128 0x1c
 1262 0863 04       		.byte	0x4
 1263 0864 07       		.byte	0x7
 1264 0865 BE       		.byte	0xbe
 1265 0866 75080000 		.4byte	0x875
 1266 086a 1F       		.uleb128 0x1f
 1267 086b 2C080000 		.4byte	0x82c
 1268 086f 1F       		.uleb128 0x1f
 1269 0870 41080000 		.4byte	0x841
 1270 0874 00       		.byte	0
 1271 0875 0C       		.uleb128 0xc
 1272 0876 0C       		.byte	0xc
 1273 0877 07       		.byte	0x7
 1274 0878 D1       		.byte	0xd1
 1275 0879 A2080000 		.4byte	0x8a2
 1276 087d 0B       		.uleb128 0xb
 1277 087e BC000000 		.4byte	.LASF117
 1278 0882 07       		.byte	0x7
 1279 0883 D5       		.byte	0xd5
 1280 0884 B4000000 		.4byte	0xb4
 1281 0888 00       		.byte	0
 1282 0889 0B       		.uleb128 0xb
 1283 088a 71050000 		.4byte	.LASF118
 1284 088e 07       		.byte	0x7
 1285 088f D9       		.byte	0xd9
 1286 0890 B4000000 		.4byte	0xb4
 1287 0894 04       		.byte	0x4
 1288 0895 0B       		.uleb128 0xb
 1289 0896 E9020000 		.4byte	.LASF119
 1290 089a 07       		.byte	0x7
 1291 089b DD       		.byte	0xdd
 1292 089c B4000000 		.4byte	0xb4
 1293 08a0 08       		.byte	0x8
 1294 08a1 00       		.byte	0
 1295 08a2 04       		.uleb128 0x4
 1296 08a3 65050000 		.4byte	.LASF120
 1297 08a7 07       		.byte	0x7
 1298 08a8 DE       		.byte	0xde
 1299 08a9 75080000 		.4byte	0x875
 1300 08ad 0E       		.uleb128 0xe
 1301 08ae 76060000 		.4byte	0x676
 1302 08b2 BD080000 		.4byte	0x8bd
 1303 08b6 0F       		.uleb128 0xf
 1304 08b7 E3000000 		.4byte	0xe3
 1305 08bb 02       		.byte	0x2
 1306 08bc 00       		.byte	0
 1307 08bd 0E       		.uleb128 0xe
 1308 08be 76060000 		.4byte	0x676
 1309 08c2 CD080000 		.4byte	0x8cd
 1310 08c6 0F       		.uleb128 0xf
 1311 08c7 E3000000 		.4byte	0xe3
ARM GAS  /tmp/ccR8yuzq.s 			page 24


 1312 08cb 0D       		.byte	0xd
 1313 08cc 00       		.byte	0
 1314 08cd 07       		.uleb128 0x7
 1315 08ce 04       		.byte	0x4
 1316 08cf D3080000 		.4byte	0x8d3
 1317 08d3 0D       		.uleb128 0xd
 1318 08d4 A2080000 		.4byte	0x8a2
 1319 08d8 07       		.uleb128 0x7
 1320 08d9 04       		.byte	0x4
 1321 08da C2050000 		.4byte	0x5c2
 1322 08de 07       		.uleb128 0x7
 1323 08df 04       		.byte	0x4
 1324 08e0 35040000 		.4byte	0x435
 1325 08e4 20       		.uleb128 0x20
 1326 08e5 99020000 		.4byte	.LASF121
 1327 08e9 01       		.byte	0x1
 1328 08ea 16       		.byte	0x16
 1329 08eb 93000000 		.4byte	0x93
 1330 08ef 00000000 		.4byte	.LFB118
 1331 08f3 38000000 		.4byte	.LFE118-.LFB118
 1332 08f7 01       		.uleb128 0x1
 1333 08f8 9C       		.byte	0x9c
 1334 08f9 1A090000 		.4byte	0x91a
 1335 08fd 21       		.uleb128 0x21
 1336 08fe 5A020000 		.4byte	.LASF123
 1337 0902 01       		.byte	0x1
 1338 0903 16       		.byte	0x16
 1339 0904 76060000 		.4byte	0x676
 1340 0908 02       		.uleb128 0x2
 1341 0909 91       		.byte	0x91
 1342 090a 74       		.sleb128 -12
 1343 090b 22       		.uleb128 0x22
 1344 090c CA040000 		.4byte	.LASF125
 1345 0910 01       		.byte	0x1
 1346 0911 17       		.byte	0x17
 1347 0912 A9000000 		.4byte	0xa9
 1348 0916 02       		.uleb128 0x2
 1349 0917 91       		.byte	0x91
 1350 0918 7C       		.sleb128 -4
 1351 0919 00       		.byte	0
 1352 091a 23       		.uleb128 0x23
 1353 091b 10010000 		.4byte	.LASF122
 1354 091f 01       		.byte	0x1
 1355 0920 28       		.byte	0x28
 1356 0921 BF000000 		.4byte	0xbf
 1357 0925 38000000 		.4byte	.LFB119
 1358 0929 02010000 		.4byte	.LFE119-.LFB119
 1359 092d 01       		.uleb128 0x1
 1360 092e 9C       		.byte	0x9c
 1361 092f 5E090000 		.4byte	0x95e
 1362 0933 21       		.uleb128 0x21
 1363 0934 1B000000 		.4byte	.LASF124
 1364 0938 01       		.byte	0x1
 1365 0939 28       		.byte	0x28
 1366 093a 5E090000 		.4byte	0x95e
 1367 093e 02       		.uleb128 0x2
 1368 093f 91       		.byte	0x91
ARM GAS  /tmp/ccR8yuzq.s 			page 25


 1369 0940 5C       		.sleb128 -36
 1370 0941 22       		.uleb128 0x22
 1371 0942 5A020000 		.4byte	.LASF123
 1372 0946 01       		.byte	0x1
 1373 0947 29       		.byte	0x29
 1374 0948 76060000 		.4byte	0x676
 1375 094c 02       		.uleb128 0x2
 1376 094d 91       		.byte	0x91
 1377 094e 74       		.sleb128 -12
 1378 094f 22       		.uleb128 0x22
 1379 0950 77050000 		.4byte	.LASF126
 1380 0954 01       		.byte	0x1
 1381 0955 2A       		.byte	0x2a
 1382 0956 21080000 		.4byte	0x821
 1383 095a 02       		.uleb128 0x2
 1384 095b 91       		.byte	0x91
 1385 095c 64       		.sleb128 -28
 1386 095d 00       		.byte	0
 1387 095e 07       		.uleb128 0x7
 1388 095f 04       		.byte	0x4
 1389 0960 23070000 		.4byte	0x723
 1390 0964 24       		.uleb128 0x24
 1391 0965 2C000000 		.4byte	.LASF127
 1392 0969 05       		.byte	0x5
 1393 096a F5       		.byte	0xf5
 1394 096b 9E010000 		.4byte	0x19e
 1395 096f 25       		.uleb128 0x25
 1396 0970 80030000 		.4byte	.LASF128
 1397 0974 09       		.byte	0x9
 1398 0975 9806     		.2byte	0x698
 1399 0977 E6010000 		.4byte	0x1e6
 1400 097b 00       		.byte	0
 1401              		.section	.debug_abbrev,"",%progbits
 1402              	.Ldebug_abbrev0:
 1403 0000 01       		.uleb128 0x1
 1404 0001 11       		.uleb128 0x11
 1405 0002 01       		.byte	0x1
 1406 0003 25       		.uleb128 0x25
 1407 0004 0E       		.uleb128 0xe
 1408 0005 13       		.uleb128 0x13
 1409 0006 0B       		.uleb128 0xb
 1410 0007 03       		.uleb128 0x3
 1411 0008 0E       		.uleb128 0xe
 1412 0009 11       		.uleb128 0x11
 1413 000a 01       		.uleb128 0x1
 1414 000b 12       		.uleb128 0x12
 1415 000c 06       		.uleb128 0x6
 1416 000d 10       		.uleb128 0x10
 1417 000e 17       		.uleb128 0x17
 1418 000f 00       		.byte	0
 1419 0010 00       		.byte	0
 1420 0011 02       		.uleb128 0x2
 1421 0012 24       		.uleb128 0x24
 1422 0013 00       		.byte	0
 1423 0014 0B       		.uleb128 0xb
 1424 0015 0B       		.uleb128 0xb
 1425 0016 3E       		.uleb128 0x3e
ARM GAS  /tmp/ccR8yuzq.s 			page 26


 1426 0017 0B       		.uleb128 0xb
 1427 0018 03       		.uleb128 0x3
 1428 0019 08       		.uleb128 0x8
 1429 001a 00       		.byte	0
 1430 001b 00       		.byte	0
 1431 001c 03       		.uleb128 0x3
 1432 001d 24       		.uleb128 0x24
 1433 001e 00       		.byte	0
 1434 001f 0B       		.uleb128 0xb
 1435 0020 0B       		.uleb128 0xb
 1436 0021 3E       		.uleb128 0x3e
 1437 0022 0B       		.uleb128 0xb
 1438 0023 03       		.uleb128 0x3
 1439 0024 0E       		.uleb128 0xe
 1440 0025 00       		.byte	0
 1441 0026 00       		.byte	0
 1442 0027 04       		.uleb128 0x4
 1443 0028 16       		.uleb128 0x16
 1444 0029 00       		.byte	0
 1445 002a 03       		.uleb128 0x3
 1446 002b 0E       		.uleb128 0xe
 1447 002c 3A       		.uleb128 0x3a
 1448 002d 0B       		.uleb128 0xb
 1449 002e 3B       		.uleb128 0x3b
 1450 002f 0B       		.uleb128 0xb
 1451 0030 49       		.uleb128 0x49
 1452 0031 13       		.uleb128 0x13
 1453 0032 00       		.byte	0
 1454 0033 00       		.byte	0
 1455 0034 05       		.uleb128 0x5
 1456 0035 0F       		.uleb128 0xf
 1457 0036 00       		.byte	0
 1458 0037 0B       		.uleb128 0xb
 1459 0038 0B       		.uleb128 0xb
 1460 0039 00       		.byte	0
 1461 003a 00       		.byte	0
 1462 003b 06       		.uleb128 0x6
 1463 003c 35       		.uleb128 0x35
 1464 003d 00       		.byte	0
 1465 003e 49       		.uleb128 0x49
 1466 003f 13       		.uleb128 0x13
 1467 0040 00       		.byte	0
 1468 0041 00       		.byte	0
 1469 0042 07       		.uleb128 0x7
 1470 0043 0F       		.uleb128 0xf
 1471 0044 00       		.byte	0
 1472 0045 0B       		.uleb128 0xb
 1473 0046 0B       		.uleb128 0xb
 1474 0047 49       		.uleb128 0x49
 1475 0048 13       		.uleb128 0x13
 1476 0049 00       		.byte	0
 1477 004a 00       		.byte	0
 1478 004b 08       		.uleb128 0x8
 1479 004c 15       		.uleb128 0x15
 1480 004d 01       		.byte	0x1
 1481 004e 27       		.uleb128 0x27
 1482 004f 19       		.uleb128 0x19
ARM GAS  /tmp/ccR8yuzq.s 			page 27


 1483 0050 01       		.uleb128 0x1
 1484 0051 13       		.uleb128 0x13
 1485 0052 00       		.byte	0
 1486 0053 00       		.byte	0
 1487 0054 09       		.uleb128 0x9
 1488 0055 05       		.uleb128 0x5
 1489 0056 00       		.byte	0
 1490 0057 49       		.uleb128 0x49
 1491 0058 13       		.uleb128 0x13
 1492 0059 00       		.byte	0
 1493 005a 00       		.byte	0
 1494 005b 0A       		.uleb128 0xa
 1495 005c 13       		.uleb128 0x13
 1496 005d 01       		.byte	0x1
 1497 005e 03       		.uleb128 0x3
 1498 005f 0E       		.uleb128 0xe
 1499 0060 0B       		.uleb128 0xb
 1500 0061 0B       		.uleb128 0xb
 1501 0062 3A       		.uleb128 0x3a
 1502 0063 0B       		.uleb128 0xb
 1503 0064 3B       		.uleb128 0x3b
 1504 0065 0B       		.uleb128 0xb
 1505 0066 01       		.uleb128 0x1
 1506 0067 13       		.uleb128 0x13
 1507 0068 00       		.byte	0
 1508 0069 00       		.byte	0
 1509 006a 0B       		.uleb128 0xb
 1510 006b 0D       		.uleb128 0xd
 1511 006c 00       		.byte	0
 1512 006d 03       		.uleb128 0x3
 1513 006e 0E       		.uleb128 0xe
 1514 006f 3A       		.uleb128 0x3a
 1515 0070 0B       		.uleb128 0xb
 1516 0071 3B       		.uleb128 0x3b
 1517 0072 0B       		.uleb128 0xb
 1518 0073 49       		.uleb128 0x49
 1519 0074 13       		.uleb128 0x13
 1520 0075 38       		.uleb128 0x38
 1521 0076 0B       		.uleb128 0xb
 1522 0077 00       		.byte	0
 1523 0078 00       		.byte	0
 1524 0079 0C       		.uleb128 0xc
 1525 007a 13       		.uleb128 0x13
 1526 007b 01       		.byte	0x1
 1527 007c 0B       		.uleb128 0xb
 1528 007d 0B       		.uleb128 0xb
 1529 007e 3A       		.uleb128 0x3a
 1530 007f 0B       		.uleb128 0xb
 1531 0080 3B       		.uleb128 0x3b
 1532 0081 0B       		.uleb128 0xb
 1533 0082 01       		.uleb128 0x1
 1534 0083 13       		.uleb128 0x13
 1535 0084 00       		.byte	0
 1536 0085 00       		.byte	0
 1537 0086 0D       		.uleb128 0xd
 1538 0087 26       		.uleb128 0x26
 1539 0088 00       		.byte	0
ARM GAS  /tmp/ccR8yuzq.s 			page 28


 1540 0089 49       		.uleb128 0x49
 1541 008a 13       		.uleb128 0x13
 1542 008b 00       		.byte	0
 1543 008c 00       		.byte	0
 1544 008d 0E       		.uleb128 0xe
 1545 008e 01       		.uleb128 0x1
 1546 008f 01       		.byte	0x1
 1547 0090 49       		.uleb128 0x49
 1548 0091 13       		.uleb128 0x13
 1549 0092 01       		.uleb128 0x1
 1550 0093 13       		.uleb128 0x13
 1551 0094 00       		.byte	0
 1552 0095 00       		.byte	0
 1553 0096 0F       		.uleb128 0xf
 1554 0097 21       		.uleb128 0x21
 1555 0098 00       		.byte	0
 1556 0099 49       		.uleb128 0x49
 1557 009a 13       		.uleb128 0x13
 1558 009b 2F       		.uleb128 0x2f
 1559 009c 0B       		.uleb128 0xb
 1560 009d 00       		.byte	0
 1561 009e 00       		.byte	0
 1562 009f 10       		.uleb128 0x10
 1563 00a0 13       		.uleb128 0x13
 1564 00a1 01       		.byte	0x1
 1565 00a2 0B       		.uleb128 0xb
 1566 00a3 0B       		.uleb128 0xb
 1567 00a4 3A       		.uleb128 0x3a
 1568 00a5 0B       		.uleb128 0xb
 1569 00a6 3B       		.uleb128 0x3b
 1570 00a7 05       		.uleb128 0x5
 1571 00a8 01       		.uleb128 0x1
 1572 00a9 13       		.uleb128 0x13
 1573 00aa 00       		.byte	0
 1574 00ab 00       		.byte	0
 1575 00ac 11       		.uleb128 0x11
 1576 00ad 0D       		.uleb128 0xd
 1577 00ae 00       		.byte	0
 1578 00af 03       		.uleb128 0x3
 1579 00b0 08       		.uleb128 0x8
 1580 00b1 3A       		.uleb128 0x3a
 1581 00b2 0B       		.uleb128 0xb
 1582 00b3 3B       		.uleb128 0x3b
 1583 00b4 05       		.uleb128 0x5
 1584 00b5 49       		.uleb128 0x49
 1585 00b6 13       		.uleb128 0x13
 1586 00b7 38       		.uleb128 0x38
 1587 00b8 0B       		.uleb128 0xb
 1588 00b9 00       		.byte	0
 1589 00ba 00       		.byte	0
 1590 00bb 12       		.uleb128 0x12
 1591 00bc 0D       		.uleb128 0xd
 1592 00bd 00       		.byte	0
 1593 00be 03       		.uleb128 0x3
 1594 00bf 0E       		.uleb128 0xe
 1595 00c0 3A       		.uleb128 0x3a
 1596 00c1 0B       		.uleb128 0xb
ARM GAS  /tmp/ccR8yuzq.s 			page 29


 1597 00c2 3B       		.uleb128 0x3b
 1598 00c3 05       		.uleb128 0x5
 1599 00c4 49       		.uleb128 0x49
 1600 00c5 13       		.uleb128 0x13
 1601 00c6 38       		.uleb128 0x38
 1602 00c7 0B       		.uleb128 0xb
 1603 00c8 00       		.byte	0
 1604 00c9 00       		.byte	0
 1605 00ca 13       		.uleb128 0x13
 1606 00cb 16       		.uleb128 0x16
 1607 00cc 00       		.byte	0
 1608 00cd 03       		.uleb128 0x3
 1609 00ce 0E       		.uleb128 0xe
 1610 00cf 3A       		.uleb128 0x3a
 1611 00d0 0B       		.uleb128 0xb
 1612 00d1 3B       		.uleb128 0x3b
 1613 00d2 05       		.uleb128 0x5
 1614 00d3 49       		.uleb128 0x49
 1615 00d4 13       		.uleb128 0x13
 1616 00d5 00       		.byte	0
 1617 00d6 00       		.byte	0
 1618 00d7 14       		.uleb128 0x14
 1619 00d8 13       		.uleb128 0x13
 1620 00d9 01       		.byte	0x1
 1621 00da 0B       		.uleb128 0xb
 1622 00db 05       		.uleb128 0x5
 1623 00dc 3A       		.uleb128 0x3a
 1624 00dd 0B       		.uleb128 0xb
 1625 00de 3B       		.uleb128 0x3b
 1626 00df 05       		.uleb128 0x5
 1627 00e0 01       		.uleb128 0x1
 1628 00e1 13       		.uleb128 0x13
 1629 00e2 00       		.byte	0
 1630 00e3 00       		.byte	0
 1631 00e4 15       		.uleb128 0x15
 1632 00e5 0D       		.uleb128 0xd
 1633 00e6 00       		.byte	0
 1634 00e7 03       		.uleb128 0x3
 1635 00e8 0E       		.uleb128 0xe
 1636 00e9 3A       		.uleb128 0x3a
 1637 00ea 0B       		.uleb128 0xb
 1638 00eb 3B       		.uleb128 0x3b
 1639 00ec 05       		.uleb128 0x5
 1640 00ed 49       		.uleb128 0x49
 1641 00ee 13       		.uleb128 0x13
 1642 00ef 38       		.uleb128 0x38
 1643 00f0 05       		.uleb128 0x5
 1644 00f1 00       		.byte	0
 1645 00f2 00       		.byte	0
 1646 00f3 16       		.uleb128 0x16
 1647 00f4 0D       		.uleb128 0xd
 1648 00f5 00       		.byte	0
 1649 00f6 03       		.uleb128 0x3
 1650 00f7 08       		.uleb128 0x8
 1651 00f8 3A       		.uleb128 0x3a
 1652 00f9 0B       		.uleb128 0xb
 1653 00fa 3B       		.uleb128 0x3b
ARM GAS  /tmp/ccR8yuzq.s 			page 30


 1654 00fb 05       		.uleb128 0x5
 1655 00fc 49       		.uleb128 0x49
 1656 00fd 13       		.uleb128 0x13
 1657 00fe 38       		.uleb128 0x38
 1658 00ff 05       		.uleb128 0x5
 1659 0100 00       		.byte	0
 1660 0101 00       		.byte	0
 1661 0102 17       		.uleb128 0x17
 1662 0103 0D       		.uleb128 0xd
 1663 0104 00       		.byte	0
 1664 0105 49       		.uleb128 0x49
 1665 0106 13       		.uleb128 0x13
 1666 0107 38       		.uleb128 0x38
 1667 0108 0B       		.uleb128 0xb
 1668 0109 00       		.byte	0
 1669 010a 00       		.byte	0
 1670 010b 18       		.uleb128 0x18
 1671 010c 0D       		.uleb128 0xd
 1672 010d 00       		.byte	0
 1673 010e 03       		.uleb128 0x3
 1674 010f 08       		.uleb128 0x8
 1675 0110 3A       		.uleb128 0x3a
 1676 0111 0B       		.uleb128 0xb
 1677 0112 3B       		.uleb128 0x3b
 1678 0113 0B       		.uleb128 0xb
 1679 0114 49       		.uleb128 0x49
 1680 0115 13       		.uleb128 0x13
 1681 0116 38       		.uleb128 0x38
 1682 0117 0B       		.uleb128 0xb
 1683 0118 00       		.byte	0
 1684 0119 00       		.byte	0
 1685 011a 19       		.uleb128 0x19
 1686 011b 0D       		.uleb128 0xd
 1687 011c 00       		.byte	0
 1688 011d 03       		.uleb128 0x3
 1689 011e 0E       		.uleb128 0xe
 1690 011f 3A       		.uleb128 0x3a
 1691 0120 0B       		.uleb128 0xb
 1692 0121 3B       		.uleb128 0x3b
 1693 0122 0B       		.uleb128 0xb
 1694 0123 49       		.uleb128 0x49
 1695 0124 13       		.uleb128 0x13
 1696 0125 0B       		.uleb128 0xb
 1697 0126 0B       		.uleb128 0xb
 1698 0127 0D       		.uleb128 0xd
 1699 0128 0B       		.uleb128 0xb
 1700 0129 0C       		.uleb128 0xc
 1701 012a 0B       		.uleb128 0xb
 1702 012b 38       		.uleb128 0x38
 1703 012c 0B       		.uleb128 0xb
 1704 012d 00       		.byte	0
 1705 012e 00       		.byte	0
 1706 012f 1A       		.uleb128 0x1a
 1707 0130 04       		.uleb128 0x4
 1708 0131 01       		.byte	0x1
 1709 0132 0B       		.uleb128 0xb
 1710 0133 0B       		.uleb128 0xb
ARM GAS  /tmp/ccR8yuzq.s 			page 31


 1711 0134 3A       		.uleb128 0x3a
 1712 0135 0B       		.uleb128 0xb
 1713 0136 3B       		.uleb128 0x3b
 1714 0137 0B       		.uleb128 0xb
 1715 0138 01       		.uleb128 0x1
 1716 0139 13       		.uleb128 0x13
 1717 013a 00       		.byte	0
 1718 013b 00       		.byte	0
 1719 013c 1B       		.uleb128 0x1b
 1720 013d 28       		.uleb128 0x28
 1721 013e 00       		.byte	0
 1722 013f 03       		.uleb128 0x3
 1723 0140 0E       		.uleb128 0xe
 1724 0141 1C       		.uleb128 0x1c
 1725 0142 0D       		.uleb128 0xd
 1726 0143 00       		.byte	0
 1727 0144 00       		.byte	0
 1728 0145 1C       		.uleb128 0x1c
 1729 0146 17       		.uleb128 0x17
 1730 0147 01       		.byte	0x1
 1731 0148 0B       		.uleb128 0xb
 1732 0149 0B       		.uleb128 0xb
 1733 014a 3A       		.uleb128 0x3a
 1734 014b 0B       		.uleb128 0xb
 1735 014c 3B       		.uleb128 0x3b
 1736 014d 0B       		.uleb128 0xb
 1737 014e 01       		.uleb128 0x1
 1738 014f 13       		.uleb128 0x13
 1739 0150 00       		.byte	0
 1740 0151 00       		.byte	0
 1741 0152 1D       		.uleb128 0x1d
 1742 0153 0D       		.uleb128 0xd
 1743 0154 00       		.byte	0
 1744 0155 03       		.uleb128 0x3
 1745 0156 0E       		.uleb128 0xe
 1746 0157 3A       		.uleb128 0x3a
 1747 0158 0B       		.uleb128 0xb
 1748 0159 3B       		.uleb128 0x3b
 1749 015a 0B       		.uleb128 0xb
 1750 015b 49       		.uleb128 0x49
 1751 015c 13       		.uleb128 0x13
 1752 015d 00       		.byte	0
 1753 015e 00       		.byte	0
 1754 015f 1E       		.uleb128 0x1e
 1755 0160 0D       		.uleb128 0xd
 1756 0161 00       		.byte	0
 1757 0162 03       		.uleb128 0x3
 1758 0163 08       		.uleb128 0x8
 1759 0164 3A       		.uleb128 0x3a
 1760 0165 0B       		.uleb128 0xb
 1761 0166 3B       		.uleb128 0x3b
 1762 0167 0B       		.uleb128 0xb
 1763 0168 49       		.uleb128 0x49
 1764 0169 13       		.uleb128 0x13
 1765 016a 0B       		.uleb128 0xb
 1766 016b 0B       		.uleb128 0xb
 1767 016c 0D       		.uleb128 0xd
ARM GAS  /tmp/ccR8yuzq.s 			page 32


 1768 016d 0B       		.uleb128 0xb
 1769 016e 0C       		.uleb128 0xc
 1770 016f 0B       		.uleb128 0xb
 1771 0170 38       		.uleb128 0x38
 1772 0171 0B       		.uleb128 0xb
 1773 0172 00       		.byte	0
 1774 0173 00       		.byte	0
 1775 0174 1F       		.uleb128 0x1f
 1776 0175 0D       		.uleb128 0xd
 1777 0176 00       		.byte	0
 1778 0177 49       		.uleb128 0x49
 1779 0178 13       		.uleb128 0x13
 1780 0179 00       		.byte	0
 1781 017a 00       		.byte	0
 1782 017b 20       		.uleb128 0x20
 1783 017c 2E       		.uleb128 0x2e
 1784 017d 01       		.byte	0x1
 1785 017e 3F       		.uleb128 0x3f
 1786 017f 19       		.uleb128 0x19
 1787 0180 03       		.uleb128 0x3
 1788 0181 0E       		.uleb128 0xe
 1789 0182 3A       		.uleb128 0x3a
 1790 0183 0B       		.uleb128 0xb
 1791 0184 3B       		.uleb128 0x3b
 1792 0185 0B       		.uleb128 0xb
 1793 0186 27       		.uleb128 0x27
 1794 0187 19       		.uleb128 0x19
 1795 0188 49       		.uleb128 0x49
 1796 0189 13       		.uleb128 0x13
 1797 018a 11       		.uleb128 0x11
 1798 018b 01       		.uleb128 0x1
 1799 018c 12       		.uleb128 0x12
 1800 018d 06       		.uleb128 0x6
 1801 018e 40       		.uleb128 0x40
 1802 018f 18       		.uleb128 0x18
 1803 0190 9742     		.uleb128 0x2117
 1804 0192 19       		.uleb128 0x19
 1805 0193 01       		.uleb128 0x1
 1806 0194 13       		.uleb128 0x13
 1807 0195 00       		.byte	0
 1808 0196 00       		.byte	0
 1809 0197 21       		.uleb128 0x21
 1810 0198 05       		.uleb128 0x5
 1811 0199 00       		.byte	0
 1812 019a 03       		.uleb128 0x3
 1813 019b 0E       		.uleb128 0xe
 1814 019c 3A       		.uleb128 0x3a
 1815 019d 0B       		.uleb128 0xb
 1816 019e 3B       		.uleb128 0x3b
 1817 019f 0B       		.uleb128 0xb
 1818 01a0 49       		.uleb128 0x49
 1819 01a1 13       		.uleb128 0x13
 1820 01a2 02       		.uleb128 0x2
 1821 01a3 18       		.uleb128 0x18
 1822 01a4 00       		.byte	0
 1823 01a5 00       		.byte	0
 1824 01a6 22       		.uleb128 0x22
ARM GAS  /tmp/ccR8yuzq.s 			page 33


 1825 01a7 34       		.uleb128 0x34
 1826 01a8 00       		.byte	0
 1827 01a9 03       		.uleb128 0x3
 1828 01aa 0E       		.uleb128 0xe
 1829 01ab 3A       		.uleb128 0x3a
 1830 01ac 0B       		.uleb128 0xb
 1831 01ad 3B       		.uleb128 0x3b
 1832 01ae 0B       		.uleb128 0xb
 1833 01af 49       		.uleb128 0x49
 1834 01b0 13       		.uleb128 0x13
 1835 01b1 02       		.uleb128 0x2
 1836 01b2 18       		.uleb128 0x18
 1837 01b3 00       		.byte	0
 1838 01b4 00       		.byte	0
 1839 01b5 23       		.uleb128 0x23
 1840 01b6 2E       		.uleb128 0x2e
 1841 01b7 01       		.byte	0x1
 1842 01b8 3F       		.uleb128 0x3f
 1843 01b9 19       		.uleb128 0x19
 1844 01ba 03       		.uleb128 0x3
 1845 01bb 0E       		.uleb128 0xe
 1846 01bc 3A       		.uleb128 0x3a
 1847 01bd 0B       		.uleb128 0xb
 1848 01be 3B       		.uleb128 0x3b
 1849 01bf 0B       		.uleb128 0xb
 1850 01c0 27       		.uleb128 0x27
 1851 01c1 19       		.uleb128 0x19
 1852 01c2 49       		.uleb128 0x49
 1853 01c3 13       		.uleb128 0x13
 1854 01c4 11       		.uleb128 0x11
 1855 01c5 01       		.uleb128 0x1
 1856 01c6 12       		.uleb128 0x12
 1857 01c7 06       		.uleb128 0x6
 1858 01c8 40       		.uleb128 0x40
 1859 01c9 18       		.uleb128 0x18
 1860 01ca 9642     		.uleb128 0x2116
 1861 01cc 19       		.uleb128 0x19
 1862 01cd 01       		.uleb128 0x1
 1863 01ce 13       		.uleb128 0x13
 1864 01cf 00       		.byte	0
 1865 01d0 00       		.byte	0
 1866 01d1 24       		.uleb128 0x24
 1867 01d2 34       		.uleb128 0x34
 1868 01d3 00       		.byte	0
 1869 01d4 03       		.uleb128 0x3
 1870 01d5 0E       		.uleb128 0xe
 1871 01d6 3A       		.uleb128 0x3a
 1872 01d7 0B       		.uleb128 0xb
 1873 01d8 3B       		.uleb128 0x3b
 1874 01d9 0B       		.uleb128 0xb
 1875 01da 49       		.uleb128 0x49
 1876 01db 13       		.uleb128 0x13
 1877 01dc 3F       		.uleb128 0x3f
 1878 01dd 19       		.uleb128 0x19
 1879 01de 3C       		.uleb128 0x3c
 1880 01df 19       		.uleb128 0x19
 1881 01e0 00       		.byte	0
ARM GAS  /tmp/ccR8yuzq.s 			page 34


 1882 01e1 00       		.byte	0
 1883 01e2 25       		.uleb128 0x25
 1884 01e3 34       		.uleb128 0x34
 1885 01e4 00       		.byte	0
 1886 01e5 03       		.uleb128 0x3
 1887 01e6 0E       		.uleb128 0xe
 1888 01e7 3A       		.uleb128 0x3a
 1889 01e8 0B       		.uleb128 0xb
 1890 01e9 3B       		.uleb128 0x3b
 1891 01ea 05       		.uleb128 0x5
 1892 01eb 49       		.uleb128 0x49
 1893 01ec 13       		.uleb128 0x13
 1894 01ed 3F       		.uleb128 0x3f
 1895 01ee 19       		.uleb128 0x19
 1896 01ef 3C       		.uleb128 0x3c
 1897 01f0 19       		.uleb128 0x19
 1898 01f1 00       		.byte	0
 1899 01f2 00       		.byte	0
 1900 01f3 00       		.byte	0
 1901              		.section	.debug_aranges,"",%progbits
 1902 0000 1C000000 		.4byte	0x1c
 1903 0004 0200     		.2byte	0x2
 1904 0006 00000000 		.4byte	.Ldebug_info0
 1905 000a 04       		.byte	0x4
 1906 000b 00       		.byte	0
 1907 000c 0000     		.2byte	0
 1908 000e 0000     		.2byte	0
 1909 0010 00000000 		.4byte	.Ltext0
 1910 0014 3A010000 		.4byte	.Letext0-.Ltext0
 1911 0018 00000000 		.4byte	0
 1912 001c 00000000 		.4byte	0
 1913              		.section	.debug_line,"",%progbits
 1914              	.Ldebug_line0:
 1915 0000 5B020000 		.section	.debug_str,"MS",%progbits,1
 1915      02001F02 
 1915      00000201 
 1915      FB0E0D00 
 1915      01010101 
 1916              	.LASF57:
 1917 0000 44494552 		.ascii	"DIER\000"
 1917      00
 1918              	.LASF43:
 1919 0005 7354784D 		.ascii	"sTxMailBox\000"
 1919      61696C42 
 1919      6F7800
 1920              	.LASF84:
 1921 0010 52544341 		.ascii	"RTCAN_STOP\000"
 1921      4E5F5354 
 1921      4F5000
 1922              	.LASF124:
 1923 001b 72746361 		.ascii	"rtcanp\000"
 1923      6E7000
 1924              	.LASF4:
 1925 0022 5F5F7569 		.ascii	"__uint8_t\000"
 1925      6E74385F 
 1925      7400
 1926              	.LASF127:
ARM GAS  /tmp/ccR8yuzq.s 			page 35


 1927 002c 76746C69 		.ascii	"vtlist\000"
 1927      737400
 1928              	.LASF55:
 1929 0033 43414E5F 		.ascii	"CAN_TypeDef\000"
 1929      54797065 
 1929      44656600 
 1930              	.LASF74:
 1931 003f 54494D5F 		.ascii	"TIM_TypeDef\000"
 1931      54797065 
 1931      44656600 
 1932              	.LASF116:
 1933 004b 70657269 		.ascii	"period\000"
 1933      6F6400
 1934              	.LASF63:
 1935 0052 43435231 		.ascii	"CCR1\000"
 1935      00
 1936              	.LASF12:
 1937 0057 6C6F6E67 		.ascii	"long long unsigned int\000"
 1937      206C6F6E 
 1937      6720756E 
 1937      7369676E 
 1937      65642069 
 1938              	.LASF101:
 1939 006e 52544341 		.ascii	"RTCANDriver\000"
 1939      4E447269 
 1939      76657200 
 1940              	.LASF111:
 1941 007a 64617461 		.ascii	"data32\000"
 1941      333200
 1942              	.LASF76:
 1943 0081 6E657874 		.ascii	"next\000"
 1943      00
 1944              	.LASF58:
 1945 0086 43434D52 		.ascii	"CCMR1\000"
 1945      3100
 1946              	.LASF59:
 1947 008c 43434D52 		.ascii	"CCMR2\000"
 1947      3200
 1948              	.LASF71:
 1949 0092 43434D52 		.ascii	"CCMR3\000"
 1949      3300
 1950              	.LASF1:
 1951 0098 7369676E 		.ascii	"signed char\000"
 1951      65642063 
 1951      68617200 
 1952              	.LASF91:
 1953 00a4 52544341 		.ascii	"RTCAN_MSG_UNINIT\000"
 1953      4E5F4D53 
 1953      475F554E 
 1953      494E4954 
 1953      00
 1954              	.LASF17:
 1955 00b5 626F6F6C 		.ascii	"bool_t\000"
 1955      5F7400
 1956              	.LASF117:
 1957 00bc 62617564 		.ascii	"baudrate\000"
 1957      72617465 
ARM GAS  /tmp/ccR8yuzq.s 			page 36


 1957      00
 1958              	.LASF62:
 1959 00c5 52455345 		.ascii	"RESERVED10\000"
 1959      52564544 
 1959      313000
 1960              	.LASF68:
 1961 00d0 52455345 		.ascii	"RESERVED12\000"
 1961      52564544 
 1961      313200
 1962              	.LASF70:
 1963 00db 52455345 		.ascii	"RESERVED13\000"
 1963      52564544 
 1963      313300
 1964              	.LASF102:
 1965 00e6 73746174 		.ascii	"state\000"
 1965      6500
 1966              	.LASF32:
 1967 00ec 54444C52 		.ascii	"TDLR\000"
 1967      00
 1968              	.LASF8:
 1969 00f1 6C6F6E67 		.ascii	"long int\000"
 1969      20696E74 
 1969      00
 1970              	.LASF34:
 1971 00fa 43414E5F 		.ascii	"CAN_TxMailBox_TypeDef\000"
 1971      54784D61 
 1971      696C426F 
 1971      785F5479 
 1971      70654465 
 1972              	.LASF122:
 1973 0110 7372745F 		.ascii	"srt_transmit\000"
 1973      7472616E 
 1973      736D6974 
 1973      00
 1974              	.LASF60:
 1975 011d 43434552 		.ascii	"CCER\000"
 1975      00
 1976              	.LASF11:
 1977 0122 6C6F6E67 		.ascii	"long long int\000"
 1977      206C6F6E 
 1977      6720696E 
 1977      7400
 1978              	.LASF79:
 1979 0130 70617261 		.ascii	"params\000"
 1979      6D7300
 1980              	.LASF103:
 1981 0137 736C6F74 		.ascii	"slot\000"
 1981      00
 1982              	.LASF40:
 1983 013c 52463052 		.ascii	"RF0R\000"
 1983      00
 1984              	.LASF5:
 1985 0141 5F5F7569 		.ascii	"__uint16_t\000"
 1985      6E743136 
 1985      5F7400
 1986              	.LASF9:
 1987 014c 5F5F7569 		.ascii	"__uint32_t\000"
ARM GAS  /tmp/ccR8yuzq.s 			page 37


 1987      6E743332 
 1987      5F7400
 1988              	.LASF24:
 1989 0157 76745F70 		.ascii	"vt_prev\000"
 1989      72657600 
 1990              	.LASF31:
 1991 015f 54445452 		.ascii	"TDTR\000"
 1991      00
 1992              	.LASF67:
 1993 0164 42445452 		.ascii	"BDTR\000"
 1993      00
 1994              	.LASF36:
 1995 0169 52444C52 		.ascii	"RDLR\000"
 1995      00
 1996              	.LASF114:
 1997 016e 72746361 		.ascii	"rtcan_txframe_t\000"
 1997      6E5F7478 
 1997      6672616D 
 1997      655F7400 
 1998              	.LASF0:
 1999 017e 756E7369 		.ascii	"unsigned int\000"
 1999      676E6564 
 1999      20696E74 
 1999      00
 2000              	.LASF23:
 2001 018b 76745F6E 		.ascii	"vt_next\000"
 2001      65787400 
 2002              	.LASF14:
 2003 0193 75696E74 		.ascii	"uint16_t\000"
 2003      31365F74 
 2003      00
 2004              	.LASF88:
 2005 019c 52544341 		.ascii	"RTCAN_SLAVE\000"
 2005      4E5F534C 
 2005      41564500 
 2006              	.LASF10:
 2007 01a8 6C6F6E67 		.ascii	"long unsigned int\000"
 2007      20756E73 
 2007      69676E65 
 2007      6420696E 
 2007      7400
 2008              	.LASF35:
 2009 01ba 52445452 		.ascii	"RDTR\000"
 2009      00
 2010              	.LASF48:
 2011 01bf 46533152 		.ascii	"FS1R\000"
 2011      00
 2012              	.LASF22:
 2013 01c4 56697274 		.ascii	"VirtualTimer\000"
 2013      75616C54 
 2013      696D6572 
 2013      00
 2014              	.LASF81:
 2015 01d1 64617461 		.ascii	"data\000"
 2015      00
 2016              	.LASF56:
 2017 01d6 534D4352 		.ascii	"SMCR\000"
ARM GAS  /tmp/ccR8yuzq.s 			page 38


 2017      00
 2018              	.LASF41:
 2019 01db 52463152 		.ascii	"RF1R\000"
 2019      00
 2020              	.LASF39:
 2021 01e0 43414E5F 		.ascii	"CAN_FilterRegister_TypeDef\000"
 2021      46696C74 
 2021      65725265 
 2021      67697374 
 2021      65725F54 
 2022              	.LASF78:
 2023 01fb 63616C6C 		.ascii	"callback\000"
 2023      6261636B 
 2023      00
 2024              	.LASF99:
 2025 0204 72746361 		.ascii	"rtcan_id_t\000"
 2025      6E5F6964 
 2025      5F7400
 2026              	.LASF130:
 2027 020f 2F6F7074 		.ascii	"/opt/R2P/core/RTCAN/src/srt.c\000"
 2027      2F523250 
 2027      2F636F72 
 2027      652F5254 
 2027      43414E2F 
 2028              	.LASF54:
 2029 022d 7346696C 		.ascii	"sFilterRegister\000"
 2029      74657252 
 2029      65676973 
 2029      74657200 
 2030              	.LASF87:
 2031 023d 52544341 		.ascii	"RTCAN_SYNCING\000"
 2031      4E5F5359 
 2031      4E43494E 
 2031      4700
 2032              	.LASF46:
 2033 024b 464D3152 		.ascii	"FM1R\000"
 2033      00
 2034              	.LASF7:
 2035 0250 5F5F696E 		.ascii	"__int32_t\000"
 2035      7433325F 
 2035      7400
 2036              	.LASF123:
 2037 025a 6D736770 		.ascii	"msgp\000"
 2037      00
 2038              	.LASF97:
 2039 025f 52544341 		.ascii	"RTCAN_MSG_ERROR\000"
 2039      4E5F4D53 
 2039      475F4552 
 2039      524F5200 
 2040              	.LASF98:
 2041 026f 72746361 		.ascii	"rtcan_msgstatus_t\000"
 2041      6E5F6D73 
 2041      67737461 
 2041      7475735F 
 2041      7400
 2042              	.LASF95:
 2043 0281 52544341 		.ascii	"RTCAN_MSG_ONAIR\000"
ARM GAS  /tmp/ccR8yuzq.s 			page 39


 2043      4E5F4D53 
 2043      475F4F4E 
 2043      41495200 
 2044              	.LASF25:
 2045 0291 76745F74 		.ascii	"vt_time\000"
 2045      696D6500 
 2046              	.LASF121:
 2047 0299 7372745F 		.ascii	"srt_laxity\000"
 2047      6C617869 
 2047      747900
 2048              	.LASF20:
 2049 02a4 73697A65 		.ascii	"sizetype\000"
 2049      74797065 
 2049      00
 2050              	.LASF85:
 2051 02ad 52544341 		.ascii	"RTCAN_STARTING\000"
 2051      4E5F5354 
 2051      41525449 
 2051      4E4700
 2052              	.LASF26:
 2053 02bc 76745F66 		.ascii	"vt_func\000"
 2053      756E6300 
 2054              	.LASF106:
 2055 02c4 6F6E6169 		.ascii	"onair\000"
 2055      7200
 2056              	.LASF83:
 2057 02ca 52544341 		.ascii	"RTCAN_UNINIT\000"
 2057      4E5F554E 
 2057      494E4954 
 2057      00
 2058              	.LASF109:
 2059 02d7 64617461 		.ascii	"data8\000"
 2059      3800
 2060              	.LASF29:
 2061 02dd 56544C69 		.ascii	"VTList\000"
 2061      737400
 2062              	.LASF33:
 2063 02e4 54444852 		.ascii	"TDHR\000"
 2063      00
 2064              	.LASF119:
 2065 02e9 736C6F74 		.ascii	"slots\000"
 2065      7300
 2066              	.LASF82:
 2067 02ef 72746361 		.ascii	"rtcan_msgcallback_t\000"
 2067      6E5F6D73 
 2067      6763616C 
 2067      6C626163 
 2067      6B5F7400 
 2068              	.LASF50:
 2069 0303 46464131 		.ascii	"FFA1R\000"
 2069      5200
 2070              	.LASF90:
 2071 0309 72746361 		.ascii	"rtcanstate_t\000"
 2071      6E737461 
 2071      74655F74 
 2071      00
 2072              	.LASF113:
ARM GAS  /tmp/ccR8yuzq.s 			page 40


 2073 0316 6D626F78 		.ascii	"mbox\000"
 2073      00
 2074              	.LASF42:
 2075 031b 52455345 		.ascii	"RESERVED0\000"
 2075      52564544 
 2075      3000
 2076              	.LASF45:
 2077 0325 52455345 		.ascii	"RESERVED1\000"
 2077      52564544 
 2077      3100
 2078              	.LASF47:
 2079 032f 52455345 		.ascii	"RESERVED2\000"
 2079      52564544 
 2079      3200
 2080              	.LASF49:
 2081 0339 52455345 		.ascii	"RESERVED3\000"
 2081      52564544 
 2081      3300
 2082              	.LASF96:
 2083 0343 52544341 		.ascii	"RTCAN_MSG_TIMEOUT\000"
 2083      4E5F4D53 
 2083      475F5449 
 2083      4D454F55 
 2083      5400
 2084              	.LASF52:
 2085 0355 46413152 		.ascii	"FA1R\000"
 2085      00
 2086              	.LASF61:
 2087 035a 52455345 		.ascii	"RESERVED9\000"
 2087      52564544 
 2087      3900
 2088              	.LASF18:
 2089 0364 5F426F6F 		.ascii	"_Bool\000"
 2089      6C00
 2090              	.LASF15:
 2091 036a 696E7433 		.ascii	"int32_t\000"
 2091      325F7400 
 2092              	.LASF2:
 2093 0372 756E7369 		.ascii	"unsigned char\000"
 2093      676E6564 
 2093      20636861 
 2093      7200
 2094              	.LASF128:
 2095 0380 49544D5F 		.ascii	"ITM_RxBuffer\000"
 2095      52784275 
 2095      66666572 
 2095      00
 2096              	.LASF3:
 2097 038d 73686F72 		.ascii	"short int\000"
 2097      7420696E 
 2097      7400
 2098              	.LASF94:
 2099 0397 52544341 		.ascii	"RTCAN_MSG_QUEUED\000"
 2099      4E5F4D53 
 2099      475F5155 
 2099      45554544 
 2099      00
ARM GAS  /tmp/ccR8yuzq.s 			page 41


 2100              	.LASF112:
 2101 03a8 66726167 		.ascii	"fragment\000"
 2101      6D656E74 
 2101      00
 2102              	.LASF93:
 2103 03b1 52544341 		.ascii	"RTCAN_MSG_READY\000"
 2103      4E5F4D53 
 2103      475F5245 
 2103      41445900 
 2104              	.LASF51:
 2105 03c1 52455345 		.ascii	"RESERVED4\000"
 2105      52564544 
 2105      3400
 2106              	.LASF53:
 2107 03cb 52455345 		.ascii	"RESERVED5\000"
 2107      52564544 
 2107      3500
 2108              	.LASF16:
 2109 03d5 75696E74 		.ascii	"uint32_t\000"
 2109      33325F74 
 2109      00
 2110              	.LASF28:
 2111 03de 76745F73 		.ascii	"vt_systime\000"
 2111      79737469 
 2111      6D6500
 2112              	.LASF129:
 2113 03e9 474E5520 		.ascii	"GNU C 4.9.3 20141119 (release) [ARM/embedded-4_9-br"
 2113      4320342E 
 2113      392E3320 
 2113      32303134 
 2113      31313139 
 2114 041c 616E6368 		.ascii	"anch revision 218278] -mcpu=cortex-m4 -mno-thumb-in"
 2114      20726576 
 2114      6973696F 
 2114      6E203231 
 2114      38323738 
 2115 044f 74657277 		.ascii	"terwork -mthumb -ggdb -O0 -fomit-frame-pointer\000"
 2115      6F726B20 
 2115      2D6D7468 
 2115      756D6220 
 2115      2D676764 
 2116              	.LASF30:
 2117 047e 63686172 		.ascii	"char\000"
 2117      00
 2118              	.LASF75:
 2119 0483 72746361 		.ascii	"rtcan_msg_t\000"
 2119      6E5F6D73 
 2119      675F7400 
 2120              	.LASF105:
 2121 048f 7372745F 		.ascii	"srt_queue\000"
 2121      71756575 
 2121      6500
 2122              	.LASF108:
 2123 0499 636F6E66 		.ascii	"config\000"
 2123      696700
 2124              	.LASF69:
 2125 04a0 444D4152 		.ascii	"DMAR\000"
ARM GAS  /tmp/ccR8yuzq.s 			page 42


 2125      00
 2126              	.LASF37:
 2127 04a5 52444852 		.ascii	"RDHR\000"
 2127      00
 2128              	.LASF19:
 2129 04aa 73797374 		.ascii	"systime_t\000"
 2129      696D655F 
 2129      7400
 2130              	.LASF21:
 2131 04b4 76746675 		.ascii	"vtfunc_t\000"
 2131      6E635F74 
 2131      00
 2132              	.LASF44:
 2133 04bd 73464946 		.ascii	"sFIFOMailBox\000"
 2133      4F4D6169 
 2133      6C426F78 
 2133      00
 2134              	.LASF125:
 2135 04ca 6C617869 		.ascii	"laxity\000"
 2135      747900
 2136              	.LASF92:
 2137 04d1 52544341 		.ascii	"RTCAN_MSG_BUSY\000"
 2137      4E5F4D53 
 2137      475F4255 
 2137      535900
 2138              	.LASF6:
 2139 04e0 73686F72 		.ascii	"short unsigned int\000"
 2139      7420756E 
 2139      7369676E 
 2139      65642069 
 2139      6E7400
 2140              	.LASF27:
 2141 04f3 76745F70 		.ascii	"vt_par\000"
 2141      617200
 2142              	.LASF104:
 2143 04fa 6379636C 		.ascii	"cycle\000"
 2143      6500
 2144              	.LASF110:
 2145 0500 64617461 		.ascii	"data16\000"
 2145      313600
 2146              	.LASF64:
 2147 0507 43435232 		.ascii	"CCR2\000"
 2147      00
 2148              	.LASF65:
 2149 050c 43435233 		.ascii	"CCR3\000"
 2149      00
 2150              	.LASF66:
 2151 0511 43435234 		.ascii	"CCR4\000"
 2151      00
 2152              	.LASF72:
 2153 0516 43435235 		.ascii	"CCR5\000"
 2153      00
 2154              	.LASF73:
 2155 051b 43435236 		.ascii	"CCR6\000"
 2155      00
 2156              	.LASF77:
 2157 0520 73746174 		.ascii	"status\000"
ARM GAS  /tmp/ccR8yuzq.s 			page 43


 2157      757300
 2158              	.LASF38:
 2159 0527 43414E5F 		.ascii	"CAN_FIFOMailBox_TypeDef\000"
 2159      4649464F 
 2159      4D61696C 
 2159      426F785F 
 2159      54797065 
 2160              	.LASF13:
 2161 053f 75696E74 		.ascii	"uint8_t\000"
 2161      385F7400 
 2162              	.LASF86:
 2163 0547 52544341 		.ascii	"RTCAN_ERROR\000"
 2163      4E5F4552 
 2163      524F5200 
 2164              	.LASF80:
 2165 0553 73697A65 		.ascii	"size\000"
 2165      00
 2166              	.LASF89:
 2167 0558 52544341 		.ascii	"RTCAN_MASTER\000"
 2167      4E5F4D41 
 2167      53544552 
 2167      00
 2168              	.LASF120:
 2169 0565 52544341 		.ascii	"RTCANConfig\000"
 2169      4E436F6E 
 2169      66696700 
 2170              	.LASF118:
 2171 0571 636C6F63 		.ascii	"clock\000"
 2171      6B00
 2172              	.LASF126:
 2173 0577 74786670 		.ascii	"txfp\000"
 2173      00
 2174              	.LASF115:
 2175 057c 64656164 		.ascii	"deadline\000"
 2175      6C696E65 
 2175      00
 2176              	.LASF107:
 2177 0585 66696C74 		.ascii	"filters\000"
 2177      65727300 
 2178              	.LASF100:
 2179 058d 6D736771 		.ascii	"msgqueue_t\000"
 2179      75657565 
 2179      5F7400
 2180              		.ident	"GCC: (GNU Tools for ARM Embedded Processors) 4.9.3 20141119 (release) [ARM/embedded-4_9-br
ARM GAS  /tmp/ccR8yuzq.s 			page 44


DEFINED SYMBOLS
                            *ABS*:00000000 srt.c
     /tmp/ccR8yuzq.s:18     .text:00000000 $t
     /tmp/ccR8yuzq.s:23     .text:00000000 srt_laxity
     /tmp/ccR8yuzq.s:69     .text:00000034 $d
     /tmp/ccR8yuzq.s:73     .text:00000038 $t
     /tmp/ccR8yuzq.s:78     .text:00000038 srt_transmit
                     .debug_frame:00000010 $d

UNDEFINED SYMBOLS
vtlist
rtcan_lld_can_txe
msgqueue_get
rtcan_lld_can_transmit
