ARM GAS  /tmp/ccp6ki2O.s 			page 1


   1              		.syntax unified
   2              		.cpu cortex-m4
   3              		.fpu softvfp
   4              		.eabi_attribute 20, 1
   5              		.eabi_attribute 21, 1
   6              		.eabi_attribute 23, 3
   7              		.eabi_attribute 24, 1
   8              		.eabi_attribute 25, 1
   9              		.eabi_attribute 26, 1
  10              		.eabi_attribute 30, 6
  11              		.eabi_attribute 34, 1
  12              		.eabi_attribute 18, 4
  13              		.thumb
  14              		.file	"StaticQueue_.cpp"
  15              		.text
  16              	.Ltext0:
  17              		.cfi_sections	.debug_frame
  18              		.section	.text._ZN3r2p10UncopyableC2Ev,"axG",%progbits,_ZN3r2p10UncopyableC5Ev,comdat
  19              		.align	2
  20              		.weak	_ZN3r2p10UncopyableC2Ev
  21              		.thumb
  22              		.thumb_func
  23              		.type	_ZN3r2p10UncopyableC2Ev, %function
  24              	_ZN3r2p10UncopyableC2Ev:
  25              	.LFB6:
  26              		.file 1 "/opt/R2P/core/Middleware/include/r2p/Uncopyable.hpp"
  27              		.loc 1 20 0
  28              		.cfi_startproc
  29              		@ args = 0, pretend = 0, frame = 8
  30              		@ frame_needed = 0, uses_anonymous_args = 0
  31              		@ link register save eliminated.
  32 0000 82B0     		sub	sp, sp, #8
  33              		.cfi_def_cfa_offset 8
  34 0002 0190     		str	r0, [sp, #4]
  35              		.loc 1 20 0
  36 0004 019B     		ldr	r3, [sp, #4]
  37 0006 1846     		mov	r0, r3
  38 0008 02B0     		add	sp, sp, #8
  39              		.cfi_def_cfa_offset 0
  40              		@ sp needed
  41 000a 7047     		bx	lr
  42              		.cfi_endproc
  43              	.LFE6:
  44              		.size	_ZN3r2p10UncopyableC2Ev, .-_ZN3r2p10UncopyableC2Ev
  45              		.weak	_ZN3r2p10UncopyableC1Ev
  46              		.thumb_set _ZN3r2p10UncopyableC1Ev,_ZN3r2p10UncopyableC2Ev
  47              		.section	.text._ZN3r2p8SysLock_7acquireEv,"axG",%progbits,_ZN3r2p8SysLock_7acquireEv,comdat
  48              		.align	2
  49              		.weak	_ZN3r2p8SysLock_7acquireEv
  50              		.thumb
  51              		.thumb_func
  52              		.type	_ZN3r2p8SysLock_7acquireEv, %function
  53              	_ZN3r2p8SysLock_7acquireEv:
  54              	.LFB18:
  55              		.file 2 "/opt/R2P/core/Middleware/port/chibios/include/r2p/impl/SysLock_.hpp"
  56              		.loc 2 20 0
  57              		.cfi_startproc
ARM GAS  /tmp/ccp6ki2O.s 			page 2


  58              		@ args = 0, pretend = 0, frame = 0
  59              		@ frame_needed = 0, uses_anonymous_args = 0
  60 0000 08B5     		push	{r3, lr}
  61              		.cfi_def_cfa_offset 8
  62              		.cfi_offset 3, -8
  63              		.cfi_offset 14, -4
  64              	.LBB2:
  65              	.LBB3:
  66              	.LBB4:
  67              		.loc 2 22 0
  68 0002 2023     		movs	r3, #32
  69              	@ 22 "/opt/R2P/core/Middleware/port/chibios/include/r2p/impl/SysLock_.hpp" 1
  70 0004 83F31188 		msr     BASEPRI, r3
  71              	@ 0 "" 2
  72              		.thumb
  73              	.LBE4:
  74 0008 FFF7FEFF 		bl	dbg_check_lock
  75              	.LBE3:
  76              	.LBE2:
  77              		.loc 2 23 0
  78 000c 08BD     		pop	{r3, pc}
  79              		.cfi_endproc
  80              	.LFE18:
  81              		.size	_ZN3r2p8SysLock_7acquireEv, .-_ZN3r2p8SysLock_7acquireEv
  82 000e 00BF     		.section	.text._ZN3r2p8SysLock_7releaseEv,"axG",%progbits,_ZN3r2p8SysLock_7releaseEv,comdat
  83              		.align	2
  84              		.weak	_ZN3r2p8SysLock_7releaseEv
  85              		.thumb
  86              		.thumb_func
  87              		.type	_ZN3r2p8SysLock_7releaseEv, %function
  88              	_ZN3r2p8SysLock_7releaseEv:
  89              	.LFB19:
  90              		.loc 2 27 0
  91              		.cfi_startproc
  92              		@ args = 0, pretend = 0, frame = 0
  93              		@ frame_needed = 0, uses_anonymous_args = 0
  94 0000 08B5     		push	{r3, lr}
  95              		.cfi_def_cfa_offset 8
  96              		.cfi_offset 3, -8
  97              		.cfi_offset 14, -4
  98              	.LBB5:
  99              	.LBB6:
 100              		.loc 2 29 0
 101 0002 FFF7FEFF 		bl	dbg_check_unlock
 102              	.LBB7:
 103 0006 0023     		movs	r3, #0
 104              	@ 29 "/opt/R2P/core/Middleware/port/chibios/include/r2p/impl/SysLock_.hpp" 1
 105 0008 83F31188 		msr     BASEPRI, r3
 106              	@ 0 "" 2
 107              		.thumb
 108              	.LBE7:
 109              	.LBE6:
 110              	.LBE5:
 111              		.loc 2 30 0
 112 000c 08BD     		pop	{r3, pc}
 113              		.cfi_endproc
 114              	.LFE19:
ARM GAS  /tmp/ccp6ki2O.s 			page 3


 115              		.size	_ZN3r2p8SysLock_7releaseEv, .-_ZN3r2p8SysLock_7releaseEv
 116 000e 00BF     		.section	.text._ZN3r2p7SysLock7acquireEv,"axG",%progbits,_ZN3r2p7SysLock7acquireEv,comdat
 117              		.align	2
 118              		.weak	_ZN3r2p7SysLock7acquireEv
 119              		.thumb
 120              		.thumb_func
 121              		.type	_ZN3r2p7SysLock7acquireEv, %function
 122              	_ZN3r2p7SysLock7acquireEv:
 123              	.LFB26:
 124              		.file 3 "/opt/R2P/core/Middleware/include/r2p/SysLock.hpp"
 125              		.loc 3 27 0
 126              		.cfi_startproc
 127              		@ args = 0, pretend = 0, frame = 0
 128              		@ frame_needed = 0, uses_anonymous_args = 0
 129 0000 08B5     		push	{r3, lr}
 130              		.cfi_def_cfa_offset 8
 131              		.cfi_offset 3, -8
 132              		.cfi_offset 14, -4
 133              		.loc 3 29 0
 134 0002 FFF7FEFF 		bl	_ZN3r2p8SysLock_7acquireEv
 135              		.loc 3 30 0
 136 0006 08BD     		pop	{r3, pc}
 137              		.cfi_endproc
 138              	.LFE26:
 139              		.size	_ZN3r2p7SysLock7acquireEv, .-_ZN3r2p7SysLock7acquireEv
 140              		.section	.text._ZN3r2p7SysLock7releaseEv,"axG",%progbits,_ZN3r2p7SysLock7releaseEv,comdat
 141              		.align	2
 142              		.weak	_ZN3r2p7SysLock7releaseEv
 143              		.thumb
 144              		.thumb_func
 145              		.type	_ZN3r2p7SysLock7releaseEv, %function
 146              	_ZN3r2p7SysLock7releaseEv:
 147              	.LFB27:
 148              		.loc 3 34 0
 149              		.cfi_startproc
 150              		@ args = 0, pretend = 0, frame = 0
 151              		@ frame_needed = 0, uses_anonymous_args = 0
 152 0000 08B5     		push	{r3, lr}
 153              		.cfi_def_cfa_offset 8
 154              		.cfi_offset 3, -8
 155              		.cfi_offset 14, -4
 156              		.loc 3 36 0
 157 0002 FFF7FEFF 		bl	_ZN3r2p8SysLock_7releaseEv
 158              		.loc 3 37 0
 159 0006 08BD     		pop	{r3, pc}
 160              		.cfi_endproc
 161              	.LFE27:
 162              		.size	_ZN3r2p7SysLock7releaseEv, .-_ZN3r2p7SysLock7releaseEv
 163              		.section	.text._ZNK3r2p12StaticQueue_15is_empty_unsafeEv,"axG",%progbits,_ZNK3r2p12StaticQueue_15i
 164              		.align	2
 165              		.weak	_ZNK3r2p12StaticQueue_15is_empty_unsafeEv
 166              		.thumb
 167              		.thumb_func
 168              		.type	_ZNK3r2p12StaticQueue_15is_empty_unsafeEv, %function
 169              	_ZNK3r2p12StaticQueue_15is_empty_unsafeEv:
 170              	.LFB39:
 171              		.file 4 "/opt/R2P/core/Middleware/include/r2p/impl/StaticQueue_.hpp"
ARM GAS  /tmp/ccp6ki2O.s 			page 4


 172              		.loc 4 49 0
 173              		.cfi_startproc
 174              		@ args = 0, pretend = 0, frame = 8
 175              		@ frame_needed = 0, uses_anonymous_args = 0
 176              		@ link register save eliminated.
 177 0000 82B0     		sub	sp, sp, #8
 178              		.cfi_def_cfa_offset 8
 179 0002 0190     		str	r0, [sp, #4]
 180              		.loc 4 51 0
 181 0004 019B     		ldr	r3, [sp, #4]
 182 0006 1B68     		ldr	r3, [r3]
 183 0008 002B     		cmp	r3, #0
 184 000a 0CBF     		ite	eq
 185 000c 0123     		moveq	r3, #1
 186 000e 0023     		movne	r3, #0
 187 0010 DBB2     		uxtb	r3, r3
 188              		.loc 4 52 0
 189 0012 1846     		mov	r0, r3
 190 0014 02B0     		add	sp, sp, #8
 191              		.cfi_def_cfa_offset 0
 192              		@ sp needed
 193 0016 7047     		bx	lr
 194              		.cfi_endproc
 195              	.LFE39:
 196              		.size	_ZNK3r2p12StaticQueue_15is_empty_unsafeEv, .-_ZNK3r2p12StaticQueue_15is_empty_unsafeEv
 197              		.text
 198              		.align	2
 199              		.global	_ZNK3r2p12StaticQueue_15get_head_unsafeEv
 200              		.thumb
 201              		.thumb_func
 202              		.type	_ZNK3r2p12StaticQueue_15get_head_unsafeEv, %function
 203              	_ZNK3r2p12StaticQueue_15get_head_unsafeEv:
 204              	.LFB40:
 205              		.file 5 "/opt/R2P/core/Middleware/src/impl/StaticQueue_.cpp"
 206              		.loc 5 7 0
 207              		.cfi_startproc
 208              		@ args = 0, pretend = 0, frame = 8
 209              		@ frame_needed = 0, uses_anonymous_args = 0
 210              		@ link register save eliminated.
 211 0000 82B0     		sub	sp, sp, #8
 212              		.cfi_def_cfa_offset 8
 213 0002 0190     		str	r0, [sp, #4]
 214              		.loc 5 9 0
 215 0004 019B     		ldr	r3, [sp, #4]
 216 0006 1B68     		ldr	r3, [r3]
 217              		.loc 5 10 0
 218 0008 1846     		mov	r0, r3
 219 000a 02B0     		add	sp, sp, #8
 220              		.cfi_def_cfa_offset 0
 221              		@ sp needed
 222 000c 7047     		bx	lr
 223              		.cfi_endproc
 224              	.LFE40:
 225              		.size	_ZNK3r2p12StaticQueue_15get_head_unsafeEv, .-_ZNK3r2p12StaticQueue_15get_head_unsafeEv
 226 000e 00BF     		.align	2
 227              		.global	_ZNK3r2p12StaticQueue_15get_tail_unsafeEv
 228              		.thumb
ARM GAS  /tmp/ccp6ki2O.s 			page 5


 229              		.thumb_func
 230              		.type	_ZNK3r2p12StaticQueue_15get_tail_unsafeEv, %function
 231              	_ZNK3r2p12StaticQueue_15get_tail_unsafeEv:
 232              	.LFB41:
 233              		.loc 5 13 0
 234              		.cfi_startproc
 235              		@ args = 0, pretend = 0, frame = 8
 236              		@ frame_needed = 0, uses_anonymous_args = 0
 237              		@ link register save eliminated.
 238 0010 82B0     		sub	sp, sp, #8
 239              		.cfi_def_cfa_offset 8
 240 0012 0190     		str	r0, [sp, #4]
 241              		.loc 5 15 0
 242 0014 019B     		ldr	r3, [sp, #4]
 243 0016 5B68     		ldr	r3, [r3, #4]
 244              		.loc 5 16 0
 245 0018 1846     		mov	r0, r3
 246 001a 02B0     		add	sp, sp, #8
 247              		.cfi_def_cfa_offset 0
 248              		@ sp needed
 249 001c 7047     		bx	lr
 250              		.cfi_endproc
 251              	.LFE41:
 252              		.size	_ZNK3r2p12StaticQueue_15get_tail_unsafeEv, .-_ZNK3r2p12StaticQueue_15get_tail_unsafeEv
 253              		.section	.rodata
 254              		.align	2
 255              	.LC0:
 256 0000 5232505F 		.ascii	"R2P_ASSERT()\000"
 256      41535345 
 256      52542829 
 256      00
 257 000d 000000   		.text
 258 001e 00BF     		.align	2
 259              		.global	_ZN3r2p12StaticQueue_11post_unsafeERNS0_4LinkE
 260              		.thumb
 261              		.thumb_func
 262              		.type	_ZN3r2p12StaticQueue_11post_unsafeERNS0_4LinkE, %function
 263              	_ZN3r2p12StaticQueue_11post_unsafeERNS0_4LinkE:
 264              	.LFB42:
 265              		.loc 5 19 0
 266              		.cfi_startproc
 267              		@ args = 0, pretend = 0, frame = 8
 268              		@ frame_needed = 0, uses_anonymous_args = 0
 269 0020 00B5     		push	{lr}
 270              		.cfi_def_cfa_offset 4
 271              		.cfi_offset 14, -4
 272 0022 83B0     		sub	sp, sp, #12
 273              		.cfi_def_cfa_offset 16
 274 0024 0190     		str	r0, [sp, #4]
 275 0026 0091     		str	r1, [sp]
 276              		.loc 5 21 0
 277 0028 019B     		ldr	r3, [sp, #4]
 278 002a 1B68     		ldr	r3, [r3]
 279 002c 002B     		cmp	r3, #0
 280 002e 14BF     		ite	ne
 281 0030 0123     		movne	r3, #1
 282 0032 0023     		moveq	r3, #0
ARM GAS  /tmp/ccp6ki2O.s 			page 6


 283 0034 DAB2     		uxtb	r2, r3
 284 0036 019B     		ldr	r3, [sp, #4]
 285 0038 5B68     		ldr	r3, [r3, #4]
 286 003a 002B     		cmp	r3, #0
 287 003c 14BF     		ite	ne
 288 003e 0123     		movne	r3, #1
 289 0040 0023     		moveq	r3, #0
 290 0042 DBB2     		uxtb	r3, r3
 291 0044 5340     		eors	r3, r3, r2
 292 0046 DBB2     		uxtb	r3, r3
 293 0048 002B     		cmp	r3, #0
 294 004a 02D0     		beq	.L15
 295              		.loc 5 21 0 is_stmt 0 discriminator 1
 296 004c 1348     		ldr	r0, .L20
 297 004e FFF7FEFF 		bl	chDbgPanic
 298              	.L15:
 299              		.loc 5 22 0 is_stmt 1
 300 0052 009B     		ldr	r3, [sp]
 301 0054 1B68     		ldr	r3, [r3]
 302 0056 002B     		cmp	r3, #0
 303 0058 02D0     		beq	.L16
 304              		.loc 5 22 0 is_stmt 0 discriminator 1
 305 005a 1048     		ldr	r0, .L20
 306 005c FFF7FEFF 		bl	chDbgPanic
 307              	.L16:
 308              		.loc 5 24 0 is_stmt 1
 309 0060 019B     		ldr	r3, [sp, #4]
 310 0062 5B68     		ldr	r3, [r3, #4]
 311 0064 002B     		cmp	r3, #0
 312 0066 0FD0     		beq	.L17
 313              		.loc 5 25 0
 314 0068 019B     		ldr	r3, [sp, #4]
 315 006a 5B68     		ldr	r3, [r3, #4]
 316 006c 1B68     		ldr	r3, [r3]
 317 006e 002B     		cmp	r3, #0
 318 0070 02D0     		beq	.L18
 319              		.loc 5 25 0 is_stmt 0 discriminator 1
 320 0072 0A48     		ldr	r0, .L20
 321 0074 FFF7FEFF 		bl	chDbgPanic
 322              	.L18:
 323              		.loc 5 26 0 is_stmt 1
 324 0078 019B     		ldr	r3, [sp, #4]
 325 007a 5B68     		ldr	r3, [r3, #4]
 326 007c 009A     		ldr	r2, [sp]
 327 007e 1A60     		str	r2, [r3]
 328              		.loc 5 27 0
 329 0080 019B     		ldr	r3, [sp, #4]
 330 0082 009A     		ldr	r2, [sp]
 331 0084 5A60     		str	r2, [r3, #4]
 332 0086 06E0     		b	.L14
 333              	.L17:
 334              		.loc 5 29 0
 335 0088 019B     		ldr	r3, [sp, #4]
 336 008a 009A     		ldr	r2, [sp]
 337 008c 5A60     		str	r2, [r3, #4]
 338 008e 019B     		ldr	r3, [sp, #4]
 339 0090 5A68     		ldr	r2, [r3, #4]
ARM GAS  /tmp/ccp6ki2O.s 			page 7


 340 0092 019B     		ldr	r3, [sp, #4]
 341 0094 1A60     		str	r2, [r3]
 342              	.L14:
 343              		.loc 5 31 0
 344 0096 03B0     		add	sp, sp, #12
 345              		.cfi_def_cfa_offset 4
 346              		@ sp needed
 347 0098 5DF804FB 		ldr	pc, [sp], #4
 348              	.L21:
 349              		.align	2
 350              	.L20:
 351 009c 00000000 		.word	.LC0
 352              		.cfi_endproc
 353              	.LFE42:
 354              		.size	_ZN3r2p12StaticQueue_11post_unsafeERNS0_4LinkE, .-_ZN3r2p12StaticQueue_11post_unsafeERNS0_4L
 355              		.align	2
 356              		.global	_ZNK3r2p12StaticQueue_11peek_unsafeERPKNS0_4LinkE
 357              		.thumb
 358              		.thumb_func
 359              		.type	_ZNK3r2p12StaticQueue_11peek_unsafeERPKNS0_4LinkE, %function
 360              	_ZNK3r2p12StaticQueue_11peek_unsafeERPKNS0_4LinkE:
 361              	.LFB43:
 362              		.loc 5 34 0
 363              		.cfi_startproc
 364              		@ args = 0, pretend = 0, frame = 8
 365              		@ frame_needed = 0, uses_anonymous_args = 0
 366 00a0 00B5     		push	{lr}
 367              		.cfi_def_cfa_offset 4
 368              		.cfi_offset 14, -4
 369 00a2 83B0     		sub	sp, sp, #12
 370              		.cfi_def_cfa_offset 16
 371 00a4 0190     		str	r0, [sp, #4]
 372 00a6 0091     		str	r1, [sp]
 373              		.loc 5 36 0
 374 00a8 019B     		ldr	r3, [sp, #4]
 375 00aa 1B68     		ldr	r3, [r3]
 376 00ac 002B     		cmp	r3, #0
 377 00ae 14BF     		ite	ne
 378 00b0 0123     		movne	r3, #1
 379 00b2 0023     		moveq	r3, #0
 380 00b4 DAB2     		uxtb	r2, r3
 381 00b6 019B     		ldr	r3, [sp, #4]
 382 00b8 5B68     		ldr	r3, [r3, #4]
 383 00ba 002B     		cmp	r3, #0
 384 00bc 14BF     		ite	ne
 385 00be 0123     		movne	r3, #1
 386 00c0 0023     		moveq	r3, #0
 387 00c2 DBB2     		uxtb	r3, r3
 388 00c4 5340     		eors	r3, r3, r2
 389 00c6 DBB2     		uxtb	r3, r3
 390 00c8 002B     		cmp	r3, #0
 391 00ca 02D0     		beq	.L23
 392              		.loc 5 36 0 is_stmt 0 discriminator 1
 393 00cc 0848     		ldr	r0, .L26
 394 00ce FFF7FEFF 		bl	chDbgPanic
 395              	.L23:
 396              		.loc 5 38 0 is_stmt 1
ARM GAS  /tmp/ccp6ki2O.s 			page 8


 397 00d2 019B     		ldr	r3, [sp, #4]
 398 00d4 1B68     		ldr	r3, [r3]
 399 00d6 002B     		cmp	r3, #0
 400 00d8 05D0     		beq	.L24
 401              		.loc 5 39 0
 402 00da 019B     		ldr	r3, [sp, #4]
 403 00dc 1A68     		ldr	r2, [r3]
 404 00de 009B     		ldr	r3, [sp]
 405 00e0 1A60     		str	r2, [r3]
 406              		.loc 5 40 0
 407 00e2 0123     		movs	r3, #1
 408 00e4 00E0     		b	.L25
 409              	.L24:
 410              		.loc 5 42 0
 411 00e6 0023     		movs	r3, #0
 412              	.L25:
 413              		.loc 5 43 0
 414 00e8 1846     		mov	r0, r3
 415 00ea 03B0     		add	sp, sp, #12
 416              		.cfi_def_cfa_offset 4
 417              		@ sp needed
 418 00ec 5DF804FB 		ldr	pc, [sp], #4
 419              	.L27:
 420              		.align	2
 421              	.L26:
 422 00f0 00000000 		.word	.LC0
 423              		.cfi_endproc
 424              	.LFE43:
 425              		.size	_ZNK3r2p12StaticQueue_11peek_unsafeERPKNS0_4LinkE, .-_ZNK3r2p12StaticQueue_11peek_unsafeERPK
 426              		.align	2
 427              		.global	_ZN3r2p12StaticQueue_12fetch_unsafeERNS0_4LinkE
 428              		.thumb
 429              		.thumb_func
 430              		.type	_ZN3r2p12StaticQueue_12fetch_unsafeERNS0_4LinkE, %function
 431              	_ZN3r2p12StaticQueue_12fetch_unsafeERNS0_4LinkE:
 432              	.LFB44:
 433              		.loc 5 46 0
 434              		.cfi_startproc
 435              		@ args = 0, pretend = 0, frame = 8
 436              		@ frame_needed = 0, uses_anonymous_args = 0
 437 00f4 10B5     		push	{r4, lr}
 438              		.cfi_def_cfa_offset 8
 439              		.cfi_offset 4, -8
 440              		.cfi_offset 14, -4
 441 00f6 82B0     		sub	sp, sp, #8
 442              		.cfi_def_cfa_offset 16
 443 00f8 0190     		str	r0, [sp, #4]
 444 00fa 0091     		str	r1, [sp]
 445              	.LBB8:
 446              		.loc 5 48 0
 447 00fc 019B     		ldr	r3, [sp, #4]
 448 00fe 1B68     		ldr	r3, [r3]
 449 0100 002B     		cmp	r3, #0
 450 0102 14BF     		ite	ne
 451 0104 0123     		movne	r3, #1
 452 0106 0023     		moveq	r3, #0
 453 0108 DAB2     		uxtb	r2, r3
ARM GAS  /tmp/ccp6ki2O.s 			page 9


 454 010a 019B     		ldr	r3, [sp, #4]
 455 010c 5B68     		ldr	r3, [r3, #4]
 456 010e 002B     		cmp	r3, #0
 457 0110 14BF     		ite	ne
 458 0112 0123     		movne	r3, #1
 459 0114 0023     		moveq	r3, #0
 460 0116 DBB2     		uxtb	r3, r3
 461 0118 5340     		eors	r3, r3, r2
 462 011a DBB2     		uxtb	r3, r3
 463 011c 002B     		cmp	r3, #0
 464 011e 02D0     		beq	.L29
 465              		.loc 5 48 0 is_stmt 0 discriminator 1
 466 0120 1148     		ldr	r0, .L33
 467 0122 FFF7FEFF 		bl	chDbgPanic
 468              	.L29:
 469              	.LBB9:
 470              		.loc 5 50 0 is_stmt 1
 471 0126 019B     		ldr	r3, [sp, #4]
 472 0128 1B68     		ldr	r3, [r3]
 473 012a 002B     		cmp	r3, #0
 474 012c 18D0     		beq	.L30
 475              	.LBB10:
 476              		.loc 5 51 0
 477 012e 019B     		ldr	r3, [sp, #4]
 478 0130 1B68     		ldr	r3, [r3]
 479 0132 1C68     		ldr	r4, [r3]
 480              		.loc 5 52 0
 481 0134 019B     		ldr	r3, [sp, #4]
 482 0136 1B68     		ldr	r3, [r3]
 483 0138 0022     		movs	r2, #0
 484 013a 1A60     		str	r2, [r3]
 485              		.loc 5 53 0
 486 013c 019B     		ldr	r3, [sp, #4]
 487 013e 1A68     		ldr	r2, [r3]
 488 0140 009B     		ldr	r3, [sp]
 489 0142 92E80300 		ldmia	r2, {r0, r1}
 490 0146 83E80300 		stmia	r3, {r0, r1}
 491              		.loc 5 54 0
 492 014a 019B     		ldr	r3, [sp, #4]
 493 014c 1C60     		str	r4, [r3]
 494              		.loc 5 55 0
 495 014e 019B     		ldr	r3, [sp, #4]
 496 0150 1B68     		ldr	r3, [r3]
 497 0152 002B     		cmp	r3, #0
 498 0154 02D1     		bne	.L31
 499              		.loc 5 56 0
 500 0156 019B     		ldr	r3, [sp, #4]
 501 0158 0022     		movs	r2, #0
 502 015a 5A60     		str	r2, [r3, #4]
 503              	.L31:
 504              		.loc 5 58 0
 505 015c 0123     		movs	r3, #1
 506 015e 00E0     		b	.L32
 507              	.L30:
 508              	.LBE10:
 509              	.LBE9:
 510              		.loc 5 60 0
ARM GAS  /tmp/ccp6ki2O.s 			page 10


 511 0160 0023     		movs	r3, #0
 512              	.L32:
 513              	.LBE8:
 514              		.loc 5 61 0
 515 0162 1846     		mov	r0, r3
 516 0164 02B0     		add	sp, sp, #8
 517              		.cfi_def_cfa_offset 8
 518              		@ sp needed
 519 0166 10BD     		pop	{r4, pc}
 520              	.L34:
 521              		.align	2
 522              	.L33:
 523 0168 00000000 		.word	.LC0
 524              		.cfi_endproc
 525              	.LFE44:
 526              		.size	_ZN3r2p12StaticQueue_12fetch_unsafeERNS0_4LinkE, .-_ZN3r2p12StaticQueue_12fetch_unsafeERNS0_
 527              		.align	2
 528              		.global	_ZN3r2p12StaticQueue_11skip_unsafeEv
 529              		.thumb
 530              		.thumb_func
 531              		.type	_ZN3r2p12StaticQueue_11skip_unsafeEv, %function
 532              	_ZN3r2p12StaticQueue_11skip_unsafeEv:
 533              	.LFB45:
 534              		.loc 5 64 0
 535              		.cfi_startproc
 536              		@ args = 0, pretend = 0, frame = 8
 537              		@ frame_needed = 0, uses_anonymous_args = 0
 538 016c 10B5     		push	{r4, lr}
 539              		.cfi_def_cfa_offset 8
 540              		.cfi_offset 4, -8
 541              		.cfi_offset 14, -4
 542 016e 82B0     		sub	sp, sp, #8
 543              		.cfi_def_cfa_offset 16
 544 0170 0190     		str	r0, [sp, #4]
 545              	.LBB11:
 546              		.loc 5 66 0
 547 0172 019B     		ldr	r3, [sp, #4]
 548 0174 1B68     		ldr	r3, [r3]
 549 0176 002B     		cmp	r3, #0
 550 0178 14BF     		ite	ne
 551 017a 0123     		movne	r3, #1
 552 017c 0023     		moveq	r3, #0
 553 017e DAB2     		uxtb	r2, r3
 554 0180 019B     		ldr	r3, [sp, #4]
 555 0182 5B68     		ldr	r3, [r3, #4]
 556 0184 002B     		cmp	r3, #0
 557 0186 14BF     		ite	ne
 558 0188 0123     		movne	r3, #1
 559 018a 0023     		moveq	r3, #0
 560 018c DBB2     		uxtb	r3, r3
 561 018e 5340     		eors	r3, r3, r2
 562 0190 DBB2     		uxtb	r3, r3
 563 0192 002B     		cmp	r3, #0
 564 0194 02D0     		beq	.L36
 565              		.loc 5 66 0 is_stmt 0 discriminator 1
 566 0196 0E48     		ldr	r0, .L40
 567 0198 FFF7FEFF 		bl	chDbgPanic
ARM GAS  /tmp/ccp6ki2O.s 			page 11


 568              	.L36:
 569              	.LBB12:
 570              		.loc 5 68 0 is_stmt 1
 571 019c 019B     		ldr	r3, [sp, #4]
 572 019e 1B68     		ldr	r3, [r3]
 573 01a0 002B     		cmp	r3, #0
 574 01a2 11D0     		beq	.L37
 575              	.LBB13:
 576              		.loc 5 69 0
 577 01a4 019B     		ldr	r3, [sp, #4]
 578 01a6 1B68     		ldr	r3, [r3]
 579 01a8 1C68     		ldr	r4, [r3]
 580              		.loc 5 70 0
 581 01aa 019B     		ldr	r3, [sp, #4]
 582 01ac 1B68     		ldr	r3, [r3]
 583 01ae 0022     		movs	r2, #0
 584 01b0 1A60     		str	r2, [r3]
 585              		.loc 5 71 0
 586 01b2 019B     		ldr	r3, [sp, #4]
 587 01b4 1C60     		str	r4, [r3]
 588              		.loc 5 72 0
 589 01b6 019B     		ldr	r3, [sp, #4]
 590 01b8 1B68     		ldr	r3, [r3]
 591 01ba 002B     		cmp	r3, #0
 592 01bc 02D1     		bne	.L38
 593              		.loc 5 73 0
 594 01be 019B     		ldr	r3, [sp, #4]
 595 01c0 0022     		movs	r2, #0
 596 01c2 5A60     		str	r2, [r3, #4]
 597              	.L38:
 598              		.loc 5 75 0
 599 01c4 0123     		movs	r3, #1
 600 01c6 00E0     		b	.L39
 601              	.L37:
 602              	.LBE13:
 603              	.LBE12:
 604              		.loc 5 77 0
 605 01c8 0023     		movs	r3, #0
 606              	.L39:
 607              	.LBE11:
 608              		.loc 5 78 0
 609 01ca 1846     		mov	r0, r3
 610 01cc 02B0     		add	sp, sp, #8
 611              		.cfi_def_cfa_offset 8
 612              		@ sp needed
 613 01ce 10BD     		pop	{r4, pc}
 614              	.L41:
 615              		.align	2
 616              	.L40:
 617 01d0 00000000 		.word	.LC0
 618              		.cfi_endproc
 619              	.LFE45:
 620              		.size	_ZN3r2p12StaticQueue_11skip_unsafeEv, .-_ZN3r2p12StaticQueue_11skip_unsafeEv
 621              		.align	2
 622              		.global	_ZNK3r2p12StaticQueue_8get_headEv
 623              		.thumb
 624              		.thumb_func
ARM GAS  /tmp/ccp6ki2O.s 			page 12


 625              		.type	_ZNK3r2p12StaticQueue_8get_headEv, %function
 626              	_ZNK3r2p12StaticQueue_8get_headEv:
 627              	.LFB46:
 628              		.loc 5 81 0
 629              		.cfi_startproc
 630              		@ args = 0, pretend = 0, frame = 16
 631              		@ frame_needed = 0, uses_anonymous_args = 0
 632 01d4 00B5     		push	{lr}
 633              		.cfi_def_cfa_offset 4
 634              		.cfi_offset 14, -4
 635 01d6 85B0     		sub	sp, sp, #20
 636              		.cfi_def_cfa_offset 24
 637 01d8 0190     		str	r0, [sp, #4]
 638              	.LBB14:
 639              		.loc 5 83 0
 640 01da FFF7FEFF 		bl	_ZN3r2p7SysLock7acquireEv
 641              		.loc 5 84 0
 642 01de 0198     		ldr	r0, [sp, #4]
 643 01e0 FFF7FEFF 		bl	_ZNK3r2p12StaticQueue_15get_head_unsafeEv
 644 01e4 0390     		str	r0, [sp, #12]
 645              		.loc 5 85 0
 646 01e6 FFF7FEFF 		bl	_ZN3r2p7SysLock7releaseEv
 647              		.loc 5 86 0
 648 01ea 039B     		ldr	r3, [sp, #12]
 649              	.LBE14:
 650              		.loc 5 87 0
 651 01ec 1846     		mov	r0, r3
 652 01ee 05B0     		add	sp, sp, #20
 653              		.cfi_def_cfa_offset 4
 654              		@ sp needed
 655 01f0 5DF804FB 		ldr	pc, [sp], #4
 656              		.cfi_endproc
 657              	.LFE46:
 658              		.size	_ZNK3r2p12StaticQueue_8get_headEv, .-_ZNK3r2p12StaticQueue_8get_headEv
 659              		.align	2
 660              		.global	_ZNK3r2p12StaticQueue_8get_tailEv
 661              		.thumb
 662              		.thumb_func
 663              		.type	_ZNK3r2p12StaticQueue_8get_tailEv, %function
 664              	_ZNK3r2p12StaticQueue_8get_tailEv:
 665              	.LFB47:
 666              		.loc 5 90 0
 667              		.cfi_startproc
 668              		@ args = 0, pretend = 0, frame = 16
 669              		@ frame_needed = 0, uses_anonymous_args = 0
 670 01f4 00B5     		push	{lr}
 671              		.cfi_def_cfa_offset 4
 672              		.cfi_offset 14, -4
 673 01f6 85B0     		sub	sp, sp, #20
 674              		.cfi_def_cfa_offset 24
 675 01f8 0190     		str	r0, [sp, #4]
 676              	.LBB15:
 677              		.loc 5 92 0
 678 01fa FFF7FEFF 		bl	_ZN3r2p7SysLock7acquireEv
 679              		.loc 5 93 0
 680 01fe 0198     		ldr	r0, [sp, #4]
 681 0200 FFF7FEFF 		bl	_ZNK3r2p12StaticQueue_15get_tail_unsafeEv
ARM GAS  /tmp/ccp6ki2O.s 			page 13


 682 0204 0390     		str	r0, [sp, #12]
 683              		.loc 5 94 0
 684 0206 FFF7FEFF 		bl	_ZN3r2p7SysLock7releaseEv
 685              		.loc 5 95 0
 686 020a 039B     		ldr	r3, [sp, #12]
 687              	.LBE15:
 688              		.loc 5 96 0
 689 020c 1846     		mov	r0, r3
 690 020e 05B0     		add	sp, sp, #20
 691              		.cfi_def_cfa_offset 4
 692              		@ sp needed
 693 0210 5DF804FB 		ldr	pc, [sp], #4
 694              		.cfi_endproc
 695              	.LFE47:
 696              		.size	_ZNK3r2p12StaticQueue_8get_tailEv, .-_ZNK3r2p12StaticQueue_8get_tailEv
 697              		.align	2
 698              		.global	_ZNK3r2p12StaticQueue_8is_emptyEv
 699              		.thumb
 700              		.thumb_func
 701              		.type	_ZNK3r2p12StaticQueue_8is_emptyEv, %function
 702              	_ZNK3r2p12StaticQueue_8is_emptyEv:
 703              	.LFB48:
 704              		.loc 5 99 0
 705              		.cfi_startproc
 706              		@ args = 0, pretend = 0, frame = 16
 707              		@ frame_needed = 0, uses_anonymous_args = 0
 708 0214 00B5     		push	{lr}
 709              		.cfi_def_cfa_offset 4
 710              		.cfi_offset 14, -4
 711 0216 85B0     		sub	sp, sp, #20
 712              		.cfi_def_cfa_offset 24
 713 0218 0190     		str	r0, [sp, #4]
 714              	.LBB16:
 715              		.loc 5 101 0
 716 021a FFF7FEFF 		bl	_ZN3r2p7SysLock7acquireEv
 717              		.loc 5 102 0
 718 021e 0198     		ldr	r0, [sp, #4]
 719 0220 FFF7FEFF 		bl	_ZNK3r2p12StaticQueue_15is_empty_unsafeEv
 720 0224 0346     		mov	r3, r0
 721 0226 8DF80F30 		strb	r3, [sp, #15]
 722              		.loc 5 103 0
 723 022a FFF7FEFF 		bl	_ZN3r2p7SysLock7releaseEv
 724              		.loc 5 104 0
 725 022e 9DF80F30 		ldrb	r3, [sp, #15]	@ zero_extendqisi2
 726              	.LBE16:
 727              		.loc 5 105 0
 728 0232 1846     		mov	r0, r3
 729 0234 05B0     		add	sp, sp, #20
 730              		.cfi_def_cfa_offset 4
 731              		@ sp needed
 732 0236 5DF804FB 		ldr	pc, [sp], #4
 733              		.cfi_endproc
 734              	.LFE48:
 735              		.size	_ZNK3r2p12StaticQueue_8is_emptyEv, .-_ZNK3r2p12StaticQueue_8is_emptyEv
 736 023a 00BF     		.align	2
 737              		.global	_ZN3r2p12StaticQueue_4postERNS0_4LinkE
 738              		.thumb
ARM GAS  /tmp/ccp6ki2O.s 			page 14


 739              		.thumb_func
 740              		.type	_ZN3r2p12StaticQueue_4postERNS0_4LinkE, %function
 741              	_ZN3r2p12StaticQueue_4postERNS0_4LinkE:
 742              	.LFB49:
 743              		.loc 5 108 0
 744              		.cfi_startproc
 745              		@ args = 0, pretend = 0, frame = 8
 746              		@ frame_needed = 0, uses_anonymous_args = 0
 747 023c 00B5     		push	{lr}
 748              		.cfi_def_cfa_offset 4
 749              		.cfi_offset 14, -4
 750 023e 83B0     		sub	sp, sp, #12
 751              		.cfi_def_cfa_offset 16
 752 0240 0190     		str	r0, [sp, #4]
 753 0242 0091     		str	r1, [sp]
 754              		.loc 5 110 0
 755 0244 FFF7FEFF 		bl	_ZN3r2p7SysLock7acquireEv
 756              		.loc 5 111 0
 757 0248 0198     		ldr	r0, [sp, #4]
 758 024a 0099     		ldr	r1, [sp]
 759 024c FFF7FEFF 		bl	_ZN3r2p12StaticQueue_11post_unsafeERNS0_4LinkE
 760              		.loc 5 112 0
 761 0250 FFF7FEFF 		bl	_ZN3r2p7SysLock7releaseEv
 762              		.loc 5 113 0
 763 0254 03B0     		add	sp, sp, #12
 764              		.cfi_def_cfa_offset 4
 765              		@ sp needed
 766 0256 5DF804FB 		ldr	pc, [sp], #4
 767              		.cfi_endproc
 768              	.LFE49:
 769              		.size	_ZN3r2p12StaticQueue_4postERNS0_4LinkE, .-_ZN3r2p12StaticQueue_4postERNS0_4LinkE
 770 025a 00BF     		.align	2
 771              		.global	_ZNK3r2p12StaticQueue_4peekERPKNS0_4LinkE
 772              		.thumb
 773              		.thumb_func
 774              		.type	_ZNK3r2p12StaticQueue_4peekERPKNS0_4LinkE, %function
 775              	_ZNK3r2p12StaticQueue_4peekERPKNS0_4LinkE:
 776              	.LFB50:
 777              		.loc 5 116 0
 778              		.cfi_startproc
 779              		@ args = 0, pretend = 0, frame = 16
 780              		@ frame_needed = 0, uses_anonymous_args = 0
 781 025c 00B5     		push	{lr}
 782              		.cfi_def_cfa_offset 4
 783              		.cfi_offset 14, -4
 784 025e 85B0     		sub	sp, sp, #20
 785              		.cfi_def_cfa_offset 24
 786 0260 0190     		str	r0, [sp, #4]
 787 0262 0091     		str	r1, [sp]
 788              	.LBB17:
 789              		.loc 5 118 0
 790 0264 FFF7FEFF 		bl	_ZN3r2p7SysLock7acquireEv
 791              		.loc 5 119 0
 792 0268 0198     		ldr	r0, [sp, #4]
 793 026a 0099     		ldr	r1, [sp]
 794 026c FFF7FEFF 		bl	_ZNK3r2p12StaticQueue_11peek_unsafeERPKNS0_4LinkE
 795 0270 0346     		mov	r3, r0
ARM GAS  /tmp/ccp6ki2O.s 			page 15


 796 0272 8DF80F30 		strb	r3, [sp, #15]
 797              		.loc 5 120 0
 798 0276 FFF7FEFF 		bl	_ZN3r2p7SysLock7releaseEv
 799              		.loc 5 121 0
 800 027a 9DF80F30 		ldrb	r3, [sp, #15]	@ zero_extendqisi2
 801              	.LBE17:
 802              		.loc 5 122 0
 803 027e 1846     		mov	r0, r3
 804 0280 05B0     		add	sp, sp, #20
 805              		.cfi_def_cfa_offset 4
 806              		@ sp needed
 807 0282 5DF804FB 		ldr	pc, [sp], #4
 808              		.cfi_endproc
 809              	.LFE50:
 810              		.size	_ZNK3r2p12StaticQueue_4peekERPKNS0_4LinkE, .-_ZNK3r2p12StaticQueue_4peekERPKNS0_4LinkE
 811 0286 00BF     		.align	2
 812              		.global	_ZN3r2p12StaticQueue_5fetchERNS0_4LinkE
 813              		.thumb
 814              		.thumb_func
 815              		.type	_ZN3r2p12StaticQueue_5fetchERNS0_4LinkE, %function
 816              	_ZN3r2p12StaticQueue_5fetchERNS0_4LinkE:
 817              	.LFB51:
 818              		.loc 5 125 0
 819              		.cfi_startproc
 820              		@ args = 0, pretend = 0, frame = 16
 821              		@ frame_needed = 0, uses_anonymous_args = 0
 822 0288 00B5     		push	{lr}
 823              		.cfi_def_cfa_offset 4
 824              		.cfi_offset 14, -4
 825 028a 85B0     		sub	sp, sp, #20
 826              		.cfi_def_cfa_offset 24
 827 028c 0190     		str	r0, [sp, #4]
 828 028e 0091     		str	r1, [sp]
 829              	.LBB18:
 830              		.loc 5 127 0
 831 0290 FFF7FEFF 		bl	_ZN3r2p7SysLock7acquireEv
 832              		.loc 5 128 0
 833 0294 0198     		ldr	r0, [sp, #4]
 834 0296 0099     		ldr	r1, [sp]
 835 0298 FFF7FEFF 		bl	_ZN3r2p12StaticQueue_12fetch_unsafeERNS0_4LinkE
 836 029c 0346     		mov	r3, r0
 837 029e 8DF80F30 		strb	r3, [sp, #15]
 838              		.loc 5 129 0
 839 02a2 FFF7FEFF 		bl	_ZN3r2p7SysLock7releaseEv
 840              		.loc 5 130 0
 841 02a6 9DF80F30 		ldrb	r3, [sp, #15]	@ zero_extendqisi2
 842              	.LBE18:
 843              		.loc 5 131 0
 844 02aa 1846     		mov	r0, r3
 845 02ac 05B0     		add	sp, sp, #20
 846              		.cfi_def_cfa_offset 4
 847              		@ sp needed
 848 02ae 5DF804FB 		ldr	pc, [sp], #4
 849              		.cfi_endproc
 850              	.LFE51:
 851              		.size	_ZN3r2p12StaticQueue_5fetchERNS0_4LinkE, .-_ZN3r2p12StaticQueue_5fetchERNS0_4LinkE
 852 02b2 00BF     		.align	2
ARM GAS  /tmp/ccp6ki2O.s 			page 16


 853              		.global	_ZN3r2p12StaticQueue_4skipEv
 854              		.thumb
 855              		.thumb_func
 856              		.type	_ZN3r2p12StaticQueue_4skipEv, %function
 857              	_ZN3r2p12StaticQueue_4skipEv:
 858              	.LFB52:
 859              		.loc 5 134 0
 860              		.cfi_startproc
 861              		@ args = 0, pretend = 0, frame = 16
 862              		@ frame_needed = 0, uses_anonymous_args = 0
 863 02b4 00B5     		push	{lr}
 864              		.cfi_def_cfa_offset 4
 865              		.cfi_offset 14, -4
 866 02b6 85B0     		sub	sp, sp, #20
 867              		.cfi_def_cfa_offset 24
 868 02b8 0190     		str	r0, [sp, #4]
 869              	.LBB19:
 870              		.loc 5 136 0
 871 02ba FFF7FEFF 		bl	_ZN3r2p7SysLock7acquireEv
 872              		.loc 5 137 0
 873 02be 0198     		ldr	r0, [sp, #4]
 874 02c0 FFF7FEFF 		bl	_ZN3r2p12StaticQueue_11skip_unsafeEv
 875 02c4 0346     		mov	r3, r0
 876 02c6 8DF80F30 		strb	r3, [sp, #15]
 877              		.loc 5 138 0
 878 02ca FFF7FEFF 		bl	_ZN3r2p7SysLock7releaseEv
 879              		.loc 5 139 0
 880 02ce 9DF80F30 		ldrb	r3, [sp, #15]	@ zero_extendqisi2
 881              	.LBE19:
 882              		.loc 5 140 0
 883 02d2 1846     		mov	r0, r3
 884 02d4 05B0     		add	sp, sp, #20
 885              		.cfi_def_cfa_offset 4
 886              		@ sp needed
 887 02d6 5DF804FB 		ldr	pc, [sp], #4
 888              		.cfi_endproc
 889              	.LFE52:
 890              		.size	_ZN3r2p12StaticQueue_4skipEv, .-_ZN3r2p12StaticQueue_4skipEv
 891 02da 00BF     		.align	2
 892              		.global	_ZN3r2p12StaticQueue_C2Ev
 893              		.thumb
 894              		.thumb_func
 895              		.type	_ZN3r2p12StaticQueue_C2Ev, %function
 896              	_ZN3r2p12StaticQueue_C2Ev:
 897              	.LFB54:
 898              		.loc 5 143 0
 899              		.cfi_startproc
 900              		@ args = 0, pretend = 0, frame = 8
 901              		@ frame_needed = 0, uses_anonymous_args = 0
 902 02dc 00B5     		push	{lr}
 903              		.cfi_def_cfa_offset 4
 904              		.cfi_offset 14, -4
 905 02de 83B0     		sub	sp, sp, #12
 906              		.cfi_def_cfa_offset 16
 907 02e0 0190     		str	r0, [sp, #4]
 908              	.LBB20:
 909              		.loc 5 146 0
ARM GAS  /tmp/ccp6ki2O.s 			page 17


 910 02e2 0198     		ldr	r0, [sp, #4]
 911 02e4 FFF7FEFF 		bl	_ZN3r2p10UncopyableC2Ev
 912 02e8 019B     		ldr	r3, [sp, #4]
 913 02ea 0022     		movs	r2, #0
 914 02ec 1A60     		str	r2, [r3]
 915 02ee 019B     		ldr	r3, [sp, #4]
 916 02f0 0022     		movs	r2, #0
 917 02f2 5A60     		str	r2, [r3, #4]
 918              	.LBE20:
 919              		.loc 5 147 0
 920 02f4 019B     		ldr	r3, [sp, #4]
 921 02f6 1846     		mov	r0, r3
 922 02f8 03B0     		add	sp, sp, #12
 923              		.cfi_def_cfa_offset 4
 924              		@ sp needed
 925 02fa 5DF804FB 		ldr	pc, [sp], #4
 926              		.cfi_endproc
 927              	.LFE54:
 928              		.size	_ZN3r2p12StaticQueue_C2Ev, .-_ZN3r2p12StaticQueue_C2Ev
 929              		.global	_ZN3r2p12StaticQueue_C1Ev
 930              		.thumb_set _ZN3r2p12StaticQueue_C1Ev,_ZN3r2p12StaticQueue_C2Ev
 931              	.Letext0:
 932              		.file 6 "/opt/R2P/tools/gcc-arm-none-eabi-4_9-2014q4/lib/gcc/arm-none-eabi/4.9.3/include/stddef.h"
 933              		.file 7 "/opt/R2P/tools/gcc-arm-none-eabi-4_9-2014q4/arm-none-eabi/include/machine/_default_types.
 934              		.file 8 "/opt/R2P/tools/gcc-arm-none-eabi-4_9-2014q4/arm-none-eabi/include/c++/4.9.3/cstring"
 935              		.file 9 "/opt/R2P/tools/gcc-arm-none-eabi-4_9-2014q4/arm-none-eabi/include/string.h"
 936              		.file 10 "<built-in>"
 937              		.file 11 "/opt/R2P/tools/gcc-arm-none-eabi-4_9-2014q4/arm-none-eabi/include/stdint.h"