ARM GAS  /tmp/ccp6ki2O.s 			page 1


   1              		.syntax unified
   2              		.cpu cortex-m4
   3              		.fpu softvfp
   4              		.eabi_attribute 20, 1
   5              		.eabi_attribute 21, 1
   6              		.eabi_attribute 23, 3
   7              		.eabi_attribute 24, 1
   8              		.eabi_attribute 25, 1
   9              		.eabi_attribute 26, 1
  10              		.eabi_attribute 30, 6
  11              		.eabi_attribute 34, 1
  12              		.eabi_attribute 18, 4
  13              		.thumb
  14              		.file	"StaticQueue_.cpp"
  15              		.text
  16              	.Ltext0:
  17              		.cfi_sections	.debug_frame
  18              		.section	.text._ZN3r2p10UncopyableC2Ev,"axG",%progbits,_ZN3r2p10UncopyableC5Ev,comdat
  19              		.align	2
  20              		.weak	_ZN3r2p10UncopyableC2Ev
  21              		.thumb
  22              		.thumb_func
  23              		.type	_ZN3r2p10UncopyableC2Ev, %function
  24              	_ZN3r2p10UncopyableC2Ev:
  25              	.LFB6:
  26              		.file 1 "/opt/R2P/core/Middleware/include/r2p/Uncopyable.hpp"
  27              		.loc 1 20 0
  28              		.cfi_startproc
  29              		@ args = 0, pretend = 0, frame = 8
  30              		@ frame_needed = 0, uses_anonymous_args = 0
  31              		@ link register save eliminated.
  32 0000 82B0     		sub	sp, sp, #8
  33              		.cfi_def_cfa_offset 8
  34 0002 0190     		str	r0, [sp, #4]
  35              		.loc 1 20 0
  36 0004 019B     		ldr	r3, [sp, #4]
  37 0006 1846     		mov	r0, r3
  38 0008 02B0     		add	sp, sp, #8
  39              		.cfi_def_cfa_offset 0
  40              		@ sp needed
  41 000a 7047     		bx	lr
  42              		.cfi_endproc
  43              	.LFE6:
  44              		.size	_ZN3r2p10UncopyableC2Ev, .-_ZN3r2p10UncopyableC2Ev
  45              		.weak	_ZN3r2p10UncopyableC1Ev
  46              		.thumb_set _ZN3r2p10UncopyableC1Ev,_ZN3r2p10UncopyableC2Ev
  47              		.section	.text._ZN3r2p8SysLock_7acquireEv,"axG",%progbits,_ZN3r2p8SysLock_7acquireEv,comdat
  48              		.align	2
  49              		.weak	_ZN3r2p8SysLock_7acquireEv
  50              		.thumb
  51              		.thumb_func
  52              		.type	_ZN3r2p8SysLock_7acquireEv, %function
  53              	_ZN3r2p8SysLock_7acquireEv:
  54              	.LFB18:
  55              		.file 2 "/opt/R2P/core/Middleware/port/chibios/include/r2p/impl/SysLock_.hpp"
  56              		.loc 2 20 0
  57              		.cfi_startproc
ARM GAS  /tmp/ccp6ki2O.s 			page 2


  58              		@ args = 0, pretend = 0, frame = 0
  59              		@ frame_needed = 0, uses_anonymous_args = 0
  60 0000 08B5     		push	{r3, lr}
  61              		.cfi_def_cfa_offset 8
  62              		.cfi_offset 3, -8
  63              		.cfi_offset 14, -4
  64              	.LBB2:
  65              	.LBB3:
  66              	.LBB4:
  67              		.loc 2 22 0
  68 0002 2023     		movs	r3, #32
  69              	@ 22 "/opt/R2P/core/Middleware/port/chibios/include/r2p/impl/SysLock_.hpp" 1
  70 0004 83F31188 		msr     BASEPRI, r3
  71              	@ 0 "" 2
  72              		.thumb
  73              	.LBE4:
  74 0008 FFF7FEFF 		bl	dbg_check_lock
  75              	.LBE3:
  76              	.LBE2:
  77              		.loc 2 23 0
  78 000c 08BD     		pop	{r3, pc}
  79              		.cfi_endproc
  80              	.LFE18:
  81              		.size	_ZN3r2p8SysLock_7acquireEv, .-_ZN3r2p8SysLock_7acquireEv
  82 000e 00BF     		.section	.text._ZN3r2p8SysLock_7releaseEv,"axG",%progbits,_ZN3r2p8SysLock_7releaseEv,comdat
  83              		.align	2
  84              		.weak	_ZN3r2p8SysLock_7releaseEv
  85              		.thumb
  86              		.thumb_func
  87              		.type	_ZN3r2p8SysLock_7releaseEv, %function
  88              	_ZN3r2p8SysLock_7releaseEv:
  89              	.LFB19:
  90              		.loc 2 27 0
  91              		.cfi_startproc
  92              		@ args = 0, pretend = 0, frame = 0
  93              		@ frame_needed = 0, uses_anonymous_args = 0
  94 0000 08B5     		push	{r3, lr}
  95              		.cfi_def_cfa_offset 8
  96              		.cfi_offset 3, -8
  97              		.cfi_offset 14, -4
  98              	.LBB5:
  99              	.LBB6:
 100              		.loc 2 29 0
 101 0002 FFF7FEFF 		bl	dbg_check_unlock
 102              	.LBB7:
 103 0006 0023     		movs	r3, #0
 104              	@ 29 "/opt/R2P/core/Middleware/port/chibios/include/r2p/impl/SysLock_.hpp" 1
 105 0008 83F31188 		msr     BASEPRI, r3
 106              	@ 0 "" 2
 107              		.thumb
 108              	.LBE7:
 109              	.LBE6:
 110              	.LBE5:
 111              		.loc 2 30 0
 112 000c 08BD     		pop	{r3, pc}
 113              		.cfi_endproc
 114              	.LFE19:
ARM GAS  /tmp/ccp6ki2O.s 			page 3


 115              		.size	_ZN3r2p8SysLock_7releaseEv, .-_ZN3r2p8SysLock_7releaseEv
 116 000e 00BF     		.section	.text._ZN3r2p7SysLock7acquireEv,"axG",%progbits,_ZN3r2p7SysLock7acquireEv,comdat
 117              		.align	2
 118              		.weak	_ZN3r2p7SysLock7acquireEv
 119              		.thumb
 120              		.thumb_func
 121              		.type	_ZN3r2p7SysLock7acquireEv, %function
 122              	_ZN3r2p7SysLock7acquireEv:
 123              	.LFB26:
 124              		.file 3 "/opt/R2P/core/Middleware/include/r2p/SysLock.hpp"
 125              		.loc 3 27 0
 126              		.cfi_startproc
 127              		@ args = 0, pretend = 0, frame = 0
 128              		@ frame_needed = 0, uses_anonymous_args = 0
 129 0000 08B5     		push	{r3, lr}
 130              		.cfi_def_cfa_offset 8
 131              		.cfi_offset 3, -8
 132              		.cfi_offset 14, -4
 133              		.loc 3 29 0
 134 0002 FFF7FEFF 		bl	_ZN3r2p8SysLock_7acquireEv
 135              		.loc 3 30 0
 136 0006 08BD     		pop	{r3, pc}
 137              		.cfi_endproc
 138              	.LFE26:
 139              		.size	_ZN3r2p7SysLock7acquireEv, .-_ZN3r2p7SysLock7acquireEv
 140              		.section	.text._ZN3r2p7SysLock7releaseEv,"axG",%progbits,_ZN3r2p7SysLock7releaseEv,comdat
 141              		.align	2
 142              		.weak	_ZN3r2p7SysLock7releaseEv
 143              		.thumb
 144              		.thumb_func
 145              		.type	_ZN3r2p7SysLock7releaseEv, %function
 146              	_ZN3r2p7SysLock7releaseEv:
 147              	.LFB27:
 148              		.loc 3 34 0
 149              		.cfi_startproc
 150              		@ args = 0, pretend = 0, frame = 0
 151              		@ frame_needed = 0, uses_anonymous_args = 0
 152 0000 08B5     		push	{r3, lr}
 153              		.cfi_def_cfa_offset 8
 154              		.cfi_offset 3, -8
 155              		.cfi_offset 14, -4
 156              		.loc 3 36 0
 157 0002 FFF7FEFF 		bl	_ZN3r2p8SysLock_7releaseEv
 158              		.loc 3 37 0
 159 0006 08BD     		pop	{r3, pc}
 160              		.cfi_endproc
 161              	.LFE27:
 162              		.size	_ZN3r2p7SysLock7releaseEv, .-_ZN3r2p7SysLock7releaseEv
 163              		.section	.text._ZNK3r2p12StaticQueue_15is_empty_unsafeEv,"axG",%progbits,_ZNK3r2p12StaticQueue_15i
 164              		.align	2
 165              		.weak	_ZNK3r2p12StaticQueue_15is_empty_unsafeEv
 166              		.thumb
 167              		.thumb_func
 168              		.type	_ZNK3r2p12StaticQueue_15is_empty_unsafeEv, %function
 169              	_ZNK3r2p12StaticQueue_15is_empty_unsafeEv:
 170              	.LFB39:
 171              		.file 4 "/opt/R2P/core/Middleware/include/r2p/impl/StaticQueue_.hpp"
ARM GAS  /tmp/ccp6ki2O.s 			page 4


 172              		.loc 4 49 0
 173              		.cfi_startproc
 174              		@ args = 0, pretend = 0, frame = 8
 175              		@ frame_needed = 0, uses_anonymous_args = 0
 176              		@ link register save eliminated.
 177 0000 82B0     		sub	sp, sp, #8
 178              		.cfi_def_cfa_offset 8
 179 0002 0190     		str	r0, [sp, #4]
 180              		.loc 4 51 0
 181 0004 019B     		ldr	r3, [sp, #4]
 182 0006 1B68     		ldr	r3, [r3]
 183 0008 002B     		cmp	r3, #0
 184 000a 0CBF     		ite	eq
 185 000c 0123     		moveq	r3, #1
 186 000e 0023     		movne	r3, #0
 187 0010 DBB2     		uxtb	r3, r3
 188              		.loc 4 52 0
 189 0012 1846     		mov	r0, r3
 190 0014 02B0     		add	sp, sp, #8
 191              		.cfi_def_cfa_offset 0
 192              		@ sp needed
 193 0016 7047     		bx	lr
 194              		.cfi_endproc
 195              	.LFE39:
 196              		.size	_ZNK3r2p12StaticQueue_15is_empty_unsafeEv, .-_ZNK3r2p12StaticQueue_15is_empty_unsafeEv
 197              		.text
 198              		.align	2
 199              		.global	_ZNK3r2p12StaticQueue_15get_head_unsafeEv
 200              		.thumb
 201              		.thumb_func
 202              		.type	_ZNK3r2p12StaticQueue_15get_head_unsafeEv, %function
 203              	_ZNK3r2p12StaticQueue_15get_head_unsafeEv:
 204              	.LFB40:
 205              		.file 5 "/opt/R2P/core/Middleware/src/impl/StaticQueue_.cpp"
 206              		.loc 5 7 0
 207              		.cfi_startproc
 208              		@ args = 0, pretend = 0, frame = 8
 209              		@ frame_needed = 0, uses_anonymous_args = 0
 210              		@ link register save eliminated.
 211 0000 82B0     		sub	sp, sp, #8
 212              		.cfi_def_cfa_offset 8
 213 0002 0190     		str	r0, [sp, #4]
 214              		.loc 5 9 0
 215 0004 019B     		ldr	r3, [sp, #4]
 216 0006 1B68     		ldr	r3, [r3]
 217              		.loc 5 10 0
 218 0008 1846     		mov	r0, r3
 219 000a 02B0     		add	sp, sp, #8
 220              		.cfi_def_cfa_offset 0
 221              		@ sp needed
 222 000c 7047     		bx	lr
 223              		.cfi_endproc
 224              	.LFE40:
 225              		.size	_ZNK3r2p12StaticQueue_15get_head_unsafeEv, .-_ZNK3r2p12StaticQueue_15get_head_unsafeEv
 226 000e 00BF     		.align	2
 227              		.global	_ZNK3r2p12StaticQueue_15get_tail_unsafeEv
 228              		.thumb
ARM GAS  /tmp/ccp6ki2O.s 			page 5


 229              		.thumb_func
 230              		.type	_ZNK3r2p12StaticQueue_15get_tail_unsafeEv, %function
 231              	_ZNK3r2p12StaticQueue_15get_tail_unsafeEv:
 232              	.LFB41:
 233              		.loc 5 13 0
 234              		.cfi_startproc
 235              		@ args = 0, pretend = 0, frame = 8
 236              		@ frame_needed = 0, uses_anonymous_args = 0
 237              		@ link register save eliminated.
 238 0010 82B0     		sub	sp, sp, #8
 239              		.cfi_def_cfa_offset 8
 240 0012 0190     		str	r0, [sp, #4]
 241              		.loc 5 15 0
 242 0014 019B     		ldr	r3, [sp, #4]
 243 0016 5B68     		ldr	r3, [r3, #4]
 244              		.loc 5 16 0
 245 0018 1846     		mov	r0, r3
 246 001a 02B0     		add	sp, sp, #8
 247              		.cfi_def_cfa_offset 0
 248              		@ sp needed
 249 001c 7047     		bx	lr
 250              		.cfi_endproc
 251              	.LFE41:
 252              		.size	_ZNK3r2p12StaticQueue_15get_tail_unsafeEv, .-_ZNK3r2p12StaticQueue_15get_tail_unsafeEv
 253              		.section	.rodata
 254              		.align	2
 255              	.LC0:
 256 0000 5232505F 		.ascii	"R2P_ASSERT()\000"
 256      41535345 
 256      52542829 
 256      00
 257 000d 000000   		.text
 258 001e 00BF     		.align	2
 259              		.global	_ZN3r2p12StaticQueue_11post_unsafeERNS0_4LinkE
 260              		.thumb
 261              		.thumb_func
 262              		.type	_ZN3r2p12StaticQueue_11post_unsafeERNS0_4LinkE, %function
 263              	_ZN3r2p12StaticQueue_11post_unsafeERNS0_4LinkE:
 264              	.LFB42:
 265              		.loc 5 19 0
 266              		.cfi_startproc
 267              		@ args = 0, pretend = 0, frame = 8
 268              		@ frame_needed = 0, uses_anonymous_args = 0
 269 0020 00B5     		push	{lr}
 270              		.cfi_def_cfa_offset 4
 271              		.cfi_offset 14, -4
 272 0022 83B0     		sub	sp, sp, #12
 273              		.cfi_def_cfa_offset 16
 274 0024 0190     		str	r0, [sp, #4]
 275 0026 0091     		str	r1, [sp]
 276              		.loc 5 21 0
 277 0028 019B     		ldr	r3, [sp, #4]
 278 002a 1B68     		ldr	r3, [r3]
 279 002c 002B     		cmp	r3, #0
 280 002e 14BF     		ite	ne
 281 0030 0123     		movne	r3, #1
 282 0032 0023     		moveq	r3, #0
ARM GAS  /tmp/ccp6ki2O.s 			page 6


 283 0034 DAB2     		uxtb	r2, r3
 284 0036 019B     		ldr	r3, [sp, #4]
 285 0038 5B68     		ldr	r3, [r3, #4]
 286 003a 002B     		cmp	r3, #0
 287 003c 14BF     		ite	ne
 288 003e 0123     		movne	r3, #1
 289 0040 0023     		moveq	r3, #0
 290 0042 DBB2     		uxtb	r3, r3
 291 0044 5340     		eors	r3, r3, r2
 292 0046 DBB2     		uxtb	r3, r3
 293 0048 002B     		cmp	r3, #0
 294 004a 02D0     		beq	.L15
 295              		.loc 5 21 0 is_stmt 0 discriminator 1
 296 004c 1348     		ldr	r0, .L20
 297 004e FFF7FEFF 		bl	chDbgPanic
 298              	.L15:
 299              		.loc 5 22 0 is_stmt 1
 300 0052 009B     		ldr	r3, [sp]
 301 0054 1B68     		ldr	r3, [r3]
 302 0056 002B     		cmp	r3, #0
 303 0058 02D0     		beq	.L16
 304              		.loc 5 22 0 is_stmt 0 discriminator 1
 305 005a 1048     		ldr	r0, .L20
 306 005c FFF7FEFF 		bl	chDbgPanic
 307              	.L16:
 308              		.loc 5 24 0 is_stmt 1
 309 0060 019B     		ldr	r3, [sp, #4]
 310 0062 5B68     		ldr	r3, [r3, #4]
 311 0064 002B     		cmp	r3, #0
 312 0066 0FD0     		beq	.L17
 313              		.loc 5 25 0
 314 0068 019B     		ldr	r3, [sp, #4]
 315 006a 5B68     		ldr	r3, [r3, #4]
 316 006c 1B68     		ldr	r3, [r3]
 317 006e 002B     		cmp	r3, #0
 318 0070 02D0     		beq	.L18
 319              		.loc 5 25 0 is_stmt 0 discriminator 1
 320 0072 0A48     		ldr	r0, .L20
 321 0074 FFF7FEFF 		bl	chDbgPanic
 322              	.L18:
 323              		.loc 5 26 0 is_stmt 1
 324 0078 019B     		ldr	r3, [sp, #4]
 325 007a 5B68     		ldr	r3, [r3, #4]
 326 007c 009A     		ldr	r2, [sp]
 327 007e 1A60     		str	r2, [r3]
 328              		.loc 5 27 0
 329 0080 019B     		ldr	r3, [sp, #4]
 330 0082 009A     		ldr	r2, [sp]
 331 0084 5A60     		str	r2, [r3, #4]
 332 0086 06E0     		b	.L14
 333              	.L17:
 334              		.loc 5 29 0
 335 0088 019B     		ldr	r3, [sp, #4]
 336 008a 009A     		ldr	r2, [sp]
 337 008c 5A60     		str	r2, [r3, #4]
 338 008e 019B     		ldr	r3, [sp, #4]
 339 0090 5A68     		ldr	r2, [r3, #4]
ARM GAS  /tmp/ccp6ki2O.s 			page 7


 340 0092 019B     		ldr	r3, [sp, #4]
 341 0094 1A60     		str	r2, [r3]
 342              	.L14:
 343              		.loc 5 31 0
 344 0096 03B0     		add	sp, sp, #12
 345              		.cfi_def_cfa_offset 4
 346              		@ sp needed
 347 0098 5DF804FB 		ldr	pc, [sp], #4
 348              	.L21:
 349              		.align	2
 350              	.L20:
 351 009c 00000000 		.word	.LC0
 352              		.cfi_endproc
 353              	.LFE42:
 354              		.size	_ZN3r2p12StaticQueue_11post_unsafeERNS0_4LinkE, .-_ZN3r2p12StaticQueue_11post_unsafeERNS0_4L
 355              		.align	2
 356              		.global	_ZNK3r2p12StaticQueue_11peek_unsafeERPKNS0_4LinkE
 357              		.thumb
 358              		.thumb_func
 359              		.type	_ZNK3r2p12StaticQueue_11peek_unsafeERPKNS0_4LinkE, %function
 360              	_ZNK3r2p12StaticQueue_11peek_unsafeERPKNS0_4LinkE:
 361              	.LFB43:
 362              		.loc 5 34 0
 363              		.cfi_startproc
 364              		@ args = 0, pretend = 0, frame = 8
 365              		@ frame_needed = 0, uses_anonymous_args = 0
 366 00a0 00B5     		push	{lr}
 367              		.cfi_def_cfa_offset 4
 368              		.cfi_offset 14, -4
 369 00a2 83B0     		sub	sp, sp, #12
 370              		.cfi_def_cfa_offset 16
 371 00a4 0190     		str	r0, [sp, #4]
 372 00a6 0091     		str	r1, [sp]
 373              		.loc 5 36 0
 374 00a8 019B     		ldr	r3, [sp, #4]
 375 00aa 1B68     		ldr	r3, [r3]
 376 00ac 002B     		cmp	r3, #0
 377 00ae 14BF     		ite	ne
 378 00b0 0123     		movne	r3, #1
 379 00b2 0023     		moveq	r3, #0
 380 00b4 DAB2     		uxtb	r2, r3
 381 00b6 019B     		ldr	r3, [sp, #4]
 382 00b8 5B68     		ldr	r3, [r3, #4]
 383 00ba 002B     		cmp	r3, #0
 384 00bc 14BF     		ite	ne
 385 00be 0123     		movne	r3, #1
 386 00c0 0023     		moveq	r3, #0
 387 00c2 DBB2     		uxtb	r3, r3
 388 00c4 5340     		eors	r3, r3, r2
 389 00c6 DBB2     		uxtb	r3, r3
 390 00c8 002B     		cmp	r3, #0
 391 00ca 02D0     		beq	.L23
 392              		.loc 5 36 0 is_stmt 0 discriminator 1
 393 00cc 0848     		ldr	r0, .L26
 394 00ce FFF7FEFF 		bl	chDbgPanic
 395              	.L23:
 396              		.loc 5 38 0 is_stmt 1
ARM GAS  /tmp/ccp6ki2O.s 			page 8


 397 00d2 019B     		ldr	r3, [sp, #4]
 398 00d4 1B68     		ldr	r3, [r3]
 399 00d6 002B     		cmp	r3, #0
 400 00d8 05D0     		beq	.L24
 401              		.loc 5 39 0
 402 00da 019B     		ldr	r3, [sp, #4]
 403 00dc 1A68     		ldr	r2, [r3]
 404 00de 009B     		ldr	r3, [sp]
 405 00e0 1A60     		str	r2, [r3]
 406              		.loc 5 40 0
 407 00e2 0123     		movs	r3, #1
 408 00e4 00E0     		b	.L25
 409              	.L24:
 410              		.loc 5 42 0
 411 00e6 0023     		movs	r3, #0
 412              	.L25:
 413              		.loc 5 43 0
 414 00e8 1846     		mov	r0, r3
 415 00ea 03B0     		add	sp, sp, #12
 416              		.cfi_def_cfa_offset 4
 417              		@ sp needed
 418 00ec 5DF804FB 		ldr	pc, [sp], #4
 419              	.L27:
 420              		.align	2
 421              	.L26:
 422 00f0 00000000 		.word	.LC0
 423              		.cfi_endproc
 424              	.LFE43:
 425              		.size	_ZNK3r2p12StaticQueue_11peek_unsafeERPKNS0_4LinkE, .-_ZNK3r2p12StaticQueue_11peek_unsafeERPK
 426              		.align	2
 427              		.global	_ZN3r2p12StaticQueue_12fetch_unsafeERNS0_4LinkE
 428              		.thumb
 429              		.thumb_func
 430              		.type	_ZN3r2p12StaticQueue_12fetch_unsafeERNS0_4LinkE, %function
 431              	_ZN3r2p12StaticQueue_12fetch_unsafeERNS0_4LinkE:
 432              	.LFB44:
 433              		.loc 5 46 0
 434              		.cfi_startproc
 435              		@ args = 0, pretend = 0, frame = 8
 436              		@ frame_needed = 0, uses_anonymous_args = 0
 437 00f4 10B5     		push	{r4, lr}
 438              		.cfi_def_cfa_offset 8
 439              		.cfi_offset 4, -8
 440              		.cfi_offset 14, -4
 441 00f6 82B0     		sub	sp, sp, #8
 442              		.cfi_def_cfa_offset 16
 443 00f8 0190     		str	r0, [sp, #4]
 444 00fa 0091     		str	r1, [sp]
 445              	.LBB8:
 446              		.loc 5 48 0
 447 00fc 019B     		ldr	r3, [sp, #4]
 448 00fe 1B68     		ldr	r3, [r3]
 449 0100 002B     		cmp	r3, #0
 450 0102 14BF     		ite	ne
 451 0104 0123     		movne	r3, #1
 452 0106 0023     		moveq	r3, #0
 453 0108 DAB2     		uxtb	r2, r3
ARM GAS  /tmp/ccp6ki2O.s 			page 9


 454 010a 019B     		ldr	r3, [sp, #4]
 455 010c 5B68     		ldr	r3, [r3, #4]
 456 010e 002B     		cmp	r3, #0
 457 0110 14BF     		ite	ne
 458 0112 0123     		movne	r3, #1
 459 0114 0023     		moveq	r3, #0
 460 0116 DBB2     		uxtb	r3, r3
 461 0118 5340     		eors	r3, r3, r2
 462 011a DBB2     		uxtb	r3, r3
 463 011c 002B     		cmp	r3, #0
 464 011e 02D0     		beq	.L29
 465              		.loc 5 48 0 is_stmt 0 discriminator 1
 466 0120 1148     		ldr	r0, .L33
 467 0122 FFF7FEFF 		bl	chDbgPanic
 468              	.L29:
 469              	.LBB9:
 470              		.loc 5 50 0 is_stmt 1
 471 0126 019B     		ldr	r3, [sp, #4]
 472 0128 1B68     		ldr	r3, [r3]
 473 012a 002B     		cmp	r3, #0
 474 012c 18D0     		beq	.L30
 475              	.LBB10:
 476              		.loc 5 51 0
 477 012e 019B     		ldr	r3, [sp, #4]
 478 0130 1B68     		ldr	r3, [r3]
 479 0132 1C68     		ldr	r4, [r3]
 480              		.loc 5 52 0
 481 0134 019B     		ldr	r3, [sp, #4]
 482 0136 1B68     		ldr	r3, [r3]
 483 0138 0022     		movs	r2, #0
 484 013a 1A60     		str	r2, [r3]
 485              		.loc 5 53 0
 486 013c 019B     		ldr	r3, [sp, #4]
 487 013e 1A68     		ldr	r2, [r3]
 488 0140 009B     		ldr	r3, [sp]
 489 0142 92E80300 		ldmia	r2, {r0, r1}
 490 0146 83E80300 		stmia	r3, {r0, r1}
 491              		.loc 5 54 0
 492 014a 019B     		ldr	r3, [sp, #4]
 493 014c 1C60     		str	r4, [r3]
 494              		.loc 5 55 0
 495 014e 019B     		ldr	r3, [sp, #4]
 496 0150 1B68     		ldr	r3, [r3]
 497 0152 002B     		cmp	r3, #0
 498 0154 02D1     		bne	.L31
 499              		.loc 5 56 0
 500 0156 019B     		ldr	r3, [sp, #4]
 501 0158 0022     		movs	r2, #0
 502 015a 5A60     		str	r2, [r3, #4]
 503              	.L31:
 504              		.loc 5 58 0
 505 015c 0123     		movs	r3, #1
 506 015e 00E0     		b	.L32
 507              	.L30:
 508              	.LBE10:
 509              	.LBE9:
 510              		.loc 5 60 0
ARM GAS  /tmp/ccp6ki2O.s 			page 10


 511 0160 0023     		movs	r3, #0
 512              	.L32:
 513              	.LBE8:
 514              		.loc 5 61 0
 515 0162 1846     		mov	r0, r3
 516 0164 02B0     		add	sp, sp, #8
 517              		.cfi_def_cfa_offset 8
 518              		@ sp needed
 519 0166 10BD     		pop	{r4, pc}
 520              	.L34:
 521              		.align	2
 522              	.L33:
 523 0168 00000000 		.word	.LC0
 524              		.cfi_endproc
 525              	.LFE44:
 526              		.size	_ZN3r2p12StaticQueue_12fetch_unsafeERNS0_4LinkE, .-_ZN3r2p12StaticQueue_12fetch_unsafeERNS0_
 527              		.align	2
 528              		.global	_ZN3r2p12StaticQueue_11skip_unsafeEv
 529              		.thumb
 530              		.thumb_func
 531              		.type	_ZN3r2p12StaticQueue_11skip_unsafeEv, %function
 532              	_ZN3r2p12StaticQueue_11skip_unsafeEv:
 533              	.LFB45:
 534              		.loc 5 64 0
 535              		.cfi_startproc
 536              		@ args = 0, pretend = 0, frame = 8
 537              		@ frame_needed = 0, uses_anonymous_args = 0
 538 016c 10B5     		push	{r4, lr}
 539              		.cfi_def_cfa_offset 8
 540              		.cfi_offset 4, -8
 541              		.cfi_offset 14, -4
 542 016e 82B0     		sub	sp, sp, #8
 543              		.cfi_def_cfa_offset 16
 544 0170 0190     		str	r0, [sp, #4]
 545              	.LBB11:
 546              		.loc 5 66 0
 547 0172 019B     		ldr	r3, [sp, #4]
 548 0174 1B68     		ldr	r3, [r3]
 549 0176 002B     		cmp	r3, #0
 550 0178 14BF     		ite	ne
 551 017a 0123     		movne	r3, #1
 552 017c 0023     		moveq	r3, #0
 553 017e DAB2     		uxtb	r2, r3
 554 0180 019B     		ldr	r3, [sp, #4]
 555 0182 5B68     		ldr	r3, [r3, #4]
 556 0184 002B     		cmp	r3, #0
 557 0186 14BF     		ite	ne
 558 0188 0123     		movne	r3, #1
 559 018a 0023     		moveq	r3, #0
 560 018c DBB2     		uxtb	r3, r3
 561 018e 5340     		eors	r3, r3, r2
 562 0190 DBB2     		uxtb	r3, r3
 563 0192 002B     		cmp	r3, #0
 564 0194 02D0     		beq	.L36
 565              		.loc 5 66 0 is_stmt 0 discriminator 1
 566 0196 0E48     		ldr	r0, .L40
 567 0198 FFF7FEFF 		bl	chDbgPanic
ARM GAS  /tmp/ccp6ki2O.s 			page 11


 568              	.L36:
 569              	.LBB12:
 570              		.loc 5 68 0 is_stmt 1
 571 019c 019B     		ldr	r3, [sp, #4]
 572 019e 1B68     		ldr	r3, [r3]
 573 01a0 002B     		cmp	r3, #0
 574 01a2 11D0     		beq	.L37
 575              	.LBB13:
 576              		.loc 5 69 0
 577 01a4 019B     		ldr	r3, [sp, #4]
 578 01a6 1B68     		ldr	r3, [r3]
 579 01a8 1C68     		ldr	r4, [r3]
 580              		.loc 5 70 0
 581 01aa 019B     		ldr	r3, [sp, #4]
 582 01ac 1B68     		ldr	r3, [r3]
 583 01ae 0022     		movs	r2, #0
 584 01b0 1A60     		str	r2, [r3]
 585              		.loc 5 71 0
 586 01b2 019B     		ldr	r3, [sp, #4]
 587 01b4 1C60     		str	r4, [r3]
 588              		.loc 5 72 0
 589 01b6 019B     		ldr	r3, [sp, #4]
 590 01b8 1B68     		ldr	r3, [r3]
 591 01ba 002B     		cmp	r3, #0
 592 01bc 02D1     		bne	.L38
 593              		.loc 5 73 0
 594 01be 019B     		ldr	r3, [sp, #4]
 595 01c0 0022     		movs	r2, #0
 596 01c2 5A60     		str	r2, [r3, #4]
 597              	.L38:
 598              		.loc 5 75 0
 599 01c4 0123     		movs	r3, #1
 600 01c6 00E0     		b	.L39
 601              	.L37:
 602              	.LBE13:
 603              	.LBE12:
 604              		.loc 5 77 0
 605 01c8 0023     		movs	r3, #0
 606              	.L39:
 607              	.LBE11:
 608              		.loc 5 78 0
 609 01ca 1846     		mov	r0, r3
 610 01cc 02B0     		add	sp, sp, #8
 611              		.cfi_def_cfa_offset 8
 612              		@ sp needed
 613 01ce 10BD     		pop	{r4, pc}
 614              	.L41:
 615              		.align	2
 616              	.L40:
 617 01d0 00000000 		.word	.LC0
 618              		.cfi_endproc
 619              	.LFE45:
 620              		.size	_ZN3r2p12StaticQueue_11skip_unsafeEv, .-_ZN3r2p12StaticQueue_11skip_unsafeEv
 621              		.align	2
 622              		.global	_ZNK3r2p12StaticQueue_8get_headEv
 623              		.thumb
 624              		.thumb_func
ARM GAS  /tmp/ccp6ki2O.s 			page 12


 625              		.type	_ZNK3r2p12StaticQueue_8get_headEv, %function
 626              	_ZNK3r2p12StaticQueue_8get_headEv:
 627              	.LFB46:
 628              		.loc 5 81 0
 629              		.cfi_startproc
 630              		@ args = 0, pretend = 0, frame = 16
 631              		@ frame_needed = 0, uses_anonymous_args = 0
 632 01d4 00B5     		push	{lr}
 633              		.cfi_def_cfa_offset 4
 634              		.cfi_offset 14, -4
 635 01d6 85B0     		sub	sp, sp, #20
 636              		.cfi_def_cfa_offset 24
 637 01d8 0190     		str	r0, [sp, #4]
 638              	.LBB14:
 639              		.loc 5 83 0
 640 01da FFF7FEFF 		bl	_ZN3r2p7SysLock7acquireEv
 641              		.loc 5 84 0
 642 01de 0198     		ldr	r0, [sp, #4]
 643 01e0 FFF7FEFF 		bl	_ZNK3r2p12StaticQueue_15get_head_unsafeEv
 644 01e4 0390     		str	r0, [sp, #12]
 645              		.loc 5 85 0
 646 01e6 FFF7FEFF 		bl	_ZN3r2p7SysLock7releaseEv
 647              		.loc 5 86 0
 648 01ea 039B     		ldr	r3, [sp, #12]
 649              	.LBE14:
 650              		.loc 5 87 0
 651 01ec 1846     		mov	r0, r3
 652 01ee 05B0     		add	sp, sp, #20
 653              		.cfi_def_cfa_offset 4
 654              		@ sp needed
 655 01f0 5DF804FB 		ldr	pc, [sp], #4
 656              		.cfi_endproc
 657              	.LFE46:
 658              		.size	_ZNK3r2p12StaticQueue_8get_headEv, .-_ZNK3r2p12StaticQueue_8get_headEv
 659              		.align	2
 660              		.global	_ZNK3r2p12StaticQueue_8get_tailEv
 661              		.thumb
 662              		.thumb_func
 663              		.type	_ZNK3r2p12StaticQueue_8get_tailEv, %function
 664              	_ZNK3r2p12StaticQueue_8get_tailEv:
 665              	.LFB47:
 666              		.loc 5 90 0
 667              		.cfi_startproc
 668              		@ args = 0, pretend = 0, frame = 16
 669              		@ frame_needed = 0, uses_anonymous_args = 0
 670 01f4 00B5     		push	{lr}
 671              		.cfi_def_cfa_offset 4
 672              		.cfi_offset 14, -4
 673 01f6 85B0     		sub	sp, sp, #20
 674              		.cfi_def_cfa_offset 24
 675 01f8 0190     		str	r0, [sp, #4]
 676              	.LBB15:
 677              		.loc 5 92 0
 678 01fa FFF7FEFF 		bl	_ZN3r2p7SysLock7acquireEv
 679              		.loc 5 93 0
 680 01fe 0198     		ldr	r0, [sp, #4]
 681 0200 FFF7FEFF 		bl	_ZNK3r2p12StaticQueue_15get_tail_unsafeEv
ARM GAS  /tmp/ccp6ki2O.s 			page 13


 682 0204 0390     		str	r0, [sp, #12]
 683              		.loc 5 94 0
 684 0206 FFF7FEFF 		bl	_ZN3r2p7SysLock7releaseEv
 685              		.loc 5 95 0
 686 020a 039B     		ldr	r3, [sp, #12]
 687              	.LBE15:
 688              		.loc 5 96 0
 689 020c 1846     		mov	r0, r3
 690 020e 05B0     		add	sp, sp, #20
 691              		.cfi_def_cfa_offset 4
 692              		@ sp needed
 693 0210 5DF804FB 		ldr	pc, [sp], #4
 694              		.cfi_endproc
 695              	.LFE47:
 696              		.size	_ZNK3r2p12StaticQueue_8get_tailEv, .-_ZNK3r2p12StaticQueue_8get_tailEv
 697              		.align	2
 698              		.global	_ZNK3r2p12StaticQueue_8is_emptyEv
 699              		.thumb
 700              		.thumb_func
 701              		.type	_ZNK3r2p12StaticQueue_8is_emptyEv, %function
 702              	_ZNK3r2p12StaticQueue_8is_emptyEv:
 703              	.LFB48:
 704              		.loc 5 99 0
 705              		.cfi_startproc
 706              		@ args = 0, pretend = 0, frame = 16
 707              		@ frame_needed = 0, uses_anonymous_args = 0
 708 0214 00B5     		push	{lr}
 709              		.cfi_def_cfa_offset 4
 710              		.cfi_offset 14, -4
 711 0216 85B0     		sub	sp, sp, #20
 712              		.cfi_def_cfa_offset 24
 713 0218 0190     		str	r0, [sp, #4]
 714              	.LBB16:
 715              		.loc 5 101 0
 716 021a FFF7FEFF 		bl	_ZN3r2p7SysLock7acquireEv
 717              		.loc 5 102 0
 718 021e 0198     		ldr	r0, [sp, #4]
 719 0220 FFF7FEFF 		bl	_ZNK3r2p12StaticQueue_15is_empty_unsafeEv
 720 0224 0346     		mov	r3, r0
 721 0226 8DF80F30 		strb	r3, [sp, #15]
 722              		.loc 5 103 0
 723 022a FFF7FEFF 		bl	_ZN3r2p7SysLock7releaseEv
 724              		.loc 5 104 0
 725 022e 9DF80F30 		ldrb	r3, [sp, #15]	@ zero_extendqisi2
 726              	.LBE16:
 727              		.loc 5 105 0
 728 0232 1846     		mov	r0, r3
 729 0234 05B0     		add	sp, sp, #20
 730              		.cfi_def_cfa_offset 4
 731              		@ sp needed
 732 0236 5DF804FB 		ldr	pc, [sp], #4
 733              		.cfi_endproc
 734              	.LFE48:
 735              		.size	_ZNK3r2p12StaticQueue_8is_emptyEv, .-_ZNK3r2p12StaticQueue_8is_emptyEv
 736 023a 00BF     		.align	2
 737              		.global	_ZN3r2p12StaticQueue_4postERNS0_4LinkE
 738              		.thumb
ARM GAS  /tmp/ccp6ki2O.s 			page 14


 739              		.thumb_func
 740              		.type	_ZN3r2p12StaticQueue_4postERNS0_4LinkE, %function
 741              	_ZN3r2p12StaticQueue_4postERNS0_4LinkE:
 742              	.LFB49:
 743              		.loc 5 108 0
 744              		.cfi_startproc
 745              		@ args = 0, pretend = 0, frame = 8
 746              		@ frame_needed = 0, uses_anonymous_args = 0
 747 023c 00B5     		push	{lr}
 748              		.cfi_def_cfa_offset 4
 749              		.cfi_offset 14, -4
 750 023e 83B0     		sub	sp, sp, #12
 751              		.cfi_def_cfa_offset 16
 752 0240 0190     		str	r0, [sp, #4]
 753 0242 0091     		str	r1, [sp]
 754              		.loc 5 110 0
 755 0244 FFF7FEFF 		bl	_ZN3r2p7SysLock7acquireEv
 756              		.loc 5 111 0
 757 0248 0198     		ldr	r0, [sp, #4]
 758 024a 0099     		ldr	r1, [sp]
 759 024c FFF7FEFF 		bl	_ZN3r2p12StaticQueue_11post_unsafeERNS0_4LinkE
 760              		.loc 5 112 0
 761 0250 FFF7FEFF 		bl	_ZN3r2p7SysLock7releaseEv
 762              		.loc 5 113 0
 763 0254 03B0     		add	sp, sp, #12
 764              		.cfi_def_cfa_offset 4
 765              		@ sp needed
 766 0256 5DF804FB 		ldr	pc, [sp], #4
 767              		.cfi_endproc
 768              	.LFE49:
 769              		.size	_ZN3r2p12StaticQueue_4postERNS0_4LinkE, .-_ZN3r2p12StaticQueue_4postERNS0_4LinkE
 770 025a 00BF     		.align	2
 771              		.global	_ZNK3r2p12StaticQueue_4peekERPKNS0_4LinkE
 772              		.thumb
 773              		.thumb_func
 774              		.type	_ZNK3r2p12StaticQueue_4peekERPKNS0_4LinkE, %function
 775              	_ZNK3r2p12StaticQueue_4peekERPKNS0_4LinkE:
 776              	.LFB50:
 777              		.loc 5 116 0
 778              		.cfi_startproc
 779              		@ args = 0, pretend = 0, frame = 16
 780              		@ frame_needed = 0, uses_anonymous_args = 0
 781 025c 00B5     		push	{lr}
 782              		.cfi_def_cfa_offset 4
 783              		.cfi_offset 14, -4
 784 025e 85B0     		sub	sp, sp, #20
 785              		.cfi_def_cfa_offset 24
 786 0260 0190     		str	r0, [sp, #4]
 787 0262 0091     		str	r1, [sp]
 788              	.LBB17:
 789              		.loc 5 118 0
 790 0264 FFF7FEFF 		bl	_ZN3r2p7SysLock7acquireEv
 791              		.loc 5 119 0
 792 0268 0198     		ldr	r0, [sp, #4]
 793 026a 0099     		ldr	r1, [sp]
 794 026c FFF7FEFF 		bl	_ZNK3r2p12StaticQueue_11peek_unsafeERPKNS0_4LinkE
 795 0270 0346     		mov	r3, r0
ARM GAS  /tmp/ccp6ki2O.s 			page 15


 796 0272 8DF80F30 		strb	r3, [sp, #15]
 797              		.loc 5 120 0
 798 0276 FFF7FEFF 		bl	_ZN3r2p7SysLock7releaseEv
 799              		.loc 5 121 0
 800 027a 9DF80F30 		ldrb	r3, [sp, #15]	@ zero_extendqisi2
 801              	.LBE17:
 802              		.loc 5 122 0
 803 027e 1846     		mov	r0, r3
 804 0280 05B0     		add	sp, sp, #20
 805              		.cfi_def_cfa_offset 4
 806              		@ sp needed
 807 0282 5DF804FB 		ldr	pc, [sp], #4
 808              		.cfi_endproc
 809              	.LFE50:
 810              		.size	_ZNK3r2p12StaticQueue_4peekERPKNS0_4LinkE, .-_ZNK3r2p12StaticQueue_4peekERPKNS0_4LinkE
 811 0286 00BF     		.align	2
 812              		.global	_ZN3r2p12StaticQueue_5fetchERNS0_4LinkE
 813              		.thumb
 814              		.thumb_func
 815              		.type	_ZN3r2p12StaticQueue_5fetchERNS0_4LinkE, %function
 816              	_ZN3r2p12StaticQueue_5fetchERNS0_4LinkE:
 817              	.LFB51:
 818              		.loc 5 125 0
 819              		.cfi_startproc
 820              		@ args = 0, pretend = 0, frame = 16
 821              		@ frame_needed = 0, uses_anonymous_args = 0
 822 0288 00B5     		push	{lr}
 823              		.cfi_def_cfa_offset 4
 824              		.cfi_offset 14, -4
 825 028a 85B0     		sub	sp, sp, #20
 826              		.cfi_def_cfa_offset 24
 827 028c 0190     		str	r0, [sp, #4]
 828 028e 0091     		str	r1, [sp]
 829              	.LBB18:
 830              		.loc 5 127 0
 831 0290 FFF7FEFF 		bl	_ZN3r2p7SysLock7acquireEv
 832              		.loc 5 128 0
 833 0294 0198     		ldr	r0, [sp, #4]
 834 0296 0099     		ldr	r1, [sp]
 835 0298 FFF7FEFF 		bl	_ZN3r2p12StaticQueue_12fetch_unsafeERNS0_4LinkE
 836 029c 0346     		mov	r3, r0
 837 029e 8DF80F30 		strb	r3, [sp, #15]
 838              		.loc 5 129 0
 839 02a2 FFF7FEFF 		bl	_ZN3r2p7SysLock7releaseEv
 840              		.loc 5 130 0
 841 02a6 9DF80F30 		ldrb	r3, [sp, #15]	@ zero_extendqisi2
 842              	.LBE18:
 843              		.loc 5 131 0
 844 02aa 1846     		mov	r0, r3
 845 02ac 05B0     		add	sp, sp, #20
 846              		.cfi_def_cfa_offset 4
 847              		@ sp needed
 848 02ae 5DF804FB 		ldr	pc, [sp], #4
 849              		.cfi_endproc
 850              	.LFE51:
 851              		.size	_ZN3r2p12StaticQueue_5fetchERNS0_4LinkE, .-_ZN3r2p12StaticQueue_5fetchERNS0_4LinkE
 852 02b2 00BF     		.align	2
ARM GAS  /tmp/ccp6ki2O.s 			page 16


 853              		.global	_ZN3r2p12StaticQueue_4skipEv
 854              		.thumb
 855              		.thumb_func
 856              		.type	_ZN3r2p12StaticQueue_4skipEv, %function
 857              	_ZN3r2p12StaticQueue_4skipEv:
 858              	.LFB52:
 859              		.loc 5 134 0
 860              		.cfi_startproc
 861              		@ args = 0, pretend = 0, frame = 16
 862              		@ frame_needed = 0, uses_anonymous_args = 0
 863 02b4 00B5     		push	{lr}
 864              		.cfi_def_cfa_offset 4
 865              		.cfi_offset 14, -4
 866 02b6 85B0     		sub	sp, sp, #20
 867              		.cfi_def_cfa_offset 24
 868 02b8 0190     		str	r0, [sp, #4]
 869              	.LBB19:
 870              		.loc 5 136 0
 871 02ba FFF7FEFF 		bl	_ZN3r2p7SysLock7acquireEv
 872              		.loc 5 137 0
 873 02be 0198     		ldr	r0, [sp, #4]
 874 02c0 FFF7FEFF 		bl	_ZN3r2p12StaticQueue_11skip_unsafeEv
 875 02c4 0346     		mov	r3, r0
 876 02c6 8DF80F30 		strb	r3, [sp, #15]
 877              		.loc 5 138 0
 878 02ca FFF7FEFF 		bl	_ZN3r2p7SysLock7releaseEv
 879              		.loc 5 139 0
 880 02ce 9DF80F30 		ldrb	r3, [sp, #15]	@ zero_extendqisi2
 881              	.LBE19:
 882              		.loc 5 140 0
 883 02d2 1846     		mov	r0, r3
 884 02d4 05B0     		add	sp, sp, #20
 885              		.cfi_def_cfa_offset 4
 886              		@ sp needed
 887 02d6 5DF804FB 		ldr	pc, [sp], #4
 888              		.cfi_endproc
 889              	.LFE52:
 890              		.size	_ZN3r2p12StaticQueue_4skipEv, .-_ZN3r2p12StaticQueue_4skipEv
 891 02da 00BF     		.align	2
 892              		.global	_ZN3r2p12StaticQueue_C2Ev
 893              		.thumb
 894              		.thumb_func
 895              		.type	_ZN3r2p12StaticQueue_C2Ev, %function
 896              	_ZN3r2p12StaticQueue_C2Ev:
 897              	.LFB54:
 898              		.loc 5 143 0
 899              		.cfi_startproc
 900              		@ args = 0, pretend = 0, frame = 8
 901              		@ frame_needed = 0, uses_anonymous_args = 0
 902 02dc 00B5     		push	{lr}
 903              		.cfi_def_cfa_offset 4
 904              		.cfi_offset 14, -4
 905 02de 83B0     		sub	sp, sp, #12
 906              		.cfi_def_cfa_offset 16
 907 02e0 0190     		str	r0, [sp, #4]
 908              	.LBB20:
 909              		.loc 5 146 0
ARM GAS  /tmp/ccp6ki2O.s 			page 17


 910 02e2 0198     		ldr	r0, [sp, #4]
 911 02e4 FFF7FEFF 		bl	_ZN3r2p10UncopyableC2Ev
 912 02e8 019B     		ldr	r3, [sp, #4]
 913 02ea 0022     		movs	r2, #0
 914 02ec 1A60     		str	r2, [r3]
 915 02ee 019B     		ldr	r3, [sp, #4]
 916 02f0 0022     		movs	r2, #0
 917 02f2 5A60     		str	r2, [r3, #4]
 918              	.LBE20:
 919              		.loc 5 147 0
 920 02f4 019B     		ldr	r3, [sp, #4]
 921 02f6 1846     		mov	r0, r3
 922 02f8 03B0     		add	sp, sp, #12
 923              		.cfi_def_cfa_offset 4
 924              		@ sp needed
 925 02fa 5DF804FB 		ldr	pc, [sp], #4
 926              		.cfi_endproc
 927              	.LFE54:
 928              		.size	_ZN3r2p12StaticQueue_C2Ev, .-_ZN3r2p12StaticQueue_C2Ev
 929              		.global	_ZN3r2p12StaticQueue_C1Ev
 930              		.thumb_set _ZN3r2p12StaticQueue_C1Ev,_ZN3r2p12StaticQueue_C2Ev
 931              	.Letext0:
 932              		.file 6 "/opt/R2P/tools/gcc-arm-none-eabi-4_9-2014q4/lib/gcc/arm-none-eabi/4.9.3/include/stddef.h"
 933              		.file 7 "/opt/R2P/tools/gcc-arm-none-eabi-4_9-2014q4/arm-none-eabi/include/machine/_default_types.
 934              		.file 8 "/opt/R2P/tools/gcc-arm-none-eabi-4_9-2014q4/arm-none-eabi/include/c++/4.9.3/cstring"
 935              		.file 9 "/opt/R2P/tools/gcc-arm-none-eabi-4_9-2014q4/arm-none-eabi/include/string.h"
 936              		.file 10 "<built-in>"
 937              		.file 11 "/opt/R2P/tools/gcc-arm-none-eabi-4_9-2014q4/arm-none-eabi/include/stdint.h"
 938 02fe 00BF     		.section	.debug_info,"",%progbits
 939              	.Ldebug_info0:
 940 0000 FB080000 		.4byte	0x8fb
 941 0004 0400     		.2byte	0x4
 942 0006 00000000 		.4byte	.Ldebug_abbrev0
 943 000a 04       		.byte	0x4
 944 000b 01       		.uleb128 0x1
 945 000c 10010000 		.4byte	.LASF68
 946 0010 04       		.byte	0x4
 947 0011 AD050000 		.4byte	.LASF69
 948 0015 92000000 		.4byte	.LASF70
 949 0019 00000000 		.4byte	.Ldebug_ranges0+0
 950 001d 00000000 		.4byte	0
 951 0021 00000000 		.4byte	.Ldebug_line0
 952 0025 02       		.uleb128 0x2
 953 0026 04       		.byte	0x4
 954 0027 05       		.byte	0x5
 955 0028 696E7400 		.ascii	"int\000"
 956 002c 03       		.uleb128 0x3
 957 002d 5D000000 		.4byte	.LASF6
 958 0031 06       		.byte	0x6
 959 0032 D4       		.byte	0xd4
 960 0033 37000000 		.4byte	0x37
 961 0037 04       		.uleb128 0x4
 962 0038 04       		.byte	0x4
 963 0039 07       		.byte	0x7
 964 003a 98030000 		.4byte	.LASF0
 965 003e 04       		.uleb128 0x4
 966 003f 01       		.byte	0x1
ARM GAS  /tmp/ccp6ki2O.s 			page 18


 967 0040 06       		.byte	0x6
 968 0041 6C030000 		.4byte	.LASF1
 969 0045 04       		.uleb128 0x4
 970 0046 01       		.byte	0x1
 971 0047 08       		.byte	0x8
 972 0048 53030000 		.4byte	.LASF2
 973 004c 04       		.uleb128 0x4
 974 004d 02       		.byte	0x2
 975 004e 05       		.byte	0x5
 976 004f DF020000 		.4byte	.LASF3
 977 0053 04       		.uleb128 0x4
 978 0054 02       		.byte	0x2
 979 0055 07       		.byte	0x7
 980 0056 17040000 		.4byte	.LASF4
 981 005a 04       		.uleb128 0x4
 982 005b 04       		.byte	0x4
 983 005c 05       		.byte	0x5
 984 005d 93020000 		.4byte	.LASF5
 985 0061 03       		.uleb128 0x3
 986 0062 C5000000 		.4byte	.LASF7
 987 0066 07       		.byte	0x7
 988 0067 41       		.byte	0x41
 989 0068 6C000000 		.4byte	0x6c
 990 006c 04       		.uleb128 0x4
 991 006d 04       		.byte	0x4
 992 006e 07       		.byte	0x7
 993 006f CD040000 		.4byte	.LASF8
 994 0073 04       		.uleb128 0x4
 995 0074 08       		.byte	0x8
 996 0075 05       		.byte	0x5
 997 0076 53020000 		.4byte	.LASF9
 998 007a 04       		.uleb128 0x4
 999 007b 08       		.byte	0x8
 1000 007c 07       		.byte	0x7
 1001 007d 78030000 		.4byte	.LASF10
 1002 0081 04       		.uleb128 0x4
 1003 0082 04       		.byte	0x4
 1004 0083 07       		.byte	0x7
 1005 0084 64000000 		.4byte	.LASF11
 1006 0088 05       		.uleb128 0x5
 1007 0089 04       		.byte	0x4
 1008 008a 06       		.uleb128 0x6
 1009 008b 04       		.byte	0x4
 1010 008c 90000000 		.4byte	0x90
 1011 0090 04       		.uleb128 0x4
 1012 0091 01       		.byte	0x1
 1013 0092 08       		.byte	0x8
 1014 0093 2A040000 		.4byte	.LASF12
 1015 0097 06       		.uleb128 0x6
 1016 0098 04       		.byte	0x4
 1017 0099 9D000000 		.4byte	0x9d
 1018 009d 07       		.uleb128 0x7
 1019 009e 90000000 		.4byte	0x90
 1020 00a2 08       		.uleb128 0x8
 1021 00a3 73746400 		.ascii	"std\000"
 1022 00a7 0A       		.byte	0xa
 1023 00a8 00       		.byte	0
ARM GAS  /tmp/ccp6ki2O.s 			page 19


 1024 00a9 CA000000 		.4byte	0xca
 1025 00ad 09       		.uleb128 0x9
 1026 00ae 08       		.byte	0x8
 1027 00af 52       		.byte	0x52
 1028 00b0 CA000000 		.4byte	0xca
 1029 00b4 09       		.uleb128 0x9
 1030 00b5 08       		.byte	0x8
 1031 00b6 55       		.byte	0x55
 1032 00b7 E4000000 		.4byte	0xe4
 1033 00bb 09       		.uleb128 0x9
 1034 00bc 08       		.byte	0x8
 1035 00bd 5B       		.byte	0x5b
 1036 00be F9000000 		.4byte	0xf9
 1037 00c2 09       		.uleb128 0x9
 1038 00c3 08       		.byte	0x8
 1039 00c4 5C       		.byte	0x5c
 1040 00c5 13010000 		.4byte	0x113
 1041 00c9 00       		.byte	0
 1042 00ca 0A       		.uleb128 0xa
 1043 00cb 38040000 		.4byte	.LASF13
 1044 00cf 09       		.byte	0x9
 1045 00d0 1D       		.byte	0x1d
 1046 00d1 25000000 		.4byte	0x25
 1047 00d5 E4000000 		.4byte	0xe4
 1048 00d9 0B       		.uleb128 0xb
 1049 00da 97000000 		.4byte	0x97
 1050 00de 0B       		.uleb128 0xb
 1051 00df 97000000 		.4byte	0x97
 1052 00e3 00       		.byte	0
 1053 00e4 0A       		.uleb128 0xa
 1054 00e5 D9010000 		.4byte	.LASF14
 1055 00e9 09       		.byte	0x9
 1056 00ea 20       		.byte	0x20
 1057 00eb 8A000000 		.4byte	0x8a
 1058 00ef F9000000 		.4byte	0xf9
 1059 00f3 0B       		.uleb128 0xb
 1060 00f4 25000000 		.4byte	0x25
 1061 00f8 00       		.byte	0
 1062 00f9 0A       		.uleb128 0xa
 1063 00fa A9020000 		.4byte	.LASF15
 1064 00fe 09       		.byte	0x9
 1065 00ff 2A       		.byte	0x2a
 1066 0100 8A000000 		.4byte	0x8a
 1067 0104 13010000 		.4byte	0x113
 1068 0108 0B       		.uleb128 0xb
 1069 0109 8A000000 		.4byte	0x8a
 1070 010d 0B       		.uleb128 0xb
 1071 010e 97000000 		.4byte	0x97
 1072 0112 00       		.byte	0
 1073 0113 0A       		.uleb128 0xa
 1074 0114 DF040000 		.4byte	.LASF16
 1075 0118 09       		.byte	0x9
 1076 0119 2C       		.byte	0x2c
 1077 011a 2C000000 		.4byte	0x2c
 1078 011e 32010000 		.4byte	0x132
 1079 0122 0B       		.uleb128 0xb
 1080 0123 8A000000 		.4byte	0x8a
ARM GAS  /tmp/ccp6ki2O.s 			page 20


 1081 0127 0B       		.uleb128 0xb
 1082 0128 97000000 		.4byte	0x97
 1083 012c 0B       		.uleb128 0xb
 1084 012d 2C000000 		.4byte	0x2c
 1085 0131 00       		.byte	0
 1086 0132 08       		.uleb128 0x8
 1087 0133 72327000 		.ascii	"r2p\000"
 1088 0137 01       		.byte	0x1
 1089 0138 03       		.byte	0x3
 1090 0139 70040000 		.4byte	0x470
 1091 013d 0C       		.uleb128 0xc
 1092 013e 11020000 		.4byte	.LASF17
 1093 0142 01       		.byte	0x1
 1094 0143 01       		.byte	0x1
 1095 0144 06       		.byte	0x6
 1096 0145 9D010000 		.4byte	0x19d
 1097 0149 0D       		.uleb128 0xd
 1098 014a 11020000 		.4byte	.LASF17
 1099 014e 01       		.byte	0x1
 1100 014f 09       		.byte	0x9
 1101 0150 70040000 		.4byte	0x470
 1102 0154 5C010000 		.4byte	0x15c
 1103 0158 67010000 		.4byte	0x167
 1104 015c 0E       		.uleb128 0xe
 1105 015d 70040000 		.4byte	0x470
 1106 0161 0B       		.uleb128 0xb
 1107 0162 76040000 		.4byte	0x476
 1108 0166 00       		.byte	0
 1109 0167 0F       		.uleb128 0xf
 1110 0168 11020000 		.4byte	.LASF17
 1111 016c 01       		.byte	0x1
 1112 016d 14       		.byte	0x14
 1113 016e 70040000 		.4byte	0x470
 1114 0172 02       		.byte	0x2
 1115 0173 7B010000 		.4byte	0x17b
 1116 0177 81010000 		.4byte	0x181
 1117 017b 0E       		.uleb128 0xe
 1118 017c 70040000 		.4byte	0x470
 1119 0180 00       		.byte	0
 1120 0181 10       		.uleb128 0x10
 1121 0182 05000000 		.4byte	.LASF18
 1122 0186 01       		.byte	0x1
 1123 0187 15       		.byte	0x15
 1124 0188 88000000 		.4byte	0x88
 1125 018c 02       		.byte	0x2
 1126 018d 91010000 		.4byte	0x191
 1127 0191 0E       		.uleb128 0xe
 1128 0192 70040000 		.4byte	0x470
 1129 0196 0E       		.uleb128 0xe
 1130 0197 25000000 		.4byte	0x25
 1131 019b 00       		.byte	0
 1132 019c 00       		.byte	0
 1133 019d 07       		.uleb128 0x7
 1134 019e 3D010000 		.4byte	0x13d
 1135 01a2 0C       		.uleb128 0xc
 1136 01a3 A4050000 		.4byte	.LASF19
 1137 01a7 01       		.byte	0x1
ARM GAS  /tmp/ccp6ki2O.s 			page 21


 1138 01a8 02       		.byte	0x2
 1139 01a9 09       		.byte	0x9
 1140 01aa E6010000 		.4byte	0x1e6
 1141 01ae 11       		.uleb128 0x11
 1142 01af 3D010000 		.4byte	0x13d
 1143 01b3 00       		.byte	0
 1144 01b4 0D       		.uleb128 0xd
 1145 01b5 A4050000 		.4byte	.LASF19
 1146 01b9 02       		.byte	0x2
 1147 01ba 0B       		.byte	0xb
 1148 01bb 8E040000 		.4byte	0x48e
 1149 01bf C7010000 		.4byte	0x1c7
 1150 01c3 CD010000 		.4byte	0x1cd
 1151 01c7 0E       		.uleb128 0xe
 1152 01c8 8E040000 		.4byte	0x48e
 1153 01cc 00       		.byte	0
 1154 01cd 12       		.uleb128 0x12
 1155 01ce EE030000 		.4byte	.LASF20
 1156 01d2 02       		.byte	0x2
 1157 01d3 0E       		.byte	0xe
 1158 01d4 81050000 		.4byte	.LASF22
 1159 01d8 01       		.byte	0x1
 1160 01d9 12       		.uleb128 0x12
 1161 01da 55000000 		.4byte	.LASF21
 1162 01de 02       		.byte	0x2
 1163 01df 0F       		.byte	0xf
 1164 01e0 F6030000 		.4byte	.LASF23
 1165 01e4 01       		.byte	0x1
 1166 01e5 00       		.byte	0
 1167 01e6 0C       		.uleb128 0xc
 1168 01e7 E2010000 		.4byte	.LASF24
 1169 01eb 01       		.byte	0x1
 1170 01ec 03       		.byte	0x3
 1171 01ed 09       		.byte	0x9
 1172 01ee 2A020000 		.4byte	0x22a
 1173 01f2 11       		.uleb128 0x11
 1174 01f3 3D010000 		.4byte	0x13d
 1175 01f7 00       		.byte	0
 1176 01f8 0D       		.uleb128 0xd
 1177 01f9 E2010000 		.4byte	.LASF24
 1178 01fd 03       		.byte	0x3
 1179 01fe 12       		.byte	0x12
 1180 01ff 94040000 		.4byte	0x494
 1181 0203 0B020000 		.4byte	0x20b
 1182 0207 11020000 		.4byte	0x211
 1183 020b 0E       		.uleb128 0xe
 1184 020c 94040000 		.4byte	0x494
 1185 0210 00       		.byte	0
 1186 0211 12       		.uleb128 0x12
 1187 0212 EE030000 		.4byte	.LASF20
 1188 0216 03       		.byte	0x3
 1189 0217 15       		.byte	0x15
 1190 0218 A5030000 		.4byte	.LASF25
 1191 021c 01       		.byte	0x1
 1192 021d 12       		.uleb128 0x12
 1193 021e 55000000 		.4byte	.LASF21
 1194 0222 03       		.byte	0x3
ARM GAS  /tmp/ccp6ki2O.s 			page 22


 1195 0223 16       		.byte	0x16
 1196 0224 27020000 		.4byte	.LASF26
 1197 0228 01       		.byte	0x1
 1198 0229 00       		.byte	0
 1199 022a 0C       		.uleb128 0xc
 1200 022b 9C020000 		.4byte	.LASF27
 1201 022f 08       		.byte	0x8
 1202 0230 04       		.byte	0x4
 1203 0231 0A       		.byte	0xa
 1204 0232 6A040000 		.4byte	0x46a
 1205 0236 13       		.uleb128 0x13
 1206 0237 00000000 		.4byte	.LASF30
 1207 023b 08       		.byte	0x8
 1208 023c 04       		.byte	0x4
 1209 023d 0C       		.byte	0xc
 1210 023e 01       		.byte	0x1
 1211 023f 76020000 		.4byte	0x276
 1212 0243 14       		.uleb128 0x14
 1213 0244 41020000 		.4byte	.LASF28
 1214 0248 04       		.byte	0x4
 1215 0249 0D       		.byte	0xd
 1216 024a 9A040000 		.4byte	0x49a
 1217 024e 00       		.byte	0
 1218 024f 14       		.uleb128 0x14
 1219 0250 D0000000 		.4byte	.LASF29
 1220 0254 04       		.byte	0x4
 1221 0255 0E       		.byte	0xe
 1222 0256 88000000 		.4byte	0x88
 1223 025a 04       		.byte	0x4
 1224 025b 15       		.uleb128 0x15
 1225 025c 00000000 		.4byte	.LASF30
 1226 0260 04       		.byte	0x4
 1227 0261 10       		.byte	0x10
 1228 0262 9A040000 		.4byte	0x49a
 1229 0266 6A020000 		.4byte	0x26a
 1230 026a 0E       		.uleb128 0xe
 1231 026b 9A040000 		.4byte	0x49a
 1232 026f 0B       		.uleb128 0xb
 1233 0270 88000000 		.4byte	0x88
 1234 0274 00       		.byte	0
 1235 0275 00       		.byte	0
 1236 0276 11       		.uleb128 0x11
 1237 0277 3D010000 		.4byte	0x13d
 1238 027b 00       		.byte	0
 1239 027c 14       		.uleb128 0x14
 1240 027d 11040000 		.4byte	.LASF31
 1241 0281 04       		.byte	0x4
 1242 0282 17       		.byte	0x17
 1243 0283 9A040000 		.4byte	0x49a
 1244 0287 00       		.byte	0
 1245 0288 14       		.uleb128 0x14
 1246 0289 61030000 		.4byte	.LASF32
 1247 028d 04       		.byte	0x4
 1248 028e 18       		.byte	0x18
 1249 028f 9A040000 		.4byte	0x49a
 1250 0293 04       		.byte	0x4
 1251 0294 16       		.uleb128 0x16
ARM GAS  /tmp/ccp6ki2O.s 			page 23


 1252 0295 07030000 		.4byte	.LASF33
 1253 0299 04       		.byte	0x4
 1254 029a 1B       		.byte	0x1b
 1255 029b 24030000 		.4byte	.LASF35
 1256 029f A0040000 		.4byte	0x4a0
 1257 02a3 01       		.byte	0x1
 1258 02a4 AC020000 		.4byte	0x2ac
 1259 02a8 B2020000 		.4byte	0x2b2
 1260 02ac 0E       		.uleb128 0xe
 1261 02ad A6040000 		.4byte	0x4a6
 1262 02b1 00       		.byte	0
 1263 02b2 07       		.uleb128 0x7
 1264 02b3 36020000 		.4byte	0x236
 1265 02b7 16       		.uleb128 0x16
 1266 02b8 00010000 		.4byte	.LASF34
 1267 02bc 04       		.byte	0x4
 1268 02bd 1C       		.byte	0x1c
 1269 02be C4030000 		.4byte	.LASF36
 1270 02c2 A0040000 		.4byte	0x4a0
 1271 02c6 01       		.byte	0x1
 1272 02c7 CF020000 		.4byte	0x2cf
 1273 02cb D5020000 		.4byte	0x2d5
 1274 02cf 0E       		.uleb128 0xe
 1275 02d0 A6040000 		.4byte	0x4a6
 1276 02d4 00       		.byte	0
 1277 02d5 16       		.uleb128 0x16
 1278 02d6 35050000 		.4byte	.LASF37
 1279 02da 04       		.byte	0x4
 1280 02db 1D       		.byte	0x1d
 1281 02dc D6000000 		.4byte	.LASF38
 1282 02e0 87040000 		.4byte	0x487
 1283 02e4 01       		.byte	0x1
 1284 02e5 ED020000 		.4byte	0x2ed
 1285 02e9 F3020000 		.4byte	0x2f3
 1286 02ed 0E       		.uleb128 0xe
 1287 02ee A6040000 		.4byte	0x4a6
 1288 02f2 00       		.byte	0
 1289 02f3 17       		.uleb128 0x17
 1290 02f4 75050000 		.4byte	.LASF39
 1291 02f8 04       		.byte	0x4
 1292 02f9 1E       		.byte	0x1e
 1293 02fa B0020000 		.4byte	.LASF53
 1294 02fe 01       		.byte	0x1
 1295 02ff 07030000 		.4byte	0x307
 1296 0303 12030000 		.4byte	0x312
 1297 0307 0E       		.uleb128 0xe
 1298 0308 AC040000 		.4byte	0x4ac
 1299 030c 0B       		.uleb128 0xb
 1300 030d B2040000 		.4byte	0x4b2
 1301 0311 00       		.byte	0
 1302 0312 16       		.uleb128 0x16
 1303 0313 47020000 		.4byte	.LASF40
 1304 0317 04       		.byte	0x4
 1305 0318 1F       		.byte	0x1f
 1306 0319 9B040000 		.4byte	.LASF41
 1307 031d 87040000 		.4byte	0x487
 1308 0321 01       		.byte	0x1
ARM GAS  /tmp/ccp6ki2O.s 			page 24


 1309 0322 2A030000 		.4byte	0x32a
 1310 0326 35030000 		.4byte	0x335
 1311 032a 0E       		.uleb128 0xe
 1312 032b A6040000 		.4byte	0x4a6
 1313 032f 0B       		.uleb128 0xb
 1314 0330 B8040000 		.4byte	0x4b8
 1315 0334 00       		.byte	0
 1316 0335 16       		.uleb128 0x16
 1317 0336 17030000 		.4byte	.LASF42
 1318 033a 04       		.byte	0x4
 1319 033b 20       		.byte	0x20
 1320 033c 45050000 		.4byte	.LASF43
 1321 0340 87040000 		.4byte	0x487
 1322 0344 01       		.byte	0x1
 1323 0345 4D030000 		.4byte	0x34d
 1324 0349 58030000 		.4byte	0x358
 1325 034d 0E       		.uleb128 0xe
 1326 034e AC040000 		.4byte	0x4ac
 1327 0352 0B       		.uleb128 0xb
 1328 0353 B2040000 		.4byte	0x4b2
 1329 0357 00       		.byte	0
 1330 0358 16       		.uleb128 0x16
 1331 0359 E7040000 		.4byte	.LASF44
 1332 035d 04       		.byte	0x4
 1333 035e 21       		.byte	0x21
 1334 035f 6D000000 		.4byte	.LASF45
 1335 0363 87040000 		.4byte	0x487
 1336 0367 01       		.byte	0x1
 1337 0368 70030000 		.4byte	0x370
 1338 036c 76030000 		.4byte	0x376
 1339 0370 0E       		.uleb128 0xe
 1340 0371 AC040000 		.4byte	0x4ac
 1341 0375 00       		.byte	0
 1342 0376 16       		.uleb128 0x16
 1343 0377 4E040000 		.4byte	.LASF46
 1344 037b 04       		.byte	0x4
 1345 037c 23       		.byte	0x23
 1346 037d 33000000 		.4byte	.LASF47
 1347 0381 A0040000 		.4byte	0x4a0
 1348 0385 01       		.byte	0x1
 1349 0386 8E030000 		.4byte	0x38e
 1350 038a 94030000 		.4byte	0x394
 1351 038e 0E       		.uleb128 0xe
 1352 038f A6040000 		.4byte	0x4a6
 1353 0393 00       		.byte	0
 1354 0394 16       		.uleb128 0x16
 1355 0395 40040000 		.4byte	.LASF48
 1356 0399 04       		.byte	0x4
 1357 039a 24       		.byte	0x24
 1358 039b 79040000 		.4byte	.LASF49
 1359 039f A0040000 		.4byte	0x4a0
 1360 03a3 01       		.byte	0x1
 1361 03a4 AC030000 		.4byte	0x3ac
 1362 03a8 B2030000 		.4byte	0x3b2
 1363 03ac 0E       		.uleb128 0xe
 1364 03ad A6040000 		.4byte	0x4a6
 1365 03b1 00       		.byte	0
ARM GAS  /tmp/ccp6ki2O.s 			page 25


 1366 03b2 16       		.uleb128 0x16
 1367 03b3 2F040000 		.4byte	.LASF50
 1368 03b7 04       		.byte	0x4
 1369 03b8 25       		.byte	0x25
 1370 03b9 57040000 		.4byte	.LASF51
 1371 03bd 87040000 		.4byte	0x487
 1372 03c1 01       		.byte	0x1
 1373 03c2 CA030000 		.4byte	0x3ca
 1374 03c6 D0030000 		.4byte	0x3d0
 1375 03ca 0E       		.uleb128 0xe
 1376 03cb A6040000 		.4byte	0x4a6
 1377 03cf 00       		.byte	0
 1378 03d0 17       		.uleb128 0x17
 1379 03d1 67030000 		.4byte	.LASF52
 1380 03d5 04       		.byte	0x4
 1381 03d6 26       		.byte	0x26
 1382 03d7 EA010000 		.4byte	.LASF54
 1383 03db 01       		.byte	0x1
 1384 03dc E4030000 		.4byte	0x3e4
 1385 03e0 EF030000 		.4byte	0x3ef
 1386 03e4 0E       		.uleb128 0xe
 1387 03e5 AC040000 		.4byte	0x4ac
 1388 03e9 0B       		.uleb128 0xb
 1389 03ea B2040000 		.4byte	0x4b2
 1390 03ee 00       		.byte	0
 1391 03ef 16       		.uleb128 0x16
 1392 03f0 BF030000 		.4byte	.LASF55
 1393 03f4 04       		.byte	0x4
 1394 03f5 27       		.byte	0x27
 1395 03f6 69020000 		.4byte	.LASF56
 1396 03fa 87040000 		.4byte	0x487
 1397 03fe 01       		.byte	0x1
 1398 03ff 07040000 		.4byte	0x407
 1399 0403 12040000 		.4byte	0x412
 1400 0407 0E       		.uleb128 0xe
 1401 0408 A6040000 		.4byte	0x4a6
 1402 040c 0B       		.uleb128 0xb
 1403 040d B8040000 		.4byte	0x4b8
 1404 0411 00       		.byte	0
 1405 0412 16       		.uleb128 0x16
 1406 0413 E9020000 		.4byte	.LASF57
 1407 0417 04       		.byte	0x4
 1408 0418 28       		.byte	0x28
 1409 0419 F3040000 		.4byte	.LASF58
 1410 041d 87040000 		.4byte	0x487
 1411 0421 01       		.byte	0x1
 1412 0422 2A040000 		.4byte	0x42a
 1413 0426 35040000 		.4byte	0x435
 1414 042a 0E       		.uleb128 0xe
 1415 042b AC040000 		.4byte	0x4ac
 1416 042f 0B       		.uleb128 0xb
 1417 0430 B2040000 		.4byte	0x4b2
 1418 0434 00       		.byte	0
 1419 0435 16       		.uleb128 0x16
 1420 0436 2E000000 		.4byte	.LASF59
 1421 043a 04       		.byte	0x4
 1422 043b 29       		.byte	0x29
ARM GAS  /tmp/ccp6ki2O.s 			page 26


 1423 043c 11000000 		.4byte	.LASF60
 1424 0440 87040000 		.4byte	0x487
 1425 0444 01       		.byte	0x1
 1426 0445 4D040000 		.4byte	0x44d
 1427 0449 53040000 		.4byte	0x453
 1428 044d 0E       		.uleb128 0xe
 1429 044e AC040000 		.4byte	0x4ac
 1430 0452 00       		.byte	0
 1431 0453 10       		.uleb128 0x10
 1432 0454 9C020000 		.4byte	.LASF27
 1433 0458 04       		.byte	0x4
 1434 0459 2C       		.byte	0x2c
 1435 045a AC040000 		.4byte	0x4ac
 1436 045e 01       		.byte	0x1
 1437 045f 63040000 		.4byte	0x463
 1438 0463 0E       		.uleb128 0xe
 1439 0464 AC040000 		.4byte	0x4ac
 1440 0468 00       		.byte	0
 1441 0469 00       		.byte	0
 1442 046a 07       		.uleb128 0x7
 1443 046b 2A020000 		.4byte	0x22a
 1444 046f 00       		.byte	0
 1445 0470 06       		.uleb128 0x6
 1446 0471 04       		.byte	0x4
 1447 0472 3D010000 		.4byte	0x13d
 1448 0476 18       		.uleb128 0x18
 1449 0477 04       		.byte	0x4
 1450 0478 9D010000 		.4byte	0x19d
 1451 047c 03       		.uleb128 0x3
 1452 047d 8F030000 		.4byte	.LASF61
 1453 0481 0B       		.byte	0xb
 1454 0482 2D       		.byte	0x2d
 1455 0483 61000000 		.4byte	0x61
 1456 0487 04       		.uleb128 0x4
 1457 0488 01       		.byte	0x1
 1458 0489 02       		.byte	0x2
 1459 048a 1C020000 		.4byte	.LASF62
 1460 048e 06       		.uleb128 0x6
 1461 048f 04       		.byte	0x4
 1462 0490 A2010000 		.4byte	0x1a2
 1463 0494 06       		.uleb128 0x6
 1464 0495 04       		.byte	0x4
 1465 0496 E6010000 		.4byte	0x1e6
 1466 049a 06       		.uleb128 0x6
 1467 049b 04       		.byte	0x4
 1468 049c 36020000 		.4byte	0x236
 1469 04a0 06       		.uleb128 0x6
 1470 04a1 04       		.byte	0x4
 1471 04a2 B2020000 		.4byte	0x2b2
 1472 04a6 06       		.uleb128 0x6
 1473 04a7 04       		.byte	0x4
 1474 04a8 6A040000 		.4byte	0x46a
 1475 04ac 06       		.uleb128 0x6
 1476 04ad 04       		.byte	0x4
 1477 04ae 2A020000 		.4byte	0x22a
 1478 04b2 18       		.uleb128 0x18
 1479 04b3 04       		.byte	0x4
ARM GAS  /tmp/ccp6ki2O.s 			page 27


 1480 04b4 36020000 		.4byte	0x236
 1481 04b8 18       		.uleb128 0x18
 1482 04b9 04       		.byte	0x4
 1483 04ba A0040000 		.4byte	0x4a0
 1484 04be 19       		.uleb128 0x19
 1485 04bf 67010000 		.4byte	0x167
 1486 04c3 02       		.byte	0x2
 1487 04c4 CC040000 		.4byte	0x4cc
 1488 04c8 D6040000 		.4byte	0x4d6
 1489 04cc 1A       		.uleb128 0x1a
 1490 04cd 49040000 		.4byte	.LASF63
 1491 04d1 D6040000 		.4byte	0x4d6
 1492 04d5 00       		.byte	0
 1493 04d6 07       		.uleb128 0x7
 1494 04d7 70040000 		.4byte	0x470
 1495 04db 1B       		.uleb128 0x1b
 1496 04dc BE040000 		.4byte	0x4be
 1497 04e0 EF020000 		.4byte	.LASF71
 1498 04e4 00000000 		.4byte	.LFB6
 1499 04e8 0C000000 		.4byte	.LFE6-.LFB6
 1500 04ec 01       		.uleb128 0x1
 1501 04ed 9C       		.byte	0x9c
 1502 04ee F6040000 		.4byte	0x4f6
 1503 04f2 FF040000 		.4byte	0x4ff
 1504 04f6 1C       		.uleb128 0x1c
 1505 04f7 CC040000 		.4byte	0x4cc
 1506 04fb 02       		.uleb128 0x2
 1507 04fc 91       		.byte	0x91
 1508 04fd 7C       		.sleb128 -4
 1509 04fe 00       		.byte	0
 1510 04ff 1D       		.uleb128 0x1d
 1511 0500 CD010000 		.4byte	0x1cd
 1512 0504 14       		.byte	0x14
 1513 0505 00000000 		.4byte	.LFB18
 1514 0509 0E000000 		.4byte	.LFE18-.LFB18
 1515 050d 01       		.uleb128 0x1
 1516 050e 9C       		.byte	0x9c
 1517 050f 2B050000 		.4byte	0x52b
 1518 0513 1E       		.uleb128 0x1e
 1519 0514 02000000 		.4byte	.LBB4
 1520 0518 06000000 		.4byte	.LBE4-.LBB4
 1521 051c 1F       		.uleb128 0x1f
 1522 051d 746D7000 		.ascii	"tmp\000"
 1523 0521 02       		.byte	0x2
 1524 0522 16       		.byte	0x16
 1525 0523 7C040000 		.4byte	0x47c
 1526 0527 01       		.uleb128 0x1
 1527 0528 53       		.byte	0x53
 1528 0529 00       		.byte	0
 1529 052a 00       		.byte	0
 1530 052b 1D       		.uleb128 0x1d
 1531 052c D9010000 		.4byte	0x1d9
 1532 0530 1B       		.byte	0x1b
 1533 0531 00000000 		.4byte	.LFB19
 1534 0535 0E000000 		.4byte	.LFE19-.LFB19
 1535 0539 01       		.uleb128 0x1
 1536 053a 9C       		.byte	0x9c
ARM GAS  /tmp/ccp6ki2O.s 			page 28


 1537 053b 57050000 		.4byte	0x557
 1538 053f 1E       		.uleb128 0x1e
 1539 0540 06000000 		.4byte	.LBB7
 1540 0544 06000000 		.4byte	.LBE7-.LBB7
 1541 0548 1F       		.uleb128 0x1f
 1542 0549 746D7000 		.ascii	"tmp\000"
 1543 054d 02       		.byte	0x2
 1544 054e 1D       		.byte	0x1d
 1545 054f 7C040000 		.4byte	0x47c
 1546 0553 01       		.uleb128 0x1
 1547 0554 53       		.byte	0x53
 1548 0555 00       		.byte	0
 1549 0556 00       		.byte	0
 1550 0557 20       		.uleb128 0x20
 1551 0558 11020000 		.4byte	0x211
 1552 055c 1B       		.byte	0x1b
 1553 055d 00000000 		.4byte	.LFB26
 1554 0561 08000000 		.4byte	.LFE26-.LFB26
 1555 0565 01       		.uleb128 0x1
 1556 0566 9C       		.byte	0x9c
 1557 0567 20       		.uleb128 0x20
 1558 0568 1D020000 		.4byte	0x21d
 1559 056c 22       		.byte	0x22
 1560 056d 00000000 		.4byte	.LFB27
 1561 0571 08000000 		.4byte	.LFE27-.LFB27
 1562 0575 01       		.uleb128 0x1
 1563 0576 9C       		.byte	0x9c
 1564 0577 21       		.uleb128 0x21
 1565 0578 D5020000 		.4byte	0x2d5
 1566 057c 31       		.byte	0x31
 1567 057d 00000000 		.4byte	.LFB39
 1568 0581 18000000 		.4byte	.LFE39-.LFB39
 1569 0585 01       		.uleb128 0x1
 1570 0586 9C       		.byte	0x9c
 1571 0587 8F050000 		.4byte	0x58f
 1572 058b 9C050000 		.4byte	0x59c
 1573 058f 22       		.uleb128 0x22
 1574 0590 49040000 		.4byte	.LASF63
 1575 0594 9C050000 		.4byte	0x59c
 1576 0598 02       		.uleb128 0x2
 1577 0599 91       		.byte	0x91
 1578 059a 7C       		.sleb128 -4
 1579 059b 00       		.byte	0
 1580 059c 07       		.uleb128 0x7
 1581 059d A6040000 		.4byte	0x4a6
 1582 05a1 23       		.uleb128 0x23
 1583 05a2 94020000 		.4byte	0x294
 1584 05a6 05       		.byte	0x5
 1585 05a7 07       		.byte	0x7
 1586 05a8 00000000 		.4byte	.LFB40
 1587 05ac 0E000000 		.4byte	.LFE40-.LFB40
 1588 05b0 01       		.uleb128 0x1
 1589 05b1 9C       		.byte	0x9c
 1590 05b2 BA050000 		.4byte	0x5ba
 1591 05b6 C7050000 		.4byte	0x5c7
 1592 05ba 22       		.uleb128 0x22
 1593 05bb 49040000 		.4byte	.LASF63
ARM GAS  /tmp/ccp6ki2O.s 			page 29


 1594 05bf 9C050000 		.4byte	0x59c
 1595 05c3 02       		.uleb128 0x2
 1596 05c4 91       		.byte	0x91
 1597 05c5 7C       		.sleb128 -4
 1598 05c6 00       		.byte	0
 1599 05c7 23       		.uleb128 0x23
 1600 05c8 B7020000 		.4byte	0x2b7
 1601 05cc 05       		.byte	0x5
 1602 05cd 0D       		.byte	0xd
 1603 05ce 10000000 		.4byte	.LFB41
 1604 05d2 0E000000 		.4byte	.LFE41-.LFB41
 1605 05d6 01       		.uleb128 0x1
 1606 05d7 9C       		.byte	0x9c
 1607 05d8 E0050000 		.4byte	0x5e0
 1608 05dc ED050000 		.4byte	0x5ed
 1609 05e0 22       		.uleb128 0x22
 1610 05e1 49040000 		.4byte	.LASF63
 1611 05e5 9C050000 		.4byte	0x59c
 1612 05e9 02       		.uleb128 0x2
 1613 05ea 91       		.byte	0x91
 1614 05eb 7C       		.sleb128 -4
 1615 05ec 00       		.byte	0
 1616 05ed 24       		.uleb128 0x24
 1617 05ee F3020000 		.4byte	0x2f3
 1618 05f2 05       		.byte	0x5
 1619 05f3 13       		.byte	0x13
 1620 05f4 20000000 		.4byte	.LFB42
 1621 05f8 80000000 		.4byte	.LFE42-.LFB42
 1622 05fc 01       		.uleb128 0x1
 1623 05fd 9C       		.byte	0x9c
 1624 05fe 06060000 		.4byte	0x606
 1625 0602 21060000 		.4byte	0x621
 1626 0606 22       		.uleb128 0x22
 1627 0607 49040000 		.4byte	.LASF63
 1628 060b 21060000 		.4byte	0x621
 1629 060f 02       		.uleb128 0x2
 1630 0610 91       		.byte	0x91
 1631 0611 74       		.sleb128 -12
 1632 0612 25       		.uleb128 0x25
 1633 0613 4E030000 		.4byte	.LASF64
 1634 0617 05       		.byte	0x5
 1635 0618 13       		.byte	0x13
 1636 0619 26060000 		.4byte	0x626
 1637 061d 02       		.uleb128 0x2
 1638 061e 91       		.byte	0x91
 1639 061f 70       		.sleb128 -16
 1640 0620 00       		.byte	0
 1641 0621 07       		.uleb128 0x7
 1642 0622 AC040000 		.4byte	0x4ac
 1643 0626 07       		.uleb128 0x7
 1644 0627 B2040000 		.4byte	0x4b2
 1645 062b 24       		.uleb128 0x24
 1646 062c 12030000 		.4byte	0x312
 1647 0630 05       		.byte	0x5
 1648 0631 22       		.byte	0x22
 1649 0632 A0000000 		.4byte	.LFB43
 1650 0636 54000000 		.4byte	.LFE43-.LFB43
ARM GAS  /tmp/ccp6ki2O.s 			page 30


 1651 063a 01       		.uleb128 0x1
 1652 063b 9C       		.byte	0x9c
 1653 063c 44060000 		.4byte	0x644
 1654 0640 5F060000 		.4byte	0x65f
 1655 0644 22       		.uleb128 0x22
 1656 0645 49040000 		.4byte	.LASF63
 1657 0649 9C050000 		.4byte	0x59c
 1658 064d 02       		.uleb128 0x2
 1659 064e 91       		.byte	0x91
 1660 064f 74       		.sleb128 -12
 1661 0650 25       		.uleb128 0x25
 1662 0651 21020000 		.4byte	.LASF65
 1663 0655 05       		.byte	0x5
 1664 0656 22       		.byte	0x22
 1665 0657 5F060000 		.4byte	0x65f
 1666 065b 02       		.uleb128 0x2
 1667 065c 91       		.byte	0x91
 1668 065d 70       		.sleb128 -16
 1669 065e 00       		.byte	0
 1670 065f 07       		.uleb128 0x7
 1671 0660 B8040000 		.4byte	0x4b8
 1672 0664 24       		.uleb128 0x24
 1673 0665 35030000 		.4byte	0x335
 1674 0669 05       		.byte	0x5
 1675 066a 2E       		.byte	0x2e
 1676 066b F4000000 		.4byte	.LFB44
 1677 066f 78000000 		.4byte	.LFE44-.LFB44
 1678 0673 01       		.uleb128 0x1
 1679 0674 9C       		.byte	0x9c
 1680 0675 7D060000 		.4byte	0x67d
 1681 0679 AF060000 		.4byte	0x6af
 1682 067d 22       		.uleb128 0x22
 1683 067e 49040000 		.4byte	.LASF63
 1684 0682 21060000 		.4byte	0x621
 1685 0686 02       		.uleb128 0x2
 1686 0687 91       		.byte	0x91
 1687 0688 74       		.sleb128 -12
 1688 0689 25       		.uleb128 0x25
 1689 068a 4E030000 		.4byte	.LASF64
 1690 068e 05       		.byte	0x5
 1691 068f 2E       		.byte	0x2e
 1692 0690 AF060000 		.4byte	0x6af
 1693 0694 02       		.uleb128 0x2
 1694 0695 91       		.byte	0x91
 1695 0696 70       		.sleb128 -16
 1696 0697 1E       		.uleb128 0x1e
 1697 0698 2E010000 		.4byte	.LBB10
 1698 069c 32000000 		.4byte	.LBE10-.LBB10
 1699 06a0 26       		.uleb128 0x26
 1700 06a1 41020000 		.4byte	.LASF28
 1701 06a5 05       		.byte	0x5
 1702 06a6 33       		.byte	0x33
 1703 06a7 9A040000 		.4byte	0x49a
 1704 06ab 01       		.uleb128 0x1
 1705 06ac 54       		.byte	0x54
 1706 06ad 00       		.byte	0
 1707 06ae 00       		.byte	0
ARM GAS  /tmp/ccp6ki2O.s 			page 31


 1708 06af 07       		.uleb128 0x7
 1709 06b0 B2040000 		.4byte	0x4b2
 1710 06b4 24       		.uleb128 0x24
 1711 06b5 58030000 		.4byte	0x358
 1712 06b9 05       		.byte	0x5
 1713 06ba 40       		.byte	0x40
 1714 06bb 6C010000 		.4byte	.LFB45
 1715 06bf 68000000 		.4byte	.LFE45-.LFB45
 1716 06c3 01       		.uleb128 0x1
 1717 06c4 9C       		.byte	0x9c
 1718 06c5 CD060000 		.4byte	0x6cd
 1719 06c9 F1060000 		.4byte	0x6f1
 1720 06cd 22       		.uleb128 0x22
 1721 06ce 49040000 		.4byte	.LASF63
 1722 06d2 21060000 		.4byte	0x621
 1723 06d6 02       		.uleb128 0x2
 1724 06d7 91       		.byte	0x91
 1725 06d8 74       		.sleb128 -12
 1726 06d9 1E       		.uleb128 0x1e
 1727 06da A4010000 		.4byte	.LBB13
 1728 06de 24000000 		.4byte	.LBE13-.LBB13
 1729 06e2 26       		.uleb128 0x26
 1730 06e3 41020000 		.4byte	.LASF28
 1731 06e7 05       		.byte	0x5
 1732 06e8 45       		.byte	0x45
 1733 06e9 9A040000 		.4byte	0x49a
 1734 06ed 01       		.uleb128 0x1
 1735 06ee 54       		.byte	0x54
 1736 06ef 00       		.byte	0
 1737 06f0 00       		.byte	0
 1738 06f1 24       		.uleb128 0x24
 1739 06f2 76030000 		.4byte	0x376
 1740 06f6 05       		.byte	0x5
 1741 06f7 51       		.byte	0x51
 1742 06f8 D4010000 		.4byte	.LFB46
 1743 06fc 20000000 		.4byte	.LFE46-.LFB46
 1744 0700 01       		.uleb128 0x1
 1745 0701 9C       		.byte	0x9c
 1746 0702 0A070000 		.4byte	0x70a
 1747 0706 2F070000 		.4byte	0x72f
 1748 070a 22       		.uleb128 0x22
 1749 070b 49040000 		.4byte	.LASF63
 1750 070f 9C050000 		.4byte	0x59c
 1751 0713 02       		.uleb128 0x2
 1752 0714 91       		.byte	0x91
 1753 0715 6C       		.sleb128 -20
 1754 0716 1E       		.uleb128 0x1e
 1755 0717 DA010000 		.4byte	.LBB14
 1756 071b 12000000 		.4byte	.LBE14-.LBB14
 1757 071f 26       		.uleb128 0x26
 1758 0720 11040000 		.4byte	.LASF31
 1759 0724 05       		.byte	0x5
 1760 0725 54       		.byte	0x54
 1761 0726 A0040000 		.4byte	0x4a0
 1762 072a 02       		.uleb128 0x2
 1763 072b 91       		.byte	0x91
 1764 072c 74       		.sleb128 -12
ARM GAS  /tmp/ccp6ki2O.s 			page 32


 1765 072d 00       		.byte	0
 1766 072e 00       		.byte	0
 1767 072f 24       		.uleb128 0x24
 1768 0730 94030000 		.4byte	0x394
 1769 0734 05       		.byte	0x5
 1770 0735 5A       		.byte	0x5a
 1771 0736 F4010000 		.4byte	.LFB47
 1772 073a 20000000 		.4byte	.LFE47-.LFB47
 1773 073e 01       		.uleb128 0x1
 1774 073f 9C       		.byte	0x9c
 1775 0740 48070000 		.4byte	0x748
 1776 0744 6D070000 		.4byte	0x76d
 1777 0748 22       		.uleb128 0x22
 1778 0749 49040000 		.4byte	.LASF63
 1779 074d 9C050000 		.4byte	0x59c
 1780 0751 02       		.uleb128 0x2
 1781 0752 91       		.byte	0x91
 1782 0753 6C       		.sleb128 -20
 1783 0754 1E       		.uleb128 0x1e
 1784 0755 FA010000 		.4byte	.LBB15
 1785 0759 12000000 		.4byte	.LBE15-.LBB15
 1786 075d 26       		.uleb128 0x26
 1787 075e 61030000 		.4byte	.LASF32
 1788 0762 05       		.byte	0x5
 1789 0763 5D       		.byte	0x5d
 1790 0764 A0040000 		.4byte	0x4a0
 1791 0768 02       		.uleb128 0x2
 1792 0769 91       		.byte	0x91
 1793 076a 74       		.sleb128 -12
 1794 076b 00       		.byte	0
 1795 076c 00       		.byte	0
 1796 076d 24       		.uleb128 0x24
 1797 076e B2030000 		.4byte	0x3b2
 1798 0772 05       		.byte	0x5
 1799 0773 63       		.byte	0x63
 1800 0774 14020000 		.4byte	.LFB48
 1801 0778 26000000 		.4byte	.LFE48-.LFB48
 1802 077c 01       		.uleb128 0x1
 1803 077d 9C       		.byte	0x9c
 1804 077e 86070000 		.4byte	0x786
 1805 0782 AB070000 		.4byte	0x7ab
 1806 0786 22       		.uleb128 0x22
 1807 0787 49040000 		.4byte	.LASF63
 1808 078b 9C050000 		.4byte	0x59c
 1809 078f 02       		.uleb128 0x2
 1810 0790 91       		.byte	0x91
 1811 0791 6C       		.sleb128 -20
 1812 0792 1E       		.uleb128 0x1e
 1813 0793 1A020000 		.4byte	.LBB16
 1814 0797 18000000 		.4byte	.LBE16-.LBB16
 1815 079b 26       		.uleb128 0x26
 1816 079c 61020000 		.4byte	.LASF66
 1817 07a0 05       		.byte	0x5
 1818 07a1 66       		.byte	0x66
 1819 07a2 87040000 		.4byte	0x487
 1820 07a6 02       		.uleb128 0x2
 1821 07a7 91       		.byte	0x91
ARM GAS  /tmp/ccp6ki2O.s 			page 33


 1822 07a8 77       		.sleb128 -9
 1823 07a9 00       		.byte	0
 1824 07aa 00       		.byte	0
 1825 07ab 24       		.uleb128 0x24
 1826 07ac D0030000 		.4byte	0x3d0
 1827 07b0 05       		.byte	0x5
 1828 07b1 6C       		.byte	0x6c
 1829 07b2 3C020000 		.4byte	.LFB49
 1830 07b6 1E000000 		.4byte	.LFE49-.LFB49
 1831 07ba 01       		.uleb128 0x1
 1832 07bb 9C       		.byte	0x9c
 1833 07bc C4070000 		.4byte	0x7c4
 1834 07c0 DF070000 		.4byte	0x7df
 1835 07c4 22       		.uleb128 0x22
 1836 07c5 49040000 		.4byte	.LASF63
 1837 07c9 21060000 		.4byte	0x621
 1838 07cd 02       		.uleb128 0x2
 1839 07ce 91       		.byte	0x91
 1840 07cf 74       		.sleb128 -12
 1841 07d0 25       		.uleb128 0x25
 1842 07d1 4E030000 		.4byte	.LASF64
 1843 07d5 05       		.byte	0x5
 1844 07d6 6C       		.byte	0x6c
 1845 07d7 DF070000 		.4byte	0x7df
 1846 07db 02       		.uleb128 0x2
 1847 07dc 91       		.byte	0x91
 1848 07dd 70       		.sleb128 -16
 1849 07de 00       		.byte	0
 1850 07df 07       		.uleb128 0x7
 1851 07e0 B2040000 		.4byte	0x4b2
 1852 07e4 24       		.uleb128 0x24
 1853 07e5 EF030000 		.4byte	0x3ef
 1854 07e9 05       		.byte	0x5
 1855 07ea 74       		.byte	0x74
 1856 07eb 5C020000 		.4byte	.LFB50
 1857 07ef 2A000000 		.4byte	.LFE50-.LFB50
 1858 07f3 01       		.uleb128 0x1
 1859 07f4 9C       		.byte	0x9c
 1860 07f5 FD070000 		.4byte	0x7fd
 1861 07f9 30080000 		.4byte	0x830
 1862 07fd 22       		.uleb128 0x22
 1863 07fe 49040000 		.4byte	.LASF63
 1864 0802 9C050000 		.4byte	0x59c
 1865 0806 02       		.uleb128 0x2
 1866 0807 91       		.byte	0x91
 1867 0808 6C       		.sleb128 -20
 1868 0809 25       		.uleb128 0x25
 1869 080a 21020000 		.4byte	.LASF65
 1870 080e 05       		.byte	0x5
 1871 080f 74       		.byte	0x74
 1872 0810 30080000 		.4byte	0x830
 1873 0814 02       		.uleb128 0x2
 1874 0815 91       		.byte	0x91
 1875 0816 68       		.sleb128 -24
 1876 0817 1E       		.uleb128 0x1e
 1877 0818 64020000 		.4byte	.LBB17
 1878 081c 1A000000 		.4byte	.LBE17-.LBB17
ARM GAS  /tmp/ccp6ki2O.s 			page 34


 1879 0820 26       		.uleb128 0x26
 1880 0821 9C050000 		.4byte	.LASF67
 1881 0825 05       		.byte	0x5
 1882 0826 77       		.byte	0x77
 1883 0827 87040000 		.4byte	0x487
 1884 082b 02       		.uleb128 0x2
 1885 082c 91       		.byte	0x91
 1886 082d 77       		.sleb128 -9
 1887 082e 00       		.byte	0
 1888 082f 00       		.byte	0
 1889 0830 07       		.uleb128 0x7
 1890 0831 B8040000 		.4byte	0x4b8
 1891 0835 24       		.uleb128 0x24
 1892 0836 12040000 		.4byte	0x412
 1893 083a 05       		.byte	0x5
 1894 083b 7D       		.byte	0x7d
 1895 083c 88020000 		.4byte	.LFB51
 1896 0840 2A000000 		.4byte	.LFE51-.LFB51
 1897 0844 01       		.uleb128 0x1
 1898 0845 9C       		.byte	0x9c
 1899 0846 4E080000 		.4byte	0x84e
 1900 084a 81080000 		.4byte	0x881
 1901 084e 22       		.uleb128 0x22
 1902 084f 49040000 		.4byte	.LASF63
 1903 0853 21060000 		.4byte	0x621
 1904 0857 02       		.uleb128 0x2
 1905 0858 91       		.byte	0x91
 1906 0859 6C       		.sleb128 -20
 1907 085a 25       		.uleb128 0x25
 1908 085b 4E030000 		.4byte	.LASF64
 1909 085f 05       		.byte	0x5
 1910 0860 7D       		.byte	0x7d
 1911 0861 81080000 		.4byte	0x881
 1912 0865 02       		.uleb128 0x2
 1913 0866 91       		.byte	0x91
 1914 0867 68       		.sleb128 -24
 1915 0868 1E       		.uleb128 0x1e
 1916 0869 90020000 		.4byte	.LBB18
 1917 086d 1A000000 		.4byte	.LBE18-.LBB18
 1918 0871 26       		.uleb128 0x26
 1919 0872 9C050000 		.4byte	.LASF67
 1920 0876 05       		.byte	0x5
 1921 0877 80       		.byte	0x80
 1922 0878 87040000 		.4byte	0x487
 1923 087c 02       		.uleb128 0x2
 1924 087d 91       		.byte	0x91
 1925 087e 77       		.sleb128 -9
 1926 087f 00       		.byte	0
 1927 0880 00       		.byte	0
 1928 0881 07       		.uleb128 0x7
 1929 0882 B2040000 		.4byte	0x4b2
 1930 0886 24       		.uleb128 0x24
 1931 0887 35040000 		.4byte	0x435
 1932 088b 05       		.byte	0x5
 1933 088c 86       		.byte	0x86
 1934 088d B4020000 		.4byte	.LFB52
 1935 0891 26000000 		.4byte	.LFE52-.LFB52
ARM GAS  /tmp/ccp6ki2O.s 			page 35


 1936 0895 01       		.uleb128 0x1
 1937 0896 9C       		.byte	0x9c
 1938 0897 9F080000 		.4byte	0x89f
 1939 089b C4080000 		.4byte	0x8c4
 1940 089f 22       		.uleb128 0x22
 1941 08a0 49040000 		.4byte	.LASF63
 1942 08a4 21060000 		.4byte	0x621
 1943 08a8 02       		.uleb128 0x2
 1944 08a9 91       		.byte	0x91
 1945 08aa 6C       		.sleb128 -20
 1946 08ab 1E       		.uleb128 0x1e
 1947 08ac BA020000 		.4byte	.LBB19
 1948 08b0 18000000 		.4byte	.LBE19-.LBB19
 1949 08b4 26       		.uleb128 0x26
 1950 08b5 9C050000 		.4byte	.LASF67
 1951 08b9 05       		.byte	0x5
 1952 08ba 89       		.byte	0x89
 1953 08bb 87040000 		.4byte	0x487
 1954 08bf 02       		.uleb128 0x2
 1955 08c0 91       		.byte	0x91
 1956 08c1 77       		.sleb128 -9
 1957 08c2 00       		.byte	0
 1958 08c3 00       		.byte	0
 1959 08c4 27       		.uleb128 0x27
 1960 08c5 53040000 		.4byte	0x453
 1961 08c9 05       		.byte	0x5
 1962 08ca 8F       		.byte	0x8f
 1963 08cb 00       		.byte	0
 1964 08cc D4080000 		.4byte	0x8d4
 1965 08d0 DE080000 		.4byte	0x8de
 1966 08d4 1A       		.uleb128 0x1a
 1967 08d5 49040000 		.4byte	.LASF63
 1968 08d9 21060000 		.4byte	0x621
 1969 08dd 00       		.byte	0
 1970 08de 28       		.uleb128 0x28
 1971 08df C4080000 		.4byte	0x8c4
 1972 08e3 1B050000 		.4byte	.LASF72
 1973 08e7 DC020000 		.4byte	.LFB54
 1974 08eb 22000000 		.4byte	.LFE54-.LFB54
 1975 08ef 01       		.uleb128 0x1
 1976 08f0 9C       		.byte	0x9c
 1977 08f1 F5080000 		.4byte	0x8f5
 1978 08f5 1C       		.uleb128 0x1c
 1979 08f6 D4080000 		.4byte	0x8d4
 1980 08fa 02       		.uleb128 0x2
 1981 08fb 91       		.byte	0x91
 1982 08fc 74       		.sleb128 -12
 1983 08fd 00       		.byte	0
 1984 08fe 00       		.byte	0
 1985              		.section	.debug_abbrev,"",%progbits
 1986              	.Ldebug_abbrev0:
 1987 0000 01       		.uleb128 0x1
 1988 0001 11       		.uleb128 0x11
 1989 0002 01       		.byte	0x1
 1990 0003 25       		.uleb128 0x25
 1991 0004 0E       		.uleb128 0xe
 1992 0005 13       		.uleb128 0x13
ARM GAS  /tmp/ccp6ki2O.s 			page 36


 1993 0006 0B       		.uleb128 0xb
 1994 0007 03       		.uleb128 0x3
 1995 0008 0E       		.uleb128 0xe
 1996 0009 1B       		.uleb128 0x1b
 1997 000a 0E       		.uleb128 0xe
 1998 000b 55       		.uleb128 0x55
 1999 000c 17       		.uleb128 0x17
 2000 000d 11       		.uleb128 0x11
 2001 000e 01       		.uleb128 0x1
 2002 000f 10       		.uleb128 0x10
 2003 0010 17       		.uleb128 0x17
 2004 0011 00       		.byte	0
 2005 0012 00       		.byte	0
 2006 0013 02       		.uleb128 0x2
 2007 0014 24       		.uleb128 0x24
 2008 0015 00       		.byte	0
 2009 0016 0B       		.uleb128 0xb
 2010 0017 0B       		.uleb128 0xb
 2011 0018 3E       		.uleb128 0x3e
 2012 0019 0B       		.uleb128 0xb
 2013 001a 03       		.uleb128 0x3
 2014 001b 08       		.uleb128 0x8
 2015 001c 00       		.byte	0
 2016 001d 00       		.byte	0
 2017 001e 03       		.uleb128 0x3
 2018 001f 16       		.uleb128 0x16
 2019 0020 00       		.byte	0
 2020 0021 03       		.uleb128 0x3
 2021 0022 0E       		.uleb128 0xe
 2022 0023 3A       		.uleb128 0x3a
 2023 0024 0B       		.uleb128 0xb
 2024 0025 3B       		.uleb128 0x3b
 2025 0026 0B       		.uleb128 0xb
 2026 0027 49       		.uleb128 0x49
 2027 0028 13       		.uleb128 0x13
 2028 0029 00       		.byte	0
 2029 002a 00       		.byte	0
 2030 002b 04       		.uleb128 0x4
 2031 002c 24       		.uleb128 0x24
 2032 002d 00       		.byte	0
 2033 002e 0B       		.uleb128 0xb
 2034 002f 0B       		.uleb128 0xb
 2035 0030 3E       		.uleb128 0x3e
 2036 0031 0B       		.uleb128 0xb
 2037 0032 03       		.uleb128 0x3
 2038 0033 0E       		.uleb128 0xe
 2039 0034 00       		.byte	0
 2040 0035 00       		.byte	0
 2041 0036 05       		.uleb128 0x5
 2042 0037 0F       		.uleb128 0xf
 2043 0038 00       		.byte	0
 2044 0039 0B       		.uleb128 0xb
 2045 003a 0B       		.uleb128 0xb
 2046 003b 00       		.byte	0
 2047 003c 00       		.byte	0
 2048 003d 06       		.uleb128 0x6
 2049 003e 0F       		.uleb128 0xf
ARM GAS  /tmp/ccp6ki2O.s 			page 37


 2050 003f 00       		.byte	0
 2051 0040 0B       		.uleb128 0xb
 2052 0041 0B       		.uleb128 0xb
 2053 0042 49       		.uleb128 0x49
 2054 0043 13       		.uleb128 0x13
 2055 0044 00       		.byte	0
 2056 0045 00       		.byte	0
 2057 0046 07       		.uleb128 0x7
 2058 0047 26       		.uleb128 0x26
 2059 0048 00       		.byte	0
 2060 0049 49       		.uleb128 0x49
 2061 004a 13       		.uleb128 0x13
 2062 004b 00       		.byte	0
 2063 004c 00       		.byte	0
 2064 004d 08       		.uleb128 0x8
 2065 004e 39       		.uleb128 0x39
 2066 004f 01       		.byte	0x1
 2067 0050 03       		.uleb128 0x3
 2068 0051 08       		.uleb128 0x8
 2069 0052 3A       		.uleb128 0x3a
 2070 0053 0B       		.uleb128 0xb
 2071 0054 3B       		.uleb128 0x3b
 2072 0055 0B       		.uleb128 0xb
 2073 0056 01       		.uleb128 0x1
 2074 0057 13       		.uleb128 0x13
 2075 0058 00       		.byte	0
 2076 0059 00       		.byte	0
 2077 005a 09       		.uleb128 0x9
 2078 005b 08       		.uleb128 0x8
 2079 005c 00       		.byte	0
 2080 005d 3A       		.uleb128 0x3a
 2081 005e 0B       		.uleb128 0xb
 2082 005f 3B       		.uleb128 0x3b
 2083 0060 0B       		.uleb128 0xb
 2084 0061 18       		.uleb128 0x18
 2085 0062 13       		.uleb128 0x13
 2086 0063 00       		.byte	0
 2087 0064 00       		.byte	0
 2088 0065 0A       		.uleb128 0xa
 2089 0066 2E       		.uleb128 0x2e
 2090 0067 01       		.byte	0x1
 2091 0068 3F       		.uleb128 0x3f
 2092 0069 19       		.uleb128 0x19
 2093 006a 03       		.uleb128 0x3
 2094 006b 0E       		.uleb128 0xe
 2095 006c 3A       		.uleb128 0x3a
 2096 006d 0B       		.uleb128 0xb
 2097 006e 3B       		.uleb128 0x3b
 2098 006f 0B       		.uleb128 0xb
 2099 0070 49       		.uleb128 0x49
 2100 0071 13       		.uleb128 0x13
 2101 0072 3C       		.uleb128 0x3c
 2102 0073 19       		.uleb128 0x19
 2103 0074 01       		.uleb128 0x1
 2104 0075 13       		.uleb128 0x13
 2105 0076 00       		.byte	0
 2106 0077 00       		.byte	0
ARM GAS  /tmp/ccp6ki2O.s 			page 38


 2107 0078 0B       		.uleb128 0xb
 2108 0079 05       		.uleb128 0x5
 2109 007a 00       		.byte	0
 2110 007b 49       		.uleb128 0x49
 2111 007c 13       		.uleb128 0x13
 2112 007d 00       		.byte	0
 2113 007e 00       		.byte	0
 2114 007f 0C       		.uleb128 0xc
 2115 0080 02       		.uleb128 0x2
 2116 0081 01       		.byte	0x1
 2117 0082 03       		.uleb128 0x3
 2118 0083 0E       		.uleb128 0xe
 2119 0084 0B       		.uleb128 0xb
 2120 0085 0B       		.uleb128 0xb
 2121 0086 3A       		.uleb128 0x3a
 2122 0087 0B       		.uleb128 0xb
 2123 0088 3B       		.uleb128 0x3b
 2124 0089 0B       		.uleb128 0xb
 2125 008a 01       		.uleb128 0x1
 2126 008b 13       		.uleb128 0x13
 2127 008c 00       		.byte	0
 2128 008d 00       		.byte	0
 2129 008e 0D       		.uleb128 0xd
 2130 008f 2E       		.uleb128 0x2e
 2131 0090 01       		.byte	0x1
 2132 0091 3F       		.uleb128 0x3f
 2133 0092 19       		.uleb128 0x19
 2134 0093 03       		.uleb128 0x3
 2135 0094 0E       		.uleb128 0xe
 2136 0095 3A       		.uleb128 0x3a
 2137 0096 0B       		.uleb128 0xb
 2138 0097 3B       		.uleb128 0x3b
 2139 0098 0B       		.uleb128 0xb
 2140 0099 49       		.uleb128 0x49
 2141 009a 13       		.uleb128 0x13
 2142 009b 3C       		.uleb128 0x3c
 2143 009c 19       		.uleb128 0x19
 2144 009d 64       		.uleb128 0x64
 2145 009e 13       		.uleb128 0x13
 2146 009f 01       		.uleb128 0x1
 2147 00a0 13       		.uleb128 0x13
 2148 00a1 00       		.byte	0
 2149 00a2 00       		.byte	0
 2150 00a3 0E       		.uleb128 0xe
 2151 00a4 05       		.uleb128 0x5
 2152 00a5 00       		.byte	0
 2153 00a6 49       		.uleb128 0x49
 2154 00a7 13       		.uleb128 0x13
 2155 00a8 34       		.uleb128 0x34
 2156 00a9 19       		.uleb128 0x19
 2157 00aa 00       		.byte	0
 2158 00ab 00       		.byte	0
 2159 00ac 0F       		.uleb128 0xf
 2160 00ad 2E       		.uleb128 0x2e
 2161 00ae 01       		.byte	0x1
 2162 00af 3F       		.uleb128 0x3f
 2163 00b0 19       		.uleb128 0x19
ARM GAS  /tmp/ccp6ki2O.s 			page 39


 2164 00b1 03       		.uleb128 0x3
 2165 00b2 0E       		.uleb128 0xe
 2166 00b3 3A       		.uleb128 0x3a
 2167 00b4 0B       		.uleb128 0xb
 2168 00b5 3B       		.uleb128 0x3b
 2169 00b6 0B       		.uleb128 0xb
 2170 00b7 49       		.uleb128 0x49
 2171 00b8 13       		.uleb128 0x13
 2172 00b9 32       		.uleb128 0x32
 2173 00ba 0B       		.uleb128 0xb
 2174 00bb 3C       		.uleb128 0x3c
 2175 00bc 19       		.uleb128 0x19
 2176 00bd 64       		.uleb128 0x64
 2177 00be 13       		.uleb128 0x13
 2178 00bf 01       		.uleb128 0x1
 2179 00c0 13       		.uleb128 0x13
 2180 00c1 00       		.byte	0
 2181 00c2 00       		.byte	0
 2182 00c3 10       		.uleb128 0x10
 2183 00c4 2E       		.uleb128 0x2e
 2184 00c5 01       		.byte	0x1
 2185 00c6 3F       		.uleb128 0x3f
 2186 00c7 19       		.uleb128 0x19
 2187 00c8 03       		.uleb128 0x3
 2188 00c9 0E       		.uleb128 0xe
 2189 00ca 3A       		.uleb128 0x3a
 2190 00cb 0B       		.uleb128 0xb
 2191 00cc 3B       		.uleb128 0x3b
 2192 00cd 0B       		.uleb128 0xb
 2193 00ce 49       		.uleb128 0x49
 2194 00cf 13       		.uleb128 0x13
 2195 00d0 32       		.uleb128 0x32
 2196 00d1 0B       		.uleb128 0xb
 2197 00d2 3C       		.uleb128 0x3c
 2198 00d3 19       		.uleb128 0x19
 2199 00d4 64       		.uleb128 0x64
 2200 00d5 13       		.uleb128 0x13
 2201 00d6 00       		.byte	0
 2202 00d7 00       		.byte	0
 2203 00d8 11       		.uleb128 0x11
 2204 00d9 1C       		.uleb128 0x1c
 2205 00da 00       		.byte	0
 2206 00db 49       		.uleb128 0x49
 2207 00dc 13       		.uleb128 0x13
 2208 00dd 38       		.uleb128 0x38
 2209 00de 0B       		.uleb128 0xb
 2210 00df 00       		.byte	0
 2211 00e0 00       		.byte	0
 2212 00e1 12       		.uleb128 0x12
 2213 00e2 2E       		.uleb128 0x2e
 2214 00e3 00       		.byte	0
 2215 00e4 3F       		.uleb128 0x3f
 2216 00e5 19       		.uleb128 0x19
 2217 00e6 03       		.uleb128 0x3
 2218 00e7 0E       		.uleb128 0xe
 2219 00e8 3A       		.uleb128 0x3a
 2220 00e9 0B       		.uleb128 0xb
ARM GAS  /tmp/ccp6ki2O.s 			page 40


 2221 00ea 3B       		.uleb128 0x3b
 2222 00eb 0B       		.uleb128 0xb
 2223 00ec 6E       		.uleb128 0x6e
 2224 00ed 0E       		.uleb128 0xe
 2225 00ee 32       		.uleb128 0x32
 2226 00ef 0B       		.uleb128 0xb
 2227 00f0 3C       		.uleb128 0x3c
 2228 00f1 19       		.uleb128 0x19
 2229 00f2 00       		.byte	0
 2230 00f3 00       		.byte	0
 2231 00f4 13       		.uleb128 0x13
 2232 00f5 13       		.uleb128 0x13
 2233 00f6 01       		.byte	0x1
 2234 00f7 03       		.uleb128 0x3
 2235 00f8 0E       		.uleb128 0xe
 2236 00f9 0B       		.uleb128 0xb
 2237 00fa 0B       		.uleb128 0xb
 2238 00fb 3A       		.uleb128 0x3a
 2239 00fc 0B       		.uleb128 0xb
 2240 00fd 3B       		.uleb128 0x3b
 2241 00fe 0B       		.uleb128 0xb
 2242 00ff 32       		.uleb128 0x32
 2243 0100 0B       		.uleb128 0xb
 2244 0101 01       		.uleb128 0x1
 2245 0102 13       		.uleb128 0x13
 2246 0103 00       		.byte	0
 2247 0104 00       		.byte	0
 2248 0105 14       		.uleb128 0x14
 2249 0106 0D       		.uleb128 0xd
 2250 0107 00       		.byte	0
 2251 0108 03       		.uleb128 0x3
 2252 0109 0E       		.uleb128 0xe
 2253 010a 3A       		.uleb128 0x3a
 2254 010b 0B       		.uleb128 0xb
 2255 010c 3B       		.uleb128 0x3b
 2256 010d 0B       		.uleb128 0xb
 2257 010e 49       		.uleb128 0x49
 2258 010f 13       		.uleb128 0x13
 2259 0110 38       		.uleb128 0x38
 2260 0111 0B       		.uleb128 0xb
 2261 0112 00       		.byte	0
 2262 0113 00       		.byte	0
 2263 0114 15       		.uleb128 0x15
 2264 0115 2E       		.uleb128 0x2e
 2265 0116 01       		.byte	0x1
 2266 0117 3F       		.uleb128 0x3f
 2267 0118 19       		.uleb128 0x19
 2268 0119 03       		.uleb128 0x3
 2269 011a 0E       		.uleb128 0xe
 2270 011b 3A       		.uleb128 0x3a
 2271 011c 0B       		.uleb128 0xb
 2272 011d 3B       		.uleb128 0x3b
 2273 011e 0B       		.uleb128 0xb
 2274 011f 49       		.uleb128 0x49
 2275 0120 13       		.uleb128 0x13
 2276 0121 3C       		.uleb128 0x3c
 2277 0122 19       		.uleb128 0x19
ARM GAS  /tmp/ccp6ki2O.s 			page 41


 2278 0123 64       		.uleb128 0x64
 2279 0124 13       		.uleb128 0x13
 2280 0125 00       		.byte	0
 2281 0126 00       		.byte	0
 2282 0127 16       		.uleb128 0x16
 2283 0128 2E       		.uleb128 0x2e
 2284 0129 01       		.byte	0x1
 2285 012a 3F       		.uleb128 0x3f
 2286 012b 19       		.uleb128 0x19
 2287 012c 03       		.uleb128 0x3
 2288 012d 0E       		.uleb128 0xe
 2289 012e 3A       		.uleb128 0x3a
 2290 012f 0B       		.uleb128 0xb
 2291 0130 3B       		.uleb128 0x3b
 2292 0131 0B       		.uleb128 0xb
 2293 0132 6E       		.uleb128 0x6e
 2294 0133 0E       		.uleb128 0xe
 2295 0134 49       		.uleb128 0x49
 2296 0135 13       		.uleb128 0x13
 2297 0136 32       		.uleb128 0x32
 2298 0137 0B       		.uleb128 0xb
 2299 0138 3C       		.uleb128 0x3c
 2300 0139 19       		.uleb128 0x19
 2301 013a 64       		.uleb128 0x64
 2302 013b 13       		.uleb128 0x13
 2303 013c 01       		.uleb128 0x1
 2304 013d 13       		.uleb128 0x13
 2305 013e 00       		.byte	0
 2306 013f 00       		.byte	0
 2307 0140 17       		.uleb128 0x17
 2308 0141 2E       		.uleb128 0x2e
 2309 0142 01       		.byte	0x1
 2310 0143 3F       		.uleb128 0x3f
 2311 0144 19       		.uleb128 0x19
 2312 0145 03       		.uleb128 0x3
 2313 0146 0E       		.uleb128 0xe
 2314 0147 3A       		.uleb128 0x3a
 2315 0148 0B       		.uleb128 0xb
 2316 0149 3B       		.uleb128 0x3b
 2317 014a 0B       		.uleb128 0xb
 2318 014b 6E       		.uleb128 0x6e
 2319 014c 0E       		.uleb128 0xe
 2320 014d 32       		.uleb128 0x32
 2321 014e 0B       		.uleb128 0xb
 2322 014f 3C       		.uleb128 0x3c
 2323 0150 19       		.uleb128 0x19
 2324 0151 64       		.uleb128 0x64
 2325 0152 13       		.uleb128 0x13
 2326 0153 01       		.uleb128 0x1
 2327 0154 13       		.uleb128 0x13
 2328 0155 00       		.byte	0
 2329 0156 00       		.byte	0
 2330 0157 18       		.uleb128 0x18
 2331 0158 10       		.uleb128 0x10
 2332 0159 00       		.byte	0
 2333 015a 0B       		.uleb128 0xb
 2334 015b 0B       		.uleb128 0xb
ARM GAS  /tmp/ccp6ki2O.s 			page 42


 2335 015c 49       		.uleb128 0x49
 2336 015d 13       		.uleb128 0x13
 2337 015e 00       		.byte	0
 2338 015f 00       		.byte	0
 2339 0160 19       		.uleb128 0x19
 2340 0161 2E       		.uleb128 0x2e
 2341 0162 01       		.byte	0x1
 2342 0163 47       		.uleb128 0x47
 2343 0164 13       		.uleb128 0x13
 2344 0165 20       		.uleb128 0x20
 2345 0166 0B       		.uleb128 0xb
 2346 0167 64       		.uleb128 0x64
 2347 0168 13       		.uleb128 0x13
 2348 0169 01       		.uleb128 0x1
 2349 016a 13       		.uleb128 0x13
 2350 016b 00       		.byte	0
 2351 016c 00       		.byte	0
 2352 016d 1A       		.uleb128 0x1a
 2353 016e 05       		.uleb128 0x5
 2354 016f 00       		.byte	0
 2355 0170 03       		.uleb128 0x3
 2356 0171 0E       		.uleb128 0xe
 2357 0172 49       		.uleb128 0x49
 2358 0173 13       		.uleb128 0x13
 2359 0174 34       		.uleb128 0x34
 2360 0175 19       		.uleb128 0x19
 2361 0176 00       		.byte	0
 2362 0177 00       		.byte	0
 2363 0178 1B       		.uleb128 0x1b
 2364 0179 2E       		.uleb128 0x2e
 2365 017a 01       		.byte	0x1
 2366 017b 31       		.uleb128 0x31
 2367 017c 13       		.uleb128 0x13
 2368 017d 6E       		.uleb128 0x6e
 2369 017e 0E       		.uleb128 0xe
 2370 017f 11       		.uleb128 0x11
 2371 0180 01       		.uleb128 0x1
 2372 0181 12       		.uleb128 0x12
 2373 0182 06       		.uleb128 0x6
 2374 0183 40       		.uleb128 0x40
 2375 0184 18       		.uleb128 0x18
 2376 0185 64       		.uleb128 0x64
 2377 0186 13       		.uleb128 0x13
 2378 0187 9742     		.uleb128 0x2117
 2379 0189 19       		.uleb128 0x19
 2380 018a 01       		.uleb128 0x1
 2381 018b 13       		.uleb128 0x13
 2382 018c 00       		.byte	0
 2383 018d 00       		.byte	0
 2384 018e 1C       		.uleb128 0x1c
 2385 018f 05       		.uleb128 0x5
 2386 0190 00       		.byte	0
 2387 0191 31       		.uleb128 0x31
 2388 0192 13       		.uleb128 0x13
 2389 0193 02       		.uleb128 0x2
 2390 0194 18       		.uleb128 0x18
 2391 0195 00       		.byte	0
ARM GAS  /tmp/ccp6ki2O.s 			page 43


 2392 0196 00       		.byte	0
 2393 0197 1D       		.uleb128 0x1d
 2394 0198 2E       		.uleb128 0x2e
 2395 0199 01       		.byte	0x1
 2396 019a 47       		.uleb128 0x47
 2397 019b 13       		.uleb128 0x13
 2398 019c 3B       		.uleb128 0x3b
 2399 019d 0B       		.uleb128 0xb
 2400 019e 11       		.uleb128 0x11
 2401 019f 01       		.uleb128 0x1
 2402 01a0 12       		.uleb128 0x12
 2403 01a1 06       		.uleb128 0x6
 2404 01a2 40       		.uleb128 0x40
 2405 01a3 18       		.uleb128 0x18
 2406 01a4 9642     		.uleb128 0x2116
 2407 01a6 19       		.uleb128 0x19
 2408 01a7 01       		.uleb128 0x1
 2409 01a8 13       		.uleb128 0x13
 2410 01a9 00       		.byte	0
 2411 01aa 00       		.byte	0
 2412 01ab 1E       		.uleb128 0x1e
 2413 01ac 0B       		.uleb128 0xb
 2414 01ad 01       		.byte	0x1
 2415 01ae 11       		.uleb128 0x11
 2416 01af 01       		.uleb128 0x1
 2417 01b0 12       		.uleb128 0x12
 2418 01b1 06       		.uleb128 0x6
 2419 01b2 00       		.byte	0
 2420 01b3 00       		.byte	0
 2421 01b4 1F       		.uleb128 0x1f
 2422 01b5 34       		.uleb128 0x34
 2423 01b6 00       		.byte	0
 2424 01b7 03       		.uleb128 0x3
 2425 01b8 08       		.uleb128 0x8
 2426 01b9 3A       		.uleb128 0x3a
 2427 01ba 0B       		.uleb128 0xb
 2428 01bb 3B       		.uleb128 0x3b
 2429 01bc 0B       		.uleb128 0xb
 2430 01bd 49       		.uleb128 0x49
 2431 01be 13       		.uleb128 0x13
 2432 01bf 02       		.uleb128 0x2
 2433 01c0 18       		.uleb128 0x18
 2434 01c1 00       		.byte	0
 2435 01c2 00       		.byte	0
 2436 01c3 20       		.uleb128 0x20
 2437 01c4 2E       		.uleb128 0x2e
 2438 01c5 00       		.byte	0
 2439 01c6 47       		.uleb128 0x47
 2440 01c7 13       		.uleb128 0x13
 2441 01c8 3B       		.uleb128 0x3b
 2442 01c9 0B       		.uleb128 0xb
 2443 01ca 11       		.uleb128 0x11
 2444 01cb 01       		.uleb128 0x1
 2445 01cc 12       		.uleb128 0x12
 2446 01cd 06       		.uleb128 0x6
 2447 01ce 40       		.uleb128 0x40
 2448 01cf 18       		.uleb128 0x18
ARM GAS  /tmp/ccp6ki2O.s 			page 44


 2449 01d0 9642     		.uleb128 0x2116
 2450 01d2 19       		.uleb128 0x19
 2451 01d3 00       		.byte	0
 2452 01d4 00       		.byte	0
 2453 01d5 21       		.uleb128 0x21
 2454 01d6 2E       		.uleb128 0x2e
 2455 01d7 01       		.byte	0x1
 2456 01d8 47       		.uleb128 0x47
 2457 01d9 13       		.uleb128 0x13
 2458 01da 3B       		.uleb128 0x3b
 2459 01db 0B       		.uleb128 0xb
 2460 01dc 11       		.uleb128 0x11
 2461 01dd 01       		.uleb128 0x1
 2462 01de 12       		.uleb128 0x12
 2463 01df 06       		.uleb128 0x6
 2464 01e0 40       		.uleb128 0x40
 2465 01e1 18       		.uleb128 0x18
 2466 01e2 64       		.uleb128 0x64
 2467 01e3 13       		.uleb128 0x13
 2468 01e4 9742     		.uleb128 0x2117
 2469 01e6 19       		.uleb128 0x19
 2470 01e7 01       		.uleb128 0x1
 2471 01e8 13       		.uleb128 0x13
 2472 01e9 00       		.byte	0
 2473 01ea 00       		.byte	0
 2474 01eb 22       		.uleb128 0x22
 2475 01ec 05       		.uleb128 0x5
 2476 01ed 00       		.byte	0
 2477 01ee 03       		.uleb128 0x3
 2478 01ef 0E       		.uleb128 0xe
 2479 01f0 49       		.uleb128 0x49
 2480 01f1 13       		.uleb128 0x13
 2481 01f2 34       		.uleb128 0x34
 2482 01f3 19       		.uleb128 0x19
 2483 01f4 02       		.uleb128 0x2
 2484 01f5 18       		.uleb128 0x18
 2485 01f6 00       		.byte	0
 2486 01f7 00       		.byte	0
 2487 01f8 23       		.uleb128 0x23
 2488 01f9 2E       		.uleb128 0x2e
 2489 01fa 01       		.byte	0x1
 2490 01fb 47       		.uleb128 0x47
 2491 01fc 13       		.uleb128 0x13
 2492 01fd 3A       		.uleb128 0x3a
 2493 01fe 0B       		.uleb128 0xb
 2494 01ff 3B       		.uleb128 0x3b
 2495 0200 0B       		.uleb128 0xb
 2496 0201 11       		.uleb128 0x11
 2497 0202 01       		.uleb128 0x1
 2498 0203 12       		.uleb128 0x12
 2499 0204 06       		.uleb128 0x6
 2500 0205 40       		.uleb128 0x40
 2501 0206 18       		.uleb128 0x18
 2502 0207 64       		.uleb128 0x64
 2503 0208 13       		.uleb128 0x13
 2504 0209 9742     		.uleb128 0x2117
 2505 020b 19       		.uleb128 0x19
ARM GAS  /tmp/ccp6ki2O.s 			page 45


 2506 020c 01       		.uleb128 0x1
 2507 020d 13       		.uleb128 0x13
 2508 020e 00       		.byte	0
 2509 020f 00       		.byte	0
 2510 0210 24       		.uleb128 0x24
 2511 0211 2E       		.uleb128 0x2e
 2512 0212 01       		.byte	0x1
 2513 0213 47       		.uleb128 0x47
 2514 0214 13       		.uleb128 0x13
 2515 0215 3A       		.uleb128 0x3a
 2516 0216 0B       		.uleb128 0xb
 2517 0217 3B       		.uleb128 0x3b
 2518 0218 0B       		.uleb128 0xb
 2519 0219 11       		.uleb128 0x11
 2520 021a 01       		.uleb128 0x1
 2521 021b 12       		.uleb128 0x12
 2522 021c 06       		.uleb128 0x6
 2523 021d 40       		.uleb128 0x40
 2524 021e 18       		.uleb128 0x18
 2525 021f 64       		.uleb128 0x64
 2526 0220 13       		.uleb128 0x13
 2527 0221 9642     		.uleb128 0x2116
 2528 0223 19       		.uleb128 0x19
 2529 0224 01       		.uleb128 0x1
 2530 0225 13       		.uleb128 0x13
 2531 0226 00       		.byte	0
 2532 0227 00       		.byte	0
 2533 0228 25       		.uleb128 0x25
 2534 0229 05       		.uleb128 0x5
 2535 022a 00       		.byte	0
 2536 022b 03       		.uleb128 0x3
 2537 022c 0E       		.uleb128 0xe
 2538 022d 3A       		.uleb128 0x3a
 2539 022e 0B       		.uleb128 0xb
 2540 022f 3B       		.uleb128 0x3b
 2541 0230 0B       		.uleb128 0xb
 2542 0231 49       		.uleb128 0x49
 2543 0232 13       		.uleb128 0x13
 2544 0233 02       		.uleb128 0x2
 2545 0234 18       		.uleb128 0x18
 2546 0235 00       		.byte	0
 2547 0236 00       		.byte	0
 2548 0237 26       		.uleb128 0x26
 2549 0238 34       		.uleb128 0x34
 2550 0239 00       		.byte	0
 2551 023a 03       		.uleb128 0x3
 2552 023b 0E       		.uleb128 0xe
 2553 023c 3A       		.uleb128 0x3a
 2554 023d 0B       		.uleb128 0xb
 2555 023e 3B       		.uleb128 0x3b
 2556 023f 0B       		.uleb128 0xb
 2557 0240 49       		.uleb128 0x49
 2558 0241 13       		.uleb128 0x13
 2559 0242 02       		.uleb128 0x2
 2560 0243 18       		.uleb128 0x18
 2561 0244 00       		.byte	0
 2562 0245 00       		.byte	0
ARM GAS  /tmp/ccp6ki2O.s 			page 46


 2563 0246 27       		.uleb128 0x27
 2564 0247 2E       		.uleb128 0x2e
 2565 0248 01       		.byte	0x1
 2566 0249 47       		.uleb128 0x47
 2567 024a 13       		.uleb128 0x13
 2568 024b 3A       		.uleb128 0x3a
 2569 024c 0B       		.uleb128 0xb
 2570 024d 3B       		.uleb128 0x3b
 2571 024e 0B       		.uleb128 0xb
 2572 024f 20       		.uleb128 0x20
 2573 0250 0B       		.uleb128 0xb
 2574 0251 64       		.uleb128 0x64
 2575 0252 13       		.uleb128 0x13
 2576 0253 01       		.uleb128 0x1
 2577 0254 13       		.uleb128 0x13
 2578 0255 00       		.byte	0
 2579 0256 00       		.byte	0
 2580 0257 28       		.uleb128 0x28
 2581 0258 2E       		.uleb128 0x2e
 2582 0259 01       		.byte	0x1
 2583 025a 31       		.uleb128 0x31
 2584 025b 13       		.uleb128 0x13
 2585 025c 6E       		.uleb128 0x6e
 2586 025d 0E       		.uleb128 0xe
 2587 025e 11       		.uleb128 0x11
 2588 025f 01       		.uleb128 0x1
 2589 0260 12       		.uleb128 0x12
 2590 0261 06       		.uleb128 0x6
 2591 0262 40       		.uleb128 0x40
 2592 0263 18       		.uleb128 0x18
 2593 0264 64       		.uleb128 0x64
 2594 0265 13       		.uleb128 0x13
 2595 0266 9642     		.uleb128 0x2116
 2596 0268 19       		.uleb128 0x19
 2597 0269 00       		.byte	0
 2598 026a 00       		.byte	0
 2599 026b 00       		.byte	0
 2600              		.section	.debug_aranges,"",%progbits
 2601 0000 4C000000 		.4byte	0x4c
 2602 0004 0200     		.2byte	0x2
 2603 0006 00000000 		.4byte	.Ldebug_info0
 2604 000a 04       		.byte	0x4
 2605 000b 00       		.byte	0
 2606 000c 0000     		.2byte	0
 2607 000e 0000     		.2byte	0
 2608 0010 00000000 		.4byte	.Ltext0
 2609 0014 FE020000 		.4byte	.Letext0-.Ltext0
 2610 0018 00000000 		.4byte	.LFB6
 2611 001c 0C000000 		.4byte	.LFE6-.LFB6
 2612 0020 00000000 		.4byte	.LFB18
 2613 0024 0E000000 		.4byte	.LFE18-.LFB18
 2614 0028 00000000 		.4byte	.LFB19
 2615 002c 0E000000 		.4byte	.LFE19-.LFB19
 2616 0030 00000000 		.4byte	.LFB26
 2617 0034 08000000 		.4byte	.LFE26-.LFB26
 2618 0038 00000000 		.4byte	.LFB27
 2619 003c 08000000 		.4byte	.LFE27-.LFB27
ARM GAS  /tmp/ccp6ki2O.s 			page 47


 2620 0040 00000000 		.4byte	.LFB39
 2621 0044 18000000 		.4byte	.LFE39-.LFB39
 2622 0048 00000000 		.4byte	0
 2623 004c 00000000 		.4byte	0
 2624              		.section	.debug_ranges,"",%progbits
 2625              	.Ldebug_ranges0:
 2626 0000 00000000 		.4byte	.Ltext0
 2627 0004 FE020000 		.4byte	.Letext0
 2628 0008 00000000 		.4byte	.LFB6
 2629 000c 0C000000 		.4byte	.LFE6
 2630 0010 00000000 		.4byte	.LFB18
 2631 0014 0E000000 		.4byte	.LFE18
 2632 0018 00000000 		.4byte	.LFB19
 2633 001c 0E000000 		.4byte	.LFE19
 2634 0020 00000000 		.4byte	.LFB26
 2635 0024 08000000 		.4byte	.LFE26
 2636 0028 00000000 		.4byte	.LFB27
 2637 002c 08000000 		.4byte	.LFE27
 2638 0030 00000000 		.4byte	.LFB39
 2639 0034 18000000 		.4byte	.LFE39
 2640 0038 00000000 		.4byte	0
 2641 003c 00000000 		.4byte	0
 2642              		.section	.debug_line,"",%progbits
 2643              	.Ldebug_line0:
 2644 0000 97030000 		.section	.debug_str,"MS",%progbits,1
 2644      02008D02 
 2644      00000201 
 2644      FB0E0D00 
 2644      01010101 
 2645              	.LASF30:
 2646 0000 4C696E6B 		.ascii	"Link\000"
 2646      00
 2647              	.LASF18:
 2648 0005 7E556E63 		.ascii	"~Uncopyable\000"
 2648      6F707961 
 2648      626C6500 
 2649              	.LASF60:
 2650 0011 5F5A4E33 		.ascii	"_ZN3r2p12StaticQueue_4skipEv\000"
 2650      72327031 
 2650      32537461 
 2650      74696351 
 2650      75657565 
 2651              	.LASF59:
 2652 002e 736B6970 		.ascii	"skip\000"
 2652      00
 2653              	.LASF47:
 2654 0033 5F5A4E4B 		.ascii	"_ZNK3r2p12StaticQueue_8get_headEv\000"
 2654      33723270 
 2654      31325374 
 2654      61746963 
 2654      51756575 
 2655              	.LASF21:
 2656 0055 72656C65 		.ascii	"release\000"
 2656      61736500 
 2657              	.LASF6:
 2658 005d 73697A65 		.ascii	"size_t\000"
 2658      5F7400
ARM GAS  /tmp/ccp6ki2O.s 			page 48


 2659              	.LASF11:
 2660 0064 73697A65 		.ascii	"sizetype\000"
 2660      74797065 
 2660      00
 2661              	.LASF45:
 2662 006d 5F5A4E33 		.ascii	"_ZN3r2p12StaticQueue_11skip_unsafeEv\000"
 2662      72327031 
 2662      32537461 
 2662      74696351 
 2662      75657565 
 2663              	.LASF70:
 2664 0092 2F686F6D 		.ascii	"/home/tino/workspace/openrobots/Middleware_v2-new/\000"
 2664      652F7469 
 2664      6E6F2F77 
 2664      6F726B73 
 2664      70616365 
 2665              	.LASF7:
 2666 00c5 5F5F7569 		.ascii	"__uint32_t\000"
 2666      6E743332 
 2666      5F7400
 2667              	.LASF29:
 2668 00d0 64617461 		.ascii	"datap\000"
 2668      7000
 2669              	.LASF38:
 2670 00d6 5F5A4E4B 		.ascii	"_ZNK3r2p12StaticQueue_15is_empty_unsafeEv\000"
 2670      33723270 
 2670      31325374 
 2670      61746963 
 2670      51756575 
 2671              	.LASF34:
 2672 0100 6765745F 		.ascii	"get_tail_unsafe\000"
 2672      7461696C 
 2672      5F756E73 
 2672      61666500 
 2673              	.LASF68:
 2674 0110 474E5520 		.ascii	"GNU C++ 4.9.3 20141119 (release) [ARM/embedded-4_9-"
 2674      432B2B20 
 2674      342E392E 
 2674      33203230 
 2674      31343131 
 2675 0143 6272616E 		.ascii	"branch revision 218278] -mcpu=cortex-m4 -mno-thumb-"
 2675      63682072 
 2675      65766973 
 2675      696F6E20 
 2675      32313832 
 2676 0176 696E7465 		.ascii	"interwork -mthumb -ggdb -O0 -fomit-frame-pointer -f"
 2676      72776F72 
 2676      6B202D6D 
 2676      7468756D 
 2676      62202D67 
 2677 01a9 6E6F2D72 		.ascii	"no-rtti -fno-exceptions -fno-threadsafe-statics\000"
 2677      74746920 
 2677      2D666E6F 
 2677      2D657863 
 2677      65707469 
 2678              	.LASF14:
 2679 01d9 73747265 		.ascii	"strerror\000"
ARM GAS  /tmp/ccp6ki2O.s 			page 49


 2679      72726F72 
 2679      00
 2680              	.LASF24:
 2681 01e2 5379734C 		.ascii	"SysLock\000"
 2681      6F636B00 
 2682              	.LASF54:
 2683 01ea 5F5A4E33 		.ascii	"_ZN3r2p12StaticQueue_4postERNS0_4LinkE\000"
 2683      72327031 
 2683      32537461 
 2683      74696351 
 2683      75657565 
 2684              	.LASF17:
 2685 0211 556E636F 		.ascii	"Uncopyable\000"
 2685      70796162 
 2685      6C6500
 2686              	.LASF62:
 2687 021c 626F6F6C 		.ascii	"bool\000"
 2687      00
 2688              	.LASF65:
 2689 0221 6C696E6B 		.ascii	"linkp\000"
 2689      7000
 2690              	.LASF26:
 2691 0227 5F5A4E33 		.ascii	"_ZN3r2p7SysLock7releaseEv\000"
 2691      72327037 
 2691      5379734C 
 2691      6F636B37 
 2691      72656C65 
 2692              	.LASF28:
 2693 0241 6E657874 		.ascii	"nextp\000"
 2693      7000
 2694              	.LASF40:
 2695 0247 7065656B 		.ascii	"peek_unsafe\000"
 2695      5F756E73 
 2695      61666500 
 2696              	.LASF9:
 2697 0253 6C6F6E67 		.ascii	"long long int\000"
 2697      206C6F6E 
 2697      6720696E 
 2697      7400
 2698              	.LASF66:
 2699 0261 6973656D 		.ascii	"isempty\000"
 2699      70747900 
 2700              	.LASF56:
 2701 0269 5F5A4E4B 		.ascii	"_ZNK3r2p12StaticQueue_4peekERPKNS0_4LinkE\000"
 2701      33723270 
 2701      31325374 
 2701      61746963 
 2701      51756575 
 2702              	.LASF5:
 2703 0293 6C6F6E67 		.ascii	"long int\000"
 2703      20696E74 
 2703      00
 2704              	.LASF27:
 2705 029c 53746174 		.ascii	"StaticQueue_\000"
 2705      69635175 
 2705      6575655F 
 2705      00
ARM GAS  /tmp/ccp6ki2O.s 			page 50


 2706              	.LASF15:
 2707 02a9 73747274 		.ascii	"strtok\000"
 2707      6F6B00
 2708              	.LASF53:
 2709 02b0 5F5A4E33 		.ascii	"_ZN3r2p12StaticQueue_11post_unsafeERNS0_4LinkE\000"
 2709      72327031 
 2709      32537461 
 2709      74696351 
 2709      75657565 
 2710              	.LASF3:
 2711 02df 73686F72 		.ascii	"short int\000"
 2711      7420696E 
 2711      7400
 2712              	.LASF57:
 2713 02e9 66657463 		.ascii	"fetch\000"
 2713      6800
 2714              	.LASF71:
 2715 02ef 5F5A4E33 		.ascii	"_ZN3r2p10UncopyableC2Ev\000"
 2715      72327031 
 2715      30556E63 
 2715      6F707961 
 2715      626C6543 
 2716              	.LASF33:
 2717 0307 6765745F 		.ascii	"get_head_unsafe\000"
 2717      68656164 
 2717      5F756E73 
 2717      61666500 
 2718              	.LASF42:
 2719 0317 66657463 		.ascii	"fetch_unsafe\000"
 2719      685F756E 
 2719      73616665 
 2719      00
 2720              	.LASF35:
 2721 0324 5F5A4E4B 		.ascii	"_ZNK3r2p12StaticQueue_15get_head_unsafeEv\000"
 2721      33723270 
 2721      31325374 
 2721      61746963 
 2721      51756575 
 2722              	.LASF64:
 2723 034e 6C696E6B 		.ascii	"link\000"
 2723      00
 2724              	.LASF2:
 2725 0353 756E7369 		.ascii	"unsigned char\000"
 2725      676E6564 
 2725      20636861 
 2725      7200
 2726              	.LASF32:
 2727 0361 7461696C 		.ascii	"tailp\000"
 2727      7000
 2728              	.LASF52:
 2729 0367 706F7374 		.ascii	"post\000"
 2729      00
 2730              	.LASF1:
 2731 036c 7369676E 		.ascii	"signed char\000"
 2731      65642063 
 2731      68617200 
 2732              	.LASF10:
ARM GAS  /tmp/ccp6ki2O.s 			page 51


 2733 0378 6C6F6E67 		.ascii	"long long unsigned int\000"
 2733      206C6F6E 
 2733      6720756E 
 2733      7369676E 
 2733      65642069 
 2734              	.LASF61:
 2735 038f 75696E74 		.ascii	"uint32_t\000"
 2735      33325F74 
 2735      00
 2736              	.LASF0:
 2737 0398 756E7369 		.ascii	"unsigned int\000"
 2737      676E6564 
 2737      20696E74 
 2737      00
 2738              	.LASF25:
 2739 03a5 5F5A4E33 		.ascii	"_ZN3r2p7SysLock7acquireEv\000"
 2739      72327037 
 2739      5379734C 
 2739      6F636B37 
 2739      61637175 
 2740              	.LASF55:
 2741 03bf 7065656B 		.ascii	"peek\000"
 2741      00
 2742              	.LASF36:
 2743 03c4 5F5A4E4B 		.ascii	"_ZNK3r2p12StaticQueue_15get_tail_unsafeEv\000"
 2743      33723270 
 2743      31325374 
 2743      61746963 
 2743      51756575 
 2744              	.LASF20:
 2745 03ee 61637175 		.ascii	"acquire\000"
 2745      69726500 
 2746              	.LASF23:
 2747 03f6 5F5A4E33 		.ascii	"_ZN3r2p8SysLock_7releaseEv\000"
 2747      72327038 
 2747      5379734C 
 2747      6F636B5F 
 2747      3772656C 
 2748              	.LASF31:
 2749 0411 68656164 		.ascii	"headp\000"
 2749      7000
 2750              	.LASF4:
 2751 0417 73686F72 		.ascii	"short unsigned int\000"
 2751      7420756E 
 2751      7369676E 
 2751      65642069 
 2751      6E7400
 2752              	.LASF12:
 2753 042a 63686172 		.ascii	"char\000"
 2753      00
 2754              	.LASF50:
 2755 042f 69735F65 		.ascii	"is_empty\000"
 2755      6D707479 
 2755      00
 2756              	.LASF13:
 2757 0438 73747263 		.ascii	"strcoll\000"
 2757      6F6C6C00 
ARM GAS  /tmp/ccp6ki2O.s 			page 52


 2758              	.LASF48:
 2759 0440 6765745F 		.ascii	"get_tail\000"
 2759      7461696C 
 2759      00
 2760              	.LASF63:
 2761 0449 74686973 		.ascii	"this\000"
 2761      00
 2762              	.LASF46:
 2763 044e 6765745F 		.ascii	"get_head\000"
 2763      68656164 
 2763      00
 2764              	.LASF51:
 2765 0457 5F5A4E4B 		.ascii	"_ZNK3r2p12StaticQueue_8is_emptyEv\000"
 2765      33723270 
 2765      31325374 
 2765      61746963 
 2765      51756575 
 2766              	.LASF49:
 2767 0479 5F5A4E4B 		.ascii	"_ZNK3r2p12StaticQueue_8get_tailEv\000"
 2767      33723270 
 2767      31325374 
 2767      61746963 
 2767      51756575 
 2768              	.LASF41:
 2769 049b 5F5A4E4B 		.ascii	"_ZNK3r2p12StaticQueue_11peek_unsafeERPKNS0_4LinkE\000"
 2769      33723270 
 2769      31325374 
 2769      61746963 
 2769      51756575 
 2770              	.LASF8:
 2771 04cd 6C6F6E67 		.ascii	"long unsigned int\000"
 2771      20756E73 
 2771      69676E65 
 2771      6420696E 
 2771      7400
 2772              	.LASF16:
 2773 04df 73747278 		.ascii	"strxfrm\000"
 2773      66726D00 
 2774              	.LASF44:
 2775 04e7 736B6970 		.ascii	"skip_unsafe\000"
 2775      5F756E73 
 2775      61666500 
 2776              	.LASF58:
 2777 04f3 5F5A4E33 		.ascii	"_ZN3r2p12StaticQueue_5fetchERNS0_4LinkE\000"
 2777      72327031 
 2777      32537461 
 2777      74696351 
 2777      75657565 
 2778              	.LASF72:
 2779 051b 5F5A4E33 		.ascii	"_ZN3r2p12StaticQueue_C2Ev\000"
 2779      72327031 
 2779      32537461 
 2779      74696351 
 2779      75657565 
 2780              	.LASF37:
 2781 0535 69735F65 		.ascii	"is_empty_unsafe\000"
 2781      6D707479 
ARM GAS  /tmp/ccp6ki2O.s 			page 53


 2781      5F756E73 
 2781      61666500 
 2782              	.LASF43:
 2783 0545 5F5A4E33 		.ascii	"_ZN3r2p12StaticQueue_12fetch_unsafeERNS0_4LinkE\000"
 2783      72327031 
 2783      32537461 
 2783      74696351 
 2783      75657565 
 2784              	.LASF39:
 2785 0575 706F7374 		.ascii	"post_unsafe\000"
 2785      5F756E73 
 2785      61666500 
 2786              	.LASF22:
 2787 0581 5F5A4E33 		.ascii	"_ZN3r2p8SysLock_7acquireEv\000"
 2787      72327038 
 2787      5379734C 
 2787      6F636B5F 
 2787      37616371 
 2788              	.LASF67:
 2789 059c 73756363 		.ascii	"success\000"
 2789      65737300 
 2790              	.LASF19:
 2791 05a4 5379734C 		.ascii	"SysLock_\000"
 2791      6F636B5F 
 2791      00
 2792              	.LASF69:
 2793 05ad 2F6F7074 		.ascii	"/opt/R2P/core/Middleware/src/impl/StaticQueue_.cpp\000"
 2793      2F523250 
 2793      2F636F72 
 2793      652F4D69 
 2793      64646C65 
 2794              		.ident	"GCC: (GNU Tools for ARM Embedded Processors) 4.9.3 20141119 (release) [ARM/embedded-4_9-br
ARM GAS  /tmp/ccp6ki2O.s 			page 54


DEFINED SYMBOLS
                            *ABS*:00000000 StaticQueue_.cpp
     /tmp/ccp6ki2O.s:19     .text._ZN3r2p10UncopyableC2Ev:00000000 $t
     /tmp/ccp6ki2O.s:24     .text._ZN3r2p10UncopyableC2Ev:00000000 _ZN3r2p10UncopyableC2Ev
     /tmp/ccp6ki2O.s:24     .text._ZN3r2p10UncopyableC2Ev:00000000 _ZN3r2p10UncopyableC1Ev
     /tmp/ccp6ki2O.s:48     .text._ZN3r2p8SysLock_7acquireEv:00000000 $t
     /tmp/ccp6ki2O.s:53     .text._ZN3r2p8SysLock_7acquireEv:00000000 _ZN3r2p8SysLock_7acquireEv
     /tmp/ccp6ki2O.s:83     .text._ZN3r2p8SysLock_7releaseEv:00000000 $t
     /tmp/ccp6ki2O.s:88     .text._ZN3r2p8SysLock_7releaseEv:00000000 _ZN3r2p8SysLock_7releaseEv
     /tmp/ccp6ki2O.s:117    .text._ZN3r2p7SysLock7acquireEv:00000000 $t
     /tmp/ccp6ki2O.s:122    .text._ZN3r2p7SysLock7acquireEv:00000000 _ZN3r2p7SysLock7acquireEv
     /tmp/ccp6ki2O.s:141    .text._ZN3r2p7SysLock7releaseEv:00000000 $t
     /tmp/ccp6ki2O.s:146    .text._ZN3r2p7SysLock7releaseEv:00000000 _ZN3r2p7SysLock7releaseEv
     /tmp/ccp6ki2O.s:164    .text._ZNK3r2p12StaticQueue_15is_empty_unsafeEv:00000000 $t
     /tmp/ccp6ki2O.s:169    .text._ZNK3r2p12StaticQueue_15is_empty_unsafeEv:00000000 _ZNK3r2p12StaticQueue_15is_empty_unsafeEv
     /tmp/ccp6ki2O.s:198    .text:00000000 $t
     /tmp/ccp6ki2O.s:203    .text:00000000 _ZNK3r2p12StaticQueue_15get_head_unsafeEv
     /tmp/ccp6ki2O.s:231    .text:00000010 _ZNK3r2p12StaticQueue_15get_tail_unsafeEv
     /tmp/ccp6ki2O.s:254    .rodata:00000000 $d
     /tmp/ccp6ki2O.s:263    .text:00000020 _ZN3r2p12StaticQueue_11post_unsafeERNS0_4LinkE
     /tmp/ccp6ki2O.s:351    .text:0000009c $d
     /tmp/ccp6ki2O.s:355    .text:000000a0 $t
     /tmp/ccp6ki2O.s:360    .text:000000a0 _ZNK3r2p12StaticQueue_11peek_unsafeERPKNS0_4LinkE
     /tmp/ccp6ki2O.s:422    .text:000000f0 $d
     /tmp/ccp6ki2O.s:426    .text:000000f4 $t
     /tmp/ccp6ki2O.s:431    .text:000000f4 _ZN3r2p12StaticQueue_12fetch_unsafeERNS0_4LinkE
     /tmp/ccp6ki2O.s:523    .text:00000168 $d
     /tmp/ccp6ki2O.s:527    .text:0000016c $t
     /tmp/ccp6ki2O.s:532    .text:0000016c _ZN3r2p12StaticQueue_11skip_unsafeEv
     /tmp/ccp6ki2O.s:617    .text:000001d0 $d
     /tmp/ccp6ki2O.s:621    .text:000001d4 $t
     /tmp/ccp6ki2O.s:626    .text:000001d4 _ZNK3r2p12StaticQueue_8get_headEv
     /tmp/ccp6ki2O.s:664    .text:000001f4 _ZNK3r2p12StaticQueue_8get_tailEv
     /tmp/ccp6ki2O.s:702    .text:00000214 _ZNK3r2p12StaticQueue_8is_emptyEv
     /tmp/ccp6ki2O.s:741    .text:0000023c _ZN3r2p12StaticQueue_4postERNS0_4LinkE
     /tmp/ccp6ki2O.s:775    .text:0000025c _ZNK3r2p12StaticQueue_4peekERPKNS0_4LinkE
     /tmp/ccp6ki2O.s:816    .text:00000288 _ZN3r2p12StaticQueue_5fetchERNS0_4LinkE
     /tmp/ccp6ki2O.s:857    .text:000002b4 _ZN3r2p12StaticQueue_4skipEv
     /tmp/ccp6ki2O.s:896    .text:000002dc _ZN3r2p12StaticQueue_C2Ev
     /tmp/ccp6ki2O.s:896    .text:000002dc _ZN3r2p12StaticQueue_C1Ev
                     .debug_frame:00000010 $d
                           .group:00000000 _ZN3r2p10UncopyableC5Ev

UNDEFINED SYMBOLS
dbg_check_lock
dbg_check_unlock
chDbgPanic
