ARM GAS  /tmp/cc7gAN1M.s 			page 1


   1              		.syntax unified
   2              		.cpu cortex-m4
   3              		.fpu softvfp
   4              		.eabi_attribute 20, 1
   5              		.eabi_attribute 21, 1
   6              		.eabi_attribute 23, 3
   7              		.eabi_attribute 24, 1
   8              		.eabi_attribute 25, 1
   9              		.eabi_attribute 26, 1
  10              		.eabi_attribute 30, 6
  11              		.eabi_attribute 34, 1
  12              		.eabi_attribute 18, 4
  13              		.thumb
  14              		.file	"StaticList_.cpp"
  15              		.text
  16              	.Ltext0:
  17              		.cfi_sections	.debug_frame
  18              		.section	.text._ZN3r2p10UncopyableC2Ev,"axG",%progbits,_ZN3r2p10UncopyableC5Ev,comdat
  19              		.align	2
  20              		.weak	_ZN3r2p10UncopyableC2Ev
  21              		.thumb
  22              		.thumb_func
  23              		.type	_ZN3r2p10UncopyableC2Ev, %function
  24              	_ZN3r2p10UncopyableC2Ev:
  25              	.LFB6:
  26              		.file 1 "/opt/R2P/core/Middleware/include/r2p/Uncopyable.hpp"
  27              		.loc 1 20 0
  28              		.cfi_startproc
  29              		@ args = 0, pretend = 0, frame = 8
  30              		@ frame_needed = 0, uses_anonymous_args = 0
  31              		@ link register save eliminated.
  32 0000 82B0     		sub	sp, sp, #8
  33              		.cfi_def_cfa_offset 8
  34 0002 0190     		str	r0, [sp, #4]
  35              		.loc 1 20 0
  36 0004 019B     		ldr	r3, [sp, #4]
  37 0006 1846     		mov	r0, r3
  38 0008 02B0     		add	sp, sp, #8
  39              		.cfi_def_cfa_offset 0
  40              		@ sp needed
  41 000a 7047     		bx	lr
  42              		.cfi_endproc
  43              	.LFE6:
  44              		.size	_ZN3r2p10UncopyableC2Ev, .-_ZN3r2p10UncopyableC2Ev
  45              		.weak	_ZN3r2p10UncopyableC1Ev
  46              		.thumb_set _ZN3r2p10UncopyableC1Ev,_ZN3r2p10UncopyableC2Ev
  47              		.section	.text._ZN3r2p8SysLock_7acquireEv,"axG",%progbits,_ZN3r2p8SysLock_7acquireEv,comdat
  48              		.align	2
  49              		.weak	_ZN3r2p8SysLock_7acquireEv
  50              		.thumb
  51              		.thumb_func
  52              		.type	_ZN3r2p8SysLock_7acquireEv, %function
  53              	_ZN3r2p8SysLock_7acquireEv:
  54              	.LFB18:
  55              		.file 2 "/opt/R2P/core/Middleware/port/chibios/include/r2p/impl/SysLock_.hpp"
  56              		.loc 2 20 0
  57              		.cfi_startproc
ARM GAS  /tmp/cc7gAN1M.s 			page 2


  58              		@ args = 0, pretend = 0, frame = 0
  59              		@ frame_needed = 0, uses_anonymous_args = 0
  60 0000 08B5     		push	{r3, lr}
  61              		.cfi_def_cfa_offset 8
  62              		.cfi_offset 3, -8
  63              		.cfi_offset 14, -4
  64              	.LBB2:
  65              	.LBB3:
  66              	.LBB4:
  67              		.loc 2 22 0
  68 0002 2023     		movs	r3, #32
  69              	@ 22 "/opt/R2P/core/Middleware/port/chibios/include/r2p/impl/SysLock_.hpp" 1
  70 0004 83F31188 		msr     BASEPRI, r3
  71              	@ 0 "" 2
  72              		.thumb
  73              	.LBE4:
  74 0008 FFF7FEFF 		bl	dbg_check_lock
  75              	.LBE3:
  76              	.LBE2:
  77              		.loc 2 23 0
  78 000c 08BD     		pop	{r3, pc}
  79              		.cfi_endproc
  80              	.LFE18:
  81              		.size	_ZN3r2p8SysLock_7acquireEv, .-_ZN3r2p8SysLock_7acquireEv
  82 000e 00BF     		.section	.text._ZN3r2p8SysLock_7releaseEv,"axG",%progbits,_ZN3r2p8SysLock_7releaseEv,comdat
  83              		.align	2
  84              		.weak	_ZN3r2p8SysLock_7releaseEv
  85              		.thumb
  86              		.thumb_func
  87              		.type	_ZN3r2p8SysLock_7releaseEv, %function
  88              	_ZN3r2p8SysLock_7releaseEv:
  89              	.LFB19:
  90              		.loc 2 27 0
  91              		.cfi_startproc
  92              		@ args = 0, pretend = 0, frame = 0
  93              		@ frame_needed = 0, uses_anonymous_args = 0
  94 0000 08B5     		push	{r3, lr}
  95              		.cfi_def_cfa_offset 8
  96              		.cfi_offset 3, -8
  97              		.cfi_offset 14, -4
  98              	.LBB5:
  99              	.LBB6:
 100              		.loc 2 29 0
 101 0002 FFF7FEFF 		bl	dbg_check_unlock
 102              	.LBB7:
 103 0006 0023     		movs	r3, #0
 104              	@ 29 "/opt/R2P/core/Middleware/port/chibios/include/r2p/impl/SysLock_.hpp" 1
 105 0008 83F31188 		msr     BASEPRI, r3
 106              	@ 0 "" 2
 107              		.thumb
 108              	.LBE7:
 109              	.LBE6:
 110              	.LBE5:
 111              		.loc 2 30 0
 112 000c 08BD     		pop	{r3, pc}
 113              		.cfi_endproc
 114              	.LFE19:
ARM GAS  /tmp/cc7gAN1M.s 			page 3


 115              		.size	_ZN3r2p8SysLock_7releaseEv, .-_ZN3r2p8SysLock_7releaseEv
 116 000e 00BF     		.section	.text._ZN3r2p7SysLock7acquireEv,"axG",%progbits,_ZN3r2p7SysLock7acquireEv,comdat
 117              		.align	2
 118              		.weak	_ZN3r2p7SysLock7acquireEv
 119              		.thumb
 120              		.thumb_func
 121              		.type	_ZN3r2p7SysLock7acquireEv, %function
 122              	_ZN3r2p7SysLock7acquireEv:
 123              	.LFB26:
 124              		.file 3 "/opt/R2P/core/Middleware/include/r2p/SysLock.hpp"
 125              		.loc 3 27 0
 126              		.cfi_startproc
 127              		@ args = 0, pretend = 0, frame = 0
 128              		@ frame_needed = 0, uses_anonymous_args = 0
 129 0000 08B5     		push	{r3, lr}
 130              		.cfi_def_cfa_offset 8
 131              		.cfi_offset 3, -8
 132              		.cfi_offset 14, -4
 133              		.loc 3 29 0
 134 0002 FFF7FEFF 		bl	_ZN3r2p8SysLock_7acquireEv
 135              		.loc 3 30 0
 136 0006 08BD     		pop	{r3, pc}
 137              		.cfi_endproc
 138              	.LFE26:
 139              		.size	_ZN3r2p7SysLock7acquireEv, .-_ZN3r2p7SysLock7acquireEv
 140              		.section	.text._ZN3r2p7SysLock7releaseEv,"axG",%progbits,_ZN3r2p7SysLock7releaseEv,comdat
 141              		.align	2
 142              		.weak	_ZN3r2p7SysLock7releaseEv
 143              		.thumb
 144              		.thumb_func
 145              		.type	_ZN3r2p7SysLock7releaseEv, %function
 146              	_ZN3r2p7SysLock7releaseEv:
 147              	.LFB27:
 148              		.loc 3 34 0
 149              		.cfi_startproc
 150              		@ args = 0, pretend = 0, frame = 0
 151              		@ frame_needed = 0, uses_anonymous_args = 0
 152 0000 08B5     		push	{r3, lr}
 153              		.cfi_def_cfa_offset 8
 154              		.cfi_offset 3, -8
 155              		.cfi_offset 14, -4
 156              		.loc 3 36 0
 157 0002 FFF7FEFF 		bl	_ZN3r2p8SysLock_7releaseEv
 158              		.loc 3 37 0
 159 0006 08BD     		pop	{r3, pc}
 160              		.cfi_endproc
 161              	.LFE27:
 162              		.size	_ZN3r2p7SysLock7releaseEv, .-_ZN3r2p7SysLock7releaseEv
 163              		.section	.text._ZNK3r2p11StaticList_15get_head_unsafeEv,"axG",%progbits,_ZNK3r2p11StaticList_15get
 164              		.align	2
 165              		.weak	_ZNK3r2p11StaticList_15get_head_unsafeEv
 166              		.thumb
 167              		.thumb_func
 168              		.type	_ZNK3r2p11StaticList_15get_head_unsafeEv, %function
 169              	_ZNK3r2p11StaticList_15get_head_unsafeEv:
 170              	.LFB39:
 171              		.file 4 "/opt/R2P/core/Middleware/include/r2p/impl/StaticList_.hpp"
ARM GAS  /tmp/cc7gAN1M.s 			page 4


 172              		.loc 4 53 0
 173              		.cfi_startproc
 174              		@ args = 0, pretend = 0, frame = 8
 175              		@ frame_needed = 0, uses_anonymous_args = 0
 176              		@ link register save eliminated.
 177 0000 82B0     		sub	sp, sp, #8
 178              		.cfi_def_cfa_offset 8
 179 0002 0190     		str	r0, [sp, #4]
 180              		.loc 4 55 0
 181 0004 019B     		ldr	r3, [sp, #4]
 182 0006 1B68     		ldr	r3, [r3]
 183              		.loc 4 56 0
 184 0008 1846     		mov	r0, r3
 185 000a 02B0     		add	sp, sp, #8
 186              		.cfi_def_cfa_offset 0
 187              		@ sp needed
 188 000c 7047     		bx	lr
 189              		.cfi_endproc
 190              	.LFE39:
 191              		.size	_ZNK3r2p11StaticList_15get_head_unsafeEv, .-_ZNK3r2p11StaticList_15get_head_unsafeEv
 192 000e 00BF     		.section	.text._ZNK3r2p11StaticList_15is_empty_unsafeEv,"axG",%progbits,_ZNK3r2p11StaticList_15is_
 193              		.align	2
 194              		.weak	_ZNK3r2p11StaticList_15is_empty_unsafeEv
 195              		.thumb
 196              		.thumb_func
 197              		.type	_ZNK3r2p11StaticList_15is_empty_unsafeEv, %function
 198              	_ZNK3r2p11StaticList_15is_empty_unsafeEv:
 199              	.LFB40:
 200              		.loc 4 60 0
 201              		.cfi_startproc
 202              		@ args = 0, pretend = 0, frame = 8
 203              		@ frame_needed = 0, uses_anonymous_args = 0
 204              		@ link register save eliminated.
 205 0000 82B0     		sub	sp, sp, #8
 206              		.cfi_def_cfa_offset 8
 207 0002 0190     		str	r0, [sp, #4]
 208              		.loc 4 62 0
 209 0004 019B     		ldr	r3, [sp, #4]
 210 0006 1B68     		ldr	r3, [r3]
 211 0008 002B     		cmp	r3, #0
 212 000a 0CBF     		ite	eq
 213 000c 0123     		moveq	r3, #1
 214 000e 0023     		movne	r3, #0
 215 0010 DBB2     		uxtb	r3, r3
 216              		.loc 4 63 0
 217 0012 1846     		mov	r0, r3
 218 0014 02B0     		add	sp, sp, #8
 219              		.cfi_def_cfa_offset 0
 220              		@ sp needed
 221 0016 7047     		bx	lr
 222              		.cfi_endproc
 223              	.LFE40:
 224              		.size	_ZNK3r2p11StaticList_15is_empty_unsafeEv, .-_ZNK3r2p11StaticList_15is_empty_unsafeEv
 225              		.section	.rodata
 226              		.align	2
 227              	.LC0:
 228 0000 5232505F 		.ascii	"R2P_ASSERT()\000"
ARM GAS  /tmp/cc7gAN1M.s 			page 5


 228      41535345 
 228      52542829 
 228      00
 229 000d 000000   		.section	.text._ZN3r2p11StaticList_11link_unsafeERNS0_4LinkE,"axG",%progbits,_ZN3r2p11StaticList_1
 230              		.align	2
 231              		.weak	_ZN3r2p11StaticList_11link_unsafeERNS0_4LinkE
 232              		.thumb
 233              		.thumb_func
 234              		.type	_ZN3r2p11StaticList_11link_unsafeERNS0_4LinkE, %function
 235              	_ZN3r2p11StaticList_11link_unsafeERNS0_4LinkE:
 236              	.LFB41:
 237              		.loc 4 67 0
 238              		.cfi_startproc
 239              		@ args = 0, pretend = 0, frame = 8
 240              		@ frame_needed = 0, uses_anonymous_args = 0
 241 0000 00B5     		push	{lr}
 242              		.cfi_def_cfa_offset 4
 243              		.cfi_offset 14, -4
 244 0002 83B0     		sub	sp, sp, #12
 245              		.cfi_def_cfa_offset 16
 246 0004 0190     		str	r0, [sp, #4]
 247 0006 0091     		str	r1, [sp]
 248              		.loc 4 69 0
 249 0008 009B     		ldr	r3, [sp]
 250 000a 1B68     		ldr	r3, [r3]
 251 000c 002B     		cmp	r3, #0
 252 000e 02D0     		beq	.L13
 253              		.loc 4 69 0 is_stmt 0 discriminator 1
 254 0010 0C48     		ldr	r0, .L15
 255 0012 FFF7FEFF 		bl	chDbgPanic
 256              	.L13:
 257              		.loc 4 70 0 is_stmt 1
 258 0016 009B     		ldr	r3, [sp]
 259 0018 5B68     		ldr	r3, [r3, #4]
 260 001a 0198     		ldr	r0, [sp, #4]
 261 001c 1946     		mov	r1, r3
 262 001e FFF7FEFF 		bl	_ZNK3r2p11StaticList_15contains_unsafeEPKv
 263 0022 0346     		mov	r3, r0
 264 0024 002B     		cmp	r3, #0
 265 0026 02D0     		beq	.L14
 266              		.loc 4 70 0 is_stmt 0 discriminator 1
 267 0028 0648     		ldr	r0, .L15
 268 002a FFF7FEFF 		bl	chDbgPanic
 269              	.L14:
 270              		.loc 4 72 0 is_stmt 1
 271 002e 019B     		ldr	r3, [sp, #4]
 272 0030 1A68     		ldr	r2, [r3]
 273 0032 009B     		ldr	r3, [sp]
 274 0034 1A60     		str	r2, [r3]
 275              		.loc 4 73 0
 276 0036 019B     		ldr	r3, [sp, #4]
 277 0038 009A     		ldr	r2, [sp]
 278 003a 1A60     		str	r2, [r3]
 279              		.loc 4 74 0
 280 003c 03B0     		add	sp, sp, #12
 281              		.cfi_def_cfa_offset 4
 282              		@ sp needed
ARM GAS  /tmp/cc7gAN1M.s 			page 6


 283 003e 5DF804FB 		ldr	pc, [sp], #4
 284              	.L16:
 285 0042 00BF     		.align	2
 286              	.L15:
 287 0044 00000000 		.word	.LC0
 288              		.cfi_endproc
 289              	.LFE41:
 290              		.size	_ZN3r2p11StaticList_11link_unsafeERNS0_4LinkE, .-_ZN3r2p11StaticList_11link_unsafeERNS0_4Lin
 291              		.text
 292              		.align	2
 293              		.global	_ZNK3r2p11StaticList_12count_unsafeEv
 294              		.thumb
 295              		.thumb_func
 296              		.type	_ZNK3r2p11StaticList_12count_unsafeEv, %function
 297              	_ZNK3r2p11StaticList_12count_unsafeEv:
 298              	.LFB42:
 299              		.file 5 "/opt/R2P/core/Middleware/src/impl/StaticList_.cpp"
 300              		.loc 5 7 0
 301              		.cfi_startproc
 302              		@ args = 0, pretend = 0, frame = 16
 303              		@ frame_needed = 0, uses_anonymous_args = 0
 304              		@ link register save eliminated.
 305 0000 84B0     		sub	sp, sp, #16
 306              		.cfi_def_cfa_offset 16
 307 0002 0190     		str	r0, [sp, #4]
 308              	.LBB8:
 309              		.loc 5 9 0
 310 0004 0023     		movs	r3, #0
 311 0006 0393     		str	r3, [sp, #12]
 312              	.LBB9:
 313              		.loc 5 10 0
 314 0008 019B     		ldr	r3, [sp, #4]
 315 000a 1B68     		ldr	r3, [r3]
 316 000c 0293     		str	r3, [sp, #8]
 317 000e 05E0     		b	.L18
 318              	.L19:
 319              		.loc 5 11 0 discriminator 3
 320 0010 039B     		ldr	r3, [sp, #12]
 321 0012 0133     		adds	r3, r3, #1
 322 0014 0393     		str	r3, [sp, #12]
 323              		.loc 5 10 0 discriminator 3
 324 0016 029B     		ldr	r3, [sp, #8]
 325 0018 1B68     		ldr	r3, [r3]
 326 001a 0293     		str	r3, [sp, #8]
 327              	.L18:
 328              		.loc 5 10 0 is_stmt 0 discriminator 1
 329 001c 029B     		ldr	r3, [sp, #8]
 330 001e 002B     		cmp	r3, #0
 331 0020 F6D1     		bne	.L19
 332              	.LBE9:
 333              		.loc 5 13 0 is_stmt 1
 334 0022 039B     		ldr	r3, [sp, #12]
 335              	.LBE8:
 336              		.loc 5 14 0
 337 0024 1846     		mov	r0, r3
 338 0026 04B0     		add	sp, sp, #16
 339              		.cfi_def_cfa_offset 0
ARM GAS  /tmp/cc7gAN1M.s 			page 7


 340              		@ sp needed
 341 0028 7047     		bx	lr
 342              		.cfi_endproc
 343              	.LFE42:
 344              		.size	_ZNK3r2p11StaticList_12count_unsafeEv, .-_ZNK3r2p11StaticList_12count_unsafeEv
 345 002a 00BF     		.align	2
 346              		.global	_ZN3r2p11StaticList_13unlink_unsafeERNS0_4LinkE
 347              		.thumb
 348              		.thumb_func
 349              		.type	_ZN3r2p11StaticList_13unlink_unsafeERNS0_4LinkE, %function
 350              	_ZN3r2p11StaticList_13unlink_unsafeERNS0_4LinkE:
 351              	.LFB43:
 352              		.loc 5 17 0
 353              		.cfi_startproc
 354              		@ args = 0, pretend = 0, frame = 16
 355              		@ frame_needed = 0, uses_anonymous_args = 0
 356              		@ link register save eliminated.
 357 002c 84B0     		sub	sp, sp, #16
 358              		.cfi_def_cfa_offset 16
 359 002e 0190     		str	r0, [sp, #4]
 360 0030 0091     		str	r1, [sp]
 361              	.LBB10:
 362              	.LBB11:
 363              		.loc 5 19 0
 364 0032 019B     		ldr	r3, [sp, #4]
 365 0034 1B68     		ldr	r3, [r3]
 366 0036 0393     		str	r3, [sp, #12]
 367 0038 0023     		movs	r3, #0
 368 003a 0293     		str	r3, [sp, #8]
 369 003c 19E0     		b	.L22
 370              	.L27:
 371              		.loc 5 22 0
 372 003e 039A     		ldr	r2, [sp, #12]
 373 0040 009B     		ldr	r3, [sp]
 374 0042 9A42     		cmp	r2, r3
 375 0044 10D1     		bne	.L23
 376              		.loc 5 23 0
 377 0046 029B     		ldr	r3, [sp, #8]
 378 0048 002B     		cmp	r3, #0
 379 004a 04D0     		beq	.L24
 380              		.loc 5 23 0 is_stmt 0 discriminator 1
 381 004c 039B     		ldr	r3, [sp, #12]
 382 004e 1A68     		ldr	r2, [r3]
 383 0050 029B     		ldr	r3, [sp, #8]
 384 0052 1A60     		str	r2, [r3]
 385 0054 03E0     		b	.L25
 386              	.L24:
 387              		.loc 5 24 0 is_stmt 1
 388 0056 039B     		ldr	r3, [sp, #12]
 389 0058 1A68     		ldr	r2, [r3]
 390 005a 019B     		ldr	r3, [sp, #4]
 391 005c 1A60     		str	r2, [r3]
 392              	.L25:
 393              		.loc 5 25 0
 394 005e 039B     		ldr	r3, [sp, #12]
 395 0060 0022     		movs	r2, #0
 396 0062 1A60     		str	r2, [r3]
ARM GAS  /tmp/cc7gAN1M.s 			page 8


 397              		.loc 5 26 0
 398 0064 0123     		movs	r3, #1
 399 0066 08E0     		b	.L26
 400              	.L23:
 401              		.loc 5 19 0 discriminator 2
 402 0068 039B     		ldr	r3, [sp, #12]
 403 006a 0293     		str	r3, [sp, #8]
 404 006c 039B     		ldr	r3, [sp, #12]
 405 006e 1B68     		ldr	r3, [r3]
 406 0070 0393     		str	r3, [sp, #12]
 407              	.L22:
 408              		.loc 5 19 0 is_stmt 0 discriminator 1
 409 0072 039B     		ldr	r3, [sp, #12]
 410 0074 002B     		cmp	r3, #0
 411 0076 E2D1     		bne	.L27
 412              	.LBE11:
 413              		.loc 5 29 0 is_stmt 1
 414 0078 0023     		movs	r3, #0
 415              	.L26:
 416              	.LBE10:
 417              		.loc 5 30 0
 418 007a 1846     		mov	r0, r3
 419 007c 04B0     		add	sp, sp, #16
 420              		.cfi_def_cfa_offset 0
 421              		@ sp needed
 422 007e 7047     		bx	lr
 423              		.cfi_endproc
 424              	.LFE43:
 425              		.size	_ZN3r2p11StaticList_13unlink_unsafeERNS0_4LinkE, .-_ZN3r2p11StaticList_13unlink_unsafeERNS0_
 426              		.align	2
 427              		.global	_ZNK3r2p11StaticList_15index_of_unsafeEPKv
 428              		.thumb
 429              		.thumb_func
 430              		.type	_ZNK3r2p11StaticList_15index_of_unsafeEPKv, %function
 431              	_ZNK3r2p11StaticList_15index_of_unsafeEPKv:
 432              	.LFB44:
 433              		.loc 5 33 0
 434              		.cfi_startproc
 435              		@ args = 0, pretend = 0, frame = 16
 436              		@ frame_needed = 0, uses_anonymous_args = 0
 437              		@ link register save eliminated.
 438 0080 84B0     		sub	sp, sp, #16
 439              		.cfi_def_cfa_offset 16
 440 0082 0190     		str	r0, [sp, #4]
 441 0084 0091     		str	r1, [sp]
 442              	.LBB12:
 443              		.loc 5 35 0
 444 0086 009B     		ldr	r3, [sp]
 445 0088 002B     		cmp	r3, #0
 446 008a 02D1     		bne	.L29
 447              		.loc 5 35 0 is_stmt 0 discriminator 1
 448 008c 4FF0FF33 		mov	r3, #-1
 449 0090 17E0     		b	.L30
 450              	.L29:
 451              		.loc 5 37 0 is_stmt 1
 452 0092 0023     		movs	r3, #0
 453 0094 0393     		str	r3, [sp, #12]
ARM GAS  /tmp/cc7gAN1M.s 			page 9


 454              	.LBB13:
 455              		.loc 5 38 0
 456 0096 019B     		ldr	r3, [sp, #4]
 457 0098 1B68     		ldr	r3, [r3]
 458 009a 0293     		str	r3, [sp, #8]
 459 009c 0CE0     		b	.L31
 460              	.L33:
 461              		.loc 5 39 0
 462 009e 029B     		ldr	r3, [sp, #8]
 463 00a0 5A68     		ldr	r2, [r3, #4]
 464 00a2 009B     		ldr	r3, [sp]
 465 00a4 9A42     		cmp	r2, r3
 466 00a6 01D1     		bne	.L32
 467              		.loc 5 40 0
 468 00a8 039B     		ldr	r3, [sp, #12]
 469 00aa 0AE0     		b	.L30
 470              	.L32:
 471              		.loc 5 38 0 discriminator 2
 472 00ac 039B     		ldr	r3, [sp, #12]
 473 00ae 0133     		adds	r3, r3, #1
 474 00b0 0393     		str	r3, [sp, #12]
 475 00b2 029B     		ldr	r3, [sp, #8]
 476 00b4 1B68     		ldr	r3, [r3]
 477 00b6 0293     		str	r3, [sp, #8]
 478              	.L31:
 479              		.loc 5 38 0 is_stmt 0 discriminator 1
 480 00b8 029B     		ldr	r3, [sp, #8]
 481 00ba 002B     		cmp	r3, #0
 482 00bc EFD1     		bne	.L33
 483              	.LBE13:
 484              		.loc 5 43 0 is_stmt 1
 485 00be 4FF0FF33 		mov	r3, #-1
 486              	.L30:
 487              	.LBE12:
 488              		.loc 5 44 0
 489 00c2 1846     		mov	r0, r3
 490 00c4 04B0     		add	sp, sp, #16
 491              		.cfi_def_cfa_offset 0
 492              		@ sp needed
 493 00c6 7047     		bx	lr
 494              		.cfi_endproc
 495              	.LFE44:
 496              		.size	_ZNK3r2p11StaticList_15index_of_unsafeEPKv, .-_ZNK3r2p11StaticList_15index_of_unsafeEPKv
 497              		.align	2
 498              		.global	_ZNK3r2p11StaticList_15contains_unsafeEPKv
 499              		.thumb
 500              		.thumb_func
 501              		.type	_ZNK3r2p11StaticList_15contains_unsafeEPKv, %function
 502              	_ZNK3r2p11StaticList_15contains_unsafeEPKv:
 503              	.LFB45:
 504              		.loc 5 47 0
 505              		.cfi_startproc
 506              		@ args = 0, pretend = 0, frame = 16
 507              		@ frame_needed = 0, uses_anonymous_args = 0
 508              		@ link register save eliminated.
 509 00c8 84B0     		sub	sp, sp, #16
 510              		.cfi_def_cfa_offset 16
ARM GAS  /tmp/cc7gAN1M.s 			page 10


 511 00ca 0190     		str	r0, [sp, #4]
 512 00cc 0091     		str	r1, [sp]
 513              	.LBB14:
 514              	.LBB15:
 515              		.loc 5 49 0
 516 00ce 019B     		ldr	r3, [sp, #4]
 517 00d0 1B68     		ldr	r3, [r3]
 518 00d2 0393     		str	r3, [sp, #12]
 519 00d4 09E0     		b	.L35
 520              	.L38:
 521              		.loc 5 50 0
 522 00d6 039B     		ldr	r3, [sp, #12]
 523 00d8 5A68     		ldr	r2, [r3, #4]
 524 00da 009B     		ldr	r3, [sp]
 525 00dc 9A42     		cmp	r2, r3
 526 00de 01D1     		bne	.L36
 527              		.loc 5 51 0
 528 00e0 0123     		movs	r3, #1
 529 00e2 06E0     		b	.L37
 530              	.L36:
 531              		.loc 5 49 0 discriminator 2
 532 00e4 039B     		ldr	r3, [sp, #12]
 533 00e6 1B68     		ldr	r3, [r3]
 534 00e8 0393     		str	r3, [sp, #12]
 535              	.L35:
 536              		.loc 5 49 0 is_stmt 0 discriminator 1
 537 00ea 039B     		ldr	r3, [sp, #12]
 538 00ec 002B     		cmp	r3, #0
 539 00ee F2D1     		bne	.L38
 540              	.LBE15:
 541              		.loc 5 54 0 is_stmt 1
 542 00f0 0023     		movs	r3, #0
 543              	.L37:
 544              	.LBE14:
 545              		.loc 5 55 0
 546 00f2 1846     		mov	r0, r3
 547 00f4 04B0     		add	sp, sp, #16
 548              		.cfi_def_cfa_offset 0
 549              		@ sp needed
 550 00f6 7047     		bx	lr
 551              		.cfi_endproc
 552              	.LFE45:
 553              		.size	_ZNK3r2p11StaticList_15contains_unsafeEPKv, .-_ZNK3r2p11StaticList_15contains_unsafeEPKv
 554              		.align	2
 555              		.global	_ZNK3r2p11StaticList_17find_first_unsafeEPFbPKvE
 556              		.thumb
 557              		.thumb_func
 558              		.type	_ZNK3r2p11StaticList_17find_first_unsafeEPFbPKvE, %function
 559              	_ZNK3r2p11StaticList_17find_first_unsafeEPFbPKvE:
 560              	.LFB46:
 561              		.loc 5 58 0
 562              		.cfi_startproc
 563              		@ args = 0, pretend = 0, frame = 16
 564              		@ frame_needed = 0, uses_anonymous_args = 0
 565 00f8 00B5     		push	{lr}
 566              		.cfi_def_cfa_offset 4
 567              		.cfi_offset 14, -4
ARM GAS  /tmp/cc7gAN1M.s 			page 11


 568 00fa 85B0     		sub	sp, sp, #20
 569              		.cfi_def_cfa_offset 24
 570 00fc 0190     		str	r0, [sp, #4]
 571 00fe 0091     		str	r1, [sp]
 572              	.LBB16:
 573              	.LBB17:
 574              		.loc 5 60 0
 575 0100 019B     		ldr	r3, [sp, #4]
 576 0102 1B68     		ldr	r3, [r3]
 577 0104 0393     		str	r3, [sp, #12]
 578 0106 0DE0     		b	.L40
 579              	.L43:
 580              		.loc 5 61 0
 581 0108 039B     		ldr	r3, [sp, #12]
 582 010a 5A68     		ldr	r2, [r3, #4]
 583 010c 009B     		ldr	r3, [sp]
 584 010e 1046     		mov	r0, r2
 585 0110 9847     		blx	r3
 586 0112 0346     		mov	r3, r0
 587 0114 002B     		cmp	r3, #0
 588 0116 02D0     		beq	.L41
 589              		.loc 5 62 0
 590 0118 039B     		ldr	r3, [sp, #12]
 591 011a 5B68     		ldr	r3, [r3, #4]
 592 011c 06E0     		b	.L42
 593              	.L41:
 594              		.loc 5 60 0 discriminator 2
 595 011e 039B     		ldr	r3, [sp, #12]
 596 0120 1B68     		ldr	r3, [r3]
 597 0122 0393     		str	r3, [sp, #12]
 598              	.L40:
 599              		.loc 5 60 0 is_stmt 0 discriminator 1
 600 0124 039B     		ldr	r3, [sp, #12]
 601 0126 002B     		cmp	r3, #0
 602 0128 EED1     		bne	.L43
 603              	.LBE17:
 604              		.loc 5 65 0 is_stmt 1
 605 012a 0023     		movs	r3, #0
 606              	.L42:
 607              	.LBE16:
 608              		.loc 5 66 0
 609 012c 1846     		mov	r0, r3
 610 012e 05B0     		add	sp, sp, #20
 611              		.cfi_def_cfa_offset 4
 612              		@ sp needed
 613 0130 5DF804FB 		ldr	pc, [sp], #4
 614              		.cfi_endproc
 615              	.LFE46:
 616              		.size	_ZNK3r2p11StaticList_17find_first_unsafeEPFbPKvE, .-_ZNK3r2p11StaticList_17find_first_unsafe
 617              		.align	2
 618              		.global	_ZNK3r2p11StaticList_17find_first_unsafeEPFbPKvS2_ES2_
 619              		.thumb
 620              		.thumb_func
 621              		.type	_ZNK3r2p11StaticList_17find_first_unsafeEPFbPKvS2_ES2_, %function
 622              	_ZNK3r2p11StaticList_17find_first_unsafeEPFbPKvS2_ES2_:
 623              	.LFB47:
 624              		.loc 5 70 0
ARM GAS  /tmp/cc7gAN1M.s 			page 12


 625              		.cfi_startproc
 626              		@ args = 0, pretend = 0, frame = 24
 627              		@ frame_needed = 0, uses_anonymous_args = 0
 628 0134 00B5     		push	{lr}
 629              		.cfi_def_cfa_offset 4
 630              		.cfi_offset 14, -4
 631 0136 87B0     		sub	sp, sp, #28
 632              		.cfi_def_cfa_offset 32
 633 0138 0390     		str	r0, [sp, #12]
 634 013a 0291     		str	r1, [sp, #8]
 635 013c 0192     		str	r2, [sp, #4]
 636              	.LBB18:
 637              		.loc 5 72 0
 638 013e 019B     		ldr	r3, [sp, #4]
 639 0140 002B     		cmp	r3, #0
 640 0142 02D1     		bne	.L45
 641              		.loc 5 72 0 is_stmt 0 discriminator 1
 642 0144 0E48     		ldr	r0, .L50
 643 0146 FFF7FEFF 		bl	chDbgPanic
 644              	.L45:
 645              	.LBB19:
 646              		.loc 5 74 0 is_stmt 1
 647 014a 039B     		ldr	r3, [sp, #12]
 648 014c 1B68     		ldr	r3, [r3]
 649 014e 0593     		str	r3, [sp, #20]
 650 0150 0EE0     		b	.L46
 651              	.L49:
 652              		.loc 5 75 0
 653 0152 059B     		ldr	r3, [sp, #20]
 654 0154 5A68     		ldr	r2, [r3, #4]
 655 0156 029B     		ldr	r3, [sp, #8]
 656 0158 1046     		mov	r0, r2
 657 015a 0199     		ldr	r1, [sp, #4]
 658 015c 9847     		blx	r3
 659 015e 0346     		mov	r3, r0
 660 0160 002B     		cmp	r3, #0
 661 0162 02D0     		beq	.L47
 662              		.loc 5 76 0
 663 0164 059B     		ldr	r3, [sp, #20]
 664 0166 5B68     		ldr	r3, [r3, #4]
 665 0168 06E0     		b	.L48
 666              	.L47:
 667              		.loc 5 74 0 discriminator 2
 668 016a 059B     		ldr	r3, [sp, #20]
 669 016c 1B68     		ldr	r3, [r3]
 670 016e 0593     		str	r3, [sp, #20]
 671              	.L46:
 672              		.loc 5 74 0 is_stmt 0 discriminator 1
 673 0170 059B     		ldr	r3, [sp, #20]
 674 0172 002B     		cmp	r3, #0
 675 0174 EDD1     		bne	.L49
 676              	.LBE19:
 677              		.loc 5 79 0 is_stmt 1
 678 0176 0023     		movs	r3, #0
 679              	.L48:
 680              	.LBE18:
 681              		.loc 5 80 0
ARM GAS  /tmp/cc7gAN1M.s 			page 13


 682 0178 1846     		mov	r0, r3
 683 017a 07B0     		add	sp, sp, #28
 684              		.cfi_def_cfa_offset 4
 685              		@ sp needed
 686 017c 5DF804FB 		ldr	pc, [sp], #4
 687              	.L51:
 688              		.align	2
 689              	.L50:
 690 0180 00000000 		.word	.LC0
 691              		.cfi_endproc
 692              	.LFE47:
 693              		.size	_ZNK3r2p11StaticList_17find_first_unsafeEPFbPKvS2_ES2_, .-_ZNK3r2p11StaticList_17find_first_
 694              		.align	2
 695              		.global	_ZNK3r2p11StaticList_8get_headEv
 696              		.thumb
 697              		.thumb_func
 698              		.type	_ZNK3r2p11StaticList_8get_headEv, %function
 699              	_ZNK3r2p11StaticList_8get_headEv:
 700              	.LFB48:
 701              		.loc 5 83 0
 702              		.cfi_startproc
 703              		@ args = 0, pretend = 0, frame = 16
 704              		@ frame_needed = 0, uses_anonymous_args = 0
 705 0184 00B5     		push	{lr}
 706              		.cfi_def_cfa_offset 4
 707              		.cfi_offset 14, -4
 708 0186 85B0     		sub	sp, sp, #20
 709              		.cfi_def_cfa_offset 24
 710 0188 0190     		str	r0, [sp, #4]
 711              	.LBB20:
 712              		.loc 5 85 0
 713 018a FFF7FEFF 		bl	_ZN3r2p7SysLock7acquireEv
 714              		.loc 5 86 0
 715 018e 0198     		ldr	r0, [sp, #4]
 716 0190 FFF7FEFF 		bl	_ZNK3r2p11StaticList_15get_head_unsafeEv
 717 0194 0390     		str	r0, [sp, #12]
 718              		.loc 5 87 0
 719 0196 FFF7FEFF 		bl	_ZN3r2p7SysLock7releaseEv
 720              		.loc 5 88 0
 721 019a 039B     		ldr	r3, [sp, #12]
 722              	.LBE20:
 723              		.loc 5 89 0
 724 019c 1846     		mov	r0, r3
 725 019e 05B0     		add	sp, sp, #20
 726              		.cfi_def_cfa_offset 4
 727              		@ sp needed
 728 01a0 5DF804FB 		ldr	pc, [sp], #4
 729              		.cfi_endproc
 730              	.LFE48:
 731              		.size	_ZNK3r2p11StaticList_8get_headEv, .-_ZNK3r2p11StaticList_8get_headEv
 732              		.align	2
 733              		.global	_ZNK3r2p11StaticList_8is_emptyEv
 734              		.thumb
 735              		.thumb_func
 736              		.type	_ZNK3r2p11StaticList_8is_emptyEv, %function
 737              	_ZNK3r2p11StaticList_8is_emptyEv:
 738              	.LFB49:
ARM GAS  /tmp/cc7gAN1M.s 			page 14


 739              		.loc 5 92 0
 740              		.cfi_startproc
 741              		@ args = 0, pretend = 0, frame = 16
 742              		@ frame_needed = 0, uses_anonymous_args = 0
 743 01a4 00B5     		push	{lr}
 744              		.cfi_def_cfa_offset 4
 745              		.cfi_offset 14, -4
 746 01a6 85B0     		sub	sp, sp, #20
 747              		.cfi_def_cfa_offset 24
 748 01a8 0190     		str	r0, [sp, #4]
 749              	.LBB21:
 750              		.loc 5 94 0
 751 01aa FFF7FEFF 		bl	_ZN3r2p7SysLock7acquireEv
 752              		.loc 5 95 0
 753 01ae 0198     		ldr	r0, [sp, #4]
 754 01b0 FFF7FEFF 		bl	_ZNK3r2p11StaticList_15is_empty_unsafeEv
 755 01b4 0346     		mov	r3, r0
 756 01b6 8DF80F30 		strb	r3, [sp, #15]
 757              		.loc 5 96 0
 758 01ba FFF7FEFF 		bl	_ZN3r2p7SysLock7releaseEv
 759              		.loc 5 97 0
 760 01be 9DF80F30 		ldrb	r3, [sp, #15]	@ zero_extendqisi2
 761              	.LBE21:
 762              		.loc 5 98 0
 763 01c2 1846     		mov	r0, r3
 764 01c4 05B0     		add	sp, sp, #20
 765              		.cfi_def_cfa_offset 4
 766              		@ sp needed
 767 01c6 5DF804FB 		ldr	pc, [sp], #4
 768              		.cfi_endproc
 769              	.LFE49:
 770              		.size	_ZNK3r2p11StaticList_8is_emptyEv, .-_ZNK3r2p11StaticList_8is_emptyEv
 771 01ca 00BF     		.align	2
 772              		.global	_ZNK3r2p11StaticList_5countEv
 773              		.thumb
 774              		.thumb_func
 775              		.type	_ZNK3r2p11StaticList_5countEv, %function
 776              	_ZNK3r2p11StaticList_5countEv:
 777              	.LFB50:
 778              		.loc 5 101 0
 779              		.cfi_startproc
 780              		@ args = 0, pretend = 0, frame = 16
 781              		@ frame_needed = 0, uses_anonymous_args = 0
 782 01cc 00B5     		push	{lr}
 783              		.cfi_def_cfa_offset 4
 784              		.cfi_offset 14, -4
 785 01ce 85B0     		sub	sp, sp, #20
 786              		.cfi_def_cfa_offset 24
 787 01d0 0190     		str	r0, [sp, #4]
 788              	.LBB22:
 789              		.loc 5 103 0
 790 01d2 0023     		movs	r3, #0
 791 01d4 0393     		str	r3, [sp, #12]
 792              		.loc 5 104 0
 793 01d6 FFF7FEFF 		bl	_ZN3r2p7SysLock7acquireEv
 794              	.LBB23:
 795              		.loc 5 105 0
ARM GAS  /tmp/cc7gAN1M.s 			page 15


 796 01da 019B     		ldr	r3, [sp, #4]
 797 01dc 1B68     		ldr	r3, [r3]
 798 01de 0293     		str	r3, [sp, #8]
 799 01e0 09E0     		b	.L57
 800              	.L58:
 801              		.loc 5 106 0 discriminator 3
 802 01e2 FFF7FEFF 		bl	_ZN3r2p7SysLock7releaseEv
 803              		.loc 5 107 0 discriminator 3
 804 01e6 039B     		ldr	r3, [sp, #12]
 805 01e8 0133     		adds	r3, r3, #1
 806 01ea 0393     		str	r3, [sp, #12]
 807              		.loc 5 108 0 discriminator 3
 808 01ec FFF7FEFF 		bl	_ZN3r2p7SysLock7acquireEv
 809              		.loc 5 105 0 discriminator 3
 810 01f0 029B     		ldr	r3, [sp, #8]
 811 01f2 1B68     		ldr	r3, [r3]
 812 01f4 0293     		str	r3, [sp, #8]
 813              	.L57:
 814              		.loc 5 105 0 is_stmt 0 discriminator 1
 815 01f6 029B     		ldr	r3, [sp, #8]
 816 01f8 002B     		cmp	r3, #0
 817 01fa F2D1     		bne	.L58
 818              	.LBE23:
 819              		.loc 5 110 0 is_stmt 1
 820 01fc FFF7FEFF 		bl	_ZN3r2p7SysLock7releaseEv
 821              		.loc 5 111 0
 822 0200 039B     		ldr	r3, [sp, #12]
 823              	.LBE22:
 824              		.loc 5 112 0
 825 0202 1846     		mov	r0, r3
 826 0204 05B0     		add	sp, sp, #20
 827              		.cfi_def_cfa_offset 4
 828              		@ sp needed
 829 0206 5DF804FB 		ldr	pc, [sp], #4
 830              		.cfi_endproc
 831              	.LFE50:
 832              		.size	_ZNK3r2p11StaticList_5countEv, .-_ZNK3r2p11StaticList_5countEv
 833 020a 00BF     		.align	2
 834              		.global	_ZN3r2p11StaticList_4linkERNS0_4LinkE
 835              		.thumb
 836              		.thumb_func
 837              		.type	_ZN3r2p11StaticList_4linkERNS0_4LinkE, %function
 838              	_ZN3r2p11StaticList_4linkERNS0_4LinkE:
 839              	.LFB51:
 840              		.loc 5 115 0
 841              		.cfi_startproc
 842              		@ args = 0, pretend = 0, frame = 8
 843              		@ frame_needed = 0, uses_anonymous_args = 0
 844 020c 00B5     		push	{lr}
 845              		.cfi_def_cfa_offset 4
 846              		.cfi_offset 14, -4
 847 020e 83B0     		sub	sp, sp, #12
 848              		.cfi_def_cfa_offset 16
 849 0210 0190     		str	r0, [sp, #4]
 850 0212 0091     		str	r1, [sp]
 851              		.loc 5 117 0
 852 0214 FFF7FEFF 		bl	_ZN3r2p7SysLock7acquireEv
ARM GAS  /tmp/cc7gAN1M.s 			page 16


 853              		.loc 5 118 0
 854 0218 0198     		ldr	r0, [sp, #4]
 855 021a 0099     		ldr	r1, [sp]
 856 021c FFF7FEFF 		bl	_ZN3r2p11StaticList_11link_unsafeERNS0_4LinkE
 857              		.loc 5 119 0
 858 0220 FFF7FEFF 		bl	_ZN3r2p7SysLock7releaseEv
 859              		.loc 5 120 0
 860 0224 03B0     		add	sp, sp, #12
 861              		.cfi_def_cfa_offset 4
 862              		@ sp needed
 863 0226 5DF804FB 		ldr	pc, [sp], #4
 864              		.cfi_endproc
 865              	.LFE51:
 866              		.size	_ZN3r2p11StaticList_4linkERNS0_4LinkE, .-_ZN3r2p11StaticList_4linkERNS0_4LinkE
 867 022a 00BF     		.align	2
 868              		.global	_ZN3r2p11StaticList_6unlinkERNS0_4LinkE
 869              		.thumb
 870              		.thumb_func
 871              		.type	_ZN3r2p11StaticList_6unlinkERNS0_4LinkE, %function
 872              	_ZN3r2p11StaticList_6unlinkERNS0_4LinkE:
 873              	.LFB52:
 874              		.loc 5 123 0
 875              		.cfi_startproc
 876              		@ args = 0, pretend = 0, frame = 16
 877              		@ frame_needed = 0, uses_anonymous_args = 0
 878 022c 00B5     		push	{lr}
 879              		.cfi_def_cfa_offset 4
 880              		.cfi_offset 14, -4
 881 022e 85B0     		sub	sp, sp, #20
 882              		.cfi_def_cfa_offset 24
 883 0230 0190     		str	r0, [sp, #4]
 884 0232 0091     		str	r1, [sp]
 885              	.LBB24:
 886              		.loc 5 125 0
 887 0234 FFF7FEFF 		bl	_ZN3r2p7SysLock7acquireEv
 888              		.loc 5 126 0
 889 0238 0198     		ldr	r0, [sp, #4]
 890 023a 0099     		ldr	r1, [sp]
 891 023c FFF7FEFF 		bl	_ZN3r2p11StaticList_13unlink_unsafeERNS0_4LinkE
 892 0240 0346     		mov	r3, r0
 893 0242 8DF80F30 		strb	r3, [sp, #15]
 894              		.loc 5 127 0
 895 0246 FFF7FEFF 		bl	_ZN3r2p7SysLock7releaseEv
 896              		.loc 5 128 0
 897 024a 9DF80F30 		ldrb	r3, [sp, #15]	@ zero_extendqisi2
 898              	.LBE24:
 899              		.loc 5 129 0
 900 024e 1846     		mov	r0, r3
 901 0250 05B0     		add	sp, sp, #20
 902              		.cfi_def_cfa_offset 4
 903              		@ sp needed
 904 0252 5DF804FB 		ldr	pc, [sp], #4
 905              		.cfi_endproc
 906              	.LFE52:
 907              		.size	_ZN3r2p11StaticList_6unlinkERNS0_4LinkE, .-_ZN3r2p11StaticList_6unlinkERNS0_4LinkE
 908 0256 00BF     		.align	2
 909              		.global	_ZNK3r2p11StaticList_8index_ofEPKv
ARM GAS  /tmp/cc7gAN1M.s 			page 17


 910              		.thumb
 911              		.thumb_func
 912              		.type	_ZNK3r2p11StaticList_8index_ofEPKv, %function
 913              	_ZNK3r2p11StaticList_8index_ofEPKv:
 914              	.LFB53:
 915              		.loc 5 132 0
 916              		.cfi_startproc
 917              		@ args = 0, pretend = 0, frame = 16
 918              		@ frame_needed = 0, uses_anonymous_args = 0
 919 0258 00B5     		push	{lr}
 920              		.cfi_def_cfa_offset 4
 921              		.cfi_offset 14, -4
 922 025a 85B0     		sub	sp, sp, #20
 923              		.cfi_def_cfa_offset 24
 924 025c 0190     		str	r0, [sp, #4]
 925 025e 0091     		str	r1, [sp]
 926              	.LBB25:
 927              		.loc 5 134 0
 928 0260 009B     		ldr	r3, [sp]
 929 0262 002B     		cmp	r3, #0
 930 0264 02D1     		bne	.L64
 931              		.loc 5 134 0 is_stmt 0 discriminator 1
 932 0266 4FF0FF33 		mov	r3, #-1
 933 026a 1FE0     		b	.L65
 934              	.L64:
 935              		.loc 5 136 0 is_stmt 1
 936 026c 0023     		movs	r3, #0
 937 026e 0393     		str	r3, [sp, #12]
 938              		.loc 5 137 0
 939 0270 FFF7FEFF 		bl	_ZN3r2p7SysLock7acquireEv
 940              	.LBB26:
 941              		.loc 5 138 0
 942 0274 019B     		ldr	r3, [sp, #4]
 943 0276 1B68     		ldr	r3, [r3]
 944 0278 0293     		str	r3, [sp, #8]
 945 027a 10E0     		b	.L66
 946              	.L68:
 947              		.loc 5 139 0
 948 027c FFF7FEFF 		bl	_ZN3r2p7SysLock7releaseEv
 949              		.loc 5 140 0
 950 0280 029B     		ldr	r3, [sp, #8]
 951 0282 5A68     		ldr	r2, [r3, #4]
 952 0284 009B     		ldr	r3, [sp]
 953 0286 9A42     		cmp	r2, r3
 954 0288 01D1     		bne	.L67
 955              		.loc 5 141 0
 956 028a 039B     		ldr	r3, [sp, #12]
 957 028c 0EE0     		b	.L65
 958              	.L67:
 959              		.loc 5 143 0 discriminator 2
 960 028e FFF7FEFF 		bl	_ZN3r2p7SysLock7acquireEv
 961              		.loc 5 138 0 discriminator 2
 962 0292 039B     		ldr	r3, [sp, #12]
 963 0294 0133     		adds	r3, r3, #1
 964 0296 0393     		str	r3, [sp, #12]
 965 0298 029B     		ldr	r3, [sp, #8]
 966 029a 1B68     		ldr	r3, [r3]
ARM GAS  /tmp/cc7gAN1M.s 			page 18


 967 029c 0293     		str	r3, [sp, #8]
 968              	.L66:
 969              		.loc 5 138 0 is_stmt 0 discriminator 1
 970 029e 029B     		ldr	r3, [sp, #8]
 971 02a0 002B     		cmp	r3, #0
 972 02a2 EBD1     		bne	.L68
 973              	.LBE26:
 974              		.loc 5 145 0 is_stmt 1
 975 02a4 FFF7FEFF 		bl	_ZN3r2p7SysLock7releaseEv
 976              		.loc 5 146 0
 977 02a8 4FF0FF33 		mov	r3, #-1
 978              	.L65:
 979              	.LBE25:
 980              		.loc 5 147 0
 981 02ac 1846     		mov	r0, r3
 982 02ae 05B0     		add	sp, sp, #20
 983              		.cfi_def_cfa_offset 4
 984              		@ sp needed
 985 02b0 5DF804FB 		ldr	pc, [sp], #4
 986              		.cfi_endproc
 987              	.LFE53:
 988              		.size	_ZNK3r2p11StaticList_8index_ofEPKv, .-_ZNK3r2p11StaticList_8index_ofEPKv
 989              		.align	2
 990              		.global	_ZNK3r2p11StaticList_8containsEPKv
 991              		.thumb
 992              		.thumb_func
 993              		.type	_ZNK3r2p11StaticList_8containsEPKv, %function
 994              	_ZNK3r2p11StaticList_8containsEPKv:
 995              	.LFB54:
 996              		.loc 5 150 0
 997              		.cfi_startproc
 998              		@ args = 0, pretend = 0, frame = 16
 999              		@ frame_needed = 0, uses_anonymous_args = 0
 1000 02b4 00B5     		push	{lr}
 1001              		.cfi_def_cfa_offset 4
 1002              		.cfi_offset 14, -4
 1003 02b6 85B0     		sub	sp, sp, #20
 1004              		.cfi_def_cfa_offset 24
 1005 02b8 0190     		str	r0, [sp, #4]
 1006 02ba 0091     		str	r1, [sp]
 1007              	.LBB27:
 1008              		.loc 5 152 0
 1009 02bc FFF7FEFF 		bl	_ZN3r2p7SysLock7acquireEv
 1010              	.LBB28:
 1011              		.loc 5 153 0
 1012 02c0 019B     		ldr	r3, [sp, #4]
 1013 02c2 1B68     		ldr	r3, [r3]
 1014 02c4 0393     		str	r3, [sp, #12]
 1015 02c6 0FE0     		b	.L70
 1016              	.L73:
 1017              		.loc 5 154 0
 1018 02c8 039B     		ldr	r3, [sp, #12]
 1019 02ca 5A68     		ldr	r2, [r3, #4]
 1020 02cc 009B     		ldr	r3, [sp]
 1021 02ce 9A42     		cmp	r2, r3
 1022 02d0 03D1     		bne	.L71
 1023              		.loc 5 155 0
ARM GAS  /tmp/cc7gAN1M.s 			page 19


 1024 02d2 FFF7FEFF 		bl	_ZN3r2p7SysLock7releaseEv
 1025              		.loc 5 156 0
 1026 02d6 0123     		movs	r3, #1
 1027 02d8 0CE0     		b	.L72
 1028              	.L71:
 1029              		.loc 5 158 0 discriminator 2
 1030 02da FFF7FEFF 		bl	_ZN3r2p7SysLock7releaseEv
 1031              		.loc 5 159 0 discriminator 2
 1032 02de FFF7FEFF 		bl	_ZN3r2p7SysLock7acquireEv
 1033              		.loc 5 153 0 discriminator 2
 1034 02e2 039B     		ldr	r3, [sp, #12]
 1035 02e4 1B68     		ldr	r3, [r3]
 1036 02e6 0393     		str	r3, [sp, #12]
 1037              	.L70:
 1038              		.loc 5 153 0 is_stmt 0 discriminator 1
 1039 02e8 039B     		ldr	r3, [sp, #12]
 1040 02ea 002B     		cmp	r3, #0
 1041 02ec ECD1     		bne	.L73
 1042              	.LBE28:
 1043              		.loc 5 161 0 is_stmt 1
 1044 02ee FFF7FEFF 		bl	_ZN3r2p7SysLock7releaseEv
 1045              		.loc 5 162 0
 1046 02f2 0023     		movs	r3, #0
 1047              	.L72:
 1048              	.LBE27:
 1049              		.loc 5 163 0
 1050 02f4 1846     		mov	r0, r3
 1051 02f6 05B0     		add	sp, sp, #20
 1052              		.cfi_def_cfa_offset 4
 1053              		@ sp needed
 1054 02f8 5DF804FB 		ldr	pc, [sp], #4
 1055              		.cfi_endproc
 1056              	.LFE54:
 1057              		.size	_ZNK3r2p11StaticList_8containsEPKv, .-_ZNK3r2p11StaticList_8containsEPKv
 1058              		.align	2
 1059              		.global	_ZNK3r2p11StaticList_10find_firstEPFbPKvE
 1060              		.thumb
 1061              		.thumb_func
 1062              		.type	_ZNK3r2p11StaticList_10find_firstEPFbPKvE, %function
 1063              	_ZNK3r2p11StaticList_10find_firstEPFbPKvE:
 1064              	.LFB55:
 1065              		.loc 5 166 0
 1066              		.cfi_startproc
 1067              		@ args = 0, pretend = 0, frame = 16
 1068              		@ frame_needed = 0, uses_anonymous_args = 0
 1069 02fc 00B5     		push	{lr}
 1070              		.cfi_def_cfa_offset 4
 1071              		.cfi_offset 14, -4
 1072 02fe 85B0     		sub	sp, sp, #20
 1073              		.cfi_def_cfa_offset 24
 1074 0300 0190     		str	r0, [sp, #4]
 1075 0302 0091     		str	r1, [sp]
 1076              	.LBB29:
 1077              		.loc 5 168 0
 1078 0304 FFF7FEFF 		bl	_ZN3r2p7SysLock7acquireEv
 1079              	.LBB30:
 1080              		.loc 5 169 0
ARM GAS  /tmp/cc7gAN1M.s 			page 20


 1081 0308 019B     		ldr	r3, [sp, #4]
 1082 030a 1B68     		ldr	r3, [r3]
 1083 030c 0393     		str	r3, [sp, #12]
 1084 030e 11E0     		b	.L75
 1085              	.L78:
 1086              		.loc 5 170 0
 1087 0310 FFF7FEFF 		bl	_ZN3r2p7SysLock7releaseEv
 1088              		.loc 5 171 0
 1089 0314 039B     		ldr	r3, [sp, #12]
 1090 0316 5A68     		ldr	r2, [r3, #4]
 1091 0318 009B     		ldr	r3, [sp]
 1092 031a 1046     		mov	r0, r2
 1093 031c 9847     		blx	r3
 1094 031e 0346     		mov	r3, r0
 1095 0320 002B     		cmp	r3, #0
 1096 0322 02D0     		beq	.L76
 1097              		.loc 5 172 0
 1098 0324 039B     		ldr	r3, [sp, #12]
 1099 0326 5B68     		ldr	r3, [r3, #4]
 1100 0328 0AE0     		b	.L77
 1101              	.L76:
 1102              		.loc 5 174 0 discriminator 2
 1103 032a FFF7FEFF 		bl	_ZN3r2p7SysLock7acquireEv
 1104              		.loc 5 169 0 discriminator 2
 1105 032e 039B     		ldr	r3, [sp, #12]
 1106 0330 1B68     		ldr	r3, [r3]
 1107 0332 0393     		str	r3, [sp, #12]
 1108              	.L75:
 1109              		.loc 5 169 0 is_stmt 0 discriminator 1
 1110 0334 039B     		ldr	r3, [sp, #12]
 1111 0336 002B     		cmp	r3, #0
 1112 0338 EAD1     		bne	.L78
 1113              	.LBE30:
 1114              		.loc 5 176 0 is_stmt 1
 1115 033a FFF7FEFF 		bl	_ZN3r2p7SysLock7releaseEv
 1116              		.loc 5 177 0
 1117 033e 0023     		movs	r3, #0
 1118              	.L77:
 1119              	.LBE29:
 1120              		.loc 5 178 0
 1121 0340 1846     		mov	r0, r3
 1122 0342 05B0     		add	sp, sp, #20
 1123              		.cfi_def_cfa_offset 4
 1124              		@ sp needed
 1125 0344 5DF804FB 		ldr	pc, [sp], #4
 1126              		.cfi_endproc
 1127              	.LFE55:
 1128              		.size	_ZNK3r2p11StaticList_10find_firstEPFbPKvE, .-_ZNK3r2p11StaticList_10find_firstEPFbPKvE
 1129              		.align	2
 1130              		.global	_ZNK3r2p11StaticList_10find_firstEPFbPKvS2_ES2_
 1131              		.thumb
 1132              		.thumb_func
 1133              		.type	_ZNK3r2p11StaticList_10find_firstEPFbPKvS2_ES2_, %function
 1134              	_ZNK3r2p11StaticList_10find_firstEPFbPKvS2_ES2_:
 1135              	.LFB56:
 1136              		.loc 5 182 0
 1137              		.cfi_startproc
ARM GAS  /tmp/cc7gAN1M.s 			page 21


 1138              		@ args = 0, pretend = 0, frame = 24
 1139              		@ frame_needed = 0, uses_anonymous_args = 0
 1140 0348 00B5     		push	{lr}
 1141              		.cfi_def_cfa_offset 4
 1142              		.cfi_offset 14, -4
 1143 034a 87B0     		sub	sp, sp, #28
 1144              		.cfi_def_cfa_offset 32
 1145 034c 0390     		str	r0, [sp, #12]
 1146 034e 0291     		str	r1, [sp, #8]
 1147 0350 0192     		str	r2, [sp, #4]
 1148              	.LBB31:
 1149              		.loc 5 184 0
 1150 0352 019B     		ldr	r3, [sp, #4]
 1151 0354 002B     		cmp	r3, #0
 1152 0356 02D1     		bne	.L80
 1153              		.loc 5 184 0 is_stmt 0 discriminator 1
 1154 0358 1248     		ldr	r0, .L85
 1155 035a FFF7FEFF 		bl	chDbgPanic
 1156              	.L80:
 1157              		.loc 5 186 0 is_stmt 1
 1158 035e FFF7FEFF 		bl	_ZN3r2p7SysLock7acquireEv
 1159              	.LBB32:
 1160              		.loc 5 187 0
 1161 0362 039B     		ldr	r3, [sp, #12]
 1162 0364 1B68     		ldr	r3, [r3]
 1163 0366 0593     		str	r3, [sp, #20]
 1164 0368 12E0     		b	.L81
 1165              	.L84:
 1166              		.loc 5 188 0
 1167 036a FFF7FEFF 		bl	_ZN3r2p7SysLock7releaseEv
 1168              		.loc 5 189 0
 1169 036e 059B     		ldr	r3, [sp, #20]
 1170 0370 5A68     		ldr	r2, [r3, #4]
 1171 0372 029B     		ldr	r3, [sp, #8]
 1172 0374 1046     		mov	r0, r2
 1173 0376 0199     		ldr	r1, [sp, #4]
 1174 0378 9847     		blx	r3
 1175 037a 0346     		mov	r3, r0
 1176 037c 002B     		cmp	r3, #0
 1177 037e 02D0     		beq	.L82
 1178              		.loc 5 190 0
 1179 0380 059B     		ldr	r3, [sp, #20]
 1180 0382 5B68     		ldr	r3, [r3, #4]
 1181 0384 0AE0     		b	.L83
 1182              	.L82:
 1183              		.loc 5 192 0 discriminator 2
 1184 0386 FFF7FEFF 		bl	_ZN3r2p7SysLock7acquireEv
 1185              		.loc 5 187 0 discriminator 2
 1186 038a 059B     		ldr	r3, [sp, #20]
 1187 038c 1B68     		ldr	r3, [r3]
 1188 038e 0593     		str	r3, [sp, #20]
 1189              	.L81:
 1190              		.loc 5 187 0 is_stmt 0 discriminator 1
 1191 0390 059B     		ldr	r3, [sp, #20]
 1192 0392 002B     		cmp	r3, #0
 1193 0394 E9D1     		bne	.L84
 1194              	.LBE32:
ARM GAS  /tmp/cc7gAN1M.s 			page 22


 1195              		.loc 5 194 0 is_stmt 1
 1196 0396 FFF7FEFF 		bl	_ZN3r2p7SysLock7releaseEv
 1197              		.loc 5 195 0
 1198 039a 0023     		movs	r3, #0
 1199              	.L83:
 1200              	.LBE31:
 1201              		.loc 5 196 0
 1202 039c 1846     		mov	r0, r3
 1203 039e 07B0     		add	sp, sp, #28
 1204              		.cfi_def_cfa_offset 4
 1205              		@ sp needed
 1206 03a0 5DF804FB 		ldr	pc, [sp], #4
 1207              	.L86:
 1208              		.align	2
 1209              	.L85:
 1210 03a4 00000000 		.word	.LC0
 1211              		.cfi_endproc
 1212              	.LFE56:
 1213              		.size	_ZNK3r2p11StaticList_10find_firstEPFbPKvS2_ES2_, .-_ZNK3r2p11StaticList_10find_firstEPFbPKvS
 1214              		.align	2
 1215              		.global	_ZN3r2p11StaticList_C2Ev
 1216              		.thumb
 1217              		.thumb_func
 1218              		.type	_ZN3r2p11StaticList_C2Ev, %function
 1219              	_ZN3r2p11StaticList_C2Ev:
 1220              	.LFB58:
 1221              		.loc 5 199 0
 1222              		.cfi_startproc
 1223              		@ args = 0, pretend = 0, frame = 8
 1224              		@ frame_needed = 0, uses_anonymous_args = 0
 1225 03a8 00B5     		push	{lr}
 1226              		.cfi_def_cfa_offset 4
 1227              		.cfi_offset 14, -4
 1228 03aa 83B0     		sub	sp, sp, #12
 1229              		.cfi_def_cfa_offset 16
 1230 03ac 0190     		str	r0, [sp, #4]
 1231              	.LBB33:
 1232              		.loc 5 201 0
 1233 03ae 0198     		ldr	r0, [sp, #4]
 1234 03b0 FFF7FEFF 		bl	_ZN3r2p10UncopyableC2Ev
 1235 03b4 019B     		ldr	r3, [sp, #4]
 1236 03b6 0022     		movs	r2, #0
 1237 03b8 1A60     		str	r2, [r3]
 1238              	.LBE33:
 1239              		.loc 5 202 0
 1240 03ba 019B     		ldr	r3, [sp, #4]
 1241 03bc 1846     		mov	r0, r3
 1242 03be 03B0     		add	sp, sp, #12
 1243              		.cfi_def_cfa_offset 4
 1244              		@ sp needed
 1245 03c0 5DF804FB 		ldr	pc, [sp], #4
 1246              		.cfi_endproc
 1247              	.LFE58:
 1248              		.size	_ZN3r2p11StaticList_C2Ev, .-_ZN3r2p11StaticList_C2Ev
 1249              		.global	_ZN3r2p11StaticList_C1Ev
 1250              		.thumb_set _ZN3r2p11StaticList_C1Ev,_ZN3r2p11StaticList_C2Ev
 1251              	.Letext0:
ARM GAS  /tmp/cc7gAN1M.s 			page 23


 1252              		.file 6 "/opt/R2P/tools/gcc-arm-none-eabi-4_9-2014q4/lib/gcc/arm-none-eabi/4.9.3/include/stddef.h"
 1253              		.file 7 "/opt/R2P/tools/gcc-arm-none-eabi-4_9-2014q4/arm-none-eabi/include/machine/_default_types.
 1254              		.file 8 "/opt/R2P/tools/gcc-arm-none-eabi-4_9-2014q4/arm-none-eabi/include/c++/4.9.3/cstring"
 1255              		.file 9 "/opt/R2P/tools/gcc-arm-none-eabi-4_9-2014q4/arm-none-eabi/include/string.h"
 1256              		.file 10 "<built-in>"
 1257              		.file 11 "/opt/R2P/tools/gcc-arm-none-eabi-4_9-2014q4/arm-none-eabi/include/stdint.h"
 1258              		.section	.debug_info,"",%progbits
 1259              	.Ldebug_info0:
 1260 0000 CF0B0000 		.4byte	0xbcf
 1261 0004 0400     		.2byte	0x4
 1262 0006 00000000 		.4byte	.Ldebug_abbrev0
 1263 000a 04       		.byte	0x4
 1264 000b 01       		.uleb128 0x1
 1265 000c FF000000 		.4byte	.LASF78
 1266 0010 04       		.byte	0x4
 1267 0011 56030000 		.4byte	.LASF79
 1268 0015 B9000000 		.4byte	.LASF80
 1269 0019 00000000 		.4byte	.Ldebug_ranges0+0
 1270 001d 00000000 		.4byte	0
 1271 0021 00000000 		.4byte	.Ldebug_line0
 1272 0025 02       		.uleb128 0x2
 1273 0026 04       		.byte	0x4
 1274 0027 05       		.byte	0x5
 1275 0028 696E7400 		.ascii	"int\000"
 1276 002c 03       		.uleb128 0x3
 1277 002d 80000000 		.4byte	.LASF6
 1278 0031 06       		.byte	0x6
 1279 0032 D4       		.byte	0xd4
 1280 0033 37000000 		.4byte	0x37
 1281 0037 04       		.uleb128 0x4
 1282 0038 04       		.byte	0x4
 1283 0039 07       		.byte	0x7
 1284 003a 2F030000 		.4byte	.LASF0
 1285 003e 04       		.uleb128 0x4
 1286 003f 01       		.byte	0x1
 1287 0040 06       		.byte	0x6
 1288 0041 03030000 		.4byte	.LASF1
 1289 0045 04       		.uleb128 0x4
 1290 0046 01       		.byte	0x1
 1291 0047 08       		.byte	0x8
 1292 0048 EA020000 		.4byte	.LASF2
 1293 004c 04       		.uleb128 0x4
 1294 004d 02       		.byte	0x2
 1295 004e 05       		.byte	0x5
 1296 004f F5000000 		.4byte	.LASF3
 1297 0053 04       		.uleb128 0x4
 1298 0054 02       		.byte	0x2
 1299 0055 07       		.byte	0x7
 1300 0056 02040000 		.4byte	.LASF4
 1301 005a 04       		.uleb128 0x4
 1302 005b 04       		.byte	0x4
 1303 005c 05       		.byte	0x5
 1304 005d 6C020000 		.4byte	.LASF5
 1305 0061 03       		.uleb128 0x3
 1306 0062 DD040000 		.4byte	.LASF7
 1307 0066 07       		.byte	0x7
 1308 0067 41       		.byte	0x41
ARM GAS  /tmp/cc7gAN1M.s 			page 24


 1309 0068 6C000000 		.4byte	0x6c
 1310 006c 04       		.uleb128 0x4
 1311 006d 04       		.byte	0x4
 1312 006e 07       		.byte	0x7
 1313 006f 88030000 		.4byte	.LASF8
 1314 0073 04       		.uleb128 0x4
 1315 0074 08       		.byte	0x8
 1316 0075 05       		.byte	0x5
 1317 0076 AD060000 		.4byte	.LASF9
 1318 007a 04       		.uleb128 0x4
 1319 007b 08       		.byte	0x8
 1320 007c 07       		.byte	0x7
 1321 007d 0F030000 		.4byte	.LASF10
 1322 0081 04       		.uleb128 0x4
 1323 0082 04       		.byte	0x4
 1324 0083 07       		.byte	0x7
 1325 0084 87000000 		.4byte	.LASF11
 1326 0088 05       		.uleb128 0x5
 1327 0089 04       		.byte	0x4
 1328 008a 06       		.uleb128 0x6
 1329 008b 04       		.byte	0x4
 1330 008c 90000000 		.4byte	0x90
 1331 0090 04       		.uleb128 0x4
 1332 0091 01       		.byte	0x1
 1333 0092 08       		.byte	0x8
 1334 0093 21040000 		.4byte	.LASF12
 1335 0097 06       		.uleb128 0x6
 1336 0098 04       		.byte	0x4
 1337 0099 9D000000 		.4byte	0x9d
 1338 009d 07       		.uleb128 0x7
 1339 009e 90000000 		.4byte	0x90
 1340 00a2 08       		.uleb128 0x8
 1341 00a3 73746400 		.ascii	"std\000"
 1342 00a7 0A       		.byte	0xa
 1343 00a8 00       		.byte	0
 1344 00a9 CA000000 		.4byte	0xca
 1345 00ad 09       		.uleb128 0x9
 1346 00ae 08       		.byte	0x8
 1347 00af 52       		.byte	0x52
 1348 00b0 CA000000 		.4byte	0xca
 1349 00b4 09       		.uleb128 0x9
 1350 00b5 08       		.byte	0x8
 1351 00b6 55       		.byte	0x55
 1352 00b7 E4000000 		.4byte	0xe4
 1353 00bb 09       		.uleb128 0x9
 1354 00bc 08       		.byte	0x8
 1355 00bd 5B       		.byte	0x5b
 1356 00be F9000000 		.4byte	0xf9
 1357 00c2 09       		.uleb128 0x9
 1358 00c3 08       		.byte	0x8
 1359 00c4 5C       		.byte	0x5c
 1360 00c5 13010000 		.4byte	0x113
 1361 00c9 00       		.byte	0
 1362 00ca 0A       		.uleb128 0xa
 1363 00cb 2F040000 		.4byte	.LASF13
 1364 00cf 09       		.byte	0x9
 1365 00d0 1D       		.byte	0x1d
ARM GAS  /tmp/cc7gAN1M.s 			page 25


 1366 00d1 25000000 		.4byte	0x25
 1367 00d5 E4000000 		.4byte	0xe4
 1368 00d9 0B       		.uleb128 0xb
 1369 00da 97000000 		.4byte	0x97
 1370 00de 0B       		.uleb128 0xb
 1371 00df 97000000 		.4byte	0x97
 1372 00e3 00       		.byte	0
 1373 00e4 0A       		.uleb128 0xa
 1374 00e5 C8010000 		.4byte	.LASF14
 1375 00e9 09       		.byte	0x9
 1376 00ea 20       		.byte	0x20
 1377 00eb 8A000000 		.4byte	0x8a
 1378 00ef F9000000 		.4byte	0xf9
 1379 00f3 0B       		.uleb128 0xb
 1380 00f4 25000000 		.4byte	0x25
 1381 00f8 00       		.byte	0
 1382 00f9 0A       		.uleb128 0xa
 1383 00fa 75020000 		.4byte	.LASF15
 1384 00fe 09       		.byte	0x9
 1385 00ff 2A       		.byte	0x2a
 1386 0100 8A000000 		.4byte	0x8a
 1387 0104 13010000 		.4byte	0x113
 1388 0108 0B       		.uleb128 0xb
 1389 0109 8A000000 		.4byte	0x8a
 1390 010d 0B       		.uleb128 0xb
 1391 010e 97000000 		.4byte	0x97
 1392 0112 00       		.byte	0
 1393 0113 0A       		.uleb128 0xa
 1394 0114 45040000 		.4byte	.LASF16
 1395 0118 09       		.byte	0x9
 1396 0119 2C       		.byte	0x2c
 1397 011a 2C000000 		.4byte	0x2c
 1398 011e 32010000 		.4byte	0x132
 1399 0122 0B       		.uleb128 0xb
 1400 0123 8A000000 		.4byte	0x8a
 1401 0127 0B       		.uleb128 0xb
 1402 0128 97000000 		.4byte	0x97
 1403 012c 0B       		.uleb128 0xb
 1404 012d 2C000000 		.4byte	0x2c
 1405 0131 00       		.byte	0
 1406 0132 08       		.uleb128 0x8
 1407 0133 72327000 		.ascii	"r2p\000"
 1408 0137 01       		.byte	0x1
 1409 0138 03       		.byte	0x3
 1410 0139 1C050000 		.4byte	0x51c
 1411 013d 0C       		.uleb128 0xc
 1412 013e 0D020000 		.4byte	.LASF17
 1413 0142 01       		.byte	0x1
 1414 0143 01       		.byte	0x1
 1415 0144 06       		.byte	0x6
 1416 0145 9D010000 		.4byte	0x19d
 1417 0149 0D       		.uleb128 0xd
 1418 014a 0D020000 		.4byte	.LASF17
 1419 014e 01       		.byte	0x1
 1420 014f 09       		.byte	0x9
 1421 0150 1C050000 		.4byte	0x51c
 1422 0154 5C010000 		.4byte	0x15c
ARM GAS  /tmp/cc7gAN1M.s 			page 26


 1423 0158 67010000 		.4byte	0x167
 1424 015c 0E       		.uleb128 0xe
 1425 015d 1C050000 		.4byte	0x51c
 1426 0161 0B       		.uleb128 0xb
 1427 0162 22050000 		.4byte	0x522
 1428 0166 00       		.byte	0
 1429 0167 0F       		.uleb128 0xf
 1430 0168 0D020000 		.4byte	.LASF17
 1431 016c 01       		.byte	0x1
 1432 016d 14       		.byte	0x14
 1433 016e 1C050000 		.4byte	0x51c
 1434 0172 02       		.byte	0x2
 1435 0173 7B010000 		.4byte	0x17b
 1436 0177 81010000 		.4byte	0x181
 1437 017b 0E       		.uleb128 0xe
 1438 017c 1C050000 		.4byte	0x51c
 1439 0180 00       		.byte	0
 1440 0181 10       		.uleb128 0x10
 1441 0182 05000000 		.4byte	.LASF18
 1442 0186 01       		.byte	0x1
 1443 0187 15       		.byte	0x15
 1444 0188 88000000 		.4byte	0x88
 1445 018c 02       		.byte	0x2
 1446 018d 91010000 		.4byte	0x191
 1447 0191 0E       		.uleb128 0xe
 1448 0192 1C050000 		.4byte	0x51c
 1449 0196 0E       		.uleb128 0xe
 1450 0197 25000000 		.4byte	0x25
 1451 019b 00       		.byte	0
 1452 019c 00       		.byte	0
 1453 019d 07       		.uleb128 0x7
 1454 019e 3D010000 		.4byte	0x13d
 1455 01a2 0C       		.uleb128 0xc
 1456 01a3 41060000 		.4byte	.LASF19
 1457 01a7 01       		.byte	0x1
 1458 01a8 02       		.byte	0x2
 1459 01a9 09       		.byte	0x9
 1460 01aa E6010000 		.4byte	0x1e6
 1461 01ae 11       		.uleb128 0x11
 1462 01af 3D010000 		.4byte	0x13d
 1463 01b3 00       		.byte	0
 1464 01b4 0D       		.uleb128 0xd
 1465 01b5 41060000 		.4byte	.LASF19
 1466 01b9 02       		.byte	0x2
 1467 01ba 0B       		.byte	0xb
 1468 01bb 3A050000 		.4byte	0x53a
 1469 01bf C7010000 		.4byte	0x1c7
 1470 01c3 CD010000 		.4byte	0x1cd
 1471 01c7 0E       		.uleb128 0xe
 1472 01c8 3A050000 		.4byte	0x53a
 1473 01cc 00       		.byte	0
 1474 01cd 12       		.uleb128 0x12
 1475 01ce CB030000 		.4byte	.LASF20
 1476 01d2 02       		.byte	0x2
 1477 01d3 0E       		.byte	0xe
 1478 01d4 E7050000 		.4byte	.LASF22
 1479 01d8 01       		.byte	0x1
ARM GAS  /tmp/cc7gAN1M.s 			page 27


 1480 01d9 12       		.uleb128 0x12
 1481 01da E2020000 		.4byte	.LASF21
 1482 01de 02       		.byte	0x2
 1483 01df 0F       		.byte	0xf
 1484 01e0 D3030000 		.4byte	.LASF23
 1485 01e4 01       		.byte	0x1
 1486 01e5 00       		.byte	0
 1487 01e6 0C       		.uleb128 0xc
 1488 01e7 F9010000 		.4byte	.LASF24
 1489 01eb 01       		.byte	0x1
 1490 01ec 03       		.byte	0x3
 1491 01ed 09       		.byte	0x9
 1492 01ee 2A020000 		.4byte	0x22a
 1493 01f2 11       		.uleb128 0x11
 1494 01f3 3D010000 		.4byte	0x13d
 1495 01f7 00       		.byte	0
 1496 01f8 0D       		.uleb128 0xd
 1497 01f9 F9010000 		.4byte	.LASF24
 1498 01fd 03       		.byte	0x3
 1499 01fe 12       		.byte	0x12
 1500 01ff 40050000 		.4byte	0x540
 1501 0203 0B020000 		.4byte	0x20b
 1502 0207 11020000 		.4byte	0x211
 1503 020b 0E       		.uleb128 0xe
 1504 020c 40050000 		.4byte	0x540
 1505 0210 00       		.byte	0
 1506 0211 12       		.uleb128 0x12
 1507 0212 CB030000 		.4byte	.LASF20
 1508 0216 03       		.byte	0x3
 1509 0217 15       		.byte	0x15
 1510 0218 3C030000 		.4byte	.LASF25
 1511 021c 01       		.byte	0x1
 1512 021d 12       		.uleb128 0x12
 1513 021e E2020000 		.4byte	.LASF21
 1514 0222 03       		.byte	0x3
 1515 0223 16       		.byte	0x16
 1516 0224 1D020000 		.4byte	.LASF26
 1517 0228 01       		.byte	0x1
 1518 0229 00       		.byte	0
 1519 022a 0C       		.uleb128 0xc
 1520 022b 01020000 		.4byte	.LASF27
 1521 022f 04       		.byte	0x4
 1522 0230 04       		.byte	0x4
 1523 0231 08       		.byte	0x8
 1524 0232 16050000 		.4byte	0x516
 1525 0236 13       		.uleb128 0x13
 1526 0237 00000000 		.4byte	.LASF30
 1527 023b 08       		.byte	0x8
 1528 023c 04       		.byte	0x4
 1529 023d 0A       		.byte	0xa
 1530 023e 01       		.byte	0x1
 1531 023f 76020000 		.4byte	0x276
 1532 0243 14       		.uleb128 0x14
 1533 0244 45020000 		.4byte	.LASF28
 1534 0248 04       		.byte	0x4
 1535 0249 0B       		.byte	0xb
 1536 024a 46050000 		.4byte	0x546
ARM GAS  /tmp/cc7gAN1M.s 			page 28


 1537 024e 00       		.byte	0
 1538 024f 14       		.uleb128 0x14
 1539 0250 77040000 		.4byte	.LASF29
 1540 0254 04       		.byte	0x4
 1541 0255 0C       		.byte	0xc
 1542 0256 88000000 		.4byte	0x88
 1543 025a 04       		.byte	0x4
 1544 025b 15       		.uleb128 0x15
 1545 025c 00000000 		.4byte	.LASF30
 1546 0260 04       		.byte	0x4
 1547 0261 0E       		.byte	0xe
 1548 0262 46050000 		.4byte	0x546
 1549 0266 6A020000 		.4byte	0x26a
 1550 026a 0E       		.uleb128 0xe
 1551 026b 46050000 		.4byte	0x546
 1552 026f 0B       		.uleb128 0xb
 1553 0270 88000000 		.4byte	0x88
 1554 0274 00       		.byte	0
 1555 0275 00       		.byte	0
 1556 0276 11       		.uleb128 0x11
 1557 0277 3D010000 		.4byte	0x13d
 1558 027b 00       		.byte	0
 1559 027c 14       		.uleb128 0x14
 1560 027d FC030000 		.4byte	.LASF31
 1561 0281 04       		.byte	0x4
 1562 0282 18       		.byte	0x18
 1563 0283 46050000 		.4byte	0x546
 1564 0287 00       		.byte	0
 1565 0288 16       		.uleb128 0x16
 1566 0289 AD050000 		.4byte	.LASF32
 1567 028d 04       		.byte	0x4
 1568 028e 14       		.byte	0x14
 1569 028f 4C050000 		.4byte	0x54c
 1570 0293 01       		.byte	0x1
 1571 0294 16       		.uleb128 0x16
 1572 0295 F1010000 		.4byte	.LASF33
 1573 0299 04       		.byte	0x4
 1574 029a 15       		.byte	0x15
 1575 029b 68050000 		.4byte	0x568
 1576 029f 01       		.byte	0x1
 1577 02a0 17       		.uleb128 0x17
 1578 02a1 CD020000 		.4byte	.LASF34
 1579 02a5 04       		.byte	0x4
 1580 02a6 1B       		.byte	0x1b
 1581 02a7 A4020000 		.4byte	.LASF36
 1582 02ab 82050000 		.4byte	0x582
 1583 02af 01       		.byte	0x1
 1584 02b0 B8020000 		.4byte	0x2b8
 1585 02b4 BE020000 		.4byte	0x2be
 1586 02b8 0E       		.uleb128 0xe
 1587 02b9 88050000 		.4byte	0x588
 1588 02bd 00       		.byte	0
 1589 02be 07       		.uleb128 0x7
 1590 02bf 36020000 		.4byte	0x236
 1591 02c3 17       		.uleb128 0x17
 1592 02c4 37050000 		.4byte	.LASF35
 1593 02c8 04       		.byte	0x4
ARM GAS  /tmp/cc7gAN1M.s 			page 29


 1594 02c9 1C       		.byte	0x1c
 1595 02ca 47050000 		.4byte	.LASF37
 1596 02ce 33050000 		.4byte	0x533
 1597 02d2 01       		.byte	0x1
 1598 02d3 DB020000 		.4byte	0x2db
 1599 02d7 E1020000 		.4byte	0x2e1
 1600 02db 0E       		.uleb128 0xe
 1601 02dc 88050000 		.4byte	0x588
 1602 02e0 00       		.byte	0
 1603 02e1 17       		.uleb128 0x17
 1604 02e2 A8040000 		.4byte	.LASF38
 1605 02e6 04       		.byte	0x4
 1606 02e7 1D       		.byte	0x1d
 1607 02e8 11000000 		.4byte	.LASF39
 1608 02ec 2C000000 		.4byte	0x2c
 1609 02f0 01       		.byte	0x1
 1610 02f1 F9020000 		.4byte	0x2f9
 1611 02f5 FF020000 		.4byte	0x2ff
 1612 02f9 0E       		.uleb128 0xe
 1613 02fa 88050000 		.4byte	0x588
 1614 02fe 00       		.byte	0
 1615 02ff 18       		.uleb128 0x18
 1616 0300 15040000 		.4byte	.LASF40
 1617 0304 04       		.byte	0x4
 1618 0305 1E       		.byte	0x1e
 1619 0306 09050000 		.4byte	.LASF57
 1620 030a 01       		.byte	0x1
 1621 030b 13030000 		.4byte	0x313
 1622 030f 1E030000 		.4byte	0x31e
 1623 0313 0E       		.uleb128 0xe
 1624 0314 8E050000 		.4byte	0x58e
 1625 0318 0B       		.uleb128 0xb
 1626 0319 94050000 		.4byte	0x594
 1627 031d 00       		.byte	0
 1628 031e 17       		.uleb128 0x17
 1629 031f EE030000 		.4byte	.LASF41
 1630 0323 04       		.byte	0x4
 1631 0324 1F       		.byte	0x1f
 1632 0325 4A060000 		.4byte	.LASF42
 1633 0329 33050000 		.4byte	0x533
 1634 032d 01       		.byte	0x1
 1635 032e 36030000 		.4byte	0x336
 1636 0332 41030000 		.4byte	0x341
 1637 0336 0E       		.uleb128 0xe
 1638 0337 8E050000 		.4byte	0x58e
 1639 033b 0B       		.uleb128 0xb
 1640 033c 94050000 		.4byte	0x594
 1641 0340 00       		.byte	0
 1642 0341 17       		.uleb128 0x17
 1643 0342 E8040000 		.4byte	.LASF43
 1644 0346 04       		.byte	0x4
 1645 0347 20       		.byte	0x20
 1646 0348 7A050000 		.4byte	.LASF44
 1647 034c 25000000 		.4byte	0x25
 1648 0350 01       		.byte	0x1
 1649 0351 59030000 		.4byte	0x359
 1650 0355 64030000 		.4byte	0x364
ARM GAS  /tmp/cc7gAN1M.s 			page 30


 1651 0359 0E       		.uleb128 0xe
 1652 035a 88050000 		.4byte	0x588
 1653 035e 0B       		.uleb128 0xb
 1654 035f 61050000 		.4byte	0x561
 1655 0363 00       		.byte	0
 1656 0364 17       		.uleb128 0x17
 1657 0365 7A060000 		.4byte	.LASF45
 1658 0369 04       		.byte	0x4
 1659 036a 21       		.byte	0x21
 1660 036b 7D040000 		.4byte	.LASF46
 1661 036f 33050000 		.4byte	0x533
 1662 0373 01       		.byte	0x1
 1663 0374 7C030000 		.4byte	0x37c
 1664 0378 87030000 		.4byte	0x387
 1665 037c 0E       		.uleb128 0xe
 1666 037d 88050000 		.4byte	0x588
 1667 0381 0B       		.uleb128 0xb
 1668 0382 61050000 		.4byte	0x561
 1669 0386 00       		.byte	0
 1670 0387 17       		.uleb128 0x17
 1671 0388 37000000 		.4byte	.LASF47
 1672 038c 04       		.byte	0x4
 1673 038d 22       		.byte	0x22
 1674 038e 9A030000 		.4byte	.LASF48
 1675 0392 88000000 		.4byte	0x88
 1676 0396 01       		.byte	0x1
 1677 0397 9F030000 		.4byte	0x39f
 1678 039b AA030000 		.4byte	0x3aa
 1679 039f 0E       		.uleb128 0xe
 1680 03a0 88050000 		.4byte	0x588
 1681 03a4 0B       		.uleb128 0xb
 1682 03a5 88020000 		.4byte	0x288
 1683 03a9 00       		.byte	0
 1684 03aa 17       		.uleb128 0x17
 1685 03ab 37000000 		.4byte	.LASF47
 1686 03af 04       		.byte	0x4
 1687 03b0 23       		.byte	0x23
 1688 03b1 49000000 		.4byte	.LASF49
 1689 03b5 88000000 		.4byte	0x88
 1690 03b9 01       		.byte	0x1
 1691 03ba C2030000 		.4byte	0x3c2
 1692 03be D2030000 		.4byte	0x3d2
 1693 03c2 0E       		.uleb128 0xe
 1694 03c3 88050000 		.4byte	0x588
 1695 03c7 0B       		.uleb128 0xb
 1696 03c8 94020000 		.4byte	0x294
 1697 03cc 0B       		.uleb128 0xb
 1698 03cd 61050000 		.4byte	0x561
 1699 03d1 00       		.byte	0
 1700 03d2 17       		.uleb128 0x17
 1701 03d3 3C040000 		.4byte	.LASF50
 1702 03d7 04       		.byte	0x4
 1703 03d8 25       		.byte	0x25
 1704 03d9 4B020000 		.4byte	.LASF51
 1705 03dd 82050000 		.4byte	0x582
 1706 03e1 01       		.byte	0x1
 1707 03e2 EA030000 		.4byte	0x3ea
ARM GAS  /tmp/cc7gAN1M.s 			page 31


 1708 03e6 F0030000 		.4byte	0x3f0
 1709 03ea 0E       		.uleb128 0xe
 1710 03eb 88050000 		.4byte	0x588
 1711 03ef 00       		.byte	0
 1712 03f0 17       		.uleb128 0x17
 1713 03f1 26040000 		.4byte	.LASF52
 1714 03f5 04       		.byte	0x4
 1715 03f6 26       		.byte	0x26
 1716 03f7 20060000 		.4byte	.LASF53
 1717 03fb 33050000 		.4byte	0x533
 1718 03ff 01       		.byte	0x1
 1719 0400 08040000 		.4byte	0x408
 1720 0404 0E040000 		.4byte	0x40e
 1721 0408 0E       		.uleb128 0xe
 1722 0409 88050000 		.4byte	0x588
 1723 040d 00       		.byte	0
 1724 040e 17       		.uleb128 0x17
 1725 040f F8040000 		.4byte	.LASF54
 1726 0413 04       		.byte	0x4
 1727 0414 27       		.byte	0x27
 1728 0415 02060000 		.4byte	.LASF55
 1729 0419 2C000000 		.4byte	0x2c
 1730 041d 01       		.byte	0x1
 1731 041e 26040000 		.4byte	0x426
 1732 0422 2C040000 		.4byte	0x42c
 1733 0426 0E       		.uleb128 0xe
 1734 0427 88050000 		.4byte	0x588
 1735 042b 00       		.byte	0
 1736 042c 18       		.uleb128 0x18
 1737 042d DD020000 		.4byte	.LASF56
 1738 0431 04       		.byte	0x4
 1739 0432 28       		.byte	0x28
 1740 0433 BB060000 		.4byte	.LASF58
 1741 0437 01       		.byte	0x1
 1742 0438 40040000 		.4byte	0x440
 1743 043c 4B040000 		.4byte	0x44b
 1744 0440 0E       		.uleb128 0xe
 1745 0441 8E050000 		.4byte	0x58e
 1746 0445 0B       		.uleb128 0xb
 1747 0446 94050000 		.4byte	0x594
 1748 044a 00       		.byte	0
 1749 044b 17       		.uleb128 0x17
 1750 044c EA010000 		.4byte	.LASF59
 1751 0450 04       		.byte	0x4
 1752 0451 29       		.byte	0x29
 1753 0452 B5040000 		.4byte	.LASF60
 1754 0456 33050000 		.4byte	0x533
 1755 045a 01       		.byte	0x1
 1756 045b 63040000 		.4byte	0x463
 1757 045f 6E040000 		.4byte	0x46e
 1758 0463 0E       		.uleb128 0xe
 1759 0464 8E050000 		.4byte	0x58e
 1760 0468 0B       		.uleb128 0xb
 1761 0469 94050000 		.4byte	0x594
 1762 046d 00       		.byte	0
 1763 046e 17       		.uleb128 0x17
 1764 046f 37020000 		.4byte	.LASF61
ARM GAS  /tmp/cc7gAN1M.s 			page 32


 1765 0473 04       		.byte	0x4
 1766 0474 2A       		.byte	0x2a
 1767 0475 8A060000 		.4byte	.LASF62
 1768 0479 25000000 		.4byte	0x25
 1769 047d 01       		.byte	0x1
 1770 047e 86040000 		.4byte	0x486
 1771 0482 91040000 		.4byte	0x491
 1772 0486 0E       		.uleb128 0xe
 1773 0487 88050000 		.4byte	0x588
 1774 048b 0B       		.uleb128 0xb
 1775 048c 61050000 		.4byte	0x561
 1776 0490 00       		.byte	0
 1777 0491 17       		.uleb128 0x17
 1778 0492 EC000000 		.4byte	.LASF63
 1779 0496 04       		.byte	0x4
 1780 0497 2B       		.byte	0x2b
 1781 0498 96000000 		.4byte	.LASF64
 1782 049c 33050000 		.4byte	0x533
 1783 04a0 01       		.byte	0x1
 1784 04a1 A9040000 		.4byte	0x4a9
 1785 04a5 B4040000 		.4byte	0x4b4
 1786 04a9 0E       		.uleb128 0xe
 1787 04aa 88050000 		.4byte	0x588
 1788 04ae 0B       		.uleb128 0xb
 1789 04af 61050000 		.4byte	0x561
 1790 04b3 00       		.byte	0
 1791 04b4 17       		.uleb128 0x17
 1792 04b5 FE040000 		.4byte	.LASF65
 1793 04b9 04       		.byte	0x4
 1794 04ba 2C       		.byte	0x2c
 1795 04bb 4D040000 		.4byte	.LASF66
 1796 04bf 88000000 		.4byte	0x88
 1797 04c3 01       		.byte	0x1
 1798 04c4 CC040000 		.4byte	0x4cc
 1799 04c8 D7040000 		.4byte	0x4d7
 1800 04cc 0E       		.uleb128 0xe
 1801 04cd 88050000 		.4byte	0x588
 1802 04d1 0B       		.uleb128 0xb
 1803 04d2 88020000 		.4byte	0x288
 1804 04d6 00       		.byte	0
 1805 04d7 17       		.uleb128 0x17
 1806 04d8 FE040000 		.4byte	.LASF65
 1807 04dc 04       		.byte	0x4
 1808 04dd 2D       		.byte	0x2d
 1809 04de B7050000 		.4byte	.LASF67
 1810 04e2 88000000 		.4byte	0x88
 1811 04e6 01       		.byte	0x1
 1812 04e7 EF040000 		.4byte	0x4ef
 1813 04eb FF040000 		.4byte	0x4ff
 1814 04ef 0E       		.uleb128 0xe
 1815 04f0 88050000 		.4byte	0x588
 1816 04f4 0B       		.uleb128 0xb
 1817 04f5 94020000 		.4byte	0x294
 1818 04f9 0B       		.uleb128 0xb
 1819 04fa 61050000 		.4byte	0x561
 1820 04fe 00       		.byte	0
 1821 04ff 10       		.uleb128 0x10
ARM GAS  /tmp/cc7gAN1M.s 			page 33


 1822 0500 01020000 		.4byte	.LASF27
 1823 0504 04       		.byte	0x4
 1824 0505 30       		.byte	0x30
 1825 0506 8E050000 		.4byte	0x58e
 1826 050a 01       		.byte	0x1
 1827 050b 0F050000 		.4byte	0x50f
 1828 050f 0E       		.uleb128 0xe
 1829 0510 8E050000 		.4byte	0x58e
 1830 0514 00       		.byte	0
 1831 0515 00       		.byte	0
 1832 0516 07       		.uleb128 0x7
 1833 0517 2A020000 		.4byte	0x22a
 1834 051b 00       		.byte	0
 1835 051c 06       		.uleb128 0x6
 1836 051d 04       		.byte	0x4
 1837 051e 3D010000 		.4byte	0x13d
 1838 0522 19       		.uleb128 0x19
 1839 0523 04       		.byte	0x4
 1840 0524 9D010000 		.4byte	0x19d
 1841 0528 03       		.uleb128 0x3
 1842 0529 26030000 		.4byte	.LASF68
 1843 052d 0B       		.byte	0xb
 1844 052e 2D       		.byte	0x2d
 1845 052f 61000000 		.4byte	0x61
 1846 0533 04       		.uleb128 0x4
 1847 0534 01       		.byte	0x1
 1848 0535 02       		.byte	0x2
 1849 0536 18020000 		.4byte	.LASF69
 1850 053a 06       		.uleb128 0x6
 1851 053b 04       		.byte	0x4
 1852 053c A2010000 		.4byte	0x1a2
 1853 0540 06       		.uleb128 0x6
 1854 0541 04       		.byte	0x4
 1855 0542 E6010000 		.4byte	0x1e6
 1856 0546 06       		.uleb128 0x6
 1857 0547 04       		.byte	0x4
 1858 0548 36020000 		.4byte	0x236
 1859 054c 06       		.uleb128 0x6
 1860 054d 04       		.byte	0x4
 1861 054e 52050000 		.4byte	0x552
 1862 0552 1A       		.uleb128 0x1a
 1863 0553 33050000 		.4byte	0x533
 1864 0557 61050000 		.4byte	0x561
 1865 055b 0B       		.uleb128 0xb
 1866 055c 61050000 		.4byte	0x561
 1867 0560 00       		.byte	0
 1868 0561 06       		.uleb128 0x6
 1869 0562 04       		.byte	0x4
 1870 0563 67050000 		.4byte	0x567
 1871 0567 1B       		.uleb128 0x1b
 1872 0568 06       		.uleb128 0x6
 1873 0569 04       		.byte	0x4
 1874 056a 6E050000 		.4byte	0x56e
 1875 056e 1A       		.uleb128 0x1a
 1876 056f 33050000 		.4byte	0x533
 1877 0573 82050000 		.4byte	0x582
 1878 0577 0B       		.uleb128 0xb
ARM GAS  /tmp/cc7gAN1M.s 			page 34


 1879 0578 61050000 		.4byte	0x561
 1880 057c 0B       		.uleb128 0xb
 1881 057d 61050000 		.4byte	0x561
 1882 0581 00       		.byte	0
 1883 0582 06       		.uleb128 0x6
 1884 0583 04       		.byte	0x4
 1885 0584 BE020000 		.4byte	0x2be
 1886 0588 06       		.uleb128 0x6
 1887 0589 04       		.byte	0x4
 1888 058a 16050000 		.4byte	0x516
 1889 058e 06       		.uleb128 0x6
 1890 058f 04       		.byte	0x4
 1891 0590 2A020000 		.4byte	0x22a
 1892 0594 19       		.uleb128 0x19
 1893 0595 04       		.byte	0x4
 1894 0596 36020000 		.4byte	0x236
 1895 059a 1C       		.uleb128 0x1c
 1896 059b 67010000 		.4byte	0x167
 1897 059f 02       		.byte	0x2
 1898 05a0 A8050000 		.4byte	0x5a8
 1899 05a4 B2050000 		.4byte	0x5b2
 1900 05a8 1D       		.uleb128 0x1d
 1901 05a9 37040000 		.4byte	.LASF70
 1902 05ad B2050000 		.4byte	0x5b2
 1903 05b1 00       		.byte	0
 1904 05b2 07       		.uleb128 0x7
 1905 05b3 1C050000 		.4byte	0x51c
 1906 05b7 1E       		.uleb128 0x1e
 1907 05b8 9A050000 		.4byte	0x59a
 1908 05bc 8C020000 		.4byte	.LASF81
 1909 05c0 00000000 		.4byte	.LFB6
 1910 05c4 0C000000 		.4byte	.LFE6-.LFB6
 1911 05c8 01       		.uleb128 0x1
 1912 05c9 9C       		.byte	0x9c
 1913 05ca D2050000 		.4byte	0x5d2
 1914 05ce DB050000 		.4byte	0x5db
 1915 05d2 1F       		.uleb128 0x1f
 1916 05d3 A8050000 		.4byte	0x5a8
 1917 05d7 02       		.uleb128 0x2
 1918 05d8 91       		.byte	0x91
 1919 05d9 7C       		.sleb128 -4
 1920 05da 00       		.byte	0
 1921 05db 20       		.uleb128 0x20
 1922 05dc CD010000 		.4byte	0x1cd
 1923 05e0 14       		.byte	0x14
 1924 05e1 00000000 		.4byte	.LFB18
 1925 05e5 0E000000 		.4byte	.LFE18-.LFB18
 1926 05e9 01       		.uleb128 0x1
 1927 05ea 9C       		.byte	0x9c
 1928 05eb 07060000 		.4byte	0x607
 1929 05ef 21       		.uleb128 0x21
 1930 05f0 02000000 		.4byte	.LBB4
 1931 05f4 06000000 		.4byte	.LBE4-.LBB4
 1932 05f8 22       		.uleb128 0x22
 1933 05f9 746D7000 		.ascii	"tmp\000"
 1934 05fd 02       		.byte	0x2
 1935 05fe 16       		.byte	0x16
ARM GAS  /tmp/cc7gAN1M.s 			page 35


 1936 05ff 28050000 		.4byte	0x528
 1937 0603 01       		.uleb128 0x1
 1938 0604 53       		.byte	0x53
 1939 0605 00       		.byte	0
 1940 0606 00       		.byte	0
 1941 0607 20       		.uleb128 0x20
 1942 0608 D9010000 		.4byte	0x1d9
 1943 060c 1B       		.byte	0x1b
 1944 060d 00000000 		.4byte	.LFB19
 1945 0611 0E000000 		.4byte	.LFE19-.LFB19
 1946 0615 01       		.uleb128 0x1
 1947 0616 9C       		.byte	0x9c
 1948 0617 33060000 		.4byte	0x633
 1949 061b 21       		.uleb128 0x21
 1950 061c 06000000 		.4byte	.LBB7
 1951 0620 06000000 		.4byte	.LBE7-.LBB7
 1952 0624 22       		.uleb128 0x22
 1953 0625 746D7000 		.ascii	"tmp\000"
 1954 0629 02       		.byte	0x2
 1955 062a 1D       		.byte	0x1d
 1956 062b 28050000 		.4byte	0x528
 1957 062f 01       		.uleb128 0x1
 1958 0630 53       		.byte	0x53
 1959 0631 00       		.byte	0
 1960 0632 00       		.byte	0
 1961 0633 23       		.uleb128 0x23
 1962 0634 11020000 		.4byte	0x211
 1963 0638 1B       		.byte	0x1b
 1964 0639 00000000 		.4byte	.LFB26
 1965 063d 08000000 		.4byte	.LFE26-.LFB26
 1966 0641 01       		.uleb128 0x1
 1967 0642 9C       		.byte	0x9c
 1968 0643 23       		.uleb128 0x23
 1969 0644 1D020000 		.4byte	0x21d
 1970 0648 22       		.byte	0x22
 1971 0649 00000000 		.4byte	.LFB27
 1972 064d 08000000 		.4byte	.LFE27-.LFB27
 1973 0651 01       		.uleb128 0x1
 1974 0652 9C       		.byte	0x9c
 1975 0653 24       		.uleb128 0x24
 1976 0654 A0020000 		.4byte	0x2a0
 1977 0658 35       		.byte	0x35
 1978 0659 00000000 		.4byte	.LFB39
 1979 065d 0E000000 		.4byte	.LFE39-.LFB39
 1980 0661 01       		.uleb128 0x1
 1981 0662 9C       		.byte	0x9c
 1982 0663 6B060000 		.4byte	0x66b
 1983 0667 78060000 		.4byte	0x678
 1984 066b 25       		.uleb128 0x25
 1985 066c 37040000 		.4byte	.LASF70
 1986 0670 78060000 		.4byte	0x678
 1987 0674 02       		.uleb128 0x2
 1988 0675 91       		.byte	0x91
 1989 0676 7C       		.sleb128 -4
 1990 0677 00       		.byte	0
 1991 0678 07       		.uleb128 0x7
 1992 0679 88050000 		.4byte	0x588
ARM GAS  /tmp/cc7gAN1M.s 			page 36


 1993 067d 24       		.uleb128 0x24
 1994 067e C3020000 		.4byte	0x2c3
 1995 0682 3C       		.byte	0x3c
 1996 0683 00000000 		.4byte	.LFB40
 1997 0687 18000000 		.4byte	.LFE40-.LFB40
 1998 068b 01       		.uleb128 0x1
 1999 068c 9C       		.byte	0x9c
 2000 068d 95060000 		.4byte	0x695
 2001 0691 A2060000 		.4byte	0x6a2
 2002 0695 25       		.uleb128 0x25
 2003 0696 37040000 		.4byte	.LASF70
 2004 069a 78060000 		.4byte	0x678
 2005 069e 02       		.uleb128 0x2
 2006 069f 91       		.byte	0x91
 2007 06a0 7C       		.sleb128 -4
 2008 06a1 00       		.byte	0
 2009 06a2 26       		.uleb128 0x26
 2010 06a3 FF020000 		.4byte	0x2ff
 2011 06a7 43       		.byte	0x43
 2012 06a8 00000000 		.4byte	.LFB41
 2013 06ac 48000000 		.4byte	.LFE41-.LFB41
 2014 06b0 01       		.uleb128 0x1
 2015 06b1 9C       		.byte	0x9c
 2016 06b2 BA060000 		.4byte	0x6ba
 2017 06b6 D5060000 		.4byte	0x6d5
 2018 06ba 25       		.uleb128 0x25
 2019 06bb 37040000 		.4byte	.LASF70
 2020 06bf D5060000 		.4byte	0x6d5
 2021 06c3 02       		.uleb128 0x2
 2022 06c4 91       		.byte	0x91
 2023 06c5 74       		.sleb128 -12
 2024 06c6 27       		.uleb128 0x27
 2025 06c7 DD020000 		.4byte	.LASF56
 2026 06cb 04       		.byte	0x4
 2027 06cc 43       		.byte	0x43
 2028 06cd DA060000 		.4byte	0x6da
 2029 06d1 02       		.uleb128 0x2
 2030 06d2 91       		.byte	0x91
 2031 06d3 70       		.sleb128 -16
 2032 06d4 00       		.byte	0
 2033 06d5 07       		.uleb128 0x7
 2034 06d6 8E050000 		.4byte	0x58e
 2035 06da 07       		.uleb128 0x7
 2036 06db 94050000 		.4byte	0x594
 2037 06df 28       		.uleb128 0x28
 2038 06e0 E1020000 		.4byte	0x2e1
 2039 06e4 05       		.byte	0x5
 2040 06e5 07       		.byte	0x7
 2041 06e6 00000000 		.4byte	.LFB42
 2042 06ea 2A000000 		.4byte	.LFE42-.LFB42
 2043 06ee 01       		.uleb128 0x1
 2044 06ef 9C       		.byte	0x9c
 2045 06f0 F8060000 		.4byte	0x6f8
 2046 06f4 35070000 		.4byte	0x735
 2047 06f8 25       		.uleb128 0x25
 2048 06f9 37040000 		.4byte	.LASF70
 2049 06fd 78060000 		.4byte	0x678
ARM GAS  /tmp/cc7gAN1M.s 			page 37


 2050 0701 02       		.uleb128 0x2
 2051 0702 91       		.byte	0x91
 2052 0703 74       		.sleb128 -12
 2053 0704 21       		.uleb128 0x21
 2054 0705 04000000 		.4byte	.LBB8
 2055 0709 20000000 		.4byte	.LBE8-.LBB8
 2056 070d 29       		.uleb128 0x29
 2057 070e F8040000 		.4byte	.LASF54
 2058 0712 05       		.byte	0x5
 2059 0713 09       		.byte	0x9
 2060 0714 2C000000 		.4byte	0x2c
 2061 0718 02       		.uleb128 0x2
 2062 0719 91       		.byte	0x91
 2063 071a 7C       		.sleb128 -4
 2064 071b 21       		.uleb128 0x21
 2065 071c 08000000 		.4byte	.LBB9
 2066 0720 1A000000 		.4byte	.LBE9-.LBB9
 2067 0724 29       		.uleb128 0x29
 2068 0725 86020000 		.4byte	.LASF71
 2069 0729 05       		.byte	0x5
 2070 072a 0A       		.byte	0xa
 2071 072b 82050000 		.4byte	0x582
 2072 072f 02       		.uleb128 0x2
 2073 0730 91       		.byte	0x91
 2074 0731 78       		.sleb128 -8
 2075 0732 00       		.byte	0
 2076 0733 00       		.byte	0
 2077 0734 00       		.byte	0
 2078 0735 28       		.uleb128 0x28
 2079 0736 1E030000 		.4byte	0x31e
 2080 073a 05       		.byte	0x5
 2081 073b 11       		.byte	0x11
 2082 073c 2C000000 		.4byte	.LFB43
 2083 0740 54000000 		.4byte	.LFE43-.LFB43
 2084 0744 01       		.uleb128 0x1
 2085 0745 9C       		.byte	0x9c
 2086 0746 4E070000 		.4byte	0x74e
 2087 074a 8F070000 		.4byte	0x78f
 2088 074e 25       		.uleb128 0x25
 2089 074f 37040000 		.4byte	.LASF70
 2090 0753 D5060000 		.4byte	0x6d5
 2091 0757 02       		.uleb128 0x2
 2092 0758 91       		.byte	0x91
 2093 0759 74       		.sleb128 -12
 2094 075a 27       		.uleb128 0x27
 2095 075b DD020000 		.4byte	.LASF56
 2096 075f 05       		.byte	0x5
 2097 0760 11       		.byte	0x11
 2098 0761 8F070000 		.4byte	0x78f
 2099 0765 02       		.uleb128 0x2
 2100 0766 91       		.byte	0x91
 2101 0767 70       		.sleb128 -16
 2102 0768 21       		.uleb128 0x21
 2103 0769 32000000 		.4byte	.LBB11
 2104 076d 46000000 		.4byte	.LBE11-.LBB11
 2105 0771 29       		.uleb128 0x29
 2106 0772 40020000 		.4byte	.LASF72
ARM GAS  /tmp/cc7gAN1M.s 			page 38


 2107 0776 05       		.byte	0x5
 2108 0777 13       		.byte	0x13
 2109 0778 46050000 		.4byte	0x546
 2110 077c 02       		.uleb128 0x2
 2111 077d 91       		.byte	0x91
 2112 077e 7C       		.sleb128 -4
 2113 077f 29       		.uleb128 0x29
 2114 0780 90000000 		.4byte	.LASF73
 2115 0784 05       		.byte	0x5
 2116 0785 13       		.byte	0x13
 2117 0786 46050000 		.4byte	0x546
 2118 078a 02       		.uleb128 0x2
 2119 078b 91       		.byte	0x91
 2120 078c 78       		.sleb128 -8
 2121 078d 00       		.byte	0
 2122 078e 00       		.byte	0
 2123 078f 07       		.uleb128 0x7
 2124 0790 94050000 		.4byte	0x594
 2125 0794 28       		.uleb128 0x28
 2126 0795 41030000 		.4byte	0x341
 2127 0799 05       		.byte	0x5
 2128 079a 21       		.byte	0x21
 2129 079b 80000000 		.4byte	.LFB44
 2130 079f 48000000 		.4byte	.LFE44-.LFB44
 2131 07a3 01       		.uleb128 0x1
 2132 07a4 9C       		.byte	0x9c
 2133 07a5 AD070000 		.4byte	0x7ad
 2134 07a9 F6070000 		.4byte	0x7f6
 2135 07ad 25       		.uleb128 0x25
 2136 07ae 37040000 		.4byte	.LASF70
 2137 07b2 78060000 		.4byte	0x678
 2138 07b6 02       		.uleb128 0x2
 2139 07b7 91       		.byte	0x91
 2140 07b8 74       		.sleb128 -12
 2141 07b9 27       		.uleb128 0x27
 2142 07ba 77040000 		.4byte	.LASF29
 2143 07be 05       		.byte	0x5
 2144 07bf 21       		.byte	0x21
 2145 07c0 61050000 		.4byte	0x561
 2146 07c4 02       		.uleb128 0x2
 2147 07c5 91       		.byte	0x91
 2148 07c6 70       		.sleb128 -16
 2149 07c7 21       		.uleb128 0x21
 2150 07c8 86000000 		.4byte	.LBB12
 2151 07cc 3C000000 		.4byte	.LBE12-.LBB12
 2152 07d0 22       		.uleb128 0x22
 2153 07d1 6900     		.ascii	"i\000"
 2154 07d3 05       		.byte	0x5
 2155 07d4 25       		.byte	0x25
 2156 07d5 25000000 		.4byte	0x25
 2157 07d9 02       		.uleb128 0x2
 2158 07da 91       		.byte	0x91
 2159 07db 7C       		.sleb128 -4
 2160 07dc 21       		.uleb128 0x21
 2161 07dd 96000000 		.4byte	.LBB13
 2162 07e1 28000000 		.4byte	.LBE13-.LBB13
 2163 07e5 29       		.uleb128 0x29
ARM GAS  /tmp/cc7gAN1M.s 			page 39


 2164 07e6 86020000 		.4byte	.LASF71
 2165 07ea 05       		.byte	0x5
 2166 07eb 26       		.byte	0x26
 2167 07ec 82050000 		.4byte	0x582
 2168 07f0 02       		.uleb128 0x2
 2169 07f1 91       		.byte	0x91
 2170 07f2 78       		.sleb128 -8
 2171 07f3 00       		.byte	0
 2172 07f4 00       		.byte	0
 2173 07f5 00       		.byte	0
 2174 07f6 28       		.uleb128 0x28
 2175 07f7 64030000 		.4byte	0x364
 2176 07fb 05       		.byte	0x5
 2177 07fc 2F       		.byte	0x2f
 2178 07fd C8000000 		.4byte	.LFB45
 2179 0801 30000000 		.4byte	.LFE45-.LFB45
 2180 0805 01       		.uleb128 0x1
 2181 0806 9C       		.byte	0x9c
 2182 0807 0F080000 		.4byte	0x80f
 2183 080b 42080000 		.4byte	0x842
 2184 080f 25       		.uleb128 0x25
 2185 0810 37040000 		.4byte	.LASF70
 2186 0814 78060000 		.4byte	0x678
 2187 0818 02       		.uleb128 0x2
 2188 0819 91       		.byte	0x91
 2189 081a 74       		.sleb128 -12
 2190 081b 27       		.uleb128 0x27
 2191 081c 77040000 		.4byte	.LASF29
 2192 0820 05       		.byte	0x5
 2193 0821 2F       		.byte	0x2f
 2194 0822 61050000 		.4byte	0x561
 2195 0826 02       		.uleb128 0x2
 2196 0827 91       		.byte	0x91
 2197 0828 70       		.sleb128 -16
 2198 0829 21       		.uleb128 0x21
 2199 082a CE000000 		.4byte	.LBB15
 2200 082e 22000000 		.4byte	.LBE15-.LBB15
 2201 0832 29       		.uleb128 0x29
 2202 0833 86020000 		.4byte	.LASF71
 2203 0837 05       		.byte	0x5
 2204 0838 31       		.byte	0x31
 2205 0839 82050000 		.4byte	0x582
 2206 083d 02       		.uleb128 0x2
 2207 083e 91       		.byte	0x91
 2208 083f 7C       		.sleb128 -4
 2209 0840 00       		.byte	0
 2210 0841 00       		.byte	0
 2211 0842 2A       		.uleb128 0x2a
 2212 0843 87030000 		.4byte	0x387
 2213 0847 05       		.byte	0x5
 2214 0848 3A       		.byte	0x3a
 2215 0849 F8000000 		.4byte	.LFB46
 2216 084d 3C000000 		.4byte	.LFE46-.LFB46
 2217 0851 01       		.uleb128 0x1
 2218 0852 9C       		.byte	0x9c
 2219 0853 5B080000 		.4byte	0x85b
 2220 0857 8E080000 		.4byte	0x88e
ARM GAS  /tmp/cc7gAN1M.s 			page 40


 2221 085b 25       		.uleb128 0x25
 2222 085c 37040000 		.4byte	.LASF70
 2223 0860 78060000 		.4byte	0x678
 2224 0864 02       		.uleb128 0x2
 2225 0865 91       		.byte	0x91
 2226 0866 6C       		.sleb128 -20
 2227 0867 27       		.uleb128 0x27
 2228 0868 7C020000 		.4byte	.LASF74
 2229 086c 05       		.byte	0x5
 2230 086d 3A       		.byte	0x3a
 2231 086e 88020000 		.4byte	0x288
 2232 0872 02       		.uleb128 0x2
 2233 0873 91       		.byte	0x91
 2234 0874 68       		.sleb128 -24
 2235 0875 21       		.uleb128 0x21
 2236 0876 00010000 		.4byte	.LBB17
 2237 087a 2A000000 		.4byte	.LBE17-.LBB17
 2238 087e 29       		.uleb128 0x29
 2239 087f 86020000 		.4byte	.LASF71
 2240 0883 05       		.byte	0x5
 2241 0884 3C       		.byte	0x3c
 2242 0885 82050000 		.4byte	0x582
 2243 0889 02       		.uleb128 0x2
 2244 088a 91       		.byte	0x91
 2245 088b 74       		.sleb128 -12
 2246 088c 00       		.byte	0
 2247 088d 00       		.byte	0
 2248 088e 2A       		.uleb128 0x2a
 2249 088f AA030000 		.4byte	0x3aa
 2250 0893 05       		.byte	0x5
 2251 0894 45       		.byte	0x45
 2252 0895 34010000 		.4byte	.LFB47
 2253 0899 50000000 		.4byte	.LFE47-.LFB47
 2254 089d 01       		.uleb128 0x1
 2255 089e 9C       		.byte	0x9c
 2256 089f A7080000 		.4byte	0x8a7
 2257 08a3 E8080000 		.4byte	0x8e8
 2258 08a7 25       		.uleb128 0x25
 2259 08a8 37040000 		.4byte	.LASF70
 2260 08ac 78060000 		.4byte	0x678
 2261 08b0 02       		.uleb128 0x2
 2262 08b1 91       		.byte	0x91
 2263 08b2 6C       		.sleb128 -20
 2264 08b3 27       		.uleb128 0x27
 2265 08b4 F8020000 		.4byte	.LASF75
 2266 08b8 05       		.byte	0x5
 2267 08b9 45       		.byte	0x45
 2268 08ba 94020000 		.4byte	0x294
 2269 08be 02       		.uleb128 0x2
 2270 08bf 91       		.byte	0x91
 2271 08c0 68       		.sleb128 -24
 2272 08c1 27       		.uleb128 0x27
 2273 08c2 70050000 		.4byte	.LASF76
 2274 08c6 05       		.byte	0x5
 2275 08c7 46       		.byte	0x46
 2276 08c8 61050000 		.4byte	0x561
 2277 08cc 02       		.uleb128 0x2
ARM GAS  /tmp/cc7gAN1M.s 			page 41


 2278 08cd 91       		.byte	0x91
 2279 08ce 64       		.sleb128 -28
 2280 08cf 21       		.uleb128 0x21
 2281 08d0 4A010000 		.4byte	.LBB19
 2282 08d4 2C000000 		.4byte	.LBE19-.LBB19
 2283 08d8 29       		.uleb128 0x29
 2284 08d9 86020000 		.4byte	.LASF71
 2285 08dd 05       		.byte	0x5
 2286 08de 4A       		.byte	0x4a
 2287 08df 82050000 		.4byte	0x582
 2288 08e3 02       		.uleb128 0x2
 2289 08e4 91       		.byte	0x91
 2290 08e5 74       		.sleb128 -12
 2291 08e6 00       		.byte	0
 2292 08e7 00       		.byte	0
 2293 08e8 2A       		.uleb128 0x2a
 2294 08e9 D2030000 		.4byte	0x3d2
 2295 08ed 05       		.byte	0x5
 2296 08ee 53       		.byte	0x53
 2297 08ef 84010000 		.4byte	.LFB48
 2298 08f3 20000000 		.4byte	.LFE48-.LFB48
 2299 08f7 01       		.uleb128 0x1
 2300 08f8 9C       		.byte	0x9c
 2301 08f9 01090000 		.4byte	0x901
 2302 08fd 26090000 		.4byte	0x926
 2303 0901 25       		.uleb128 0x25
 2304 0902 37040000 		.4byte	.LASF70
 2305 0906 78060000 		.4byte	0x678
 2306 090a 02       		.uleb128 0x2
 2307 090b 91       		.byte	0x91
 2308 090c 6C       		.sleb128 -20
 2309 090d 21       		.uleb128 0x21
 2310 090e 8A010000 		.4byte	.LBB20
 2311 0912 12000000 		.4byte	.LBE20-.LBB20
 2312 0916 29       		.uleb128 0x29
 2313 0917 FC030000 		.4byte	.LASF31
 2314 091b 05       		.byte	0x5
 2315 091c 56       		.byte	0x56
 2316 091d 82050000 		.4byte	0x582
 2317 0921 02       		.uleb128 0x2
 2318 0922 91       		.byte	0x91
 2319 0923 74       		.sleb128 -12
 2320 0924 00       		.byte	0
 2321 0925 00       		.byte	0
 2322 0926 2A       		.uleb128 0x2a
 2323 0927 F0030000 		.4byte	0x3f0
 2324 092b 05       		.byte	0x5
 2325 092c 5C       		.byte	0x5c
 2326 092d A4010000 		.4byte	.LFB49
 2327 0931 26000000 		.4byte	.LFE49-.LFB49
 2328 0935 01       		.uleb128 0x1
 2329 0936 9C       		.byte	0x9c
 2330 0937 3F090000 		.4byte	0x93f
 2331 093b 64090000 		.4byte	0x964
 2332 093f 25       		.uleb128 0x25
 2333 0940 37040000 		.4byte	.LASF70
 2334 0944 78060000 		.4byte	0x678
ARM GAS  /tmp/cc7gAN1M.s 			page 42


 2335 0948 02       		.uleb128 0x2
 2336 0949 91       		.byte	0x91
 2337 094a 6C       		.sleb128 -20
 2338 094b 21       		.uleb128 0x21
 2339 094c AA010000 		.4byte	.LBB21
 2340 0950 18000000 		.4byte	.LBE21-.LBB21
 2341 0954 29       		.uleb128 0x29
 2342 0955 A5050000 		.4byte	.LASF77
 2343 0959 05       		.byte	0x5
 2344 095a 5F       		.byte	0x5f
 2345 095b 33050000 		.4byte	0x533
 2346 095f 02       		.uleb128 0x2
 2347 0960 91       		.byte	0x91
 2348 0961 77       		.sleb128 -9
 2349 0962 00       		.byte	0
 2350 0963 00       		.byte	0
 2351 0964 2A       		.uleb128 0x2a
 2352 0965 0E040000 		.4byte	0x40e
 2353 0969 05       		.byte	0x5
 2354 096a 65       		.byte	0x65
 2355 096b CC010000 		.4byte	.LFB50
 2356 096f 3E000000 		.4byte	.LFE50-.LFB50
 2357 0973 01       		.uleb128 0x1
 2358 0974 9C       		.byte	0x9c
 2359 0975 7D090000 		.4byte	0x97d
 2360 0979 BA090000 		.4byte	0x9ba
 2361 097d 25       		.uleb128 0x25
 2362 097e 37040000 		.4byte	.LASF70
 2363 0982 78060000 		.4byte	0x678
 2364 0986 02       		.uleb128 0x2
 2365 0987 91       		.byte	0x91
 2366 0988 6C       		.sleb128 -20
 2367 0989 21       		.uleb128 0x21
 2368 098a D2010000 		.4byte	.LBB22
 2369 098e 30000000 		.4byte	.LBE22-.LBB22
 2370 0992 29       		.uleb128 0x29
 2371 0993 F8040000 		.4byte	.LASF54
 2372 0997 05       		.byte	0x5
 2373 0998 67       		.byte	0x67
 2374 0999 2C000000 		.4byte	0x2c
 2375 099d 02       		.uleb128 0x2
 2376 099e 91       		.byte	0x91
 2377 099f 74       		.sleb128 -12
 2378 09a0 21       		.uleb128 0x21
 2379 09a1 DA010000 		.4byte	.LBB23
 2380 09a5 22000000 		.4byte	.LBE23-.LBB23
 2381 09a9 29       		.uleb128 0x29
 2382 09aa 86020000 		.4byte	.LASF71
 2383 09ae 05       		.byte	0x5
 2384 09af 69       		.byte	0x69
 2385 09b0 82050000 		.4byte	0x582
 2386 09b4 02       		.uleb128 0x2
 2387 09b5 91       		.byte	0x91
 2388 09b6 70       		.sleb128 -16
 2389 09b7 00       		.byte	0
 2390 09b8 00       		.byte	0
 2391 09b9 00       		.byte	0
ARM GAS  /tmp/cc7gAN1M.s 			page 43


 2392 09ba 2A       		.uleb128 0x2a
 2393 09bb 2C040000 		.4byte	0x42c
 2394 09bf 05       		.byte	0x5
 2395 09c0 73       		.byte	0x73
 2396 09c1 0C020000 		.4byte	.LFB51
 2397 09c5 1E000000 		.4byte	.LFE51-.LFB51
 2398 09c9 01       		.uleb128 0x1
 2399 09ca 9C       		.byte	0x9c
 2400 09cb D3090000 		.4byte	0x9d3
 2401 09cf EE090000 		.4byte	0x9ee
 2402 09d3 25       		.uleb128 0x25
 2403 09d4 37040000 		.4byte	.LASF70
 2404 09d8 D5060000 		.4byte	0x6d5
 2405 09dc 02       		.uleb128 0x2
 2406 09dd 91       		.byte	0x91
 2407 09de 74       		.sleb128 -12
 2408 09df 27       		.uleb128 0x27
 2409 09e0 DD020000 		.4byte	.LASF56
 2410 09e4 05       		.byte	0x5
 2411 09e5 73       		.byte	0x73
 2412 09e6 EE090000 		.4byte	0x9ee
 2413 09ea 02       		.uleb128 0x2
 2414 09eb 91       		.byte	0x91
 2415 09ec 70       		.sleb128 -16
 2416 09ed 00       		.byte	0
 2417 09ee 07       		.uleb128 0x7
 2418 09ef 94050000 		.4byte	0x594
 2419 09f3 2A       		.uleb128 0x2a
 2420 09f4 4B040000 		.4byte	0x44b
 2421 09f8 05       		.byte	0x5
 2422 09f9 7B       		.byte	0x7b
 2423 09fa 2C020000 		.4byte	.LFB52
 2424 09fe 2A000000 		.4byte	.LFE52-.LFB52
 2425 0a02 01       		.uleb128 0x1
 2426 0a03 9C       		.byte	0x9c
 2427 0a04 0C0A0000 		.4byte	0xa0c
 2428 0a08 3F0A0000 		.4byte	0xa3f
 2429 0a0c 25       		.uleb128 0x25
 2430 0a0d 37040000 		.4byte	.LASF70
 2431 0a11 D5060000 		.4byte	0x6d5
 2432 0a15 02       		.uleb128 0x2
 2433 0a16 91       		.byte	0x91
 2434 0a17 6C       		.sleb128 -20
 2435 0a18 27       		.uleb128 0x27
 2436 0a19 DD020000 		.4byte	.LASF56
 2437 0a1d 05       		.byte	0x5
 2438 0a1e 7B       		.byte	0x7b
 2439 0a1f 3F0A0000 		.4byte	0xa3f
 2440 0a23 02       		.uleb128 0x2
 2441 0a24 91       		.byte	0x91
 2442 0a25 68       		.sleb128 -24
 2443 0a26 21       		.uleb128 0x21
 2444 0a27 34020000 		.4byte	.LBB24
 2445 0a2b 1A000000 		.4byte	.LBE24-.LBB24
 2446 0a2f 29       		.uleb128 0x29
 2447 0a30 A5050000 		.4byte	.LASF77
 2448 0a34 05       		.byte	0x5
ARM GAS  /tmp/cc7gAN1M.s 			page 44


 2449 0a35 7E       		.byte	0x7e
 2450 0a36 33050000 		.4byte	0x533
 2451 0a3a 02       		.uleb128 0x2
 2452 0a3b 91       		.byte	0x91
 2453 0a3c 77       		.sleb128 -9
 2454 0a3d 00       		.byte	0
 2455 0a3e 00       		.byte	0
 2456 0a3f 07       		.uleb128 0x7
 2457 0a40 94050000 		.4byte	0x594
 2458 0a44 2A       		.uleb128 0x2a
 2459 0a45 6E040000 		.4byte	0x46e
 2460 0a49 05       		.byte	0x5
 2461 0a4a 84       		.byte	0x84
 2462 0a4b 58020000 		.4byte	.LFB53
 2463 0a4f 5C000000 		.4byte	.LFE53-.LFB53
 2464 0a53 01       		.uleb128 0x1
 2465 0a54 9C       		.byte	0x9c
 2466 0a55 5D0A0000 		.4byte	0xa5d
 2467 0a59 A60A0000 		.4byte	0xaa6
 2468 0a5d 25       		.uleb128 0x25
 2469 0a5e 37040000 		.4byte	.LASF70
 2470 0a62 78060000 		.4byte	0x678
 2471 0a66 02       		.uleb128 0x2
 2472 0a67 91       		.byte	0x91
 2473 0a68 6C       		.sleb128 -20
 2474 0a69 27       		.uleb128 0x27
 2475 0a6a 77040000 		.4byte	.LASF29
 2476 0a6e 05       		.byte	0x5
 2477 0a6f 84       		.byte	0x84
 2478 0a70 61050000 		.4byte	0x561
 2479 0a74 02       		.uleb128 0x2
 2480 0a75 91       		.byte	0x91
 2481 0a76 68       		.sleb128 -24
 2482 0a77 21       		.uleb128 0x21
 2483 0a78 60020000 		.4byte	.LBB25
 2484 0a7c 4C000000 		.4byte	.LBE25-.LBB25
 2485 0a80 22       		.uleb128 0x22
 2486 0a81 6900     		.ascii	"i\000"
 2487 0a83 05       		.byte	0x5
 2488 0a84 88       		.byte	0x88
 2489 0a85 25000000 		.4byte	0x25
 2490 0a89 02       		.uleb128 0x2
 2491 0a8a 91       		.byte	0x91
 2492 0a8b 74       		.sleb128 -12
 2493 0a8c 21       		.uleb128 0x21
 2494 0a8d 74020000 		.4byte	.LBB26
 2495 0a91 30000000 		.4byte	.LBE26-.LBB26
 2496 0a95 29       		.uleb128 0x29
 2497 0a96 86020000 		.4byte	.LASF71
 2498 0a9a 05       		.byte	0x5
 2499 0a9b 8A       		.byte	0x8a
 2500 0a9c 82050000 		.4byte	0x582
 2501 0aa0 02       		.uleb128 0x2
 2502 0aa1 91       		.byte	0x91
 2503 0aa2 70       		.sleb128 -16
 2504 0aa3 00       		.byte	0
 2505 0aa4 00       		.byte	0
ARM GAS  /tmp/cc7gAN1M.s 			page 45


 2506 0aa5 00       		.byte	0
 2507 0aa6 2A       		.uleb128 0x2a
 2508 0aa7 91040000 		.4byte	0x491
 2509 0aab 05       		.byte	0x5
 2510 0aac 96       		.byte	0x96
 2511 0aad B4020000 		.4byte	.LFB54
 2512 0ab1 48000000 		.4byte	.LFE54-.LFB54
 2513 0ab5 01       		.uleb128 0x1
 2514 0ab6 9C       		.byte	0x9c
 2515 0ab7 BF0A0000 		.4byte	0xabf
 2516 0abb F20A0000 		.4byte	0xaf2
 2517 0abf 25       		.uleb128 0x25
 2518 0ac0 37040000 		.4byte	.LASF70
 2519 0ac4 78060000 		.4byte	0x678
 2520 0ac8 02       		.uleb128 0x2
 2521 0ac9 91       		.byte	0x91
 2522 0aca 6C       		.sleb128 -20
 2523 0acb 27       		.uleb128 0x27
 2524 0acc 77040000 		.4byte	.LASF29
 2525 0ad0 05       		.byte	0x5
 2526 0ad1 96       		.byte	0x96
 2527 0ad2 61050000 		.4byte	0x561
 2528 0ad6 02       		.uleb128 0x2
 2529 0ad7 91       		.byte	0x91
 2530 0ad8 68       		.sleb128 -24
 2531 0ad9 21       		.uleb128 0x21
 2532 0ada C0020000 		.4byte	.LBB28
 2533 0ade 2E000000 		.4byte	.LBE28-.LBB28
 2534 0ae2 29       		.uleb128 0x29
 2535 0ae3 86020000 		.4byte	.LASF71
 2536 0ae7 05       		.byte	0x5
 2537 0ae8 99       		.byte	0x99
 2538 0ae9 82050000 		.4byte	0x582
 2539 0aed 02       		.uleb128 0x2
 2540 0aee 91       		.byte	0x91
 2541 0aef 74       		.sleb128 -12
 2542 0af0 00       		.byte	0
 2543 0af1 00       		.byte	0
 2544 0af2 2A       		.uleb128 0x2a
 2545 0af3 B4040000 		.4byte	0x4b4
 2546 0af7 05       		.byte	0x5
 2547 0af8 A6       		.byte	0xa6
 2548 0af9 FC020000 		.4byte	.LFB55
 2549 0afd 4C000000 		.4byte	.LFE55-.LFB55
 2550 0b01 01       		.uleb128 0x1
 2551 0b02 9C       		.byte	0x9c
 2552 0b03 0B0B0000 		.4byte	0xb0b
 2553 0b07 3E0B0000 		.4byte	0xb3e
 2554 0b0b 25       		.uleb128 0x25
 2555 0b0c 37040000 		.4byte	.LASF70
 2556 0b10 78060000 		.4byte	0x678
 2557 0b14 02       		.uleb128 0x2
 2558 0b15 91       		.byte	0x91
 2559 0b16 6C       		.sleb128 -20
 2560 0b17 27       		.uleb128 0x27
 2561 0b18 7C020000 		.4byte	.LASF74
 2562 0b1c 05       		.byte	0x5
ARM GAS  /tmp/cc7gAN1M.s 			page 46


 2563 0b1d A6       		.byte	0xa6
 2564 0b1e 88020000 		.4byte	0x288
 2565 0b22 02       		.uleb128 0x2
 2566 0b23 91       		.byte	0x91
 2567 0b24 68       		.sleb128 -24
 2568 0b25 21       		.uleb128 0x21
 2569 0b26 08030000 		.4byte	.LBB30
 2570 0b2a 32000000 		.4byte	.LBE30-.LBB30
 2571 0b2e 29       		.uleb128 0x29
 2572 0b2f 86020000 		.4byte	.LASF71
 2573 0b33 05       		.byte	0x5
 2574 0b34 A9       		.byte	0xa9
 2575 0b35 82050000 		.4byte	0x582
 2576 0b39 02       		.uleb128 0x2
 2577 0b3a 91       		.byte	0x91
 2578 0b3b 74       		.sleb128 -12
 2579 0b3c 00       		.byte	0
 2580 0b3d 00       		.byte	0
 2581 0b3e 2A       		.uleb128 0x2a
 2582 0b3f D7040000 		.4byte	0x4d7
 2583 0b43 05       		.byte	0x5
 2584 0b44 B5       		.byte	0xb5
 2585 0b45 48030000 		.4byte	.LFB56
 2586 0b49 60000000 		.4byte	.LFE56-.LFB56
 2587 0b4d 01       		.uleb128 0x1
 2588 0b4e 9C       		.byte	0x9c
 2589 0b4f 570B0000 		.4byte	0xb57
 2590 0b53 980B0000 		.4byte	0xb98
 2591 0b57 25       		.uleb128 0x25
 2592 0b58 37040000 		.4byte	.LASF70
 2593 0b5c 78060000 		.4byte	0x678
 2594 0b60 02       		.uleb128 0x2
 2595 0b61 91       		.byte	0x91
 2596 0b62 6C       		.sleb128 -20
 2597 0b63 27       		.uleb128 0x27
 2598 0b64 F8020000 		.4byte	.LASF75
 2599 0b68 05       		.byte	0x5
 2600 0b69 B5       		.byte	0xb5
 2601 0b6a 94020000 		.4byte	0x294
 2602 0b6e 02       		.uleb128 0x2
 2603 0b6f 91       		.byte	0x91
 2604 0b70 68       		.sleb128 -24
 2605 0b71 27       		.uleb128 0x27
 2606 0b72 70050000 		.4byte	.LASF76
 2607 0b76 05       		.byte	0x5
 2608 0b77 B6       		.byte	0xb6
 2609 0b78 61050000 		.4byte	0x561
 2610 0b7c 02       		.uleb128 0x2
 2611 0b7d 91       		.byte	0x91
 2612 0b7e 64       		.sleb128 -28
 2613 0b7f 21       		.uleb128 0x21
 2614 0b80 62030000 		.4byte	.LBB32
 2615 0b84 34000000 		.4byte	.LBE32-.LBB32
 2616 0b88 29       		.uleb128 0x29
 2617 0b89 86020000 		.4byte	.LASF71
 2618 0b8d 05       		.byte	0x5
 2619 0b8e BB       		.byte	0xbb
ARM GAS  /tmp/cc7gAN1M.s 			page 47


 2620 0b8f 82050000 		.4byte	0x582
 2621 0b93 02       		.uleb128 0x2
 2622 0b94 91       		.byte	0x91
 2623 0b95 74       		.sleb128 -12
 2624 0b96 00       		.byte	0
 2625 0b97 00       		.byte	0
 2626 0b98 2B       		.uleb128 0x2b
 2627 0b99 FF040000 		.4byte	0x4ff
 2628 0b9d 05       		.byte	0x5
 2629 0b9e C7       		.byte	0xc7
 2630 0b9f 00       		.byte	0
 2631 0ba0 A80B0000 		.4byte	0xba8
 2632 0ba4 B20B0000 		.4byte	0xbb2
 2633 0ba8 1D       		.uleb128 0x1d
 2634 0ba9 37040000 		.4byte	.LASF70
 2635 0bad D5060000 		.4byte	0x6d5
 2636 0bb1 00       		.byte	0
 2637 0bb2 2C       		.uleb128 0x2c
 2638 0bb3 980B0000 		.4byte	0xb98
 2639 0bb7 D1010000 		.4byte	.LASF82
 2640 0bbb A8030000 		.4byte	.LFB58
 2641 0bbf 1C000000 		.4byte	.LFE58-.LFB58
 2642 0bc3 01       		.uleb128 0x1
 2643 0bc4 9C       		.byte	0x9c
 2644 0bc5 C90B0000 		.4byte	0xbc9
 2645 0bc9 1F       		.uleb128 0x1f
 2646 0bca A80B0000 		.4byte	0xba8
 2647 0bce 02       		.uleb128 0x2
 2648 0bcf 91       		.byte	0x91
 2649 0bd0 74       		.sleb128 -12
 2650 0bd1 00       		.byte	0
 2651 0bd2 00       		.byte	0
 2652              		.section	.debug_abbrev,"",%progbits
 2653              	.Ldebug_abbrev0:
 2654 0000 01       		.uleb128 0x1
 2655 0001 11       		.uleb128 0x11
 2656 0002 01       		.byte	0x1
 2657 0003 25       		.uleb128 0x25
 2658 0004 0E       		.uleb128 0xe
 2659 0005 13       		.uleb128 0x13
 2660 0006 0B       		.uleb128 0xb
 2661 0007 03       		.uleb128 0x3
 2662 0008 0E       		.uleb128 0xe
 2663 0009 1B       		.uleb128 0x1b
 2664 000a 0E       		.uleb128 0xe
 2665 000b 55       		.uleb128 0x55
 2666 000c 17       		.uleb128 0x17
 2667 000d 11       		.uleb128 0x11
 2668 000e 01       		.uleb128 0x1
 2669 000f 10       		.uleb128 0x10
 2670 0010 17       		.uleb128 0x17
 2671 0011 00       		.byte	0
 2672 0012 00       		.byte	0
 2673 0013 02       		.uleb128 0x2
 2674 0014 24       		.uleb128 0x24
 2675 0015 00       		.byte	0
 2676 0016 0B       		.uleb128 0xb
ARM GAS  /tmp/cc7gAN1M.s 			page 48


 2677 0017 0B       		.uleb128 0xb
 2678 0018 3E       		.uleb128 0x3e
 2679 0019 0B       		.uleb128 0xb
 2680 001a 03       		.uleb128 0x3
 2681 001b 08       		.uleb128 0x8
 2682 001c 00       		.byte	0
 2683 001d 00       		.byte	0
 2684 001e 03       		.uleb128 0x3
 2685 001f 16       		.uleb128 0x16
 2686 0020 00       		.byte	0
 2687 0021 03       		.uleb128 0x3
 2688 0022 0E       		.uleb128 0xe
 2689 0023 3A       		.uleb128 0x3a
 2690 0024 0B       		.uleb128 0xb
 2691 0025 3B       		.uleb128 0x3b
 2692 0026 0B       		.uleb128 0xb
 2693 0027 49       		.uleb128 0x49
 2694 0028 13       		.uleb128 0x13
 2695 0029 00       		.byte	0
 2696 002a 00       		.byte	0
 2697 002b 04       		.uleb128 0x4
 2698 002c 24       		.uleb128 0x24
 2699 002d 00       		.byte	0
 2700 002e 0B       		.uleb128 0xb
 2701 002f 0B       		.uleb128 0xb
 2702 0030 3E       		.uleb128 0x3e
 2703 0031 0B       		.uleb128 0xb
 2704 0032 03       		.uleb128 0x3
 2705 0033 0E       		.uleb128 0xe
 2706 0034 00       		.byte	0
 2707 0035 00       		.byte	0
 2708 0036 05       		.uleb128 0x5
 2709 0037 0F       		.uleb128 0xf
 2710 0038 00       		.byte	0
 2711 0039 0B       		.uleb128 0xb
 2712 003a 0B       		.uleb128 0xb
 2713 003b 00       		.byte	0
 2714 003c 00       		.byte	0
 2715 003d 06       		.uleb128 0x6
 2716 003e 0F       		.uleb128 0xf
 2717 003f 00       		.byte	0
 2718 0040 0B       		.uleb128 0xb
 2719 0041 0B       		.uleb128 0xb
 2720 0042 49       		.uleb128 0x49
 2721 0043 13       		.uleb128 0x13
 2722 0044 00       		.byte	0
 2723 0045 00       		.byte	0
 2724 0046 07       		.uleb128 0x7
 2725 0047 26       		.uleb128 0x26
 2726 0048 00       		.byte	0
 2727 0049 49       		.uleb128 0x49
 2728 004a 13       		.uleb128 0x13
 2729 004b 00       		.byte	0
 2730 004c 00       		.byte	0
 2731 004d 08       		.uleb128 0x8
 2732 004e 39       		.uleb128 0x39
 2733 004f 01       		.byte	0x1
ARM GAS  /tmp/cc7gAN1M.s 			page 49


 2734 0050 03       		.uleb128 0x3
 2735 0051 08       		.uleb128 0x8
 2736 0052 3A       		.uleb128 0x3a
 2737 0053 0B       		.uleb128 0xb
 2738 0054 3B       		.uleb128 0x3b
 2739 0055 0B       		.uleb128 0xb
 2740 0056 01       		.uleb128 0x1
 2741 0057 13       		.uleb128 0x13
 2742 0058 00       		.byte	0
 2743 0059 00       		.byte	0
 2744 005a 09       		.uleb128 0x9
 2745 005b 08       		.uleb128 0x8
 2746 005c 00       		.byte	0
 2747 005d 3A       		.uleb128 0x3a
 2748 005e 0B       		.uleb128 0xb
 2749 005f 3B       		.uleb128 0x3b
 2750 0060 0B       		.uleb128 0xb
 2751 0061 18       		.uleb128 0x18
 2752 0062 13       		.uleb128 0x13
 2753 0063 00       		.byte	0
 2754 0064 00       		.byte	0
 2755 0065 0A       		.uleb128 0xa
 2756 0066 2E       		.uleb128 0x2e
 2757 0067 01       		.byte	0x1
 2758 0068 3F       		.uleb128 0x3f
 2759 0069 19       		.uleb128 0x19
 2760 006a 03       		.uleb128 0x3
 2761 006b 0E       		.uleb128 0xe
 2762 006c 3A       		.uleb128 0x3a
 2763 006d 0B       		.uleb128 0xb
 2764 006e 3B       		.uleb128 0x3b
 2765 006f 0B       		.uleb128 0xb
 2766 0070 49       		.uleb128 0x49
 2767 0071 13       		.uleb128 0x13
 2768 0072 3C       		.uleb128 0x3c
 2769 0073 19       		.uleb128 0x19
 2770 0074 01       		.uleb128 0x1
 2771 0075 13       		.uleb128 0x13
 2772 0076 00       		.byte	0
 2773 0077 00       		.byte	0
 2774 0078 0B       		.uleb128 0xb
 2775 0079 05       		.uleb128 0x5
 2776 007a 00       		.byte	0
 2777 007b 49       		.uleb128 0x49
 2778 007c 13       		.uleb128 0x13
 2779 007d 00       		.byte	0
 2780 007e 00       		.byte	0
 2781 007f 0C       		.uleb128 0xc
 2782 0080 02       		.uleb128 0x2
 2783 0081 01       		.byte	0x1
 2784 0082 03       		.uleb128 0x3
 2785 0083 0E       		.uleb128 0xe
 2786 0084 0B       		.uleb128 0xb
 2787 0085 0B       		.uleb128 0xb
 2788 0086 3A       		.uleb128 0x3a
 2789 0087 0B       		.uleb128 0xb
 2790 0088 3B       		.uleb128 0x3b
ARM GAS  /tmp/cc7gAN1M.s 			page 50


 2791 0089 0B       		.uleb128 0xb
 2792 008a 01       		.uleb128 0x1
 2793 008b 13       		.uleb128 0x13
 2794 008c 00       		.byte	0
 2795 008d 00       		.byte	0
 2796 008e 0D       		.uleb128 0xd
 2797 008f 2E       		.uleb128 0x2e
 2798 0090 01       		.byte	0x1
 2799 0091 3F       		.uleb128 0x3f
 2800 0092 19       		.uleb128 0x19
 2801 0093 03       		.uleb128 0x3
 2802 0094 0E       		.uleb128 0xe
 2803 0095 3A       		.uleb128 0x3a
 2804 0096 0B       		.uleb128 0xb
 2805 0097 3B       		.uleb128 0x3b
 2806 0098 0B       		.uleb128 0xb
 2807 0099 49       		.uleb128 0x49
 2808 009a 13       		.uleb128 0x13
 2809 009b 3C       		.uleb128 0x3c
 2810 009c 19       		.uleb128 0x19
 2811 009d 64       		.uleb128 0x64
 2812 009e 13       		.uleb128 0x13
 2813 009f 01       		.uleb128 0x1
 2814 00a0 13       		.uleb128 0x13
 2815 00a1 00       		.byte	0
 2816 00a2 00       		.byte	0
 2817 00a3 0E       		.uleb128 0xe
 2818 00a4 05       		.uleb128 0x5
 2819 00a5 00       		.byte	0
 2820 00a6 49       		.uleb128 0x49
 2821 00a7 13       		.uleb128 0x13
 2822 00a8 34       		.uleb128 0x34
 2823 00a9 19       		.uleb128 0x19
 2824 00aa 00       		.byte	0
 2825 00ab 00       		.byte	0
 2826 00ac 0F       		.uleb128 0xf
 2827 00ad 2E       		.uleb128 0x2e
 2828 00ae 01       		.byte	0x1
 2829 00af 3F       		.uleb128 0x3f
 2830 00b0 19       		.uleb128 0x19
 2831 00b1 03       		.uleb128 0x3
 2832 00b2 0E       		.uleb128 0xe
 2833 00b3 3A       		.uleb128 0x3a
 2834 00b4 0B       		.uleb128 0xb
 2835 00b5 3B       		.uleb128 0x3b
 2836 00b6 0B       		.uleb128 0xb
 2837 00b7 49       		.uleb128 0x49
 2838 00b8 13       		.uleb128 0x13
 2839 00b9 32       		.uleb128 0x32
 2840 00ba 0B       		.uleb128 0xb
 2841 00bb 3C       		.uleb128 0x3c
 2842 00bc 19       		.uleb128 0x19
 2843 00bd 64       		.uleb128 0x64
 2844 00be 13       		.uleb128 0x13
 2845 00bf 01       		.uleb128 0x1
 2846 00c0 13       		.uleb128 0x13
 2847 00c1 00       		.byte	0
ARM GAS  /tmp/cc7gAN1M.s 			page 51


 2848 00c2 00       		.byte	0
 2849 00c3 10       		.uleb128 0x10
 2850 00c4 2E       		.uleb128 0x2e
 2851 00c5 01       		.byte	0x1
 2852 00c6 3F       		.uleb128 0x3f
 2853 00c7 19       		.uleb128 0x19
 2854 00c8 03       		.uleb128 0x3
 2855 00c9 0E       		.uleb128 0xe
 2856 00ca 3A       		.uleb128 0x3a
 2857 00cb 0B       		.uleb128 0xb
 2858 00cc 3B       		.uleb128 0x3b
 2859 00cd 0B       		.uleb128 0xb
 2860 00ce 49       		.uleb128 0x49
 2861 00cf 13       		.uleb128 0x13
 2862 00d0 32       		.uleb128 0x32
 2863 00d1 0B       		.uleb128 0xb
 2864 00d2 3C       		.uleb128 0x3c
 2865 00d3 19       		.uleb128 0x19
 2866 00d4 64       		.uleb128 0x64
 2867 00d5 13       		.uleb128 0x13
 2868 00d6 00       		.byte	0
 2869 00d7 00       		.byte	0
 2870 00d8 11       		.uleb128 0x11
 2871 00d9 1C       		.uleb128 0x1c
 2872 00da 00       		.byte	0
 2873 00db 49       		.uleb128 0x49
 2874 00dc 13       		.uleb128 0x13
 2875 00dd 38       		.uleb128 0x38
 2876 00de 0B       		.uleb128 0xb
 2877 00df 00       		.byte	0
 2878 00e0 00       		.byte	0
 2879 00e1 12       		.uleb128 0x12
 2880 00e2 2E       		.uleb128 0x2e
 2881 00e3 00       		.byte	0
 2882 00e4 3F       		.uleb128 0x3f
 2883 00e5 19       		.uleb128 0x19
 2884 00e6 03       		.uleb128 0x3
 2885 00e7 0E       		.uleb128 0xe
 2886 00e8 3A       		.uleb128 0x3a
 2887 00e9 0B       		.uleb128 0xb
 2888 00ea 3B       		.uleb128 0x3b
 2889 00eb 0B       		.uleb128 0xb
 2890 00ec 6E       		.uleb128 0x6e
 2891 00ed 0E       		.uleb128 0xe
 2892 00ee 32       		.uleb128 0x32
 2893 00ef 0B       		.uleb128 0xb
 2894 00f0 3C       		.uleb128 0x3c
 2895 00f1 19       		.uleb128 0x19
 2896 00f2 00       		.byte	0
 2897 00f3 00       		.byte	0
 2898 00f4 13       		.uleb128 0x13
 2899 00f5 13       		.uleb128 0x13
 2900 00f6 01       		.byte	0x1
 2901 00f7 03       		.uleb128 0x3
 2902 00f8 0E       		.uleb128 0xe
 2903 00f9 0B       		.uleb128 0xb
 2904 00fa 0B       		.uleb128 0xb
ARM GAS  /tmp/cc7gAN1M.s 			page 52


 2905 00fb 3A       		.uleb128 0x3a
 2906 00fc 0B       		.uleb128 0xb
 2907 00fd 3B       		.uleb128 0x3b
 2908 00fe 0B       		.uleb128 0xb
 2909 00ff 32       		.uleb128 0x32
 2910 0100 0B       		.uleb128 0xb
 2911 0101 01       		.uleb128 0x1
 2912 0102 13       		.uleb128 0x13
 2913 0103 00       		.byte	0
 2914 0104 00       		.byte	0
 2915 0105 14       		.uleb128 0x14
 2916 0106 0D       		.uleb128 0xd
 2917 0107 00       		.byte	0
 2918 0108 03       		.uleb128 0x3
 2919 0109 0E       		.uleb128 0xe
 2920 010a 3A       		.uleb128 0x3a
 2921 010b 0B       		.uleb128 0xb
 2922 010c 3B       		.uleb128 0x3b
 2923 010d 0B       		.uleb128 0xb
 2924 010e 49       		.uleb128 0x49
 2925 010f 13       		.uleb128 0x13
 2926 0110 38       		.uleb128 0x38
 2927 0111 0B       		.uleb128 0xb
 2928 0112 00       		.byte	0
 2929 0113 00       		.byte	0
 2930 0114 15       		.uleb128 0x15
 2931 0115 2E       		.uleb128 0x2e
 2932 0116 01       		.byte	0x1
 2933 0117 3F       		.uleb128 0x3f
 2934 0118 19       		.uleb128 0x19
 2935 0119 03       		.uleb128 0x3
 2936 011a 0E       		.uleb128 0xe
 2937 011b 3A       		.uleb128 0x3a
 2938 011c 0B       		.uleb128 0xb
 2939 011d 3B       		.uleb128 0x3b
 2940 011e 0B       		.uleb128 0xb
 2941 011f 49       		.uleb128 0x49
 2942 0120 13       		.uleb128 0x13
 2943 0121 3C       		.uleb128 0x3c
 2944 0122 19       		.uleb128 0x19
 2945 0123 64       		.uleb128 0x64
 2946 0124 13       		.uleb128 0x13
 2947 0125 00       		.byte	0
 2948 0126 00       		.byte	0
 2949 0127 16       		.uleb128 0x16
 2950 0128 16       		.uleb128 0x16
 2951 0129 00       		.byte	0
 2952 012a 03       		.uleb128 0x3
 2953 012b 0E       		.uleb128 0xe
 2954 012c 3A       		.uleb128 0x3a
 2955 012d 0B       		.uleb128 0xb
 2956 012e 3B       		.uleb128 0x3b
 2957 012f 0B       		.uleb128 0xb
 2958 0130 49       		.uleb128 0x49
 2959 0131 13       		.uleb128 0x13
 2960 0132 32       		.uleb128 0x32
 2961 0133 0B       		.uleb128 0xb
ARM GAS  /tmp/cc7gAN1M.s 			page 53


 2962 0134 00       		.byte	0
 2963 0135 00       		.byte	0
 2964 0136 17       		.uleb128 0x17
 2965 0137 2E       		.uleb128 0x2e
 2966 0138 01       		.byte	0x1
 2967 0139 3F       		.uleb128 0x3f
 2968 013a 19       		.uleb128 0x19
 2969 013b 03       		.uleb128 0x3
 2970 013c 0E       		.uleb128 0xe
 2971 013d 3A       		.uleb128 0x3a
 2972 013e 0B       		.uleb128 0xb
 2973 013f 3B       		.uleb128 0x3b
 2974 0140 0B       		.uleb128 0xb
 2975 0141 6E       		.uleb128 0x6e
 2976 0142 0E       		.uleb128 0xe
 2977 0143 49       		.uleb128 0x49
 2978 0144 13       		.uleb128 0x13
 2979 0145 32       		.uleb128 0x32
 2980 0146 0B       		.uleb128 0xb
 2981 0147 3C       		.uleb128 0x3c
 2982 0148 19       		.uleb128 0x19
 2983 0149 64       		.uleb128 0x64
 2984 014a 13       		.uleb128 0x13
 2985 014b 01       		.uleb128 0x1
 2986 014c 13       		.uleb128 0x13
 2987 014d 00       		.byte	0
 2988 014e 00       		.byte	0
 2989 014f 18       		.uleb128 0x18
 2990 0150 2E       		.uleb128 0x2e
 2991 0151 01       		.byte	0x1
 2992 0152 3F       		.uleb128 0x3f
 2993 0153 19       		.uleb128 0x19
 2994 0154 03       		.uleb128 0x3
 2995 0155 0E       		.uleb128 0xe
 2996 0156 3A       		.uleb128 0x3a
 2997 0157 0B       		.uleb128 0xb
 2998 0158 3B       		.uleb128 0x3b
 2999 0159 0B       		.uleb128 0xb
 3000 015a 6E       		.uleb128 0x6e
 3001 015b 0E       		.uleb128 0xe
 3002 015c 32       		.uleb128 0x32
 3003 015d 0B       		.uleb128 0xb
 3004 015e 3C       		.uleb128 0x3c
 3005 015f 19       		.uleb128 0x19
 3006 0160 64       		.uleb128 0x64
 3007 0161 13       		.uleb128 0x13
 3008 0162 01       		.uleb128 0x1
 3009 0163 13       		.uleb128 0x13
 3010 0164 00       		.byte	0
 3011 0165 00       		.byte	0
 3012 0166 19       		.uleb128 0x19
 3013 0167 10       		.uleb128 0x10
 3014 0168 00       		.byte	0
 3015 0169 0B       		.uleb128 0xb
 3016 016a 0B       		.uleb128 0xb
 3017 016b 49       		.uleb128 0x49
 3018 016c 13       		.uleb128 0x13
ARM GAS  /tmp/cc7gAN1M.s 			page 54


 3019 016d 00       		.byte	0
 3020 016e 00       		.byte	0
 3021 016f 1A       		.uleb128 0x1a
 3022 0170 15       		.uleb128 0x15
 3023 0171 01       		.byte	0x1
 3024 0172 49       		.uleb128 0x49
 3025 0173 13       		.uleb128 0x13
 3026 0174 01       		.uleb128 0x1
 3027 0175 13       		.uleb128 0x13
 3028 0176 00       		.byte	0
 3029 0177 00       		.byte	0
 3030 0178 1B       		.uleb128 0x1b
 3031 0179 26       		.uleb128 0x26
 3032 017a 00       		.byte	0
 3033 017b 00       		.byte	0
 3034 017c 00       		.byte	0
 3035 017d 1C       		.uleb128 0x1c
 3036 017e 2E       		.uleb128 0x2e
 3037 017f 01       		.byte	0x1
 3038 0180 47       		.uleb128 0x47
 3039 0181 13       		.uleb128 0x13
 3040 0182 20       		.uleb128 0x20
 3041 0183 0B       		.uleb128 0xb
 3042 0184 64       		.uleb128 0x64
 3043 0185 13       		.uleb128 0x13
 3044 0186 01       		.uleb128 0x1
 3045 0187 13       		.uleb128 0x13
 3046 0188 00       		.byte	0
 3047 0189 00       		.byte	0
 3048 018a 1D       		.uleb128 0x1d
 3049 018b 05       		.uleb128 0x5
 3050 018c 00       		.byte	0
 3051 018d 03       		.uleb128 0x3
 3052 018e 0E       		.uleb128 0xe
 3053 018f 49       		.uleb128 0x49
 3054 0190 13       		.uleb128 0x13
 3055 0191 34       		.uleb128 0x34
 3056 0192 19       		.uleb128 0x19
 3057 0193 00       		.byte	0
 3058 0194 00       		.byte	0
 3059 0195 1E       		.uleb128 0x1e
 3060 0196 2E       		.uleb128 0x2e
 3061 0197 01       		.byte	0x1
 3062 0198 31       		.uleb128 0x31
 3063 0199 13       		.uleb128 0x13
 3064 019a 6E       		.uleb128 0x6e
 3065 019b 0E       		.uleb128 0xe
 3066 019c 11       		.uleb128 0x11
 3067 019d 01       		.uleb128 0x1
 3068 019e 12       		.uleb128 0x12
 3069 019f 06       		.uleb128 0x6
 3070 01a0 40       		.uleb128 0x40
 3071 01a1 18       		.uleb128 0x18
 3072 01a2 64       		.uleb128 0x64
 3073 01a3 13       		.uleb128 0x13
 3074 01a4 9742     		.uleb128 0x2117
 3075 01a6 19       		.uleb128 0x19
ARM GAS  /tmp/cc7gAN1M.s 			page 55


 3076 01a7 01       		.uleb128 0x1
 3077 01a8 13       		.uleb128 0x13
 3078 01a9 00       		.byte	0
 3079 01aa 00       		.byte	0
 3080 01ab 1F       		.uleb128 0x1f
 3081 01ac 05       		.uleb128 0x5
 3082 01ad 00       		.byte	0
 3083 01ae 31       		.uleb128 0x31
 3084 01af 13       		.uleb128 0x13
 3085 01b0 02       		.uleb128 0x2
 3086 01b1 18       		.uleb128 0x18
 3087 01b2 00       		.byte	0
 3088 01b3 00       		.byte	0
 3089 01b4 20       		.uleb128 0x20
 3090 01b5 2E       		.uleb128 0x2e
 3091 01b6 01       		.byte	0x1
 3092 01b7 47       		.uleb128 0x47
 3093 01b8 13       		.uleb128 0x13
 3094 01b9 3B       		.uleb128 0x3b
 3095 01ba 0B       		.uleb128 0xb
 3096 01bb 11       		.uleb128 0x11
 3097 01bc 01       		.uleb128 0x1
 3098 01bd 12       		.uleb128 0x12
 3099 01be 06       		.uleb128 0x6
 3100 01bf 40       		.uleb128 0x40
 3101 01c0 18       		.uleb128 0x18
 3102 01c1 9642     		.uleb128 0x2116
 3103 01c3 19       		.uleb128 0x19
 3104 01c4 01       		.uleb128 0x1
 3105 01c5 13       		.uleb128 0x13
 3106 01c6 00       		.byte	0
 3107 01c7 00       		.byte	0
 3108 01c8 21       		.uleb128 0x21
 3109 01c9 0B       		.uleb128 0xb
 3110 01ca 01       		.byte	0x1
 3111 01cb 11       		.uleb128 0x11
 3112 01cc 01       		.uleb128 0x1
 3113 01cd 12       		.uleb128 0x12
 3114 01ce 06       		.uleb128 0x6
 3115 01cf 00       		.byte	0
 3116 01d0 00       		.byte	0
 3117 01d1 22       		.uleb128 0x22
 3118 01d2 34       		.uleb128 0x34
 3119 01d3 00       		.byte	0
 3120 01d4 03       		.uleb128 0x3
 3121 01d5 08       		.uleb128 0x8
 3122 01d6 3A       		.uleb128 0x3a
 3123 01d7 0B       		.uleb128 0xb
 3124 01d8 3B       		.uleb128 0x3b
 3125 01d9 0B       		.uleb128 0xb
 3126 01da 49       		.uleb128 0x49
 3127 01db 13       		.uleb128 0x13
 3128 01dc 02       		.uleb128 0x2
 3129 01dd 18       		.uleb128 0x18
 3130 01de 00       		.byte	0
 3131 01df 00       		.byte	0
 3132 01e0 23       		.uleb128 0x23
ARM GAS  /tmp/cc7gAN1M.s 			page 56


 3133 01e1 2E       		.uleb128 0x2e
 3134 01e2 00       		.byte	0
 3135 01e3 47       		.uleb128 0x47
 3136 01e4 13       		.uleb128 0x13
 3137 01e5 3B       		.uleb128 0x3b
 3138 01e6 0B       		.uleb128 0xb
 3139 01e7 11       		.uleb128 0x11
 3140 01e8 01       		.uleb128 0x1
 3141 01e9 12       		.uleb128 0x12
 3142 01ea 06       		.uleb128 0x6
 3143 01eb 40       		.uleb128 0x40
 3144 01ec 18       		.uleb128 0x18
 3145 01ed 9642     		.uleb128 0x2116
 3146 01ef 19       		.uleb128 0x19
 3147 01f0 00       		.byte	0
 3148 01f1 00       		.byte	0
 3149 01f2 24       		.uleb128 0x24
 3150 01f3 2E       		.uleb128 0x2e
 3151 01f4 01       		.byte	0x1
 3152 01f5 47       		.uleb128 0x47
 3153 01f6 13       		.uleb128 0x13
 3154 01f7 3B       		.uleb128 0x3b
 3155 01f8 0B       		.uleb128 0xb
 3156 01f9 11       		.uleb128 0x11
 3157 01fa 01       		.uleb128 0x1
 3158 01fb 12       		.uleb128 0x12
 3159 01fc 06       		.uleb128 0x6
 3160 01fd 40       		.uleb128 0x40
 3161 01fe 18       		.uleb128 0x18
 3162 01ff 64       		.uleb128 0x64
 3163 0200 13       		.uleb128 0x13
 3164 0201 9742     		.uleb128 0x2117
 3165 0203 19       		.uleb128 0x19
 3166 0204 01       		.uleb128 0x1
 3167 0205 13       		.uleb128 0x13
 3168 0206 00       		.byte	0
 3169 0207 00       		.byte	0
 3170 0208 25       		.uleb128 0x25
 3171 0209 05       		.uleb128 0x5
 3172 020a 00       		.byte	0
 3173 020b 03       		.uleb128 0x3
 3174 020c 0E       		.uleb128 0xe
 3175 020d 49       		.uleb128 0x49
 3176 020e 13       		.uleb128 0x13
 3177 020f 34       		.uleb128 0x34
 3178 0210 19       		.uleb128 0x19
 3179 0211 02       		.uleb128 0x2
 3180 0212 18       		.uleb128 0x18
 3181 0213 00       		.byte	0
 3182 0214 00       		.byte	0
 3183 0215 26       		.uleb128 0x26
 3184 0216 2E       		.uleb128 0x2e
 3185 0217 01       		.byte	0x1
 3186 0218 47       		.uleb128 0x47
 3187 0219 13       		.uleb128 0x13
 3188 021a 3B       		.uleb128 0x3b
 3189 021b 0B       		.uleb128 0xb
ARM GAS  /tmp/cc7gAN1M.s 			page 57


 3190 021c 11       		.uleb128 0x11
 3191 021d 01       		.uleb128 0x1
 3192 021e 12       		.uleb128 0x12
 3193 021f 06       		.uleb128 0x6
 3194 0220 40       		.uleb128 0x40
 3195 0221 18       		.uleb128 0x18
 3196 0222 64       		.uleb128 0x64
 3197 0223 13       		.uleb128 0x13
 3198 0224 9642     		.uleb128 0x2116
 3199 0226 19       		.uleb128 0x19
 3200 0227 01       		.uleb128 0x1
 3201 0228 13       		.uleb128 0x13
 3202 0229 00       		.byte	0
 3203 022a 00       		.byte	0
 3204 022b 27       		.uleb128 0x27
 3205 022c 05       		.uleb128 0x5
 3206 022d 00       		.byte	0
 3207 022e 03       		.uleb128 0x3
 3208 022f 0E       		.uleb128 0xe
 3209 0230 3A       		.uleb128 0x3a
 3210 0231 0B       		.uleb128 0xb
 3211 0232 3B       		.uleb128 0x3b
 3212 0233 0B       		.uleb128 0xb
 3213 0234 49       		.uleb128 0x49
 3214 0235 13       		.uleb128 0x13
 3215 0236 02       		.uleb128 0x2
 3216 0237 18       		.uleb128 0x18
 3217 0238 00       		.byte	0
 3218 0239 00       		.byte	0
 3219 023a 28       		.uleb128 0x28
 3220 023b 2E       		.uleb128 0x2e
 3221 023c 01       		.byte	0x1
 3222 023d 47       		.uleb128 0x47
 3223 023e 13       		.uleb128 0x13
 3224 023f 3A       		.uleb128 0x3a
 3225 0240 0B       		.uleb128 0xb
 3226 0241 3B       		.uleb128 0x3b
 3227 0242 0B       		.uleb128 0xb
 3228 0243 11       		.uleb128 0x11
 3229 0244 01       		.uleb128 0x1
 3230 0245 12       		.uleb128 0x12
 3231 0246 06       		.uleb128 0x6
 3232 0247 40       		.uleb128 0x40
 3233 0248 18       		.uleb128 0x18
 3234 0249 64       		.uleb128 0x64
 3235 024a 13       		.uleb128 0x13
 3236 024b 9742     		.uleb128 0x2117
 3237 024d 19       		.uleb128 0x19
 3238 024e 01       		.uleb128 0x1
 3239 024f 13       		.uleb128 0x13
 3240 0250 00       		.byte	0
 3241 0251 00       		.byte	0
 3242 0252 29       		.uleb128 0x29
 3243 0253 34       		.uleb128 0x34
 3244 0254 00       		.byte	0
 3245 0255 03       		.uleb128 0x3
 3246 0256 0E       		.uleb128 0xe
ARM GAS  /tmp/cc7gAN1M.s 			page 58


 3247 0257 3A       		.uleb128 0x3a
 3248 0258 0B       		.uleb128 0xb
 3249 0259 3B       		.uleb128 0x3b
 3250 025a 0B       		.uleb128 0xb
 3251 025b 49       		.uleb128 0x49
 3252 025c 13       		.uleb128 0x13
 3253 025d 02       		.uleb128 0x2
 3254 025e 18       		.uleb128 0x18
 3255 025f 00       		.byte	0
 3256 0260 00       		.byte	0
 3257 0261 2A       		.uleb128 0x2a
 3258 0262 2E       		.uleb128 0x2e
 3259 0263 01       		.byte	0x1
 3260 0264 47       		.uleb128 0x47
 3261 0265 13       		.uleb128 0x13
 3262 0266 3A       		.uleb128 0x3a
 3263 0267 0B       		.uleb128 0xb
 3264 0268 3B       		.uleb128 0x3b
 3265 0269 0B       		.uleb128 0xb
 3266 026a 11       		.uleb128 0x11
 3267 026b 01       		.uleb128 0x1
 3268 026c 12       		.uleb128 0x12
 3269 026d 06       		.uleb128 0x6
 3270 026e 40       		.uleb128 0x40
 3271 026f 18       		.uleb128 0x18
 3272 0270 64       		.uleb128 0x64
 3273 0271 13       		.uleb128 0x13
 3274 0272 9642     		.uleb128 0x2116
 3275 0274 19       		.uleb128 0x19
 3276 0275 01       		.uleb128 0x1
 3277 0276 13       		.uleb128 0x13
 3278 0277 00       		.byte	0
 3279 0278 00       		.byte	0
 3280 0279 2B       		.uleb128 0x2b
 3281 027a 2E       		.uleb128 0x2e
 3282 027b 01       		.byte	0x1
 3283 027c 47       		.uleb128 0x47
 3284 027d 13       		.uleb128 0x13
 3285 027e 3A       		.uleb128 0x3a
 3286 027f 0B       		.uleb128 0xb
 3287 0280 3B       		.uleb128 0x3b
 3288 0281 0B       		.uleb128 0xb
 3289 0282 20       		.uleb128 0x20
 3290 0283 0B       		.uleb128 0xb
 3291 0284 64       		.uleb128 0x64
 3292 0285 13       		.uleb128 0x13
 3293 0286 01       		.uleb128 0x1
 3294 0287 13       		.uleb128 0x13
 3295 0288 00       		.byte	0
 3296 0289 00       		.byte	0
 3297 028a 2C       		.uleb128 0x2c
 3298 028b 2E       		.uleb128 0x2e
 3299 028c 01       		.byte	0x1
 3300 028d 31       		.uleb128 0x31
 3301 028e 13       		.uleb128 0x13
 3302 028f 6E       		.uleb128 0x6e
 3303 0290 0E       		.uleb128 0xe
ARM GAS  /tmp/cc7gAN1M.s 			page 59


 3304 0291 11       		.uleb128 0x11
 3305 0292 01       		.uleb128 0x1
 3306 0293 12       		.uleb128 0x12
 3307 0294 06       		.uleb128 0x6
 3308 0295 40       		.uleb128 0x40
 3309 0296 18       		.uleb128 0x18
 3310 0297 64       		.uleb128 0x64
 3311 0298 13       		.uleb128 0x13
 3312 0299 9642     		.uleb128 0x2116
 3313 029b 19       		.uleb128 0x19
 3314 029c 00       		.byte	0
 3315 029d 00       		.byte	0
 3316 029e 00       		.byte	0
 3317              		.section	.debug_aranges,"",%progbits
 3318 0000 5C000000 		.4byte	0x5c
 3319 0004 0200     		.2byte	0x2
 3320 0006 00000000 		.4byte	.Ldebug_info0
 3321 000a 04       		.byte	0x4
 3322 000b 00       		.byte	0
 3323 000c 0000     		.2byte	0
 3324 000e 0000     		.2byte	0
 3325 0010 00000000 		.4byte	.Ltext0
 3326 0014 C4030000 		.4byte	.Letext0-.Ltext0
 3327 0018 00000000 		.4byte	.LFB6
 3328 001c 0C000000 		.4byte	.LFE6-.LFB6
 3329 0020 00000000 		.4byte	.LFB18
 3330 0024 0E000000 		.4byte	.LFE18-.LFB18
 3331 0028 00000000 		.4byte	.LFB19
 3332 002c 0E000000 		.4byte	.LFE19-.LFB19
 3333 0030 00000000 		.4byte	.LFB26
 3334 0034 08000000 		.4byte	.LFE26-.LFB26
 3335 0038 00000000 		.4byte	.LFB27
 3336 003c 08000000 		.4byte	.LFE27-.LFB27
 3337 0040 00000000 		.4byte	.LFB39
 3338 0044 0E000000 		.4byte	.LFE39-.LFB39
 3339 0048 00000000 		.4byte	.LFB40
 3340 004c 18000000 		.4byte	.LFE40-.LFB40
 3341 0050 00000000 		.4byte	.LFB41
 3342 0054 48000000 		.4byte	.LFE41-.LFB41
 3343 0058 00000000 		.4byte	0
 3344 005c 00000000 		.4byte	0
 3345              		.section	.debug_ranges,"",%progbits
 3346              	.Ldebug_ranges0:
 3347 0000 00000000 		.4byte	.Ltext0
 3348 0004 C4030000 		.4byte	.Letext0
 3349 0008 00000000 		.4byte	.LFB6
 3350 000c 0C000000 		.4byte	.LFE6
 3351 0010 00000000 		.4byte	.LFB18
 3352 0014 0E000000 		.4byte	.LFE18
 3353 0018 00000000 		.4byte	.LFB19
 3354 001c 0E000000 		.4byte	.LFE19
 3355 0020 00000000 		.4byte	.LFB26
 3356 0024 08000000 		.4byte	.LFE26
 3357 0028 00000000 		.4byte	.LFB27
 3358 002c 08000000 		.4byte	.LFE27
 3359 0030 00000000 		.4byte	.LFB39
 3360 0034 0E000000 		.4byte	.LFE39
ARM GAS  /tmp/cc7gAN1M.s 			page 60


 3361 0038 00000000 		.4byte	.LFB40
 3362 003c 18000000 		.4byte	.LFE40
 3363 0040 00000000 		.4byte	.LFB41
 3364 0044 48000000 		.4byte	.LFE41
 3365 0048 00000000 		.4byte	0
 3366 004c 00000000 		.4byte	0
 3367              		.section	.debug_line,"",%progbits
 3368              	.Ldebug_line0:
 3369 0000 91040000 		.section	.debug_str,"MS",%progbits,1
 3369      02008B02 
 3369      00000201 
 3369      FB0E0D00 
 3369      01010101 
 3370              	.LASF30:
 3371 0000 4C696E6B 		.ascii	"Link\000"
 3371      00
 3372              	.LASF18:
 3373 0005 7E556E63 		.ascii	"~Uncopyable\000"
 3373      6F707961 
 3373      626C6500 
 3374              	.LASF39:
 3375 0011 5F5A4E4B 		.ascii	"_ZNK3r2p11StaticList_12count_unsafeEv\000"
 3375      33723270 
 3375      31315374 
 3375      61746963 
 3375      4C697374 
 3376              	.LASF47:
 3377 0037 66696E64 		.ascii	"find_first_unsafe\000"
 3377      5F666972 
 3377      73745F75 
 3377      6E736166 
 3377      6500
 3378              	.LASF49:
 3379 0049 5F5A4E4B 		.ascii	"_ZNK3r2p11StaticList_17find_first_unsafeEPFbPKvS2_E"
 3379      33723270 
 3379      31315374 
 3379      61746963 
 3379      4C697374 
 3380 007c 53325F00 		.ascii	"S2_\000"
 3381              	.LASF6:
 3382 0080 73697A65 		.ascii	"size_t\000"
 3382      5F7400
 3383              	.LASF11:
 3384 0087 73697A65 		.ascii	"sizetype\000"
 3384      74797065 
 3384      00
 3385              	.LASF73:
 3386 0090 70726576 		.ascii	"prevp\000"
 3386      7000
 3387              	.LASF64:
 3388 0096 5F5A4E4B 		.ascii	"_ZNK3r2p11StaticList_8containsEPKv\000"
 3388      33723270 
 3388      31315374 
 3388      61746963 
 3388      4C697374 
 3389              	.LASF80:
 3390 00b9 2F686F6D 		.ascii	"/home/tino/workspace/openrobots/Middleware_v2-new/\000"
ARM GAS  /tmp/cc7gAN1M.s 			page 61


 3390      652F7469 
 3390      6E6F2F77 
 3390      6F726B73 
 3390      70616365 
 3391              	.LASF63:
 3392 00ec 636F6E74 		.ascii	"contains\000"
 3392      61696E73 
 3392      00
 3393              	.LASF3:
 3394 00f5 73686F72 		.ascii	"short int\000"
 3394      7420696E 
 3394      7400
 3395              	.LASF78:
 3396 00ff 474E5520 		.ascii	"GNU C++ 4.9.3 20141119 (release) [ARM/embedded-4_9-"
 3396      432B2B20 
 3396      342E392E 
 3396      33203230 
 3396      31343131 
 3397 0132 6272616E 		.ascii	"branch revision 218278] -mcpu=cortex-m4 -mno-thumb-"
 3397      63682072 
 3397      65766973 
 3397      696F6E20 
 3397      32313832 
 3398 0165 696E7465 		.ascii	"interwork -mthumb -ggdb -O0 -fomit-frame-pointer -f"
 3398      72776F72 
 3398      6B202D6D 
 3398      7468756D 
 3398      62202D67 
 3399 0198 6E6F2D72 		.ascii	"no-rtti -fno-exceptions -fno-threadsafe-statics\000"
 3399      74746920 
 3399      2D666E6F 
 3399      2D657863 
 3399      65707469 
 3400              	.LASF14:
 3401 01c8 73747265 		.ascii	"strerror\000"
 3401      72726F72 
 3401      00
 3402              	.LASF82:
 3403 01d1 5F5A4E33 		.ascii	"_ZN3r2p11StaticList_C2Ev\000"
 3403      72327031 
 3403      31537461 
 3403      7469634C 
 3403      6973745F 
 3404              	.LASF59:
 3405 01ea 756E6C69 		.ascii	"unlink\000"
 3405      6E6B00
 3406              	.LASF33:
 3407 01f1 4D617463 		.ascii	"Matches\000"
 3407      68657300 
 3408              	.LASF24:
 3409 01f9 5379734C 		.ascii	"SysLock\000"
 3409      6F636B00 
 3410              	.LASF27:
 3411 0201 53746174 		.ascii	"StaticList_\000"
 3411      69634C69 
 3411      73745F00 
 3412              	.LASF17:
ARM GAS  /tmp/cc7gAN1M.s 			page 62


 3413 020d 556E636F 		.ascii	"Uncopyable\000"
 3413      70796162 
 3413      6C6500
 3414              	.LASF69:
 3415 0218 626F6F6C 		.ascii	"bool\000"
 3415      00
 3416              	.LASF26:
 3417 021d 5F5A4E33 		.ascii	"_ZN3r2p7SysLock7releaseEv\000"
 3417      72327037 
 3417      5379734C 
 3417      6F636B37 
 3417      72656C65 
 3418              	.LASF61:
 3419 0237 696E6465 		.ascii	"index_of\000"
 3419      785F6F66 
 3419      00
 3420              	.LASF72:
 3421 0240 63757270 		.ascii	"curp\000"
 3421      00
 3422              	.LASF28:
 3423 0245 6E657874 		.ascii	"nextp\000"
 3423      7000
 3424              	.LASF51:
 3425 024b 5F5A4E4B 		.ascii	"_ZNK3r2p11StaticList_8get_headEv\000"
 3425      33723270 
 3425      31315374 
 3425      61746963 
 3425      4C697374 
 3426              	.LASF5:
 3427 026c 6C6F6E67 		.ascii	"long int\000"
 3427      20696E74 
 3427      00
 3428              	.LASF15:
 3429 0275 73747274 		.ascii	"strtok\000"
 3429      6F6B00
 3430              	.LASF74:
 3431 027c 70726564 		.ascii	"pred_func\000"
 3431      5F66756E 
 3431      6300
 3432              	.LASF71:
 3433 0286 6C696E6B 		.ascii	"linkp\000"
 3433      7000
 3434              	.LASF81:
 3435 028c 5F5A4E33 		.ascii	"_ZN3r2p10UncopyableC2Ev\000"
 3435      72327031 
 3435      30556E63 
 3435      6F707961 
 3435      626C6543 
 3436              	.LASF36:
 3437 02a4 5F5A4E4B 		.ascii	"_ZNK3r2p11StaticList_15get_head_unsafeEv\000"
 3437      33723270 
 3437      31315374 
 3437      61746963 
 3437      4C697374 
 3438              	.LASF34:
 3439 02cd 6765745F 		.ascii	"get_head_unsafe\000"
 3439      68656164 
ARM GAS  /tmp/cc7gAN1M.s 			page 63


 3439      5F756E73 
 3439      61666500 
 3440              	.LASF56:
 3441 02dd 6C696E6B 		.ascii	"link\000"
 3441      00
 3442              	.LASF21:
 3443 02e2 72656C65 		.ascii	"release\000"
 3443      61736500 
 3444              	.LASF2:
 3445 02ea 756E7369 		.ascii	"unsigned char\000"
 3445      676E6564 
 3445      20636861 
 3445      7200
 3446              	.LASF75:
 3447 02f8 6D617463 		.ascii	"match_func\000"
 3447      685F6675 
 3447      6E6300
 3448              	.LASF1:
 3449 0303 7369676E 		.ascii	"signed char\000"
 3449      65642063 
 3449      68617200 
 3450              	.LASF10:
 3451 030f 6C6F6E67 		.ascii	"long long unsigned int\000"
 3451      206C6F6E 
 3451      6720756E 
 3451      7369676E 
 3451      65642069 
 3452              	.LASF68:
 3453 0326 75696E74 		.ascii	"uint32_t\000"
 3453      33325F74 
 3453      00
 3454              	.LASF0:
 3455 032f 756E7369 		.ascii	"unsigned int\000"
 3455      676E6564 
 3455      20696E74 
 3455      00
 3456              	.LASF25:
 3457 033c 5F5A4E33 		.ascii	"_ZN3r2p7SysLock7acquireEv\000"
 3457      72327037 
 3457      5379734C 
 3457      6F636B37 
 3457      61637175 
 3458              	.LASF79:
 3459 0356 2F6F7074 		.ascii	"/opt/R2P/core/Middleware/src/impl/StaticList_.cpp\000"
 3459      2F523250 
 3459      2F636F72 
 3459      652F4D69 
 3459      64646C65 
 3460              	.LASF8:
 3461 0388 6C6F6E67 		.ascii	"long unsigned int\000"
 3461      20756E73 
 3461      69676E65 
 3461      6420696E 
 3461      7400
 3462              	.LASF48:
 3463 039a 5F5A4E4B 		.ascii	"_ZNK3r2p11StaticList_17find_first_unsafeEPFbPKvE\000"
 3463      33723270 
ARM GAS  /tmp/cc7gAN1M.s 			page 64


 3463      31315374 
 3463      61746963 
 3463      4C697374 
 3464              	.LASF20:
 3465 03cb 61637175 		.ascii	"acquire\000"
 3465      69726500 
 3466              	.LASF23:
 3467 03d3 5F5A4E33 		.ascii	"_ZN3r2p8SysLock_7releaseEv\000"
 3467      72327038 
 3467      5379734C 
 3467      6F636B5F 
 3467      3772656C 
 3468              	.LASF41:
 3469 03ee 756E6C69 		.ascii	"unlink_unsafe\000"
 3469      6E6B5F75 
 3469      6E736166 
 3469      6500
 3470              	.LASF31:
 3471 03fc 68656164 		.ascii	"headp\000"
 3471      7000
 3472              	.LASF4:
 3473 0402 73686F72 		.ascii	"short unsigned int\000"
 3473      7420756E 
 3473      7369676E 
 3473      65642069 
 3473      6E7400
 3474              	.LASF40:
 3475 0415 6C696E6B 		.ascii	"link_unsafe\000"
 3475      5F756E73 
 3475      61666500 
 3476              	.LASF12:
 3477 0421 63686172 		.ascii	"char\000"
 3477      00
 3478              	.LASF52:
 3479 0426 69735F65 		.ascii	"is_empty\000"
 3479      6D707479 
 3479      00
 3480              	.LASF13:
 3481 042f 73747263 		.ascii	"strcoll\000"
 3481      6F6C6C00 
 3482              	.LASF70:
 3483 0437 74686973 		.ascii	"this\000"
 3483      00
 3484              	.LASF50:
 3485 043c 6765745F 		.ascii	"get_head\000"
 3485      68656164 
 3485      00
 3486              	.LASF16:
 3487 0445 73747278 		.ascii	"strxfrm\000"
 3487      66726D00 
 3488              	.LASF66:
 3489 044d 5F5A4E4B 		.ascii	"_ZNK3r2p11StaticList_10find_firstEPFbPKvE\000"
 3489      33723270 
 3489      31315374 
 3489      61746963 
 3489      4C697374 
 3490              	.LASF29:
ARM GAS  /tmp/cc7gAN1M.s 			page 65


 3491 0477 6974656D 		.ascii	"itemp\000"
 3491      7000
 3492              	.LASF46:
 3493 047d 5F5A4E4B 		.ascii	"_ZNK3r2p11StaticList_15contains_unsafeEPKv\000"
 3493      33723270 
 3493      31315374 
 3493      61746963 
 3493      4C697374 
 3494              	.LASF38:
 3495 04a8 636F756E 		.ascii	"count_unsafe\000"
 3495      745F756E 
 3495      73616665 
 3495      00
 3496              	.LASF60:
 3497 04b5 5F5A4E33 		.ascii	"_ZN3r2p11StaticList_6unlinkERNS0_4LinkE\000"
 3497      72327031 
 3497      31537461 
 3497      7469634C 
 3497      6973745F 
 3498              	.LASF7:
 3499 04dd 5F5F7569 		.ascii	"__uint32_t\000"
 3499      6E743332 
 3499      5F7400
 3500              	.LASF43:
 3501 04e8 696E6465 		.ascii	"index_of_unsafe\000"
 3501      785F6F66 
 3501      5F756E73 
 3501      61666500 
 3502              	.LASF54:
 3503 04f8 636F756E 		.ascii	"count\000"
 3503      7400
 3504              	.LASF65:
 3505 04fe 66696E64 		.ascii	"find_first\000"
 3505      5F666972 
 3505      737400
 3506              	.LASF57:
 3507 0509 5F5A4E33 		.ascii	"_ZN3r2p11StaticList_11link_unsafeERNS0_4LinkE\000"
 3507      72327031 
 3507      31537461 
 3507      7469634C 
 3507      6973745F 
 3508              	.LASF35:
 3509 0537 69735F65 		.ascii	"is_empty_unsafe\000"
 3509      6D707479 
 3509      5F756E73 
 3509      61666500 
 3510              	.LASF37:
 3511 0547 5F5A4E4B 		.ascii	"_ZNK3r2p11StaticList_15is_empty_unsafeEv\000"
 3511      33723270 
 3511      31315374 
 3511      61746963 
 3511      4C697374 
 3512              	.LASF76:
 3513 0570 66656174 		.ascii	"featuresp\000"
 3513      75726573 
 3513      7000
 3514              	.LASF44:
ARM GAS  /tmp/cc7gAN1M.s 			page 66


 3515 057a 5F5A4E4B 		.ascii	"_ZNK3r2p11StaticList_15index_of_unsafeEPKv\000"
 3515      33723270 
 3515      31315374 
 3515      61746963 
 3515      4C697374 
 3516              	.LASF77:
 3517 05a5 73756363 		.ascii	"success\000"
 3517      65737300 
 3518              	.LASF32:
 3519 05ad 50726564 		.ascii	"Predicate\000"
 3519      69636174 
 3519      6500
 3520              	.LASF67:
 3521 05b7 5F5A4E4B 		.ascii	"_ZNK3r2p11StaticList_10find_firstEPFbPKvS2_ES2_\000"
 3521      33723270 
 3521      31315374 
 3521      61746963 
 3521      4C697374 
 3522              	.LASF22:
 3523 05e7 5F5A4E33 		.ascii	"_ZN3r2p8SysLock_7acquireEv\000"
 3523      72327038 
 3523      5379734C 
 3523      6F636B5F 
 3523      37616371 
 3524              	.LASF55:
 3525 0602 5F5A4E4B 		.ascii	"_ZNK3r2p11StaticList_5countEv\000"
 3525      33723270 
 3525      31315374 
 3525      61746963 
 3525      4C697374 
 3526              	.LASF53:
 3527 0620 5F5A4E4B 		.ascii	"_ZNK3r2p11StaticList_8is_emptyEv\000"
 3527      33723270 
 3527      31315374 
 3527      61746963 
 3527      4C697374 
 3528              	.LASF19:
 3529 0641 5379734C 		.ascii	"SysLock_\000"
 3529      6F636B5F 
 3529      00
 3530              	.LASF42:
 3531 064a 5F5A4E33 		.ascii	"_ZN3r2p11StaticList_13unlink_unsafeERNS0_4LinkE\000"
 3531      72327031 
 3531      31537461 
 3531      7469634C 
 3531      6973745F 
 3532              	.LASF45:
 3533 067a 636F6E74 		.ascii	"contains_unsafe\000"
 3533      61696E73 
 3533      5F756E73 
 3533      61666500 
 3534              	.LASF62:
 3535 068a 5F5A4E4B 		.ascii	"_ZNK3r2p11StaticList_8index_ofEPKv\000"
 3535      33723270 
 3535      31315374 
 3535      61746963 
 3535      4C697374 
ARM GAS  /tmp/cc7gAN1M.s 			page 67


 3536              	.LASF9:
 3537 06ad 6C6F6E67 		.ascii	"long long int\000"
 3537      206C6F6E 
 3537      6720696E 
 3537      7400
 3538              	.LASF58:
 3539 06bb 5F5A4E33 		.ascii	"_ZN3r2p11StaticList_4linkERNS0_4LinkE\000"
 3539      72327031 
 3539      31537461 
 3539      7469634C 
 3539      6973745F 
 3540              		.ident	"GCC: (GNU Tools for ARM Embedded Processors) 4.9.3 20141119 (release) [ARM/embedded-4_9-br
ARM GAS  /tmp/cc7gAN1M.s 			page 68


DEFINED SYMBOLS
                            *ABS*:00000000 StaticList_.cpp
     /tmp/cc7gAN1M.s:19     .text._ZN3r2p10UncopyableC2Ev:00000000 $t
     /tmp/cc7gAN1M.s:24     .text._ZN3r2p10UncopyableC2Ev:00000000 _ZN3r2p10UncopyableC2Ev
     /tmp/cc7gAN1M.s:24     .text._ZN3r2p10UncopyableC2Ev:00000000 _ZN3r2p10UncopyableC1Ev
     /tmp/cc7gAN1M.s:48     .text._ZN3r2p8SysLock_7acquireEv:00000000 $t
     /tmp/cc7gAN1M.s:53     .text._ZN3r2p8SysLock_7acquireEv:00000000 _ZN3r2p8SysLock_7acquireEv
     /tmp/cc7gAN1M.s:83     .text._ZN3r2p8SysLock_7releaseEv:00000000 $t
     /tmp/cc7gAN1M.s:88     .text._ZN3r2p8SysLock_7releaseEv:00000000 _ZN3r2p8SysLock_7releaseEv
     /tmp/cc7gAN1M.s:117    .text._ZN3r2p7SysLock7acquireEv:00000000 $t
     /tmp/cc7gAN1M.s:122    .text._ZN3r2p7SysLock7acquireEv:00000000 _ZN3r2p7SysLock7acquireEv
     /tmp/cc7gAN1M.s:141    .text._ZN3r2p7SysLock7releaseEv:00000000 $t
     /tmp/cc7gAN1M.s:146    .text._ZN3r2p7SysLock7releaseEv:00000000 _ZN3r2p7SysLock7releaseEv
     /tmp/cc7gAN1M.s:164    .text._ZNK3r2p11StaticList_15get_head_unsafeEv:00000000 $t
     /tmp/cc7gAN1M.s:169    .text._ZNK3r2p11StaticList_15get_head_unsafeEv:00000000 _ZNK3r2p11StaticList_15get_head_unsafeEv
     /tmp/cc7gAN1M.s:193    .text._ZNK3r2p11StaticList_15is_empty_unsafeEv:00000000 $t
     /tmp/cc7gAN1M.s:198    .text._ZNK3r2p11StaticList_15is_empty_unsafeEv:00000000 _ZNK3r2p11StaticList_15is_empty_unsafeEv
     /tmp/cc7gAN1M.s:226    .rodata:00000000 $d
     /tmp/cc7gAN1M.s:230    .text._ZN3r2p11StaticList_11link_unsafeERNS0_4LinkE:00000000 $t
     /tmp/cc7gAN1M.s:235    .text._ZN3r2p11StaticList_11link_unsafeERNS0_4LinkE:00000000 _ZN3r2p11StaticList_11link_unsafeERNS0_4LinkE
     /tmp/cc7gAN1M.s:502    .text:000000c8 _ZNK3r2p11StaticList_15contains_unsafeEPKv
     /tmp/cc7gAN1M.s:287    .text._ZN3r2p11StaticList_11link_unsafeERNS0_4LinkE:00000044 $d
     /tmp/cc7gAN1M.s:292    .text:00000000 $t
     /tmp/cc7gAN1M.s:297    .text:00000000 _ZNK3r2p11StaticList_12count_unsafeEv
     /tmp/cc7gAN1M.s:350    .text:0000002c _ZN3r2p11StaticList_13unlink_unsafeERNS0_4LinkE
     /tmp/cc7gAN1M.s:431    .text:00000080 _ZNK3r2p11StaticList_15index_of_unsafeEPKv
     /tmp/cc7gAN1M.s:559    .text:000000f8 _ZNK3r2p11StaticList_17find_first_unsafeEPFbPKvE
     /tmp/cc7gAN1M.s:622    .text:00000134 _ZNK3r2p11StaticList_17find_first_unsafeEPFbPKvS2_ES2_
     /tmp/cc7gAN1M.s:690    .text:00000180 $d
     /tmp/cc7gAN1M.s:694    .text:00000184 $t
     /tmp/cc7gAN1M.s:699    .text:00000184 _ZNK3r2p11StaticList_8get_headEv
     /tmp/cc7gAN1M.s:737    .text:000001a4 _ZNK3r2p11StaticList_8is_emptyEv
     /tmp/cc7gAN1M.s:776    .text:000001cc _ZNK3r2p11StaticList_5countEv
     /tmp/cc7gAN1M.s:838    .text:0000020c _ZN3r2p11StaticList_4linkERNS0_4LinkE
     /tmp/cc7gAN1M.s:872    .text:0000022c _ZN3r2p11StaticList_6unlinkERNS0_4LinkE
     /tmp/cc7gAN1M.s:913    .text:00000258 _ZNK3r2p11StaticList_8index_ofEPKv
     /tmp/cc7gAN1M.s:994    .text:000002b4 _ZNK3r2p11StaticList_8containsEPKv
     /tmp/cc7gAN1M.s:1063   .text:000002fc _ZNK3r2p11StaticList_10find_firstEPFbPKvE
     /tmp/cc7gAN1M.s:1134   .text:00000348 _ZNK3r2p11StaticList_10find_firstEPFbPKvS2_ES2_
     /tmp/cc7gAN1M.s:1210   .text:000003a4 $d
     /tmp/cc7gAN1M.s:1214   .text:000003a8 $t
     /tmp/cc7gAN1M.s:1219   .text:000003a8 _ZN3r2p11StaticList_C2Ev
     /tmp/cc7gAN1M.s:1219   .text:000003a8 _ZN3r2p11StaticList_C1Ev
                     .debug_frame:00000010 $d
                           .group:00000000 _ZN3r2p10UncopyableC5Ev

UNDEFINED SYMBOLS
dbg_check_lock
dbg_check_unlock
chDbgPanic
