ARM GAS  /tmp/cc7gAN1M.s 			page 1


   1              		.syntax unified
   2              		.cpu cortex-m4
   3              		.fpu softvfp
   4              		.eabi_attribute 20, 1
   5              		.eabi_attribute 21, 1
   6              		.eabi_attribute 23, 3
   7              		.eabi_attribute 24, 1
   8              		.eabi_attribute 25, 1
   9              		.eabi_attribute 26, 1
  10              		.eabi_attribute 30, 6
  11              		.eabi_attribute 34, 1
  12              		.eabi_attribute 18, 4
  13              		.thumb
  14              		.file	"StaticList_.cpp"
  15              		.text
  16              	.Ltext0:
  17              		.cfi_sections	.debug_frame
  18              		.section	.text._ZN3r2p10UncopyableC2Ev,"axG",%progbits,_ZN3r2p10UncopyableC5Ev,comdat
  19              		.align	2
  20              		.weak	_ZN3r2p10UncopyableC2Ev
  21              		.thumb
  22              		.thumb_func
  23              		.type	_ZN3r2p10UncopyableC2Ev, %function
  24              	_ZN3r2p10UncopyableC2Ev:
  25              	.LFB6:
  26              		.file 1 "/opt/R2P/core/Middleware/include/r2p/Uncopyable.hpp"
  27              		.loc 1 20 0
  28              		.cfi_startproc
  29              		@ args = 0, pretend = 0, frame = 8
  30              		@ frame_needed = 0, uses_anonymous_args = 0
  31              		@ link register save eliminated.
  32 0000 82B0     		sub	sp, sp, #8
  33              		.cfi_def_cfa_offset 8
  34 0002 0190     		str	r0, [sp, #4]
  35              		.loc 1 20 0
  36 0004 019B     		ldr	r3, [sp, #4]
  37 0006 1846     		mov	r0, r3
  38 0008 02B0     		add	sp, sp, #8
  39              		.cfi_def_cfa_offset 0
  40              		@ sp needed
  41 000a 7047     		bx	lr
  42              		.cfi_endproc
  43              	.LFE6:
  44              		.size	_ZN3r2p10UncopyableC2Ev, .-_ZN3r2p10UncopyableC2Ev
  45              		.weak	_ZN3r2p10UncopyableC1Ev
  46              		.thumb_set _ZN3r2p10UncopyableC1Ev,_ZN3r2p10UncopyableC2Ev
  47              		.section	.text._ZN3r2p8SysLock_7acquireEv,"axG",%progbits,_ZN3r2p8SysLock_7acquireEv,comdat
  48              		.align	2
  49              		.weak	_ZN3r2p8SysLock_7acquireEv
  50              		.thumb
  51              		.thumb_func
  52              		.type	_ZN3r2p8SysLock_7acquireEv, %function
  53              	_ZN3r2p8SysLock_7acquireEv:
  54              	.LFB18:
  55              		.file 2 "/opt/R2P/core/Middleware/port/chibios/include/r2p/impl/SysLock_.hpp"
  56              		.loc 2 20 0
  57              		.cfi_startproc
ARM GAS  /tmp/cc7gAN1M.s 			page 2


  58              		@ args = 0, pretend = 0, frame = 0
  59              		@ frame_needed = 0, uses_anonymous_args = 0
  60 0000 08B5     		push	{r3, lr}
  61              		.cfi_def_cfa_offset 8
  62              		.cfi_offset 3, -8
  63              		.cfi_offset 14, -4
  64              	.LBB2:
  65              	.LBB3:
  66              	.LBB4:
  67              		.loc 2 22 0
  68 0002 2023     		movs	r3, #32
  69              	@ 22 "/opt/R2P/core/Middleware/port/chibios/include/r2p/impl/SysLock_.hpp" 1
  70 0004 83F31188 		msr     BASEPRI, r3
  71              	@ 0 "" 2
  72              		.thumb
  73              	.LBE4:
  74 0008 FFF7FEFF 		bl	dbg_check_lock
  75              	.LBE3:
  76              	.LBE2:
  77              		.loc 2 23 0
  78 000c 08BD     		pop	{r3, pc}
  79              		.cfi_endproc
  80              	.LFE18:
  81              		.size	_ZN3r2p8SysLock_7acquireEv, .-_ZN3r2p8SysLock_7acquireEv
  82 000e 00BF     		.section	.text._ZN3r2p8SysLock_7releaseEv,"axG",%progbits,_ZN3r2p8SysLock_7releaseEv,comdat
  83              		.align	2
  84              		.weak	_ZN3r2p8SysLock_7releaseEv
  85              		.thumb
  86              		.thumb_func
  87              		.type	_ZN3r2p8SysLock_7releaseEv, %function
  88              	_ZN3r2p8SysLock_7releaseEv:
  89              	.LFB19:
  90              		.loc 2 27 0
  91              		.cfi_startproc
  92              		@ args = 0, pretend = 0, frame = 0
  93              		@ frame_needed = 0, uses_anonymous_args = 0
  94 0000 08B5     		push	{r3, lr}
  95              		.cfi_def_cfa_offset 8
  96              		.cfi_offset 3, -8
  97              		.cfi_offset 14, -4
  98              	.LBB5:
  99              	.LBB6:
 100              		.loc 2 29 0
 101 0002 FFF7FEFF 		bl	dbg_check_unlock
 102              	.LBB7:
 103 0006 0023     		movs	r3, #0
 104              	@ 29 "/opt/R2P/core/Middleware/port/chibios/include/r2p/impl/SysLock_.hpp" 1
 105 0008 83F31188 		msr     BASEPRI, r3
 106              	@ 0 "" 2
 107              		.thumb
 108              	.LBE7:
 109              	.LBE6:
 110              	.LBE5:
 111              		.loc 2 30 0
 112 000c 08BD     		pop	{r3, pc}
 113              		.cfi_endproc
 114              	.LFE19:
ARM GAS  /tmp/cc7gAN1M.s 			page 3


 115              		.size	_ZN3r2p8SysLock_7releaseEv, .-_ZN3r2p8SysLock_7releaseEv
 116 000e 00BF     		.section	.text._ZN3r2p7SysLock7acquireEv,"axG",%progbits,_ZN3r2p7SysLock7acquireEv,comdat
 117              		.align	2
 118              		.weak	_ZN3r2p7SysLock7acquireEv
 119              		.thumb
 120              		.thumb_func
 121              		.type	_ZN3r2p7SysLock7acquireEv, %function
 122              	_ZN3r2p7SysLock7acquireEv:
 123              	.LFB26:
 124              		.file 3 "/opt/R2P/core/Middleware/include/r2p/SysLock.hpp"
 125              		.loc 3 27 0
 126              		.cfi_startproc
 127              		@ args = 0, pretend = 0, frame = 0
 128              		@ frame_needed = 0, uses_anonymous_args = 0
 129 0000 08B5     		push	{r3, lr}
 130              		.cfi_def_cfa_offset 8
 131              		.cfi_offset 3, -8
 132              		.cfi_offset 14, -4
 133              		.loc 3 29 0
 134 0002 FFF7FEFF 		bl	_ZN3r2p8SysLock_7acquireEv
 135              		.loc 3 30 0
 136 0006 08BD     		pop	{r3, pc}
 137              		.cfi_endproc
 138              	.LFE26:
 139              		.size	_ZN3r2p7SysLock7acquireEv, .-_ZN3r2p7SysLock7acquireEv
 140              		.section	.text._ZN3r2p7SysLock7releaseEv,"axG",%progbits,_ZN3r2p7SysLock7releaseEv,comdat
 141              		.align	2
 142              		.weak	_ZN3r2p7SysLock7releaseEv
 143              		.thumb
 144              		.thumb_func
 145              		.type	_ZN3r2p7SysLock7releaseEv, %function
 146              	_ZN3r2p7SysLock7releaseEv:
 147              	.LFB27:
 148              		.loc 3 34 0
 149              		.cfi_startproc
 150              		@ args = 0, pretend = 0, frame = 0
 151              		@ frame_needed = 0, uses_anonymous_args = 0
 152 0000 08B5     		push	{r3, lr}
 153              		.cfi_def_cfa_offset 8
 154              		.cfi_offset 3, -8
 155              		.cfi_offset 14, -4
 156              		.loc 3 36 0
 157 0002 FFF7FEFF 		bl	_ZN3r2p8SysLock_7releaseEv
 158              		.loc 3 37 0
 159 0006 08BD     		pop	{r3, pc}
 160              		.cfi_endproc
 161              	.LFE27:
 162              		.size	_ZN3r2p7SysLock7releaseEv, .-_ZN3r2p7SysLock7releaseEv
 163              		.section	.text._ZNK3r2p11StaticList_15get_head_unsafeEv,"axG",%progbits,_ZNK3r2p11StaticList_15get
 164              		.align	2
 165              		.weak	_ZNK3r2p11StaticList_15get_head_unsafeEv
 166              		.thumb
 167              		.thumb_func
 168              		.type	_ZNK3r2p11StaticList_15get_head_unsafeEv, %function
 169              	_ZNK3r2p11StaticList_15get_head_unsafeEv:
 170              	.LFB39:
 171              		.file 4 "/opt/R2P/core/Middleware/include/r2p/impl/StaticList_.hpp"
ARM GAS  /tmp/cc7gAN1M.s 			page 4


 172              		.loc 4 53 0
 173              		.cfi_startproc
 174              		@ args = 0, pretend = 0, frame = 8
 175              		@ frame_needed = 0, uses_anonymous_args = 0
 176              		@ link register save eliminated.
 177 0000 82B0     		sub	sp, sp, #8
 178              		.cfi_def_cfa_offset 8
 179 0002 0190     		str	r0, [sp, #4]
 180              		.loc 4 55 0
 181 0004 019B     		ldr	r3, [sp, #4]
 182 0006 1B68     		ldr	r3, [r3]
 183              		.loc 4 56 0
 184 0008 1846     		mov	r0, r3
 185 000a 02B0     		add	sp, sp, #8
 186              		.cfi_def_cfa_offset 0
 187              		@ sp needed
 188 000c 7047     		bx	lr
 189              		.cfi_endproc
 190              	.LFE39:
 191              		.size	_ZNK3r2p11StaticList_15get_head_unsafeEv, .-_ZNK3r2p11StaticList_15get_head_unsafeEv
 192 000e 00BF     		.section	.text._ZNK3r2p11StaticList_15is_empty_unsafeEv,"axG",%progbits,_ZNK3r2p11StaticList_15is_
 193              		.align	2
 194              		.weak	_ZNK3r2p11StaticList_15is_empty_unsafeEv
 195              		.thumb
 196              		.thumb_func
 197              		.type	_ZNK3r2p11StaticList_15is_empty_unsafeEv, %function
 198              	_ZNK3r2p11StaticList_15is_empty_unsafeEv:
 199              	.LFB40:
 200              		.loc 4 60 0
 201              		.cfi_startproc
 202              		@ args = 0, pretend = 0, frame = 8
 203              		@ frame_needed = 0, uses_anonymous_args = 0
 204              		@ link register save eliminated.
 205 0000 82B0     		sub	sp, sp, #8
 206              		.cfi_def_cfa_offset 8
 207 0002 0190     		str	r0, [sp, #4]
 208              		.loc 4 62 0
 209 0004 019B     		ldr	r3, [sp, #4]
 210 0006 1B68     		ldr	r3, [r3]
 211 0008 002B     		cmp	r3, #0
 212 000a 0CBF     		ite	eq
 213 000c 0123     		moveq	r3, #1
 214 000e 0023     		movne	r3, #0
 215 0010 DBB2     		uxtb	r3, r3
 216              		.loc 4 63 0
 217 0012 1846     		mov	r0, r3
 218 0014 02B0     		add	sp, sp, #8
 219              		.cfi_def_cfa_offset 0
 220              		@ sp needed
 221 0016 7047     		bx	lr
 222              		.cfi_endproc
 223              	.LFE40:
 224              		.size	_ZNK3r2p11StaticList_15is_empty_unsafeEv, .-_ZNK3r2p11StaticList_15is_empty_unsafeEv
 225              		.section	.rodata
 226              		.align	2
 227              	.LC0:
 228 0000 5232505F 		.ascii	"R2P_ASSERT()\000"
ARM GAS  /tmp/cc7gAN1M.s 			page 5


 228      41535345 
 228      52542829 
 228      00
 229 000d 000000   		.section	.text._ZN3r2p11StaticList_11link_unsafeERNS0_4LinkE,"axG",%progbits,_ZN3r2p11StaticList_1
 230              		.align	2
 231              		.weak	_ZN3r2p11StaticList_11link_unsafeERNS0_4LinkE
 232              		.thumb
 233              		.thumb_func
 234              		.type	_ZN3r2p11StaticList_11link_unsafeERNS0_4LinkE, %function
 235              	_ZN3r2p11StaticList_11link_unsafeERNS0_4LinkE:
 236              	.LFB41:
 237              		.loc 4 67 0
 238              		.cfi_startproc
 239              		@ args = 0, pretend = 0, frame = 8
 240              		@ frame_needed = 0, uses_anonymous_args = 0
 241 0000 00B5     		push	{lr}
 242              		.cfi_def_cfa_offset 4
 243              		.cfi_offset 14, -4
 244 0002 83B0     		sub	sp, sp, #12
 245              		.cfi_def_cfa_offset 16
 246 0004 0190     		str	r0, [sp, #4]
 247 0006 0091     		str	r1, [sp]
 248              		.loc 4 69 0
 249 0008 009B     		ldr	r3, [sp]
 250 000a 1B68     		ldr	r3, [r3]
 251 000c 002B     		cmp	r3, #0
 252 000e 02D0     		beq	.L13
 253              		.loc 4 69 0 is_stmt 0 discriminator 1
 254 0010 0C48     		ldr	r0, .L15
 255 0012 FFF7FEFF 		bl	chDbgPanic
 256              	.L13:
 257              		.loc 4 70 0 is_stmt 1
 258 0016 009B     		ldr	r3, [sp]
 259 0018 5B68     		ldr	r3, [r3, #4]
 260 001a 0198     		ldr	r0, [sp, #4]
 261 001c 1946     		mov	r1, r3
 262 001e FFF7FEFF 		bl	_ZNK3r2p11StaticList_15contains_unsafeEPKv
 263 0022 0346     		mov	r3, r0
 264 0024 002B     		cmp	r3, #0
 265 0026 02D0     		beq	.L14
 266              		.loc 4 70 0 is_stmt 0 discriminator 1
 267 0028 0648     		ldr	r0, .L15
 268 002a FFF7FEFF 		bl	chDbgPanic
 269              	.L14:
 270              		.loc 4 72 0 is_stmt 1
 271 002e 019B     		ldr	r3, [sp, #4]
 272 0030 1A68     		ldr	r2, [r3]
 273 0032 009B     		ldr	r3, [sp]
 274 0034 1A60     		str	r2, [r3]
 275              		.loc 4 73 0
 276 0036 019B     		ldr	r3, [sp, #4]
 277 0038 009A     		ldr	r2, [sp]
 278 003a 1A60     		str	r2, [r3]
 279              		.loc 4 74 0
 280 003c 03B0     		add	sp, sp, #12
 281              		.cfi_def_cfa_offset 4
 282              		@ sp needed
ARM GAS  /tmp/cc7gAN1M.s 			page 6


 283 003e 5DF804FB 		ldr	pc, [sp], #4
 284              	.L16:
 285 0042 00BF     		.align	2
 286              	.L15:
 287 0044 00000000 		.word	.LC0
 288              		.cfi_endproc
 289              	.LFE41:
 290              		.size	_ZN3r2p11StaticList_11link_unsafeERNS0_4LinkE, .-_ZN3r2p11StaticList_11link_unsafeERNS0_4Lin
 291              		.text
 292              		.align	2
 293              		.global	_ZNK3r2p11StaticList_12count_unsafeEv
 294              		.thumb
 295              		.thumb_func
 296              		.type	_ZNK3r2p11StaticList_12count_unsafeEv, %function
 297              	_ZNK3r2p11StaticList_12count_unsafeEv:
 298              	.LFB42:
 299              		.file 5 "/opt/R2P/core/Middleware/src/impl/StaticList_.cpp"
 300              		.loc 5 7 0
 301              		.cfi_startproc
 302              		@ args = 0, pretend = 0, frame = 16
 303              		@ frame_needed = 0, uses_anonymous_args = 0
 304              		@ link register save eliminated.
 305 0000 84B0     		sub	sp, sp, #16
 306              		.cfi_def_cfa_offset 16
 307 0002 0190     		str	r0, [sp, #4]
 308              	.LBB8:
 309              		.loc 5 9 0
 310 0004 0023     		movs	r3, #0
 311 0006 0393     		str	r3, [sp, #12]
 312              	.LBB9:
 313              		.loc 5 10 0
 314 0008 019B     		ldr	r3, [sp, #4]
 315 000a 1B68     		ldr	r3, [r3]
 316 000c 0293     		str	r3, [sp, #8]
 317 000e 05E0     		b	.L18
 318              	.L19:
 319              		.loc 5 11 0 discriminator 3
 320 0010 039B     		ldr	r3, [sp, #12]
 321 0012 0133     		adds	r3, r3, #1
 322 0014 0393     		str	r3, [sp, #12]
 323              		.loc 5 10 0 discriminator 3
 324 0016 029B     		ldr	r3, [sp, #8]
 325 0018 1B68     		ldr	r3, [r3]
 326 001a 0293     		str	r3, [sp, #8]
 327              	.L18:
 328              		.loc 5 10 0 is_stmt 0 discriminator 1
 329 001c 029B     		ldr	r3, [sp, #8]
 330 001e 002B     		cmp	r3, #0
 331 0020 F6D1     		bne	.L19
 332              	.LBE9:
 333              		.loc 5 13 0 is_stmt 1
 334 0022 039B     		ldr	r3, [sp, #12]
 335              	.LBE8:
 336              		.loc 5 14 0
 337 0024 1846     		mov	r0, r3
 338 0026 04B0     		add	sp, sp, #16
 339              		.cfi_def_cfa_offset 0
ARM GAS  /tmp/cc7gAN1M.s 			page 7


 340              		@ sp needed
 341 0028 7047     		bx	lr
 342              		.cfi_endproc
 343              	.LFE42:
 344              		.size	_ZNK3r2p11StaticList_12count_unsafeEv, .-_ZNK3r2p11StaticList_12count_unsafeEv
 345 002a 00BF     		.align	2
 346              		.global	_ZN3r2p11StaticList_13unlink_unsafeERNS0_4LinkE
 347              		.thumb
 348              		.thumb_func
 349              		.type	_ZN3r2p11StaticList_13unlink_unsafeERNS0_4LinkE, %function
 350              	_ZN3r2p11StaticList_13unlink_unsafeERNS0_4LinkE:
 351              	.LFB43:
 352              		.loc 5 17 0
 353              		.cfi_startproc
 354              		@ args = 0, pretend = 0, frame = 16
 355              		@ frame_needed = 0, uses_anonymous_args = 0
 356              		@ link register save eliminated.
 357 002c 84B0     		sub	sp, sp, #16
 358              		.cfi_def_cfa_offset 16
 359 002e 0190     		str	r0, [sp, #4]
 360 0030 0091     		str	r1, [sp]
 361              	.LBB10:
 362              	.LBB11:
 363              		.loc 5 19 0
 364 0032 019B     		ldr	r3, [sp, #4]
 365 0034 1B68     		ldr	r3, [r3]
 366 0036 0393     		str	r3, [sp, #12]
 367 0038 0023     		movs	r3, #0
 368 003a 0293     		str	r3, [sp, #8]
 369 003c 19E0     		b	.L22
 370              	.L27:
 371              		.loc 5 22 0
 372 003e 039A     		ldr	r2, [sp, #12]
 373 0040 009B     		ldr	r3, [sp]
 374 0042 9A42     		cmp	r2, r3
 375 0044 10D1     		bne	.L23
 376              		.loc 5 23 0
 377 0046 029B     		ldr	r3, [sp, #8]
 378 0048 002B     		cmp	r3, #0
 379 004a 04D0     		beq	.L24
 380              		.loc 5 23 0 is_stmt 0 discriminator 1
 381 004c 039B     		ldr	r3, [sp, #12]
 382 004e 1A68     		ldr	r2, [r3]
 383 0050 029B     		ldr	r3, [sp, #8]
 384 0052 1A60     		str	r2, [r3]
 385 0054 03E0     		b	.L25
 386              	.L24:
 387              		.loc 5 24 0 is_stmt 1
 388 0056 039B     		ldr	r3, [sp, #12]
 389 0058 1A68     		ldr	r2, [r3]
 390 005a 019B     		ldr	r3, [sp, #4]
 391 005c 1A60     		str	r2, [r3]
 392              	.L25:
 393              		.loc 5 25 0
 394 005e 039B     		ldr	r3, [sp, #12]
 395 0060 0022     		movs	r2, #0
 396 0062 1A60     		str	r2, [r3]
ARM GAS  /tmp/cc7gAN1M.s 			page 8


 397              		.loc 5 26 0
 398 0064 0123     		movs	r3, #1
 399 0066 08E0     		b	.L26
 400              	.L23:
 401              		.loc 5 19 0 discriminator 2
 402 0068 039B     		ldr	r3, [sp, #12]
 403 006a 0293     		str	r3, [sp, #8]
 404 006c 039B     		ldr	r3, [sp, #12]
 405 006e 1B68     		ldr	r3, [r3]
 406 0070 0393     		str	r3, [sp, #12]
 407              	.L22:
 408              		.loc 5 19 0 is_stmt 0 discriminator 1
 409 0072 039B     		ldr	r3, [sp, #12]
 410 0074 002B     		cmp	r3, #0
 411 0076 E2D1     		bne	.L27
 412              	.LBE11:
 413              		.loc 5 29 0 is_stmt 1
 414 0078 0023     		movs	r3, #0
 415              	.L26:
 416              	.LBE10:
 417              		.loc 5 30 0
 418 007a 1846     		mov	r0, r3
 419 007c 04B0     		add	sp, sp, #16
 420              		.cfi_def_cfa_offset 0
 421              		@ sp needed
 422 007e 7047     		bx	lr
 423              		.cfi_endproc
 424              	.LFE43:
 425              		.size	_ZN3r2p11StaticList_13unlink_unsafeERNS0_4LinkE, .-_ZN3r2p11StaticList_13unlink_unsafeERNS0_
 426              		.align	2
 427              		.global	_ZNK3r2p11StaticList_15index_of_unsafeEPKv
 428              		.thumb
 429              		.thumb_func
 430              		.type	_ZNK3r2p11StaticList_15index_of_unsafeEPKv, %function
 431              	_ZNK3r2p11StaticList_15index_of_unsafeEPKv:
 432              	.LFB44:
 433              		.loc 5 33 0
 434              		.cfi_startproc
 435              		@ args = 0, pretend = 0, frame = 16
 436              		@ frame_needed = 0, uses_anonymous_args = 0
 437              		@ link register save eliminated.
 438 0080 84B0     		sub	sp, sp, #16
 439              		.cfi_def_cfa_offset 16
 440 0082 0190     		str	r0, [sp, #4]
 441 0084 0091     		str	r1, [sp]
 442              	.LBB12:
 443              		.loc 5 35 0
 444 0086 009B     		ldr	r3, [sp]
 445 0088 002B     		cmp	r3, #0
 446 008a 02D1     		bne	.L29
 447              		.loc 5 35 0 is_stmt 0 discriminator 1
 448 008c 4FF0FF33 		mov	r3, #-1
 449 0090 17E0     		b	.L30
 450              	.L29:
 451              		.loc 5 37 0 is_stmt 1
 452 0092 0023     		movs	r3, #0
 453 0094 0393     		str	r3, [sp, #12]
ARM GAS  /tmp/cc7gAN1M.s 			page 9


 454              	.LBB13:
 455              		.loc 5 38 0
 456 0096 019B     		ldr	r3, [sp, #4]
 457 0098 1B68     		ldr	r3, [r3]
 458 009a 0293     		str	r3, [sp, #8]
 459 009c 0CE0     		b	.L31
 460              	.L33:
 461              		.loc 5 39 0
 462 009e 029B     		ldr	r3, [sp, #8]
 463 00a0 5A68     		ldr	r2, [r3, #4]
 464 00a2 009B     		ldr	r3, [sp]
 465 00a4 9A42     		cmp	r2, r3
 466 00a6 01D1     		bne	.L32
 467              		.loc 5 40 0
 468 00a8 039B     		ldr	r3, [sp, #12]
 469 00aa 0AE0     		b	.L30
 470              	.L32:
 471              		.loc 5 38 0 discriminator 2
 472 00ac 039B     		ldr	r3, [sp, #12]
 473 00ae 0133     		adds	r3, r3, #1
 474 00b0 0393     		str	r3, [sp, #12]
 475 00b2 029B     		ldr	r3, [sp, #8]
 476 00b4 1B68     		ldr	r3, [r3]
 477 00b6 0293     		str	r3, [sp, #8]
 478              	.L31:
 479              		.loc 5 38 0 is_stmt 0 discriminator 1
 480 00b8 029B     		ldr	r3, [sp, #8]
 481 00ba 002B     		cmp	r3, #0
 482 00bc EFD1     		bne	.L33
 483              	.LBE13:
 484              		.loc 5 43 0 is_stmt 1
 485 00be 4FF0FF33 		mov	r3, #-1
 486              	.L30:
 487              	.LBE12:
 488              		.loc 5 44 0
 489 00c2 1846     		mov	r0, r3
 490 00c4 04B0     		add	sp, sp, #16
 491              		.cfi_def_cfa_offset 0
 492              		@ sp needed
 493 00c6 7047     		bx	lr
 494              		.cfi_endproc
 495              	.LFE44:
 496              		.size	_ZNK3r2p11StaticList_15index_of_unsafeEPKv, .-_ZNK3r2p11StaticList_15index_of_unsafeEPKv
 497              		.align	2
 498              		.global	_ZNK3r2p11StaticList_15contains_unsafeEPKv
 499              		.thumb
 500              		.thumb_func
 501              		.type	_ZNK3r2p11StaticList_15contains_unsafeEPKv, %function
 502              	_ZNK3r2p11StaticList_15contains_unsafeEPKv:
 503              	.LFB45:
 504              		.loc 5 47 0
 505              		.cfi_startproc
 506              		@ args = 0, pretend = 0, frame = 16
 507              		@ frame_needed = 0, uses_anonymous_args = 0
 508              		@ link register save eliminated.
 509 00c8 84B0     		sub	sp, sp, #16
 510              		.cfi_def_cfa_offset 16
ARM GAS  /tmp/cc7gAN1M.s 			page 10


 511 00ca 0190     		str	r0, [sp, #4]
 512 00cc 0091     		str	r1, [sp]
 513              	.LBB14:
 514              	.LBB15:
 515              		.loc 5 49 0
 516 00ce 019B     		ldr	r3, [sp, #4]
 517 00d0 1B68     		ldr	r3, [r3]
 518 00d2 0393     		str	r3, [sp, #12]
 519 00d4 09E0     		b	.L35
 520              	.L38:
 521              		.loc 5 50 0
 522 00d6 039B     		ldr	r3, [sp, #12]
 523 00d8 5A68     		ldr	r2, [r3, #4]
 524 00da 009B     		ldr	r3, [sp]
 525 00dc 9A42     		cmp	r2, r3
 526 00de 01D1     		bne	.L36
 527              		.loc 5 51 0
 528 00e0 0123     		movs	r3, #1
 529 00e2 06E0     		b	.L37
 530              	.L36:
 531              		.loc 5 49 0 discriminator 2
 532 00e4 039B     		ldr	r3, [sp, #12]
 533 00e6 1B68     		ldr	r3, [r3]
 534 00e8 0393     		str	r3, [sp, #12]
 535              	.L35:
 536              		.loc 5 49 0 is_stmt 0 discriminator 1
 537 00ea 039B     		ldr	r3, [sp, #12]
 538 00ec 002B     		cmp	r3, #0
 539 00ee F2D1     		bne	.L38
 540              	.LBE15:
 541              		.loc 5 54 0 is_stmt 1
 542 00f0 0023     		movs	r3, #0
 543              	.L37:
 544              	.LBE14:
 545              		.loc 5 55 0
 546 00f2 1846     		mov	r0, r3
 547 00f4 04B0     		add	sp, sp, #16
 548              		.cfi_def_cfa_offset 0
 549              		@ sp needed
 550 00f6 7047     		bx	lr
 551              		.cfi_endproc
 552              	.LFE45:
 553              		.size	_ZNK3r2p11StaticList_15contains_unsafeEPKv, .-_ZNK3r2p11StaticList_15contains_unsafeEPKv
 554              		.align	2
 555              		.global	_ZNK3r2p11StaticList_17find_first_unsafeEPFbPKvE
 556              		.thumb
 557              		.thumb_func
 558              		.type	_ZNK3r2p11StaticList_17find_first_unsafeEPFbPKvE, %function
 559              	_ZNK3r2p11StaticList_17find_first_unsafeEPFbPKvE:
 560              	.LFB46:
 561              		.loc 5 58 0
 562              		.cfi_startproc
 563              		@ args = 0, pretend = 0, frame = 16
 564              		@ frame_needed = 0, uses_anonymous_args = 0
 565 00f8 00B5     		push	{lr}
 566              		.cfi_def_cfa_offset 4
 567              		.cfi_offset 14, -4
ARM GAS  /tmp/cc7gAN1M.s 			page 11


 568 00fa 85B0     		sub	sp, sp, #20
 569              		.cfi_def_cfa_offset 24
 570 00fc 0190     		str	r0, [sp, #4]
 571 00fe 0091     		str	r1, [sp]
 572              	.LBB16:
 573              	.LBB17:
 574              		.loc 5 60 0
 575 0100 019B     		ldr	r3, [sp, #4]
 576 0102 1B68     		ldr	r3, [r3]
 577 0104 0393     		str	r3, [sp, #12]
 578 0106 0DE0     		b	.L40
 579              	.L43:
 580              		.loc 5 61 0
 581 0108 039B     		ldr	r3, [sp, #12]
 582 010a 5A68     		ldr	r2, [r3, #4]
 583 010c 009B     		ldr	r3, [sp]
 584 010e 1046     		mov	r0, r2
 585 0110 9847     		blx	r3
 586 0112 0346     		mov	r3, r0
 587 0114 002B     		cmp	r3, #0
 588 0116 02D0     		beq	.L41
 589              		.loc 5 62 0
 590 0118 039B     		ldr	r3, [sp, #12]
 591 011a 5B68     		ldr	r3, [r3, #4]
 592 011c 06E0     		b	.L42
 593              	.L41:
 594              		.loc 5 60 0 discriminator 2
 595 011e 039B     		ldr	r3, [sp, #12]
 596 0120 1B68     		ldr	r3, [r3]
 597 0122 0393     		str	r3, [sp, #12]
 598              	.L40:
 599              		.loc 5 60 0 is_stmt 0 discriminator 1
 600 0124 039B     		ldr	r3, [sp, #12]
 601 0126 002B     		cmp	r3, #0
 602 0128 EED1     		bne	.L43
 603              	.LBE17:
 604              		.loc 5 65 0 is_stmt 1
 605 012a 0023     		movs	r3, #0
 606              	.L42:
 607              	.LBE16:
 608              		.loc 5 66 0
 609 012c 1846     		mov	r0, r3
 610 012e 05B0     		add	sp, sp, #20
 611              		.cfi_def_cfa_offset 4
 612              		@ sp needed
 613 0130 5DF804FB 		ldr	pc, [sp], #4
 614              		.cfi_endproc
 615              	.LFE46:
 616              		.size	_ZNK3r2p11StaticList_17find_first_unsafeEPFbPKvE, .-_ZNK3r2p11StaticList_17find_first_unsafe
 617              		.align	2
 618              		.global	_ZNK3r2p11StaticList_17find_first_unsafeEPFbPKvS2_ES2_
 619              		.thumb
 620              		.thumb_func
 621              		.type	_ZNK3r2p11StaticList_17find_first_unsafeEPFbPKvS2_ES2_, %function
 622              	_ZNK3r2p11StaticList_17find_first_unsafeEPFbPKvS2_ES2_:
 623              	.LFB47:
 624              		.loc 5 70 0
ARM GAS  /tmp/cc7gAN1M.s 			page 12


 625              		.cfi_startproc
 626              		@ args = 0, pretend = 0, frame = 24
 627              		@ frame_needed = 0, uses_anonymous_args = 0
 628 0134 00B5     		push	{lr}
 629              		.cfi_def_cfa_offset 4
 630              		.cfi_offset 14, -4
 631 0136 87B0     		sub	sp, sp, #28
 632              		.cfi_def_cfa_offset 32
 633 0138 0390     		str	r0, [sp, #12]
 634 013a 0291     		str	r1, [sp, #8]
 635 013c 0192     		str	r2, [sp, #4]
 636              	.LBB18:
 637              		.loc 5 72 0
 638 013e 019B     		ldr	r3, [sp, #4]
 639 0140 002B     		cmp	r3, #0
 640 0142 02D1     		bne	.L45
 641              		.loc 5 72 0 is_stmt 0 discriminator 1
 642 0144 0E48     		ldr	r0, .L50
 643 0146 FFF7FEFF 		bl	chDbgPanic
 644              	.L45:
 645              	.LBB19:
 646              		.loc 5 74 0 is_stmt 1
 647 014a 039B     		ldr	r3, [sp, #12]
 648 014c 1B68     		ldr	r3, [r3]
 649 014e 0593     		str	r3, [sp, #20]
 650 0150 0EE0     		b	.L46
 651              	.L49:
 652              		.loc 5 75 0
 653 0152 059B     		ldr	r3, [sp, #20]
 654 0154 5A68     		ldr	r2, [r3, #4]
 655 0156 029B     		ldr	r3, [sp, #8]
 656 0158 1046     		mov	r0, r2
 657 015a 0199     		ldr	r1, [sp, #4]
 658 015c 9847     		blx	r3
 659 015e 0346     		mov	r3, r0
 660 0160 002B     		cmp	r3, #0
 661 0162 02D0     		beq	.L47
 662              		.loc 5 76 0
 663 0164 059B     		ldr	r3, [sp, #20]
 664 0166 5B68     		ldr	r3, [r3, #4]
 665 0168 06E0     		b	.L48
 666              	.L47:
 667              		.loc 5 74 0 discriminator 2
 668 016a 059B     		ldr	r3, [sp, #20]
 669 016c 1B68     		ldr	r3, [r3]
 670 016e 0593     		str	r3, [sp, #20]
 671              	.L46:
 672              		.loc 5 74 0 is_stmt 0 discriminator 1
 673 0170 059B     		ldr	r3, [sp, #20]
 674 0172 002B     		cmp	r3, #0
 675 0174 EDD1     		bne	.L49
 676              	.LBE19:
 677              		.loc 5 79 0 is_stmt 1
 678 0176 0023     		movs	r3, #0
 679              	.L48:
 680              	.LBE18:
 681              		.loc 5 80 0
ARM GAS  /tmp/cc7gAN1M.s 			page 13


 682 0178 1846     		mov	r0, r3
 683 017a 07B0     		add	sp, sp, #28
 684              		.cfi_def_cfa_offset 4
 685              		@ sp needed
 686 017c 5DF804FB 		ldr	pc, [sp], #4
 687              	.L51:
 688              		.align	2
 689              	.L50:
 690 0180 00000000 		.word	.LC0
 691              		.cfi_endproc
 692              	.LFE47:
 693              		.size	_ZNK3r2p11StaticList_17find_first_unsafeEPFbPKvS2_ES2_, .-_ZNK3r2p11StaticList_17find_first_
 694              		.align	2
 695              		.global	_ZNK3r2p11StaticList_8get_headEv
 696              		.thumb
 697              		.thumb_func
 698              		.type	_ZNK3r2p11StaticList_8get_headEv, %function
 699              	_ZNK3r2p11StaticList_8get_headEv:
 700              	.LFB48:
 701              		.loc 5 83 0
 702              		.cfi_startproc
 703              		@ args = 0, pretend = 0, frame = 16
 704              		@ frame_needed = 0, uses_anonymous_args = 0
 705 0184 00B5     		push	{lr}
 706              		.cfi_def_cfa_offset 4
 707              		.cfi_offset 14, -4
 708 0186 85B0     		sub	sp, sp, #20
 709              		.cfi_def_cfa_offset 24
 710 0188 0190     		str	r0, [sp, #4]
 711              	.LBB20:
 712              		.loc 5 85 0
 713 018a FFF7FEFF 		bl	_ZN3r2p7SysLock7acquireEv
 714              		.loc 5 86 0
 715 018e 0198     		ldr	r0, [sp, #4]
 716 0190 FFF7FEFF 		bl	_ZNK3r2p11StaticList_15get_head_unsafeEv
 717 0194 0390     		str	r0, [sp, #12]
 718              		.loc 5 87 0
 719 0196 FFF7FEFF 		bl	_ZN3r2p7SysLock7releaseEv
 720              		.loc 5 88 0
 721 019a 039B     		ldr	r3, [sp, #12]
 722              	.LBE20:
 723              		.loc 5 89 0
 724 019c 1846     		mov	r0, r3
 725 019e 05B0     		add	sp, sp, #20
 726              		.cfi_def_cfa_offset 4
 727              		@ sp needed
 728 01a0 5DF804FB 		ldr	pc, [sp], #4
 729              		.cfi_endproc
 730              	.LFE48:
 731              		.size	_ZNK3r2p11StaticList_8get_headEv, .-_ZNK3r2p11StaticList_8get_headEv
 732              		.align	2
 733              		.global	_ZNK3r2p11StaticList_8is_emptyEv
 734              		.thumb
 735              		.thumb_func
 736              		.type	_ZNK3r2p11StaticList_8is_emptyEv, %function
 737              	_ZNK3r2p11StaticList_8is_emptyEv:
 738              	.LFB49:
ARM GAS  /tmp/cc7gAN1M.s 			page 14


 739              		.loc 5 92 0
 740              		.cfi_startproc
 741              		@ args = 0, pretend = 0, frame = 16
 742              		@ frame_needed = 0, uses_anonymous_args = 0
 743 01a4 00B5     		push	{lr}
 744              		.cfi_def_cfa_offset 4
 745              		.cfi_offset 14, -4
 746 01a6 85B0     		sub	sp, sp, #20
 747              		.cfi_def_cfa_offset 24
 748 01a8 0190     		str	r0, [sp, #4]
 749              	.LBB21:
 750              		.loc 5 94 0
 751 01aa FFF7FEFF 		bl	_ZN3r2p7SysLock7acquireEv
 752              		.loc 5 95 0
 753 01ae 0198     		ldr	r0, [sp, #4]
 754 01b0 FFF7FEFF 		bl	_ZNK3r2p11StaticList_15is_empty_unsafeEv
 755 01b4 0346     		mov	r3, r0
 756 01b6 8DF80F30 		strb	r3, [sp, #15]
 757              		.loc 5 96 0
 758 01ba FFF7FEFF 		bl	_ZN3r2p7SysLock7releaseEv
 759              		.loc 5 97 0
 760 01be 9DF80F30 		ldrb	r3, [sp, #15]	@ zero_extendqisi2
 761              	.LBE21:
 762              		.loc 5 98 0
 763 01c2 1846     		mov	r0, r3
 764 01c4 05B0     		add	sp, sp, #20
 765              		.cfi_def_cfa_offset 4
 766              		@ sp needed
 767 01c6 5DF804FB 		ldr	pc, [sp], #4
 768              		.cfi_endproc
 769              	.LFE49:
 770              		.size	_ZNK3r2p11StaticList_8is_emptyEv, .-_ZNK3r2p11StaticList_8is_emptyEv
 771 01ca 00BF     		.align	2
 772              		.global	_ZNK3r2p11StaticList_5countEv
 773              		.thumb
 774              		.thumb_func
 775              		.type	_ZNK3r2p11StaticList_5countEv, %function
 776              	_ZNK3r2p11StaticList_5countEv:
 777              	.LFB50:
 778              		.loc 5 101 0
 779              		.cfi_startproc
 780              		@ args = 0, pretend = 0, frame = 16
 781              		@ frame_needed = 0, uses_anonymous_args = 0
 782 01cc 00B5     		push	{lr}
 783              		.cfi_def_cfa_offset 4
 784              		.cfi_offset 14, -4
 785 01ce 85B0     		sub	sp, sp, #20
 786              		.cfi_def_cfa_offset 24
 787 01d0 0190     		str	r0, [sp, #4]
 788              	.LBB22:
 789              		.loc 5 103 0
 790 01d2 0023     		movs	r3, #0
 791 01d4 0393     		str	r3, [sp, #12]
 792              		.loc 5 104 0
 793 01d6 FFF7FEFF 		bl	_ZN3r2p7SysLock7acquireEv
 794              	.LBB23:
 795              		.loc 5 105 0
ARM GAS  /tmp/cc7gAN1M.s 			page 15


 796 01da 019B     		ldr	r3, [sp, #4]
 797 01dc 1B68     		ldr	r3, [r3]
 798 01de 0293     		str	r3, [sp, #8]
 799 01e0 09E0     		b	.L57
 800              	.L58:
 801              		.loc 5 106 0 discriminator 3
 802 01e2 FFF7FEFF 		bl	_ZN3r2p7SysLock7releaseEv
 803              		.loc 5 107 0 discriminator 3
 804 01e6 039B     		ldr	r3, [sp, #12]
 805 01e8 0133     		adds	r3, r3, #1
 806 01ea 0393     		str	r3, [sp, #12]
 807              		.loc 5 108 0 discriminator 3
 808 01ec FFF7FEFF 		bl	_ZN3r2p7SysLock7acquireEv
 809              		.loc 5 105 0 discriminator 3
 810 01f0 029B     		ldr	r3, [sp, #8]
 811 01f2 1B68     		ldr	r3, [r3]
 812 01f4 0293     		str	r3, [sp, #8]
 813              	.L57:
 814              		.loc 5 105 0 is_stmt 0 discriminator 1
 815 01f6 029B     		ldr	r3, [sp, #8]
 816 01f8 002B     		cmp	r3, #0
 817 01fa F2D1     		bne	.L58
 818              	.LBE23:
 819              		.loc 5 110 0 is_stmt 1
 820 01fc FFF7FEFF 		bl	_ZN3r2p7SysLock7releaseEv
 821              		.loc 5 111 0
 822 0200 039B     		ldr	r3, [sp, #12]
 823              	.LBE22:
 824              		.loc 5 112 0
 825 0202 1846     		mov	r0, r3
 826 0204 05B0     		add	sp, sp, #20
 827              		.cfi_def_cfa_offset 4
 828              		@ sp needed
 829 0206 5DF804FB 		ldr	pc, [sp], #4
 830              		.cfi_endproc
 831              	.LFE50:
 832              		.size	_ZNK3r2p11StaticList_5countEv, .-_ZNK3r2p11StaticList_5countEv
 833 020a 00BF     		.align	2
 834              		.global	_ZN3r2p11StaticList_4linkERNS0_4LinkE
 835              		.thumb
 836              		.thumb_func
 837              		.type	_ZN3r2p11StaticList_4linkERNS0_4LinkE, %function
 838              	_ZN3r2p11StaticList_4linkERNS0_4LinkE:
 839              	.LFB51:
 840              		.loc 5 115 0
 841              		.cfi_startproc
 842              		@ args = 0, pretend = 0, frame = 8
 843              		@ frame_needed = 0, uses_anonymous_args = 0
 844 020c 00B5     		push	{lr}
 845              		.cfi_def_cfa_offset 4
 846              		.cfi_offset 14, -4
 847 020e 83B0     		sub	sp, sp, #12
 848              		.cfi_def_cfa_offset 16
 849 0210 0190     		str	r0, [sp, #4]
 850 0212 0091     		str	r1, [sp]
 851              		.loc 5 117 0
 852 0214 FFF7FEFF 		bl	_ZN3r2p7SysLock7acquireEv
ARM GAS  /tmp/cc7gAN1M.s 			page 16


 853              		.loc 5 118 0
 854 0218 0198     		ldr	r0, [sp, #4]
 855 021a 0099     		ldr	r1, [sp]
 856 021c FFF7FEFF 		bl	_ZN3r2p11StaticList_11link_unsafeERNS0_4LinkE
 857              		.loc 5 119 0
 858 0220 FFF7FEFF 		bl	_ZN3r2p7SysLock7releaseEv
 859              		.loc 5 120 0
 860 0224 03B0     		add	sp, sp, #12
 861              		.cfi_def_cfa_offset 4
 862              		@ sp needed
 863 0226 5DF804FB 		ldr	pc, [sp], #4
 864              		.cfi_endproc
 865              	.LFE51:
 866              		.size	_ZN3r2p11StaticList_4linkERNS0_4LinkE, .-_ZN3r2p11StaticList_4linkERNS0_4LinkE
 867 022a 00BF     		.align	2
 868              		.global	_ZN3r2p11StaticList_6unlinkERNS0_4LinkE
 869              		.thumb
 870              		.thumb_func
 871              		.type	_ZN3r2p11StaticList_6unlinkERNS0_4LinkE, %function
 872              	_ZN3r2p11StaticList_6unlinkERNS0_4LinkE:
 873              	.LFB52:
 874              		.loc 5 123 0
 875              		.cfi_startproc
 876              		@ args = 0, pretend = 0, frame = 16
 877              		@ frame_needed = 0, uses_anonymous_args = 0
 878 022c 00B5     		push	{lr}
 879              		.cfi_def_cfa_offset 4
 880              		.cfi_offset 14, -4
 881 022e 85B0     		sub	sp, sp, #20
 882              		.cfi_def_cfa_offset 24
 883 0230 0190     		str	r0, [sp, #4]
 884 0232 0091     		str	r1, [sp]
 885              	.LBB24:
 886              		.loc 5 125 0
 887 0234 FFF7FEFF 		bl	_ZN3r2p7SysLock7acquireEv
 888              		.loc 5 126 0
 889 0238 0198     		ldr	r0, [sp, #4]
 890 023a 0099     		ldr	r1, [sp]
 891 023c FFF7FEFF 		bl	_ZN3r2p11StaticList_13unlink_unsafeERNS0_4LinkE
 892 0240 0346     		mov	r3, r0
 893 0242 8DF80F30 		strb	r3, [sp, #15]
 894              		.loc 5 127 0
 895 0246 FFF7FEFF 		bl	_ZN3r2p7SysLock7releaseEv
 896              		.loc 5 128 0
 897 024a 9DF80F30 		ldrb	r3, [sp, #15]	@ zero_extendqisi2
 898              	.LBE24:
 899              		.loc 5 129 0
 900 024e 1846     		mov	r0, r3
 901 0250 05B0     		add	sp, sp, #20
 902              		.cfi_def_cfa_offset 4
 903              		@ sp needed
 904 0252 5DF804FB 		ldr	pc, [sp], #4
 905              		.cfi_endproc
 906              	.LFE52:
 907              		.size	_ZN3r2p11StaticList_6unlinkERNS0_4LinkE, .-_ZN3r2p11StaticList_6unlinkERNS0_4LinkE
 908 0256 00BF     		.align	2
 909              		.global	_ZNK3r2p11StaticList_8index_ofEPKv
ARM GAS  /tmp/cc7gAN1M.s 			page 17


 910              		.thumb
 911              		.thumb_func
 912              		.type	_ZNK3r2p11StaticList_8index_ofEPKv, %function
 913              	_ZNK3r2p11StaticList_8index_ofEPKv:
 914              	.LFB53:
 915              		.loc 5 132 0
 916              		.cfi_startproc
 917              		@ args = 0, pretend = 0, frame = 16
 918              		@ frame_needed = 0, uses_anonymous_args = 0
 919 0258 00B5     		push	{lr}
 920              		.cfi_def_cfa_offset 4
 921              		.cfi_offset 14, -4
 922 025a 85B0     		sub	sp, sp, #20
 923              		.cfi_def_cfa_offset 24
 924 025c 0190     		str	r0, [sp, #4]
 925 025e 0091     		str	r1, [sp]
 926              	.LBB25:
 927              		.loc 5 134 0
 928 0260 009B     		ldr	r3, [sp]
 929 0262 002B     		cmp	r3, #0
 930 0264 02D1     		bne	.L64
 931              		.loc 5 134 0 is_stmt 0 discriminator 1
 932 0266 4FF0FF33 		mov	r3, #-1
 933 026a 1FE0     		b	.L65
 934              	.L64:
 935              		.loc 5 136 0 is_stmt 1
 936 026c 0023     		movs	r3, #0
 937 026e 0393     		str	r3, [sp, #12]
 938              		.loc 5 137 0
 939 0270 FFF7FEFF 		bl	_ZN3r2p7SysLock7acquireEv
 940              	.LBB26:
 941              		.loc 5 138 0
 942 0274 019B     		ldr	r3, [sp, #4]
 943 0276 1B68     		ldr	r3, [r3]
 944 0278 0293     		str	r3, [sp, #8]
 945 027a 10E0     		b	.L66
 946              	.L68:
 947              		.loc 5 139 0
 948 027c FFF7FEFF 		bl	_ZN3r2p7SysLock7releaseEv
 949              		.loc 5 140 0
 950 0280 029B     		ldr	r3, [sp, #8]
 951 0282 5A68     		ldr	r2, [r3, #4]
 952 0284 009B     		ldr	r3, [sp]
 953 0286 9A42     		cmp	r2, r3
 954 0288 01D1     		bne	.L67
 955              		.loc 5 141 0
 956 028a 039B     		ldr	r3, [sp, #12]
 957 028c 0EE0     		b	.L65
 958              	.L67:
 959              		.loc 5 143 0 discriminator 2
 960 028e FFF7FEFF 		bl	_ZN3r2p7SysLock7acquireEv
 961              		.loc 5 138 0 discriminator 2
 962 0292 039B     		ldr	r3, [sp, #12]
 963 0294 0133     		adds	r3, r3, #1
 964 0296 0393     		str	r3, [sp, #12]
 965 0298 029B     		ldr	r3, [sp, #8]
 966 029a 1B68     		ldr	r3, [r3]
ARM GAS  /tmp/cc7gAN1M.s 			page 18


 967 029c 0293     		str	r3, [sp, #8]
 968              	.L66:
 969              		.loc 5 138 0 is_stmt 0 discriminator 1
 970 029e 029B     		ldr	r3, [sp, #8]
 971 02a0 002B     		cmp	r3, #0
 972 02a2 EBD1     		bne	.L68
 973              	.LBE26:
 974              		.loc 5 145 0 is_stmt 1
 975 02a4 FFF7FEFF 		bl	_ZN3r2p7SysLock7releaseEv
 976              		.loc 5 146 0
 977 02a8 4FF0FF33 		mov	r3, #-1
 978              	.L65:
 979              	.LBE25:
 980              		.loc 5 147 0
 981 02ac 1846     		mov	r0, r3
 982 02ae 05B0     		add	sp, sp, #20
 983              		.cfi_def_cfa_offset 4
 984              		@ sp needed
 985 02b0 5DF804FB 		ldr	pc, [sp], #4
 986              		.cfi_endproc
 987              	.LFE53:
 988              		.size	_ZNK3r2p11StaticList_8index_ofEPKv, .-_ZNK3r2p11StaticList_8index_ofEPKv
 989              		.align	2
 990              		.global	_ZNK3r2p11StaticList_8containsEPKv
 991              		.thumb
 992              		.thumb_func
 993              		.type	_ZNK3r2p11StaticList_8containsEPKv, %function
 994              	_ZNK3r2p11StaticList_8containsEPKv:
 995              	.LFB54:
 996              		.loc 5 150 0
 997              		.cfi_startproc
 998              		@ args = 0, pretend = 0, frame = 16
 999              		@ frame_needed = 0, uses_anonymous_args = 0
 1000 02b4 00B5     		push	{lr}
 1001              		.cfi_def_cfa_offset 4
 1002              		.cfi_offset 14, -4
 1003 02b6 85B0     		sub	sp, sp, #20
 1004              		.cfi_def_cfa_offset 24
 1005 02b8 0190     		str	r0, [sp, #4]
 1006 02ba 0091     		str	r1, [sp]
 1007              	.LBB27:
 1008              		.loc 5 152 0
 1009 02bc FFF7FEFF 		bl	_ZN3r2p7SysLock7acquireEv
 1010              	.LBB28:
 1011              		.loc 5 153 0
 1012 02c0 019B     		ldr	r3, [sp, #4]
 1013 02c2 1B68     		ldr	r3, [r3]
 1014 02c4 0393     		str	r3, [sp, #12]
 1015 02c6 0FE0     		b	.L70
 1016              	.L73:
 1017              		.loc 5 154 0
 1018 02c8 039B     		ldr	r3, [sp, #12]
 1019 02ca 5A68     		ldr	r2, [r3, #4]
 1020 02cc 009B     		ldr	r3, [sp]
 1021 02ce 9A42     		cmp	r2, r3
 1022 02d0 03D1     		bne	.L71
 1023              		.loc 5 155 0
ARM GAS  /tmp/cc7gAN1M.s 			page 19


 1024 02d2 FFF7FEFF 		bl	_ZN3r2p7SysLock7releaseEv
 1025              		.loc 5 156 0
 1026 02d6 0123     		movs	r3, #1
 1027 02d8 0CE0     		b	.L72
 1028              	.L71:
 1029              		.loc 5 158 0 discriminator 2
 1030 02da FFF7FEFF 		bl	_ZN3r2p7SysLock7releaseEv
 1031              		.loc 5 159 0 discriminator 2
 1032 02de FFF7FEFF 		bl	_ZN3r2p7SysLock7acquireEv
 1033              		.loc 5 153 0 discriminator 2
 1034 02e2 039B     		ldr	r3, [sp, #12]
 1035 02e4 1B68     		ldr	r3, [r3]
 1036 02e6 0393     		str	r3, [sp, #12]
 1037              	.L70:
 1038              		.loc 5 153 0 is_stmt 0 discriminator 1
 1039 02e8 039B     		ldr	r3, [sp, #12]
 1040 02ea 002B     		cmp	r3, #0
 1041 02ec ECD1     		bne	.L73
 1042              	.LBE28:
 1043              		.loc 5 161 0 is_stmt 1
 1044 02ee FFF7FEFF 		bl	_ZN3r2p7SysLock7releaseEv
 1045              		.loc 5 162 0
 1046 02f2 0023     		movs	r3, #0
 1047              	.L72:
 1048              	.LBE27:
 1049              		.loc 5 163 0
 1050 02f4 1846     		mov	r0, r3
 1051 02f6 05B0     		add	sp, sp, #20
 1052              		.cfi_def_cfa_offset 4
 1053              		@ sp needed
 1054 02f8 5DF804FB 		ldr	pc, [sp], #4
 1055              		.cfi_endproc
 1056              	.LFE54:
 1057              		.size	_ZNK3r2p11StaticList_8containsEPKv, .-_ZNK3r2p11StaticList_8containsEPKv
 1058              		.align	2
 1059              		.global	_ZNK3r2p11StaticList_10find_firstEPFbPKvE
 1060              		.thumb
 1061              		.thumb_func
 1062              		.type	_ZNK3r2p11StaticList_10find_firstEPFbPKvE, %function
 1063              	_ZNK3r2p11StaticList_10find_firstEPFbPKvE:
 1064              	.LFB55:
 1065              		.loc 5 166 0
 1066              		.cfi_startproc
 1067              		@ args = 0, pretend = 0, frame = 16
 1068              		@ frame_needed = 0, uses_anonymous_args = 0
 1069 02fc 00B5     		push	{lr}
 1070              		.cfi_def_cfa_offset 4
 1071              		.cfi_offset 14, -4
 1072 02fe 85B0     		sub	sp, sp, #20
 1073              		.cfi_def_cfa_offset 24
 1074 0300 0190     		str	r0, [sp, #4]
 1075 0302 0091     		str	r1, [sp]
 1076              	.LBB29:
 1077              		.loc 5 168 0
 1078 0304 FFF7FEFF 		bl	_ZN3r2p7SysLock7acquireEv
 1079              	.LBB30:
 1080              		.loc 5 169 0
ARM GAS  /tmp/cc7gAN1M.s 			page 20


 1081 0308 019B     		ldr	r3, [sp, #4]
 1082 030a 1B68     		ldr	r3, [r3]
 1083 030c 0393     		str	r3, [sp, #12]
 1084 030e 11E0     		b	.L75
 1085              	.L78:
 1086              		.loc 5 170 0
 1087 0310 FFF7FEFF 		bl	_ZN3r2p7SysLock7releaseEv
 1088              		.loc 5 171 0
 1089 0314 039B     		ldr	r3, [sp, #12]
 1090 0316 5A68     		ldr	r2, [r3, #4]
 1091 0318 009B     		ldr	r3, [sp]
 1092 031a 1046     		mov	r0, r2
 1093 031c 9847     		blx	r3
 1094 031e 0346     		mov	r3, r0
 1095 0320 002B     		cmp	r3, #0
 1096 0322 02D0     		beq	.L76
 1097              		.loc 5 172 0
 1098 0324 039B     		ldr	r3, [sp, #12]
 1099 0326 5B68     		ldr	r3, [r3, #4]
 1100 0328 0AE0     		b	.L77
 1101              	.L76:
 1102              		.loc 5 174 0 discriminator 2
 1103 032a FFF7FEFF 		bl	_ZN3r2p7SysLock7acquireEv
 1104              		.loc 5 169 0 discriminator 2
 1105 032e 039B     		ldr	r3, [sp, #12]
 1106 0330 1B68     		ldr	r3, [r3]
 1107 0332 0393     		str	r3, [sp, #12]
 1108              	.L75:
 1109              		.loc 5 169 0 is_stmt 0 discriminator 1
 1110 0334 039B     		ldr	r3, [sp, #12]
 1111 0336 002B     		cmp	r3, #0
 1112 0338 EAD1     		bne	.L78
 1113              	.LBE30:
 1114              		.loc 5 176 0 is_stmt 1
 1115 033a FFF7FEFF 		bl	_ZN3r2p7SysLock7releaseEv
 1116              		.loc 5 177 0
 1117 033e 0023     		movs	r3, #0
 1118              	.L77:
 1119              	.LBE29:
 1120              		.loc 5 178 0
 1121 0340 1846     		mov	r0, r3
 1122 0342 05B0     		add	sp, sp, #20
 1123              		.cfi_def_cfa_offset 4
 1124              		@ sp needed
 1125 0344 5DF804FB 		ldr	pc, [sp], #4
 1126              		.cfi_endproc
 1127              	.LFE55:
 1128              		.size	_ZNK3r2p11StaticList_10find_firstEPFbPKvE, .-_ZNK3r2p11StaticList_10find_firstEPFbPKvE
 1129              		.align	2
 1130              		.global	_ZNK3r2p11StaticList_10find_firstEPFbPKvS2_ES2_
 1131              		.thumb
 1132              		.thumb_func
 1133              		.type	_ZNK3r2p11StaticList_10find_firstEPFbPKvS2_ES2_, %function
 1134              	_ZNK3r2p11StaticList_10find_firstEPFbPKvS2_ES2_:
 1135              	.LFB56:
 1136              		.loc 5 182 0
 1137              		.cfi_startproc
ARM GAS  /tmp/cc7gAN1M.s 			page 21


 1138              		@ args = 0, pretend = 0, frame = 24
 1139              		@ frame_needed = 0, uses_anonymous_args = 0
 1140 0348 00B5     		push	{lr}
 1141              		.cfi_def_cfa_offset 4
 1142              		.cfi_offset 14, -4
 1143 034a 87B0     		sub	sp, sp, #28
 1144              		.cfi_def_cfa_offset 32
 1145 034c 0390     		str	r0, [sp, #12]
 1146 034e 0291     		str	r1, [sp, #8]
 1147 0350 0192     		str	r2, [sp, #4]
 1148              	.LBB31:
 1149              		.loc 5 184 0
 1150 0352 019B     		ldr	r3, [sp, #4]
 1151 0354 002B     		cmp	r3, #0
 1152 0356 02D1     		bne	.L80
 1153              		.loc 5 184 0 is_stmt 0 discriminator 1
 1154 0358 1248     		ldr	r0, .L85
 1155 035a FFF7FEFF 		bl	chDbgPanic
 1156              	.L80:
 1157              		.loc 5 186 0 is_stmt 1
 1158 035e FFF7FEFF 		bl	_ZN3r2p7SysLock7acquireEv
 1159              	.LBB32:
 1160              		.loc 5 187 0
 1161 0362 039B     		ldr	r3, [sp, #12]
 1162 0364 1B68     		ldr	r3, [r3]
 1163 0366 0593     		str	r3, [sp, #20]
 1164 0368 12E0     		b	.L81
 1165              	.L84:
 1166              		.loc 5 188 0
 1167 036a FFF7FEFF 		bl	_ZN3r2p7SysLock7releaseEv
 1168              		.loc 5 189 0
 1169 036e 059B     		ldr	r3, [sp, #20]
 1170 0370 5A68     		ldr	r2, [r3, #4]
 1171 0372 029B     		ldr	r3, [sp, #8]
 1172 0374 1046     		mov	r0, r2
 1173 0376 0199     		ldr	r1, [sp, #4]
 1174 0378 9847     		blx	r3
 1175 037a 0346     		mov	r3, r0
 1176 037c 002B     		cmp	r3, #0
 1177 037e 02D0     		beq	.L82
 1178              		.loc 5 190 0
 1179 0380 059B     		ldr	r3, [sp, #20]
 1180 0382 5B68     		ldr	r3, [r3, #4]
 1181 0384 0AE0     		b	.L83
 1182              	.L82:
 1183              		.loc 5 192 0 discriminator 2
 1184 0386 FFF7FEFF 		bl	_ZN3r2p7SysLock7acquireEv
 1185              		.loc 5 187 0 discriminator 2
 1186 038a 059B     		ldr	r3, [sp, #20]
 1187 038c 1B68     		ldr	r3, [r3]
 1188 038e 0593     		str	r3, [sp, #20]
 1189              	.L81:
 1190              		.loc 5 187 0 is_stmt 0 discriminator 1
 1191 0390 059B     		ldr	r3, [sp, #20]
 1192 0392 002B     		cmp	r3, #0
 1193 0394 E9D1     		bne	.L84
 1194              	.LBE32:
ARM GAS  /tmp/cc7gAN1M.s 			page 22


 1195              		.loc 5 194 0 is_stmt 1
 1196 0396 FFF7FEFF 		bl	_ZN3r2p7SysLock7releaseEv
 1197              		.loc 5 195 0
 1198 039a 0023     		movs	r3, #0
 1199              	.L83:
 1200              	.LBE31:
 1201              		.loc 5 196 0
 1202 039c 1846     		mov	r0, r3
 1203 039e 07B0     		add	sp, sp, #28
 1204              		.cfi_def_cfa_offset 4
 1205              		@ sp needed
 1206 03a0 5DF804FB 		ldr	pc, [sp], #4
 1207              	.L86:
 1208              		.align	2
 1209              	.L85:
 1210 03a4 00000000 		.word	.LC0
 1211              		.cfi_endproc
 1212              	.LFE56:
 1213              		.size	_ZNK3r2p11StaticList_10find_firstEPFbPKvS2_ES2_, .-_ZNK3r2p11StaticList_10find_firstEPFbPKvS
 1214              		.align	2
 1215              		.global	_ZN3r2p11StaticList_C2Ev
 1216              		.thumb
 1217              		.thumb_func
 1218              		.type	_ZN3r2p11StaticList_C2Ev, %function
 1219              	_ZN3r2p11StaticList_C2Ev:
 1220              	.LFB58:
 1221              		.loc 5 199 0
 1222              		.cfi_startproc
 1223              		@ args = 0, pretend = 0, frame = 8
 1224              		@ frame_needed = 0, uses_anonymous_args = 0
 1225 03a8 00B5     		push	{lr}
 1226              		.cfi_def_cfa_offset 4
 1227              		.cfi_offset 14, -4
 1228 03aa 83B0     		sub	sp, sp, #12
 1229              		.cfi_def_cfa_offset 16
 1230 03ac 0190     		str	r0, [sp, #4]
 1231              	.LBB33:
 1232              		.loc 5 201 0
 1233 03ae 0198     		ldr	r0, [sp, #4]
 1234 03b0 FFF7FEFF 		bl	_ZN3r2p10UncopyableC2Ev
 1235 03b4 019B     		ldr	r3, [sp, #4]
 1236 03b6 0022     		movs	r2, #0
 1237 03b8 1A60     		str	r2, [r3]
 1238              	.LBE33:
 1239              		.loc 5 202 0
 1240 03ba 019B     		ldr	r3, [sp, #4]
 1241 03bc 1846     		mov	r0, r3
 1242 03be 03B0     		add	sp, sp, #12
 1243              		.cfi_def_cfa_offset 4
 1244              		@ sp needed
 1245 03c0 5DF804FB 		ldr	pc, [sp], #4
 1246              		.cfi_endproc
 1247              	.LFE58:
 1248              		.size	_ZN3r2p11StaticList_C2Ev, .-_ZN3r2p11StaticList_C2Ev
 1249              		.global	_ZN3r2p11StaticList_C1Ev
 1250              		.thumb_set _ZN3r2p11StaticList_C1Ev,_ZN3r2p11StaticList_C2Ev
 1251              	.Letext0:
ARM GAS  /tmp/cc7gAN1M.s 			page 23


 1252              		.file 6 "/opt/R2P/tools/gcc-arm-none-eabi-4_9-2014q4/lib/gcc/arm-none-eabi/4.9.3/include/stddef.h"
 1253              		.file 7 "/opt/R2P/tools/gcc-arm-none-eabi-4_9-2014q4/arm-none-eabi/include/machine/_default_types.
 1254              		.file 8 "/opt/R2P/tools/gcc-arm-none-eabi-4_9-2014q4/arm-none-eabi/include/c++/4.9.3/cstring"
 1255              		.file 9 "/opt/R2P/tools/gcc-arm-none-eabi-4_9-2014q4/arm-none-eabi/include/string.h"
 1256              		.file 10 "<built-in>"
 1257              		.file 11 "/opt/R2P/tools/gcc-arm-none-eabi-4_9-2014q4/arm-none-eabi/include/stdint.h"