ARM GAS  /tmp/ccIIWmhs.s 			page 1


   1              		.syntax unified
   2              		.cpu cortex-m4
   3              		.fpu softvfp
   4              		.eabi_attribute 20, 1
   5              		.eabi_attribute 21, 1
   6              		.eabi_attribute 23, 3
   7              		.eabi_attribute 24, 1
   8              		.eabi_attribute 25, 1
   9              		.eabi_attribute 26, 1
  10              		.eabi_attribute 30, 6
  11              		.eabi_attribute 34, 1
  12              		.eabi_attribute 18, 4
  13              		.thumb
  14              		.file	"stm32_dma.c"
  15              		.text
  16              	.Ltext0:
  17              		.cfi_sections	.debug_frame
  18              		.global	_stm32_dma_streams
  19              		.section	.rodata
  20              		.align	2
  21              		.type	_stm32_dma_streams, %object
  22              		.size	_stm32_dma_streams, 144
  23              	_stm32_dma_streams:
  24 0000 08000240 		.word	1073872904
  25 0004 04000240 		.word	1073872900
  26 0008 00       		.byte	0
  27 0009 00       		.byte	0
  28 000a 0B       		.byte	11
  29 000b 00       		.space	1
  30 000c 1C000240 		.word	1073872924
  31 0010 04000240 		.word	1073872900
  32 0014 04       		.byte	4
  33 0015 01       		.byte	1
  34 0016 0C       		.byte	12
  35 0017 00       		.space	1
  36 0018 30000240 		.word	1073872944
  37 001c 04000240 		.word	1073872900
  38 0020 08       		.byte	8
  39 0021 02       		.byte	2
  40 0022 0D       		.byte	13
  41 0023 00       		.space	1
  42 0024 44000240 		.word	1073872964
  43 0028 04000240 		.word	1073872900
  44 002c 0C       		.byte	12
  45 002d 03       		.byte	3
  46 002e 0E       		.byte	14
  47 002f 00       		.space	1
  48 0030 58000240 		.word	1073872984
  49 0034 04000240 		.word	1073872900
  50 0038 10       		.byte	16
  51 0039 04       		.byte	4
  52 003a 0F       		.byte	15
  53 003b 00       		.space	1
  54 003c 6C000240 		.word	1073873004
  55 0040 04000240 		.word	1073872900
  56 0044 14       		.byte	20
  57 0045 05       		.byte	5
ARM GAS  /tmp/ccIIWmhs.s 			page 2


  58 0046 10       		.byte	16
  59 0047 00       		.space	1
  60 0048 80000240 		.word	1073873024
  61 004c 04000240 		.word	1073872900
  62 0050 18       		.byte	24
  63 0051 06       		.byte	6
  64 0052 11       		.byte	17
  65 0053 00       		.space	1
  66 0054 08040240 		.word	1073873928
  67 0058 04040240 		.word	1073873924
  68 005c 00       		.byte	0
  69 005d 07       		.byte	7
  70 005e 38       		.byte	56
  71 005f 00       		.space	1
  72 0060 1C040240 		.word	1073873948
  73 0064 04040240 		.word	1073873924
  74 0068 04       		.byte	4
  75 0069 08       		.byte	8
  76 006a 39       		.byte	57
  77 006b 00       		.space	1
  78 006c 30040240 		.word	1073873968
  79 0070 04040240 		.word	1073873924
  80 0074 08       		.byte	8
  81 0075 09       		.byte	9
  82 0076 3A       		.byte	58
  83 0077 00       		.space	1
  84 0078 44040240 		.word	1073873988
  85 007c 04040240 		.word	1073873924
  86 0080 0C       		.byte	12
  87 0081 0A       		.byte	10
  88 0082 3B       		.byte	59
  89 0083 00       		.space	1
  90 0084 58040240 		.word	1073874008
  91 0088 04040240 		.word	1073873924
  92 008c 10       		.byte	16
  93 008d 0B       		.byte	11
  94 008e 3C       		.byte	60
  95 008f 00       		.space	1
  96              		.bss
  97              		.align	2
  98              	dma_streams_mask:
  99 0000 00000000 		.space	4
 100              		.align	2
 101              	dma_isr_redir:
 102 0004 00000000 		.space	96
 102      00000000 
 102      00000000 
 102      00000000 
 102      00000000 
 103              		.text
 104              		.align	2
 105              		.global	Vector6C
 106              		.thumb
 107              		.thumb_func
 108              		.type	Vector6C, %function
 109              	Vector6C:
 110              	.LFB118:
ARM GAS  /tmp/ccIIWmhs.s 			page 3


 111              		.file 1 "/opt/R2P/core/ChibiOS_2.6.5/os/hal/platforms/STM32F30x/stm32_dma.c"
 112              		.loc 1 119 0
 113              		.cfi_startproc
 114              		@ args = 0, pretend = 0, frame = 8
 115              		@ frame_needed = 0, uses_anonymous_args = 0
 116 0000 00B5     		push	{lr}
 117              		.cfi_def_cfa_offset 4
 118              		.cfi_offset 14, -4
 119 0002 83B0     		sub	sp, sp, #12
 120              		.cfi_def_cfa_offset 16
 121              		.loc 1 122 0
 122 0004 FFF7FEFF 		bl	dbg_check_enter_isr
 123              		.loc 1 124 0
 124 0008 0C4B     		ldr	r3, .L3
 125 000a 1B68     		ldr	r3, [r3]
 126 000c 03F00F03 		and	r3, r3, #15
 127 0010 0193     		str	r3, [sp, #4]
 128              		.loc 1 125 0
 129 0012 0A4A     		ldr	r2, .L3
 130 0014 019B     		ldr	r3, [sp, #4]
 131 0016 5360     		str	r3, [r2, #4]
 132              		.loc 1 126 0
 133 0018 094B     		ldr	r3, .L3+4
 134 001a 1B68     		ldr	r3, [r3]
 135 001c 002B     		cmp	r3, #0
 136 001e 06D0     		beq	.L2
 137              		.loc 1 127 0
 138 0020 074B     		ldr	r3, .L3+4
 139 0022 1B68     		ldr	r3, [r3]
 140 0024 064A     		ldr	r2, .L3+4
 141 0026 5268     		ldr	r2, [r2, #4]
 142 0028 1046     		mov	r0, r2
 143 002a 0199     		ldr	r1, [sp, #4]
 144 002c 9847     		blx	r3
 145              	.L2:
 146              		.loc 1 129 0
 147 002e FFF7FEFF 		bl	dbg_check_leave_isr
 148 0032 FFF7FEFF 		bl	_port_irq_epilogue
 149              		.loc 1 130 0
 150 0036 03B0     		add	sp, sp, #12
 151              		.cfi_def_cfa_offset 4
 152              		@ sp needed
 153 0038 5DF804FB 		ldr	pc, [sp], #4
 154              	.L4:
 155              		.align	2
 156              	.L3:
 157 003c 00000240 		.word	1073872896
 158 0040 04000000 		.word	dma_isr_redir
 159              		.cfi_endproc
 160              	.LFE118:
 161              		.size	Vector6C, .-Vector6C
 162              		.align	2
 163              		.global	Vector70
 164              		.thumb
 165              		.thumb_func
 166              		.type	Vector70, %function
 167              	Vector70:
ARM GAS  /tmp/ccIIWmhs.s 			page 4


 168              	.LFB119:
 169              		.loc 1 137 0
 170              		.cfi_startproc
 171              		@ args = 0, pretend = 0, frame = 8
 172              		@ frame_needed = 0, uses_anonymous_args = 0
 173 0044 00B5     		push	{lr}
 174              		.cfi_def_cfa_offset 4
 175              		.cfi_offset 14, -4
 176 0046 83B0     		sub	sp, sp, #12
 177              		.cfi_def_cfa_offset 16
 178              		.loc 1 140 0
 179 0048 FFF7FEFF 		bl	dbg_check_enter_isr
 180              		.loc 1 142 0
 181 004c 0D4B     		ldr	r3, .L7
 182 004e 1B68     		ldr	r3, [r3]
 183 0050 1B09     		lsrs	r3, r3, #4
 184 0052 03F00F03 		and	r3, r3, #15
 185 0056 0193     		str	r3, [sp, #4]
 186              		.loc 1 143 0
 187 0058 0A4A     		ldr	r2, .L7
 188 005a 019B     		ldr	r3, [sp, #4]
 189 005c 1B01     		lsls	r3, r3, #4
 190 005e 5360     		str	r3, [r2, #4]
 191              		.loc 1 144 0
 192 0060 094B     		ldr	r3, .L7+4
 193 0062 9B68     		ldr	r3, [r3, #8]
 194 0064 002B     		cmp	r3, #0
 195 0066 06D0     		beq	.L6
 196              		.loc 1 145 0
 197 0068 074B     		ldr	r3, .L7+4
 198 006a 9B68     		ldr	r3, [r3, #8]
 199 006c 064A     		ldr	r2, .L7+4
 200 006e D268     		ldr	r2, [r2, #12]
 201 0070 1046     		mov	r0, r2
 202 0072 0199     		ldr	r1, [sp, #4]
 203 0074 9847     		blx	r3
 204              	.L6:
 205              		.loc 1 147 0
 206 0076 FFF7FEFF 		bl	dbg_check_leave_isr
 207 007a FFF7FEFF 		bl	_port_irq_epilogue
 208              		.loc 1 148 0
 209 007e 03B0     		add	sp, sp, #12
 210              		.cfi_def_cfa_offset 4
 211              		@ sp needed
 212 0080 5DF804FB 		ldr	pc, [sp], #4
 213              	.L8:
 214              		.align	2
 215              	.L7:
 216 0084 00000240 		.word	1073872896
 217 0088 04000000 		.word	dma_isr_redir
 218              		.cfi_endproc
 219              	.LFE119:
 220              		.size	Vector70, .-Vector70
 221              		.align	2
 222              		.global	Vector74
 223              		.thumb
 224              		.thumb_func
ARM GAS  /tmp/ccIIWmhs.s 			page 5


 225              		.type	Vector74, %function
 226              	Vector74:
 227              	.LFB120:
 228              		.loc 1 155 0
 229              		.cfi_startproc
 230              		@ args = 0, pretend = 0, frame = 8
 231              		@ frame_needed = 0, uses_anonymous_args = 0
 232 008c 00B5     		push	{lr}
 233              		.cfi_def_cfa_offset 4
 234              		.cfi_offset 14, -4
 235 008e 83B0     		sub	sp, sp, #12
 236              		.cfi_def_cfa_offset 16
 237              		.loc 1 158 0
 238 0090 FFF7FEFF 		bl	dbg_check_enter_isr
 239              		.loc 1 160 0
 240 0094 0D4B     		ldr	r3, .L11
 241 0096 1B68     		ldr	r3, [r3]
 242 0098 1B0A     		lsrs	r3, r3, #8
 243 009a 03F00F03 		and	r3, r3, #15
 244 009e 0193     		str	r3, [sp, #4]
 245              		.loc 1 161 0
 246 00a0 0A4A     		ldr	r2, .L11
 247 00a2 019B     		ldr	r3, [sp, #4]
 248 00a4 1B02     		lsls	r3, r3, #8
 249 00a6 5360     		str	r3, [r2, #4]
 250              		.loc 1 162 0
 251 00a8 094B     		ldr	r3, .L11+4
 252 00aa 1B69     		ldr	r3, [r3, #16]
 253 00ac 002B     		cmp	r3, #0
 254 00ae 06D0     		beq	.L10
 255              		.loc 1 163 0
 256 00b0 074B     		ldr	r3, .L11+4
 257 00b2 1B69     		ldr	r3, [r3, #16]
 258 00b4 064A     		ldr	r2, .L11+4
 259 00b6 5269     		ldr	r2, [r2, #20]
 260 00b8 1046     		mov	r0, r2
 261 00ba 0199     		ldr	r1, [sp, #4]
 262 00bc 9847     		blx	r3
 263              	.L10:
 264              		.loc 1 165 0
 265 00be FFF7FEFF 		bl	dbg_check_leave_isr
 266 00c2 FFF7FEFF 		bl	_port_irq_epilogue
 267              		.loc 1 166 0
 268 00c6 03B0     		add	sp, sp, #12
 269              		.cfi_def_cfa_offset 4
 270              		@ sp needed
 271 00c8 5DF804FB 		ldr	pc, [sp], #4
 272              	.L12:
 273              		.align	2
 274              	.L11:
 275 00cc 00000240 		.word	1073872896
 276 00d0 04000000 		.word	dma_isr_redir
 277              		.cfi_endproc
 278              	.LFE120:
 279              		.size	Vector74, .-Vector74
 280              		.align	2
 281              		.global	Vector78
ARM GAS  /tmp/ccIIWmhs.s 			page 6


 282              		.thumb
 283              		.thumb_func
 284              		.type	Vector78, %function
 285              	Vector78:
 286              	.LFB121:
 287              		.loc 1 173 0
 288              		.cfi_startproc
 289              		@ args = 0, pretend = 0, frame = 8
 290              		@ frame_needed = 0, uses_anonymous_args = 0
 291 00d4 00B5     		push	{lr}
 292              		.cfi_def_cfa_offset 4
 293              		.cfi_offset 14, -4
 294 00d6 83B0     		sub	sp, sp, #12
 295              		.cfi_def_cfa_offset 16
 296              		.loc 1 176 0
 297 00d8 FFF7FEFF 		bl	dbg_check_enter_isr
 298              		.loc 1 178 0
 299 00dc 0D4B     		ldr	r3, .L15
 300 00de 1B68     		ldr	r3, [r3]
 301 00e0 1B0B     		lsrs	r3, r3, #12
 302 00e2 03F00F03 		and	r3, r3, #15
 303 00e6 0193     		str	r3, [sp, #4]
 304              		.loc 1 179 0
 305 00e8 0A4A     		ldr	r2, .L15
 306 00ea 019B     		ldr	r3, [sp, #4]
 307 00ec 1B03     		lsls	r3, r3, #12
 308 00ee 5360     		str	r3, [r2, #4]
 309              		.loc 1 180 0
 310 00f0 094B     		ldr	r3, .L15+4
 311 00f2 9B69     		ldr	r3, [r3, #24]
 312 00f4 002B     		cmp	r3, #0
 313 00f6 06D0     		beq	.L14
 314              		.loc 1 181 0
 315 00f8 074B     		ldr	r3, .L15+4
 316 00fa 9B69     		ldr	r3, [r3, #24]
 317 00fc 064A     		ldr	r2, .L15+4
 318 00fe D269     		ldr	r2, [r2, #28]
 319 0100 1046     		mov	r0, r2
 320 0102 0199     		ldr	r1, [sp, #4]
 321 0104 9847     		blx	r3
 322              	.L14:
 323              		.loc 1 183 0
 324 0106 FFF7FEFF 		bl	dbg_check_leave_isr
 325 010a FFF7FEFF 		bl	_port_irq_epilogue
 326              		.loc 1 184 0
 327 010e 03B0     		add	sp, sp, #12
 328              		.cfi_def_cfa_offset 4
 329              		@ sp needed
 330 0110 5DF804FB 		ldr	pc, [sp], #4
 331              	.L16:
 332              		.align	2
 333              	.L15:
 334 0114 00000240 		.word	1073872896
 335 0118 04000000 		.word	dma_isr_redir
 336              		.cfi_endproc
 337              	.LFE121:
 338              		.size	Vector78, .-Vector78
ARM GAS  /tmp/ccIIWmhs.s 			page 7


 339              		.align	2
 340              		.global	Vector7C
 341              		.thumb
 342              		.thumb_func
 343              		.type	Vector7C, %function
 344              	Vector7C:
 345              	.LFB122:
 346              		.loc 1 191 0
 347              		.cfi_startproc
 348              		@ args = 0, pretend = 0, frame = 8
 349              		@ frame_needed = 0, uses_anonymous_args = 0
 350 011c 00B5     		push	{lr}
 351              		.cfi_def_cfa_offset 4
 352              		.cfi_offset 14, -4
 353 011e 83B0     		sub	sp, sp, #12
 354              		.cfi_def_cfa_offset 16
 355              		.loc 1 194 0
 356 0120 FFF7FEFF 		bl	dbg_check_enter_isr
 357              		.loc 1 196 0
 358 0124 0D4B     		ldr	r3, .L19
 359 0126 1B68     		ldr	r3, [r3]
 360 0128 1B0C     		lsrs	r3, r3, #16
 361 012a 03F00F03 		and	r3, r3, #15
 362 012e 0193     		str	r3, [sp, #4]
 363              		.loc 1 197 0
 364 0130 0A4A     		ldr	r2, .L19
 365 0132 019B     		ldr	r3, [sp, #4]
 366 0134 1B04     		lsls	r3, r3, #16
 367 0136 5360     		str	r3, [r2, #4]
 368              		.loc 1 198 0
 369 0138 094B     		ldr	r3, .L19+4
 370 013a 1B6A     		ldr	r3, [r3, #32]
 371 013c 002B     		cmp	r3, #0
 372 013e 06D0     		beq	.L18
 373              		.loc 1 199 0
 374 0140 074B     		ldr	r3, .L19+4
 375 0142 1B6A     		ldr	r3, [r3, #32]
 376 0144 064A     		ldr	r2, .L19+4
 377 0146 526A     		ldr	r2, [r2, #36]
 378 0148 1046     		mov	r0, r2
 379 014a 0199     		ldr	r1, [sp, #4]
 380 014c 9847     		blx	r3
 381              	.L18:
 382              		.loc 1 201 0
 383 014e FFF7FEFF 		bl	dbg_check_leave_isr
 384 0152 FFF7FEFF 		bl	_port_irq_epilogue
 385              		.loc 1 202 0
 386 0156 03B0     		add	sp, sp, #12
 387              		.cfi_def_cfa_offset 4
 388              		@ sp needed
 389 0158 5DF804FB 		ldr	pc, [sp], #4
 390              	.L20:
 391              		.align	2
 392              	.L19:
 393 015c 00000240 		.word	1073872896
 394 0160 04000000 		.word	dma_isr_redir
 395              		.cfi_endproc
ARM GAS  /tmp/ccIIWmhs.s 			page 8


 396              	.LFE122:
 397              		.size	Vector7C, .-Vector7C
 398              		.align	2
 399              		.global	Vector80
 400              		.thumb
 401              		.thumb_func
 402              		.type	Vector80, %function
 403              	Vector80:
 404              	.LFB123:
 405              		.loc 1 209 0
 406              		.cfi_startproc
 407              		@ args = 0, pretend = 0, frame = 8
 408              		@ frame_needed = 0, uses_anonymous_args = 0
 409 0164 00B5     		push	{lr}
 410              		.cfi_def_cfa_offset 4
 411              		.cfi_offset 14, -4
 412 0166 83B0     		sub	sp, sp, #12
 413              		.cfi_def_cfa_offset 16
 414              		.loc 1 212 0
 415 0168 FFF7FEFF 		bl	dbg_check_enter_isr
 416              		.loc 1 214 0
 417 016c 0D4B     		ldr	r3, .L23
 418 016e 1B68     		ldr	r3, [r3]
 419 0170 1B0D     		lsrs	r3, r3, #20
 420 0172 03F00F03 		and	r3, r3, #15
 421 0176 0193     		str	r3, [sp, #4]
 422              		.loc 1 215 0
 423 0178 0A4A     		ldr	r2, .L23
 424 017a 019B     		ldr	r3, [sp, #4]
 425 017c 1B05     		lsls	r3, r3, #20
 426 017e 5360     		str	r3, [r2, #4]
 427              		.loc 1 216 0
 428 0180 094B     		ldr	r3, .L23+4
 429 0182 9B6A     		ldr	r3, [r3, #40]
 430 0184 002B     		cmp	r3, #0
 431 0186 06D0     		beq	.L22
 432              		.loc 1 217 0
 433 0188 074B     		ldr	r3, .L23+4
 434 018a 9B6A     		ldr	r3, [r3, #40]
 435 018c 064A     		ldr	r2, .L23+4
 436 018e D26A     		ldr	r2, [r2, #44]
 437 0190 1046     		mov	r0, r2
 438 0192 0199     		ldr	r1, [sp, #4]
 439 0194 9847     		blx	r3
 440              	.L22:
 441              		.loc 1 219 0
 442 0196 FFF7FEFF 		bl	dbg_check_leave_isr
 443 019a FFF7FEFF 		bl	_port_irq_epilogue
 444              		.loc 1 220 0
 445 019e 03B0     		add	sp, sp, #12
 446              		.cfi_def_cfa_offset 4
 447              		@ sp needed
 448 01a0 5DF804FB 		ldr	pc, [sp], #4
 449              	.L24:
 450              		.align	2
 451              	.L23:
 452 01a4 00000240 		.word	1073872896
ARM GAS  /tmp/ccIIWmhs.s 			page 9


 453 01a8 04000000 		.word	dma_isr_redir
 454              		.cfi_endproc
 455              	.LFE123:
 456              		.size	Vector80, .-Vector80
 457              		.align	2
 458              		.global	Vector84
 459              		.thumb
 460              		.thumb_func
 461              		.type	Vector84, %function
 462              	Vector84:
 463              	.LFB124:
 464              		.loc 1 227 0
 465              		.cfi_startproc
 466              		@ args = 0, pretend = 0, frame = 8
 467              		@ frame_needed = 0, uses_anonymous_args = 0
 468 01ac 00B5     		push	{lr}
 469              		.cfi_def_cfa_offset 4
 470              		.cfi_offset 14, -4
 471 01ae 83B0     		sub	sp, sp, #12
 472              		.cfi_def_cfa_offset 16
 473              		.loc 1 230 0
 474 01b0 FFF7FEFF 		bl	dbg_check_enter_isr
 475              		.loc 1 232 0
 476 01b4 0D4B     		ldr	r3, .L27
 477 01b6 1B68     		ldr	r3, [r3]
 478 01b8 1B0E     		lsrs	r3, r3, #24
 479 01ba 03F00F03 		and	r3, r3, #15
 480 01be 0193     		str	r3, [sp, #4]
 481              		.loc 1 233 0
 482 01c0 0A4A     		ldr	r2, .L27
 483 01c2 019B     		ldr	r3, [sp, #4]
 484 01c4 1B06     		lsls	r3, r3, #24
 485 01c6 5360     		str	r3, [r2, #4]
 486              		.loc 1 234 0
 487 01c8 094B     		ldr	r3, .L27+4
 488 01ca 1B6B     		ldr	r3, [r3, #48]
 489 01cc 002B     		cmp	r3, #0
 490 01ce 06D0     		beq	.L26
 491              		.loc 1 235 0
 492 01d0 074B     		ldr	r3, .L27+4
 493 01d2 1B6B     		ldr	r3, [r3, #48]
 494 01d4 064A     		ldr	r2, .L27+4
 495 01d6 526B     		ldr	r2, [r2, #52]
 496 01d8 1046     		mov	r0, r2
 497 01da 0199     		ldr	r1, [sp, #4]
 498 01dc 9847     		blx	r3
 499              	.L26:
 500              		.loc 1 237 0
 501 01de FFF7FEFF 		bl	dbg_check_leave_isr
 502 01e2 FFF7FEFF 		bl	_port_irq_epilogue
 503              		.loc 1 238 0
 504 01e6 03B0     		add	sp, sp, #12
 505              		.cfi_def_cfa_offset 4
 506              		@ sp needed
 507 01e8 5DF804FB 		ldr	pc, [sp], #4
 508              	.L28:
 509              		.align	2
ARM GAS  /tmp/ccIIWmhs.s 			page 10


 510              	.L27:
 511 01ec 00000240 		.word	1073872896
 512 01f0 04000000 		.word	dma_isr_redir
 513              		.cfi_endproc
 514              	.LFE124:
 515              		.size	Vector84, .-Vector84
 516              		.align	2
 517              		.global	Vector120
 518              		.thumb
 519              		.thumb_func
 520              		.type	Vector120, %function
 521              	Vector120:
 522              	.LFB125:
 523              		.loc 1 245 0
 524              		.cfi_startproc
 525              		@ args = 0, pretend = 0, frame = 8
 526              		@ frame_needed = 0, uses_anonymous_args = 0
 527 01f4 00B5     		push	{lr}
 528              		.cfi_def_cfa_offset 4
 529              		.cfi_offset 14, -4
 530 01f6 83B0     		sub	sp, sp, #12
 531              		.cfi_def_cfa_offset 16
 532              		.loc 1 248 0
 533 01f8 FFF7FEFF 		bl	dbg_check_enter_isr
 534              		.loc 1 250 0
 535 01fc 0C4B     		ldr	r3, .L31
 536 01fe 1B68     		ldr	r3, [r3]
 537 0200 03F00F03 		and	r3, r3, #15
 538 0204 0193     		str	r3, [sp, #4]
 539              		.loc 1 251 0
 540 0206 0A4A     		ldr	r2, .L31
 541 0208 019B     		ldr	r3, [sp, #4]
 542 020a 5360     		str	r3, [r2, #4]
 543              		.loc 1 252 0
 544 020c 094B     		ldr	r3, .L31+4
 545 020e 9B6B     		ldr	r3, [r3, #56]
 546 0210 002B     		cmp	r3, #0
 547 0212 06D0     		beq	.L30
 548              		.loc 1 253 0
 549 0214 074B     		ldr	r3, .L31+4
 550 0216 9B6B     		ldr	r3, [r3, #56]
 551 0218 064A     		ldr	r2, .L31+4
 552 021a D26B     		ldr	r2, [r2, #60]
 553 021c 1046     		mov	r0, r2
 554 021e 0199     		ldr	r1, [sp, #4]
 555 0220 9847     		blx	r3
 556              	.L30:
 557              		.loc 1 255 0
 558 0222 FFF7FEFF 		bl	dbg_check_leave_isr
 559 0226 FFF7FEFF 		bl	_port_irq_epilogue
 560              		.loc 1 256 0
 561 022a 03B0     		add	sp, sp, #12
 562              		.cfi_def_cfa_offset 4
 563              		@ sp needed
 564 022c 5DF804FB 		ldr	pc, [sp], #4
 565              	.L32:
 566              		.align	2
ARM GAS  /tmp/ccIIWmhs.s 			page 11


 567              	.L31:
 568 0230 00040240 		.word	1073873920
 569 0234 04000000 		.word	dma_isr_redir
 570              		.cfi_endproc
 571              	.LFE125:
 572              		.size	Vector120, .-Vector120
 573              		.align	2
 574              		.global	Vector124
 575              		.thumb
 576              		.thumb_func
 577              		.type	Vector124, %function
 578              	Vector124:
 579              	.LFB126:
 580              		.loc 1 263 0
 581              		.cfi_startproc
 582              		@ args = 0, pretend = 0, frame = 8
 583              		@ frame_needed = 0, uses_anonymous_args = 0
 584 0238 00B5     		push	{lr}
 585              		.cfi_def_cfa_offset 4
 586              		.cfi_offset 14, -4
 587 023a 83B0     		sub	sp, sp, #12
 588              		.cfi_def_cfa_offset 16
 589              		.loc 1 266 0
 590 023c FFF7FEFF 		bl	dbg_check_enter_isr
 591              		.loc 1 268 0
 592 0240 0D4B     		ldr	r3, .L35
 593 0242 1B68     		ldr	r3, [r3]
 594 0244 1B09     		lsrs	r3, r3, #4
 595 0246 03F00F03 		and	r3, r3, #15
 596 024a 0193     		str	r3, [sp, #4]
 597              		.loc 1 269 0
 598 024c 0A4A     		ldr	r2, .L35
 599 024e 019B     		ldr	r3, [sp, #4]
 600 0250 1B01     		lsls	r3, r3, #4
 601 0252 5360     		str	r3, [r2, #4]
 602              		.loc 1 270 0
 603 0254 094B     		ldr	r3, .L35+4
 604 0256 1B6C     		ldr	r3, [r3, #64]
 605 0258 002B     		cmp	r3, #0
 606 025a 06D0     		beq	.L34
 607              		.loc 1 271 0
 608 025c 074B     		ldr	r3, .L35+4
 609 025e 1B6C     		ldr	r3, [r3, #64]
 610 0260 064A     		ldr	r2, .L35+4
 611 0262 526C     		ldr	r2, [r2, #68]
 612 0264 1046     		mov	r0, r2
 613 0266 0199     		ldr	r1, [sp, #4]
 614 0268 9847     		blx	r3
 615              	.L34:
 616              		.loc 1 273 0
 617 026a FFF7FEFF 		bl	dbg_check_leave_isr
 618 026e FFF7FEFF 		bl	_port_irq_epilogue
 619              		.loc 1 274 0
 620 0272 03B0     		add	sp, sp, #12
 621              		.cfi_def_cfa_offset 4
 622              		@ sp needed
 623 0274 5DF804FB 		ldr	pc, [sp], #4
ARM GAS  /tmp/ccIIWmhs.s 			page 12


 624              	.L36:
 625              		.align	2
 626              	.L35:
 627 0278 00040240 		.word	1073873920
 628 027c 04000000 		.word	dma_isr_redir
 629              		.cfi_endproc
 630              	.LFE126:
 631              		.size	Vector124, .-Vector124
 632              		.align	2
 633              		.global	Vector128
 634              		.thumb
 635              		.thumb_func
 636              		.type	Vector128, %function
 637              	Vector128:
 638              	.LFB127:
 639              		.loc 1 281 0
 640              		.cfi_startproc
 641              		@ args = 0, pretend = 0, frame = 8
 642              		@ frame_needed = 0, uses_anonymous_args = 0
 643 0280 00B5     		push	{lr}
 644              		.cfi_def_cfa_offset 4
 645              		.cfi_offset 14, -4
 646 0282 83B0     		sub	sp, sp, #12
 647              		.cfi_def_cfa_offset 16
 648              		.loc 1 284 0
 649 0284 FFF7FEFF 		bl	dbg_check_enter_isr
 650              		.loc 1 286 0
 651 0288 0D4B     		ldr	r3, .L39
 652 028a 1B68     		ldr	r3, [r3]
 653 028c 1B0A     		lsrs	r3, r3, #8
 654 028e 03F00F03 		and	r3, r3, #15
 655 0292 0193     		str	r3, [sp, #4]
 656              		.loc 1 287 0
 657 0294 0A4A     		ldr	r2, .L39
 658 0296 019B     		ldr	r3, [sp, #4]
 659 0298 1B02     		lsls	r3, r3, #8
 660 029a 5360     		str	r3, [r2, #4]
 661              		.loc 1 288 0
 662 029c 094B     		ldr	r3, .L39+4
 663 029e 9B6C     		ldr	r3, [r3, #72]
 664 02a0 002B     		cmp	r3, #0
 665 02a2 06D0     		beq	.L38
 666              		.loc 1 289 0
 667 02a4 074B     		ldr	r3, .L39+4
 668 02a6 9B6C     		ldr	r3, [r3, #72]
 669 02a8 064A     		ldr	r2, .L39+4
 670 02aa D26C     		ldr	r2, [r2, #76]
 671 02ac 1046     		mov	r0, r2
 672 02ae 0199     		ldr	r1, [sp, #4]
 673 02b0 9847     		blx	r3
 674              	.L38:
 675              		.loc 1 291 0
 676 02b2 FFF7FEFF 		bl	dbg_check_leave_isr
 677 02b6 FFF7FEFF 		bl	_port_irq_epilogue
 678              		.loc 1 292 0
 679 02ba 03B0     		add	sp, sp, #12
 680              		.cfi_def_cfa_offset 4
ARM GAS  /tmp/ccIIWmhs.s 			page 13


 681              		@ sp needed
 682 02bc 5DF804FB 		ldr	pc, [sp], #4
 683              	.L40:
 684              		.align	2
 685              	.L39:
 686 02c0 00040240 		.word	1073873920
 687 02c4 04000000 		.word	dma_isr_redir
 688              		.cfi_endproc
 689              	.LFE127:
 690              		.size	Vector128, .-Vector128
 691              		.align	2
 692              		.global	Vector12C
 693              		.thumb
 694              		.thumb_func
 695              		.type	Vector12C, %function
 696              	Vector12C:
 697              	.LFB128:
 698              		.loc 1 299 0
 699              		.cfi_startproc
 700              		@ args = 0, pretend = 0, frame = 8
 701              		@ frame_needed = 0, uses_anonymous_args = 0
 702 02c8 00B5     		push	{lr}
 703              		.cfi_def_cfa_offset 4
 704              		.cfi_offset 14, -4
 705 02ca 83B0     		sub	sp, sp, #12
 706              		.cfi_def_cfa_offset 16
 707              		.loc 1 302 0
 708 02cc FFF7FEFF 		bl	dbg_check_enter_isr
 709              		.loc 1 304 0
 710 02d0 0D4B     		ldr	r3, .L43
 711 02d2 1B68     		ldr	r3, [r3]
 712 02d4 1B0B     		lsrs	r3, r3, #12
 713 02d6 03F00F03 		and	r3, r3, #15
 714 02da 0193     		str	r3, [sp, #4]
 715              		.loc 1 305 0
 716 02dc 0A4A     		ldr	r2, .L43
 717 02de 019B     		ldr	r3, [sp, #4]
 718 02e0 1B03     		lsls	r3, r3, #12
 719 02e2 5360     		str	r3, [r2, #4]
 720              		.loc 1 306 0
 721 02e4 094B     		ldr	r3, .L43+4
 722 02e6 1B6D     		ldr	r3, [r3, #80]
 723 02e8 002B     		cmp	r3, #0
 724 02ea 06D0     		beq	.L42
 725              		.loc 1 307 0
 726 02ec 074B     		ldr	r3, .L43+4
 727 02ee 1B6D     		ldr	r3, [r3, #80]
 728 02f0 064A     		ldr	r2, .L43+4
 729 02f2 526D     		ldr	r2, [r2, #84]
 730 02f4 1046     		mov	r0, r2
 731 02f6 0199     		ldr	r1, [sp, #4]
 732 02f8 9847     		blx	r3
 733              	.L42:
 734              		.loc 1 309 0
 735 02fa FFF7FEFF 		bl	dbg_check_leave_isr
 736 02fe FFF7FEFF 		bl	_port_irq_epilogue
 737              		.loc 1 310 0
ARM GAS  /tmp/ccIIWmhs.s 			page 14


 738 0302 03B0     		add	sp, sp, #12
 739              		.cfi_def_cfa_offset 4
 740              		@ sp needed
 741 0304 5DF804FB 		ldr	pc, [sp], #4
 742              	.L44:
 743              		.align	2
 744              	.L43:
 745 0308 00040240 		.word	1073873920
 746 030c 04000000 		.word	dma_isr_redir
 747              		.cfi_endproc
 748              	.LFE128:
 749              		.size	Vector12C, .-Vector12C
 750              		.align	2
 751              		.global	Vector130
 752              		.thumb
 753              		.thumb_func
 754              		.type	Vector130, %function
 755              	Vector130:
 756              	.LFB129:
 757              		.loc 1 317 0
 758              		.cfi_startproc
 759              		@ args = 0, pretend = 0, frame = 8
 760              		@ frame_needed = 0, uses_anonymous_args = 0
 761 0310 00B5     		push	{lr}
 762              		.cfi_def_cfa_offset 4
 763              		.cfi_offset 14, -4
 764 0312 83B0     		sub	sp, sp, #12
 765              		.cfi_def_cfa_offset 16
 766              		.loc 1 320 0
 767 0314 FFF7FEFF 		bl	dbg_check_enter_isr
 768              		.loc 1 322 0
 769 0318 0D4B     		ldr	r3, .L47
 770 031a 1B68     		ldr	r3, [r3]
 771 031c 1B0C     		lsrs	r3, r3, #16
 772 031e 03F00F03 		and	r3, r3, #15
 773 0322 0193     		str	r3, [sp, #4]
 774              		.loc 1 323 0
 775 0324 0A4A     		ldr	r2, .L47
 776 0326 019B     		ldr	r3, [sp, #4]
 777 0328 1B04     		lsls	r3, r3, #16
 778 032a 5360     		str	r3, [r2, #4]
 779              		.loc 1 324 0
 780 032c 094B     		ldr	r3, .L47+4
 781 032e 9B6D     		ldr	r3, [r3, #88]
 782 0330 002B     		cmp	r3, #0
 783 0332 06D0     		beq	.L46
 784              		.loc 1 325 0
 785 0334 074B     		ldr	r3, .L47+4
 786 0336 9B6D     		ldr	r3, [r3, #88]
 787 0338 064A     		ldr	r2, .L47+4
 788 033a D26D     		ldr	r2, [r2, #92]
 789 033c 1046     		mov	r0, r2
 790 033e 0199     		ldr	r1, [sp, #4]
 791 0340 9847     		blx	r3
 792              	.L46:
 793              		.loc 1 327 0
 794 0342 FFF7FEFF 		bl	dbg_check_leave_isr
ARM GAS  /tmp/ccIIWmhs.s 			page 15


 795 0346 FFF7FEFF 		bl	_port_irq_epilogue
 796              		.loc 1 328 0
 797 034a 03B0     		add	sp, sp, #12
 798              		.cfi_def_cfa_offset 4
 799              		@ sp needed
 800 034c 5DF804FB 		ldr	pc, [sp], #4
 801              	.L48:
 802              		.align	2
 803              	.L47:
 804 0350 00040240 		.word	1073873920
 805 0354 04000000 		.word	dma_isr_redir
 806              		.cfi_endproc
 807              	.LFE129:
 808              		.size	Vector130, .-Vector130
 809              		.align	2
 810              		.global	dmaInit
 811              		.thumb
 812              		.thumb_func
 813              		.type	dmaInit, %function
 814              	dmaInit:
 815              	.LFB130:
 816              		.loc 1 339 0
 817              		.cfi_startproc
 818              		@ args = 0, pretend = 0, frame = 8
 819              		@ frame_needed = 0, uses_anonymous_args = 0
 820              		@ link register save eliminated.
 821 0358 82B0     		sub	sp, sp, #8
 822              		.cfi_def_cfa_offset 8
 823              		.loc 1 342 0
 824 035a 124B     		ldr	r3, .L52
 825 035c 0022     		movs	r2, #0
 826 035e 1A60     		str	r2, [r3]
 827              		.loc 1 343 0
 828 0360 0023     		movs	r3, #0
 829 0362 0193     		str	r3, [sp, #4]
 830 0364 11E0     		b	.L50
 831              	.L51:
 832              		.loc 1 344 0 discriminator 3
 833 0366 1049     		ldr	r1, .L52+4
 834 0368 019A     		ldr	r2, [sp, #4]
 835 036a 1346     		mov	r3, r2
 836 036c 5B00     		lsls	r3, r3, #1
 837 036e 1344     		add	r3, r3, r2
 838 0370 9B00     		lsls	r3, r3, #2
 839 0372 0B44     		add	r3, r3, r1
 840 0374 1B68     		ldr	r3, [r3]
 841 0376 0022     		movs	r2, #0
 842 0378 1A60     		str	r2, [r3]
 843              		.loc 1 345 0 discriminator 3
 844 037a 0C4A     		ldr	r2, .L52+8
 845 037c 019B     		ldr	r3, [sp, #4]
 846 037e 0021     		movs	r1, #0
 847 0380 42F83310 		str	r1, [r2, r3, lsl #3]
 848              		.loc 1 343 0 discriminator 3
 849 0384 019B     		ldr	r3, [sp, #4]
 850 0386 0133     		adds	r3, r3, #1
 851 0388 0193     		str	r3, [sp, #4]
ARM GAS  /tmp/ccIIWmhs.s 			page 16


 852              	.L50:
 853              		.loc 1 343 0 is_stmt 0 discriminator 1
 854 038a 019B     		ldr	r3, [sp, #4]
 855 038c 0B2B     		cmp	r3, #11
 856 038e EADD     		ble	.L51
 857              		.loc 1 347 0 is_stmt 1
 858 0390 074B     		ldr	r3, .L52+12
 859 0392 4FF0FF32 		mov	r2, #-1
 860 0396 5A60     		str	r2, [r3, #4]
 861              		.loc 1 349 0
 862 0398 064B     		ldr	r3, .L52+16
 863 039a 4FF0FF32 		mov	r2, #-1
 864 039e 5A60     		str	r2, [r3, #4]
 865              		.loc 1 351 0
 866 03a0 02B0     		add	sp, sp, #8
 867              		.cfi_def_cfa_offset 0
 868              		@ sp needed
 869 03a2 7047     		bx	lr
 870              	.L53:
 871              		.align	2
 872              	.L52:
 873 03a4 00000000 		.word	dma_streams_mask
 874 03a8 00000000 		.word	_stm32_dma_streams
 875 03ac 04000000 		.word	dma_isr_redir
 876 03b0 00000240 		.word	1073872896
 877 03b4 00040240 		.word	1073873920
 878              		.cfi_endproc
 879              	.LFE130:
 880              		.size	dmaInit, .-dmaInit
 881              		.section	.rodata
 882              		.align	2
 883              	.LC0:
 884 0090 22646D61 		.ascii	"\"dmaStreamAllocate\"()\000"
 884      53747265 
 884      616D416C 
 884      6C6F6361 
 884      74652228 
 885              		.text
 886              		.align	2
 887              		.global	dmaStreamAllocate
 888              		.thumb
 889              		.thumb_func
 890              		.type	dmaStreamAllocate, %function
 891              	dmaStreamAllocate:
 892              	.LFB131:
 893              		.loc 1 380 0
 894              		.cfi_startproc
 895              		@ args = 0, pretend = 0, frame = 16
 896              		@ frame_needed = 0, uses_anonymous_args = 0
 897 03b8 00B5     		push	{lr}
 898              		.cfi_def_cfa_offset 4
 899              		.cfi_offset 14, -4
 900 03ba 85B0     		sub	sp, sp, #20
 901              		.cfi_def_cfa_offset 24
 902 03bc 0390     		str	r0, [sp, #12]
 903 03be 0291     		str	r1, [sp, #8]
 904 03c0 0192     		str	r2, [sp, #4]
ARM GAS  /tmp/ccIIWmhs.s 			page 17


 905 03c2 0093     		str	r3, [sp]
 906              		.loc 1 382 0
 907 03c4 039B     		ldr	r3, [sp, #12]
 908 03c6 002B     		cmp	r3, #0
 909 03c8 02D1     		bne	.L55
 910              		.loc 1 382 0 is_stmt 0 discriminator 1
 911 03ca 3348     		ldr	r0, .L61
 912 03cc FFF7FEFF 		bl	chDbgPanic
 913              	.L55:
 914              		.loc 1 385 0 is_stmt 1
 915 03d0 039B     		ldr	r3, [sp, #12]
 916 03d2 5B7A     		ldrb	r3, [r3, #9]	@ zero_extendqisi2
 917 03d4 1A46     		mov	r2, r3
 918 03d6 0123     		movs	r3, #1
 919 03d8 9340     		lsls	r3, r3, r2
 920 03da 1A46     		mov	r2, r3
 921 03dc 2F4B     		ldr	r3, .L61+4
 922 03de 1B68     		ldr	r3, [r3]
 923 03e0 1340     		ands	r3, r3, r2
 924 03e2 002B     		cmp	r3, #0
 925 03e4 01D0     		beq	.L56
 926              		.loc 1 386 0
 927 03e6 0123     		movs	r3, #1
 928 03e8 51E0     		b	.L57
 929              	.L56:
 930              		.loc 1 389 0
 931 03ea 039B     		ldr	r3, [sp, #12]
 932 03ec 5B7A     		ldrb	r3, [r3, #9]	@ zero_extendqisi2
 933 03ee 1946     		mov	r1, r3
 934 03f0 2B4A     		ldr	r2, .L61+8
 935 03f2 019B     		ldr	r3, [sp, #4]
 936 03f4 42F83130 		str	r3, [r2, r1, lsl #3]
 937              		.loc 1 390 0
 938 03f8 039B     		ldr	r3, [sp, #12]
 939 03fa 5B7A     		ldrb	r3, [r3, #9]	@ zero_extendqisi2
 940 03fc 284A     		ldr	r2, .L61+8
 941 03fe DB00     		lsls	r3, r3, #3
 942 0400 1344     		add	r3, r3, r2
 943 0402 009A     		ldr	r2, [sp]
 944 0404 5A60     		str	r2, [r3, #4]
 945              		.loc 1 391 0
 946 0406 039B     		ldr	r3, [sp, #12]
 947 0408 5B7A     		ldrb	r3, [r3, #9]	@ zero_extendqisi2
 948 040a 1A46     		mov	r2, r3
 949 040c 0123     		movs	r3, #1
 950 040e 9340     		lsls	r3, r3, r2
 951 0410 1A46     		mov	r2, r3
 952 0412 224B     		ldr	r3, .L61+4
 953 0414 1B68     		ldr	r3, [r3]
 954 0416 1343     		orrs	r3, r3, r2
 955 0418 204A     		ldr	r2, .L61+4
 956 041a 1360     		str	r3, [r2]
 957              		.loc 1 394 0
 958 041c 1F4B     		ldr	r3, .L61+4
 959 041e 1B68     		ldr	r3, [r3]
 960 0420 03F07F03 		and	r3, r3, #127
 961 0424 002B     		cmp	r3, #0
ARM GAS  /tmp/ccIIWmhs.s 			page 18


 962 0426 05D0     		beq	.L58
 963              		.loc 1 395 0
 964 0428 1E4A     		ldr	r2, .L61+12
 965 042a 1E4B     		ldr	r3, .L61+12
 966 042c 5B69     		ldr	r3, [r3, #20]
 967 042e 43F00103 		orr	r3, r3, #1
 968 0432 5361     		str	r3, [r2, #20]
 969              	.L58:
 970              		.loc 1 397 0
 971 0434 194B     		ldr	r3, .L61+4
 972 0436 1B68     		ldr	r3, [r3]
 973 0438 03F47863 		and	r3, r3, #3968
 974 043c 002B     		cmp	r3, #0
 975 043e 05D0     		beq	.L59
 976              		.loc 1 398 0
 977 0440 184A     		ldr	r2, .L61+12
 978 0442 184B     		ldr	r3, .L61+12
 979 0444 5B69     		ldr	r3, [r3, #20]
 980 0446 43F00203 		orr	r3, r3, #2
 981 044a 5361     		str	r3, [r2, #20]
 982              	.L59:
 983              		.loc 1 402 0
 984 044c 039B     		ldr	r3, [sp, #12]
 985 044e 1B68     		ldr	r3, [r3]
 986 0450 039A     		ldr	r2, [sp, #12]
 987 0452 1268     		ldr	r2, [r2]
 988 0454 1268     		ldr	r2, [r2]
 989 0456 22F00F02 		bic	r2, r2, #15
 990 045a 1A60     		str	r2, [r3]
 991 045c 039B     		ldr	r3, [sp, #12]
 992 045e 5B68     		ldr	r3, [r3, #4]
 993 0460 039A     		ldr	r2, [sp, #12]
 994 0462 127A     		ldrb	r2, [r2, #8]	@ zero_extendqisi2
 995 0464 1146     		mov	r1, r2
 996 0466 0F22     		movs	r2, #15
 997 0468 8A40     		lsls	r2, r2, r1
 998 046a 1A60     		str	r2, [r3]
 999              		.loc 1 403 0
 1000 046c 039B     		ldr	r3, [sp, #12]
 1001 046e 1B68     		ldr	r3, [r3]
 1002 0470 0022     		movs	r2, #0
 1003 0472 1A60     		str	r2, [r3]
 1004              		.loc 1 406 0
 1005 0474 019B     		ldr	r3, [sp, #4]
 1006 0476 002B     		cmp	r3, #0
 1007 0478 08D0     		beq	.L60
 1008              		.loc 1 407 0
 1009 047a 039B     		ldr	r3, [sp, #12]
 1010 047c 9B7A     		ldrb	r3, [r3, #10]	@ zero_extendqisi2
 1011 047e 1A46     		mov	r2, r3
 1012 0480 029B     		ldr	r3, [sp, #8]
 1013 0482 1B01     		lsls	r3, r3, #4
 1014 0484 1046     		mov	r0, r2
 1015 0486 1946     		mov	r1, r3
 1016 0488 FFF7FEFF 		bl	nvicEnableVector
 1017              	.L60:
 1018              		.loc 1 409 0
ARM GAS  /tmp/ccIIWmhs.s 			page 19


 1019 048c 0023     		movs	r3, #0
 1020              	.L57:
 1021              		.loc 1 410 0
 1022 048e 1846     		mov	r0, r3
 1023 0490 05B0     		add	sp, sp, #20
 1024              		.cfi_def_cfa_offset 4
 1025              		@ sp needed
 1026 0492 5DF804FB 		ldr	pc, [sp], #4
 1027              	.L62:
 1028 0496 00BF     		.align	2
 1029              	.L61:
 1030 0498 90000000 		.word	.LC0
 1031 049c 00000000 		.word	dma_streams_mask
 1032 04a0 04000000 		.word	dma_isr_redir
 1033 04a4 00100240 		.word	1073876992
 1034              		.cfi_endproc
 1035              	.LFE131:
 1036              		.size	dmaStreamAllocate, .-dmaStreamAllocate
 1037              		.section	.rodata
 1038 00a6 0000     		.align	2
 1039              	.LC1:
 1040 00a8 22646D61 		.ascii	"\"dmaStreamRelease\"()\000"
 1040      53747265 
 1040      616D5265 
 1040      6C656173 
 1040      65222829 
 1041 00bd 000000   		.align	2
 1042              	.LC2:
 1043 00c0 646D6153 		.ascii	"dmaStreamRelease(), #1\000"
 1043      74726561 
 1043      6D52656C 
 1043      65617365 
 1043      28292C20 
 1044 00d7 00       		.text
 1045              		.align	2
 1046              		.global	dmaStreamRelease
 1047              		.thumb
 1048              		.thumb_func
 1049              		.type	dmaStreamRelease, %function
 1050              	dmaStreamRelease:
 1051              	.LFB132:
 1052              		.loc 1 425 0
 1053              		.cfi_startproc
 1054              		@ args = 0, pretend = 0, frame = 8
 1055              		@ frame_needed = 0, uses_anonymous_args = 0
 1056 04a8 00B5     		push	{lr}
 1057              		.cfi_def_cfa_offset 4
 1058              		.cfi_offset 14, -4
 1059 04aa 83B0     		sub	sp, sp, #12
 1060              		.cfi_def_cfa_offset 16
 1061 04ac 0190     		str	r0, [sp, #4]
 1062              		.loc 1 427 0
 1063 04ae 019B     		ldr	r3, [sp, #4]
 1064 04b0 002B     		cmp	r3, #0
 1065 04b2 02D1     		bne	.L64
 1066              		.loc 1 427 0 is_stmt 0 discriminator 1
 1067 04b4 1E48     		ldr	r0, .L68
ARM GAS  /tmp/ccIIWmhs.s 			page 20


 1068 04b6 FFF7FEFF 		bl	chDbgPanic
 1069              	.L64:
 1070              		.loc 1 430 0 is_stmt 1
 1071 04ba 019B     		ldr	r3, [sp, #4]
 1072 04bc 5B7A     		ldrb	r3, [r3, #9]	@ zero_extendqisi2
 1073 04be 1A46     		mov	r2, r3
 1074 04c0 0123     		movs	r3, #1
 1075 04c2 9340     		lsls	r3, r3, r2
 1076 04c4 1A46     		mov	r2, r3
 1077 04c6 1B4B     		ldr	r3, .L68+4
 1078 04c8 1B68     		ldr	r3, [r3]
 1079 04ca 1340     		ands	r3, r3, r2
 1080 04cc 002B     		cmp	r3, #0
 1081 04ce 02D1     		bne	.L65
 1082              		.loc 1 430 0 is_stmt 0 discriminator 1
 1083 04d0 1948     		ldr	r0, .L68+8
 1084 04d2 FFF7FEFF 		bl	chDbgPanic
 1085              	.L65:
 1086              		.loc 1 434 0 is_stmt 1
 1087 04d6 019B     		ldr	r3, [sp, #4]
 1088 04d8 9B7A     		ldrb	r3, [r3, #10]	@ zero_extendqisi2
 1089 04da 1846     		mov	r0, r3
 1090 04dc FFF7FEFF 		bl	nvicDisableVector
 1091              		.loc 1 437 0
 1092 04e0 019B     		ldr	r3, [sp, #4]
 1093 04e2 5B7A     		ldrb	r3, [r3, #9]	@ zero_extendqisi2
 1094 04e4 1A46     		mov	r2, r3
 1095 04e6 0123     		movs	r3, #1
 1096 04e8 9340     		lsls	r3, r3, r2
 1097 04ea DB43     		mvns	r3, r3
 1098 04ec 1A46     		mov	r2, r3
 1099 04ee 114B     		ldr	r3, .L68+4
 1100 04f0 1B68     		ldr	r3, [r3]
 1101 04f2 1340     		ands	r3, r3, r2
 1102 04f4 0F4A     		ldr	r2, .L68+4
 1103 04f6 1360     		str	r3, [r2]
 1104              		.loc 1 440 0
 1105 04f8 0E4B     		ldr	r3, .L68+4
 1106 04fa 1B68     		ldr	r3, [r3]
 1107 04fc 03F07F03 		and	r3, r3, #127
 1108 0500 002B     		cmp	r3, #0
 1109 0502 05D1     		bne	.L66
 1110              		.loc 1 441 0
 1111 0504 0D4A     		ldr	r2, .L68+12
 1112 0506 0D4B     		ldr	r3, .L68+12
 1113 0508 5B69     		ldr	r3, [r3, #20]
 1114 050a 23F00103 		bic	r3, r3, #1
 1115 050e 5361     		str	r3, [r2, #20]
 1116              	.L66:
 1117              		.loc 1 443 0
 1118 0510 084B     		ldr	r3, .L68+4
 1119 0512 1B68     		ldr	r3, [r3]
 1120 0514 03F47863 		and	r3, r3, #3968
 1121 0518 002B     		cmp	r3, #0
 1122 051a 05D1     		bne	.L63
 1123              		.loc 1 444 0
 1124 051c 074A     		ldr	r2, .L68+12
ARM GAS  /tmp/ccIIWmhs.s 			page 21


 1125 051e 074B     		ldr	r3, .L68+12
 1126 0520 5B69     		ldr	r3, [r3, #20]
 1127 0522 23F00203 		bic	r3, r3, #2
 1128 0526 5361     		str	r3, [r2, #20]
 1129              	.L63:
 1130              		.loc 1 446 0
 1131 0528 03B0     		add	sp, sp, #12
 1132              		.cfi_def_cfa_offset 4
 1133              		@ sp needed
 1134 052a 5DF804FB 		ldr	pc, [sp], #4
 1135              	.L69:
 1136 052e 00BF     		.align	2
 1137              	.L68:
 1138 0530 A8000000 		.word	.LC1
 1139 0534 00000000 		.word	dma_streams_mask
 1140 0538 C0000000 		.word	.LC2
 1141 053c 00100240 		.word	1073876992
 1142              		.cfi_endproc
 1143              	.LFE132:
 1144              		.size	dmaStreamRelease, .-dmaStreamRelease
 1145              	.Letext0:
 1146              		.file 2 "/opt/R2P/tools/gcc-arm-none-eabi-4_9-2014q4/arm-none-eabi/include/machine/_default_types.
 1147              		.file 3 "/opt/R2P/tools/gcc-arm-none-eabi-4_9-2014q4/arm-none-eabi/include/stdint.h"
 1148              		.file 4 "/opt/R2P/core/ChibiOS_2.6.5/os/ports/GCC/ARMCMx/chtypes.h"
 1149              		.file 5 "/opt/R2P/core/ChibiOS_2.6.5/os/hal/platforms/STM32F30x/stm32f30x.h"
 1150              		.file 6 "/opt/R2P/core/ChibiOS_2.6.5/os/hal/platforms/STM32F30x/stm32_dma.h"
 1151              		.file 7 "/opt/R2P/core/ChibiOS_2.6.5/os/ports/common/ARMCMx/CMSIS/include/core_cm4.h"