ARM GAS  /tmp/cczHaTbA.s 			page 1


   1              		.syntax unified
   2              		.cpu cortex-m4
   3              		.fpu softvfp
   4              		.eabi_attribute 20, 1
   5              		.eabi_attribute 21, 1
   6              		.eabi_attribute 23, 3
   7              		.eabi_attribute 24, 1
   8              		.eabi_attribute 25, 1
   9              		.eabi_attribute 26, 1
  10              		.eabi_attribute 30, 6
  11              		.eabi_attribute 34, 1
  12              		.eabi_attribute 18, 4
  13              		.thumb
  14              		.file	"stubs.c"
  15              		.text
  16              	.Ltext0:
  17              		.cfi_sections	.debug_frame
  18              		.comm	__dso_handle,4,4
  19              		.align	2
  20              		.global	__cxa_pure_virtual
  21              		.thumb
  22              		.thumb_func
  23              		.type	__cxa_pure_virtual, %function
  24              	__cxa_pure_virtual:
  25              	.LFB118:
  26              		.file 1 "stubs.c"
  27              		.loc 1 5 0
  28              		.cfi_startproc
  29              		@ args = 0, pretend = 0, frame = 0
  30              		@ frame_needed = 0, uses_anonymous_args = 0
  31 0000 08B5     		push	{r3, lr}
  32              		.cfi_def_cfa_offset 8
  33              		.cfi_offset 3, -8
  34              		.cfi_offset 14, -4
  35              		.loc 1 6 0
  36 0002 FFF7FEFF 		bl	port_halt
  37              		.loc 1 7 0
  38 0006 08BD     		pop	{r3, pc}
  39              		.cfi_endproc
  40              	.LFE118:
  41              		.size	__cxa_pure_virtual, .-__cxa_pure_virtual
  42              		.align	2
  43              		.global	_exit
  44              		.thumb
  45              		.thumb_func
  46              		.type	_exit, %function
  47              	_exit:
  48              	.LFB119:
  49              		.loc 1 8 0
  50              		.cfi_startproc
  51              		@ args = 0, pretend = 0, frame = 8
  52              		@ frame_needed = 0, uses_anonymous_args = 0
  53 0008 00B5     		push	{lr}
  54              		.cfi_def_cfa_offset 4
  55              		.cfi_offset 14, -4
  56 000a 83B0     		sub	sp, sp, #12
  57              		.cfi_def_cfa_offset 16
ARM GAS  /tmp/cczHaTbA.s 			page 2


  58 000c 0190     		str	r0, [sp, #4]
  59              		.loc 1 11 0
  60 000e FFF7FEFF 		bl	port_halt
  61              	.L3:
  62              		.loc 1 13 0 discriminator 1
  63 0012 FEE7     		b	.L3
  64              		.cfi_endproc
  65              	.LFE119:
  66              		.size	_exit, .-_exit
  67              		.align	2
  68              		.global	_kill
  69              		.thumb
  70              		.thumb_func
  71              		.type	_kill, %function
  72              	_kill:
  73              	.LFB120:
  74              		.loc 1 15 0
  75              		.cfi_startproc
  76              		@ args = 0, pretend = 0, frame = 8
  77              		@ frame_needed = 0, uses_anonymous_args = 0
  78 0014 00B5     		push	{lr}
  79              		.cfi_def_cfa_offset 4
  80              		.cfi_offset 14, -4
  81 0016 83B0     		sub	sp, sp, #12
  82              		.cfi_def_cfa_offset 16
  83 0018 0190     		str	r0, [sp, #4]
  84 001a 0091     		str	r1, [sp]
  85              		.loc 1 19 0
  86 001c FFF7FEFF 		bl	port_halt
  87              		.loc 1 20 0
  88 0020 4FF0FF33 		mov	r3, #-1
  89              		.loc 1 21 0
  90 0024 1846     		mov	r0, r3
  91 0026 03B0     		add	sp, sp, #12
  92              		.cfi_def_cfa_offset 4
  93              		@ sp needed
  94 0028 5DF804FB 		ldr	pc, [sp], #4
  95              		.cfi_endproc
  96              	.LFE120:
  97              		.size	_kill, .-_kill
  98              		.align	2
  99              		.global	_getpid
 100              		.thumb
 101              		.thumb_func
 102              		.type	_getpid, %function
 103              	_getpid:
 104              	.LFB121:
 105              		.loc 1 22 0
 106              		.cfi_startproc
 107              		@ args = 0, pretend = 0, frame = 0
 108              		@ frame_needed = 0, uses_anonymous_args = 0
 109              		@ link register save eliminated.
 110              		.loc 1 23 0
 111 002c 0123     		movs	r3, #1
 112              		.loc 1 24 0
 113 002e 1846     		mov	r0, r3
 114 0030 7047     		bx	lr
ARM GAS  /tmp/cczHaTbA.s 			page 3


 115              		.cfi_endproc
 116              	.LFE121:
 117              		.size	_getpid, .-_getpid
 118              	.Letext0:
 119              		.file 2 "/opt/R2P/tools/gcc-arm-none-eabi-4_9-2014q4/arm-none-eabi/include/machine/_default_types.
 120              		.file 3 "/opt/R2P/tools/gcc-arm-none-eabi-4_9-2014q4/arm-none-eabi/include/stdint.h"
 121              		.file 4 "/opt/R2P/core/ChibiOS_2.6.5/os/ports/common/ARMCMx/CMSIS/include/core_cm4.h"
 122 0032 00BF     		.section	.debug_info,"",%progbits
 123              	.Ldebug_info0:
 124 0000 31010000 		.4byte	0x131
 125 0004 0400     		.2byte	0x4
 126 0006 00000000 		.4byte	.Ldebug_abbrev0
 127 000a 04       		.byte	0x4
 128 000b 01       		.uleb128 0x1
 129 000c 92000000 		.4byte	.LASF16
 130 0010 01       		.byte	0x1
 131 0011 2E000000 		.4byte	.LASF17
 132 0015 5F000000 		.4byte	.LASF18
 133 0019 00000000 		.4byte	.Ltext0
 134 001d 32000000 		.4byte	.Letext0-.Ltext0
 135 0021 00000000 		.4byte	.Ldebug_line0
 136 0025 02       		.uleb128 0x2
 137 0026 04       		.byte	0x4
 138 0027 05       		.byte	0x5
 139 0028 696E7400 		.ascii	"int\000"
 140 002c 03       		.uleb128 0x3
 141 002d 04       		.byte	0x4
 142 002e 07       		.byte	0x7
 143 002f 21000000 		.4byte	.LASF0
 144 0033 03       		.uleb128 0x3
 145 0034 01       		.byte	0x1
 146 0035 06       		.byte	0x6
 147 0036 86010000 		.4byte	.LASF1
 148 003a 03       		.uleb128 0x3
 149 003b 01       		.byte	0x1
 150 003c 08       		.byte	0x8
 151 003d 4D010000 		.4byte	.LASF2
 152 0041 03       		.uleb128 0x3
 153 0042 02       		.byte	0x2
 154 0043 05       		.byte	0x5
 155 0044 69010000 		.4byte	.LASF3
 156 0048 03       		.uleb128 0x3
 157 0049 02       		.byte	0x2
 158 004a 07       		.byte	0x7
 159 004b 0E000000 		.4byte	.LASF4
 160 004f 04       		.uleb128 0x4
 161 0050 92010000 		.4byte	.LASF9
 162 0054 02       		.byte	0x2
 163 0055 3F       		.byte	0x3f
 164 0056 5A000000 		.4byte	0x5a
 165 005a 03       		.uleb128 0x3
 166 005b 04       		.byte	0x4
 167 005c 05       		.byte	0x5
 168 005d 60010000 		.4byte	.LASF5
 169 0061 03       		.uleb128 0x3
 170 0062 04       		.byte	0x4
 171 0063 07       		.byte	0x7
ARM GAS  /tmp/cczHaTbA.s 			page 4


 172 0064 36000000 		.4byte	.LASF6
 173 0068 03       		.uleb128 0x3
 174 0069 08       		.byte	0x8
 175 006a 05       		.byte	0x5
 176 006b 00000000 		.4byte	.LASF7
 177 006f 03       		.uleb128 0x3
 178 0070 08       		.byte	0x8
 179 0071 07       		.byte	0x7
 180 0072 48000000 		.4byte	.LASF8
 181 0076 04       		.uleb128 0x4
 182 0077 A4010000 		.4byte	.LASF10
 183 007b 03       		.byte	0x3
 184 007c 2C       		.byte	0x2c
 185 007d 4F000000 		.4byte	0x4f
 186 0081 03       		.uleb128 0x3
 187 0082 01       		.byte	0x1
 188 0083 02       		.byte	0x2
 189 0084 73010000 		.4byte	.LASF11
 190 0088 05       		.uleb128 0x5
 191 0089 04       		.byte	0x4
 192 008a 03       		.uleb128 0x3
 193 008b 04       		.byte	0x4
 194 008c 07       		.byte	0x7
 195 008d AC010000 		.4byte	.LASF12
 196 0091 03       		.uleb128 0x3
 197 0092 01       		.byte	0x1
 198 0093 08       		.byte	0x8
 199 0094 5B010000 		.4byte	.LASF13
 200 0098 06       		.uleb128 0x6
 201 0099 76000000 		.4byte	0x76
 202 009d 07       		.uleb128 0x7
 203 009e 27010000 		.4byte	.LASF19
 204 00a2 01       		.byte	0x1
 205 00a3 05       		.byte	0x5
 206 00a4 00000000 		.4byte	.LFB118
 207 00a8 08000000 		.4byte	.LFE118-.LFB118
 208 00ac 01       		.uleb128 0x1
 209 00ad 9C       		.byte	0x9c
 210 00ae 08       		.uleb128 0x8
 211 00af 3A010000 		.4byte	.LASF20
 212 00b3 01       		.byte	0x1
 213 00b4 08       		.byte	0x8
 214 00b5 08000000 		.4byte	.LFB119
 215 00b9 0C000000 		.4byte	.LFE119-.LFB119
 216 00bd 01       		.uleb128 0x1
 217 00be 9C       		.byte	0x9c
 218 00bf D0000000 		.4byte	0xd0
 219 00c3 09       		.uleb128 0x9
 220 00c4 6100     		.ascii	"a\000"
 221 00c6 01       		.byte	0x1
 222 00c7 08       		.byte	0x8
 223 00c8 25000000 		.4byte	0x25
 224 00cc 02       		.uleb128 0x2
 225 00cd 91       		.byte	0x91
 226 00ce 74       		.sleb128 -12
 227 00cf 00       		.byte	0
 228 00d0 0A       		.uleb128 0xa
ARM GAS  /tmp/cczHaTbA.s 			page 5


 229 00d1 B5010000 		.4byte	.LASF21
 230 00d5 01       		.byte	0x1
 231 00d6 0F       		.byte	0xf
 232 00d7 25000000 		.4byte	0x25
 233 00db 14000000 		.4byte	.LFB120
 234 00df 18000000 		.4byte	.LFE120-.LFB120
 235 00e3 01       		.uleb128 0x1
 236 00e4 9C       		.byte	0x9c
 237 00e5 02010000 		.4byte	0x102
 238 00e9 09       		.uleb128 0x9
 239 00ea 6100     		.ascii	"a\000"
 240 00ec 01       		.byte	0x1
 241 00ed 0F       		.byte	0xf
 242 00ee 25000000 		.4byte	0x25
 243 00f2 02       		.uleb128 0x2
 244 00f3 91       		.byte	0x91
 245 00f4 74       		.sleb128 -12
 246 00f5 09       		.uleb128 0x9
 247 00f6 6200     		.ascii	"b\000"
 248 00f8 01       		.byte	0x1
 249 00f9 0F       		.byte	0xf
 250 00fa 25000000 		.4byte	0x25
 251 00fe 02       		.uleb128 0x2
 252 00ff 91       		.byte	0x91
 253 0100 70       		.sleb128 -16
 254 0101 00       		.byte	0
 255 0102 0B       		.uleb128 0xb
 256 0103 9C010000 		.4byte	.LASF22
 257 0107 01       		.byte	0x1
 258 0108 16       		.byte	0x16
 259 0109 25000000 		.4byte	0x25
 260 010d 2C000000 		.4byte	.LFB121
 261 0111 06000000 		.4byte	.LFE121-.LFB121
 262 0115 01       		.uleb128 0x1
 263 0116 9C       		.byte	0x9c
 264 0117 0C       		.uleb128 0xc
 265 0118 79010000 		.4byte	.LASF14
 266 011c 04       		.byte	0x4
 267 011d 9806     		.2byte	0x698
 268 011f 98000000 		.4byte	0x98
 269 0123 0D       		.uleb128 0xd
 270 0124 40010000 		.4byte	.LASF15
 271 0128 01       		.byte	0x1
 272 0129 04       		.byte	0x4
 273 012a 88000000 		.4byte	0x88
 274 012e 05       		.uleb128 0x5
 275 012f 03       		.byte	0x3
 276 0130 00000000 		.4byte	__dso_handle
 277 0134 00       		.byte	0
 278              		.section	.debug_abbrev,"",%progbits
 279              	.Ldebug_abbrev0:
 280 0000 01       		.uleb128 0x1
 281 0001 11       		.uleb128 0x11
 282 0002 01       		.byte	0x1
 283 0003 25       		.uleb128 0x25
 284 0004 0E       		.uleb128 0xe
 285 0005 13       		.uleb128 0x13
ARM GAS  /tmp/cczHaTbA.s 			page 6


 286 0006 0B       		.uleb128 0xb
 287 0007 03       		.uleb128 0x3
 288 0008 0E       		.uleb128 0xe
 289 0009 1B       		.uleb128 0x1b
 290 000a 0E       		.uleb128 0xe
 291 000b 11       		.uleb128 0x11
 292 000c 01       		.uleb128 0x1
 293 000d 12       		.uleb128 0x12
 294 000e 06       		.uleb128 0x6
 295 000f 10       		.uleb128 0x10
 296 0010 17       		.uleb128 0x17
 297 0011 00       		.byte	0
 298 0012 00       		.byte	0
 299 0013 02       		.uleb128 0x2
 300 0014 24       		.uleb128 0x24
 301 0015 00       		.byte	0
 302 0016 0B       		.uleb128 0xb
 303 0017 0B       		.uleb128 0xb
 304 0018 3E       		.uleb128 0x3e
 305 0019 0B       		.uleb128 0xb
 306 001a 03       		.uleb128 0x3
 307 001b 08       		.uleb128 0x8
 308 001c 00       		.byte	0
 309 001d 00       		.byte	0
 310 001e 03       		.uleb128 0x3
 311 001f 24       		.uleb128 0x24
 312 0020 00       		.byte	0
 313 0021 0B       		.uleb128 0xb
 314 0022 0B       		.uleb128 0xb
 315 0023 3E       		.uleb128 0x3e
 316 0024 0B       		.uleb128 0xb
 317 0025 03       		.uleb128 0x3
 318 0026 0E       		.uleb128 0xe
 319 0027 00       		.byte	0
 320 0028 00       		.byte	0
 321 0029 04       		.uleb128 0x4
 322 002a 16       		.uleb128 0x16
 323 002b 00       		.byte	0
 324 002c 03       		.uleb128 0x3
 325 002d 0E       		.uleb128 0xe
 326 002e 3A       		.uleb128 0x3a
 327 002f 0B       		.uleb128 0xb
 328 0030 3B       		.uleb128 0x3b
 329 0031 0B       		.uleb128 0xb
 330 0032 49       		.uleb128 0x49
 331 0033 13       		.uleb128 0x13
 332 0034 00       		.byte	0
 333 0035 00       		.byte	0
 334 0036 05       		.uleb128 0x5
 335 0037 0F       		.uleb128 0xf
 336 0038 00       		.byte	0
 337 0039 0B       		.uleb128 0xb
 338 003a 0B       		.uleb128 0xb
 339 003b 00       		.byte	0
 340 003c 00       		.byte	0
 341 003d 06       		.uleb128 0x6
 342 003e 35       		.uleb128 0x35
ARM GAS  /tmp/cczHaTbA.s 			page 7


 343 003f 00       		.byte	0
 344 0040 49       		.uleb128 0x49
 345 0041 13       		.uleb128 0x13
 346 0042 00       		.byte	0
 347 0043 00       		.byte	0
 348 0044 07       		.uleb128 0x7
 349 0045 2E       		.uleb128 0x2e
 350 0046 00       		.byte	0
 351 0047 3F       		.uleb128 0x3f
 352 0048 19       		.uleb128 0x19
 353 0049 03       		.uleb128 0x3
 354 004a 0E       		.uleb128 0xe
 355 004b 3A       		.uleb128 0x3a
 356 004c 0B       		.uleb128 0xb
 357 004d 3B       		.uleb128 0x3b
 358 004e 0B       		.uleb128 0xb
 359 004f 11       		.uleb128 0x11
 360 0050 01       		.uleb128 0x1
 361 0051 12       		.uleb128 0x12
 362 0052 06       		.uleb128 0x6
 363 0053 40       		.uleb128 0x40
 364 0054 18       		.uleb128 0x18
 365 0055 9642     		.uleb128 0x2116
 366 0057 19       		.uleb128 0x19
 367 0058 00       		.byte	0
 368 0059 00       		.byte	0
 369 005a 08       		.uleb128 0x8
 370 005b 2E       		.uleb128 0x2e
 371 005c 01       		.byte	0x1
 372 005d 3F       		.uleb128 0x3f
 373 005e 19       		.uleb128 0x19
 374 005f 03       		.uleb128 0x3
 375 0060 0E       		.uleb128 0xe
 376 0061 3A       		.uleb128 0x3a
 377 0062 0B       		.uleb128 0xb
 378 0063 3B       		.uleb128 0x3b
 379 0064 0B       		.uleb128 0xb
 380 0065 27       		.uleb128 0x27
 381 0066 19       		.uleb128 0x19
 382 0067 11       		.uleb128 0x11
 383 0068 01       		.uleb128 0x1
 384 0069 12       		.uleb128 0x12
 385 006a 06       		.uleb128 0x6
 386 006b 40       		.uleb128 0x40
 387 006c 18       		.uleb128 0x18
 388 006d 9642     		.uleb128 0x2116
 389 006f 19       		.uleb128 0x19
 390 0070 01       		.uleb128 0x1
 391 0071 13       		.uleb128 0x13
 392 0072 00       		.byte	0
 393 0073 00       		.byte	0
 394 0074 09       		.uleb128 0x9
 395 0075 05       		.uleb128 0x5
 396 0076 00       		.byte	0
 397 0077 03       		.uleb128 0x3
 398 0078 08       		.uleb128 0x8
 399 0079 3A       		.uleb128 0x3a
ARM GAS  /tmp/cczHaTbA.s 			page 8


 400 007a 0B       		.uleb128 0xb
 401 007b 3B       		.uleb128 0x3b
 402 007c 0B       		.uleb128 0xb
 403 007d 49       		.uleb128 0x49
 404 007e 13       		.uleb128 0x13
 405 007f 02       		.uleb128 0x2
 406 0080 18       		.uleb128 0x18
 407 0081 00       		.byte	0
 408 0082 00       		.byte	0
 409 0083 0A       		.uleb128 0xa
 410 0084 2E       		.uleb128 0x2e
 411 0085 01       		.byte	0x1
 412 0086 3F       		.uleb128 0x3f
 413 0087 19       		.uleb128 0x19
 414 0088 03       		.uleb128 0x3
 415 0089 0E       		.uleb128 0xe
 416 008a 3A       		.uleb128 0x3a
 417 008b 0B       		.uleb128 0xb
 418 008c 3B       		.uleb128 0x3b
 419 008d 0B       		.uleb128 0xb
 420 008e 27       		.uleb128 0x27
 421 008f 19       		.uleb128 0x19
 422 0090 49       		.uleb128 0x49
 423 0091 13       		.uleb128 0x13
 424 0092 11       		.uleb128 0x11
 425 0093 01       		.uleb128 0x1
 426 0094 12       		.uleb128 0x12
 427 0095 06       		.uleb128 0x6
 428 0096 40       		.uleb128 0x40
 429 0097 18       		.uleb128 0x18
 430 0098 9642     		.uleb128 0x2116
 431 009a 19       		.uleb128 0x19
 432 009b 01       		.uleb128 0x1
 433 009c 13       		.uleb128 0x13
 434 009d 00       		.byte	0
 435 009e 00       		.byte	0
 436 009f 0B       		.uleb128 0xb
 437 00a0 2E       		.uleb128 0x2e
 438 00a1 00       		.byte	0
 439 00a2 3F       		.uleb128 0x3f
 440 00a3 19       		.uleb128 0x19
 441 00a4 03       		.uleb128 0x3
 442 00a5 0E       		.uleb128 0xe
 443 00a6 3A       		.uleb128 0x3a
 444 00a7 0B       		.uleb128 0xb
 445 00a8 3B       		.uleb128 0x3b
 446 00a9 0B       		.uleb128 0xb
 447 00aa 49       		.uleb128 0x49
 448 00ab 13       		.uleb128 0x13
 449 00ac 11       		.uleb128 0x11
 450 00ad 01       		.uleb128 0x1
 451 00ae 12       		.uleb128 0x12
 452 00af 06       		.uleb128 0x6
 453 00b0 40       		.uleb128 0x40
 454 00b1 18       		.uleb128 0x18
 455 00b2 9742     		.uleb128 0x2117
 456 00b4 19       		.uleb128 0x19
ARM GAS  /tmp/cczHaTbA.s 			page 9


 457 00b5 00       		.byte	0
 458 00b6 00       		.byte	0
 459 00b7 0C       		.uleb128 0xc
 460 00b8 34       		.uleb128 0x34
 461 00b9 00       		.byte	0
 462 00ba 03       		.uleb128 0x3
 463 00bb 0E       		.uleb128 0xe
 464 00bc 3A       		.uleb128 0x3a
 465 00bd 0B       		.uleb128 0xb
 466 00be 3B       		.uleb128 0x3b
 467 00bf 05       		.uleb128 0x5
 468 00c0 49       		.uleb128 0x49
 469 00c1 13       		.uleb128 0x13
 470 00c2 3F       		.uleb128 0x3f
 471 00c3 19       		.uleb128 0x19
 472 00c4 3C       		.uleb128 0x3c
 473 00c5 19       		.uleb128 0x19
 474 00c6 00       		.byte	0
 475 00c7 00       		.byte	0
 476 00c8 0D       		.uleb128 0xd
 477 00c9 34       		.uleb128 0x34
 478 00ca 00       		.byte	0
 479 00cb 03       		.uleb128 0x3
 480 00cc 0E       		.uleb128 0xe
 481 00cd 3A       		.uleb128 0x3a
 482 00ce 0B       		.uleb128 0xb
 483 00cf 3B       		.uleb128 0x3b
 484 00d0 0B       		.uleb128 0xb
 485 00d1 49       		.uleb128 0x49
 486 00d2 13       		.uleb128 0x13
 487 00d3 3F       		.uleb128 0x3f
 488 00d4 19       		.uleb128 0x19
 489 00d5 02       		.uleb128 0x2
 490 00d6 18       		.uleb128 0x18
 491 00d7 00       		.byte	0
 492 00d8 00       		.byte	0
 493 00d9 00       		.byte	0
 494              		.section	.debug_aranges,"",%progbits
 495 0000 1C000000 		.4byte	0x1c
 496 0004 0200     		.2byte	0x2
 497 0006 00000000 		.4byte	.Ldebug_info0
 498 000a 04       		.byte	0x4
 499 000b 00       		.byte	0
 500 000c 0000     		.2byte	0
 501 000e 0000     		.2byte	0
 502 0010 00000000 		.4byte	.Ltext0
 503 0014 32000000 		.4byte	.Letext0-.Ltext0
 504 0018 00000000 		.4byte	0
 505 001c 00000000 		.4byte	0
 506              		.section	.debug_line,"",%progbits
 507              	.Ldebug_line0:
 508 0000 3C010000 		.section	.debug_str,"MS",%progbits,1
 508      02001901 
 508      00000201 
 508      FB0E0D00 
 508      01010101 
 509              	.LASF7:
ARM GAS  /tmp/cczHaTbA.s 			page 10


 510 0000 6C6F6E67 		.ascii	"long long int\000"
 510      206C6F6E 
 510      6720696E 
 510      7400
 511              	.LASF4:
 512 000e 73686F72 		.ascii	"short unsigned int\000"
 512      7420756E 
 512      7369676E 
 512      65642069 
 512      6E7400
 513              	.LASF0:
 514 0021 756E7369 		.ascii	"unsigned int\000"
 514      676E6564 
 514      20696E74 
 514      00
 515              	.LASF17:
 516 002e 73747562 		.ascii	"stubs.c\000"
 516      732E6300 
 517              	.LASF6:
 518 0036 6C6F6E67 		.ascii	"long unsigned int\000"
 518      20756E73 
 518      69676E65 
 518      6420696E 
 518      7400
 519              	.LASF8:
 520 0048 6C6F6E67 		.ascii	"long long unsigned int\000"
 520      206C6F6E 
 520      6720756E 
 520      7369676E 
 520      65642069 
 521              	.LASF18:
 522 005f 2F686F6D 		.ascii	"/home/tino/workspace/openrobots/Middleware_v2-new/\000"
 522      652F7469 
 522      6E6F2F77 
 522      6F726B73 
 522      70616365 
 523              	.LASF16:
 524 0092 474E5520 		.ascii	"GNU C 4.9.3 20141119 (release) [ARM/embedded-4_9-br"
 524      4320342E 
 524      392E3320 
 524      32303134 
 524      31313139 
 525 00c5 616E6368 		.ascii	"anch revision 218278] -mcpu=cortex-m4 -mno-thumb-in"
 525      20726576 
 525      6973696F 
 525      6E203231 
 525      38323738 
 526 00f8 74657277 		.ascii	"terwork -mthumb -ggdb -O0 -fomit-frame-pointer\000"
 526      6F726B20 
 526      2D6D7468 
 526      756D6220 
 526      2D676764 
 527              	.LASF19:
 528 0127 5F5F6378 		.ascii	"__cxa_pure_virtual\000"
 528      615F7075 
 528      72655F76 
 528      69727475 
ARM GAS  /tmp/cczHaTbA.s 			page 11


 528      616C00
 529              	.LASF20:
 530 013a 5F657869 		.ascii	"_exit\000"
 530      7400
 531              	.LASF15:
 532 0140 5F5F6473 		.ascii	"__dso_handle\000"
 532      6F5F6861 
 532      6E646C65 
 532      00
 533              	.LASF2:
 534 014d 756E7369 		.ascii	"unsigned char\000"
 534      676E6564 
 534      20636861 
 534      7200
 535              	.LASF13:
 536 015b 63686172 		.ascii	"char\000"
 536      00
 537              	.LASF5:
 538 0160 6C6F6E67 		.ascii	"long int\000"
 538      20696E74 
 538      00
 539              	.LASF3:
 540 0169 73686F72 		.ascii	"short int\000"
 540      7420696E 
 540      7400
 541              	.LASF11:
 542 0173 5F426F6F 		.ascii	"_Bool\000"
 542      6C00
 543              	.LASF14:
 544 0179 49544D5F 		.ascii	"ITM_RxBuffer\000"
 544      52784275 
 544      66666572 
 544      00
 545              	.LASF1:
 546 0186 7369676E 		.ascii	"signed char\000"
 546      65642063 
 546      68617200 
 547              	.LASF9:
 548 0192 5F5F696E 		.ascii	"__int32_t\000"
 548      7433325F 
 548      7400
 549              	.LASF22:
 550 019c 5F676574 		.ascii	"_getpid\000"
 550      70696400 
 551              	.LASF10:
 552 01a4 696E7433 		.ascii	"int32_t\000"
 552      325F7400 
 553              	.LASF12:
 554 01ac 73697A65 		.ascii	"sizetype\000"
 554      74797065 
 554      00
 555              	.LASF21:
 556 01b5 5F6B696C 		.ascii	"_kill\000"
 556      6C00
 557              		.ident	"GCC: (GNU Tools for ARM Embedded Processors) 4.9.3 20141119 (release) [ARM/embedded-4_9-br
ARM GAS  /tmp/cczHaTbA.s 			page 12


DEFINED SYMBOLS
                            *ABS*:00000000 stubs.c
                            *COM*:00000004 __dso_handle
     /tmp/cczHaTbA.s:19     .text:00000000 $t
     /tmp/cczHaTbA.s:24     .text:00000000 __cxa_pure_virtual
     /tmp/cczHaTbA.s:47     .text:00000008 _exit
     /tmp/cczHaTbA.s:72     .text:00000014 _kill
     /tmp/cczHaTbA.s:103    .text:0000002c _getpid
                     .debug_frame:00000010 $d

UNDEFINED SYMBOLS
port_halt
