ARM GAS  /tmp/cczHaTbA.s 			page 1


   1              		.syntax unified
   2              		.cpu cortex-m4
   3              		.fpu softvfp
   4              		.eabi_attribute 20, 1
   5              		.eabi_attribute 21, 1
   6              		.eabi_attribute 23, 3
   7              		.eabi_attribute 24, 1
   8              		.eabi_attribute 25, 1
   9              		.eabi_attribute 26, 1
  10              		.eabi_attribute 30, 6
  11              		.eabi_attribute 34, 1
  12              		.eabi_attribute 18, 4
  13              		.thumb
  14              		.file	"stubs.c"
  15              		.text
  16              	.Ltext0:
  17              		.cfi_sections	.debug_frame
  18              		.comm	__dso_handle,4,4
  19              		.align	2
  20              		.global	__cxa_pure_virtual
  21              		.thumb
  22              		.thumb_func
  23              		.type	__cxa_pure_virtual, %function
  24              	__cxa_pure_virtual:
  25              	.LFB118:
  26              		.file 1 "stubs.c"
  27              		.loc 1 5 0
  28              		.cfi_startproc
  29              		@ args = 0, pretend = 0, frame = 0
  30              		@ frame_needed = 0, uses_anonymous_args = 0
  31 0000 08B5     		push	{r3, lr}
  32              		.cfi_def_cfa_offset 8
  33              		.cfi_offset 3, -8
  34              		.cfi_offset 14, -4
  35              		.loc 1 6 0
  36 0002 FFF7FEFF 		bl	port_halt
  37              		.loc 1 7 0
  38 0006 08BD     		pop	{r3, pc}
  39              		.cfi_endproc
  40              	.LFE118:
  41              		.size	__cxa_pure_virtual, .-__cxa_pure_virtual
  42              		.align	2
  43              		.global	_exit
  44              		.thumb
  45              		.thumb_func
  46              		.type	_exit, %function
  47              	_exit:
  48              	.LFB119:
  49              		.loc 1 8 0
  50              		.cfi_startproc
  51              		@ args = 0, pretend = 0, frame = 8
  52              		@ frame_needed = 0, uses_anonymous_args = 0
  53 0008 00B5     		push	{lr}
  54              		.cfi_def_cfa_offset 4
  55              		.cfi_offset 14, -4
  56 000a 83B0     		sub	sp, sp, #12
  57              		.cfi_def_cfa_offset 16
ARM GAS  /tmp/cczHaTbA.s 			page 2


  58 000c 0190     		str	r0, [sp, #4]
  59              		.loc 1 11 0
  60 000e FFF7FEFF 		bl	port_halt
  61              	.L3:
  62              		.loc 1 13 0 discriminator 1
  63 0012 FEE7     		b	.L3
  64              		.cfi_endproc
  65              	.LFE119:
  66              		.size	_exit, .-_exit
  67              		.align	2
  68              		.global	_kill
  69              		.thumb
  70              		.thumb_func
  71              		.type	_kill, %function
  72              	_kill:
  73              	.LFB120:
  74              		.loc 1 15 0
  75              		.cfi_startproc
  76              		@ args = 0, pretend = 0, frame = 8
  77              		@ frame_needed = 0, uses_anonymous_args = 0
  78 0014 00B5     		push	{lr}
  79              		.cfi_def_cfa_offset 4
  80              		.cfi_offset 14, -4
  81 0016 83B0     		sub	sp, sp, #12
  82              		.cfi_def_cfa_offset 16
  83 0018 0190     		str	r0, [sp, #4]
  84 001a 0091     		str	r1, [sp]
  85              		.loc 1 19 0
  86 001c FFF7FEFF 		bl	port_halt
  87              		.loc 1 20 0
  88 0020 4FF0FF33 		mov	r3, #-1
  89              		.loc 1 21 0
  90 0024 1846     		mov	r0, r3
  91 0026 03B0     		add	sp, sp, #12
  92              		.cfi_def_cfa_offset 4
  93              		@ sp needed
  94 0028 5DF804FB 		ldr	pc, [sp], #4
  95              		.cfi_endproc
  96              	.LFE120:
  97              		.size	_kill, .-_kill
  98              		.align	2
  99              		.global	_getpid
 100              		.thumb
 101              		.thumb_func
 102              		.type	_getpid, %function
 103              	_getpid:
 104              	.LFB121:
 105              		.loc 1 22 0
 106              		.cfi_startproc
 107              		@ args = 0, pretend = 0, frame = 0
 108              		@ frame_needed = 0, uses_anonymous_args = 0
 109              		@ link register save eliminated.
 110              		.loc 1 23 0
 111 002c 0123     		movs	r3, #1
 112              		.loc 1 24 0
 113 002e 1846     		mov	r0, r3
 114 0030 7047     		bx	lr
ARM GAS  /tmp/cczHaTbA.s 			page 3


 115              		.cfi_endproc
 116              	.LFE121:
 117              		.size	_getpid, .-_getpid
 118              	.Letext0:
 119              		.file 2 "/opt/R2P/tools/gcc-arm-none-eabi-4_9-2014q4/arm-none-eabi/include/machine/_default_types.
 120              		.file 3 "/opt/R2P/tools/gcc-arm-none-eabi-4_9-2014q4/arm-none-eabi/include/stdint.h"
 121              		.file 4 "/opt/R2P/core/ChibiOS_2.6.5/os/ports/common/ARMCMx/CMSIS/include/core_cm4.h"