ARM GAS  /tmp/ccQ1wW1S.s 			page 1


   1              		.syntax unified
   2              		.cpu cortex-m4
   3              		.fpu softvfp
   4              		.eabi_attribute 20, 1
   5              		.eabi_attribute 21, 1
   6              		.eabi_attribute 23, 3
   7              		.eabi_attribute 24, 1
   8              		.eabi_attribute 25, 1
   9              		.eabi_attribute 26, 1
  10              		.eabi_attribute 30, 6
  11              		.eabi_attribute 34, 1
  12              		.eabi_attribute 18, 4
  13              		.thumb
  14              		.file	"Time.cpp"
  15              		.text
  16              	.Ltext0:
  17              		.cfi_sections	.debug_frame
  18              		.global	_ZN3r2p4Time9IMMEDIATEE
  19              		.bss
  20              		.align	2
  21              		.type	_ZN3r2p4Time9IMMEDIATEE, %object
  22              		.size	_ZN3r2p4Time9IMMEDIATEE, 4
  23              	_ZN3r2p4Time9IMMEDIATEE:
  24 0000 00000000 		.space	4
  25              		.global	_ZN3r2p4Time8INFINITEE
  26              		.align	2
  27              		.type	_ZN3r2p4Time8INFINITEE, %object
  28              		.size	_ZN3r2p4Time8INFINITEE, 4
  29              	_ZN3r2p4Time8INFINITEE:
  30 0004 00000000 		.space	4
  31              		.global	_ZN3r2p4Time9INFINITENE
  32              		.align	2
  33              		.type	_ZN3r2p4Time9INFINITENE, %object
  34              		.size	_ZN3r2p4Time9INFINITENE, 4
  35              	_ZN3r2p4Time9INFINITENE:
  36 0008 00000000 		.space	4
  37              		.section	.text._ZN3r2p4TimeC2IiEET_,"axG",%progbits,_ZN3r2p4TimeC5IiEET_,comdat
  38              		.align	2
  39              		.weak	_ZN3r2p4TimeC2IiEET_
  40              		.thumb
  41              		.thumb_func
  42              		.type	_ZN3r2p4TimeC2IiEET_, %function
  43              	_ZN3r2p4TimeC2IiEET_:
  44              	.LFB77:
  45              		.file 1 "/opt/R2P/core/Middleware/include/r2p/Time.hpp"
  46              		.loc 1 159 0
  47              		.cfi_startproc
  48              		@ args = 0, pretend = 0, frame = 8
  49              		@ frame_needed = 0, uses_anonymous_args = 0
  50              		@ link register save eliminated.
  51 0000 82B0     		sub	sp, sp, #8
  52              		.cfi_def_cfa_offset 8
  53 0002 0190     		str	r0, [sp, #4]
  54 0004 0091     		str	r1, [sp]
  55              	.LBB2:
  56              		.loc 1 161 0
  57 0006 019B     		ldr	r3, [sp, #4]
ARM GAS  /tmp/ccQ1wW1S.s 			page 2


  58 0008 009A     		ldr	r2, [sp]
  59 000a 1A60     		str	r2, [r3]
  60              	.LBE2:
  61              		.loc 1 162 0
  62 000c 019B     		ldr	r3, [sp, #4]
  63 000e 1846     		mov	r0, r3
  64 0010 02B0     		add	sp, sp, #8
  65              		.cfi_def_cfa_offset 0
  66              		@ sp needed
  67 0012 7047     		bx	lr
  68              		.cfi_endproc
  69              	.LFE77:
  70              		.size	_ZN3r2p4TimeC2IiEET_, .-_ZN3r2p4TimeC2IiEET_
  71              		.weak	_ZN3r2p4TimeC1IiEET_
  72              		.thumb_set _ZN3r2p4TimeC1IiEET_,_ZN3r2p4TimeC2IiEET_
  73              		.text
  74              		.align	2
  75              		.thumb
  76              		.thumb_func
  77              		.type	_Z41__static_initialization_and_destruction_0ii, %function
  78              	_Z41__static_initialization_and_destruction_0ii:
  79              	.LFB79:
  80              		.file 2 "/opt/R2P/core/Middleware/src/Time.cpp"
  81              		.loc 2 12 0
  82              		.cfi_startproc
  83              		@ args = 0, pretend = 0, frame = 8
  84              		@ frame_needed = 0, uses_anonymous_args = 0
  85 0000 00B5     		push	{lr}
  86              		.cfi_def_cfa_offset 4
  87              		.cfi_offset 14, -4
  88 0002 83B0     		sub	sp, sp, #12
  89              		.cfi_def_cfa_offset 16
  90 0004 0190     		str	r0, [sp, #4]
  91 0006 0091     		str	r1, [sp]
  92              		.loc 2 12 0
  93 0008 019B     		ldr	r3, [sp, #4]
  94 000a 012B     		cmp	r3, #1
  95 000c 12D1     		bne	.L4
  96              		.loc 2 12 0 is_stmt 0 discriminator 1
  97 000e 009B     		ldr	r3, [sp]
  98 0010 4FF6FF72 		movw	r2, #65535
  99 0014 9342     		cmp	r3, r2
 100 0016 0DD1     		bne	.L4
 101              		.loc 2 7 0 is_stmt 1
 102 0018 0848     		ldr	r0, .L6
 103 001a 0021     		movs	r1, #0
 104 001c FFF7FEFF 		bl	_ZN3r2p4TimeC1IiEET_
 105              		.loc 2 8 0
 106 0020 0748     		ldr	r0, .L6+4
 107 0022 6FF00041 		mvn	r1, #-2147483648
 108 0026 FFF7FEFF 		bl	_ZN3r2p4TimeC1IiEET_
 109              		.loc 2 9 0
 110 002a 0648     		ldr	r0, .L6+8
 111 002c 4FF00041 		mov	r1, #-2147483648
 112 0030 FFF7FEFF 		bl	_ZN3r2p4TimeC1IiEET_
 113              	.L4:
 114              		.loc 2 12 0
ARM GAS  /tmp/ccQ1wW1S.s 			page 3


 115 0034 03B0     		add	sp, sp, #12
 116              		.cfi_def_cfa_offset 4
 117              		@ sp needed
 118 0036 5DF804FB 		ldr	pc, [sp], #4
 119              	.L7:
 120 003a 00BF     		.align	2
 121              	.L6:
 122 003c 00000000 		.word	_ZN3r2p4Time9IMMEDIATEE
 123 0040 00000000 		.word	_ZN3r2p4Time8INFINITEE
 124 0044 00000000 		.word	_ZN3r2p4Time9INFINITENE
 125              		.cfi_endproc
 126              	.LFE79:
 127              		.size	_Z41__static_initialization_and_destruction_0ii, .-_Z41__static_initialization_and_destructi
 128              		.align	2
 129              		.thumb
 130              		.thumb_func
 131              		.type	_GLOBAL__sub_I__ZN3r2p4Time9IMMEDIATEE, %function
 132              	_GLOBAL__sub_I__ZN3r2p4Time9IMMEDIATEE:
 133              	.LFB80:
 134              		.loc 2 12 0
 135              		.cfi_startproc
 136              		@ args = 0, pretend = 0, frame = 0
 137              		@ frame_needed = 0, uses_anonymous_args = 0
 138 0048 08B5     		push	{r3, lr}
 139              		.cfi_def_cfa_offset 8
 140              		.cfi_offset 3, -8
 141              		.cfi_offset 14, -4
 142              		.loc 2 12 0
 143 004a 0120     		movs	r0, #1
 144 004c 4FF6FF71 		movw	r1, #65535
 145 0050 FFF7D6FF 		bl	_Z41__static_initialization_and_destruction_0ii
 146 0054 08BD     		pop	{r3, pc}
 147              		.cfi_endproc
 148              	.LFE80:
 149              		.size	_GLOBAL__sub_I__ZN3r2p4Time9IMMEDIATEE, .-_GLOBAL__sub_I__ZN3r2p4Time9IMMEDIATEE
 150              		.section	.init_array,"aw",%init_array
 151              		.align	2
 152 0000 00000000 		.word	_GLOBAL__sub_I__ZN3r2p4Time9IMMEDIATEE(target1)
 153              		.text
 154              	.Letext0:
 155              		.file 3 "/opt/R2P/tools/gcc-arm-none-eabi-4_9-2014q4/lib/gcc/arm-none-eabi/4.9.3/include/stddef.h"
 156              		.file 4 "/opt/R2P/tools/gcc-arm-none-eabi-4_9-2014q4/arm-none-eabi/include/machine/_default_types.
 157              		.file 5 "/opt/R2P/tools/gcc-arm-none-eabi-4_9-2014q4/arm-none-eabi/include/c++/4.9.3/cstring"
 158              		.file 6 "/opt/R2P/tools/gcc-arm-none-eabi-4_9-2014q4/arm-none-eabi/include/string.h"
 159              		.file 7 "<built-in>"
 160              		.file 8 "/opt/R2P/core/Middleware/include/r2p/Uncopyable.hpp"
 161              		.file 9 "/opt/R2P/tools/gcc-arm-none-eabi-4_9-2014q4/arm-none-eabi/include/stdint.h"