ARM GAS  /tmp/ccEdf2vV.s 			page 1


   1              		.syntax unified
   2              		.cpu cortex-m4
   3              		.fpu softvfp
   4              		.eabi_attribute 20, 1
   5              		.eabi_attribute 21, 1
   6              		.eabi_attribute 23, 3
   7              		.eabi_attribute 24, 1
   8              		.eabi_attribute 25, 1
   9              		.eabi_attribute 26, 1
  10              		.eabi_attribute 30, 6
  11              		.eabi_attribute 34, 1
  12              		.eabi_attribute 18, 4
  13              		.thumb
  14              		.file	"TimestampedMsgPtrQueue.cpp"
  15              		.text
  16              	.Ltext0:
  17              		.cfi_sections	.debug_frame
  18              		.section	.text._ZN3r2p10UncopyableC2Ev,"axG",%progbits,_ZN3r2p10UncopyableC5Ev,comdat
  19              		.align	2
  20              		.weak	_ZN3r2p10UncopyableC2Ev
  21              		.thumb
  22              		.thumb_func
  23              		.type	_ZN3r2p10UncopyableC2Ev, %function
  24              	_ZN3r2p10UncopyableC2Ev:
  25              	.LFB6:
  26              		.file 1 "/opt/R2P/core/Middleware/include/r2p/Uncopyable.hpp"
  27              		.loc 1 20 0
  28              		.cfi_startproc
  29              		@ args = 0, pretend = 0, frame = 8
  30              		@ frame_needed = 0, uses_anonymous_args = 0
  31              		@ link register save eliminated.
  32 0000 82B0     		sub	sp, sp, #8
  33              		.cfi_def_cfa_offset 8
  34 0002 0190     		str	r0, [sp, #4]
  35              		.loc 1 20 0
  36 0004 019B     		ldr	r3, [sp, #4]
  37 0006 1846     		mov	r0, r3
  38 0008 02B0     		add	sp, sp, #8
  39              		.cfi_def_cfa_offset 0
  40              		@ sp needed
  41 000a 7047     		bx	lr
  42              		.cfi_endproc
  43              	.LFE6:
  44              		.size	_ZN3r2p10UncopyableC2Ev, .-_ZN3r2p10UncopyableC2Ev
  45              		.weak	_ZN3r2p10UncopyableC1Ev
  46              		.thumb_set _ZN3r2p10UncopyableC1Ev,_ZN3r2p10UncopyableC2Ev
  47              		.text
  48              		.align	2
  49              		.global	_ZN3r2p22TimestampedMsgPtrQueueC2EPNS0_5EntryEj
  50              		.thumb
  51              		.thumb_func
  52              		.type	_ZN3r2p22TimestampedMsgPtrQueueC2EPNS0_5EntryEj, %function
  53              	_ZN3r2p22TimestampedMsgPtrQueueC2EPNS0_5EntryEj:
  54              	.LFB99:
  55              		.file 2 "/opt/R2P/core/Middleware/src/TimestampedMsgPtrQueue.cpp"
  56              		.loc 2 7 0
  57              		.cfi_startproc
ARM GAS  /tmp/ccEdf2vV.s 			page 2


  58              		@ args = 0, pretend = 0, frame = 16
  59              		@ frame_needed = 0, uses_anonymous_args = 0
  60 0000 00B5     		push	{lr}
  61              		.cfi_def_cfa_offset 4
  62              		.cfi_offset 14, -4
  63 0002 85B0     		sub	sp, sp, #20
  64              		.cfi_def_cfa_offset 24
  65 0004 0390     		str	r0, [sp, #12]
  66 0006 0291     		str	r1, [sp, #8]
  67 0008 0192     		str	r2, [sp, #4]
  68              	.LBB2:
  69              		.loc 2 9 0
  70 000a 039B     		ldr	r3, [sp, #12]
  71 000c 1846     		mov	r0, r3
  72 000e 0299     		ldr	r1, [sp, #8]
  73 0010 019A     		ldr	r2, [sp, #4]
  74 0012 FFF7FEFF 		bl	_ZN3r2p10ArrayQueueINS_22TimestampedMsgPtrQueue5EntryEEC1EPS2_j
  75              	.LBE2:
  76              		.loc 2 10 0
  77 0016 039B     		ldr	r3, [sp, #12]
  78 0018 1846     		mov	r0, r3
  79 001a 05B0     		add	sp, sp, #20
  80              		.cfi_def_cfa_offset 4
  81              		@ sp needed
  82 001c 5DF804FB 		ldr	pc, [sp], #4
  83              		.cfi_endproc
  84              	.LFE99:
  85              		.size	_ZN3r2p22TimestampedMsgPtrQueueC2EPNS0_5EntryEj, .-_ZN3r2p22TimestampedMsgPtrQueueC2EPNS0_5E
  86              		.global	_ZN3r2p22TimestampedMsgPtrQueueC1EPNS0_5EntryEj
  87              		.thumb_set _ZN3r2p22TimestampedMsgPtrQueueC1EPNS0_5EntryEj,_ZN3r2p22TimestampedMsgPtrQueueC2EPNS0_
  88              		.section	.rodata
  89              		.align	2
  90              	.LC0:
  91 0000 5232505F 		.ascii	"R2P_ASSERT()\000"
  91      41535345 
  91      52542829 
  91      00
  92 000d 000000   		.section	.text._ZN3r2p10ArrayQueueINS_22TimestampedMsgPtrQueue5EntryEEC2EPS2_j,"axG",%progbits,_ZN
  93              		.align	2
  94              		.weak	_ZN3r2p10ArrayQueueINS_22TimestampedMsgPtrQueue5EntryEEC2EPS2_j
  95              		.thumb
  96              		.thumb_func
  97              		.type	_ZN3r2p10ArrayQueueINS_22TimestampedMsgPtrQueue5EntryEEC2EPS2_j, %function
  98              	_ZN3r2p10ArrayQueueINS_22TimestampedMsgPtrQueue5EntryEEC2EPS2_j:
  99              	.LFB117:
 100              		.file 3 "/opt/R2P/core/Middleware/include/r2p/ArrayQueue.hpp"
 101              		.loc 3 125 0
 102              		.cfi_startproc
 103              		@ args = 0, pretend = 0, frame = 16
 104              		@ frame_needed = 0, uses_anonymous_args = 0
 105 0000 00B5     		push	{lr}
 106              		.cfi_def_cfa_offset 4
 107              		.cfi_offset 14, -4
 108 0002 85B0     		sub	sp, sp, #20
 109              		.cfi_def_cfa_offset 24
 110 0004 0390     		str	r0, [sp, #12]
 111 0006 0291     		str	r1, [sp, #8]
ARM GAS  /tmp/ccEdf2vV.s 			page 3


 112 0008 0192     		str	r2, [sp, #4]
 113              	.LBB3:
 114              		.loc 3 131 0
 115 000a 0398     		ldr	r0, [sp, #12]
 116 000c FFF7FEFF 		bl	_ZN3r2p10UncopyableC2Ev
 117 0010 039B     		ldr	r3, [sp, #12]
 118 0012 029A     		ldr	r2, [sp, #8]
 119 0014 1A60     		str	r2, [r3]
 120 0016 039B     		ldr	r3, [sp, #12]
 121 0018 019A     		ldr	r2, [sp, #4]
 122 001a 5A60     		str	r2, [r3, #4]
 123 001c 039B     		ldr	r3, [sp, #12]
 124 001e 0022     		movs	r2, #0
 125 0020 9A60     		str	r2, [r3, #8]
 126 0022 039B     		ldr	r3, [sp, #12]
 127 0024 029A     		ldr	r2, [sp, #8]
 128 0026 DA60     		str	r2, [r3, #12]
 129 0028 039B     		ldr	r3, [sp, #12]
 130 002a 029A     		ldr	r2, [sp, #8]
 131 002c 1A61     		str	r2, [r3, #16]
 132              		.loc 3 133 0
 133 002e 029B     		ldr	r3, [sp, #8]
 134 0030 002B     		cmp	r3, #0
 135 0032 02D1     		bne	.L8
 136              		.loc 3 133 0 is_stmt 0 discriminator 1
 137 0034 0648     		ldr	r0, .L11
 138 0036 FFF7FEFF 		bl	chDbgPanic
 139              	.L8:
 140              		.loc 3 134 0 is_stmt 1
 141 003a 019B     		ldr	r3, [sp, #4]
 142 003c 002B     		cmp	r3, #0
 143 003e 02D1     		bne	.L9
 144              		.loc 3 134 0 is_stmt 0 discriminator 1
 145 0040 0348     		ldr	r0, .L11
 146 0042 FFF7FEFF 		bl	chDbgPanic
 147              	.L9:
 148              	.LBE3:
 149              		.loc 3 135 0 is_stmt 1
 150 0046 039B     		ldr	r3, [sp, #12]
 151 0048 1846     		mov	r0, r3
 152 004a 05B0     		add	sp, sp, #20
 153              		.cfi_def_cfa_offset 4
 154              		@ sp needed
 155 004c 5DF804FB 		ldr	pc, [sp], #4
 156              	.L12:
 157              		.align	2
 158              	.L11:
 159 0050 00000000 		.word	.LC0
 160              		.cfi_endproc
 161              	.LFE117:
 162              		.size	_ZN3r2p10ArrayQueueINS_22TimestampedMsgPtrQueue5EntryEEC2EPS2_j, .-_ZN3r2p10ArrayQueueINS_22
 163              		.weak	_ZN3r2p10ArrayQueueINS_22TimestampedMsgPtrQueue5EntryEEC1EPS2_j
 164              		.thumb_set _ZN3r2p10ArrayQueueINS_22TimestampedMsgPtrQueue5EntryEEC1EPS2_j,_ZN3r2p10ArrayQueueINS_
 165              		.text
 166              	.Letext0:
 167              		.file 4 "/opt/R2P/tools/gcc-arm-none-eabi-4_9-2014q4/lib/gcc/arm-none-eabi/4.9.3/include/stddef.h"
 168              		.file 5 "/opt/R2P/tools/gcc-arm-none-eabi-4_9-2014q4/arm-none-eabi/include/machine/_default_types.
ARM GAS  /tmp/ccEdf2vV.s 			page 4


 169              		.file 6 "/opt/R2P/tools/gcc-arm-none-eabi-4_9-2014q4/arm-none-eabi/include/c++/4.9.3/cstring"
 170              		.file 7 "/opt/R2P/tools/gcc-arm-none-eabi-4_9-2014q4/arm-none-eabi/include/string.h"
 171              		.file 8 "<built-in>"
 172              		.file 9 "/opt/R2P/core/Middleware/include/r2p/Time.hpp"
 173              		.file 10 "/opt/R2P/core/Middleware/include/r2p/TimestampedMsgPtrQueue.hpp"
 174              		.file 11 "/opt/R2P/tools/gcc-arm-none-eabi-4_9-2014q4/arm-none-eabi/include/stdint.h"