ARM GAS  /tmp/ccQ1wW1S.s 			page 1


   1              		.syntax unified
   2              		.cpu cortex-m4
   3              		.fpu softvfp
   4              		.eabi_attribute 20, 1
   5              		.eabi_attribute 21, 1
   6              		.eabi_attribute 23, 3
   7              		.eabi_attribute 24, 1
   8              		.eabi_attribute 25, 1
   9              		.eabi_attribute 26, 1
  10              		.eabi_attribute 30, 6
  11              		.eabi_attribute 34, 1
  12              		.eabi_attribute 18, 4
  13              		.thumb
  14              		.file	"Time.cpp"
  15              		.text
  16              	.Ltext0:
  17              		.cfi_sections	.debug_frame
  18              		.global	_ZN3r2p4Time9IMMEDIATEE
  19              		.bss
  20              		.align	2
  21              		.type	_ZN3r2p4Time9IMMEDIATEE, %object
  22              		.size	_ZN3r2p4Time9IMMEDIATEE, 4
  23              	_ZN3r2p4Time9IMMEDIATEE:
  24 0000 00000000 		.space	4
  25              		.global	_ZN3r2p4Time8INFINITEE
  26              		.align	2
  27              		.type	_ZN3r2p4Time8INFINITEE, %object
  28              		.size	_ZN3r2p4Time8INFINITEE, 4
  29              	_ZN3r2p4Time8INFINITEE:
  30 0004 00000000 		.space	4
  31              		.global	_ZN3r2p4Time9INFINITENE
  32              		.align	2
  33              		.type	_ZN3r2p4Time9INFINITENE, %object
  34              		.size	_ZN3r2p4Time9INFINITENE, 4
  35              	_ZN3r2p4Time9INFINITENE:
  36 0008 00000000 		.space	4
  37              		.section	.text._ZN3r2p4TimeC2IiEET_,"axG",%progbits,_ZN3r2p4TimeC5IiEET_,comdat
  38              		.align	2
  39              		.weak	_ZN3r2p4TimeC2IiEET_
  40              		.thumb
  41              		.thumb_func
  42              		.type	_ZN3r2p4TimeC2IiEET_, %function
  43              	_ZN3r2p4TimeC2IiEET_:
  44              	.LFB77:
  45              		.file 1 "/opt/R2P/core/Middleware/include/r2p/Time.hpp"
  46              		.loc 1 159 0
  47              		.cfi_startproc
  48              		@ args = 0, pretend = 0, frame = 8
  49              		@ frame_needed = 0, uses_anonymous_args = 0
  50              		@ link register save eliminated.
  51 0000 82B0     		sub	sp, sp, #8
  52              		.cfi_def_cfa_offset 8
  53 0002 0190     		str	r0, [sp, #4]
  54 0004 0091     		str	r1, [sp]
  55              	.LBB2:
  56              		.loc 1 161 0
  57 0006 019B     		ldr	r3, [sp, #4]
ARM GAS  /tmp/ccQ1wW1S.s 			page 2


  58 0008 009A     		ldr	r2, [sp]
  59 000a 1A60     		str	r2, [r3]
  60              	.LBE2:
  61              		.loc 1 162 0
  62 000c 019B     		ldr	r3, [sp, #4]
  63 000e 1846     		mov	r0, r3
  64 0010 02B0     		add	sp, sp, #8
  65              		.cfi_def_cfa_offset 0
  66              		@ sp needed
  67 0012 7047     		bx	lr
  68              		.cfi_endproc
  69              	.LFE77:
  70              		.size	_ZN3r2p4TimeC2IiEET_, .-_ZN3r2p4TimeC2IiEET_
  71              		.weak	_ZN3r2p4TimeC1IiEET_
  72              		.thumb_set _ZN3r2p4TimeC1IiEET_,_ZN3r2p4TimeC2IiEET_
  73              		.text
  74              		.align	2
  75              		.thumb
  76              		.thumb_func
  77              		.type	_Z41__static_initialization_and_destruction_0ii, %function
  78              	_Z41__static_initialization_and_destruction_0ii:
  79              	.LFB79:
  80              		.file 2 "/opt/R2P/core/Middleware/src/Time.cpp"
  81              		.loc 2 12 0
  82              		.cfi_startproc
  83              		@ args = 0, pretend = 0, frame = 8
  84              		@ frame_needed = 0, uses_anonymous_args = 0
  85 0000 00B5     		push	{lr}
  86              		.cfi_def_cfa_offset 4
  87              		.cfi_offset 14, -4
  88 0002 83B0     		sub	sp, sp, #12
  89              		.cfi_def_cfa_offset 16
  90 0004 0190     		str	r0, [sp, #4]
  91 0006 0091     		str	r1, [sp]
  92              		.loc 2 12 0
  93 0008 019B     		ldr	r3, [sp, #4]
  94 000a 012B     		cmp	r3, #1
  95 000c 12D1     		bne	.L4
  96              		.loc 2 12 0 is_stmt 0 discriminator 1
  97 000e 009B     		ldr	r3, [sp]
  98 0010 4FF6FF72 		movw	r2, #65535
  99 0014 9342     		cmp	r3, r2
 100 0016 0DD1     		bne	.L4
 101              		.loc 2 7 0 is_stmt 1
 102 0018 0848     		ldr	r0, .L6
 103 001a 0021     		movs	r1, #0
 104 001c FFF7FEFF 		bl	_ZN3r2p4TimeC1IiEET_
 105              		.loc 2 8 0
 106 0020 0748     		ldr	r0, .L6+4
 107 0022 6FF00041 		mvn	r1, #-2147483648
 108 0026 FFF7FEFF 		bl	_ZN3r2p4TimeC1IiEET_
 109              		.loc 2 9 0
 110 002a 0648     		ldr	r0, .L6+8
 111 002c 4FF00041 		mov	r1, #-2147483648
 112 0030 FFF7FEFF 		bl	_ZN3r2p4TimeC1IiEET_
 113              	.L4:
 114              		.loc 2 12 0
ARM GAS  /tmp/ccQ1wW1S.s 			page 3


 115 0034 03B0     		add	sp, sp, #12
 116              		.cfi_def_cfa_offset 4
 117              		@ sp needed
 118 0036 5DF804FB 		ldr	pc, [sp], #4
 119              	.L7:
 120 003a 00BF     		.align	2
 121              	.L6:
 122 003c 00000000 		.word	_ZN3r2p4Time9IMMEDIATEE
 123 0040 00000000 		.word	_ZN3r2p4Time8INFINITEE
 124 0044 00000000 		.word	_ZN3r2p4Time9INFINITENE
 125              		.cfi_endproc
 126              	.LFE79:
 127              		.size	_Z41__static_initialization_and_destruction_0ii, .-_Z41__static_initialization_and_destructi
 128              		.align	2
 129              		.thumb
 130              		.thumb_func
 131              		.type	_GLOBAL__sub_I__ZN3r2p4Time9IMMEDIATEE, %function
 132              	_GLOBAL__sub_I__ZN3r2p4Time9IMMEDIATEE:
 133              	.LFB80:
 134              		.loc 2 12 0
 135              		.cfi_startproc
 136              		@ args = 0, pretend = 0, frame = 0
 137              		@ frame_needed = 0, uses_anonymous_args = 0
 138 0048 08B5     		push	{r3, lr}
 139              		.cfi_def_cfa_offset 8
 140              		.cfi_offset 3, -8
 141              		.cfi_offset 14, -4
 142              		.loc 2 12 0
 143 004a 0120     		movs	r0, #1
 144 004c 4FF6FF71 		movw	r1, #65535
 145 0050 FFF7D6FF 		bl	_Z41__static_initialization_and_destruction_0ii
 146 0054 08BD     		pop	{r3, pc}
 147              		.cfi_endproc
 148              	.LFE80:
 149              		.size	_GLOBAL__sub_I__ZN3r2p4Time9IMMEDIATEE, .-_GLOBAL__sub_I__ZN3r2p4Time9IMMEDIATEE
 150              		.section	.init_array,"aw",%init_array
 151              		.align	2
 152 0000 00000000 		.word	_GLOBAL__sub_I__ZN3r2p4Time9IMMEDIATEE(target1)
 153              		.text
 154              	.Letext0:
 155              		.file 3 "/opt/R2P/tools/gcc-arm-none-eabi-4_9-2014q4/lib/gcc/arm-none-eabi/4.9.3/include/stddef.h"
 156              		.file 4 "/opt/R2P/tools/gcc-arm-none-eabi-4_9-2014q4/arm-none-eabi/include/machine/_default_types.
 157              		.file 5 "/opt/R2P/tools/gcc-arm-none-eabi-4_9-2014q4/arm-none-eabi/include/c++/4.9.3/cstring"
 158              		.file 6 "/opt/R2P/tools/gcc-arm-none-eabi-4_9-2014q4/arm-none-eabi/include/string.h"
 159              		.file 7 "<built-in>"
 160              		.file 8 "/opt/R2P/core/Middleware/include/r2p/Uncopyable.hpp"
 161              		.file 9 "/opt/R2P/tools/gcc-arm-none-eabi-4_9-2014q4/arm-none-eabi/include/stdint.h"
 162 0056 00BF     		.section	.debug_info,"",%progbits
 163              	.Ldebug_info0:
 164 0000 35050000 		.4byte	0x535
 165 0004 0400     		.2byte	0x4
 166 0006 00000000 		.4byte	.Ldebug_abbrev0
 167 000a 04       		.byte	0x4
 168 000b 01       		.uleb128 0x1
 169 000c F5000000 		.4byte	.LASF64
 170 0010 04       		.byte	0x4
 171 0011 84000000 		.4byte	.LASF65
ARM GAS  /tmp/ccQ1wW1S.s 			page 4


 172 0015 51000000 		.4byte	.LASF66
 173 0019 00000000 		.4byte	.Ldebug_ranges0+0
 174 001d 00000000 		.4byte	0
 175 0021 00000000 		.4byte	.Ldebug_line0
 176 0025 02       		.uleb128 0x2
 177 0026 04       		.byte	0x4
 178 0027 05       		.byte	0x5
 179 0028 696E7400 		.ascii	"int\000"
 180 002c 03       		.uleb128 0x3
 181 002d 41000000 		.4byte	.LASF5
 182 0031 03       		.byte	0x3
 183 0032 D4       		.byte	0xd4
 184 0033 37000000 		.4byte	0x37
 185 0037 04       		.uleb128 0x4
 186 0038 04       		.byte	0x4
 187 0039 07       		.byte	0x7
 188 003a 41030000 		.4byte	.LASF0
 189 003e 04       		.uleb128 0x4
 190 003f 01       		.byte	0x1
 191 0040 06       		.byte	0x6
 192 0041 49020000 		.4byte	.LASF1
 193 0045 04       		.uleb128 0x4
 194 0046 01       		.byte	0x1
 195 0047 08       		.byte	0x8
 196 0048 FA020000 		.4byte	.LASF2
 197 004c 04       		.uleb128 0x4
 198 004d 02       		.byte	0x2
 199 004e 05       		.byte	0x5
 200 004f 37000000 		.4byte	.LASF3
 201 0053 04       		.uleb128 0x4
 202 0054 02       		.byte	0x2
 203 0055 07       		.byte	0x7
 204 0056 6F030000 		.4byte	.LASF4
 205 005a 03       		.uleb128 0x3
 206 005b 6E040000 		.4byte	.LASF6
 207 005f 04       		.byte	0x4
 208 0060 3F       		.byte	0x3f
 209 0061 65000000 		.4byte	0x65
 210 0065 04       		.uleb128 0x4
 211 0066 04       		.byte	0x4
 212 0067 05       		.byte	0x5
 213 0068 98030000 		.4byte	.LASF7
 214 006c 04       		.uleb128 0x4
 215 006d 04       		.byte	0x4
 216 006e 07       		.byte	0x7
 217 006f 34040000 		.4byte	.LASF8
 218 0073 04       		.uleb128 0x4
 219 0074 08       		.byte	0x8
 220 0075 05       		.byte	0x5
 221 0076 5F020000 		.4byte	.LASF9
 222 007a 04       		.uleb128 0x4
 223 007b 08       		.byte	0x8
 224 007c 07       		.byte	0x7
 225 007d 19030000 		.4byte	.LASF10
 226 0081 04       		.uleb128 0x4
 227 0082 04       		.byte	0x4
 228 0083 07       		.byte	0x7
ARM GAS  /tmp/ccQ1wW1S.s 			page 5


 229 0084 48000000 		.4byte	.LASF11
 230 0088 05       		.uleb128 0x5
 231 0089 04       		.byte	0x4
 232 008a 8E000000 		.4byte	0x8e
 233 008e 04       		.uleb128 0x4
 234 008f 01       		.byte	0x1
 235 0090 08       		.byte	0x8
 236 0091 76020000 		.4byte	.LASF12
 237 0095 05       		.uleb128 0x5
 238 0096 04       		.byte	0x4
 239 0097 9B000000 		.4byte	0x9b
 240 009b 06       		.uleb128 0x6
 241 009c 8E000000 		.4byte	0x8e
 242 00a0 07       		.uleb128 0x7
 243 00a1 73746400 		.ascii	"std\000"
 244 00a5 07       		.byte	0x7
 245 00a6 00       		.byte	0
 246 00a7 C8000000 		.4byte	0xc8
 247 00ab 08       		.uleb128 0x8
 248 00ac 05       		.byte	0x5
 249 00ad 52       		.byte	0x52
 250 00ae C8000000 		.4byte	0xc8
 251 00b2 08       		.uleb128 0x8
 252 00b3 05       		.byte	0x5
 253 00b4 55       		.byte	0x55
 254 00b5 E2000000 		.4byte	0xe2
 255 00b9 08       		.uleb128 0x8
 256 00ba 05       		.byte	0x5
 257 00bb 5B       		.byte	0x5b
 258 00bc F7000000 		.4byte	0xf7
 259 00c0 08       		.uleb128 0x8
 260 00c1 05       		.byte	0x5
 261 00c2 5C       		.byte	0x5c
 262 00c3 11010000 		.4byte	0x111
 263 00c7 00       		.byte	0
 264 00c8 09       		.uleb128 0x9
 265 00c9 A9030000 		.4byte	.LASF13
 266 00cd 06       		.byte	0x6
 267 00ce 1D       		.byte	0x1d
 268 00cf 25000000 		.4byte	0x25
 269 00d3 E2000000 		.4byte	0xe2
 270 00d7 0A       		.uleb128 0xa
 271 00d8 95000000 		.4byte	0x95
 272 00dc 0A       		.uleb128 0xa
 273 00dd 95000000 		.4byte	0x95
 274 00e1 00       		.byte	0
 275 00e2 09       		.uleb128 0x9
 276 00e3 BE010000 		.4byte	.LASF14
 277 00e7 06       		.byte	0x6
 278 00e8 20       		.byte	0x20
 279 00e9 88000000 		.4byte	0x88
 280 00ed F7000000 		.4byte	0xf7
 281 00f1 0A       		.uleb128 0xa
 282 00f2 25000000 		.4byte	0x25
 283 00f6 00       		.byte	0
 284 00f7 09       		.uleb128 0x9
 285 00f8 AD020000 		.4byte	.LASF15
ARM GAS  /tmp/ccQ1wW1S.s 			page 6


 286 00fc 06       		.byte	0x6
 287 00fd 2A       		.byte	0x2a
 288 00fe 88000000 		.4byte	0x88
 289 0102 11010000 		.4byte	0x111
 290 0106 0A       		.uleb128 0xa
 291 0107 88000000 		.4byte	0x88
 292 010b 0A       		.uleb128 0xa
 293 010c 95000000 		.4byte	0x95
 294 0110 00       		.byte	0
 295 0111 09       		.uleb128 0x9
 296 0112 2C040000 		.4byte	.LASF16
 297 0116 06       		.byte	0x6
 298 0117 2C       		.byte	0x2c
 299 0118 2C000000 		.4byte	0x2c
 300 011c 30010000 		.4byte	0x130
 301 0120 0A       		.uleb128 0xa
 302 0121 88000000 		.4byte	0x88
 303 0125 0A       		.uleb128 0xa
 304 0126 95000000 		.4byte	0x95
 305 012a 0A       		.uleb128 0xa
 306 012b 2C000000 		.4byte	0x2c
 307 012f 00       		.byte	0
 308 0130 07       		.uleb128 0x7
 309 0131 72327000 		.ascii	"r2p\000"
 310 0135 08       		.byte	0x8
 311 0136 03       		.byte	0x3
 312 0137 33040000 		.4byte	0x433
 313 013b 0B       		.uleb128 0xb
 314 013c 4D040000 		.4byte	.LASF50
 315 0140 04       		.byte	0x4
 316 0141 01       		.byte	0x1
 317 0142 08       		.byte	0x8
 318 0143 2D040000 		.4byte	0x42d
 319 0147 0C       		.uleb128 0xc
 320 0148 04       		.byte	0x4
 321 0149 01       		.byte	0x1
 322 014a 0C       		.byte	0xc
 323 014b 01       		.byte	0x1
 324 014c 91010000 		.4byte	0x191
 325 0150 0D       		.uleb128 0xd
 326 0151 91030000 		.4byte	.LASF17
 327 0155 81808080 		.sleb128 -2147483647
 327      78
 328 015a 0D       		.uleb128 0xd
 329 015b BE020000 		.4byte	.LASF18
 330 015f FEFFFFFF 		.sleb128 2147483646
 330      07
 331 0164 0D       		.uleb128 0xd
 332 0165 08030000 		.4byte	.LASF19
 333 0169 E5F6FC7E 		.sleb128 -2147483
 334 016d 0D       		.uleb128 0xd
 335 016e 42020000 		.4byte	.LASF20
 336 0172 9B898301 		.sleb128 2147483
 337 0176 0D       		.uleb128 0xd
 338 0177 8B030000 		.4byte	.LASF21
 339 017b 9D6F     		.sleb128 -2147
 340 017d 0D       		.uleb128 0xd
ARM GAS  /tmp/ccQ1wW1S.s 			page 7


 341 017e 97040000 		.4byte	.LASF22
 342 0182 E310     		.sleb128 2147
 343 0184 0D       		.uleb128 0xd
 344 0185 69030000 		.4byte	.LASF23
 345 0189 23       		.sleb128 35
 346 018a 0D       		.uleb128 0xd
 347 018b A7020000 		.4byte	.LASF24
 348 018f 23       		.sleb128 35
 349 0190 00       		.byte	0
 350 0191 0E       		.uleb128 0xe
 351 0192 27040000 		.4byte	.LASF67
 352 0196 01       		.byte	0x1
 353 0197 0A       		.byte	0xa
 354 0198 33040000 		.4byte	0x433
 355 019c 01       		.byte	0x1
 356 019d 0F       		.uleb128 0xf
 357 019e 72617700 		.ascii	"raw\000"
 358 01a2 01       		.byte	0x1
 359 01a3 1B       		.byte	0x1b
 360 01a4 91010000 		.4byte	0x191
 361 01a8 00       		.byte	0
 362 01a9 01       		.byte	0x1
 363 01aa 10       		.uleb128 0x10
 364 01ab B5040000 		.4byte	.LASF25
 365 01af 01       		.byte	0x1
 366 01b0 3B       		.byte	0x3b
 367 01b1 2D040000 		.4byte	0x42d
 368 01b5 01       		.byte	0x1
 369 01b6 10       		.uleb128 0x10
 370 01b7 AA000000 		.4byte	.LASF26
 371 01bb 01       		.byte	0x1
 372 01bc 3C       		.byte	0x3c
 373 01bd 2D040000 		.4byte	0x42d
 374 01c1 01       		.byte	0x1
 375 01c2 10       		.uleb128 0x10
 376 01c3 55020000 		.4byte	.LASF27
 377 01c7 01       		.byte	0x1
 378 01c8 3D       		.byte	0x3d
 379 01c9 2D040000 		.4byte	0x42d
 380 01cd 01       		.byte	0x1
 381 01ce 11       		.uleb128 0x11
 382 01cf 52040000 		.4byte	.LASF28
 383 01d3 01       		.byte	0x1
 384 01d4 1E       		.byte	0x1e
 385 01d5 FD010000 		.4byte	.LASF30
 386 01d9 91010000 		.4byte	0x191
 387 01dd 01       		.byte	0x1
 388 01de E6010000 		.4byte	0x1e6
 389 01e2 EC010000 		.4byte	0x1ec
 390 01e6 12       		.uleb128 0x12
 391 01e7 45040000 		.4byte	0x445
 392 01eb 00       		.byte	0
 393 01ec 11       		.uleb128 0x11
 394 01ed 78040000 		.4byte	.LASF29
 395 01f1 01       		.byte	0x1
 396 01f2 1F       		.byte	0x1f
 397 01f3 00000000 		.4byte	.LASF31
ARM GAS  /tmp/ccQ1wW1S.s 			page 8


 398 01f7 91010000 		.4byte	0x191
 399 01fb 01       		.byte	0x1
 400 01fc 04020000 		.4byte	0x204
 401 0200 0A020000 		.4byte	0x20a
 402 0204 12       		.uleb128 0x12
 403 0205 45040000 		.4byte	0x445
 404 0209 00       		.byte	0
 405 020a 11       		.uleb128 0x11
 406 020b 82030000 		.4byte	.LASF32
 407 020f 01       		.byte	0x1
 408 0210 20       		.byte	0x20
 409 0211 F6030000 		.4byte	.LASF33
 410 0215 91010000 		.4byte	0x191
 411 0219 01       		.byte	0x1
 412 021a 22020000 		.4byte	0x222
 413 021e 28020000 		.4byte	0x228
 414 0222 12       		.uleb128 0x12
 415 0223 45040000 		.4byte	0x445
 416 0227 00       		.byte	0
 417 0228 11       		.uleb128 0x11
 418 0229 6D020000 		.4byte	.LASF34
 419 022d 01       		.byte	0x1
 420 022e 21       		.byte	0x21
 421 022f D4020000 		.4byte	.LASF35
 422 0233 91010000 		.4byte	0x191
 423 0237 01       		.byte	0x1
 424 0238 40020000 		.4byte	0x240
 425 023c 46020000 		.4byte	0x246
 426 0240 12       		.uleb128 0x12
 427 0241 45040000 		.4byte	0x445
 428 0245 00       		.byte	0
 429 0246 11       		.uleb128 0x11
 430 0247 31000000 		.4byte	.LASF36
 431 024b 01       		.byte	0x1
 432 024c 23       		.byte	0x23
 433 024d 17020000 		.4byte	.LASF37
 434 0251 4B040000 		.4byte	0x44b
 435 0255 01       		.byte	0x1
 436 0256 5E020000 		.4byte	0x25e
 437 025a 64020000 		.4byte	0x264
 438 025e 12       		.uleb128 0x12
 439 025f 45040000 		.4byte	0x445
 440 0263 00       		.byte	0
 441 0264 11       		.uleb128 0x11
 442 0265 4E030000 		.4byte	.LASF38
 443 0269 01       		.byte	0x1
 444 026a 24       		.byte	0x24
 445 026b DF000000 		.4byte	.LASF39
 446 026f 4B040000 		.4byte	0x44b
 447 0273 01       		.byte	0x1
 448 0274 7C020000 		.4byte	0x27c
 449 0278 82020000 		.4byte	0x282
 450 027c 12       		.uleb128 0x12
 451 027d 45040000 		.4byte	0x445
 452 0281 00       		.byte	0
 453 0282 11       		.uleb128 0x11
 454 0283 C7010000 		.4byte	.LASF40
ARM GAS  /tmp/ccQ1wW1S.s 			page 9


 455 0287 01       		.byte	0x1
 456 0288 25       		.byte	0x25
 457 0289 2D020000 		.4byte	.LASF41
 458 028d 4B040000 		.4byte	0x44b
 459 0291 01       		.byte	0x1
 460 0292 9A020000 		.4byte	0x29a
 461 0296 A0020000 		.4byte	0x2a0
 462 029a 12       		.uleb128 0x12
 463 029b 45040000 		.4byte	0x445
 464 029f 00       		.byte	0
 465 02a0 11       		.uleb128 0x11
 466 02a1 DA000000 		.4byte	.LASF42
 467 02a5 01       		.byte	0x1
 468 02a6 26       		.byte	0x26
 469 02a7 E4040000 		.4byte	.LASF43
 470 02ab 4B040000 		.4byte	0x44b
 471 02af 01       		.byte	0x1
 472 02b0 B8020000 		.4byte	0x2b8
 473 02b4 BE020000 		.4byte	0x2be
 474 02b8 12       		.uleb128 0x12
 475 02b9 45040000 		.4byte	0x445
 476 02bd 00       		.byte	0
 477 02be 11       		.uleb128 0x11
 478 02bf 0F030000 		.4byte	.LASF44
 479 02c3 01       		.byte	0x1
 480 02c4 28       		.byte	0x28
 481 02c5 7B020000 		.4byte	.LASF45
 482 02c9 52040000 		.4byte	0x452
 483 02cd 01       		.byte	0x1
 484 02ce D6020000 		.4byte	0x2d6
 485 02d2 E1020000 		.4byte	0x2e1
 486 02d6 12       		.uleb128 0x12
 487 02d7 58040000 		.4byte	0x458
 488 02db 0A       		.uleb128 0xa
 489 02dc 5E040000 		.4byte	0x45e
 490 02e0 00       		.byte	0
 491 02e1 11       		.uleb128 0x11
 492 02e2 EB030000 		.4byte	.LASF46
 493 02e6 01       		.byte	0x1
 494 02e7 29       		.byte	0x29
 495 02e8 CC010000 		.4byte	.LASF47
 496 02ec 52040000 		.4byte	0x452
 497 02f0 01       		.byte	0x1
 498 02f1 F9020000 		.4byte	0x2f9
 499 02f5 04030000 		.4byte	0x304
 500 02f9 12       		.uleb128 0x12
 501 02fa 58040000 		.4byte	0x458
 502 02fe 0A       		.uleb128 0xa
 503 02ff 5E040000 		.4byte	0x45e
 504 0303 00       		.byte	0
 505 0304 11       		.uleb128 0x11
 506 0305 F2010000 		.4byte	.LASF48
 507 0309 01       		.byte	0x1
 508 030a 2A       		.byte	0x2a
 509 030b 54030000 		.4byte	.LASF49
 510 030f 52040000 		.4byte	0x452
 511 0313 01       		.byte	0x1
ARM GAS  /tmp/ccQ1wW1S.s 			page 10


 512 0314 1C030000 		.4byte	0x31c
 513 0318 27030000 		.4byte	0x327
 514 031c 12       		.uleb128 0x12
 515 031d 58040000 		.4byte	0x458
 516 0321 0A       		.uleb128 0xa
 517 0322 5E040000 		.4byte	0x45e
 518 0326 00       		.byte	0
 519 0327 13       		.uleb128 0x13
 520 0328 4D040000 		.4byte	.LASF50
 521 032c 01       		.byte	0x1
 522 032d 2D       		.byte	0x2d
 523 032e 58040000 		.4byte	0x458
 524 0332 01       		.byte	0x1
 525 0333 3B030000 		.4byte	0x33b
 526 0337 41030000 		.4byte	0x341
 527 033b 12       		.uleb128 0x12
 528 033c 58040000 		.4byte	0x458
 529 0340 00       		.byte	0
 530 0341 14       		.uleb128 0x14
 531 0342 4D040000 		.4byte	.LASF50
 532 0346 01       		.byte	0x1
 533 0347 2F       		.byte	0x2f
 534 0348 58040000 		.4byte	0x458
 535 034c 01       		.byte	0x1
 536 034d 55030000 		.4byte	0x355
 537 0351 60030000 		.4byte	0x360
 538 0355 12       		.uleb128 0x12
 539 0356 58040000 		.4byte	0x458
 540 035a 0A       		.uleb128 0xa
 541 035b 4B040000 		.4byte	0x44b
 542 035f 00       		.byte	0
 543 0360 13       		.uleb128 0x13
 544 0361 4D040000 		.4byte	.LASF50
 545 0365 01       		.byte	0x1
 546 0366 30       		.byte	0x30
 547 0367 58040000 		.4byte	0x458
 548 036b 01       		.byte	0x1
 549 036c 74030000 		.4byte	0x374
 550 0370 7F030000 		.4byte	0x37f
 551 0374 12       		.uleb128 0x12
 552 0375 58040000 		.4byte	0x458
 553 0379 0A       		.uleb128 0xa
 554 037a 5E040000 		.4byte	0x45e
 555 037e 00       		.byte	0
 556 037f 15       		.uleb128 0x15
 557 0380 757300   		.ascii	"us\000"
 558 0383 01       		.byte	0x1
 559 0384 33       		.byte	0x33
 560 0385 1A000000 		.4byte	.LASF51
 561 0389 3B010000 		.4byte	0x13b
 562 038d 01       		.byte	0x1
 563 038e 98030000 		.4byte	0x398
 564 0392 0A       		.uleb128 0xa
 565 0393 91010000 		.4byte	0x191
 566 0397 00       		.byte	0
 567 0398 15       		.uleb128 0x15
 568 0399 6D7300   		.ascii	"ms\000"
ARM GAS  /tmp/ccQ1wW1S.s 			page 11


 569 039c 01       		.byte	0x1
 570 039d 34       		.byte	0x34
 571 039e BF040000 		.4byte	.LASF52
 572 03a2 3B010000 		.4byte	0x13b
 573 03a6 01       		.byte	0x1
 574 03a7 B1030000 		.4byte	0x3b1
 575 03ab 0A       		.uleb128 0xa
 576 03ac 91010000 		.4byte	0x191
 577 03b0 00       		.byte	0
 578 03b1 15       		.uleb128 0x15
 579 03b2 7300     		.ascii	"s\000"
 580 03b4 01       		.byte	0x1
 581 03b5 35       		.byte	0x35
 582 03b6 30030000 		.4byte	.LASF53
 583 03ba 3B010000 		.4byte	0x13b
 584 03be 01       		.byte	0x1
 585 03bf C9030000 		.4byte	0x3c9
 586 03c3 0A       		.uleb128 0xa
 587 03c4 91010000 		.4byte	0x191
 588 03c8 00       		.byte	0
 589 03c9 15       		.uleb128 0x15
 590 03ca 6D00     		.ascii	"m\000"
 591 03cc 01       		.byte	0x1
 592 03cd 36       		.byte	0x36
 593 03ce E1010000 		.4byte	.LASF54
 594 03d2 3B010000 		.4byte	0x13b
 595 03d6 01       		.byte	0x1
 596 03d7 E1030000 		.4byte	0x3e1
 597 03db 0A       		.uleb128 0xa
 598 03dc 91010000 		.4byte	0x191
 599 03e0 00       		.byte	0
 600 03e1 15       		.uleb128 0x15
 601 03e2 687A00   		.ascii	"hz\000"
 602 03e5 01       		.byte	0x1
 603 03e6 37       		.byte	0x37
 604 03e7 5C040000 		.4byte	.LASF55
 605 03eb 3B010000 		.4byte	0x13b
 606 03ef 01       		.byte	0x1
 607 03f0 FA030000 		.4byte	0x3fa
 608 03f4 0A       		.uleb128 0xa
 609 03f5 4B040000 		.4byte	0x44b
 610 03f9 00       		.byte	0
 611 03fa 16       		.uleb128 0x16
 612 03fb 6E6F7700 		.ascii	"now\000"
 613 03ff 01       		.byte	0x1
 614 0400 38       		.byte	0x38
 615 0401 D1040000 		.4byte	.LASF68
 616 0405 3B010000 		.4byte	0x13b
 617 0409 01       		.byte	0x1
 618 040a 17       		.uleb128 0x17
 619 040b B4020000 		.4byte	.LASF69
 620 040f 01       		.byte	0x1
 621 0410 9F       		.byte	0x9f
 622 0411 58040000 		.4byte	0x458
 623 0415 01       		.byte	0x1
 624 0416 21040000 		.4byte	0x421
 625 041a 18       		.uleb128 0x18
ARM GAS  /tmp/ccQ1wW1S.s 			page 12


 626 041b 5400     		.ascii	"T\000"
 627 041d 25000000 		.4byte	0x25
 628 0421 12       		.uleb128 0x12
 629 0422 58040000 		.4byte	0x458
 630 0426 0A       		.uleb128 0xa
 631 0427 25000000 		.4byte	0x25
 632 042b 00       		.byte	0
 633 042c 00       		.byte	0
 634 042d 06       		.uleb128 0x6
 635 042e 3B010000 		.4byte	0x13b
 636 0432 00       		.byte	0
 637 0433 03       		.uleb128 0x3
 638 0434 A1030000 		.4byte	.LASF56
 639 0438 09       		.byte	0x9
 640 0439 2C       		.byte	0x2c
 641 043a 5A000000 		.4byte	0x5a
 642 043e 04       		.uleb128 0x4
 643 043f 01       		.byte	0x1
 644 0440 02       		.byte	0x2
 645 0441 2C000000 		.4byte	.LASF57
 646 0445 05       		.uleb128 0x5
 647 0446 04       		.byte	0x4
 648 0447 2D040000 		.4byte	0x42d
 649 044b 04       		.uleb128 0x4
 650 044c 08       		.byte	0x8
 651 044d 04       		.byte	0x4
 652 044e 46040000 		.4byte	.LASF58
 653 0452 19       		.uleb128 0x19
 654 0453 04       		.byte	0x4
 655 0454 3B010000 		.4byte	0x13b
 656 0458 05       		.uleb128 0x5
 657 0459 04       		.byte	0x4
 658 045a 3B010000 		.4byte	0x13b
 659 045e 19       		.uleb128 0x19
 660 045f 04       		.byte	0x4
 661 0460 2D040000 		.4byte	0x42d
 662 0464 1A       		.uleb128 0x1a
 663 0465 0A040000 		.4byte	0x40a
 664 0469 02       		.byte	0x2
 665 046a 79040000 		.4byte	0x479
 666 046e 8E040000 		.4byte	0x48e
 667 0472 18       		.uleb128 0x18
 668 0473 5400     		.ascii	"T\000"
 669 0475 25000000 		.4byte	0x25
 670 0479 1B       		.uleb128 0x1b
 671 047a E6030000 		.4byte	.LASF70
 672 047e 8E040000 		.4byte	0x48e
 673 0482 1C       		.uleb128 0x1c
 674 0483 ED020000 		.4byte	.LASF71
 675 0487 01       		.byte	0x1
 676 0488 9F       		.byte	0x9f
 677 0489 25000000 		.4byte	0x25
 678 048d 00       		.byte	0
 679 048e 06       		.uleb128 0x6
 680 048f 58040000 		.4byte	0x458
 681 0493 1D       		.uleb128 0x1d
 682 0494 64040000 		.4byte	0x464
ARM GAS  /tmp/ccQ1wW1S.s 			page 13


 683 0498 82040000 		.4byte	.LASF72
 684 049c 00000000 		.4byte	.LFB77
 685 04a0 14000000 		.4byte	.LFE77-.LFB77
 686 04a4 01       		.uleb128 0x1
 687 04a5 9C       		.byte	0x9c
 688 04a6 B5040000 		.4byte	0x4b5
 689 04aa C6040000 		.4byte	0x4c6
 690 04ae 18       		.uleb128 0x18
 691 04af 5400     		.ascii	"T\000"
 692 04b1 25000000 		.4byte	0x25
 693 04b5 1E       		.uleb128 0x1e
 694 04b6 79040000 		.4byte	0x479
 695 04ba 02       		.uleb128 0x2
 696 04bb 91       		.byte	0x91
 697 04bc 7C       		.sleb128 -4
 698 04bd 1E       		.uleb128 0x1e
 699 04be 82040000 		.4byte	0x482
 700 04c2 02       		.uleb128 0x2
 701 04c3 91       		.byte	0x91
 702 04c4 78       		.sleb128 -8
 703 04c5 00       		.byte	0
 704 04c6 1F       		.uleb128 0x1f
 705 04c7 B1030000 		.4byte	.LASF73
 706 04cb 00000000 		.4byte	.LFB79
 707 04cf 48000000 		.4byte	.LFE79-.LFB79
 708 04d3 01       		.uleb128 0x1
 709 04d4 9C       		.byte	0x9c
 710 04d5 F6040000 		.4byte	0x4f6
 711 04d9 20       		.uleb128 0x20
 712 04da C5020000 		.4byte	.LASF59
 713 04de 02       		.byte	0x2
 714 04df 0C       		.byte	0xc
 715 04e0 25000000 		.4byte	0x25
 716 04e4 02       		.uleb128 0x2
 717 04e5 91       		.byte	0x91
 718 04e6 74       		.sleb128 -12
 719 04e7 20       		.uleb128 0x20
 720 04e8 DB030000 		.4byte	.LASF60
 721 04ec 02       		.byte	0x2
 722 04ed 0C       		.byte	0xc
 723 04ee 25000000 		.4byte	0x25
 724 04f2 02       		.uleb128 0x2
 725 04f3 91       		.byte	0x91
 726 04f4 70       		.sleb128 -16
 727 04f5 00       		.byte	0
 728 04f6 21       		.uleb128 0x21
 729 04f7 B3000000 		.4byte	.LASF74
 730 04fb 48000000 		.4byte	.LFB80
 731 04ff 0E000000 		.4byte	.LFE80-.LFB80
 732 0503 01       		.uleb128 0x1
 733 0504 9C       		.byte	0x9c
 734 0505 22       		.uleb128 0x22
 735 0506 AA010000 		.4byte	0x1aa
 736 050a 02       		.byte	0x2
 737 050b 07       		.byte	0x7
 738 050c 9D040000 		.4byte	.LASF61
 739 0510 05       		.uleb128 0x5
ARM GAS  /tmp/ccQ1wW1S.s 			page 14


 740 0511 03       		.byte	0x3
 741 0512 00000000 		.4byte	_ZN3r2p4Time9IMMEDIATEE
 742 0516 22       		.uleb128 0x22
 743 0517 B6010000 		.4byte	0x1b6
 744 051b 02       		.byte	0x2
 745 051c 08       		.byte	0x8
 746 051d 90020000 		.4byte	.LASF62
 747 0521 05       		.uleb128 0x5
 748 0522 03       		.byte	0x3
 749 0523 00000000 		.4byte	_ZN3r2p4Time8INFINITEE
 750 0527 22       		.uleb128 0x22
 751 0528 C2010000 		.4byte	0x1c2
 752 052c 02       		.byte	0x2
 753 052d 09       		.byte	0x9
 754 052e 0F040000 		.4byte	.LASF63
 755 0532 05       		.uleb128 0x5
 756 0533 03       		.byte	0x3
 757 0534 00000000 		.4byte	_ZN3r2p4Time9INFINITENE
 758 0538 00       		.byte	0
 759              		.section	.debug_abbrev,"",%progbits
 760              	.Ldebug_abbrev0:
 761 0000 01       		.uleb128 0x1
 762 0001 11       		.uleb128 0x11
 763 0002 01       		.byte	0x1
 764 0003 25       		.uleb128 0x25
 765 0004 0E       		.uleb128 0xe
 766 0005 13       		.uleb128 0x13
 767 0006 0B       		.uleb128 0xb
 768 0007 03       		.uleb128 0x3
 769 0008 0E       		.uleb128 0xe
 770 0009 1B       		.uleb128 0x1b
 771 000a 0E       		.uleb128 0xe
 772 000b 55       		.uleb128 0x55
 773 000c 17       		.uleb128 0x17
 774 000d 11       		.uleb128 0x11
 775 000e 01       		.uleb128 0x1
 776 000f 10       		.uleb128 0x10
 777 0010 17       		.uleb128 0x17
 778 0011 00       		.byte	0
 779 0012 00       		.byte	0
 780 0013 02       		.uleb128 0x2
 781 0014 24       		.uleb128 0x24
 782 0015 00       		.byte	0
 783 0016 0B       		.uleb128 0xb
 784 0017 0B       		.uleb128 0xb
 785 0018 3E       		.uleb128 0x3e
 786 0019 0B       		.uleb128 0xb
 787 001a 03       		.uleb128 0x3
 788 001b 08       		.uleb128 0x8
 789 001c 00       		.byte	0
 790 001d 00       		.byte	0
 791 001e 03       		.uleb128 0x3
 792 001f 16       		.uleb128 0x16
 793 0020 00       		.byte	0
 794 0021 03       		.uleb128 0x3
 795 0022 0E       		.uleb128 0xe
 796 0023 3A       		.uleb128 0x3a
ARM GAS  /tmp/ccQ1wW1S.s 			page 15


 797 0024 0B       		.uleb128 0xb
 798 0025 3B       		.uleb128 0x3b
 799 0026 0B       		.uleb128 0xb
 800 0027 49       		.uleb128 0x49
 801 0028 13       		.uleb128 0x13
 802 0029 00       		.byte	0
 803 002a 00       		.byte	0
 804 002b 04       		.uleb128 0x4
 805 002c 24       		.uleb128 0x24
 806 002d 00       		.byte	0
 807 002e 0B       		.uleb128 0xb
 808 002f 0B       		.uleb128 0xb
 809 0030 3E       		.uleb128 0x3e
 810 0031 0B       		.uleb128 0xb
 811 0032 03       		.uleb128 0x3
 812 0033 0E       		.uleb128 0xe
 813 0034 00       		.byte	0
 814 0035 00       		.byte	0
 815 0036 05       		.uleb128 0x5
 816 0037 0F       		.uleb128 0xf
 817 0038 00       		.byte	0
 818 0039 0B       		.uleb128 0xb
 819 003a 0B       		.uleb128 0xb
 820 003b 49       		.uleb128 0x49
 821 003c 13       		.uleb128 0x13
 822 003d 00       		.byte	0
 823 003e 00       		.byte	0
 824 003f 06       		.uleb128 0x6
 825 0040 26       		.uleb128 0x26
 826 0041 00       		.byte	0
 827 0042 49       		.uleb128 0x49
 828 0043 13       		.uleb128 0x13
 829 0044 00       		.byte	0
 830 0045 00       		.byte	0
 831 0046 07       		.uleb128 0x7
 832 0047 39       		.uleb128 0x39
 833 0048 01       		.byte	0x1
 834 0049 03       		.uleb128 0x3
 835 004a 08       		.uleb128 0x8
 836 004b 3A       		.uleb128 0x3a
 837 004c 0B       		.uleb128 0xb
 838 004d 3B       		.uleb128 0x3b
 839 004e 0B       		.uleb128 0xb
 840 004f 01       		.uleb128 0x1
 841 0050 13       		.uleb128 0x13
 842 0051 00       		.byte	0
 843 0052 00       		.byte	0
 844 0053 08       		.uleb128 0x8
 845 0054 08       		.uleb128 0x8
 846 0055 00       		.byte	0
 847 0056 3A       		.uleb128 0x3a
 848 0057 0B       		.uleb128 0xb
 849 0058 3B       		.uleb128 0x3b
 850 0059 0B       		.uleb128 0xb
 851 005a 18       		.uleb128 0x18
 852 005b 13       		.uleb128 0x13
 853 005c 00       		.byte	0
ARM GAS  /tmp/ccQ1wW1S.s 			page 16


 854 005d 00       		.byte	0
 855 005e 09       		.uleb128 0x9
 856 005f 2E       		.uleb128 0x2e
 857 0060 01       		.byte	0x1
 858 0061 3F       		.uleb128 0x3f
 859 0062 19       		.uleb128 0x19
 860 0063 03       		.uleb128 0x3
 861 0064 0E       		.uleb128 0xe
 862 0065 3A       		.uleb128 0x3a
 863 0066 0B       		.uleb128 0xb
 864 0067 3B       		.uleb128 0x3b
 865 0068 0B       		.uleb128 0xb
 866 0069 49       		.uleb128 0x49
 867 006a 13       		.uleb128 0x13
 868 006b 3C       		.uleb128 0x3c
 869 006c 19       		.uleb128 0x19
 870 006d 01       		.uleb128 0x1
 871 006e 13       		.uleb128 0x13
 872 006f 00       		.byte	0
 873 0070 00       		.byte	0
 874 0071 0A       		.uleb128 0xa
 875 0072 05       		.uleb128 0x5
 876 0073 00       		.byte	0
 877 0074 49       		.uleb128 0x49
 878 0075 13       		.uleb128 0x13
 879 0076 00       		.byte	0
 880 0077 00       		.byte	0
 881 0078 0B       		.uleb128 0xb
 882 0079 02       		.uleb128 0x2
 883 007a 01       		.byte	0x1
 884 007b 03       		.uleb128 0x3
 885 007c 0E       		.uleb128 0xe
 886 007d 0B       		.uleb128 0xb
 887 007e 0B       		.uleb128 0xb
 888 007f 3A       		.uleb128 0x3a
 889 0080 0B       		.uleb128 0xb
 890 0081 3B       		.uleb128 0x3b
 891 0082 0B       		.uleb128 0xb
 892 0083 01       		.uleb128 0x1
 893 0084 13       		.uleb128 0x13
 894 0085 00       		.byte	0
 895 0086 00       		.byte	0
 896 0087 0C       		.uleb128 0xc
 897 0088 04       		.uleb128 0x4
 898 0089 01       		.byte	0x1
 899 008a 0B       		.uleb128 0xb
 900 008b 0B       		.uleb128 0xb
 901 008c 3A       		.uleb128 0x3a
 902 008d 0B       		.uleb128 0xb
 903 008e 3B       		.uleb128 0x3b
 904 008f 0B       		.uleb128 0xb
 905 0090 32       		.uleb128 0x32
 906 0091 0B       		.uleb128 0xb
 907 0092 01       		.uleb128 0x1
 908 0093 13       		.uleb128 0x13
 909 0094 00       		.byte	0
 910 0095 00       		.byte	0
ARM GAS  /tmp/ccQ1wW1S.s 			page 17


 911 0096 0D       		.uleb128 0xd
 912 0097 28       		.uleb128 0x28
 913 0098 00       		.byte	0
 914 0099 03       		.uleb128 0x3
 915 009a 0E       		.uleb128 0xe
 916 009b 1C       		.uleb128 0x1c
 917 009c 0D       		.uleb128 0xd
 918 009d 00       		.byte	0
 919 009e 00       		.byte	0
 920 009f 0E       		.uleb128 0xe
 921 00a0 16       		.uleb128 0x16
 922 00a1 00       		.byte	0
 923 00a2 03       		.uleb128 0x3
 924 00a3 0E       		.uleb128 0xe
 925 00a4 3A       		.uleb128 0x3a
 926 00a5 0B       		.uleb128 0xb
 927 00a6 3B       		.uleb128 0x3b
 928 00a7 0B       		.uleb128 0xb
 929 00a8 49       		.uleb128 0x49
 930 00a9 13       		.uleb128 0x13
 931 00aa 32       		.uleb128 0x32
 932 00ab 0B       		.uleb128 0xb
 933 00ac 00       		.byte	0
 934 00ad 00       		.byte	0
 935 00ae 0F       		.uleb128 0xf
 936 00af 0D       		.uleb128 0xd
 937 00b0 00       		.byte	0
 938 00b1 03       		.uleb128 0x3
 939 00b2 08       		.uleb128 0x8
 940 00b3 3A       		.uleb128 0x3a
 941 00b4 0B       		.uleb128 0xb
 942 00b5 3B       		.uleb128 0x3b
 943 00b6 0B       		.uleb128 0xb
 944 00b7 49       		.uleb128 0x49
 945 00b8 13       		.uleb128 0x13
 946 00b9 38       		.uleb128 0x38
 947 00ba 0B       		.uleb128 0xb
 948 00bb 32       		.uleb128 0x32
 949 00bc 0B       		.uleb128 0xb
 950 00bd 00       		.byte	0
 951 00be 00       		.byte	0
 952 00bf 10       		.uleb128 0x10
 953 00c0 0D       		.uleb128 0xd
 954 00c1 00       		.byte	0
 955 00c2 03       		.uleb128 0x3
 956 00c3 0E       		.uleb128 0xe
 957 00c4 3A       		.uleb128 0x3a
 958 00c5 0B       		.uleb128 0xb
 959 00c6 3B       		.uleb128 0x3b
 960 00c7 0B       		.uleb128 0xb
 961 00c8 49       		.uleb128 0x49
 962 00c9 13       		.uleb128 0x13
 963 00ca 3F       		.uleb128 0x3f
 964 00cb 19       		.uleb128 0x19
 965 00cc 32       		.uleb128 0x32
 966 00cd 0B       		.uleb128 0xb
 967 00ce 3C       		.uleb128 0x3c
ARM GAS  /tmp/ccQ1wW1S.s 			page 18


 968 00cf 19       		.uleb128 0x19
 969 00d0 00       		.byte	0
 970 00d1 00       		.byte	0
 971 00d2 11       		.uleb128 0x11
 972 00d3 2E       		.uleb128 0x2e
 973 00d4 01       		.byte	0x1
 974 00d5 3F       		.uleb128 0x3f
 975 00d6 19       		.uleb128 0x19
 976 00d7 03       		.uleb128 0x3
 977 00d8 0E       		.uleb128 0xe
 978 00d9 3A       		.uleb128 0x3a
 979 00da 0B       		.uleb128 0xb
 980 00db 3B       		.uleb128 0x3b
 981 00dc 0B       		.uleb128 0xb
 982 00dd 6E       		.uleb128 0x6e
 983 00de 0E       		.uleb128 0xe
 984 00df 49       		.uleb128 0x49
 985 00e0 13       		.uleb128 0x13
 986 00e1 32       		.uleb128 0x32
 987 00e2 0B       		.uleb128 0xb
 988 00e3 3C       		.uleb128 0x3c
 989 00e4 19       		.uleb128 0x19
 990 00e5 64       		.uleb128 0x64
 991 00e6 13       		.uleb128 0x13
 992 00e7 01       		.uleb128 0x1
 993 00e8 13       		.uleb128 0x13
 994 00e9 00       		.byte	0
 995 00ea 00       		.byte	0
 996 00eb 12       		.uleb128 0x12
 997 00ec 05       		.uleb128 0x5
 998 00ed 00       		.byte	0
 999 00ee 49       		.uleb128 0x49
 1000 00ef 13       		.uleb128 0x13
 1001 00f0 34       		.uleb128 0x34
 1002 00f1 19       		.uleb128 0x19
 1003 00f2 00       		.byte	0
 1004 00f3 00       		.byte	0
 1005 00f4 13       		.uleb128 0x13
 1006 00f5 2E       		.uleb128 0x2e
 1007 00f6 01       		.byte	0x1
 1008 00f7 3F       		.uleb128 0x3f
 1009 00f8 19       		.uleb128 0x19
 1010 00f9 03       		.uleb128 0x3
 1011 00fa 0E       		.uleb128 0xe
 1012 00fb 3A       		.uleb128 0x3a
 1013 00fc 0B       		.uleb128 0xb
 1014 00fd 3B       		.uleb128 0x3b
 1015 00fe 0B       		.uleb128 0xb
 1016 00ff 49       		.uleb128 0x49
 1017 0100 13       		.uleb128 0x13
 1018 0101 32       		.uleb128 0x32
 1019 0102 0B       		.uleb128 0xb
 1020 0103 3C       		.uleb128 0x3c
 1021 0104 19       		.uleb128 0x19
 1022 0105 64       		.uleb128 0x64
 1023 0106 13       		.uleb128 0x13
 1024 0107 01       		.uleb128 0x1
ARM GAS  /tmp/ccQ1wW1S.s 			page 19


 1025 0108 13       		.uleb128 0x13
 1026 0109 00       		.byte	0
 1027 010a 00       		.byte	0
 1028 010b 14       		.uleb128 0x14
 1029 010c 2E       		.uleb128 0x2e
 1030 010d 01       		.byte	0x1
 1031 010e 3F       		.uleb128 0x3f
 1032 010f 19       		.uleb128 0x19
 1033 0110 03       		.uleb128 0x3
 1034 0111 0E       		.uleb128 0xe
 1035 0112 3A       		.uleb128 0x3a
 1036 0113 0B       		.uleb128 0xb
 1037 0114 3B       		.uleb128 0x3b
 1038 0115 0B       		.uleb128 0xb
 1039 0116 49       		.uleb128 0x49
 1040 0117 13       		.uleb128 0x13
 1041 0118 32       		.uleb128 0x32
 1042 0119 0B       		.uleb128 0xb
 1043 011a 3C       		.uleb128 0x3c
 1044 011b 19       		.uleb128 0x19
 1045 011c 63       		.uleb128 0x63
 1046 011d 19       		.uleb128 0x19
 1047 011e 64       		.uleb128 0x64
 1048 011f 13       		.uleb128 0x13
 1049 0120 01       		.uleb128 0x1
 1050 0121 13       		.uleb128 0x13
 1051 0122 00       		.byte	0
 1052 0123 00       		.byte	0
 1053 0124 15       		.uleb128 0x15
 1054 0125 2E       		.uleb128 0x2e
 1055 0126 01       		.byte	0x1
 1056 0127 3F       		.uleb128 0x3f
 1057 0128 19       		.uleb128 0x19
 1058 0129 03       		.uleb128 0x3
 1059 012a 08       		.uleb128 0x8
 1060 012b 3A       		.uleb128 0x3a
 1061 012c 0B       		.uleb128 0xb
 1062 012d 3B       		.uleb128 0x3b
 1063 012e 0B       		.uleb128 0xb
 1064 012f 6E       		.uleb128 0x6e
 1065 0130 0E       		.uleb128 0xe
 1066 0131 49       		.uleb128 0x49
 1067 0132 13       		.uleb128 0x13
 1068 0133 32       		.uleb128 0x32
 1069 0134 0B       		.uleb128 0xb
 1070 0135 3C       		.uleb128 0x3c
 1071 0136 19       		.uleb128 0x19
 1072 0137 01       		.uleb128 0x1
 1073 0138 13       		.uleb128 0x13
 1074 0139 00       		.byte	0
 1075 013a 00       		.byte	0
 1076 013b 16       		.uleb128 0x16
 1077 013c 2E       		.uleb128 0x2e
 1078 013d 00       		.byte	0
 1079 013e 3F       		.uleb128 0x3f
 1080 013f 19       		.uleb128 0x19
 1081 0140 03       		.uleb128 0x3
ARM GAS  /tmp/ccQ1wW1S.s 			page 20


 1082 0141 08       		.uleb128 0x8
 1083 0142 3A       		.uleb128 0x3a
 1084 0143 0B       		.uleb128 0xb
 1085 0144 3B       		.uleb128 0x3b
 1086 0145 0B       		.uleb128 0xb
 1087 0146 6E       		.uleb128 0x6e
 1088 0147 0E       		.uleb128 0xe
 1089 0148 49       		.uleb128 0x49
 1090 0149 13       		.uleb128 0x13
 1091 014a 32       		.uleb128 0x32
 1092 014b 0B       		.uleb128 0xb
 1093 014c 3C       		.uleb128 0x3c
 1094 014d 19       		.uleb128 0x19
 1095 014e 00       		.byte	0
 1096 014f 00       		.byte	0
 1097 0150 17       		.uleb128 0x17
 1098 0151 2E       		.uleb128 0x2e
 1099 0152 01       		.byte	0x1
 1100 0153 3F       		.uleb128 0x3f
 1101 0154 19       		.uleb128 0x19
 1102 0155 03       		.uleb128 0x3
 1103 0156 0E       		.uleb128 0xe
 1104 0157 3A       		.uleb128 0x3a
 1105 0158 0B       		.uleb128 0xb
 1106 0159 3B       		.uleb128 0x3b
 1107 015a 0B       		.uleb128 0xb
 1108 015b 49       		.uleb128 0x49
 1109 015c 13       		.uleb128 0x13
 1110 015d 32       		.uleb128 0x32
 1111 015e 0B       		.uleb128 0xb
 1112 015f 3C       		.uleb128 0x3c
 1113 0160 19       		.uleb128 0x19
 1114 0161 64       		.uleb128 0x64
 1115 0162 13       		.uleb128 0x13
 1116 0163 00       		.byte	0
 1117 0164 00       		.byte	0
 1118 0165 18       		.uleb128 0x18
 1119 0166 2F       		.uleb128 0x2f
 1120 0167 00       		.byte	0
 1121 0168 03       		.uleb128 0x3
 1122 0169 08       		.uleb128 0x8
 1123 016a 49       		.uleb128 0x49
 1124 016b 13       		.uleb128 0x13
 1125 016c 00       		.byte	0
 1126 016d 00       		.byte	0
 1127 016e 19       		.uleb128 0x19
 1128 016f 10       		.uleb128 0x10
 1129 0170 00       		.byte	0
 1130 0171 0B       		.uleb128 0xb
 1131 0172 0B       		.uleb128 0xb
 1132 0173 49       		.uleb128 0x49
 1133 0174 13       		.uleb128 0x13
 1134 0175 00       		.byte	0
 1135 0176 00       		.byte	0
 1136 0177 1A       		.uleb128 0x1a
 1137 0178 2E       		.uleb128 0x2e
 1138 0179 01       		.byte	0x1
ARM GAS  /tmp/ccQ1wW1S.s 			page 21


 1139 017a 47       		.uleb128 0x47
 1140 017b 13       		.uleb128 0x13
 1141 017c 20       		.uleb128 0x20
 1142 017d 0B       		.uleb128 0xb
 1143 017e 64       		.uleb128 0x64
 1144 017f 13       		.uleb128 0x13
 1145 0180 01       		.uleb128 0x1
 1146 0181 13       		.uleb128 0x13
 1147 0182 00       		.byte	0
 1148 0183 00       		.byte	0
 1149 0184 1B       		.uleb128 0x1b
 1150 0185 05       		.uleb128 0x5
 1151 0186 00       		.byte	0
 1152 0187 03       		.uleb128 0x3
 1153 0188 0E       		.uleb128 0xe
 1154 0189 49       		.uleb128 0x49
 1155 018a 13       		.uleb128 0x13
 1156 018b 34       		.uleb128 0x34
 1157 018c 19       		.uleb128 0x19
 1158 018d 00       		.byte	0
 1159 018e 00       		.byte	0
 1160 018f 1C       		.uleb128 0x1c
 1161 0190 05       		.uleb128 0x5
 1162 0191 00       		.byte	0
 1163 0192 03       		.uleb128 0x3
 1164 0193 0E       		.uleb128 0xe
 1165 0194 3A       		.uleb128 0x3a
 1166 0195 0B       		.uleb128 0xb
 1167 0196 3B       		.uleb128 0x3b
 1168 0197 0B       		.uleb128 0xb
 1169 0198 49       		.uleb128 0x49
 1170 0199 13       		.uleb128 0x13
 1171 019a 00       		.byte	0
 1172 019b 00       		.byte	0
 1173 019c 1D       		.uleb128 0x1d
 1174 019d 2E       		.uleb128 0x2e
 1175 019e 01       		.byte	0x1
 1176 019f 31       		.uleb128 0x31
 1177 01a0 13       		.uleb128 0x13
 1178 01a1 6E       		.uleb128 0x6e
 1179 01a2 0E       		.uleb128 0xe
 1180 01a3 11       		.uleb128 0x11
 1181 01a4 01       		.uleb128 0x1
 1182 01a5 12       		.uleb128 0x12
 1183 01a6 06       		.uleb128 0x6
 1184 01a7 40       		.uleb128 0x40
 1185 01a8 18       		.uleb128 0x18
 1186 01a9 64       		.uleb128 0x64
 1187 01aa 13       		.uleb128 0x13
 1188 01ab 9742     		.uleb128 0x2117
 1189 01ad 19       		.uleb128 0x19
 1190 01ae 01       		.uleb128 0x1
 1191 01af 13       		.uleb128 0x13
 1192 01b0 00       		.byte	0
 1193 01b1 00       		.byte	0
 1194 01b2 1E       		.uleb128 0x1e
 1195 01b3 05       		.uleb128 0x5
ARM GAS  /tmp/ccQ1wW1S.s 			page 22


 1196 01b4 00       		.byte	0
 1197 01b5 31       		.uleb128 0x31
 1198 01b6 13       		.uleb128 0x13
 1199 01b7 02       		.uleb128 0x2
 1200 01b8 18       		.uleb128 0x18
 1201 01b9 00       		.byte	0
 1202 01ba 00       		.byte	0
 1203 01bb 1F       		.uleb128 0x1f
 1204 01bc 2E       		.uleb128 0x2e
 1205 01bd 01       		.byte	0x1
 1206 01be 03       		.uleb128 0x3
 1207 01bf 0E       		.uleb128 0xe
 1208 01c0 34       		.uleb128 0x34
 1209 01c1 19       		.uleb128 0x19
 1210 01c2 11       		.uleb128 0x11
 1211 01c3 01       		.uleb128 0x1
 1212 01c4 12       		.uleb128 0x12
 1213 01c5 06       		.uleb128 0x6
 1214 01c6 40       		.uleb128 0x40
 1215 01c7 18       		.uleb128 0x18
 1216 01c8 9642     		.uleb128 0x2116
 1217 01ca 19       		.uleb128 0x19
 1218 01cb 01       		.uleb128 0x1
 1219 01cc 13       		.uleb128 0x13
 1220 01cd 00       		.byte	0
 1221 01ce 00       		.byte	0
 1222 01cf 20       		.uleb128 0x20
 1223 01d0 05       		.uleb128 0x5
 1224 01d1 00       		.byte	0
 1225 01d2 03       		.uleb128 0x3
 1226 01d3 0E       		.uleb128 0xe
 1227 01d4 3A       		.uleb128 0x3a
 1228 01d5 0B       		.uleb128 0xb
 1229 01d6 3B       		.uleb128 0x3b
 1230 01d7 0B       		.uleb128 0xb
 1231 01d8 49       		.uleb128 0x49
 1232 01d9 13       		.uleb128 0x13
 1233 01da 02       		.uleb128 0x2
 1234 01db 18       		.uleb128 0x18
 1235 01dc 00       		.byte	0
 1236 01dd 00       		.byte	0
 1237 01de 21       		.uleb128 0x21
 1238 01df 2E       		.uleb128 0x2e
 1239 01e0 00       		.byte	0
 1240 01e1 03       		.uleb128 0x3
 1241 01e2 0E       		.uleb128 0xe
 1242 01e3 34       		.uleb128 0x34
 1243 01e4 19       		.uleb128 0x19
 1244 01e5 11       		.uleb128 0x11
 1245 01e6 01       		.uleb128 0x1
 1246 01e7 12       		.uleb128 0x12
 1247 01e8 06       		.uleb128 0x6
 1248 01e9 40       		.uleb128 0x40
 1249 01ea 18       		.uleb128 0x18
 1250 01eb 9642     		.uleb128 0x2116
 1251 01ed 19       		.uleb128 0x19
 1252 01ee 00       		.byte	0
ARM GAS  /tmp/ccQ1wW1S.s 			page 23


 1253 01ef 00       		.byte	0
 1254 01f0 22       		.uleb128 0x22
 1255 01f1 34       		.uleb128 0x34
 1256 01f2 00       		.byte	0
 1257 01f3 47       		.uleb128 0x47
 1258 01f4 13       		.uleb128 0x13
 1259 01f5 3A       		.uleb128 0x3a
 1260 01f6 0B       		.uleb128 0xb
 1261 01f7 3B       		.uleb128 0x3b
 1262 01f8 0B       		.uleb128 0xb
 1263 01f9 6E       		.uleb128 0x6e
 1264 01fa 0E       		.uleb128 0xe
 1265 01fb 02       		.uleb128 0x2
 1266 01fc 18       		.uleb128 0x18
 1267 01fd 00       		.byte	0
 1268 01fe 00       		.byte	0
 1269 01ff 00       		.byte	0
 1270              		.section	.debug_aranges,"",%progbits
 1271 0000 24000000 		.4byte	0x24
 1272 0004 0200     		.2byte	0x2
 1273 0006 00000000 		.4byte	.Ldebug_info0
 1274 000a 04       		.byte	0x4
 1275 000b 00       		.byte	0
 1276 000c 0000     		.2byte	0
 1277 000e 0000     		.2byte	0
 1278 0010 00000000 		.4byte	.Ltext0
 1279 0014 56000000 		.4byte	.Letext0-.Ltext0
 1280 0018 00000000 		.4byte	.LFB77
 1281 001c 14000000 		.4byte	.LFE77-.LFB77
 1282 0020 00000000 		.4byte	0
 1283 0024 00000000 		.4byte	0
 1284              		.section	.debug_ranges,"",%progbits
 1285              	.Ldebug_ranges0:
 1286 0000 00000000 		.4byte	.Ltext0
 1287 0004 56000000 		.4byte	.Letext0
 1288 0008 00000000 		.4byte	.LFB77
 1289 000c 14000000 		.4byte	.LFE77
 1290 0010 00000000 		.4byte	0
 1291 0014 00000000 		.4byte	0
 1292              		.section	.debug_line,"",%progbits
 1293              	.Ldebug_line0:
 1294 0000 2F020000 		.section	.debug_str,"MS",%progbits,1
 1294      0200F801 
 1294      00000201 
 1294      FB0E0D00 
 1294      01010101 
 1295              	.LASF31:
 1296 0000 5F5A4E4B 		.ascii	"_ZNK3r2p4Time9to_ms_rawEv\000"
 1296      33723270 
 1296      3454696D 
 1296      6539746F 
 1296      5F6D735F 
 1297              	.LASF51:
 1298 001a 5F5A4E33 		.ascii	"_ZN3r2p4Time2usEl\000"
 1298      72327034 
 1298      54696D65 
 1298      32757345 
ARM GAS  /tmp/ccQ1wW1S.s 			page 24


 1298      6C00
 1299              	.LASF57:
 1300 002c 626F6F6C 		.ascii	"bool\000"
 1300      00
 1301              	.LASF36:
 1302 0031 746F5F75 		.ascii	"to_us\000"
 1302      7300
 1303              	.LASF3:
 1304 0037 73686F72 		.ascii	"short int\000"
 1304      7420696E 
 1304      7400
 1305              	.LASF5:
 1306 0041 73697A65 		.ascii	"size_t\000"
 1306      5F7400
 1307              	.LASF11:
 1308 0048 73697A65 		.ascii	"sizetype\000"
 1308      74797065 
 1308      00
 1309              	.LASF66:
 1310 0051 2F686F6D 		.ascii	"/home/tino/workspace/openrobots/Middleware_v2-new/\000"
 1310      652F7469 
 1310      6E6F2F77 
 1310      6F726B73 
 1310      70616365 
 1311              	.LASF65:
 1312 0084 2F6F7074 		.ascii	"/opt/R2P/core/Middleware/src/Time.cpp\000"
 1312      2F523250 
 1312      2F636F72 
 1312      652F4D69 
 1312      64646C65 
 1313              	.LASF26:
 1314 00aa 494E4649 		.ascii	"INFINITE\000"
 1314      4E495445 
 1314      00
 1315              	.LASF74:
 1316 00b3 5F474C4F 		.ascii	"_GLOBAL__sub_I__ZN3r2p4Time9IMMEDIATEE\000"
 1316      42414C5F 
 1316      5F737562 
 1316      5F495F5F 
 1316      5A4E3372 
 1317              	.LASF42:
 1318 00da 746F5F6D 		.ascii	"to_m\000"
 1318      00
 1319              	.LASF39:
 1320 00df 5F5A4E4B 		.ascii	"_ZNK3r2p4Time5to_msEv\000"
 1320      33723270 
 1320      3454696D 
 1320      6535746F 
 1320      5F6D7345 
 1321              	.LASF64:
 1322 00f5 474E5520 		.ascii	"GNU C++ 4.9.3 20141119 (release) [ARM/embedded-4_9-"
 1322      432B2B20 
 1322      342E392E 
 1322      33203230 
 1322      31343131 
 1323 0128 6272616E 		.ascii	"branch revision 218278] -mcpu=cortex-m4 -mno-thumb-"
 1323      63682072 
ARM GAS  /tmp/ccQ1wW1S.s 			page 25


 1323      65766973 
 1323      696F6E20 
 1323      32313832 
 1324 015b 696E7465 		.ascii	"interwork -mthumb -ggdb -O0 -fomit-frame-pointer -f"
 1324      72776F72 
 1324      6B202D6D 
 1324      7468756D 
 1324      62202D67 
 1325 018e 6E6F2D72 		.ascii	"no-rtti -fno-exceptions -fno-threadsafe-statics\000"
 1325      74746920 
 1325      2D666E6F 
 1325      2D657863 
 1325      65707469 
 1326              	.LASF14:
 1327 01be 73747265 		.ascii	"strerror\000"
 1327      72726F72 
 1327      00
 1328              	.LASF40:
 1329 01c7 746F5F73 		.ascii	"to_s\000"
 1329      00
 1330              	.LASF47:
 1331 01cc 5F5A4E33 		.ascii	"_ZN3r2p4TimepLERKS0_\000"
 1331      72327034 
 1331      54696D65 
 1331      704C4552 
 1331      4B53305F 
 1332              	.LASF54:
 1333 01e1 5F5A4E33 		.ascii	"_ZN3r2p4Time1mEl\000"
 1333      72327034 
 1333      54696D65 
 1333      316D456C 
 1333      00
 1334              	.LASF48:
 1335 01f2 6F706572 		.ascii	"operator-=\000"
 1335      61746F72 
 1335      2D3D00
 1336              	.LASF30:
 1337 01fd 5F5A4E4B 		.ascii	"_ZNK3r2p4Time9to_us_rawEv\000"
 1337      33723270 
 1337      3454696D 
 1337      6539746F 
 1337      5F75735F 
 1338              	.LASF37:
 1339 0217 5F5A4E4B 		.ascii	"_ZNK3r2p4Time5to_usEv\000"
 1339      33723270 
 1339      3454696D 
 1339      6535746F 
 1339      5F757345 
 1340              	.LASF41:
 1341 022d 5F5A4E4B 		.ascii	"_ZNK3r2p4Time4to_sEv\000"
 1341      33723270 
 1341      3454696D 
 1341      6534746F 
 1341      5F734576 
 1342              	.LASF20:
 1343 0242 4D41585F 		.ascii	"MAX_MS\000"
 1343      4D5300
ARM GAS  /tmp/ccQ1wW1S.s 			page 26


 1344              	.LASF1:
 1345 0249 7369676E 		.ascii	"signed char\000"
 1345      65642063 
 1345      68617200 
 1346              	.LASF27:
 1347 0255 494E4649 		.ascii	"INFINITEN\000"
 1347      4E495445 
 1347      4E00
 1348              	.LASF9:
 1349 025f 6C6F6E67 		.ascii	"long long int\000"
 1349      206C6F6E 
 1349      6720696E 
 1349      7400
 1350              	.LASF34:
 1351 026d 746F5F6D 		.ascii	"to_m_raw\000"
 1351      5F726177 
 1351      00
 1352              	.LASF12:
 1353 0276 63686172 		.ascii	"char\000"
 1353      00
 1354              	.LASF45:
 1355 027b 5F5A4E33 		.ascii	"_ZN3r2p4TimeaSERKS0_\000"
 1355      72327034 
 1355      54696D65 
 1355      61534552 
 1355      4B53305F 
 1356              	.LASF62:
 1357 0290 5F5A4E33 		.ascii	"_ZN3r2p4Time8INFINITEE\000"
 1357      72327034 
 1357      54696D65 
 1357      38494E46 
 1357      494E4954 
 1358              	.LASF24:
 1359 02a7 4D41585F 		.ascii	"MAX_M\000"
 1359      4D00
 1360              	.LASF15:
 1361 02ad 73747274 		.ascii	"strtok\000"
 1361      6F6B00
 1362              	.LASF69:
 1363 02b4 54696D65 		.ascii	"Time<int>\000"
 1363      3C696E74 
 1363      3E00
 1364              	.LASF18:
 1365 02be 4D41585F 		.ascii	"MAX_US\000"
 1365      555300
 1366              	.LASF59:
 1367 02c5 5F5F696E 		.ascii	"__initialize_p\000"
 1367      69746961 
 1367      6C697A65 
 1367      5F7000
 1368              	.LASF35:
 1369 02d4 5F5A4E4B 		.ascii	"_ZNK3r2p4Time8to_m_rawEv\000"
 1369      33723270 
 1369      3454696D 
 1369      6538746F 
 1369      5F6D5F72 
 1370              	.LASF71:
ARM GAS  /tmp/ccQ1wW1S.s 			page 27


 1371 02ed 6D696372 		.ascii	"microseconds\000"
 1371      6F736563 
 1371      6F6E6473 
 1371      00
 1372              	.LASF2:
 1373 02fa 756E7369 		.ascii	"unsigned char\000"
 1373      676E6564 
 1373      20636861 
 1373      7200
 1374              	.LASF19:
 1375 0308 4D494E5F 		.ascii	"MIN_MS\000"
 1375      4D5300
 1376              	.LASF44:
 1377 030f 6F706572 		.ascii	"operator=\000"
 1377      61746F72 
 1377      3D00
 1378              	.LASF10:
 1379 0319 6C6F6E67 		.ascii	"long long unsigned int\000"
 1379      206C6F6E 
 1379      6720756E 
 1379      7369676E 
 1379      65642069 
 1380              	.LASF53:
 1381 0330 5F5A4E33 		.ascii	"_ZN3r2p4Time1sEl\000"
 1381      72327034 
 1381      54696D65 
 1381      3173456C 
 1381      00
 1382              	.LASF0:
 1383 0341 756E7369 		.ascii	"unsigned int\000"
 1383      676E6564 
 1383      20696E74 
 1383      00
 1384              	.LASF38:
 1385 034e 746F5F6D 		.ascii	"to_ms\000"
 1385      7300
 1386              	.LASF49:
 1387 0354 5F5A4E33 		.ascii	"_ZN3r2p4TimemIERKS0_\000"
 1387      72327034 
 1387      54696D65 
 1387      6D494552 
 1387      4B53305F 
 1388              	.LASF23:
 1389 0369 4D494E5F 		.ascii	"MIN_M\000"
 1389      4D00
 1390              	.LASF4:
 1391 036f 73686F72 		.ascii	"short unsigned int\000"
 1391      7420756E 
 1391      7369676E 
 1391      65642069 
 1391      6E7400
 1392              	.LASF32:
 1393 0382 746F5F73 		.ascii	"to_s_raw\000"
 1393      5F726177 
 1393      00
 1394              	.LASF21:
 1395 038b 4D494E5F 		.ascii	"MIN_S\000"
ARM GAS  /tmp/ccQ1wW1S.s 			page 28


 1395      5300
 1396              	.LASF17:
 1397 0391 4D494E5F 		.ascii	"MIN_US\000"
 1397      555300
 1398              	.LASF7:
 1399 0398 6C6F6E67 		.ascii	"long int\000"
 1399      20696E74 
 1399      00
 1400              	.LASF56:
 1401 03a1 696E7433 		.ascii	"int32_t\000"
 1401      325F7400 
 1402              	.LASF13:
 1403 03a9 73747263 		.ascii	"strcoll\000"
 1403      6F6C6C00 
 1404              	.LASF73:
 1405 03b1 5F5F7374 		.ascii	"__static_initialization_and_destruction_0\000"
 1405      61746963 
 1405      5F696E69 
 1405      7469616C 
 1405      697A6174 
 1406              	.LASF60:
 1407 03db 5F5F7072 		.ascii	"__priority\000"
 1407      696F7269 
 1407      747900
 1408              	.LASF70:
 1409 03e6 74686973 		.ascii	"this\000"
 1409      00
 1410              	.LASF46:
 1411 03eb 6F706572 		.ascii	"operator+=\000"
 1411      61746F72 
 1411      2B3D00
 1412              	.LASF33:
 1413 03f6 5F5A4E4B 		.ascii	"_ZNK3r2p4Time8to_s_rawEv\000"
 1413      33723270 
 1413      3454696D 
 1413      6538746F 
 1413      5F735F72 
 1414              	.LASF63:
 1415 040f 5F5A4E33 		.ascii	"_ZN3r2p4Time9INFINITENE\000"
 1415      72327034 
 1415      54696D65 
 1415      39494E46 
 1415      494E4954 
 1416              	.LASF67:
 1417 0427 54797065 		.ascii	"Type\000"
 1417      00
 1418              	.LASF16:
 1419 042c 73747278 		.ascii	"strxfrm\000"
 1419      66726D00 
 1420              	.LASF8:
 1421 0434 6C6F6E67 		.ascii	"long unsigned int\000"
 1421      20756E73 
 1421      69676E65 
 1421      6420696E 
 1421      7400
 1422              	.LASF58:
 1423 0446 646F7562 		.ascii	"double\000"
ARM GAS  /tmp/ccQ1wW1S.s 			page 29


 1423      6C6500
 1424              	.LASF50:
 1425 044d 54696D65 		.ascii	"Time\000"
 1425      00
 1426              	.LASF28:
 1427 0452 746F5F75 		.ascii	"to_us_raw\000"
 1427      735F7261 
 1427      7700
 1428              	.LASF55:
 1429 045c 5F5A4E33 		.ascii	"_ZN3r2p4Time2hzEd\000"
 1429      72327034 
 1429      54696D65 
 1429      32687A45 
 1429      6400
 1430              	.LASF6:
 1431 046e 5F5F696E 		.ascii	"__int32_t\000"
 1431      7433325F 
 1431      7400
 1432              	.LASF29:
 1433 0478 746F5F6D 		.ascii	"to_ms_raw\000"
 1433      735F7261 
 1433      7700
 1434              	.LASF72:
 1435 0482 5F5A4E33 		.ascii	"_ZN3r2p4TimeC2IiEET_\000"
 1435      72327034 
 1435      54696D65 
 1435      43324969 
 1435      4545545F 
 1436              	.LASF22:
 1437 0497 4D41585F 		.ascii	"MAX_S\000"
 1437      5300
 1438              	.LASF61:
 1439 049d 5F5A4E33 		.ascii	"_ZN3r2p4Time9IMMEDIATEE\000"
 1439      72327034 
 1439      54696D65 
 1439      39494D4D 
 1439      45444941 
 1440              	.LASF25:
 1441 04b5 494D4D45 		.ascii	"IMMEDIATE\000"
 1441      44494154 
 1441      4500
 1442              	.LASF52:
 1443 04bf 5F5A4E33 		.ascii	"_ZN3r2p4Time2msEl\000"
 1443      72327034 
 1443      54696D65 
 1443      326D7345 
 1443      6C00
 1444              	.LASF68:
 1445 04d1 5F5A4E33 		.ascii	"_ZN3r2p4Time3nowEv\000"
 1445      72327034 
 1445      54696D65 
 1445      336E6F77 
 1445      457600
 1446              	.LASF43:
 1447 04e4 5F5A4E4B 		.ascii	"_ZNK3r2p4Time4to_mEv\000"
 1447      33723270 
 1447      3454696D 
ARM GAS  /tmp/ccQ1wW1S.s 			page 30


 1447      6534746F 
 1447      5F6D4576 
 1448              		.ident	"GCC: (GNU Tools for ARM Embedded Processors) 4.9.3 20141119 (release) [ARM/embedded-4_9-br
ARM GAS  /tmp/ccQ1wW1S.s 			page 31


DEFINED SYMBOLS
                            *ABS*:00000000 Time.cpp
     /tmp/ccQ1wW1S.s:23     .bss:00000000 _ZN3r2p4Time9IMMEDIATEE
     /tmp/ccQ1wW1S.s:20     .bss:00000000 $d
     /tmp/ccQ1wW1S.s:29     .bss:00000004 _ZN3r2p4Time8INFINITEE
     /tmp/ccQ1wW1S.s:35     .bss:00000008 _ZN3r2p4Time9INFINITENE
     /tmp/ccQ1wW1S.s:38     .text._ZN3r2p4TimeC2IiEET_:00000000 $t
     /tmp/ccQ1wW1S.s:43     .text._ZN3r2p4TimeC2IiEET_:00000000 _ZN3r2p4TimeC2IiEET_
     /tmp/ccQ1wW1S.s:43     .text._ZN3r2p4TimeC2IiEET_:00000000 _ZN3r2p4TimeC1IiEET_
     /tmp/ccQ1wW1S.s:74     .text:00000000 $t
     /tmp/ccQ1wW1S.s:78     .text:00000000 _Z41__static_initialization_and_destruction_0ii
     /tmp/ccQ1wW1S.s:122    .text:0000003c $d
     /tmp/ccQ1wW1S.s:128    .text:00000048 $t
     /tmp/ccQ1wW1S.s:132    .text:00000048 _GLOBAL__sub_I__ZN3r2p4Time9IMMEDIATEE
     /tmp/ccQ1wW1S.s:151    .init_array:00000000 $d
                     .debug_frame:00000010 $d
                           .group:00000000 _ZN3r2p4TimeC5IiEET_

NO UNDEFINED SYMBOLS
