ARM GAS  /tmp/cc4N8URp.s 			page 1


   1              		.syntax unified
   2              		.cpu cortex-m4
   3              		.fpu softvfp
   4              		.eabi_attribute 20, 1
   5              		.eabi_attribute 21, 1
   6              		.eabi_attribute 23, 3
   7              		.eabi_attribute 24, 1
   8              		.eabi_attribute 25, 1
   9              		.eabi_attribute 26, 1
  10              		.eabi_attribute 30, 6
  11              		.eabi_attribute 34, 1
  12              		.eabi_attribute 18, 4
  13              		.thumb
  14              		.file	"Time_.cpp"
  15              		.text
  16              	.Ltext0:
  17              		.cfi_sections	.debug_frame
  18              		.section	.text._ZN3r2p4Time2msEl,"axG",%progbits,_ZN3r2p4Time2msEl,comdat
  19              		.align	2
  20              		.weak	_ZN3r2p4Time2msEl
  21              		.thumb
  22              		.thumb_func
  23              		.type	_ZN3r2p4Time2msEl, %function
  24              	_ZN3r2p4Time2msEl:
  25              	.LFB58:
  26              		.file 1 "/opt/R2P/core/Middleware/include/r2p/Time.hpp"
  27              		.loc 1 184 0
  28              		.cfi_startproc
  29              		@ args = 0, pretend = 0, frame = 8
  30              		@ frame_needed = 0, uses_anonymous_args = 0
  31 0000 00B5     		push	{lr}
  32              		.cfi_def_cfa_offset 4
  33              		.cfi_offset 14, -4
  34 0002 83B0     		sub	sp, sp, #12
  35              		.cfi_def_cfa_offset 16
  36 0004 0190     		str	r0, [sp, #4]
  37 0006 0091     		str	r1, [sp]
  38              		.loc 1 186 0
  39 0008 009B     		ldr	r3, [sp]
  40 000a 4FF47A72 		mov	r2, #1000
  41 000e 02FB03F3 		mul	r3, r2, r3
  42 0012 0198     		ldr	r0, [sp, #4]
  43 0014 1946     		mov	r1, r3
  44 0016 FFF7FEFF 		bl	_ZN3r2p4TimeC1IlEET_
  45              		.loc 1 187 0
  46 001a 0198     		ldr	r0, [sp, #4]
  47 001c 03B0     		add	sp, sp, #12
  48              		.cfi_def_cfa_offset 4
  49              		@ sp needed
  50 001e 5DF804FB 		ldr	pc, [sp], #4
  51              		.cfi_endproc
  52              	.LFE58:
  53              		.size	_ZN3r2p4Time2msEl, .-_ZN3r2p4Time2msEl
  54 0022 00BF     		.text
  55              		.align	2
  56              		.global	_ZN3r2p4Time3nowEv
  57              		.thumb
ARM GAS  /tmp/cc4N8URp.s 			page 2


  58              		.thumb_func
  59              		.type	_ZN3r2p4Time3nowEv, %function
  60              	_ZN3r2p4Time3nowEv:
  61              	.LFB70:
  62              		.file 2 "/opt/R2P/core/Middleware/port/chibios/src/impl/Time_.cpp"
  63              		.loc 2 8 0
  64              		.cfi_startproc
  65              		@ args = 0, pretend = 0, frame = 8
  66              		@ frame_needed = 0, uses_anonymous_args = 0
  67 0000 10B5     		push	{r4, lr}
  68              		.cfi_def_cfa_offset 8
  69              		.cfi_offset 4, -8
  70              		.cfi_offset 14, -4
  71 0002 82B0     		sub	sp, sp, #8
  72              		.cfi_def_cfa_offset 16
  73 0004 0190     		str	r0, [sp, #4]
  74              	.LBB2:
  75              		.loc 2 10 0
  76 0006 0C4B     		ldr	r3, .L9
  77 0008 DB68     		ldr	r3, [r3, #12]
  78 000a 1C46     		mov	r4, r3
  79              		.loc 2 11 0
  80 000c 0B4B     		ldr	r3, .L9+4
  81 000e 1B68     		ldr	r3, [r3]
  82              		.loc 2 12 0
  83 0010 A342     		cmp	r3, r4
  84 0012 01D1     		bne	.L4
  85              		.loc 2 12 0 is_stmt 0 discriminator 1
  86 0014 631C     		adds	r3, r4, #1
  87 0016 06E0     		b	.L5
  88              	.L4:
  89              		.loc 2 12 0 discriminator 2
  90 0018 094B     		ldr	r3, .L9+8
  91 001a 1B68     		ldr	r3, [r3]
  92 001c A342     		cmp	r3, r4
  93 001e 01D1     		bne	.L6
  94              		.loc 2 12 0 discriminator 4
  95 0020 631E     		subs	r3, r4, #1
  96 0022 00E0     		b	.L5
  97              	.L6:
  98              		.loc 2 12 0 discriminator 5
  99 0024 2346     		mov	r3, r4
 100              	.L5:
 101              		.loc 2 12 0 discriminator 8
 102 0026 019A     		ldr	r2, [sp, #4]
 103 0028 1046     		mov	r0, r2
 104 002a 1946     		mov	r1, r3
 105 002c FFF7FEFF 		bl	_ZN3r2p4Time2msEl
 106              	.LBE2:
 107              		.loc 2 13 0 is_stmt 1 discriminator 8
 108 0030 0198     		ldr	r0, [sp, #4]
 109 0032 02B0     		add	sp, sp, #8
 110              		.cfi_def_cfa_offset 8
 111              		@ sp needed
 112 0034 10BD     		pop	{r4, pc}
 113              	.L10:
 114 0036 00BF     		.align	2
ARM GAS  /tmp/cc4N8URp.s 			page 3


 115              	.L9:
 116 0038 00000000 		.word	vtlist
 117 003c 00000000 		.word	_ZN3r2p4Time9INFINITENE
 118 0040 00000000 		.word	_ZN3r2p4Time8INFINITEE
 119              		.cfi_endproc
 120              	.LFE70:
 121              		.size	_ZN3r2p4Time3nowEv, .-_ZN3r2p4Time3nowEv
 122              		.section	.text._ZN3r2p4TimeC2IlEET_,"axG",%progbits,_ZN3r2p4TimeC5IlEET_,comdat
 123              		.align	2
 124              		.weak	_ZN3r2p4TimeC2IlEET_
 125              		.thumb
 126              		.thumb_func
 127              		.type	_ZN3r2p4TimeC2IlEET_, %function
 128              	_ZN3r2p4TimeC2IlEET_:
 129              	.LFB72:
 130              		.loc 1 159 0
 131              		.cfi_startproc
 132              		@ args = 0, pretend = 0, frame = 8
 133              		@ frame_needed = 0, uses_anonymous_args = 0
 134              		@ link register save eliminated.
 135 0000 82B0     		sub	sp, sp, #8
 136              		.cfi_def_cfa_offset 8
 137 0002 0190     		str	r0, [sp, #4]
 138 0004 0091     		str	r1, [sp]
 139              	.LBB3:
 140              		.loc 1 161 0
 141 0006 019B     		ldr	r3, [sp, #4]
 142 0008 009A     		ldr	r2, [sp]
 143 000a 1A60     		str	r2, [r3]
 144              	.LBE3:
 145              		.loc 1 162 0
 146 000c 019B     		ldr	r3, [sp, #4]
 147 000e 1846     		mov	r0, r3
 148 0010 02B0     		add	sp, sp, #8
 149              		.cfi_def_cfa_offset 0
 150              		@ sp needed
 151 0012 7047     		bx	lr
 152              		.cfi_endproc
 153              	.LFE72:
 154              		.size	_ZN3r2p4TimeC2IlEET_, .-_ZN3r2p4TimeC2IlEET_
 155              		.weak	_ZN3r2p4TimeC1IlEET_
 156              		.thumb_set _ZN3r2p4TimeC1IlEET_,_ZN3r2p4TimeC2IlEET_
 157              		.text
 158              	.Letext0:
 159              		.file 3 "/opt/R2P/tools/gcc-arm-none-eabi-4_9-2014q4/lib/gcc/arm-none-eabi/4.9.3/include/stddef.h"
 160              		.file 4 "/opt/R2P/tools/gcc-arm-none-eabi-4_9-2014q4/arm-none-eabi/include/machine/_default_types.
 161              		.file 5 "/opt/R2P/tools/gcc-arm-none-eabi-4_9-2014q4/arm-none-eabi/include/c++/4.9.3/cstring"
 162              		.file 6 "/opt/R2P/tools/gcc-arm-none-eabi-4_9-2014q4/arm-none-eabi/include/string.h"
 163              		.file 7 "<built-in>"
 164              		.file 8 "/opt/R2P/core/Middleware/include/r2p/Uncopyable.hpp"
 165              		.file 9 "/opt/R2P/tools/gcc-arm-none-eabi-4_9-2014q4/arm-none-eabi/include/stdint.h"
 166              		.file 10 "/opt/R2P/core/ChibiOS_2.6.5/os/ports/GCC/ARMCMx/chtypes.h"
 167              		.file 11 "/opt/R2P/core/ChibiOS_2.6.5/os/kernel/include/chvt.h"