ARM GAS  /tmp/ccEdf2vV.s 			page 1


   1              		.syntax unified
   2              		.cpu cortex-m4
   3              		.fpu softvfp
   4              		.eabi_attribute 20, 1
   5              		.eabi_attribute 21, 1
   6              		.eabi_attribute 23, 3
   7              		.eabi_attribute 24, 1
   8              		.eabi_attribute 25, 1
   9              		.eabi_attribute 26, 1
  10              		.eabi_attribute 30, 6
  11              		.eabi_attribute 34, 1
  12              		.eabi_attribute 18, 4
  13              		.thumb
  14              		.file	"TimestampedMsgPtrQueue.cpp"
  15              		.text
  16              	.Ltext0:
  17              		.cfi_sections	.debug_frame
  18              		.section	.text._ZN3r2p10UncopyableC2Ev,"axG",%progbits,_ZN3r2p10UncopyableC5Ev,comdat
  19              		.align	2
  20              		.weak	_ZN3r2p10UncopyableC2Ev
  21              		.thumb
  22              		.thumb_func
  23              		.type	_ZN3r2p10UncopyableC2Ev, %function
  24              	_ZN3r2p10UncopyableC2Ev:
  25              	.LFB6:
  26              		.file 1 "/opt/R2P/core/Middleware/include/r2p/Uncopyable.hpp"
  27              		.loc 1 20 0
  28              		.cfi_startproc
  29              		@ args = 0, pretend = 0, frame = 8
  30              		@ frame_needed = 0, uses_anonymous_args = 0
  31              		@ link register save eliminated.
  32 0000 82B0     		sub	sp, sp, #8
  33              		.cfi_def_cfa_offset 8
  34 0002 0190     		str	r0, [sp, #4]
  35              		.loc 1 20 0
  36 0004 019B     		ldr	r3, [sp, #4]
  37 0006 1846     		mov	r0, r3
  38 0008 02B0     		add	sp, sp, #8
  39              		.cfi_def_cfa_offset 0
  40              		@ sp needed
  41 000a 7047     		bx	lr
  42              		.cfi_endproc
  43              	.LFE6:
  44              		.size	_ZN3r2p10UncopyableC2Ev, .-_ZN3r2p10UncopyableC2Ev
  45              		.weak	_ZN3r2p10UncopyableC1Ev
  46              		.thumb_set _ZN3r2p10UncopyableC1Ev,_ZN3r2p10UncopyableC2Ev
  47              		.text
  48              		.align	2
  49              		.global	_ZN3r2p22TimestampedMsgPtrQueueC2EPNS0_5EntryEj
  50              		.thumb
  51              		.thumb_func
  52              		.type	_ZN3r2p22TimestampedMsgPtrQueueC2EPNS0_5EntryEj, %function
  53              	_ZN3r2p22TimestampedMsgPtrQueueC2EPNS0_5EntryEj:
  54              	.LFB99:
  55              		.file 2 "/opt/R2P/core/Middleware/src/TimestampedMsgPtrQueue.cpp"
  56              		.loc 2 7 0
  57              		.cfi_startproc
ARM GAS  /tmp/ccEdf2vV.s 			page 2


  58              		@ args = 0, pretend = 0, frame = 16
  59              		@ frame_needed = 0, uses_anonymous_args = 0
  60 0000 00B5     		push	{lr}
  61              		.cfi_def_cfa_offset 4
  62              		.cfi_offset 14, -4
  63 0002 85B0     		sub	sp, sp, #20
  64              		.cfi_def_cfa_offset 24
  65 0004 0390     		str	r0, [sp, #12]
  66 0006 0291     		str	r1, [sp, #8]
  67 0008 0192     		str	r2, [sp, #4]
  68              	.LBB2:
  69              		.loc 2 9 0
  70 000a 039B     		ldr	r3, [sp, #12]
  71 000c 1846     		mov	r0, r3
  72 000e 0299     		ldr	r1, [sp, #8]
  73 0010 019A     		ldr	r2, [sp, #4]
  74 0012 FFF7FEFF 		bl	_ZN3r2p10ArrayQueueINS_22TimestampedMsgPtrQueue5EntryEEC1EPS2_j
  75              	.LBE2:
  76              		.loc 2 10 0
  77 0016 039B     		ldr	r3, [sp, #12]
  78 0018 1846     		mov	r0, r3
  79 001a 05B0     		add	sp, sp, #20
  80              		.cfi_def_cfa_offset 4
  81              		@ sp needed
  82 001c 5DF804FB 		ldr	pc, [sp], #4
  83              		.cfi_endproc
  84              	.LFE99:
  85              		.size	_ZN3r2p22TimestampedMsgPtrQueueC2EPNS0_5EntryEj, .-_ZN3r2p22TimestampedMsgPtrQueueC2EPNS0_5E
  86              		.global	_ZN3r2p22TimestampedMsgPtrQueueC1EPNS0_5EntryEj
  87              		.thumb_set _ZN3r2p22TimestampedMsgPtrQueueC1EPNS0_5EntryEj,_ZN3r2p22TimestampedMsgPtrQueueC2EPNS0_
  88              		.section	.rodata
  89              		.align	2
  90              	.LC0:
  91 0000 5232505F 		.ascii	"R2P_ASSERT()\000"
  91      41535345 
  91      52542829 
  91      00
  92 000d 000000   		.section	.text._ZN3r2p10ArrayQueueINS_22TimestampedMsgPtrQueue5EntryEEC2EPS2_j,"axG",%progbits,_ZN
  93              		.align	2
  94              		.weak	_ZN3r2p10ArrayQueueINS_22TimestampedMsgPtrQueue5EntryEEC2EPS2_j
  95              		.thumb
  96              		.thumb_func
  97              		.type	_ZN3r2p10ArrayQueueINS_22TimestampedMsgPtrQueue5EntryEEC2EPS2_j, %function
  98              	_ZN3r2p10ArrayQueueINS_22TimestampedMsgPtrQueue5EntryEEC2EPS2_j:
  99              	.LFB117:
 100              		.file 3 "/opt/R2P/core/Middleware/include/r2p/ArrayQueue.hpp"
 101              		.loc 3 125 0
 102              		.cfi_startproc
 103              		@ args = 0, pretend = 0, frame = 16
 104              		@ frame_needed = 0, uses_anonymous_args = 0
 105 0000 00B5     		push	{lr}
 106              		.cfi_def_cfa_offset 4
 107              		.cfi_offset 14, -4
 108 0002 85B0     		sub	sp, sp, #20
 109              		.cfi_def_cfa_offset 24
 110 0004 0390     		str	r0, [sp, #12]
 111 0006 0291     		str	r1, [sp, #8]
ARM GAS  /tmp/ccEdf2vV.s 			page 3


 112 0008 0192     		str	r2, [sp, #4]
 113              	.LBB3:
 114              		.loc 3 131 0
 115 000a 0398     		ldr	r0, [sp, #12]
 116 000c FFF7FEFF 		bl	_ZN3r2p10UncopyableC2Ev
 117 0010 039B     		ldr	r3, [sp, #12]
 118 0012 029A     		ldr	r2, [sp, #8]
 119 0014 1A60     		str	r2, [r3]
 120 0016 039B     		ldr	r3, [sp, #12]
 121 0018 019A     		ldr	r2, [sp, #4]
 122 001a 5A60     		str	r2, [r3, #4]
 123 001c 039B     		ldr	r3, [sp, #12]
 124 001e 0022     		movs	r2, #0
 125 0020 9A60     		str	r2, [r3, #8]
 126 0022 039B     		ldr	r3, [sp, #12]
 127 0024 029A     		ldr	r2, [sp, #8]
 128 0026 DA60     		str	r2, [r3, #12]
 129 0028 039B     		ldr	r3, [sp, #12]
 130 002a 029A     		ldr	r2, [sp, #8]
 131 002c 1A61     		str	r2, [r3, #16]
 132              		.loc 3 133 0
 133 002e 029B     		ldr	r3, [sp, #8]
 134 0030 002B     		cmp	r3, #0
 135 0032 02D1     		bne	.L8
 136              		.loc 3 133 0 is_stmt 0 discriminator 1
 137 0034 0648     		ldr	r0, .L11
 138 0036 FFF7FEFF 		bl	chDbgPanic
 139              	.L8:
 140              		.loc 3 134 0 is_stmt 1
 141 003a 019B     		ldr	r3, [sp, #4]
 142 003c 002B     		cmp	r3, #0
 143 003e 02D1     		bne	.L9
 144              		.loc 3 134 0 is_stmt 0 discriminator 1
 145 0040 0348     		ldr	r0, .L11
 146 0042 FFF7FEFF 		bl	chDbgPanic
 147              	.L9:
 148              	.LBE3:
 149              		.loc 3 135 0 is_stmt 1
 150 0046 039B     		ldr	r3, [sp, #12]
 151 0048 1846     		mov	r0, r3
 152 004a 05B0     		add	sp, sp, #20
 153              		.cfi_def_cfa_offset 4
 154              		@ sp needed
 155 004c 5DF804FB 		ldr	pc, [sp], #4
 156              	.L12:
 157              		.align	2
 158              	.L11:
 159 0050 00000000 		.word	.LC0
 160              		.cfi_endproc
 161              	.LFE117:
 162              		.size	_ZN3r2p10ArrayQueueINS_22TimestampedMsgPtrQueue5EntryEEC2EPS2_j, .-_ZN3r2p10ArrayQueueINS_22
 163              		.weak	_ZN3r2p10ArrayQueueINS_22TimestampedMsgPtrQueue5EntryEEC1EPS2_j
 164              		.thumb_set _ZN3r2p10ArrayQueueINS_22TimestampedMsgPtrQueue5EntryEEC1EPS2_j,_ZN3r2p10ArrayQueueINS_
 165              		.text
 166              	.Letext0:
 167              		.file 4 "/opt/R2P/tools/gcc-arm-none-eabi-4_9-2014q4/lib/gcc/arm-none-eabi/4.9.3/include/stddef.h"
 168              		.file 5 "/opt/R2P/tools/gcc-arm-none-eabi-4_9-2014q4/arm-none-eabi/include/machine/_default_types.
ARM GAS  /tmp/ccEdf2vV.s 			page 4


 169              		.file 6 "/opt/R2P/tools/gcc-arm-none-eabi-4_9-2014q4/arm-none-eabi/include/c++/4.9.3/cstring"
 170              		.file 7 "/opt/R2P/tools/gcc-arm-none-eabi-4_9-2014q4/arm-none-eabi/include/string.h"
 171              		.file 8 "<built-in>"
 172              		.file 9 "/opt/R2P/core/Middleware/include/r2p/Time.hpp"
 173              		.file 10 "/opt/R2P/core/Middleware/include/r2p/TimestampedMsgPtrQueue.hpp"
 174              		.file 11 "/opt/R2P/tools/gcc-arm-none-eabi-4_9-2014q4/arm-none-eabi/include/stdint.h"
 175              		.section	.debug_info,"",%progbits
 176              	.Ldebug_info0:
 177 0000 D8080000 		.4byte	0x8d8
 178 0004 0400     		.2byte	0x4
 179 0006 00000000 		.4byte	.Ldebug_abbrev0
 180 000a 04       		.byte	0x4
 181 000b 01       		.uleb128 0x1
 182 000c 76010000 		.4byte	.LASF93
 183 0010 04       		.byte	0x4
 184 0011 03050000 		.4byte	.LASF94
 185 0015 89030000 		.4byte	.LASF95
 186 0019 00000000 		.4byte	.Ldebug_ranges0+0
 187 001d 00000000 		.4byte	0
 188 0021 00000000 		.4byte	.Ldebug_line0
 189 0025 02       		.uleb128 0x2
 190 0026 04       		.byte	0x4
 191 0027 05       		.byte	0x5
 192 0028 696E7400 		.ascii	"int\000"
 193 002c 03       		.uleb128 0x3
 194 002d FA000000 		.4byte	.LASF5
 195 0031 04       		.byte	0x4
 196 0032 D4       		.byte	0xd4
 197 0033 37000000 		.4byte	0x37
 198 0037 04       		.uleb128 0x4
 199 0038 04       		.byte	0x4
 200 0039 07       		.byte	0x7
 201 003a 8F040000 		.4byte	.LASF0
 202 003e 04       		.uleb128 0x4
 203 003f 01       		.byte	0x1
 204 0040 06       		.byte	0x6
 205 0041 7E000000 		.4byte	.LASF1
 206 0045 04       		.uleb128 0x4
 207 0046 01       		.byte	0x1
 208 0047 08       		.byte	0x8
 209 0048 08040000 		.4byte	.LASF2
 210 004c 04       		.uleb128 0x4
 211 004d 02       		.byte	0x2
 212 004e 05       		.byte	0x5
 213 004f C3020000 		.4byte	.LASF3
 214 0053 04       		.uleb128 0x4
 215 0054 02       		.byte	0x2
 216 0055 07       		.byte	0x7
 217 0056 91050000 		.4byte	.LASF4
 218 005a 03       		.uleb128 0x3
 219 005b F8070000 		.4byte	.LASF6
 220 005f 05       		.byte	0x5
 221 0060 3F       		.byte	0x3f
 222 0061 65000000 		.4byte	0x65
 223 0065 04       		.uleb128 0x4
 224 0066 04       		.byte	0x4
 225 0067 05       		.byte	0x5
ARM GAS  /tmp/ccEdf2vV.s 			page 5


 226 0068 78050000 		.4byte	.LASF7
 227 006c 04       		.uleb128 0x4
 228 006d 04       		.byte	0x4
 229 006e 07       		.byte	0x7
 230 006f F3060000 		.4byte	.LASF8
 231 0073 04       		.uleb128 0x4
 232 0074 08       		.byte	0x8
 233 0075 05       		.byte	0x5
 234 0076 D7020000 		.4byte	.LASF9
 235 007a 04       		.uleb128 0x4
 236 007b 08       		.byte	0x8
 237 007c 07       		.byte	0x7
 238 007d 67040000 		.4byte	.LASF10
 239 0081 04       		.uleb128 0x4
 240 0082 04       		.byte	0x4
 241 0083 07       		.byte	0x7
 242 0084 01010000 		.4byte	.LASF11
 243 0088 05       		.uleb128 0x5
 244 0089 04       		.byte	0x4
 245 008a 06       		.uleb128 0x6
 246 008b 04       		.byte	0x4
 247 008c 90000000 		.4byte	0x90
 248 0090 04       		.uleb128 0x4
 249 0091 01       		.byte	0x1
 250 0092 08       		.byte	0x8
 251 0093 82070000 		.4byte	.LASF12
 252 0097 06       		.uleb128 0x6
 253 0098 04       		.byte	0x4
 254 0099 9D000000 		.4byte	0x9d
 255 009d 07       		.uleb128 0x7
 256 009e 90000000 		.4byte	0x90
 257 00a2 08       		.uleb128 0x8
 258 00a3 73746400 		.ascii	"std\000"
 259 00a7 08       		.byte	0x8
 260 00a8 00       		.byte	0
 261 00a9 CA000000 		.4byte	0xca
 262 00ad 09       		.uleb128 0x9
 263 00ae 06       		.byte	0x6
 264 00af 52       		.byte	0x52
 265 00b0 CA000000 		.4byte	0xca
 266 00b4 09       		.uleb128 0x9
 267 00b5 06       		.byte	0x6
 268 00b6 55       		.byte	0x55
 269 00b7 E4000000 		.4byte	0xe4
 270 00bb 09       		.uleb128 0x9
 271 00bc 06       		.byte	0x6
 272 00bd 5B       		.byte	0x5b
 273 00be F9000000 		.4byte	0xf9
 274 00c2 09       		.uleb128 0x9
 275 00c3 06       		.byte	0x6
 276 00c4 5C       		.byte	0x5c
 277 00c5 13010000 		.4byte	0x113
 278 00c9 00       		.byte	0
 279 00ca 0A       		.uleb128 0xa
 280 00cb 89050000 		.4byte	.LASF13
 281 00cf 07       		.byte	0x7
 282 00d0 1D       		.byte	0x1d
ARM GAS  /tmp/ccEdf2vV.s 			page 6


 283 00d1 25000000 		.4byte	0x25
 284 00d5 E4000000 		.4byte	0xe4
 285 00d9 0B       		.uleb128 0xb
 286 00da 97000000 		.4byte	0x97
 287 00de 0B       		.uleb128 0xb
 288 00df 97000000 		.4byte	0x97
 289 00e3 00       		.byte	0
 290 00e4 0A       		.uleb128 0xa
 291 00e5 3F020000 		.4byte	.LASF14
 292 00e9 07       		.byte	0x7
 293 00ea 20       		.byte	0x20
 294 00eb 8A000000 		.4byte	0x8a
 295 00ef F9000000 		.4byte	0xf9
 296 00f3 0B       		.uleb128 0xb
 297 00f4 25000000 		.4byte	0x25
 298 00f8 00       		.byte	0
 299 00f9 0A       		.uleb128 0xa
 300 00fa BC030000 		.4byte	.LASF15
 301 00fe 07       		.byte	0x7
 302 00ff 2A       		.byte	0x2a
 303 0100 8A000000 		.4byte	0x8a
 304 0104 13010000 		.4byte	0x113
 305 0108 0B       		.uleb128 0xb
 306 0109 8A000000 		.4byte	0x8a
 307 010d 0B       		.uleb128 0xb
 308 010e 97000000 		.4byte	0x97
 309 0112 00       		.byte	0
 310 0113 0A       		.uleb128 0xa
 311 0114 EB060000 		.4byte	.LASF16
 312 0118 07       		.byte	0x7
 313 0119 2C       		.byte	0x2c
 314 011a 2C000000 		.4byte	0x2c
 315 011e 32010000 		.4byte	0x132
 316 0122 0B       		.uleb128 0xb
 317 0123 8A000000 		.4byte	0x8a
 318 0127 0B       		.uleb128 0xb
 319 0128 97000000 		.4byte	0x97
 320 012c 0B       		.uleb128 0xb
 321 012d 2C000000 		.4byte	0x2c
 322 0131 00       		.byte	0
 323 0132 08       		.uleb128 0x8
 324 0133 72327000 		.ascii	"r2p\000"
 325 0137 01       		.byte	0x1
 326 0138 03       		.byte	0x3
 327 0139 61070000 		.4byte	0x761
 328 013d 0C       		.uleb128 0xc
 329 013e 98020000 		.4byte	.LASF17
 330 0142 01       		.byte	0x1
 331 0143 01       		.byte	0x1
 332 0144 06       		.byte	0x6
 333 0145 9D010000 		.4byte	0x19d
 334 0149 0D       		.uleb128 0xd
 335 014a 98020000 		.4byte	.LASF17
 336 014e 01       		.byte	0x1
 337 014f 09       		.byte	0x9
 338 0150 61070000 		.4byte	0x761
 339 0154 5C010000 		.4byte	0x15c
ARM GAS  /tmp/ccEdf2vV.s 			page 7


 340 0158 67010000 		.4byte	0x167
 341 015c 0E       		.uleb128 0xe
 342 015d 61070000 		.4byte	0x761
 343 0161 0B       		.uleb128 0xb
 344 0162 67070000 		.4byte	0x767
 345 0166 00       		.byte	0
 346 0167 0F       		.uleb128 0xf
 347 0168 98020000 		.4byte	.LASF17
 348 016c 01       		.byte	0x1
 349 016d 14       		.byte	0x14
 350 016e 61070000 		.4byte	0x761
 351 0172 02       		.byte	0x2
 352 0173 7B010000 		.4byte	0x17b
 353 0177 81010000 		.4byte	0x181
 354 017b 0E       		.uleb128 0xe
 355 017c 61070000 		.4byte	0x761
 356 0180 00       		.byte	0
 357 0181 10       		.uleb128 0x10
 358 0182 45000000 		.4byte	.LASF18
 359 0186 01       		.byte	0x1
 360 0187 15       		.byte	0x15
 361 0188 88000000 		.4byte	0x88
 362 018c 02       		.byte	0x2
 363 018d 91010000 		.4byte	0x191
 364 0191 0E       		.uleb128 0xe
 365 0192 61070000 		.4byte	0x761
 366 0196 0E       		.uleb128 0xe
 367 0197 25000000 		.4byte	0x25
 368 019b 00       		.byte	0
 369 019c 00       		.byte	0
 370 019d 07       		.uleb128 0x7
 371 019e 3D010000 		.4byte	0x13d
 372 01a2 0C       		.uleb128 0xc
 373 01a3 16040000 		.4byte	.LASF19
 374 01a7 04       		.byte	0x4
 375 01a8 09       		.byte	0x9
 376 01a9 08       		.byte	0x8
 377 01aa 28040000 		.4byte	0x428
 378 01ae 11       		.uleb128 0x11
 379 01af B6060000 		.4byte	.LASF96
 380 01b3 09       		.byte	0x9
 381 01b4 0A       		.byte	0xa
 382 01b5 6D070000 		.4byte	0x76d
 383 01b9 01       		.byte	0x1
 384 01ba 12       		.uleb128 0x12
 385 01bb 72617700 		.ascii	"raw\000"
 386 01bf 09       		.byte	0x9
 387 01c0 1B       		.byte	0x1b
 388 01c1 AE010000 		.4byte	0x1ae
 389 01c5 00       		.byte	0
 390 01c6 01       		.byte	0x1
 391 01c7 13       		.uleb128 0x13
 392 01c8 10090000 		.4byte	.LASF20
 393 01cc 09       		.byte	0x9
 394 01cd 3B       		.byte	0x3b
 395 01ce 28040000 		.4byte	0x428
 396 01d2 01       		.byte	0x1
ARM GAS  /tmp/ccEdf2vV.s 			page 8


 397 01d3 13       		.uleb128 0x13
 398 01d4 52010000 		.4byte	.LASF21
 399 01d8 09       		.byte	0x9
 400 01d9 3C       		.byte	0x3c
 401 01da 28040000 		.4byte	0x428
 402 01de 01       		.byte	0x1
 403 01df 13       		.uleb128 0x13
 404 01e0 CD020000 		.4byte	.LASF22
 405 01e4 09       		.byte	0x9
 406 01e5 3D       		.byte	0x3d
 407 01e6 28040000 		.4byte	0x428
 408 01ea 01       		.byte	0x1
 409 01eb 14       		.uleb128 0x14
 410 01ec 87070000 		.4byte	.LASF23
 411 01f0 09       		.byte	0x9
 412 01f1 1E       		.byte	0x1e
 413 01f2 7E020000 		.4byte	.LASF25
 414 01f6 AE010000 		.4byte	0x1ae
 415 01fa 01       		.byte	0x1
 416 01fb 03020000 		.4byte	0x203
 417 01ff 09020000 		.4byte	0x209
 418 0203 0E       		.uleb128 0xe
 419 0204 7F070000 		.4byte	0x77f
 420 0208 00       		.byte	0
 421 0209 14       		.uleb128 0x14
 422 020a 0C080000 		.4byte	.LASF24
 423 020e 09       		.byte	0x9
 424 020f 1F       		.byte	0x1f
 425 0210 EE030000 		.4byte	.LASF26
 426 0214 AE010000 		.4byte	0x1ae
 427 0218 01       		.byte	0x1
 428 0219 21020000 		.4byte	0x221
 429 021d 27020000 		.4byte	0x227
 430 0221 0E       		.uleb128 0xe
 431 0222 7F070000 		.4byte	0x77f
 432 0226 00       		.byte	0
 433 0227 14       		.uleb128 0x14
 434 0228 6F050000 		.4byte	.LASF27
 435 022c 09       		.byte	0x9
 436 022d 20       		.byte	0x20
 437 022e 23060000 		.4byte	.LASF28
 438 0232 AE010000 		.4byte	0x1ae
 439 0236 01       		.byte	0x1
 440 0237 3F020000 		.4byte	0x23f
 441 023b 45020000 		.4byte	0x245
 442 023f 0E       		.uleb128 0xe
 443 0240 7F070000 		.4byte	0x77f
 444 0244 00       		.byte	0
 445 0245 14       		.uleb128 0x14
 446 0246 E5020000 		.4byte	.LASF29
 447 024a 09       		.byte	0x9
 448 024b 21       		.byte	0x21
 449 024c 1B040000 		.4byte	.LASF30
 450 0250 AE010000 		.4byte	0x1ae
 451 0254 01       		.byte	0x1
 452 0255 5D020000 		.4byte	0x25d
 453 0259 63020000 		.4byte	0x263
ARM GAS  /tmp/ccEdf2vV.s 			page 9


 454 025d 0E       		.uleb128 0xe
 455 025e 7F070000 		.4byte	0x77f
 456 0262 00       		.byte	0
 457 0263 14       		.uleb128 0x14
 458 0264 AB000000 		.4byte	.LASF31
 459 0268 09       		.byte	0x9
 460 0269 23       		.byte	0x23
 461 026a 0F010000 		.4byte	.LASF32
 462 026e 85070000 		.4byte	0x785
 463 0272 01       		.byte	0x1
 464 0273 7B020000 		.4byte	0x27b
 465 0277 81020000 		.4byte	0x281
 466 027b 0E       		.uleb128 0xe
 467 027c 7F070000 		.4byte	0x77f
 468 0280 00       		.byte	0
 469 0281 14       		.uleb128 0x14
 470 0282 9C040000 		.4byte	.LASF33
 471 0286 09       		.byte	0x9
 472 0287 24       		.byte	0x24
 473 0288 60010000 		.4byte	.LASF34
 474 028c 85070000 		.4byte	0x785
 475 0290 01       		.byte	0x1
 476 0291 99020000 		.4byte	0x299
 477 0295 9F020000 		.4byte	0x29f
 478 0299 0E       		.uleb128 0xe
 479 029a 7F070000 		.4byte	0x77f
 480 029e 00       		.byte	0
 481 029f 14       		.uleb128 0x14
 482 02a0 48020000 		.4byte	.LASF35
 483 02a4 09       		.byte	0x9
 484 02a5 25       		.byte	0x25
 485 02a6 A3020000 		.4byte	.LASF36
 486 02aa 85070000 		.4byte	0x785
 487 02ae 01       		.byte	0x1
 488 02af B7020000 		.4byte	0x2b7
 489 02b3 BD020000 		.4byte	0x2bd
 490 02b7 0E       		.uleb128 0xe
 491 02b8 7F070000 		.4byte	0x77f
 492 02bc 00       		.byte	0
 493 02bd 14       		.uleb128 0x14
 494 02be 5B010000 		.4byte	.LASF37
 495 02c2 09       		.byte	0x9
 496 02c3 26       		.byte	0x26
 497 02c4 3F090000 		.4byte	.LASF38
 498 02c8 85070000 		.4byte	0x785
 499 02cc 01       		.byte	0x1
 500 02cd D5020000 		.4byte	0x2d5
 501 02d1 DB020000 		.4byte	0x2db
 502 02d5 0E       		.uleb128 0xe
 503 02d6 7F070000 		.4byte	0x77f
 504 02da 00       		.byte	0
 505 02db 14       		.uleb128 0x14
 506 02dc 5D040000 		.4byte	.LASF39
 507 02e0 09       		.byte	0x9
 508 02e1 28       		.byte	0x28
 509 02e2 74030000 		.4byte	.LASF40
 510 02e6 8C070000 		.4byte	0x78c
ARM GAS  /tmp/ccEdf2vV.s 			page 10


 511 02ea 01       		.byte	0x1
 512 02eb F3020000 		.4byte	0x2f3
 513 02ef FE020000 		.4byte	0x2fe
 514 02f3 0E       		.uleb128 0xe
 515 02f4 92070000 		.4byte	0x792
 516 02f8 0B       		.uleb128 0xb
 517 02f9 98070000 		.4byte	0x798
 518 02fd 00       		.byte	0
 519 02fe 14       		.uleb128 0x14
 520 02ff DE050000 		.4byte	.LASF41
 521 0303 09       		.byte	0x9
 522 0304 29       		.byte	0x29
 523 0305 4D020000 		.4byte	.LASF42
 524 0309 8C070000 		.4byte	0x78c
 525 030d 01       		.byte	0x1
 526 030e 16030000 		.4byte	0x316
 527 0312 21030000 		.4byte	0x321
 528 0316 0E       		.uleb128 0xe
 529 0317 92070000 		.4byte	0x792
 530 031b 0B       		.uleb128 0xb
 531 031c 98070000 		.4byte	0x798
 532 0320 00       		.byte	0
 533 0321 14       		.uleb128 0x14
 534 0322 73020000 		.4byte	.LASF43
 535 0326 09       		.byte	0x9
 536 0327 2A       		.byte	0x2a
 537 0328 A7040000 		.4byte	.LASF44
 538 032c 8C070000 		.4byte	0x78c
 539 0330 01       		.byte	0x1
 540 0331 39030000 		.4byte	0x339
 541 0335 44030000 		.4byte	0x344
 542 0339 0E       		.uleb128 0xe
 543 033a 92070000 		.4byte	0x792
 544 033e 0B       		.uleb128 0xb
 545 033f 98070000 		.4byte	0x798
 546 0343 00       		.byte	0
 547 0344 0F       		.uleb128 0xf
 548 0345 16040000 		.4byte	.LASF19
 549 0349 09       		.byte	0x9
 550 034a 2D       		.byte	0x2d
 551 034b 92070000 		.4byte	0x792
 552 034f 01       		.byte	0x1
 553 0350 58030000 		.4byte	0x358
 554 0354 5E030000 		.4byte	0x35e
 555 0358 0E       		.uleb128 0xe
 556 0359 92070000 		.4byte	0x792
 557 035d 00       		.byte	0
 558 035e 15       		.uleb128 0x15
 559 035f 16040000 		.4byte	.LASF19
 560 0363 09       		.byte	0x9
 561 0364 2F       		.byte	0x2f
 562 0365 92070000 		.4byte	0x792
 563 0369 01       		.byte	0x1
 564 036a 72030000 		.4byte	0x372
 565 036e 7D030000 		.4byte	0x37d
 566 0372 0E       		.uleb128 0xe
 567 0373 92070000 		.4byte	0x792
ARM GAS  /tmp/ccEdf2vV.s 			page 11


 568 0377 0B       		.uleb128 0xb
 569 0378 85070000 		.4byte	0x785
 570 037c 00       		.byte	0
 571 037d 0F       		.uleb128 0xf
 572 037e 16040000 		.4byte	.LASF19
 573 0382 09       		.byte	0x9
 574 0383 30       		.byte	0x30
 575 0384 92070000 		.4byte	0x792
 576 0388 01       		.byte	0x1
 577 0389 91030000 		.4byte	0x391
 578 038d 9C030000 		.4byte	0x39c
 579 0391 0E       		.uleb128 0xe
 580 0392 92070000 		.4byte	0x792
 581 0396 0B       		.uleb128 0xb
 582 0397 98070000 		.4byte	0x798
 583 039b 00       		.byte	0
 584 039c 16       		.uleb128 0x16
 585 039d 757300   		.ascii	"us\000"
 586 03a0 09       		.byte	0x9
 587 03a1 33       		.byte	0x33
 588 03a2 60000000 		.4byte	.LASF45
 589 03a6 A2010000 		.4byte	0x1a2
 590 03aa 01       		.byte	0x1
 591 03ab B5030000 		.4byte	0x3b5
 592 03af 0B       		.uleb128 0xb
 593 03b0 AE010000 		.4byte	0x1ae
 594 03b4 00       		.byte	0
 595 03b5 16       		.uleb128 0x16
 596 03b6 6D7300   		.ascii	"ms\000"
 597 03b9 09       		.byte	0x9
 598 03ba 34       		.byte	0x34
 599 03bb 1A090000 		.4byte	.LASF46
 600 03bf A2010000 		.4byte	0x1a2
 601 03c3 01       		.byte	0x1
 602 03c4 CE030000 		.4byte	0x3ce
 603 03c8 0B       		.uleb128 0xb
 604 03c9 AE010000 		.4byte	0x1ae
 605 03cd 00       		.byte	0
 606 03ce 16       		.uleb128 0x16
 607 03cf 7300     		.ascii	"s\000"
 608 03d1 09       		.byte	0x9
 609 03d2 35       		.byte	0x35
 610 03d3 7E040000 		.4byte	.LASF47
 611 03d7 A2010000 		.4byte	0x1a2
 612 03db 01       		.byte	0x1
 613 03dc E6030000 		.4byte	0x3e6
 614 03e0 0B       		.uleb128 0xb
 615 03e1 AE010000 		.4byte	0x1ae
 616 03e5 00       		.byte	0
 617 03e6 16       		.uleb128 0x16
 618 03e7 6D00     		.ascii	"m\000"
 619 03e9 09       		.byte	0x9
 620 03ea 36       		.byte	0x36
 621 03eb 62020000 		.4byte	.LASF48
 622 03ef A2010000 		.4byte	0x1a2
 623 03f3 01       		.byte	0x1
 624 03f4 FE030000 		.4byte	0x3fe
ARM GAS  /tmp/ccEdf2vV.s 			page 12


 625 03f8 0B       		.uleb128 0xb
 626 03f9 AE010000 		.4byte	0x1ae
 627 03fd 00       		.byte	0
 628 03fe 16       		.uleb128 0x16
 629 03ff 687A00   		.ascii	"hz\000"
 630 0402 09       		.byte	0x9
 631 0403 37       		.byte	0x37
 632 0404 E6070000 		.4byte	.LASF49
 633 0408 A2010000 		.4byte	0x1a2
 634 040c 01       		.byte	0x1
 635 040d 17040000 		.4byte	0x417
 636 0411 0B       		.uleb128 0xb
 637 0412 85070000 		.4byte	0x785
 638 0416 00       		.byte	0
 639 0417 17       		.uleb128 0x17
 640 0418 6E6F7700 		.ascii	"now\000"
 641 041c 09       		.byte	0x9
 642 041d 38       		.byte	0x38
 643 041e 2C090000 		.4byte	.LASF97
 644 0422 A2010000 		.4byte	0x1a2
 645 0426 01       		.byte	0x1
 646 0427 00       		.byte	0
 647 0428 07       		.uleb128 0x7
 648 0429 A2010000 		.4byte	0x1a2
 649 042d 0C       		.uleb128 0xc
 650 042e 3B040000 		.4byte	.LASF50
 651 0432 14       		.byte	0x14
 652 0433 0A       		.byte	0xa
 653 0434 0C       		.byte	0xc
 654 0435 D1050000 		.4byte	0x5d1
 655 0439 18       		.uleb128 0x18
 656 043a A4050000 		.4byte	.LASF53
 657 043e 08       		.byte	0x8
 658 043f 0A       		.byte	0xa
 659 0440 0E       		.byte	0xe
 660 0441 01       		.byte	0x1
 661 0442 B9040000 		.4byte	0x4b9
 662 0446 19       		.uleb128 0x19
 663 0447 51000000 		.4byte	.LASF51
 664 044b 0A       		.byte	0xa
 665 044c 0F       		.byte	0xf
 666 044d 9E070000 		.4byte	0x79e
 667 0451 00       		.byte	0
 668 0452 19       		.uleb128 0x19
 669 0453 56000000 		.4byte	.LASF52
 670 0457 0A       		.byte	0xa
 671 0458 10       		.byte	0x10
 672 0459 A2010000 		.4byte	0x1a2
 673 045d 04       		.byte	0x4
 674 045e 1A       		.uleb128 0x1a
 675 045f 5D040000 		.4byte	.LASF39
 676 0463 0A       		.byte	0xa
 677 0464 12       		.byte	0x12
 678 0465 41050000 		.4byte	.LASF98
 679 0469 A4070000 		.4byte	0x7a4
 680 046d 75040000 		.4byte	0x475
 681 0471 80040000 		.4byte	0x480
ARM GAS  /tmp/ccEdf2vV.s 			page 13


 682 0475 0E       		.uleb128 0xe
 683 0476 AA070000 		.4byte	0x7aa
 684 047a 0B       		.uleb128 0xb
 685 047b B0070000 		.4byte	0x7b0
 686 047f 00       		.byte	0
 687 0480 0D       		.uleb128 0xd
 688 0481 A4050000 		.4byte	.LASF53
 689 0485 0A       		.byte	0xa
 690 0486 14       		.byte	0x14
 691 0487 AA070000 		.4byte	0x7aa
 692 048b 93040000 		.4byte	0x493
 693 048f 99040000 		.4byte	0x499
 694 0493 0E       		.uleb128 0xe
 695 0494 AA070000 		.4byte	0x7aa
 696 0498 00       		.byte	0
 697 0499 1B       		.uleb128 0x1b
 698 049a A4050000 		.4byte	.LASF53
 699 049e 0A       		.byte	0xa
 700 049f 15       		.byte	0x15
 701 04a0 AA070000 		.4byte	0x7aa
 702 04a4 A8040000 		.4byte	0x4a8
 703 04a8 0E       		.uleb128 0xe
 704 04a9 AA070000 		.4byte	0x7aa
 705 04ad 0B       		.uleb128 0xb
 706 04ae 9E070000 		.4byte	0x79e
 707 04b2 0B       		.uleb128 0xb
 708 04b3 98070000 		.4byte	0x798
 709 04b7 00       		.byte	0
 710 04b8 00       		.byte	0
 711 04b9 07       		.uleb128 0x7
 712 04ba 39040000 		.4byte	0x439
 713 04be 19       		.uleb128 0x19
 714 04bf 0A010000 		.4byte	.LASF54
 715 04c3 0A       		.byte	0xa
 716 04c4 19       		.byte	0x19
 717 04c5 D6050000 		.4byte	0x5d6
 718 04c9 00       		.byte	0
 719 04ca 14       		.uleb128 0x14
 720 04cb 8F000000 		.4byte	.LASF55
 721 04cf 0A       		.byte	0xa
 722 04d0 1C       		.byte	0x1c
 723 04d1 16080000 		.4byte	.LASF56
 724 04d5 2C000000 		.4byte	0x2c
 725 04d9 01       		.byte	0x1
 726 04da E2040000 		.4byte	0x4e2
 727 04de E8040000 		.4byte	0x4e8
 728 04e2 0E       		.uleb128 0xe
 729 04e3 C2070000 		.4byte	0x7c2
 730 04e7 00       		.byte	0
 731 04e8 14       		.uleb128 0x14
 732 04e9 85080000 		.4byte	.LASF57
 733 04ed 0A       		.byte	0xa
 734 04ee 1D       		.byte	0x1d
 735 04ef E9050000 		.4byte	.LASF58
 736 04f3 78070000 		.4byte	0x778
 737 04f7 01       		.byte	0x1
 738 04f8 00050000 		.4byte	0x500
ARM GAS  /tmp/ccEdf2vV.s 			page 14


 739 04fc 0B050000 		.4byte	0x50b
 740 0500 0E       		.uleb128 0xe
 741 0501 C8070000 		.4byte	0x7c8
 742 0505 0B       		.uleb128 0xb
 743 0506 A4070000 		.4byte	0x7a4
 744 050a 00       		.byte	0
 745 050b 14       		.uleb128 0x14
 746 050c E1030000 		.4byte	.LASF59
 747 0510 0A       		.byte	0xa
 748 0511 1E       		.byte	0x1e
 749 0512 EE020000 		.4byte	.LASF60
 750 0516 78070000 		.4byte	0x778
 751 051a 01       		.byte	0x1
 752 051b 23050000 		.4byte	0x523
 753 051f 2E050000 		.4byte	0x52e
 754 0523 0E       		.uleb128 0xe
 755 0524 C8070000 		.4byte	0x7c8
 756 0528 0B       		.uleb128 0xb
 757 0529 A4070000 		.4byte	0x7a4
 758 052d 00       		.byte	0
 759 052e 14       		.uleb128 0x14
 760 052f B8020000 		.4byte	.LASF61
 761 0533 0A       		.byte	0xa
 762 0534 20       		.byte	0x20
 763 0535 0C070000 		.4byte	.LASF62
 764 0539 2C000000 		.4byte	0x2c
 765 053d 01       		.byte	0x1
 766 053e 46050000 		.4byte	0x546
 767 0542 4C050000 		.4byte	0x54c
 768 0546 0E       		.uleb128 0xe
 769 0547 C2070000 		.4byte	0x7c2
 770 054b 00       		.byte	0
 771 054c 14       		.uleb128 0x14
 772 054d 02080000 		.4byte	.LASF63
 773 0551 0A       		.byte	0xa
 774 0552 21       		.byte	0x21
 775 0553 25010000 		.4byte	.LASF64
 776 0557 2C000000 		.4byte	0x2c
 777 055b 01       		.byte	0x1
 778 055c 64050000 		.4byte	0x564
 779 0560 6A050000 		.4byte	0x56a
 780 0564 0E       		.uleb128 0xe
 781 0565 C2070000 		.4byte	0x7c2
 782 0569 00       		.byte	0
 783 056a 14       		.uleb128 0x14
 784 056b 58040000 		.4byte	.LASF65
 785 056f 0A       		.byte	0xa
 786 0570 22       		.byte	0x22
 787 0571 4B080000 		.4byte	.LASF66
 788 0575 78070000 		.4byte	0x778
 789 0579 01       		.byte	0x1
 790 057a 82050000 		.4byte	0x582
 791 057e 8D050000 		.4byte	0x58d
 792 0582 0E       		.uleb128 0xe
 793 0583 C8070000 		.4byte	0x7c8
 794 0587 0B       		.uleb128 0xb
 795 0588 A4070000 		.4byte	0x7a4
ARM GAS  /tmp/ccEdf2vV.s 			page 15


 796 058c 00       		.byte	0
 797 058d 14       		.uleb128 0x14
 798 058e C3030000 		.4byte	.LASF67
 799 0592 0A       		.byte	0xa
 800 0593 23       		.byte	0x23
 801 0594 3C060000 		.4byte	.LASF68
 802 0598 78070000 		.4byte	0x778
 803 059c 01       		.byte	0x1
 804 059d A5050000 		.4byte	0x5a5
 805 05a1 B0050000 		.4byte	0x5b0
 806 05a5 0E       		.uleb128 0xe
 807 05a6 C8070000 		.4byte	0x7c8
 808 05aa 0B       		.uleb128 0xb
 809 05ab A4070000 		.4byte	0x7a4
 810 05af 00       		.byte	0
 811 05b0 10       		.uleb128 0x10
 812 05b1 3B040000 		.4byte	.LASF50
 813 05b5 0A       		.byte	0xa
 814 05b6 26       		.byte	0x26
 815 05b7 C8070000 		.4byte	0x7c8
 816 05bb 01       		.byte	0x1
 817 05bc C0050000 		.4byte	0x5c0
 818 05c0 0E       		.uleb128 0xe
 819 05c1 C8070000 		.4byte	0x7c8
 820 05c5 0B       		.uleb128 0xb
 821 05c6 AA070000 		.4byte	0x7aa
 822 05ca 0B       		.uleb128 0xb
 823 05cb 2C000000 		.4byte	0x2c
 824 05cf 00       		.byte	0
 825 05d0 00       		.byte	0
 826 05d1 1C       		.uleb128 0x1c
 827 05d2 7D080000 		.4byte	.LASF99
 828 05d6 0C       		.uleb128 0xc
 829 05d7 AF050000 		.4byte	.LASF69
 830 05db 14       		.byte	0x14
 831 05dc 03       		.byte	0x3
 832 05dd 09       		.byte	0x9
 833 05de 56070000 		.4byte	0x756
 834 05e2 1D       		.uleb128 0x1d
 835 05e3 3D010000 		.4byte	0x13d
 836 05e7 00       		.byte	0
 837 05e8 19       		.uleb128 0x19
 838 05e9 72000000 		.4byte	.LASF70
 839 05ed 03       		.byte	0x3
 840 05ee 0B       		.byte	0xb
 841 05ef AA070000 		.4byte	0x7aa
 842 05f3 00       		.byte	0
 843 05f4 19       		.uleb128 0x19
 844 05f5 34040000 		.4byte	.LASF71
 845 05f9 03       		.byte	0x3
 846 05fa 0C       		.byte	0xc
 847 05fb 2C000000 		.4byte	0x2c
 848 05ff 04       		.byte	0x4
 849 0600 19       		.uleb128 0x19
 850 0601 E0070000 		.4byte	.LASF72
 851 0605 03       		.byte	0x3
 852 0606 0D       		.byte	0xd
ARM GAS  /tmp/ccEdf2vV.s 			page 16


 853 0607 2C000000 		.4byte	0x2c
 854 060b 08       		.byte	0x8
 855 060c 19       		.uleb128 0x19
 856 060d 3B050000 		.4byte	.LASF73
 857 0611 03       		.byte	0x3
 858 0612 0E       		.byte	0xe
 859 0613 AA070000 		.4byte	0x7aa
 860 0617 0C       		.byte	0xc
 861 0618 19       		.uleb128 0x19
 862 0619 52040000 		.4byte	.LASF74
 863 061d 03       		.byte	0x3
 864 061e 0F       		.byte	0xf
 865 061f AA070000 		.4byte	0x7aa
 866 0623 10       		.byte	0x10
 867 0624 14       		.uleb128 0x14
 868 0625 85080000 		.4byte	.LASF57
 869 0629 03       		.byte	0x3
 870 062a 25       		.byte	0x25
 871 062b B1000000 		.4byte	.LASF75
 872 062f 78070000 		.4byte	0x778
 873 0633 01       		.byte	0x1
 874 0634 3C060000 		.4byte	0x63c
 875 0638 47060000 		.4byte	0x647
 876 063c 0E       		.uleb128 0xe
 877 063d B6070000 		.4byte	0x7b6
 878 0641 0B       		.uleb128 0xb
 879 0642 39040000 		.4byte	0x439
 880 0646 00       		.byte	0
 881 0647 14       		.uleb128 0x14
 882 0648 E1030000 		.4byte	.LASF59
 883 064c 03       		.byte	0x3
 884 064d 34       		.byte	0x34
 885 064e 29030000 		.4byte	.LASF76
 886 0652 78070000 		.4byte	0x778
 887 0656 01       		.byte	0x1
 888 0657 5F060000 		.4byte	0x65f
 889 065b 6A060000 		.4byte	0x66a
 890 065f 0E       		.uleb128 0xe
 891 0660 B6070000 		.4byte	0x7b6
 892 0664 0B       		.uleb128 0xb
 893 0665 A4070000 		.4byte	0x7a4
 894 0669 00       		.byte	0
 895 066a 14       		.uleb128 0x14
 896 066b D4070000 		.4byte	.LASF77
 897 066f 03       		.byte	0x3
 898 0670 43       		.byte	0x43
 899 0671 BC040000 		.4byte	.LASF78
 900 0675 78070000 		.4byte	0x778
 901 0679 01       		.byte	0x1
 902 067a 82060000 		.4byte	0x682
 903 067e 88060000 		.4byte	0x688
 904 0682 0E       		.uleb128 0xe
 905 0683 B6070000 		.4byte	0x7b6
 906 0687 00       		.byte	0
 907 0688 14       		.uleb128 0x14
 908 0689 B8020000 		.4byte	.LASF61
 909 068d 03       		.byte	0x3
ARM GAS  /tmp/ccEdf2vV.s 			page 17


 910 068e 51       		.byte	0x51
 911 068f 6F060000 		.4byte	.LASF79
 912 0693 2C000000 		.4byte	0x2c
 913 0697 01       		.byte	0x1
 914 0698 A0060000 		.4byte	0x6a0
 915 069c A6060000 		.4byte	0x6a6
 916 06a0 0E       		.uleb128 0xe
 917 06a1 BC070000 		.4byte	0x7bc
 918 06a5 00       		.byte	0
 919 06a6 14       		.uleb128 0x14
 920 06a7 02080000 		.4byte	.LASF63
 921 06ab 03       		.byte	0x3
 922 06ac 58       		.byte	0x58
 923 06ad 00000000 		.4byte	.LASF80
 924 06b1 2C000000 		.4byte	0x2c
 925 06b5 01       		.byte	0x1
 926 06b6 BE060000 		.4byte	0x6be
 927 06ba C4060000 		.4byte	0x6c4
 928 06be 0E       		.uleb128 0xe
 929 06bf BC070000 		.4byte	0x7bc
 930 06c3 00       		.byte	0
 931 06c4 14       		.uleb128 0x14
 932 06c5 58040000 		.4byte	.LASF65
 933 06c9 03       		.byte	0x3
 934 06ca 5F       		.byte	0x5f
 935 06cb 3B070000 		.4byte	.LASF81
 936 06cf 78070000 		.4byte	0x778
 937 06d3 01       		.byte	0x1
 938 06d4 DC060000 		.4byte	0x6dc
 939 06d8 E7060000 		.4byte	0x6e7
 940 06dc 0E       		.uleb128 0xe
 941 06dd B6070000 		.4byte	0x7b6
 942 06e1 0B       		.uleb128 0xb
 943 06e2 39040000 		.4byte	0x439
 944 06e6 00       		.byte	0
 945 06e7 14       		.uleb128 0x14
 946 06e8 C3030000 		.4byte	.LASF67
 947 06ec 03       		.byte	0x3
 948 06ed 69       		.byte	0x69
 949 06ee 91070000 		.4byte	.LASF82
 950 06f2 78070000 		.4byte	0x778
 951 06f6 01       		.byte	0x1
 952 06f7 FF060000 		.4byte	0x6ff
 953 06fb 0A070000 		.4byte	0x70a
 954 06ff 0E       		.uleb128 0xe
 955 0700 B6070000 		.4byte	0x7b6
 956 0704 0B       		.uleb128 0xb
 957 0705 A4070000 		.4byte	0x7a4
 958 0709 00       		.byte	0
 959 070a 14       		.uleb128 0x14
 960 070b 8A000000 		.4byte	.LASF83
 961 070f 03       		.byte	0x3
 962 0710 73       		.byte	0x73
 963 0711 D1080000 		.4byte	.LASF84
 964 0715 78070000 		.4byte	0x778
 965 0719 01       		.byte	0x1
 966 071a 22070000 		.4byte	0x722
ARM GAS  /tmp/ccEdf2vV.s 			page 18


 967 071e 28070000 		.4byte	0x728
 968 0722 0E       		.uleb128 0xe
 969 0723 B6070000 		.4byte	0x7b6
 970 0727 00       		.byte	0
 971 0728 0F       		.uleb128 0xf
 972 0729 A0000000 		.4byte	.LASF85
 973 072d 03       		.byte	0x3
 974 072e 7D       		.byte	0x7d
 975 072f B6070000 		.4byte	0x7b6
 976 0733 01       		.byte	0x1
 977 0734 3C070000 		.4byte	0x73c
 978 0738 4C070000 		.4byte	0x74c
 979 073c 0E       		.uleb128 0xe
 980 073d B6070000 		.4byte	0x7b6
 981 0741 0B       		.uleb128 0xb
 982 0742 AA070000 		.4byte	0x7aa
 983 0746 0B       		.uleb128 0xb
 984 0747 2C000000 		.4byte	0x2c
 985 074b 00       		.byte	0
 986 074c 1E       		.uleb128 0x1e
 987 074d A2040000 		.4byte	.LASF100
 988 0751 39040000 		.4byte	0x439
 989 0755 00       		.byte	0
 990 0756 07       		.uleb128 0x7
 991 0757 D6050000 		.4byte	0x5d6
 992 075b 07       		.uleb128 0x7
 993 075c 2D040000 		.4byte	0x42d
 994 0760 00       		.byte	0
 995 0761 06       		.uleb128 0x6
 996 0762 04       		.byte	0x4
 997 0763 3D010000 		.4byte	0x13d
 998 0767 1F       		.uleb128 0x1f
 999 0768 04       		.byte	0x4
 1000 0769 9D010000 		.4byte	0x19d
 1001 076d 03       		.uleb128 0x3
 1002 076e 81050000 		.4byte	.LASF86
 1003 0772 0B       		.byte	0xb
 1004 0773 2C       		.byte	0x2c
 1005 0774 5A000000 		.4byte	0x5a
 1006 0778 04       		.uleb128 0x4
 1007 0779 01       		.byte	0x1
 1008 077a 02       		.byte	0x2
 1009 077b 79000000 		.4byte	.LASF87
 1010 077f 06       		.uleb128 0x6
 1011 0780 04       		.byte	0x4
 1012 0781 28040000 		.4byte	0x428
 1013 0785 04       		.uleb128 0x4
 1014 0786 08       		.byte	0x8
 1015 0787 04       		.byte	0x4
 1016 0788 05070000 		.4byte	.LASF88
 1017 078c 1F       		.uleb128 0x1f
 1018 078d 04       		.byte	0x4
 1019 078e A2010000 		.4byte	0x1a2
 1020 0792 06       		.uleb128 0x6
 1021 0793 04       		.byte	0x4
 1022 0794 A2010000 		.4byte	0x1a2
 1023 0798 1F       		.uleb128 0x1f
ARM GAS  /tmp/ccEdf2vV.s 			page 19


 1024 0799 04       		.byte	0x4
 1025 079a 28040000 		.4byte	0x428
 1026 079e 06       		.uleb128 0x6
 1027 079f 04       		.byte	0x4
 1028 07a0 D1050000 		.4byte	0x5d1
 1029 07a4 1F       		.uleb128 0x1f
 1030 07a5 04       		.byte	0x4
 1031 07a6 39040000 		.4byte	0x439
 1032 07aa 06       		.uleb128 0x6
 1033 07ab 04       		.byte	0x4
 1034 07ac 39040000 		.4byte	0x439
 1035 07b0 1F       		.uleb128 0x1f
 1036 07b1 04       		.byte	0x4
 1037 07b2 B9040000 		.4byte	0x4b9
 1038 07b6 06       		.uleb128 0x6
 1039 07b7 04       		.byte	0x4
 1040 07b8 D6050000 		.4byte	0x5d6
 1041 07bc 06       		.uleb128 0x6
 1042 07bd 04       		.byte	0x4
 1043 07be 56070000 		.4byte	0x756
 1044 07c2 06       		.uleb128 0x6
 1045 07c3 04       		.byte	0x4
 1046 07c4 5B070000 		.4byte	0x75b
 1047 07c8 06       		.uleb128 0x6
 1048 07c9 04       		.byte	0x4
 1049 07ca 2D040000 		.4byte	0x42d
 1050 07ce 20       		.uleb128 0x20
 1051 07cf 67010000 		.4byte	0x167
 1052 07d3 02       		.byte	0x2
 1053 07d4 DC070000 		.4byte	0x7dc
 1054 07d8 E6070000 		.4byte	0x7e6
 1055 07dc 21       		.uleb128 0x21
 1056 07dd AA050000 		.4byte	.LASF89
 1057 07e1 E6070000 		.4byte	0x7e6
 1058 07e5 00       		.byte	0
 1059 07e6 07       		.uleb128 0x7
 1060 07e7 61070000 		.4byte	0x761
 1061 07eb 22       		.uleb128 0x22
 1062 07ec CE070000 		.4byte	0x7ce
 1063 07f0 C9030000 		.4byte	.LASF91
 1064 07f4 00000000 		.4byte	.LFB6
 1065 07f8 0C000000 		.4byte	.LFE6-.LFB6
 1066 07fc 01       		.uleb128 0x1
 1067 07fd 9C       		.byte	0x9c
 1068 07fe 06080000 		.4byte	0x806
 1069 0802 0F080000 		.4byte	0x80f
 1070 0806 23       		.uleb128 0x23
 1071 0807 DC070000 		.4byte	0x7dc
 1072 080b 02       		.uleb128 0x2
 1073 080c 91       		.byte	0x91
 1074 080d 7C       		.sleb128 -4
 1075 080e 00       		.byte	0
 1076 080f 24       		.uleb128 0x24
 1077 0810 B0050000 		.4byte	0x5b0
 1078 0814 02       		.byte	0x2
 1079 0815 07       		.byte	0x7
 1080 0816 00       		.byte	0
ARM GAS  /tmp/ccEdf2vV.s 			page 20


 1081 0817 1F080000 		.4byte	0x81f
 1082 081b 3F080000 		.4byte	0x83f
 1083 081f 21       		.uleb128 0x21
 1084 0820 AA050000 		.4byte	.LASF89
 1085 0824 3F080000 		.4byte	0x83f
 1086 0828 25       		.uleb128 0x25
 1087 0829 7C070000 		.4byte	.LASF90
 1088 082d 02       		.byte	0x2
 1089 082e 07       		.byte	0x7
 1090 082f AA070000 		.4byte	0x7aa
 1091 0833 25       		.uleb128 0x25
 1092 0834 34040000 		.4byte	.LASF71
 1093 0838 02       		.byte	0x2
 1094 0839 07       		.byte	0x7
 1095 083a 2C000000 		.4byte	0x2c
 1096 083e 00       		.byte	0
 1097 083f 07       		.uleb128 0x7
 1098 0840 C8070000 		.4byte	0x7c8
 1099 0844 26       		.uleb128 0x26
 1100 0845 0F080000 		.4byte	0x80f
 1101 0849 BB060000 		.4byte	.LASF92
 1102 084d 00000000 		.4byte	.LFB99
 1103 0851 20000000 		.4byte	.LFE99-.LFB99
 1104 0855 01       		.uleb128 0x1
 1105 0856 9C       		.byte	0x9c
 1106 0857 5F080000 		.4byte	0x85f
 1107 085b 78080000 		.4byte	0x878
 1108 085f 23       		.uleb128 0x23
 1109 0860 1F080000 		.4byte	0x81f
 1110 0864 02       		.uleb128 0x2
 1111 0865 91       		.byte	0x91
 1112 0866 74       		.sleb128 -12
 1113 0867 23       		.uleb128 0x23
 1114 0868 28080000 		.4byte	0x828
 1115 086c 02       		.uleb128 0x2
 1116 086d 91       		.byte	0x91
 1117 086e 70       		.sleb128 -16
 1118 086f 23       		.uleb128 0x23
 1119 0870 33080000 		.4byte	0x833
 1120 0874 02       		.uleb128 0x2
 1121 0875 91       		.byte	0x91
 1122 0876 6C       		.sleb128 -20
 1123 0877 00       		.byte	0
 1124 0878 20       		.uleb128 0x20
 1125 0879 28070000 		.4byte	0x728
 1126 087d 02       		.byte	0x2
 1127 087e 86080000 		.4byte	0x886
 1128 0882 A6080000 		.4byte	0x8a6
 1129 0886 21       		.uleb128 0x21
 1130 0887 AA050000 		.4byte	.LASF89
 1131 088b A6080000 		.4byte	0x8a6
 1132 088f 25       		.uleb128 0x25
 1133 0890 7C070000 		.4byte	.LASF90
 1134 0894 03       		.byte	0x3
 1135 0895 7D       		.byte	0x7d
 1136 0896 AA070000 		.4byte	0x7aa
 1137 089a 25       		.uleb128 0x25
ARM GAS  /tmp/ccEdf2vV.s 			page 21


 1138 089b 34040000 		.4byte	.LASF71
 1139 089f 03       		.byte	0x3
 1140 08a0 7D       		.byte	0x7d
 1141 08a1 2C000000 		.4byte	0x2c
 1142 08a5 00       		.byte	0
 1143 08a6 07       		.uleb128 0x7
 1144 08a7 B6070000 		.4byte	0x7b6
 1145 08ab 27       		.uleb128 0x27
 1146 08ac 78080000 		.4byte	0x878
 1147 08b0 91080000 		.4byte	.LASF101
 1148 08b4 00000000 		.4byte	.LFB117
 1149 08b8 54000000 		.4byte	.LFE117-.LFB117
 1150 08bc 01       		.uleb128 0x1
 1151 08bd 9C       		.byte	0x9c
 1152 08be C2080000 		.4byte	0x8c2
 1153 08c2 23       		.uleb128 0x23
 1154 08c3 86080000 		.4byte	0x886
 1155 08c7 02       		.uleb128 0x2
 1156 08c8 91       		.byte	0x91
 1157 08c9 74       		.sleb128 -12
 1158 08ca 23       		.uleb128 0x23
 1159 08cb 8F080000 		.4byte	0x88f
 1160 08cf 02       		.uleb128 0x2
 1161 08d0 91       		.byte	0x91
 1162 08d1 70       		.sleb128 -16
 1163 08d2 23       		.uleb128 0x23
 1164 08d3 9A080000 		.4byte	0x89a
 1165 08d7 02       		.uleb128 0x2
 1166 08d8 91       		.byte	0x91
 1167 08d9 6C       		.sleb128 -20
 1168 08da 00       		.byte	0
 1169 08db 00       		.byte	0
 1170              		.section	.debug_abbrev,"",%progbits
 1171              	.Ldebug_abbrev0:
 1172 0000 01       		.uleb128 0x1
 1173 0001 11       		.uleb128 0x11
 1174 0002 01       		.byte	0x1
 1175 0003 25       		.uleb128 0x25
 1176 0004 0E       		.uleb128 0xe
 1177 0005 13       		.uleb128 0x13
 1178 0006 0B       		.uleb128 0xb
 1179 0007 03       		.uleb128 0x3
 1180 0008 0E       		.uleb128 0xe
 1181 0009 1B       		.uleb128 0x1b
 1182 000a 0E       		.uleb128 0xe
 1183 000b 55       		.uleb128 0x55
 1184 000c 17       		.uleb128 0x17
 1185 000d 11       		.uleb128 0x11
 1186 000e 01       		.uleb128 0x1
 1187 000f 10       		.uleb128 0x10
 1188 0010 17       		.uleb128 0x17
 1189 0011 00       		.byte	0
 1190 0012 00       		.byte	0
 1191 0013 02       		.uleb128 0x2
 1192 0014 24       		.uleb128 0x24
 1193 0015 00       		.byte	0
 1194 0016 0B       		.uleb128 0xb
ARM GAS  /tmp/ccEdf2vV.s 			page 22


 1195 0017 0B       		.uleb128 0xb
 1196 0018 3E       		.uleb128 0x3e
 1197 0019 0B       		.uleb128 0xb
 1198 001a 03       		.uleb128 0x3
 1199 001b 08       		.uleb128 0x8
 1200 001c 00       		.byte	0
 1201 001d 00       		.byte	0
 1202 001e 03       		.uleb128 0x3
 1203 001f 16       		.uleb128 0x16
 1204 0020 00       		.byte	0
 1205 0021 03       		.uleb128 0x3
 1206 0022 0E       		.uleb128 0xe
 1207 0023 3A       		.uleb128 0x3a
 1208 0024 0B       		.uleb128 0xb
 1209 0025 3B       		.uleb128 0x3b
 1210 0026 0B       		.uleb128 0xb
 1211 0027 49       		.uleb128 0x49
 1212 0028 13       		.uleb128 0x13
 1213 0029 00       		.byte	0
 1214 002a 00       		.byte	0
 1215 002b 04       		.uleb128 0x4
 1216 002c 24       		.uleb128 0x24
 1217 002d 00       		.byte	0
 1218 002e 0B       		.uleb128 0xb
 1219 002f 0B       		.uleb128 0xb
 1220 0030 3E       		.uleb128 0x3e
 1221 0031 0B       		.uleb128 0xb
 1222 0032 03       		.uleb128 0x3
 1223 0033 0E       		.uleb128 0xe
 1224 0034 00       		.byte	0
 1225 0035 00       		.byte	0
 1226 0036 05       		.uleb128 0x5
 1227 0037 0F       		.uleb128 0xf
 1228 0038 00       		.byte	0
 1229 0039 0B       		.uleb128 0xb
 1230 003a 0B       		.uleb128 0xb
 1231 003b 00       		.byte	0
 1232 003c 00       		.byte	0
 1233 003d 06       		.uleb128 0x6
 1234 003e 0F       		.uleb128 0xf
 1235 003f 00       		.byte	0
 1236 0040 0B       		.uleb128 0xb
 1237 0041 0B       		.uleb128 0xb
 1238 0042 49       		.uleb128 0x49
 1239 0043 13       		.uleb128 0x13
 1240 0044 00       		.byte	0
 1241 0045 00       		.byte	0
 1242 0046 07       		.uleb128 0x7
 1243 0047 26       		.uleb128 0x26
 1244 0048 00       		.byte	0
 1245 0049 49       		.uleb128 0x49
 1246 004a 13       		.uleb128 0x13
 1247 004b 00       		.byte	0
 1248 004c 00       		.byte	0
 1249 004d 08       		.uleb128 0x8
 1250 004e 39       		.uleb128 0x39
 1251 004f 01       		.byte	0x1
ARM GAS  /tmp/ccEdf2vV.s 			page 23


 1252 0050 03       		.uleb128 0x3
 1253 0051 08       		.uleb128 0x8
 1254 0052 3A       		.uleb128 0x3a
 1255 0053 0B       		.uleb128 0xb
 1256 0054 3B       		.uleb128 0x3b
 1257 0055 0B       		.uleb128 0xb
 1258 0056 01       		.uleb128 0x1
 1259 0057 13       		.uleb128 0x13
 1260 0058 00       		.byte	0
 1261 0059 00       		.byte	0
 1262 005a 09       		.uleb128 0x9
 1263 005b 08       		.uleb128 0x8
 1264 005c 00       		.byte	0
 1265 005d 3A       		.uleb128 0x3a
 1266 005e 0B       		.uleb128 0xb
 1267 005f 3B       		.uleb128 0x3b
 1268 0060 0B       		.uleb128 0xb
 1269 0061 18       		.uleb128 0x18
 1270 0062 13       		.uleb128 0x13
 1271 0063 00       		.byte	0
 1272 0064 00       		.byte	0
 1273 0065 0A       		.uleb128 0xa
 1274 0066 2E       		.uleb128 0x2e
 1275 0067 01       		.byte	0x1
 1276 0068 3F       		.uleb128 0x3f
 1277 0069 19       		.uleb128 0x19
 1278 006a 03       		.uleb128 0x3
 1279 006b 0E       		.uleb128 0xe
 1280 006c 3A       		.uleb128 0x3a
 1281 006d 0B       		.uleb128 0xb
 1282 006e 3B       		.uleb128 0x3b
 1283 006f 0B       		.uleb128 0xb
 1284 0070 49       		.uleb128 0x49
 1285 0071 13       		.uleb128 0x13
 1286 0072 3C       		.uleb128 0x3c
 1287 0073 19       		.uleb128 0x19
 1288 0074 01       		.uleb128 0x1
 1289 0075 13       		.uleb128 0x13
 1290 0076 00       		.byte	0
 1291 0077 00       		.byte	0
 1292 0078 0B       		.uleb128 0xb
 1293 0079 05       		.uleb128 0x5
 1294 007a 00       		.byte	0
 1295 007b 49       		.uleb128 0x49
 1296 007c 13       		.uleb128 0x13
 1297 007d 00       		.byte	0
 1298 007e 00       		.byte	0
 1299 007f 0C       		.uleb128 0xc
 1300 0080 02       		.uleb128 0x2
 1301 0081 01       		.byte	0x1
 1302 0082 03       		.uleb128 0x3
 1303 0083 0E       		.uleb128 0xe
 1304 0084 0B       		.uleb128 0xb
 1305 0085 0B       		.uleb128 0xb
 1306 0086 3A       		.uleb128 0x3a
 1307 0087 0B       		.uleb128 0xb
 1308 0088 3B       		.uleb128 0x3b
ARM GAS  /tmp/ccEdf2vV.s 			page 24


 1309 0089 0B       		.uleb128 0xb
 1310 008a 01       		.uleb128 0x1
 1311 008b 13       		.uleb128 0x13
 1312 008c 00       		.byte	0
 1313 008d 00       		.byte	0
 1314 008e 0D       		.uleb128 0xd
 1315 008f 2E       		.uleb128 0x2e
 1316 0090 01       		.byte	0x1
 1317 0091 3F       		.uleb128 0x3f
 1318 0092 19       		.uleb128 0x19
 1319 0093 03       		.uleb128 0x3
 1320 0094 0E       		.uleb128 0xe
 1321 0095 3A       		.uleb128 0x3a
 1322 0096 0B       		.uleb128 0xb
 1323 0097 3B       		.uleb128 0x3b
 1324 0098 0B       		.uleb128 0xb
 1325 0099 49       		.uleb128 0x49
 1326 009a 13       		.uleb128 0x13
 1327 009b 3C       		.uleb128 0x3c
 1328 009c 19       		.uleb128 0x19
 1329 009d 64       		.uleb128 0x64
 1330 009e 13       		.uleb128 0x13
 1331 009f 01       		.uleb128 0x1
 1332 00a0 13       		.uleb128 0x13
 1333 00a1 00       		.byte	0
 1334 00a2 00       		.byte	0
 1335 00a3 0E       		.uleb128 0xe
 1336 00a4 05       		.uleb128 0x5
 1337 00a5 00       		.byte	0
 1338 00a6 49       		.uleb128 0x49
 1339 00a7 13       		.uleb128 0x13
 1340 00a8 34       		.uleb128 0x34
 1341 00a9 19       		.uleb128 0x19
 1342 00aa 00       		.byte	0
 1343 00ab 00       		.byte	0
 1344 00ac 0F       		.uleb128 0xf
 1345 00ad 2E       		.uleb128 0x2e
 1346 00ae 01       		.byte	0x1
 1347 00af 3F       		.uleb128 0x3f
 1348 00b0 19       		.uleb128 0x19
 1349 00b1 03       		.uleb128 0x3
 1350 00b2 0E       		.uleb128 0xe
 1351 00b3 3A       		.uleb128 0x3a
 1352 00b4 0B       		.uleb128 0xb
 1353 00b5 3B       		.uleb128 0x3b
 1354 00b6 0B       		.uleb128 0xb
 1355 00b7 49       		.uleb128 0x49
 1356 00b8 13       		.uleb128 0x13
 1357 00b9 32       		.uleb128 0x32
 1358 00ba 0B       		.uleb128 0xb
 1359 00bb 3C       		.uleb128 0x3c
 1360 00bc 19       		.uleb128 0x19
 1361 00bd 64       		.uleb128 0x64
 1362 00be 13       		.uleb128 0x13
 1363 00bf 01       		.uleb128 0x1
 1364 00c0 13       		.uleb128 0x13
 1365 00c1 00       		.byte	0
ARM GAS  /tmp/ccEdf2vV.s 			page 25


 1366 00c2 00       		.byte	0
 1367 00c3 10       		.uleb128 0x10
 1368 00c4 2E       		.uleb128 0x2e
 1369 00c5 01       		.byte	0x1
 1370 00c6 3F       		.uleb128 0x3f
 1371 00c7 19       		.uleb128 0x19
 1372 00c8 03       		.uleb128 0x3
 1373 00c9 0E       		.uleb128 0xe
 1374 00ca 3A       		.uleb128 0x3a
 1375 00cb 0B       		.uleb128 0xb
 1376 00cc 3B       		.uleb128 0x3b
 1377 00cd 0B       		.uleb128 0xb
 1378 00ce 49       		.uleb128 0x49
 1379 00cf 13       		.uleb128 0x13
 1380 00d0 32       		.uleb128 0x32
 1381 00d1 0B       		.uleb128 0xb
 1382 00d2 3C       		.uleb128 0x3c
 1383 00d3 19       		.uleb128 0x19
 1384 00d4 64       		.uleb128 0x64
 1385 00d5 13       		.uleb128 0x13
 1386 00d6 00       		.byte	0
 1387 00d7 00       		.byte	0
 1388 00d8 11       		.uleb128 0x11
 1389 00d9 16       		.uleb128 0x16
 1390 00da 00       		.byte	0
 1391 00db 03       		.uleb128 0x3
 1392 00dc 0E       		.uleb128 0xe
 1393 00dd 3A       		.uleb128 0x3a
 1394 00de 0B       		.uleb128 0xb
 1395 00df 3B       		.uleb128 0x3b
 1396 00e0 0B       		.uleb128 0xb
 1397 00e1 49       		.uleb128 0x49
 1398 00e2 13       		.uleb128 0x13
 1399 00e3 32       		.uleb128 0x32
 1400 00e4 0B       		.uleb128 0xb
 1401 00e5 00       		.byte	0
 1402 00e6 00       		.byte	0
 1403 00e7 12       		.uleb128 0x12
 1404 00e8 0D       		.uleb128 0xd
 1405 00e9 00       		.byte	0
 1406 00ea 03       		.uleb128 0x3
 1407 00eb 08       		.uleb128 0x8
 1408 00ec 3A       		.uleb128 0x3a
 1409 00ed 0B       		.uleb128 0xb
 1410 00ee 3B       		.uleb128 0x3b
 1411 00ef 0B       		.uleb128 0xb
 1412 00f0 49       		.uleb128 0x49
 1413 00f1 13       		.uleb128 0x13
 1414 00f2 38       		.uleb128 0x38
 1415 00f3 0B       		.uleb128 0xb
 1416 00f4 32       		.uleb128 0x32
 1417 00f5 0B       		.uleb128 0xb
 1418 00f6 00       		.byte	0
 1419 00f7 00       		.byte	0
 1420 00f8 13       		.uleb128 0x13
 1421 00f9 0D       		.uleb128 0xd
 1422 00fa 00       		.byte	0
ARM GAS  /tmp/ccEdf2vV.s 			page 26


 1423 00fb 03       		.uleb128 0x3
 1424 00fc 0E       		.uleb128 0xe
 1425 00fd 3A       		.uleb128 0x3a
 1426 00fe 0B       		.uleb128 0xb
 1427 00ff 3B       		.uleb128 0x3b
 1428 0100 0B       		.uleb128 0xb
 1429 0101 49       		.uleb128 0x49
 1430 0102 13       		.uleb128 0x13
 1431 0103 3F       		.uleb128 0x3f
 1432 0104 19       		.uleb128 0x19
 1433 0105 32       		.uleb128 0x32
 1434 0106 0B       		.uleb128 0xb
 1435 0107 3C       		.uleb128 0x3c
 1436 0108 19       		.uleb128 0x19
 1437 0109 00       		.byte	0
 1438 010a 00       		.byte	0
 1439 010b 14       		.uleb128 0x14
 1440 010c 2E       		.uleb128 0x2e
 1441 010d 01       		.byte	0x1
 1442 010e 3F       		.uleb128 0x3f
 1443 010f 19       		.uleb128 0x19
 1444 0110 03       		.uleb128 0x3
 1445 0111 0E       		.uleb128 0xe
 1446 0112 3A       		.uleb128 0x3a
 1447 0113 0B       		.uleb128 0xb
 1448 0114 3B       		.uleb128 0x3b
 1449 0115 0B       		.uleb128 0xb
 1450 0116 6E       		.uleb128 0x6e
 1451 0117 0E       		.uleb128 0xe
 1452 0118 49       		.uleb128 0x49
 1453 0119 13       		.uleb128 0x13
 1454 011a 32       		.uleb128 0x32
 1455 011b 0B       		.uleb128 0xb
 1456 011c 3C       		.uleb128 0x3c
 1457 011d 19       		.uleb128 0x19
 1458 011e 64       		.uleb128 0x64
 1459 011f 13       		.uleb128 0x13
 1460 0120 01       		.uleb128 0x1
 1461 0121 13       		.uleb128 0x13
 1462 0122 00       		.byte	0
 1463 0123 00       		.byte	0
 1464 0124 15       		.uleb128 0x15
 1465 0125 2E       		.uleb128 0x2e
 1466 0126 01       		.byte	0x1
 1467 0127 3F       		.uleb128 0x3f
 1468 0128 19       		.uleb128 0x19
 1469 0129 03       		.uleb128 0x3
 1470 012a 0E       		.uleb128 0xe
 1471 012b 3A       		.uleb128 0x3a
 1472 012c 0B       		.uleb128 0xb
 1473 012d 3B       		.uleb128 0x3b
 1474 012e 0B       		.uleb128 0xb
 1475 012f 49       		.uleb128 0x49
 1476 0130 13       		.uleb128 0x13
 1477 0131 32       		.uleb128 0x32
 1478 0132 0B       		.uleb128 0xb
 1479 0133 3C       		.uleb128 0x3c
ARM GAS  /tmp/ccEdf2vV.s 			page 27


 1480 0134 19       		.uleb128 0x19
 1481 0135 63       		.uleb128 0x63
 1482 0136 19       		.uleb128 0x19
 1483 0137 64       		.uleb128 0x64
 1484 0138 13       		.uleb128 0x13
 1485 0139 01       		.uleb128 0x1
 1486 013a 13       		.uleb128 0x13
 1487 013b 00       		.byte	0
 1488 013c 00       		.byte	0
 1489 013d 16       		.uleb128 0x16
 1490 013e 2E       		.uleb128 0x2e
 1491 013f 01       		.byte	0x1
 1492 0140 3F       		.uleb128 0x3f
 1493 0141 19       		.uleb128 0x19
 1494 0142 03       		.uleb128 0x3
 1495 0143 08       		.uleb128 0x8
 1496 0144 3A       		.uleb128 0x3a
 1497 0145 0B       		.uleb128 0xb
 1498 0146 3B       		.uleb128 0x3b
 1499 0147 0B       		.uleb128 0xb
 1500 0148 6E       		.uleb128 0x6e
 1501 0149 0E       		.uleb128 0xe
 1502 014a 49       		.uleb128 0x49
 1503 014b 13       		.uleb128 0x13
 1504 014c 32       		.uleb128 0x32
 1505 014d 0B       		.uleb128 0xb
 1506 014e 3C       		.uleb128 0x3c
 1507 014f 19       		.uleb128 0x19
 1508 0150 01       		.uleb128 0x1
 1509 0151 13       		.uleb128 0x13
 1510 0152 00       		.byte	0
 1511 0153 00       		.byte	0
 1512 0154 17       		.uleb128 0x17
 1513 0155 2E       		.uleb128 0x2e
 1514 0156 00       		.byte	0
 1515 0157 3F       		.uleb128 0x3f
 1516 0158 19       		.uleb128 0x19
 1517 0159 03       		.uleb128 0x3
 1518 015a 08       		.uleb128 0x8
 1519 015b 3A       		.uleb128 0x3a
 1520 015c 0B       		.uleb128 0xb
 1521 015d 3B       		.uleb128 0x3b
 1522 015e 0B       		.uleb128 0xb
 1523 015f 6E       		.uleb128 0x6e
 1524 0160 0E       		.uleb128 0xe
 1525 0161 49       		.uleb128 0x49
 1526 0162 13       		.uleb128 0x13
 1527 0163 32       		.uleb128 0x32
 1528 0164 0B       		.uleb128 0xb
 1529 0165 3C       		.uleb128 0x3c
 1530 0166 19       		.uleb128 0x19
 1531 0167 00       		.byte	0
 1532 0168 00       		.byte	0
 1533 0169 18       		.uleb128 0x18
 1534 016a 13       		.uleb128 0x13
 1535 016b 01       		.byte	0x1
 1536 016c 03       		.uleb128 0x3
ARM GAS  /tmp/ccEdf2vV.s 			page 28


 1537 016d 0E       		.uleb128 0xe
 1538 016e 0B       		.uleb128 0xb
 1539 016f 0B       		.uleb128 0xb
 1540 0170 3A       		.uleb128 0x3a
 1541 0171 0B       		.uleb128 0xb
 1542 0172 3B       		.uleb128 0x3b
 1543 0173 0B       		.uleb128 0xb
 1544 0174 32       		.uleb128 0x32
 1545 0175 0B       		.uleb128 0xb
 1546 0176 01       		.uleb128 0x1
 1547 0177 13       		.uleb128 0x13
 1548 0178 00       		.byte	0
 1549 0179 00       		.byte	0
 1550 017a 19       		.uleb128 0x19
 1551 017b 0D       		.uleb128 0xd
 1552 017c 00       		.byte	0
 1553 017d 03       		.uleb128 0x3
 1554 017e 0E       		.uleb128 0xe
 1555 017f 3A       		.uleb128 0x3a
 1556 0180 0B       		.uleb128 0xb
 1557 0181 3B       		.uleb128 0x3b
 1558 0182 0B       		.uleb128 0xb
 1559 0183 49       		.uleb128 0x49
 1560 0184 13       		.uleb128 0x13
 1561 0185 38       		.uleb128 0x38
 1562 0186 0B       		.uleb128 0xb
 1563 0187 00       		.byte	0
 1564 0188 00       		.byte	0
 1565 0189 1A       		.uleb128 0x1a
 1566 018a 2E       		.uleb128 0x2e
 1567 018b 01       		.byte	0x1
 1568 018c 3F       		.uleb128 0x3f
 1569 018d 19       		.uleb128 0x19
 1570 018e 03       		.uleb128 0x3
 1571 018f 0E       		.uleb128 0xe
 1572 0190 3A       		.uleb128 0x3a
 1573 0191 0B       		.uleb128 0xb
 1574 0192 3B       		.uleb128 0x3b
 1575 0193 0B       		.uleb128 0xb
 1576 0194 6E       		.uleb128 0x6e
 1577 0195 0E       		.uleb128 0xe
 1578 0196 49       		.uleb128 0x49
 1579 0197 13       		.uleb128 0x13
 1580 0198 3C       		.uleb128 0x3c
 1581 0199 19       		.uleb128 0x19
 1582 019a 64       		.uleb128 0x64
 1583 019b 13       		.uleb128 0x13
 1584 019c 01       		.uleb128 0x1
 1585 019d 13       		.uleb128 0x13
 1586 019e 00       		.byte	0
 1587 019f 00       		.byte	0
 1588 01a0 1B       		.uleb128 0x1b
 1589 01a1 2E       		.uleb128 0x2e
 1590 01a2 01       		.byte	0x1
 1591 01a3 3F       		.uleb128 0x3f
 1592 01a4 19       		.uleb128 0x19
 1593 01a5 03       		.uleb128 0x3
ARM GAS  /tmp/ccEdf2vV.s 			page 29


 1594 01a6 0E       		.uleb128 0xe
 1595 01a7 3A       		.uleb128 0x3a
 1596 01a8 0B       		.uleb128 0xb
 1597 01a9 3B       		.uleb128 0x3b
 1598 01aa 0B       		.uleb128 0xb
 1599 01ab 49       		.uleb128 0x49
 1600 01ac 13       		.uleb128 0x13
 1601 01ad 3C       		.uleb128 0x3c
 1602 01ae 19       		.uleb128 0x19
 1603 01af 64       		.uleb128 0x64
 1604 01b0 13       		.uleb128 0x13
 1605 01b1 00       		.byte	0
 1606 01b2 00       		.byte	0
 1607 01b3 1C       		.uleb128 0x1c
 1608 01b4 02       		.uleb128 0x2
 1609 01b5 00       		.byte	0
 1610 01b6 03       		.uleb128 0x3
 1611 01b7 0E       		.uleb128 0xe
 1612 01b8 3C       		.uleb128 0x3c
 1613 01b9 19       		.uleb128 0x19
 1614 01ba 00       		.byte	0
 1615 01bb 00       		.byte	0
 1616 01bc 1D       		.uleb128 0x1d
 1617 01bd 1C       		.uleb128 0x1c
 1618 01be 00       		.byte	0
 1619 01bf 49       		.uleb128 0x49
 1620 01c0 13       		.uleb128 0x13
 1621 01c1 38       		.uleb128 0x38
 1622 01c2 0B       		.uleb128 0xb
 1623 01c3 00       		.byte	0
 1624 01c4 00       		.byte	0
 1625 01c5 1E       		.uleb128 0x1e
 1626 01c6 2F       		.uleb128 0x2f
 1627 01c7 00       		.byte	0
 1628 01c8 03       		.uleb128 0x3
 1629 01c9 0E       		.uleb128 0xe
 1630 01ca 49       		.uleb128 0x49
 1631 01cb 13       		.uleb128 0x13
 1632 01cc 00       		.byte	0
 1633 01cd 00       		.byte	0
 1634 01ce 1F       		.uleb128 0x1f
 1635 01cf 10       		.uleb128 0x10
 1636 01d0 00       		.byte	0
 1637 01d1 0B       		.uleb128 0xb
 1638 01d2 0B       		.uleb128 0xb
 1639 01d3 49       		.uleb128 0x49
 1640 01d4 13       		.uleb128 0x13
 1641 01d5 00       		.byte	0
 1642 01d6 00       		.byte	0
 1643 01d7 20       		.uleb128 0x20
 1644 01d8 2E       		.uleb128 0x2e
 1645 01d9 01       		.byte	0x1
 1646 01da 47       		.uleb128 0x47
 1647 01db 13       		.uleb128 0x13
 1648 01dc 20       		.uleb128 0x20
 1649 01dd 0B       		.uleb128 0xb
 1650 01de 64       		.uleb128 0x64
ARM GAS  /tmp/ccEdf2vV.s 			page 30


 1651 01df 13       		.uleb128 0x13
 1652 01e0 01       		.uleb128 0x1
 1653 01e1 13       		.uleb128 0x13
 1654 01e2 00       		.byte	0
 1655 01e3 00       		.byte	0
 1656 01e4 21       		.uleb128 0x21
 1657 01e5 05       		.uleb128 0x5
 1658 01e6 00       		.byte	0
 1659 01e7 03       		.uleb128 0x3
 1660 01e8 0E       		.uleb128 0xe
 1661 01e9 49       		.uleb128 0x49
 1662 01ea 13       		.uleb128 0x13
 1663 01eb 34       		.uleb128 0x34
 1664 01ec 19       		.uleb128 0x19
 1665 01ed 00       		.byte	0
 1666 01ee 00       		.byte	0
 1667 01ef 22       		.uleb128 0x22
 1668 01f0 2E       		.uleb128 0x2e
 1669 01f1 01       		.byte	0x1
 1670 01f2 31       		.uleb128 0x31
 1671 01f3 13       		.uleb128 0x13
 1672 01f4 6E       		.uleb128 0x6e
 1673 01f5 0E       		.uleb128 0xe
 1674 01f6 11       		.uleb128 0x11
 1675 01f7 01       		.uleb128 0x1
 1676 01f8 12       		.uleb128 0x12
 1677 01f9 06       		.uleb128 0x6
 1678 01fa 40       		.uleb128 0x40
 1679 01fb 18       		.uleb128 0x18
 1680 01fc 64       		.uleb128 0x64
 1681 01fd 13       		.uleb128 0x13
 1682 01fe 9742     		.uleb128 0x2117
 1683 0200 19       		.uleb128 0x19
 1684 0201 01       		.uleb128 0x1
 1685 0202 13       		.uleb128 0x13
 1686 0203 00       		.byte	0
 1687 0204 00       		.byte	0
 1688 0205 23       		.uleb128 0x23
 1689 0206 05       		.uleb128 0x5
 1690 0207 00       		.byte	0
 1691 0208 31       		.uleb128 0x31
 1692 0209 13       		.uleb128 0x13
 1693 020a 02       		.uleb128 0x2
 1694 020b 18       		.uleb128 0x18
 1695 020c 00       		.byte	0
 1696 020d 00       		.byte	0
 1697 020e 24       		.uleb128 0x24
 1698 020f 2E       		.uleb128 0x2e
 1699 0210 01       		.byte	0x1
 1700 0211 47       		.uleb128 0x47
 1701 0212 13       		.uleb128 0x13
 1702 0213 3A       		.uleb128 0x3a
 1703 0214 0B       		.uleb128 0xb
 1704 0215 3B       		.uleb128 0x3b
 1705 0216 0B       		.uleb128 0xb
 1706 0217 20       		.uleb128 0x20
 1707 0218 0B       		.uleb128 0xb
ARM GAS  /tmp/ccEdf2vV.s 			page 31


 1708 0219 64       		.uleb128 0x64
 1709 021a 13       		.uleb128 0x13
 1710 021b 01       		.uleb128 0x1
 1711 021c 13       		.uleb128 0x13
 1712 021d 00       		.byte	0
 1713 021e 00       		.byte	0
 1714 021f 25       		.uleb128 0x25
 1715 0220 05       		.uleb128 0x5
 1716 0221 00       		.byte	0
 1717 0222 03       		.uleb128 0x3
 1718 0223 0E       		.uleb128 0xe
 1719 0224 3A       		.uleb128 0x3a
 1720 0225 0B       		.uleb128 0xb
 1721 0226 3B       		.uleb128 0x3b
 1722 0227 0B       		.uleb128 0xb
 1723 0228 49       		.uleb128 0x49
 1724 0229 13       		.uleb128 0x13
 1725 022a 00       		.byte	0
 1726 022b 00       		.byte	0
 1727 022c 26       		.uleb128 0x26
 1728 022d 2E       		.uleb128 0x2e
 1729 022e 01       		.byte	0x1
 1730 022f 31       		.uleb128 0x31
 1731 0230 13       		.uleb128 0x13
 1732 0231 6E       		.uleb128 0x6e
 1733 0232 0E       		.uleb128 0xe
 1734 0233 11       		.uleb128 0x11
 1735 0234 01       		.uleb128 0x1
 1736 0235 12       		.uleb128 0x12
 1737 0236 06       		.uleb128 0x6
 1738 0237 40       		.uleb128 0x40
 1739 0238 18       		.uleb128 0x18
 1740 0239 64       		.uleb128 0x64
 1741 023a 13       		.uleb128 0x13
 1742 023b 9642     		.uleb128 0x2116
 1743 023d 19       		.uleb128 0x19
 1744 023e 01       		.uleb128 0x1
 1745 023f 13       		.uleb128 0x13
 1746 0240 00       		.byte	0
 1747 0241 00       		.byte	0
 1748 0242 27       		.uleb128 0x27
 1749 0243 2E       		.uleb128 0x2e
 1750 0244 01       		.byte	0x1
 1751 0245 31       		.uleb128 0x31
 1752 0246 13       		.uleb128 0x13
 1753 0247 6E       		.uleb128 0x6e
 1754 0248 0E       		.uleb128 0xe
 1755 0249 11       		.uleb128 0x11
 1756 024a 01       		.uleb128 0x1
 1757 024b 12       		.uleb128 0x12
 1758 024c 06       		.uleb128 0x6
 1759 024d 40       		.uleb128 0x40
 1760 024e 18       		.uleb128 0x18
 1761 024f 64       		.uleb128 0x64
 1762 0250 13       		.uleb128 0x13
 1763 0251 9642     		.uleb128 0x2116
 1764 0253 19       		.uleb128 0x19
ARM GAS  /tmp/ccEdf2vV.s 			page 32


 1765 0254 00       		.byte	0
 1766 0255 00       		.byte	0
 1767 0256 00       		.byte	0
 1768              		.section	.debug_aranges,"",%progbits
 1769 0000 2C000000 		.4byte	0x2c
 1770 0004 0200     		.2byte	0x2
 1771 0006 00000000 		.4byte	.Ldebug_info0
 1772 000a 04       		.byte	0x4
 1773 000b 00       		.byte	0
 1774 000c 0000     		.2byte	0
 1775 000e 0000     		.2byte	0
 1776 0010 00000000 		.4byte	.Ltext0
 1777 0014 20000000 		.4byte	.Letext0-.Ltext0
 1778 0018 00000000 		.4byte	.LFB6
 1779 001c 0C000000 		.4byte	.LFE6-.LFB6
 1780 0020 00000000 		.4byte	.LFB117
 1781 0024 54000000 		.4byte	.LFE117-.LFB117
 1782 0028 00000000 		.4byte	0
 1783 002c 00000000 		.4byte	0
 1784              		.section	.debug_ranges,"",%progbits
 1785              	.Ldebug_ranges0:
 1786 0000 00000000 		.4byte	.Ltext0
 1787 0004 20000000 		.4byte	.Letext0
 1788 0008 00000000 		.4byte	.LFB6
 1789 000c 0C000000 		.4byte	.LFE6
 1790 0010 00000000 		.4byte	.LFB117
 1791 0014 54000000 		.4byte	.LFE117
 1792 0018 00000000 		.4byte	0
 1793 001c 00000000 		.4byte	0
 1794              		.section	.debug_line,"",%progbits
 1795              	.Ldebug_line0:
 1796 0000 86020000 		.section	.debug_str,"MS",%progbits,1
 1796      02003A02 
 1796      00000201 
 1796      FB0E0D00 
 1796      01010101 
 1797              	.LASF80:
 1798 0000 5F5A4E4B 		.ascii	"_ZNK3r2p10ArrayQueueINS_22TimestampedMsgPtrQueue5En"
 1798      33723270 
 1798      31304172 
 1798      72617951 
 1798      75657565 
 1799 0033 74727945 		.ascii	"tryEE9get_countEv\000"
 1799      45396765 
 1799      745F636F 
 1799      756E7445 
 1799      7600
 1800              	.LASF18:
 1801 0045 7E556E63 		.ascii	"~Uncopyable\000"
 1801      6F707961 
 1801      626C6500 
 1802              	.LASF51:
 1803 0051 6D736770 		.ascii	"msgp\000"
 1803      00
 1804              	.LASF52:
 1805 0056 74696D65 		.ascii	"timestamp\000"
 1805      7374616D 
ARM GAS  /tmp/ccEdf2vV.s 			page 33


 1805      7000
 1806              	.LASF45:
 1807 0060 5F5A4E33 		.ascii	"_ZN3r2p4Time2usEl\000"
 1807      72327034 
 1807      54696D65 
 1807      32757345 
 1807      6C00
 1808              	.LASF70:
 1809 0072 61727261 		.ascii	"arrayp\000"
 1809      797000
 1810              	.LASF87:
 1811 0079 626F6F6C 		.ascii	"bool\000"
 1811      00
 1812              	.LASF1:
 1813 007e 7369676E 		.ascii	"signed char\000"
 1813      65642063 
 1813      68617200 
 1814              	.LASF83:
 1815 008a 736B6970 		.ascii	"skip\000"
 1815      00
 1816              	.LASF55:
 1817 008f 6765745F 		.ascii	"get_count_unsafe\000"
 1817      636F756E 
 1817      745F756E 
 1817      73616665 
 1817      00
 1818              	.LASF85:
 1819 00a0 41727261 		.ascii	"ArrayQueue\000"
 1819      79517565 
 1819      756500
 1820              	.LASF31:
 1821 00ab 746F5F75 		.ascii	"to_us\000"
 1821      7300
 1822              	.LASF75:
 1823 00b1 5F5A4E33 		.ascii	"_ZN3r2p10ArrayQueueINS_22TimestampedMsgPtrQueue5Ent"
 1823      72327031 
 1823      30417272 
 1823      61795175 
 1823      65756549 
 1824 00e4 72794545 		.ascii	"ryEE11post_unsafeES2_\000"
 1824      3131706F 
 1824      73745F75 
 1824      6E736166 
 1824      65455332 
 1825              	.LASF5:
 1826 00fa 73697A65 		.ascii	"size_t\000"
 1826      5F7400
 1827              	.LASF11:
 1828 0101 73697A65 		.ascii	"sizetype\000"
 1828      74797065 
 1828      00
 1829              	.LASF54:
 1830 010a 696D706C 		.ascii	"impl\000"
 1830      00
 1831              	.LASF32:
 1832 010f 5F5A4E4B 		.ascii	"_ZNK3r2p4Time5to_usEv\000"
 1832      33723270 
ARM GAS  /tmp/ccEdf2vV.s 			page 34


 1832      3454696D 
 1832      6535746F 
 1832      5F757345 
 1833              	.LASF64:
 1834 0125 5F5A4E4B 		.ascii	"_ZNK3r2p22TimestampedMsgPtrQueue9get_countEv\000"
 1834      33723270 
 1834      32325469 
 1834      6D657374 
 1834      616D7065 
 1835              	.LASF21:
 1836 0152 494E4649 		.ascii	"INFINITE\000"
 1836      4E495445 
 1836      00
 1837              	.LASF37:
 1838 015b 746F5F6D 		.ascii	"to_m\000"
 1838      00
 1839              	.LASF34:
 1840 0160 5F5A4E4B 		.ascii	"_ZNK3r2p4Time5to_msEv\000"
 1840      33723270 
 1840      3454696D 
 1840      6535746F 
 1840      5F6D7345 
 1841              	.LASF93:
 1842 0176 474E5520 		.ascii	"GNU C++ 4.9.3 20141119 (release) [ARM/embedded-4_9-"
 1842      432B2B20 
 1842      342E392E 
 1842      33203230 
 1842      31343131 
 1843 01a9 6272616E 		.ascii	"branch revision 218278] -mcpu=cortex-m4 -mno-thumb-"
 1843      63682072 
 1843      65766973 
 1843      696F6E20 
 1843      32313832 
 1844 01dc 696E7465 		.ascii	"interwork -mthumb -ggdb -O0 -fomit-frame-pointer -f"
 1844      72776F72 
 1844      6B202D6D 
 1844      7468756D 
 1844      62202D67 
 1845 020f 6E6F2D72 		.ascii	"no-rtti -fno-exceptions -fno-threadsafe-statics\000"
 1845      74746920 
 1845      2D666E6F 
 1845      2D657863 
 1845      65707469 
 1846              	.LASF14:
 1847 023f 73747265 		.ascii	"strerror\000"
 1847      72726F72 
 1847      00
 1848              	.LASF35:
 1849 0248 746F5F73 		.ascii	"to_s\000"
 1849      00
 1850              	.LASF42:
 1851 024d 5F5A4E33 		.ascii	"_ZN3r2p4TimepLERKS0_\000"
 1851      72327034 
 1851      54696D65 
 1851      704C4552 
 1851      4B53305F 
 1852              	.LASF48:
ARM GAS  /tmp/ccEdf2vV.s 			page 35


 1853 0262 5F5A4E33 		.ascii	"_ZN3r2p4Time1mEl\000"
 1853      72327034 
 1853      54696D65 
 1853      316D456C 
 1853      00
 1854              	.LASF43:
 1855 0273 6F706572 		.ascii	"operator-=\000"
 1855      61746F72 
 1855      2D3D00
 1856              	.LASF25:
 1857 027e 5F5A4E4B 		.ascii	"_ZNK3r2p4Time9to_us_rawEv\000"
 1857      33723270 
 1857      3454696D 
 1857      6539746F 
 1857      5F75735F 
 1858              	.LASF17:
 1859 0298 556E636F 		.ascii	"Uncopyable\000"
 1859      70796162 
 1859      6C6500
 1860              	.LASF36:
 1861 02a3 5F5A4E4B 		.ascii	"_ZNK3r2p4Time4to_sEv\000"
 1861      33723270 
 1861      3454696D 
 1861      6534746F 
 1861      5F734576 
 1862              	.LASF61:
 1863 02b8 6765745F 		.ascii	"get_length\000"
 1863      6C656E67 
 1863      746800
 1864              	.LASF3:
 1865 02c3 73686F72 		.ascii	"short int\000"
 1865      7420696E 
 1865      7400
 1866              	.LASF22:
 1867 02cd 494E4649 		.ascii	"INFINITEN\000"
 1867      4E495445 
 1867      4E00
 1868              	.LASF9:
 1869 02d7 6C6F6E67 		.ascii	"long long int\000"
 1869      206C6F6E 
 1869      6720696E 
 1869      7400
 1870              	.LASF29:
 1871 02e5 746F5F6D 		.ascii	"to_m_raw\000"
 1871      5F726177 
 1871      00
 1872              	.LASF60:
 1873 02ee 5F5A4E33 		.ascii	"_ZN3r2p22TimestampedMsgPtrQueue12fetch_unsafeERNS0_"
 1873      72327032 
 1873      3254696D 
 1873      65737461 
 1873      6D706564 
 1874 0321 35456E74 		.ascii	"5EntryE\000"
 1874      72794500 
 1875              	.LASF76:
 1876 0329 5F5A4E33 		.ascii	"_ZN3r2p10ArrayQueueINS_22TimestampedMsgPtrQueue5Ent"
 1876      72327031 
ARM GAS  /tmp/ccEdf2vV.s 			page 36


 1876      30417272 
 1876      61795175 
 1876      65756549 
 1877 035c 72794545 		.ascii	"ryEE12fetch_unsafeERS2_\000"
 1877      31326665 
 1877      7463685F 
 1877      756E7361 
 1877      66654552 
 1878              	.LASF40:
 1879 0374 5F5A4E33 		.ascii	"_ZN3r2p4TimeaSERKS0_\000"
 1879      72327034 
 1879      54696D65 
 1879      61534552 
 1879      4B53305F 
 1880              	.LASF95:
 1881 0389 2F686F6D 		.ascii	"/home/tino/workspace/openrobots/Middleware_v2-new/\000"
 1881      652F7469 
 1881      6E6F2F77 
 1881      6F726B73 
 1881      70616365 
 1882              	.LASF15:
 1883 03bc 73747274 		.ascii	"strtok\000"
 1883      6F6B00
 1884              	.LASF67:
 1885 03c3 66657463 		.ascii	"fetch\000"
 1885      6800
 1886              	.LASF91:
 1887 03c9 5F5A4E33 		.ascii	"_ZN3r2p10UncopyableC2Ev\000"
 1887      72327031 
 1887      30556E63 
 1887      6F707961 
 1887      626C6543 
 1888              	.LASF59:
 1889 03e1 66657463 		.ascii	"fetch_unsafe\000"
 1889      685F756E 
 1889      73616665 
 1889      00
 1890              	.LASF26:
 1891 03ee 5F5A4E4B 		.ascii	"_ZNK3r2p4Time9to_ms_rawEv\000"
 1891      33723270 
 1891      3454696D 
 1891      6539746F 
 1891      5F6D735F 
 1892              	.LASF2:
 1893 0408 756E7369 		.ascii	"unsigned char\000"
 1893      676E6564 
 1893      20636861 
 1893      7200
 1894              	.LASF19:
 1895 0416 54696D65 		.ascii	"Time\000"
 1895      00
 1896              	.LASF30:
 1897 041b 5F5A4E4B 		.ascii	"_ZNK3r2p4Time8to_m_rawEv\000"
 1897      33723270 
 1897      3454696D 
 1897      6538746F 
 1897      5F6D5F72 
ARM GAS  /tmp/ccEdf2vV.s 			page 37


 1898              	.LASF71:
 1899 0434 6C656E67 		.ascii	"length\000"
 1899      746800
 1900              	.LASF50:
 1901 043b 54696D65 		.ascii	"TimestampedMsgPtrQueue\000"
 1901      7374616D 
 1901      7065644D 
 1901      73675074 
 1901      72517565 
 1902              	.LASF74:
 1903 0452 7461696C 		.ascii	"tailp\000"
 1903      7000
 1904              	.LASF65:
 1905 0458 706F7374 		.ascii	"post\000"
 1905      00
 1906              	.LASF39:
 1907 045d 6F706572 		.ascii	"operator=\000"
 1907      61746F72 
 1907      3D00
 1908              	.LASF10:
 1909 0467 6C6F6E67 		.ascii	"long long unsigned int\000"
 1909      206C6F6E 
 1909      6720756E 
 1909      7369676E 
 1909      65642069 
 1910              	.LASF47:
 1911 047e 5F5A4E33 		.ascii	"_ZN3r2p4Time1sEl\000"
 1911      72327034 
 1911      54696D65 
 1911      3173456C 
 1911      00
 1912              	.LASF0:
 1913 048f 756E7369 		.ascii	"unsigned int\000"
 1913      676E6564 
 1913      20696E74 
 1913      00
 1914              	.LASF33:
 1915 049c 746F5F6D 		.ascii	"to_ms\000"
 1915      7300
 1916              	.LASF100:
 1917 04a2 4974656D 		.ascii	"Item\000"
 1917      00
 1918              	.LASF44:
 1919 04a7 5F5A4E33 		.ascii	"_ZN3r2p4TimemIERKS0_\000"
 1919      72327034 
 1919      54696D65 
 1919      6D494552 
 1919      4B53305F 
 1920              	.LASF78:
 1921 04bc 5F5A4E33 		.ascii	"_ZN3r2p10ArrayQueueINS_22TimestampedMsgPtrQueue5Ent"
 1921      72327031 
 1921      30417272 
 1921      61795175 
 1921      65756549 
 1922 04ef 72794545 		.ascii	"ryEE11skip_unsafeEv\000"
 1922      3131736B 
 1922      69705F75 
ARM GAS  /tmp/ccEdf2vV.s 			page 38


 1922      6E736166 
 1922      65457600 
 1923              	.LASF94:
 1924 0503 2F6F7074 		.ascii	"/opt/R2P/core/Middleware/src/TimestampedMsgPtrQueue"
 1924      2F523250 
 1924      2F636F72 
 1924      652F4D69 
 1924      64646C65 
 1925 0536 2E637070 		.ascii	".cpp\000"
 1925      00
 1926              	.LASF73:
 1927 053b 68656164 		.ascii	"headp\000"
 1927      7000
 1928              	.LASF98:
 1929 0541 5F5A4E33 		.ascii	"_ZN3r2p22TimestampedMsgPtrQueue5EntryaSERKS1_\000"
 1929      72327032 
 1929      3254696D 
 1929      65737461 
 1929      6D706564 
 1930              	.LASF27:
 1931 056f 746F5F73 		.ascii	"to_s_raw\000"
 1931      5F726177 
 1931      00
 1932              	.LASF7:
 1933 0578 6C6F6E67 		.ascii	"long int\000"
 1933      20696E74 
 1933      00
 1934              	.LASF86:
 1935 0581 696E7433 		.ascii	"int32_t\000"
 1935      325F7400 
 1936              	.LASF13:
 1937 0589 73747263 		.ascii	"strcoll\000"
 1937      6F6C6C00 
 1938              	.LASF4:
 1939 0591 73686F72 		.ascii	"short unsigned int\000"
 1939      7420756E 
 1939      7369676E 
 1939      65642069 
 1939      6E7400
 1940              	.LASF53:
 1941 05a4 456E7472 		.ascii	"Entry\000"
 1941      7900
 1942              	.LASF89:
 1943 05aa 74686973 		.ascii	"this\000"
 1943      00
 1944              	.LASF69:
 1945 05af 41727261 		.ascii	"ArrayQueue<r2p::TimestampedMsgPtrQueue::Entry>\000"
 1945      79517565 
 1945      75653C72 
 1945      32703A3A 
 1945      54696D65 
 1946              	.LASF41:
 1947 05de 6F706572 		.ascii	"operator+=\000"
 1947      61746F72 
 1947      2B3D00
 1948              	.LASF58:
 1949 05e9 5F5A4E33 		.ascii	"_ZN3r2p22TimestampedMsgPtrQueue11post_unsafeERNS0_5"
ARM GAS  /tmp/ccEdf2vV.s 			page 39


 1949      72327032 
 1949      3254696D 
 1949      65737461 
 1949      6D706564 
 1950 061c 456E7472 		.ascii	"EntryE\000"
 1950      794500
 1951              	.LASF28:
 1952 0623 5F5A4E4B 		.ascii	"_ZNK3r2p4Time8to_s_rawEv\000"
 1952      33723270 
 1952      3454696D 
 1952      6538746F 
 1952      5F735F72 
 1953              	.LASF68:
 1954 063c 5F5A4E33 		.ascii	"_ZN3r2p22TimestampedMsgPtrQueue5fetchERNS0_5EntryE\000"
 1954      72327032 
 1954      3254696D 
 1954      65737461 
 1954      6D706564 
 1955              	.LASF79:
 1956 066f 5F5A4E4B 		.ascii	"_ZNK3r2p10ArrayQueueINS_22TimestampedMsgPtrQueue5En"
 1956      33723270 
 1956      31304172 
 1956      72617951 
 1956      75657565 
 1957 06a2 74727945 		.ascii	"tryEE10get_lengthEv\000"
 1957      45313067 
 1957      65745F6C 
 1957      656E6774 
 1957      68457600 
 1958              	.LASF96:
 1959 06b6 54797065 		.ascii	"Type\000"
 1959      00
 1960              	.LASF92:
 1961 06bb 5F5A4E33 		.ascii	"_ZN3r2p22TimestampedMsgPtrQueueC2EPNS0_5EntryEj\000"
 1961      72327032 
 1961      3254696D 
 1961      65737461 
 1961      6D706564 
 1962              	.LASF16:
 1963 06eb 73747278 		.ascii	"strxfrm\000"
 1963      66726D00 
 1964              	.LASF8:
 1965 06f3 6C6F6E67 		.ascii	"long unsigned int\000"
 1965      20756E73 
 1965      69676E65 
 1965      6420696E 
 1965      7400
 1966              	.LASF88:
 1967 0705 646F7562 		.ascii	"double\000"
 1967      6C6500
 1968              	.LASF62:
 1969 070c 5F5A4E4B 		.ascii	"_ZNK3r2p22TimestampedMsgPtrQueue10get_lengthEv\000"
 1969      33723270 
 1969      32325469 
 1969      6D657374 
 1969      616D7065 
 1970              	.LASF81:
ARM GAS  /tmp/ccEdf2vV.s 			page 40


 1971 073b 5F5A4E33 		.ascii	"_ZN3r2p10ArrayQueueINS_22TimestampedMsgPtrQueue5Ent"
 1971      72327031 
 1971      30417272 
 1971      61795175 
 1971      65756549 
 1972 076e 72794545 		.ascii	"ryEE4postES2_\000"
 1972      34706F73 
 1972      74455332 
 1972      5F00
 1973              	.LASF90:
 1974 077c 61727261 		.ascii	"array\000"
 1974      7900
 1975              	.LASF12:
 1976 0782 63686172 		.ascii	"char\000"
 1976      00
 1977              	.LASF23:
 1978 0787 746F5F75 		.ascii	"to_us_raw\000"
 1978      735F7261 
 1978      7700
 1979              	.LASF82:
 1980 0791 5F5A4E33 		.ascii	"_ZN3r2p10ArrayQueueINS_22TimestampedMsgPtrQueue5Ent"
 1980      72327031 
 1980      30417272 
 1980      61795175 
 1980      65756549 
 1981 07c4 72794545 		.ascii	"ryEE5fetchERS2_\000"
 1981      35666574 
 1981      63684552 
 1981      53325F00 
 1982              	.LASF77:
 1983 07d4 736B6970 		.ascii	"skip_unsafe\000"
 1983      5F756E73 
 1983      61666500 
 1984              	.LASF72:
 1985 07e0 636F756E 		.ascii	"count\000"
 1985      7400
 1986              	.LASF49:
 1987 07e6 5F5A4E33 		.ascii	"_ZN3r2p4Time2hzEd\000"
 1987      72327034 
 1987      54696D65 
 1987      32687A45 
 1987      6400
 1988              	.LASF6:
 1989 07f8 5F5F696E 		.ascii	"__int32_t\000"
 1989      7433325F 
 1989      7400
 1990              	.LASF63:
 1991 0802 6765745F 		.ascii	"get_count\000"
 1991      636F756E 
 1991      7400
 1992              	.LASF24:
 1993 080c 746F5F6D 		.ascii	"to_ms_raw\000"
 1993      735F7261 
 1993      7700
 1994              	.LASF56:
 1995 0816 5F5A4E4B 		.ascii	"_ZNK3r2p22TimestampedMsgPtrQueue16get_count_unsafeE"
 1995      33723270 
ARM GAS  /tmp/ccEdf2vV.s 			page 41


 1995      32325469 
 1995      6D657374 
 1995      616D7065 
 1996 0849 7600     		.ascii	"v\000"
 1997              	.LASF66:
 1998 084b 5F5A4E33 		.ascii	"_ZN3r2p22TimestampedMsgPtrQueue4postERNS0_5EntryE\000"
 1998      72327032 
 1998      3254696D 
 1998      65737461 
 1998      6D706564 
 1999              	.LASF99:
 2000 087d 4D657373 		.ascii	"Message\000"
 2000      61676500 
 2001              	.LASF57:
 2002 0885 706F7374 		.ascii	"post_unsafe\000"
 2002      5F756E73 
 2002      61666500 
 2003              	.LASF101:
 2004 0891 5F5A4E33 		.ascii	"_ZN3r2p10ArrayQueueINS_22TimestampedMsgPtrQueue5Ent"
 2004      72327031 
 2004      30417272 
 2004      61795175 
 2004      65756549 
 2005 08c4 72794545 		.ascii	"ryEEC2EPS2_j\000"
 2005      43324550 
 2005      53325F6A 
 2005      00
 2006              	.LASF84:
 2007 08d1 5F5A4E33 		.ascii	"_ZN3r2p10ArrayQueueINS_22TimestampedMsgPtrQueue5Ent"
 2007      72327031 
 2007      30417272 
 2007      61795175 
 2007      65756549 
 2008 0904 72794545 		.ascii	"ryEE4skipEv\000"
 2008      34736B69 
 2008      70457600 
 2009              	.LASF20:
 2010 0910 494D4D45 		.ascii	"IMMEDIATE\000"
 2010      44494154 
 2010      4500
 2011              	.LASF46:
 2012 091a 5F5A4E33 		.ascii	"_ZN3r2p4Time2msEl\000"
 2012      72327034 
 2012      54696D65 
 2012      326D7345 
 2012      6C00
 2013              	.LASF97:
 2014 092c 5F5A4E33 		.ascii	"_ZN3r2p4Time3nowEv\000"
 2014      72327034 
 2014      54696D65 
 2014      336E6F77 
 2014      457600
 2015              	.LASF38:
 2016 093f 5F5A4E4B 		.ascii	"_ZNK3r2p4Time4to_mEv\000"
 2016      33723270 
 2016      3454696D 
 2016      6534746F 
ARM GAS  /tmp/ccEdf2vV.s 			page 42


 2016      5F6D4576 
 2017              		.ident	"GCC: (GNU Tools for ARM Embedded Processors) 4.9.3 20141119 (release) [ARM/embedded-4_9-br
ARM GAS  /tmp/ccEdf2vV.s 			page 43


DEFINED SYMBOLS
                            *ABS*:00000000 TimestampedMsgPtrQueue.cpp
     /tmp/ccEdf2vV.s:19     .text._ZN3r2p10UncopyableC2Ev:00000000 $t
     /tmp/ccEdf2vV.s:24     .text._ZN3r2p10UncopyableC2Ev:00000000 _ZN3r2p10UncopyableC2Ev
     /tmp/ccEdf2vV.s:24     .text._ZN3r2p10UncopyableC2Ev:00000000 _ZN3r2p10UncopyableC1Ev
     /tmp/ccEdf2vV.s:48     .text:00000000 $t
     /tmp/ccEdf2vV.s:53     .text:00000000 _ZN3r2p22TimestampedMsgPtrQueueC2EPNS0_5EntryEj
     /tmp/ccEdf2vV.s:98     .text._ZN3r2p10ArrayQueueINS_22TimestampedMsgPtrQueue5EntryEEC2EPS2_j:00000000 _ZN3r2p10ArrayQueueINS_22TimestampedMsgPtrQueue5EntryEEC1EPS2_j
     /tmp/ccEdf2vV.s:53     .text:00000000 _ZN3r2p22TimestampedMsgPtrQueueC1EPNS0_5EntryEj
     /tmp/ccEdf2vV.s:89     .rodata:00000000 $d
     /tmp/ccEdf2vV.s:93     .text._ZN3r2p10ArrayQueueINS_22TimestampedMsgPtrQueue5EntryEEC2EPS2_j:00000000 $t
     /tmp/ccEdf2vV.s:98     .text._ZN3r2p10ArrayQueueINS_22TimestampedMsgPtrQueue5EntryEEC2EPS2_j:00000000 _ZN3r2p10ArrayQueueINS_22TimestampedMsgPtrQueue5EntryEEC2EPS2_j
     /tmp/ccEdf2vV.s:159    .text._ZN3r2p10ArrayQueueINS_22TimestampedMsgPtrQueue5EntryEEC2EPS2_j:00000050 $d
                     .debug_frame:00000010 $d
                           .group:00000000 _ZN3r2p10UncopyableC5Ev
                           .group:00000000 _ZN3r2p10ArrayQueueINS_22TimestampedMsgPtrQueue5EntryEEC5EPS2_j

UNDEFINED SYMBOLS
chDbgPanic
