ARM GAS  /tmp/cc4N8URp.s 			page 1


   1              		.syntax unified
   2              		.cpu cortex-m4
   3              		.fpu softvfp
   4              		.eabi_attribute 20, 1
   5              		.eabi_attribute 21, 1
   6              		.eabi_attribute 23, 3
   7              		.eabi_attribute 24, 1
   8              		.eabi_attribute 25, 1
   9              		.eabi_attribute 26, 1
  10              		.eabi_attribute 30, 6
  11              		.eabi_attribute 34, 1
  12              		.eabi_attribute 18, 4
  13              		.thumb
  14              		.file	"Time_.cpp"
  15              		.text
  16              	.Ltext0:
  17              		.cfi_sections	.debug_frame
  18              		.section	.text._ZN3r2p4Time2msEl,"axG",%progbits,_ZN3r2p4Time2msEl,comdat
  19              		.align	2
  20              		.weak	_ZN3r2p4Time2msEl
  21              		.thumb
  22              		.thumb_func
  23              		.type	_ZN3r2p4Time2msEl, %function
  24              	_ZN3r2p4Time2msEl:
  25              	.LFB58:
  26              		.file 1 "/opt/R2P/core/Middleware/include/r2p/Time.hpp"
  27              		.loc 1 184 0
  28              		.cfi_startproc
  29              		@ args = 0, pretend = 0, frame = 8
  30              		@ frame_needed = 0, uses_anonymous_args = 0
  31 0000 00B5     		push	{lr}
  32              		.cfi_def_cfa_offset 4
  33              		.cfi_offset 14, -4
  34 0002 83B0     		sub	sp, sp, #12
  35              		.cfi_def_cfa_offset 16
  36 0004 0190     		str	r0, [sp, #4]
  37 0006 0091     		str	r1, [sp]
  38              		.loc 1 186 0
  39 0008 009B     		ldr	r3, [sp]
  40 000a 4FF47A72 		mov	r2, #1000
  41 000e 02FB03F3 		mul	r3, r2, r3
  42 0012 0198     		ldr	r0, [sp, #4]
  43 0014 1946     		mov	r1, r3
  44 0016 FFF7FEFF 		bl	_ZN3r2p4TimeC1IlEET_
  45              		.loc 1 187 0
  46 001a 0198     		ldr	r0, [sp, #4]
  47 001c 03B0     		add	sp, sp, #12
  48              		.cfi_def_cfa_offset 4
  49              		@ sp needed
  50 001e 5DF804FB 		ldr	pc, [sp], #4
  51              		.cfi_endproc
  52              	.LFE58:
  53              		.size	_ZN3r2p4Time2msEl, .-_ZN3r2p4Time2msEl
  54 0022 00BF     		.text
  55              		.align	2
  56              		.global	_ZN3r2p4Time3nowEv
  57              		.thumb
ARM GAS  /tmp/cc4N8URp.s 			page 2


  58              		.thumb_func
  59              		.type	_ZN3r2p4Time3nowEv, %function
  60              	_ZN3r2p4Time3nowEv:
  61              	.LFB70:
  62              		.file 2 "/opt/R2P/core/Middleware/port/chibios/src/impl/Time_.cpp"
  63              		.loc 2 8 0
  64              		.cfi_startproc
  65              		@ args = 0, pretend = 0, frame = 8
  66              		@ frame_needed = 0, uses_anonymous_args = 0
  67 0000 10B5     		push	{r4, lr}
  68              		.cfi_def_cfa_offset 8
  69              		.cfi_offset 4, -8
  70              		.cfi_offset 14, -4
  71 0002 82B0     		sub	sp, sp, #8
  72              		.cfi_def_cfa_offset 16
  73 0004 0190     		str	r0, [sp, #4]
  74              	.LBB2:
  75              		.loc 2 10 0
  76 0006 0C4B     		ldr	r3, .L9
  77 0008 DB68     		ldr	r3, [r3, #12]
  78 000a 1C46     		mov	r4, r3
  79              		.loc 2 11 0
  80 000c 0B4B     		ldr	r3, .L9+4
  81 000e 1B68     		ldr	r3, [r3]
  82              		.loc 2 12 0
  83 0010 A342     		cmp	r3, r4
  84 0012 01D1     		bne	.L4
  85              		.loc 2 12 0 is_stmt 0 discriminator 1
  86 0014 631C     		adds	r3, r4, #1
  87 0016 06E0     		b	.L5
  88              	.L4:
  89              		.loc 2 12 0 discriminator 2
  90 0018 094B     		ldr	r3, .L9+8
  91 001a 1B68     		ldr	r3, [r3]
  92 001c A342     		cmp	r3, r4
  93 001e 01D1     		bne	.L6
  94              		.loc 2 12 0 discriminator 4
  95 0020 631E     		subs	r3, r4, #1
  96 0022 00E0     		b	.L5
  97              	.L6:
  98              		.loc 2 12 0 discriminator 5
  99 0024 2346     		mov	r3, r4
 100              	.L5:
 101              		.loc 2 12 0 discriminator 8
 102 0026 019A     		ldr	r2, [sp, #4]
 103 0028 1046     		mov	r0, r2
 104 002a 1946     		mov	r1, r3
 105 002c FFF7FEFF 		bl	_ZN3r2p4Time2msEl
 106              	.LBE2:
 107              		.loc 2 13 0 is_stmt 1 discriminator 8
 108 0030 0198     		ldr	r0, [sp, #4]
 109 0032 02B0     		add	sp, sp, #8
 110              		.cfi_def_cfa_offset 8
 111              		@ sp needed
 112 0034 10BD     		pop	{r4, pc}
 113              	.L10:
 114 0036 00BF     		.align	2
ARM GAS  /tmp/cc4N8URp.s 			page 3


 115              	.L9:
 116 0038 00000000 		.word	vtlist
 117 003c 00000000 		.word	_ZN3r2p4Time9INFINITENE
 118 0040 00000000 		.word	_ZN3r2p4Time8INFINITEE
 119              		.cfi_endproc
 120              	.LFE70:
 121              		.size	_ZN3r2p4Time3nowEv, .-_ZN3r2p4Time3nowEv
 122              		.section	.text._ZN3r2p4TimeC2IlEET_,"axG",%progbits,_ZN3r2p4TimeC5IlEET_,comdat
 123              		.align	2
 124              		.weak	_ZN3r2p4TimeC2IlEET_
 125              		.thumb
 126              		.thumb_func
 127              		.type	_ZN3r2p4TimeC2IlEET_, %function
 128              	_ZN3r2p4TimeC2IlEET_:
 129              	.LFB72:
 130              		.loc 1 159 0
 131              		.cfi_startproc
 132              		@ args = 0, pretend = 0, frame = 8
 133              		@ frame_needed = 0, uses_anonymous_args = 0
 134              		@ link register save eliminated.
 135 0000 82B0     		sub	sp, sp, #8
 136              		.cfi_def_cfa_offset 8
 137 0002 0190     		str	r0, [sp, #4]
 138 0004 0091     		str	r1, [sp]
 139              	.LBB3:
 140              		.loc 1 161 0
 141 0006 019B     		ldr	r3, [sp, #4]
 142 0008 009A     		ldr	r2, [sp]
 143 000a 1A60     		str	r2, [r3]
 144              	.LBE3:
 145              		.loc 1 162 0
 146 000c 019B     		ldr	r3, [sp, #4]
 147 000e 1846     		mov	r0, r3
 148 0010 02B0     		add	sp, sp, #8
 149              		.cfi_def_cfa_offset 0
 150              		@ sp needed
 151 0012 7047     		bx	lr
 152              		.cfi_endproc
 153              	.LFE72:
 154              		.size	_ZN3r2p4TimeC2IlEET_, .-_ZN3r2p4TimeC2IlEET_
 155              		.weak	_ZN3r2p4TimeC1IlEET_
 156              		.thumb_set _ZN3r2p4TimeC1IlEET_,_ZN3r2p4TimeC2IlEET_
 157              		.text
 158              	.Letext0:
 159              		.file 3 "/opt/R2P/tools/gcc-arm-none-eabi-4_9-2014q4/lib/gcc/arm-none-eabi/4.9.3/include/stddef.h"
 160              		.file 4 "/opt/R2P/tools/gcc-arm-none-eabi-4_9-2014q4/arm-none-eabi/include/machine/_default_types.
 161              		.file 5 "/opt/R2P/tools/gcc-arm-none-eabi-4_9-2014q4/arm-none-eabi/include/c++/4.9.3/cstring"
 162              		.file 6 "/opt/R2P/tools/gcc-arm-none-eabi-4_9-2014q4/arm-none-eabi/include/string.h"
 163              		.file 7 "<built-in>"
 164              		.file 8 "/opt/R2P/core/Middleware/include/r2p/Uncopyable.hpp"
 165              		.file 9 "/opt/R2P/tools/gcc-arm-none-eabi-4_9-2014q4/arm-none-eabi/include/stdint.h"
 166              		.file 10 "/opt/R2P/core/ChibiOS_2.6.5/os/ports/GCC/ARMCMx/chtypes.h"
 167              		.file 11 "/opt/R2P/core/ChibiOS_2.6.5/os/kernel/include/chvt.h"
 168              		.section	.debug_info,"",%progbits
 169              	.Ldebug_info0:
 170 0000 C3050000 		.4byte	0x5c3
 171 0004 0400     		.2byte	0x4
ARM GAS  /tmp/cc4N8URp.s 			page 4


 172 0006 00000000 		.4byte	.Ldebug_abbrev0
 173 000a 04       		.byte	0x4
 174 000b 01       		.uleb128 0x1
 175 000c DB000000 		.4byte	.LASF63
 176 0010 04       		.byte	0x4
 177 0011 37000000 		.4byte	.LASF64
 178 0015 70000000 		.4byte	.LASF65
 179 0019 00000000 		.4byte	.Ldebug_ranges0+0
 180 001d 00000000 		.4byte	0
 181 0021 00000000 		.4byte	.Ldebug_line0
 182 0025 02       		.uleb128 0x2
 183 0026 04       		.byte	0x4
 184 0027 05       		.byte	0x5
 185 0028 696E7400 		.ascii	"int\000"
 186 002c 03       		.uleb128 0x3
 187 002d 27000000 		.4byte	.LASF5
 188 0031 03       		.byte	0x3
 189 0032 D4       		.byte	0xd4
 190 0033 37000000 		.4byte	0x37
 191 0037 04       		.uleb128 0x4
 192 0038 04       		.byte	0x4
 193 0039 07       		.byte	0x7
 194 003a 0E030000 		.4byte	.LASF0
 195 003e 04       		.uleb128 0x4
 196 003f 01       		.byte	0x1
 197 0040 06       		.byte	0x6
 198 0041 33020000 		.4byte	.LASF1
 199 0045 04       		.uleb128 0x4
 200 0046 01       		.byte	0x1
 201 0047 08       		.byte	0x8
 202 0048 CE020000 		.4byte	.LASF2
 203 004c 04       		.uleb128 0x4
 204 004d 02       		.byte	0x2
 205 004e 05       		.byte	0x5
 206 004f 1D000000 		.4byte	.LASF3
 207 0053 04       		.uleb128 0x4
 208 0054 02       		.byte	0x2
 209 0055 07       		.byte	0x7
 210 0056 3E030000 		.4byte	.LASF4
 211 005a 03       		.uleb128 0x3
 212 005b FA030000 		.4byte	.LASF6
 213 005f 04       		.byte	0x4
 214 0060 3F       		.byte	0x3f
 215 0061 65000000 		.4byte	0x65
 216 0065 04       		.uleb128 0x4
 217 0066 04       		.byte	0x4
 218 0067 05       		.byte	0x5
 219 0068 71030000 		.4byte	.LASF7
 220 006c 03       		.uleb128 0x3
 221 006d A3000000 		.4byte	.LASF8
 222 0071 04       		.byte	0x4
 223 0072 41       		.byte	0x41
 224 0073 77000000 		.4byte	0x77
 225 0077 04       		.uleb128 0x4
 226 0078 04       		.byte	0x4
 227 0079 07       		.byte	0x7
 228 007a C0030000 		.4byte	.LASF9
ARM GAS  /tmp/cc4N8URp.s 			page 5


 229 007e 04       		.uleb128 0x4
 230 007f 08       		.byte	0x8
 231 0080 05       		.byte	0x5
 232 0081 56020000 		.4byte	.LASF10
 233 0085 04       		.uleb128 0x4
 234 0086 08       		.byte	0x8
 235 0087 07       		.byte	0x7
 236 0088 E6020000 		.4byte	.LASF11
 237 008c 04       		.uleb128 0x4
 238 008d 04       		.byte	0x4
 239 008e 07       		.byte	0x7
 240 008f 2E000000 		.4byte	.LASF12
 241 0093 05       		.uleb128 0x5
 242 0094 04       		.byte	0x4
 243 0095 06       		.uleb128 0x6
 244 0096 04       		.byte	0x4
 245 0097 9B000000 		.4byte	0x9b
 246 009b 04       		.uleb128 0x4
 247 009c 01       		.byte	0x1
 248 009d 08       		.byte	0x8
 249 009e 6D020000 		.4byte	.LASF13
 250 00a2 06       		.uleb128 0x6
 251 00a3 04       		.byte	0x4
 252 00a4 A8000000 		.4byte	0xa8
 253 00a8 07       		.uleb128 0x7
 254 00a9 9B000000 		.4byte	0x9b
 255 00ad 08       		.uleb128 0x8
 256 00ae 73746400 		.ascii	"std\000"
 257 00b2 07       		.byte	0x7
 258 00b3 00       		.byte	0
 259 00b4 D5000000 		.4byte	0xd5
 260 00b8 09       		.uleb128 0x9
 261 00b9 05       		.byte	0x5
 262 00ba 52       		.byte	0x52
 263 00bb D5000000 		.4byte	0xd5
 264 00bf 09       		.uleb128 0x9
 265 00c0 05       		.byte	0x5
 266 00c1 55       		.byte	0x55
 267 00c2 EF000000 		.4byte	0xef
 268 00c6 09       		.uleb128 0x9
 269 00c7 05       		.byte	0x5
 270 00c8 5B       		.byte	0x5b
 271 00c9 04010000 		.4byte	0x104
 272 00cd 09       		.uleb128 0x9
 273 00ce 05       		.byte	0x5
 274 00cf 5C       		.byte	0x5c
 275 00d0 1E010000 		.4byte	0x11e
 276 00d4 00       		.byte	0
 277 00d5 0A       		.uleb128 0xa
 278 00d6 82030000 		.4byte	.LASF14
 279 00da 06       		.byte	0x6
 280 00db 1D       		.byte	0x1d
 281 00dc 25000000 		.4byte	0x25
 282 00e0 EF000000 		.4byte	0xef
 283 00e4 0B       		.uleb128 0xb
 284 00e5 A2000000 		.4byte	0xa2
 285 00e9 0B       		.uleb128 0xb
ARM GAS  /tmp/cc4N8URp.s 			page 6


 286 00ea A2000000 		.4byte	0xa2
 287 00ee 00       		.byte	0
 288 00ef 0A       		.uleb128 0xa
 289 00f0 A4010000 		.4byte	.LASF15
 290 00f4 06       		.byte	0x6
 291 00f5 20       		.byte	0x20
 292 00f6 95000000 		.4byte	0x95
 293 00fa 04010000 		.4byte	0x104
 294 00fe 0B       		.uleb128 0xb
 295 00ff 25000000 		.4byte	0x25
 296 0103 00       		.byte	0
 297 0104 0A       		.uleb128 0xa
 298 0105 87020000 		.4byte	.LASF16
 299 0109 06       		.byte	0x6
 300 010a 2A       		.byte	0x2a
 301 010b 95000000 		.4byte	0x95
 302 010f 1E010000 		.4byte	0x11e
 303 0113 0B       		.uleb128 0xb
 304 0114 95000000 		.4byte	0x95
 305 0118 0B       		.uleb128 0xb
 306 0119 A2000000 		.4byte	0xa2
 307 011d 00       		.byte	0
 308 011e 0A       		.uleb128 0xa
 309 011f B8030000 		.4byte	.LASF17
 310 0123 06       		.byte	0x6
 311 0124 2C       		.byte	0x2c
 312 0125 2C000000 		.4byte	0x2c
 313 0129 3D010000 		.4byte	0x13d
 314 012d 0B       		.uleb128 0xb
 315 012e 95000000 		.4byte	0x95
 316 0132 0B       		.uleb128 0xb
 317 0133 A2000000 		.4byte	0xa2
 318 0137 0B       		.uleb128 0xb
 319 0138 2C000000 		.4byte	0x2c
 320 013c 00       		.byte	0
 321 013d 08       		.uleb128 0x8
 322 013e 72327000 		.ascii	"r2p\000"
 323 0142 08       		.byte	0x8
 324 0143 03       		.byte	0x3
 325 0144 FB030000 		.4byte	0x3fb
 326 0148 0C       		.uleb128 0xc
 327 0149 D9030000 		.4byte	.LASF43
 328 014d 04       		.byte	0x4
 329 014e 01       		.byte	0x1
 330 014f 08       		.byte	0x8
 331 0150 F5030000 		.4byte	0x3f5
 332 0154 0D       		.uleb128 0xd
 333 0155 B3030000 		.4byte	.LASF66
 334 0159 01       		.byte	0x1
 335 015a 0A       		.byte	0xa
 336 015b FB030000 		.4byte	0x3fb
 337 015f 01       		.byte	0x1
 338 0160 0E       		.uleb128 0xe
 339 0161 72617700 		.ascii	"raw\000"
 340 0165 01       		.byte	0x1
 341 0166 1B       		.byte	0x1b
 342 0167 54010000 		.4byte	0x154
ARM GAS  /tmp/cc4N8URp.s 			page 7


 343 016b 00       		.byte	0
 344 016c 01       		.byte	0x1
 345 016d 0F       		.uleb128 0xf
 346 016e 68040000 		.4byte	.LASF18
 347 0172 01       		.byte	0x1
 348 0173 3B       		.byte	0x3b
 349 0174 F5030000 		.4byte	0x3f5
 350 0178 01       		.byte	0x1
 351 0179 0F       		.uleb128 0xf
 352 017a AE000000 		.4byte	.LASF19
 353 017e 01       		.byte	0x1
 354 017f 3C       		.byte	0x3c
 355 0180 F5030000 		.4byte	0x3f5
 356 0184 01       		.byte	0x1
 357 0185 0F       		.uleb128 0xf
 358 0186 3F020000 		.4byte	.LASF20
 359 018a 01       		.byte	0x1
 360 018b 3D       		.byte	0x3d
 361 018c F5030000 		.4byte	0x3f5
 362 0190 01       		.byte	0x1
 363 0191 10       		.uleb128 0x10
 364 0192 DE030000 		.4byte	.LASF21
 365 0196 01       		.byte	0x1
 366 0197 1E       		.byte	0x1e
 367 0198 EE010000 		.4byte	.LASF23
 368 019c 54010000 		.4byte	0x154
 369 01a0 01       		.byte	0x1
 370 01a1 A9010000 		.4byte	0x1a9
 371 01a5 AF010000 		.4byte	0x1af
 372 01a9 11       		.uleb128 0x11
 373 01aa EC040000 		.4byte	0x4ec
 374 01ae 00       		.byte	0
 375 01af 10       		.uleb128 0x10
 376 01b0 0C040000 		.4byte	.LASF22
 377 01b4 01       		.byte	0x1
 378 01b5 1F       		.byte	0x1f
 379 01b6 8E020000 		.4byte	.LASF24
 380 01ba 54010000 		.4byte	0x154
 381 01be 01       		.byte	0x1
 382 01bf C7010000 		.4byte	0x1c7
 383 01c3 CD010000 		.4byte	0x1cd
 384 01c7 11       		.uleb128 0x11
 385 01c8 EC040000 		.4byte	0x4ec
 386 01cc 00       		.byte	0
 387 01cd 10       		.uleb128 0x10
 388 01ce 5E030000 		.4byte	.LASF25
 389 01d2 01       		.byte	0x1
 390 01d3 20       		.byte	0x20
 391 01d4 9A030000 		.4byte	.LASF26
 392 01d8 54010000 		.4byte	0x154
 393 01dc 01       		.byte	0x1
 394 01dd E5010000 		.4byte	0x1e5
 395 01e1 EB010000 		.4byte	0x1eb
 396 01e5 11       		.uleb128 0x11
 397 01e6 EC040000 		.4byte	0x4ec
 398 01ea 00       		.byte	0
 399 01eb 10       		.uleb128 0x10
ARM GAS  /tmp/cc4N8URp.s 			page 8


 400 01ec 64020000 		.4byte	.LASF27
 401 01f0 01       		.byte	0x1
 402 01f1 21       		.byte	0x21
 403 01f2 A8020000 		.4byte	.LASF28
 404 01f6 54010000 		.4byte	0x154
 405 01fa 01       		.byte	0x1
 406 01fb 03020000 		.4byte	0x203
 407 01ff 09020000 		.4byte	0x209
 408 0203 11       		.uleb128 0x11
 409 0204 EC040000 		.4byte	0x4ec
 410 0208 00       		.byte	0
 411 0209 10       		.uleb128 0x10
 412 020a 17000000 		.4byte	.LASF29
 413 020e 01       		.byte	0x1
 414 020f 23       		.byte	0x23
 415 0210 08020000 		.4byte	.LASF30
 416 0214 F2040000 		.4byte	0x4f2
 417 0218 01       		.byte	0x1
 418 0219 21020000 		.4byte	0x221
 419 021d 27020000 		.4byte	0x227
 420 0221 11       		.uleb128 0x11
 421 0222 EC040000 		.4byte	0x4ec
 422 0226 00       		.byte	0
 423 0227 10       		.uleb128 0x10
 424 0228 1B030000 		.4byte	.LASF31
 425 022c 01       		.byte	0x1
 426 022d 24       		.byte	0x24
 427 022e BE000000 		.4byte	.LASF32
 428 0232 F2040000 		.4byte	0x4f2
 429 0236 01       		.byte	0x1
 430 0237 3F020000 		.4byte	0x23f
 431 023b 45020000 		.4byte	0x245
 432 023f 11       		.uleb128 0x11
 433 0240 EC040000 		.4byte	0x4ec
 434 0244 00       		.byte	0
 435 0245 10       		.uleb128 0x10
 436 0246 AD010000 		.4byte	.LASF33
 437 024a 01       		.byte	0x1
 438 024b 25       		.byte	0x25
 439 024c 1E020000 		.4byte	.LASF34
 440 0250 F2040000 		.4byte	0x4f2
 441 0254 01       		.byte	0x1
 442 0255 5D020000 		.4byte	0x25d
 443 0259 63020000 		.4byte	0x263
 444 025d 11       		.uleb128 0x11
 445 025e EC040000 		.4byte	0x4ec
 446 0262 00       		.byte	0
 447 0263 10       		.uleb128 0x10
 448 0264 63040000 		.4byte	.LASF35
 449 0268 01       		.byte	0x1
 450 0269 26       		.byte	0x26
 451 026a 9F040000 		.4byte	.LASF36
 452 026e F2040000 		.4byte	0x4f2
 453 0272 01       		.byte	0x1
 454 0273 7B020000 		.4byte	0x27b
 455 0277 81020000 		.4byte	0x281
 456 027b 11       		.uleb128 0x11
ARM GAS  /tmp/cc4N8URp.s 			page 9


 457 027c EC040000 		.4byte	0x4ec
 458 0280 00       		.byte	0
 459 0281 10       		.uleb128 0x10
 460 0282 DC020000 		.4byte	.LASF37
 461 0286 01       		.byte	0x1
 462 0287 28       		.byte	0x28
 463 0288 72020000 		.4byte	.LASF38
 464 028c F9040000 		.4byte	0x4f9
 465 0290 01       		.byte	0x1
 466 0291 99020000 		.4byte	0x299
 467 0295 A4020000 		.4byte	0x2a4
 468 0299 11       		.uleb128 0x11
 469 029a FF040000 		.4byte	0x4ff
 470 029e 0B       		.uleb128 0xb
 471 029f 05050000 		.4byte	0x505
 472 02a3 00       		.byte	0
 473 02a4 10       		.uleb128 0x10
 474 02a5 8F030000 		.4byte	.LASF39
 475 02a9 01       		.byte	0x1
 476 02aa 29       		.byte	0x29
 477 02ab B2010000 		.4byte	.LASF40
 478 02af F9040000 		.4byte	0x4f9
 479 02b3 01       		.byte	0x1
 480 02b4 BC020000 		.4byte	0x2bc
 481 02b8 C7020000 		.4byte	0x2c7
 482 02bc 11       		.uleb128 0x11
 483 02bd FF040000 		.4byte	0x4ff
 484 02c1 0B       		.uleb128 0xb
 485 02c2 05050000 		.4byte	0x505
 486 02c6 00       		.byte	0
 487 02c7 10       		.uleb128 0x10
 488 02c8 D8010000 		.4byte	.LASF41
 489 02cc 01       		.byte	0x1
 490 02cd 2A       		.byte	0x2a
 491 02ce 29030000 		.4byte	.LASF42
 492 02d2 F9040000 		.4byte	0x4f9
 493 02d6 01       		.byte	0x1
 494 02d7 DF020000 		.4byte	0x2df
 495 02db EA020000 		.4byte	0x2ea
 496 02df 11       		.uleb128 0x11
 497 02e0 FF040000 		.4byte	0x4ff
 498 02e4 0B       		.uleb128 0xb
 499 02e5 05050000 		.4byte	0x505
 500 02e9 00       		.byte	0
 501 02ea 12       		.uleb128 0x12
 502 02eb D9030000 		.4byte	.LASF43
 503 02ef 01       		.byte	0x1
 504 02f0 2D       		.byte	0x2d
 505 02f1 FF040000 		.4byte	0x4ff
 506 02f5 01       		.byte	0x1
 507 02f6 FE020000 		.4byte	0x2fe
 508 02fa 04030000 		.4byte	0x304
 509 02fe 11       		.uleb128 0x11
 510 02ff FF040000 		.4byte	0x4ff
 511 0303 00       		.byte	0
 512 0304 13       		.uleb128 0x13
 513 0305 D9030000 		.4byte	.LASF43
ARM GAS  /tmp/cc4N8URp.s 			page 10


 514 0309 01       		.byte	0x1
 515 030a 2F       		.byte	0x2f
 516 030b FF040000 		.4byte	0x4ff
 517 030f 01       		.byte	0x1
 518 0310 18030000 		.4byte	0x318
 519 0314 23030000 		.4byte	0x323
 520 0318 11       		.uleb128 0x11
 521 0319 FF040000 		.4byte	0x4ff
 522 031d 0B       		.uleb128 0xb
 523 031e F2040000 		.4byte	0x4f2
 524 0322 00       		.byte	0
 525 0323 12       		.uleb128 0x12
 526 0324 D9030000 		.4byte	.LASF43
 527 0328 01       		.byte	0x1
 528 0329 30       		.byte	0x30
 529 032a FF040000 		.4byte	0x4ff
 530 032e 01       		.byte	0x1
 531 032f 37030000 		.4byte	0x337
 532 0333 42030000 		.4byte	0x342
 533 0337 11       		.uleb128 0x11
 534 0338 FF040000 		.4byte	0x4ff
 535 033c 0B       		.uleb128 0xb
 536 033d 05050000 		.4byte	0x505
 537 0341 00       		.byte	0
 538 0342 14       		.uleb128 0x14
 539 0343 757300   		.ascii	"us\000"
 540 0346 01       		.byte	0x1
 541 0347 33       		.byte	0x33
 542 0348 00000000 		.4byte	.LASF44
 543 034c 48010000 		.4byte	0x148
 544 0350 01       		.byte	0x1
 545 0351 5B030000 		.4byte	0x35b
 546 0355 0B       		.uleb128 0xb
 547 0356 54010000 		.4byte	0x154
 548 035a 00       		.byte	0
 549 035b 14       		.uleb128 0x14
 550 035c 6D7300   		.ascii	"ms\000"
 551 035f 01       		.byte	0x1
 552 0360 34       		.byte	0x34
 553 0361 72040000 		.4byte	.LASF45
 554 0365 48010000 		.4byte	0x148
 555 0369 01       		.byte	0x1
 556 036a 74030000 		.4byte	0x374
 557 036e 0B       		.uleb128 0xb
 558 036f 54010000 		.4byte	0x154
 559 0373 00       		.byte	0
 560 0374 14       		.uleb128 0x14
 561 0375 7300     		.ascii	"s\000"
 562 0377 01       		.byte	0x1
 563 0378 35       		.byte	0x35
 564 0379 2E040000 		.4byte	.LASF46
 565 037d 48010000 		.4byte	0x148
 566 0381 01       		.byte	0x1
 567 0382 8C030000 		.4byte	0x38c
 568 0386 0B       		.uleb128 0xb
 569 0387 54010000 		.4byte	0x154
 570 038b 00       		.byte	0
ARM GAS  /tmp/cc4N8URp.s 			page 11


 571 038c 14       		.uleb128 0x14
 572 038d 6D00     		.ascii	"m\000"
 573 038f 01       		.byte	0x1
 574 0390 36       		.byte	0x36
 575 0391 C7010000 		.4byte	.LASF47
 576 0395 48010000 		.4byte	0x148
 577 0399 01       		.byte	0x1
 578 039a A4030000 		.4byte	0x3a4
 579 039e 0B       		.uleb128 0xb
 580 039f 54010000 		.4byte	0x154
 581 03a3 00       		.byte	0
 582 03a4 14       		.uleb128 0x14
 583 03a5 687A00   		.ascii	"hz\000"
 584 03a8 01       		.byte	0x1
 585 03a9 37       		.byte	0x37
 586 03aa E8030000 		.4byte	.LASF48
 587 03ae 48010000 		.4byte	0x148
 588 03b2 01       		.byte	0x1
 589 03b3 BD030000 		.4byte	0x3bd
 590 03b7 0B       		.uleb128 0xb
 591 03b8 F2040000 		.4byte	0x4f2
 592 03bc 00       		.byte	0
 593 03bd 15       		.uleb128 0x15
 594 03be 6E6F7700 		.ascii	"now\000"
 595 03c2 01       		.byte	0x1
 596 03c3 38       		.byte	0x38
 597 03c4 84040000 		.4byte	.LASF67
 598 03c8 48010000 		.4byte	0x148
 599 03cc 01       		.byte	0x1
 600 03cd 07       		.uleb128 0x7
 601 03ce 54010000 		.4byte	0x154
 602 03d2 16       		.uleb128 0x16
 603 03d3 16040000 		.4byte	.LASF68
 604 03d7 01       		.byte	0x1
 605 03d8 9F       		.byte	0x9f
 606 03d9 FF040000 		.4byte	0x4ff
 607 03dd 01       		.byte	0x1
 608 03de E9030000 		.4byte	0x3e9
 609 03e2 17       		.uleb128 0x17
 610 03e3 5400     		.ascii	"T\000"
 611 03e5 65000000 		.4byte	0x65
 612 03e9 11       		.uleb128 0x11
 613 03ea FF040000 		.4byte	0x4ff
 614 03ee 0B       		.uleb128 0xb
 615 03ef 65000000 		.4byte	0x65
 616 03f3 00       		.byte	0
 617 03f4 00       		.byte	0
 618 03f5 07       		.uleb128 0x7
 619 03f6 48010000 		.4byte	0x148
 620 03fa 00       		.byte	0
 621 03fb 03       		.uleb128 0x3
 622 03fc 7A030000 		.4byte	.LASF49
 623 0400 09       		.byte	0x9
 624 0401 2C       		.byte	0x2c
 625 0402 5A000000 		.4byte	0x5a
 626 0406 03       		.uleb128 0x3
 627 0407 FD020000 		.4byte	.LASF50
ARM GAS  /tmp/cc4N8URp.s 			page 12


 628 040b 09       		.byte	0x9
 629 040c 2D       		.byte	0x2d
 630 040d 6C000000 		.4byte	0x6c
 631 0411 04       		.uleb128 0x4
 632 0412 01       		.byte	0x1
 633 0413 02       		.byte	0x2
 634 0414 12000000 		.4byte	.LASF51
 635 0418 03       		.uleb128 0x3
 636 0419 67030000 		.4byte	.LASF52
 637 041d 0A       		.byte	0xa
 638 041e 35       		.byte	0x35
 639 041f 06040000 		.4byte	0x406
 640 0423 03       		.uleb128 0x3
 641 0424 25040000 		.4byte	.LASF53
 642 0428 0B       		.byte	0xb
 643 0429 58       		.byte	0x58
 644 042a 2E040000 		.4byte	0x42e
 645 042e 06       		.uleb128 0x6
 646 042f 04       		.byte	0x4
 647 0430 34040000 		.4byte	0x434
 648 0434 18       		.uleb128 0x18
 649 0435 3F040000 		.4byte	0x43f
 650 0439 0B       		.uleb128 0xb
 651 043a 93000000 		.4byte	0x93
 652 043e 00       		.byte	0
 653 043f 03       		.uleb128 0x3
 654 0440 51030000 		.4byte	.LASF54
 655 0444 0B       		.byte	0xb
 656 0445 5D       		.byte	0x5d
 657 0446 4A040000 		.4byte	0x44a
 658 044a 19       		.uleb128 0x19
 659 044b 51030000 		.4byte	.LASF54
 660 044f 14       		.byte	0x14
 661 0450 0B       		.byte	0xb
 662 0451 64       		.byte	0x64
 663 0452 93040000 		.4byte	0x493
 664 0456 1A       		.uleb128 0x1a
 665 0457 21030000 		.4byte	.LASF55
 666 045b 0B       		.byte	0xb
 667 045c 65       		.byte	0x65
 668 045d 93040000 		.4byte	0x493
 669 0461 00       		.byte	0
 670 0462 1A       		.uleb128 0x1a
 671 0463 06030000 		.4byte	.LASF56
 672 0467 0B       		.byte	0xb
 673 0468 67       		.byte	0x67
 674 0469 93040000 		.4byte	0x493
 675 046d 04       		.byte	0x4
 676 046e 1A       		.uleb128 0x1a
 677 046f 97040000 		.4byte	.LASF57
 678 0473 0B       		.byte	0xb
 679 0474 69       		.byte	0x69
 680 0475 18040000 		.4byte	0x418
 681 0479 08       		.byte	0x8
 682 047a 1A       		.uleb128 0x1a
 683 047b 04040000 		.4byte	.LASF58
 684 047f 0B       		.byte	0xb
ARM GAS  /tmp/cc4N8URp.s 			page 13


 685 0480 6A       		.byte	0x6a
 686 0481 23040000 		.4byte	0x423
 687 0485 0C       		.byte	0xc
 688 0486 1A       		.uleb128 0x1a
 689 0487 D4000000 		.4byte	.LASF59
 690 048b 0B       		.byte	0xb
 691 048c 6C       		.byte	0x6c
 692 048d 93000000 		.4byte	0x93
 693 0491 10       		.byte	0x10
 694 0492 00       		.byte	0
 695 0493 06       		.uleb128 0x6
 696 0494 04       		.byte	0x4
 697 0495 4A040000 		.4byte	0x44a
 698 0499 1B       		.uleb128 0x1b
 699 049a 10       		.byte	0x10
 700 049b 0B       		.byte	0xb
 701 049c 76       		.byte	0x76
 702 049d 3F040000 		.4byte	.LASF69
 703 04a1 D6040000 		.4byte	0x4d6
 704 04a5 1A       		.uleb128 0x1a
 705 04a6 21030000 		.4byte	.LASF55
 706 04aa 0B       		.byte	0xb
 707 04ab 77       		.byte	0x77
 708 04ac D6040000 		.4byte	0x4d6
 709 04b0 00       		.byte	0
 710 04b1 1A       		.uleb128 0x1a
 711 04b2 06030000 		.4byte	.LASF56
 712 04b6 0B       		.byte	0xb
 713 04b7 79       		.byte	0x79
 714 04b8 D6040000 		.4byte	0x4d6
 715 04bc 04       		.byte	0x4
 716 04bd 1A       		.uleb128 0x1a
 717 04be 97040000 		.4byte	.LASF57
 718 04c2 0B       		.byte	0xb
 719 04c3 7B       		.byte	0x7b
 720 04c4 18040000 		.4byte	0x418
 721 04c8 08       		.byte	0x8
 722 04c9 1A       		.uleb128 0x1a
 723 04ca E3010000 		.4byte	.LASF60
 724 04ce 0B       		.byte	0xb
 725 04cf 7C       		.byte	0x7c
 726 04d0 DC040000 		.4byte	0x4dc
 727 04d4 0C       		.byte	0xc
 728 04d5 00       		.byte	0
 729 04d6 06       		.uleb128 0x6
 730 04d7 04       		.byte	0x4
 731 04d8 3F040000 		.4byte	0x43f
 732 04dc 1C       		.uleb128 0x1c
 733 04dd 18040000 		.4byte	0x418
 734 04e1 03       		.uleb128 0x3
 735 04e2 47040000 		.4byte	.LASF61
 736 04e6 0B       		.byte	0xb
 737 04e7 7D       		.byte	0x7d
 738 04e8 99040000 		.4byte	0x499
 739 04ec 06       		.uleb128 0x6
 740 04ed 04       		.byte	0x4
 741 04ee F5030000 		.4byte	0x3f5
ARM GAS  /tmp/cc4N8URp.s 			page 14


 742 04f2 04       		.uleb128 0x4
 743 04f3 08       		.byte	0x8
 744 04f4 04       		.byte	0x4
 745 04f5 D2030000 		.4byte	.LASF62
 746 04f9 1D       		.uleb128 0x1d
 747 04fa 04       		.byte	0x4
 748 04fb 48010000 		.4byte	0x148
 749 04ff 06       		.uleb128 0x6
 750 0500 04       		.byte	0x4
 751 0501 48010000 		.4byte	0x148
 752 0505 1D       		.uleb128 0x1d
 753 0506 04       		.byte	0x4
 754 0507 F5030000 		.4byte	0x3f5
 755 050b 1E       		.uleb128 0x1e
 756 050c 5B030000 		.4byte	0x35b
 757 0510 B8       		.byte	0xb8
 758 0511 00000000 		.4byte	.LFB58
 759 0515 22000000 		.4byte	.LFE58-.LFB58
 760 0519 01       		.uleb128 0x1
 761 051a 9C       		.byte	0x9c
 762 051b 2E050000 		.4byte	0x52e
 763 051f 1F       		.uleb128 0x1f
 764 0520 49020000 		.4byte	.LASF70
 765 0524 01       		.byte	0x1
 766 0525 B8       		.byte	0xb8
 767 0526 CD030000 		.4byte	0x3cd
 768 052a 02       		.uleb128 0x2
 769 052b 91       		.byte	0x91
 770 052c 70       		.sleb128 -16
 771 052d 00       		.byte	0
 772 052e 20       		.uleb128 0x20
 773 052f BD030000 		.4byte	0x3bd
 774 0533 02       		.byte	0x2
 775 0534 08       		.byte	0x8
 776 0535 00000000 		.4byte	.LFB70
 777 0539 44000000 		.4byte	.LFE70-.LFB70
 778 053d 01       		.uleb128 0x1
 779 053e 9C       		.byte	0x9c
 780 053f 59050000 		.4byte	0x559
 781 0543 21       		.uleb128 0x21
 782 0544 06000000 		.4byte	.LBB2
 783 0548 2A000000 		.4byte	.LBE2-.LBB2
 784 054c 22       		.uleb128 0x22
 785 054d 7400     		.ascii	"t\000"
 786 054f 02       		.byte	0x2
 787 0550 0A       		.byte	0xa
 788 0551 54010000 		.4byte	0x154
 789 0555 01       		.uleb128 0x1
 790 0556 54       		.byte	0x54
 791 0557 00       		.byte	0
 792 0558 00       		.byte	0
 793 0559 23       		.uleb128 0x23
 794 055a D2030000 		.4byte	0x3d2
 795 055e 02       		.byte	0x2
 796 055f 6E050000 		.4byte	0x56e
 797 0563 83050000 		.4byte	0x583
 798 0567 17       		.uleb128 0x17
ARM GAS  /tmp/cc4N8URp.s 			page 15


 799 0568 5400     		.ascii	"T\000"
 800 056a 65000000 		.4byte	0x65
 801 056e 24       		.uleb128 0x24
 802 056f 8A030000 		.4byte	.LASF71
 803 0573 83050000 		.4byte	0x583
 804 0577 25       		.uleb128 0x25
 805 0578 C1020000 		.4byte	.LASF72
 806 057c 01       		.byte	0x1
 807 057d 9F       		.byte	0x9f
 808 057e 65000000 		.4byte	0x65
 809 0582 00       		.byte	0
 810 0583 07       		.uleb128 0x7
 811 0584 FF040000 		.4byte	0x4ff
 812 0588 26       		.uleb128 0x26
 813 0589 59050000 		.4byte	0x559
 814 058d 4E040000 		.4byte	.LASF73
 815 0591 00000000 		.4byte	.LFB72
 816 0595 14000000 		.4byte	.LFE72-.LFB72
 817 0599 01       		.uleb128 0x1
 818 059a 9C       		.byte	0x9c
 819 059b AA050000 		.4byte	0x5aa
 820 059f BB050000 		.4byte	0x5bb
 821 05a3 17       		.uleb128 0x17
 822 05a4 5400     		.ascii	"T\000"
 823 05a6 65000000 		.4byte	0x65
 824 05aa 27       		.uleb128 0x27
 825 05ab 6E050000 		.4byte	0x56e
 826 05af 02       		.uleb128 0x2
 827 05b0 91       		.byte	0x91
 828 05b1 7C       		.sleb128 -4
 829 05b2 27       		.uleb128 0x27
 830 05b3 77050000 		.4byte	0x577
 831 05b7 02       		.uleb128 0x2
 832 05b8 91       		.byte	0x91
 833 05b9 78       		.sleb128 -8
 834 05ba 00       		.byte	0
 835 05bb 28       		.uleb128 0x28
 836 05bc B7000000 		.4byte	.LASF74
 837 05c0 0B       		.byte	0xb
 838 05c1 F5       		.byte	0xf5
 839 05c2 E1040000 		.4byte	0x4e1
 840 05c6 00       		.byte	0
 841              		.section	.debug_abbrev,"",%progbits
 842              	.Ldebug_abbrev0:
 843 0000 01       		.uleb128 0x1
 844 0001 11       		.uleb128 0x11
 845 0002 01       		.byte	0x1
 846 0003 25       		.uleb128 0x25
 847 0004 0E       		.uleb128 0xe
 848 0005 13       		.uleb128 0x13
 849 0006 0B       		.uleb128 0xb
 850 0007 03       		.uleb128 0x3
 851 0008 0E       		.uleb128 0xe
 852 0009 1B       		.uleb128 0x1b
 853 000a 0E       		.uleb128 0xe
 854 000b 55       		.uleb128 0x55
 855 000c 17       		.uleb128 0x17
ARM GAS  /tmp/cc4N8URp.s 			page 16


 856 000d 11       		.uleb128 0x11
 857 000e 01       		.uleb128 0x1
 858 000f 10       		.uleb128 0x10
 859 0010 17       		.uleb128 0x17
 860 0011 00       		.byte	0
 861 0012 00       		.byte	0
 862 0013 02       		.uleb128 0x2
 863 0014 24       		.uleb128 0x24
 864 0015 00       		.byte	0
 865 0016 0B       		.uleb128 0xb
 866 0017 0B       		.uleb128 0xb
 867 0018 3E       		.uleb128 0x3e
 868 0019 0B       		.uleb128 0xb
 869 001a 03       		.uleb128 0x3
 870 001b 08       		.uleb128 0x8
 871 001c 00       		.byte	0
 872 001d 00       		.byte	0
 873 001e 03       		.uleb128 0x3
 874 001f 16       		.uleb128 0x16
 875 0020 00       		.byte	0
 876 0021 03       		.uleb128 0x3
 877 0022 0E       		.uleb128 0xe
 878 0023 3A       		.uleb128 0x3a
 879 0024 0B       		.uleb128 0xb
 880 0025 3B       		.uleb128 0x3b
 881 0026 0B       		.uleb128 0xb
 882 0027 49       		.uleb128 0x49
 883 0028 13       		.uleb128 0x13
 884 0029 00       		.byte	0
 885 002a 00       		.byte	0
 886 002b 04       		.uleb128 0x4
 887 002c 24       		.uleb128 0x24
 888 002d 00       		.byte	0
 889 002e 0B       		.uleb128 0xb
 890 002f 0B       		.uleb128 0xb
 891 0030 3E       		.uleb128 0x3e
 892 0031 0B       		.uleb128 0xb
 893 0032 03       		.uleb128 0x3
 894 0033 0E       		.uleb128 0xe
 895 0034 00       		.byte	0
 896 0035 00       		.byte	0
 897 0036 05       		.uleb128 0x5
 898 0037 0F       		.uleb128 0xf
 899 0038 00       		.byte	0
 900 0039 0B       		.uleb128 0xb
 901 003a 0B       		.uleb128 0xb
 902 003b 00       		.byte	0
 903 003c 00       		.byte	0
 904 003d 06       		.uleb128 0x6
 905 003e 0F       		.uleb128 0xf
 906 003f 00       		.byte	0
 907 0040 0B       		.uleb128 0xb
 908 0041 0B       		.uleb128 0xb
 909 0042 49       		.uleb128 0x49
 910 0043 13       		.uleb128 0x13
 911 0044 00       		.byte	0
 912 0045 00       		.byte	0
ARM GAS  /tmp/cc4N8URp.s 			page 17


 913 0046 07       		.uleb128 0x7
 914 0047 26       		.uleb128 0x26
 915 0048 00       		.byte	0
 916 0049 49       		.uleb128 0x49
 917 004a 13       		.uleb128 0x13
 918 004b 00       		.byte	0
 919 004c 00       		.byte	0
 920 004d 08       		.uleb128 0x8
 921 004e 39       		.uleb128 0x39
 922 004f 01       		.byte	0x1
 923 0050 03       		.uleb128 0x3
 924 0051 08       		.uleb128 0x8
 925 0052 3A       		.uleb128 0x3a
 926 0053 0B       		.uleb128 0xb
 927 0054 3B       		.uleb128 0x3b
 928 0055 0B       		.uleb128 0xb
 929 0056 01       		.uleb128 0x1
 930 0057 13       		.uleb128 0x13
 931 0058 00       		.byte	0
 932 0059 00       		.byte	0
 933 005a 09       		.uleb128 0x9
 934 005b 08       		.uleb128 0x8
 935 005c 00       		.byte	0
 936 005d 3A       		.uleb128 0x3a
 937 005e 0B       		.uleb128 0xb
 938 005f 3B       		.uleb128 0x3b
 939 0060 0B       		.uleb128 0xb
 940 0061 18       		.uleb128 0x18
 941 0062 13       		.uleb128 0x13
 942 0063 00       		.byte	0
 943 0064 00       		.byte	0
 944 0065 0A       		.uleb128 0xa
 945 0066 2E       		.uleb128 0x2e
 946 0067 01       		.byte	0x1
 947 0068 3F       		.uleb128 0x3f
 948 0069 19       		.uleb128 0x19
 949 006a 03       		.uleb128 0x3
 950 006b 0E       		.uleb128 0xe
 951 006c 3A       		.uleb128 0x3a
 952 006d 0B       		.uleb128 0xb
 953 006e 3B       		.uleb128 0x3b
 954 006f 0B       		.uleb128 0xb
 955 0070 49       		.uleb128 0x49
 956 0071 13       		.uleb128 0x13
 957 0072 3C       		.uleb128 0x3c
 958 0073 19       		.uleb128 0x19
 959 0074 01       		.uleb128 0x1
 960 0075 13       		.uleb128 0x13
 961 0076 00       		.byte	0
 962 0077 00       		.byte	0
 963 0078 0B       		.uleb128 0xb
 964 0079 05       		.uleb128 0x5
 965 007a 00       		.byte	0
 966 007b 49       		.uleb128 0x49
 967 007c 13       		.uleb128 0x13
 968 007d 00       		.byte	0
 969 007e 00       		.byte	0
ARM GAS  /tmp/cc4N8URp.s 			page 18


 970 007f 0C       		.uleb128 0xc
 971 0080 02       		.uleb128 0x2
 972 0081 01       		.byte	0x1
 973 0082 03       		.uleb128 0x3
 974 0083 0E       		.uleb128 0xe
 975 0084 0B       		.uleb128 0xb
 976 0085 0B       		.uleb128 0xb
 977 0086 3A       		.uleb128 0x3a
 978 0087 0B       		.uleb128 0xb
 979 0088 3B       		.uleb128 0x3b
 980 0089 0B       		.uleb128 0xb
 981 008a 01       		.uleb128 0x1
 982 008b 13       		.uleb128 0x13
 983 008c 00       		.byte	0
 984 008d 00       		.byte	0
 985 008e 0D       		.uleb128 0xd
 986 008f 16       		.uleb128 0x16
 987 0090 00       		.byte	0
 988 0091 03       		.uleb128 0x3
 989 0092 0E       		.uleb128 0xe
 990 0093 3A       		.uleb128 0x3a
 991 0094 0B       		.uleb128 0xb
 992 0095 3B       		.uleb128 0x3b
 993 0096 0B       		.uleb128 0xb
 994 0097 49       		.uleb128 0x49
 995 0098 13       		.uleb128 0x13
 996 0099 32       		.uleb128 0x32
 997 009a 0B       		.uleb128 0xb
 998 009b 00       		.byte	0
 999 009c 00       		.byte	0
 1000 009d 0E       		.uleb128 0xe
 1001 009e 0D       		.uleb128 0xd
 1002 009f 00       		.byte	0
 1003 00a0 03       		.uleb128 0x3
 1004 00a1 08       		.uleb128 0x8
 1005 00a2 3A       		.uleb128 0x3a
 1006 00a3 0B       		.uleb128 0xb
 1007 00a4 3B       		.uleb128 0x3b
 1008 00a5 0B       		.uleb128 0xb
 1009 00a6 49       		.uleb128 0x49
 1010 00a7 13       		.uleb128 0x13
 1011 00a8 38       		.uleb128 0x38
 1012 00a9 0B       		.uleb128 0xb
 1013 00aa 32       		.uleb128 0x32
 1014 00ab 0B       		.uleb128 0xb
 1015 00ac 00       		.byte	0
 1016 00ad 00       		.byte	0
 1017 00ae 0F       		.uleb128 0xf
 1018 00af 0D       		.uleb128 0xd
 1019 00b0 00       		.byte	0
 1020 00b1 03       		.uleb128 0x3
 1021 00b2 0E       		.uleb128 0xe
 1022 00b3 3A       		.uleb128 0x3a
 1023 00b4 0B       		.uleb128 0xb
 1024 00b5 3B       		.uleb128 0x3b
 1025 00b6 0B       		.uleb128 0xb
 1026 00b7 49       		.uleb128 0x49
ARM GAS  /tmp/cc4N8URp.s 			page 19


 1027 00b8 13       		.uleb128 0x13
 1028 00b9 3F       		.uleb128 0x3f
 1029 00ba 19       		.uleb128 0x19
 1030 00bb 32       		.uleb128 0x32
 1031 00bc 0B       		.uleb128 0xb
 1032 00bd 3C       		.uleb128 0x3c
 1033 00be 19       		.uleb128 0x19
 1034 00bf 00       		.byte	0
 1035 00c0 00       		.byte	0
 1036 00c1 10       		.uleb128 0x10
 1037 00c2 2E       		.uleb128 0x2e
 1038 00c3 01       		.byte	0x1
 1039 00c4 3F       		.uleb128 0x3f
 1040 00c5 19       		.uleb128 0x19
 1041 00c6 03       		.uleb128 0x3
 1042 00c7 0E       		.uleb128 0xe
 1043 00c8 3A       		.uleb128 0x3a
 1044 00c9 0B       		.uleb128 0xb
 1045 00ca 3B       		.uleb128 0x3b
 1046 00cb 0B       		.uleb128 0xb
 1047 00cc 6E       		.uleb128 0x6e
 1048 00cd 0E       		.uleb128 0xe
 1049 00ce 49       		.uleb128 0x49
 1050 00cf 13       		.uleb128 0x13
 1051 00d0 32       		.uleb128 0x32
 1052 00d1 0B       		.uleb128 0xb
 1053 00d2 3C       		.uleb128 0x3c
 1054 00d3 19       		.uleb128 0x19
 1055 00d4 64       		.uleb128 0x64
 1056 00d5 13       		.uleb128 0x13
 1057 00d6 01       		.uleb128 0x1
 1058 00d7 13       		.uleb128 0x13
 1059 00d8 00       		.byte	0
 1060 00d9 00       		.byte	0
 1061 00da 11       		.uleb128 0x11
 1062 00db 05       		.uleb128 0x5
 1063 00dc 00       		.byte	0
 1064 00dd 49       		.uleb128 0x49
 1065 00de 13       		.uleb128 0x13
 1066 00df 34       		.uleb128 0x34
 1067 00e0 19       		.uleb128 0x19
 1068 00e1 00       		.byte	0
 1069 00e2 00       		.byte	0
 1070 00e3 12       		.uleb128 0x12
 1071 00e4 2E       		.uleb128 0x2e
 1072 00e5 01       		.byte	0x1
 1073 00e6 3F       		.uleb128 0x3f
 1074 00e7 19       		.uleb128 0x19
 1075 00e8 03       		.uleb128 0x3
 1076 00e9 0E       		.uleb128 0xe
 1077 00ea 3A       		.uleb128 0x3a
 1078 00eb 0B       		.uleb128 0xb
 1079 00ec 3B       		.uleb128 0x3b
 1080 00ed 0B       		.uleb128 0xb
 1081 00ee 49       		.uleb128 0x49
 1082 00ef 13       		.uleb128 0x13
 1083 00f0 32       		.uleb128 0x32
ARM GAS  /tmp/cc4N8URp.s 			page 20


 1084 00f1 0B       		.uleb128 0xb
 1085 00f2 3C       		.uleb128 0x3c
 1086 00f3 19       		.uleb128 0x19
 1087 00f4 64       		.uleb128 0x64
 1088 00f5 13       		.uleb128 0x13
 1089 00f6 01       		.uleb128 0x1
 1090 00f7 13       		.uleb128 0x13
 1091 00f8 00       		.byte	0
 1092 00f9 00       		.byte	0
 1093 00fa 13       		.uleb128 0x13
 1094 00fb 2E       		.uleb128 0x2e
 1095 00fc 01       		.byte	0x1
 1096 00fd 3F       		.uleb128 0x3f
 1097 00fe 19       		.uleb128 0x19
 1098 00ff 03       		.uleb128 0x3
 1099 0100 0E       		.uleb128 0xe
 1100 0101 3A       		.uleb128 0x3a
 1101 0102 0B       		.uleb128 0xb
 1102 0103 3B       		.uleb128 0x3b
 1103 0104 0B       		.uleb128 0xb
 1104 0105 49       		.uleb128 0x49
 1105 0106 13       		.uleb128 0x13
 1106 0107 32       		.uleb128 0x32
 1107 0108 0B       		.uleb128 0xb
 1108 0109 3C       		.uleb128 0x3c
 1109 010a 19       		.uleb128 0x19
 1110 010b 63       		.uleb128 0x63
 1111 010c 19       		.uleb128 0x19
 1112 010d 64       		.uleb128 0x64
 1113 010e 13       		.uleb128 0x13
 1114 010f 01       		.uleb128 0x1
 1115 0110 13       		.uleb128 0x13
 1116 0111 00       		.byte	0
 1117 0112 00       		.byte	0
 1118 0113 14       		.uleb128 0x14
 1119 0114 2E       		.uleb128 0x2e
 1120 0115 01       		.byte	0x1
 1121 0116 3F       		.uleb128 0x3f
 1122 0117 19       		.uleb128 0x19
 1123 0118 03       		.uleb128 0x3
 1124 0119 08       		.uleb128 0x8
 1125 011a 3A       		.uleb128 0x3a
 1126 011b 0B       		.uleb128 0xb
 1127 011c 3B       		.uleb128 0x3b
 1128 011d 0B       		.uleb128 0xb
 1129 011e 6E       		.uleb128 0x6e
 1130 011f 0E       		.uleb128 0xe
 1131 0120 49       		.uleb128 0x49
 1132 0121 13       		.uleb128 0x13
 1133 0122 32       		.uleb128 0x32
 1134 0123 0B       		.uleb128 0xb
 1135 0124 3C       		.uleb128 0x3c
 1136 0125 19       		.uleb128 0x19
 1137 0126 01       		.uleb128 0x1
 1138 0127 13       		.uleb128 0x13
 1139 0128 00       		.byte	0
 1140 0129 00       		.byte	0
ARM GAS  /tmp/cc4N8URp.s 			page 21


 1141 012a 15       		.uleb128 0x15
 1142 012b 2E       		.uleb128 0x2e
 1143 012c 00       		.byte	0
 1144 012d 3F       		.uleb128 0x3f
 1145 012e 19       		.uleb128 0x19
 1146 012f 03       		.uleb128 0x3
 1147 0130 08       		.uleb128 0x8
 1148 0131 3A       		.uleb128 0x3a
 1149 0132 0B       		.uleb128 0xb
 1150 0133 3B       		.uleb128 0x3b
 1151 0134 0B       		.uleb128 0xb
 1152 0135 6E       		.uleb128 0x6e
 1153 0136 0E       		.uleb128 0xe
 1154 0137 49       		.uleb128 0x49
 1155 0138 13       		.uleb128 0x13
 1156 0139 32       		.uleb128 0x32
 1157 013a 0B       		.uleb128 0xb
 1158 013b 3C       		.uleb128 0x3c
 1159 013c 19       		.uleb128 0x19
 1160 013d 00       		.byte	0
 1161 013e 00       		.byte	0
 1162 013f 16       		.uleb128 0x16
 1163 0140 2E       		.uleb128 0x2e
 1164 0141 01       		.byte	0x1
 1165 0142 3F       		.uleb128 0x3f
 1166 0143 19       		.uleb128 0x19
 1167 0144 03       		.uleb128 0x3
 1168 0145 0E       		.uleb128 0xe
 1169 0146 3A       		.uleb128 0x3a
 1170 0147 0B       		.uleb128 0xb
 1171 0148 3B       		.uleb128 0x3b
 1172 0149 0B       		.uleb128 0xb
 1173 014a 49       		.uleb128 0x49
 1174 014b 13       		.uleb128 0x13
 1175 014c 32       		.uleb128 0x32
 1176 014d 0B       		.uleb128 0xb
 1177 014e 3C       		.uleb128 0x3c
 1178 014f 19       		.uleb128 0x19
 1179 0150 64       		.uleb128 0x64
 1180 0151 13       		.uleb128 0x13
 1181 0152 00       		.byte	0
 1182 0153 00       		.byte	0
 1183 0154 17       		.uleb128 0x17
 1184 0155 2F       		.uleb128 0x2f
 1185 0156 00       		.byte	0
 1186 0157 03       		.uleb128 0x3
 1187 0158 08       		.uleb128 0x8
 1188 0159 49       		.uleb128 0x49
 1189 015a 13       		.uleb128 0x13
 1190 015b 00       		.byte	0
 1191 015c 00       		.byte	0
 1192 015d 18       		.uleb128 0x18
 1193 015e 15       		.uleb128 0x15
 1194 015f 01       		.byte	0x1
 1195 0160 01       		.uleb128 0x1
 1196 0161 13       		.uleb128 0x13
 1197 0162 00       		.byte	0
ARM GAS  /tmp/cc4N8URp.s 			page 22


 1198 0163 00       		.byte	0
 1199 0164 19       		.uleb128 0x19
 1200 0165 13       		.uleb128 0x13
 1201 0166 01       		.byte	0x1
 1202 0167 03       		.uleb128 0x3
 1203 0168 0E       		.uleb128 0xe
 1204 0169 0B       		.uleb128 0xb
 1205 016a 0B       		.uleb128 0xb
 1206 016b 3A       		.uleb128 0x3a
 1207 016c 0B       		.uleb128 0xb
 1208 016d 3B       		.uleb128 0x3b
 1209 016e 0B       		.uleb128 0xb
 1210 016f 01       		.uleb128 0x1
 1211 0170 13       		.uleb128 0x13
 1212 0171 00       		.byte	0
 1213 0172 00       		.byte	0
 1214 0173 1A       		.uleb128 0x1a
 1215 0174 0D       		.uleb128 0xd
 1216 0175 00       		.byte	0
 1217 0176 03       		.uleb128 0x3
 1218 0177 0E       		.uleb128 0xe
 1219 0178 3A       		.uleb128 0x3a
 1220 0179 0B       		.uleb128 0xb
 1221 017a 3B       		.uleb128 0x3b
 1222 017b 0B       		.uleb128 0xb
 1223 017c 49       		.uleb128 0x49
 1224 017d 13       		.uleb128 0x13
 1225 017e 38       		.uleb128 0x38
 1226 017f 0B       		.uleb128 0xb
 1227 0180 00       		.byte	0
 1228 0181 00       		.byte	0
 1229 0182 1B       		.uleb128 0x1b
 1230 0183 13       		.uleb128 0x13
 1231 0184 01       		.byte	0x1
 1232 0185 0B       		.uleb128 0xb
 1233 0186 0B       		.uleb128 0xb
 1234 0187 3A       		.uleb128 0x3a
 1235 0188 0B       		.uleb128 0xb
 1236 0189 3B       		.uleb128 0x3b
 1237 018a 0B       		.uleb128 0xb
 1238 018b 6E       		.uleb128 0x6e
 1239 018c 0E       		.uleb128 0xe
 1240 018d 01       		.uleb128 0x1
 1241 018e 13       		.uleb128 0x13
 1242 018f 00       		.byte	0
 1243 0190 00       		.byte	0
 1244 0191 1C       		.uleb128 0x1c
 1245 0192 35       		.uleb128 0x35
 1246 0193 00       		.byte	0
 1247 0194 49       		.uleb128 0x49
 1248 0195 13       		.uleb128 0x13
 1249 0196 00       		.byte	0
 1250 0197 00       		.byte	0
 1251 0198 1D       		.uleb128 0x1d
 1252 0199 10       		.uleb128 0x10
 1253 019a 00       		.byte	0
 1254 019b 0B       		.uleb128 0xb
ARM GAS  /tmp/cc4N8URp.s 			page 23


 1255 019c 0B       		.uleb128 0xb
 1256 019d 49       		.uleb128 0x49
 1257 019e 13       		.uleb128 0x13
 1258 019f 00       		.byte	0
 1259 01a0 00       		.byte	0
 1260 01a1 1E       		.uleb128 0x1e
 1261 01a2 2E       		.uleb128 0x2e
 1262 01a3 01       		.byte	0x1
 1263 01a4 47       		.uleb128 0x47
 1264 01a5 13       		.uleb128 0x13
 1265 01a6 3B       		.uleb128 0x3b
 1266 01a7 0B       		.uleb128 0xb
 1267 01a8 11       		.uleb128 0x11
 1268 01a9 01       		.uleb128 0x1
 1269 01aa 12       		.uleb128 0x12
 1270 01ab 06       		.uleb128 0x6
 1271 01ac 40       		.uleb128 0x40
 1272 01ad 18       		.uleb128 0x18
 1273 01ae 9642     		.uleb128 0x2116
 1274 01b0 19       		.uleb128 0x19
 1275 01b1 01       		.uleb128 0x1
 1276 01b2 13       		.uleb128 0x13
 1277 01b3 00       		.byte	0
 1278 01b4 00       		.byte	0
 1279 01b5 1F       		.uleb128 0x1f
 1280 01b6 05       		.uleb128 0x5
 1281 01b7 00       		.byte	0
 1282 01b8 03       		.uleb128 0x3
 1283 01b9 0E       		.uleb128 0xe
 1284 01ba 3A       		.uleb128 0x3a
 1285 01bb 0B       		.uleb128 0xb
 1286 01bc 3B       		.uleb128 0x3b
 1287 01bd 0B       		.uleb128 0xb
 1288 01be 49       		.uleb128 0x49
 1289 01bf 13       		.uleb128 0x13
 1290 01c0 02       		.uleb128 0x2
 1291 01c1 18       		.uleb128 0x18
 1292 01c2 00       		.byte	0
 1293 01c3 00       		.byte	0
 1294 01c4 20       		.uleb128 0x20
 1295 01c5 2E       		.uleb128 0x2e
 1296 01c6 01       		.byte	0x1
 1297 01c7 47       		.uleb128 0x47
 1298 01c8 13       		.uleb128 0x13
 1299 01c9 3A       		.uleb128 0x3a
 1300 01ca 0B       		.uleb128 0xb
 1301 01cb 3B       		.uleb128 0x3b
 1302 01cc 0B       		.uleb128 0xb
 1303 01cd 11       		.uleb128 0x11
 1304 01ce 01       		.uleb128 0x1
 1305 01cf 12       		.uleb128 0x12
 1306 01d0 06       		.uleb128 0x6
 1307 01d1 40       		.uleb128 0x40
 1308 01d2 18       		.uleb128 0x18
 1309 01d3 9642     		.uleb128 0x2116
 1310 01d5 19       		.uleb128 0x19
 1311 01d6 01       		.uleb128 0x1
ARM GAS  /tmp/cc4N8URp.s 			page 24


 1312 01d7 13       		.uleb128 0x13
 1313 01d8 00       		.byte	0
 1314 01d9 00       		.byte	0
 1315 01da 21       		.uleb128 0x21
 1316 01db 0B       		.uleb128 0xb
 1317 01dc 01       		.byte	0x1
 1318 01dd 11       		.uleb128 0x11
 1319 01de 01       		.uleb128 0x1
 1320 01df 12       		.uleb128 0x12
 1321 01e0 06       		.uleb128 0x6
 1322 01e1 00       		.byte	0
 1323 01e2 00       		.byte	0
 1324 01e3 22       		.uleb128 0x22
 1325 01e4 34       		.uleb128 0x34
 1326 01e5 00       		.byte	0
 1327 01e6 03       		.uleb128 0x3
 1328 01e7 08       		.uleb128 0x8
 1329 01e8 3A       		.uleb128 0x3a
 1330 01e9 0B       		.uleb128 0xb
 1331 01ea 3B       		.uleb128 0x3b
 1332 01eb 0B       		.uleb128 0xb
 1333 01ec 49       		.uleb128 0x49
 1334 01ed 13       		.uleb128 0x13
 1335 01ee 02       		.uleb128 0x2
 1336 01ef 18       		.uleb128 0x18
 1337 01f0 00       		.byte	0
 1338 01f1 00       		.byte	0
 1339 01f2 23       		.uleb128 0x23
 1340 01f3 2E       		.uleb128 0x2e
 1341 01f4 01       		.byte	0x1
 1342 01f5 47       		.uleb128 0x47
 1343 01f6 13       		.uleb128 0x13
 1344 01f7 20       		.uleb128 0x20
 1345 01f8 0B       		.uleb128 0xb
 1346 01f9 64       		.uleb128 0x64
 1347 01fa 13       		.uleb128 0x13
 1348 01fb 01       		.uleb128 0x1
 1349 01fc 13       		.uleb128 0x13
 1350 01fd 00       		.byte	0
 1351 01fe 00       		.byte	0
 1352 01ff 24       		.uleb128 0x24
 1353 0200 05       		.uleb128 0x5
 1354 0201 00       		.byte	0
 1355 0202 03       		.uleb128 0x3
 1356 0203 0E       		.uleb128 0xe
 1357 0204 49       		.uleb128 0x49
 1358 0205 13       		.uleb128 0x13
 1359 0206 34       		.uleb128 0x34
 1360 0207 19       		.uleb128 0x19
 1361 0208 00       		.byte	0
 1362 0209 00       		.byte	0
 1363 020a 25       		.uleb128 0x25
 1364 020b 05       		.uleb128 0x5
 1365 020c 00       		.byte	0
 1366 020d 03       		.uleb128 0x3
 1367 020e 0E       		.uleb128 0xe
 1368 020f 3A       		.uleb128 0x3a
ARM GAS  /tmp/cc4N8URp.s 			page 25


 1369 0210 0B       		.uleb128 0xb
 1370 0211 3B       		.uleb128 0x3b
 1371 0212 0B       		.uleb128 0xb
 1372 0213 49       		.uleb128 0x49
 1373 0214 13       		.uleb128 0x13
 1374 0215 00       		.byte	0
 1375 0216 00       		.byte	0
 1376 0217 26       		.uleb128 0x26
 1377 0218 2E       		.uleb128 0x2e
 1378 0219 01       		.byte	0x1
 1379 021a 31       		.uleb128 0x31
 1380 021b 13       		.uleb128 0x13
 1381 021c 6E       		.uleb128 0x6e
 1382 021d 0E       		.uleb128 0xe
 1383 021e 11       		.uleb128 0x11
 1384 021f 01       		.uleb128 0x1
 1385 0220 12       		.uleb128 0x12
 1386 0221 06       		.uleb128 0x6
 1387 0222 40       		.uleb128 0x40
 1388 0223 18       		.uleb128 0x18
 1389 0224 64       		.uleb128 0x64
 1390 0225 13       		.uleb128 0x13
 1391 0226 9742     		.uleb128 0x2117
 1392 0228 19       		.uleb128 0x19
 1393 0229 01       		.uleb128 0x1
 1394 022a 13       		.uleb128 0x13
 1395 022b 00       		.byte	0
 1396 022c 00       		.byte	0
 1397 022d 27       		.uleb128 0x27
 1398 022e 05       		.uleb128 0x5
 1399 022f 00       		.byte	0
 1400 0230 31       		.uleb128 0x31
 1401 0231 13       		.uleb128 0x13
 1402 0232 02       		.uleb128 0x2
 1403 0233 18       		.uleb128 0x18
 1404 0234 00       		.byte	0
 1405 0235 00       		.byte	0
 1406 0236 28       		.uleb128 0x28
 1407 0237 34       		.uleb128 0x34
 1408 0238 00       		.byte	0
 1409 0239 03       		.uleb128 0x3
 1410 023a 0E       		.uleb128 0xe
 1411 023b 3A       		.uleb128 0x3a
 1412 023c 0B       		.uleb128 0xb
 1413 023d 3B       		.uleb128 0x3b
 1414 023e 0B       		.uleb128 0xb
 1415 023f 49       		.uleb128 0x49
 1416 0240 13       		.uleb128 0x13
 1417 0241 3F       		.uleb128 0x3f
 1418 0242 19       		.uleb128 0x19
 1419 0243 3C       		.uleb128 0x3c
 1420 0244 19       		.uleb128 0x19
 1421 0245 00       		.byte	0
 1422 0246 00       		.byte	0
 1423 0247 00       		.byte	0
 1424              		.section	.debug_aranges,"",%progbits
 1425 0000 2C000000 		.4byte	0x2c
ARM GAS  /tmp/cc4N8URp.s 			page 26


 1426 0004 0200     		.2byte	0x2
 1427 0006 00000000 		.4byte	.Ldebug_info0
 1428 000a 04       		.byte	0x4
 1429 000b 00       		.byte	0
 1430 000c 0000     		.2byte	0
 1431 000e 0000     		.2byte	0
 1432 0010 00000000 		.4byte	.Ltext0
 1433 0014 44000000 		.4byte	.Letext0-.Ltext0
 1434 0018 00000000 		.4byte	.LFB58
 1435 001c 22000000 		.4byte	.LFE58-.LFB58
 1436 0020 00000000 		.4byte	.LFB72
 1437 0024 14000000 		.4byte	.LFE72-.LFB72
 1438 0028 00000000 		.4byte	0
 1439 002c 00000000 		.4byte	0
 1440              		.section	.debug_ranges,"",%progbits
 1441              	.Ldebug_ranges0:
 1442 0000 00000000 		.4byte	.Ltext0
 1443 0004 44000000 		.4byte	.Letext0
 1444 0008 00000000 		.4byte	.LFB58
 1445 000c 22000000 		.4byte	.LFE58
 1446 0010 00000000 		.4byte	.LFB72
 1447 0014 14000000 		.4byte	.LFE72
 1448 0018 00000000 		.4byte	0
 1449 001c 00000000 		.4byte	0
 1450              		.section	.debug_line,"",%progbits
 1451              	.Ldebug_line0:
 1452 0000 DC020000 		.section	.debug_str,"MS",%progbits,1
 1452      02008002 
 1452      00000201 
 1452      FB0E0D00 
 1452      01010101 
 1453              	.LASF44:
 1454 0000 5F5A4E33 		.ascii	"_ZN3r2p4Time2usEl\000"
 1454      72327034 
 1454      54696D65 
 1454      32757345 
 1454      6C00
 1455              	.LASF51:
 1456 0012 626F6F6C 		.ascii	"bool\000"
 1456      00
 1457              	.LASF29:
 1458 0017 746F5F75 		.ascii	"to_us\000"
 1458      7300
 1459              	.LASF3:
 1460 001d 73686F72 		.ascii	"short int\000"
 1460      7420696E 
 1460      7400
 1461              	.LASF5:
 1462 0027 73697A65 		.ascii	"size_t\000"
 1462      5F7400
 1463              	.LASF12:
 1464 002e 73697A65 		.ascii	"sizetype\000"
 1464      74797065 
 1464      00
 1465              	.LASF64:
 1466 0037 2F6F7074 		.ascii	"/opt/R2P/core/Middleware/port/chibios/src/impl/Time"
 1466      2F523250 
ARM GAS  /tmp/cc4N8URp.s 			page 27


 1466      2F636F72 
 1466      652F4D69 
 1466      64646C65 
 1467 006a 5F2E6370 		.ascii	"_.cpp\000"
 1467      7000
 1468              	.LASF65:
 1469 0070 2F686F6D 		.ascii	"/home/tino/workspace/openrobots/Middleware_v2-new/\000"
 1469      652F7469 
 1469      6E6F2F77 
 1469      6F726B73 
 1469      70616365 
 1470              	.LASF8:
 1471 00a3 5F5F7569 		.ascii	"__uint32_t\000"
 1471      6E743332 
 1471      5F7400
 1472              	.LASF19:
 1473 00ae 494E4649 		.ascii	"INFINITE\000"
 1473      4E495445 
 1473      00
 1474              	.LASF74:
 1475 00b7 76746C69 		.ascii	"vtlist\000"
 1475      737400
 1476              	.LASF32:
 1477 00be 5F5A4E4B 		.ascii	"_ZNK3r2p4Time5to_msEv\000"
 1477      33723270 
 1477      3454696D 
 1477      6535746F 
 1477      5F6D7345 
 1478              	.LASF59:
 1479 00d4 76745F70 		.ascii	"vt_par\000"
 1479      617200
 1480              	.LASF63:
 1481 00db 474E5520 		.ascii	"GNU C++ 4.9.3 20141119 (release) [ARM/embedded-4_9-"
 1481      432B2B20 
 1481      342E392E 
 1481      33203230 
 1481      31343131 
 1482 010e 6272616E 		.ascii	"branch revision 218278] -mcpu=cortex-m4 -mno-thumb-"
 1482      63682072 
 1482      65766973 
 1482      696F6E20 
 1482      32313832 
 1483 0141 696E7465 		.ascii	"interwork -mthumb -ggdb -O0 -fomit-frame-pointer -f"
 1483      72776F72 
 1483      6B202D6D 
 1483      7468756D 
 1483      62202D67 
 1484 0174 6E6F2D72 		.ascii	"no-rtti -fno-exceptions -fno-threadsafe-statics\000"
 1484      74746920 
 1484      2D666E6F 
 1484      2D657863 
 1484      65707469 
 1485              	.LASF15:
 1486 01a4 73747265 		.ascii	"strerror\000"
 1486      72726F72 
 1486      00
 1487              	.LASF33:
ARM GAS  /tmp/cc4N8URp.s 			page 28


 1488 01ad 746F5F73 		.ascii	"to_s\000"
 1488      00
 1489              	.LASF40:
 1490 01b2 5F5A4E33 		.ascii	"_ZN3r2p4TimepLERKS0_\000"
 1490      72327034 
 1490      54696D65 
 1490      704C4552 
 1490      4B53305F 
 1491              	.LASF47:
 1492 01c7 5F5A4E33 		.ascii	"_ZN3r2p4Time1mEl\000"
 1492      72327034 
 1492      54696D65 
 1492      316D456C 
 1492      00
 1493              	.LASF41:
 1494 01d8 6F706572 		.ascii	"operator-=\000"
 1494      61746F72 
 1494      2D3D00
 1495              	.LASF60:
 1496 01e3 76745F73 		.ascii	"vt_systime\000"
 1496      79737469 
 1496      6D6500
 1497              	.LASF23:
 1498 01ee 5F5A4E4B 		.ascii	"_ZNK3r2p4Time9to_us_rawEv\000"
 1498      33723270 
 1498      3454696D 
 1498      6539746F 
 1498      5F75735F 
 1499              	.LASF30:
 1500 0208 5F5A4E4B 		.ascii	"_ZNK3r2p4Time5to_usEv\000"
 1500      33723270 
 1500      3454696D 
 1500      6535746F 
 1500      5F757345 
 1501              	.LASF34:
 1502 021e 5F5A4E4B 		.ascii	"_ZNK3r2p4Time4to_sEv\000"
 1502      33723270 
 1502      3454696D 
 1502      6534746F 
 1502      5F734576 
 1503              	.LASF1:
 1504 0233 7369676E 		.ascii	"signed char\000"
 1504      65642063 
 1504      68617200 
 1505              	.LASF20:
 1506 023f 494E4649 		.ascii	"INFINITEN\000"
 1506      4E495445 
 1506      4E00
 1507              	.LASF70:
 1508 0249 6D696C6C 		.ascii	"milliseconds\000"
 1508      69736563 
 1508      6F6E6473 
 1508      00
 1509              	.LASF10:
 1510 0256 6C6F6E67 		.ascii	"long long int\000"
 1510      206C6F6E 
 1510      6720696E 
ARM GAS  /tmp/cc4N8URp.s 			page 29


 1510      7400
 1511              	.LASF27:
 1512 0264 746F5F6D 		.ascii	"to_m_raw\000"
 1512      5F726177 
 1512      00
 1513              	.LASF13:
 1514 026d 63686172 		.ascii	"char\000"
 1514      00
 1515              	.LASF38:
 1516 0272 5F5A4E33 		.ascii	"_ZN3r2p4TimeaSERKS0_\000"
 1516      72327034 
 1516      54696D65 
 1516      61534552 
 1516      4B53305F 
 1517              	.LASF16:
 1518 0287 73747274 		.ascii	"strtok\000"
 1518      6F6B00
 1519              	.LASF24:
 1520 028e 5F5A4E4B 		.ascii	"_ZNK3r2p4Time9to_ms_rawEv\000"
 1520      33723270 
 1520      3454696D 
 1520      6539746F 
 1520      5F6D735F 
 1521              	.LASF28:
 1522 02a8 5F5A4E4B 		.ascii	"_ZNK3r2p4Time8to_m_rawEv\000"
 1522      33723270 
 1522      3454696D 
 1522      6538746F 
 1522      5F6D5F72 
 1523              	.LASF72:
 1524 02c1 6D696372 		.ascii	"microseconds\000"
 1524      6F736563 
 1524      6F6E6473 
 1524      00
 1525              	.LASF2:
 1526 02ce 756E7369 		.ascii	"unsigned char\000"
 1526      676E6564 
 1526      20636861 
 1526      7200
 1527              	.LASF37:
 1528 02dc 6F706572 		.ascii	"operator=\000"
 1528      61746F72 
 1528      3D00
 1529              	.LASF11:
 1530 02e6 6C6F6E67 		.ascii	"long long unsigned int\000"
 1530      206C6F6E 
 1530      6720756E 
 1530      7369676E 
 1530      65642069 
 1531              	.LASF50:
 1532 02fd 75696E74 		.ascii	"uint32_t\000"
 1532      33325F74 
 1532      00
 1533              	.LASF56:
 1534 0306 76745F70 		.ascii	"vt_prev\000"
 1534      72657600 
 1535              	.LASF0:
ARM GAS  /tmp/cc4N8URp.s 			page 30


 1536 030e 756E7369 		.ascii	"unsigned int\000"
 1536      676E6564 
 1536      20696E74 
 1536      00
 1537              	.LASF31:
 1538 031b 746F5F6D 		.ascii	"to_ms\000"
 1538      7300
 1539              	.LASF55:
 1540 0321 76745F6E 		.ascii	"vt_next\000"
 1540      65787400 
 1541              	.LASF42:
 1542 0329 5F5A4E33 		.ascii	"_ZN3r2p4TimemIERKS0_\000"
 1542      72327034 
 1542      54696D65 
 1542      6D494552 
 1542      4B53305F 
 1543              	.LASF4:
 1544 033e 73686F72 		.ascii	"short unsigned int\000"
 1544      7420756E 
 1544      7369676E 
 1544      65642069 
 1544      6E7400
 1545              	.LASF54:
 1546 0351 56697274 		.ascii	"VirtualTimer\000"
 1546      75616C54 
 1546      696D6572 
 1546      00
 1547              	.LASF25:
 1548 035e 746F5F73 		.ascii	"to_s_raw\000"
 1548      5F726177 
 1548      00
 1549              	.LASF52:
 1550 0367 73797374 		.ascii	"systime_t\000"
 1550      696D655F 
 1550      7400
 1551              	.LASF7:
 1552 0371 6C6F6E67 		.ascii	"long int\000"
 1552      20696E74 
 1552      00
 1553              	.LASF49:
 1554 037a 696E7433 		.ascii	"int32_t\000"
 1554      325F7400 
 1555              	.LASF14:
 1556 0382 73747263 		.ascii	"strcoll\000"
 1556      6F6C6C00 
 1557              	.LASF71:
 1558 038a 74686973 		.ascii	"this\000"
 1558      00
 1559              	.LASF39:
 1560 038f 6F706572 		.ascii	"operator+=\000"
 1560      61746F72 
 1560      2B3D00
 1561              	.LASF26:
 1562 039a 5F5A4E4B 		.ascii	"_ZNK3r2p4Time8to_s_rawEv\000"
 1562      33723270 
 1562      3454696D 
 1562      6538746F 
ARM GAS  /tmp/cc4N8URp.s 			page 31


 1562      5F735F72 
 1563              	.LASF66:
 1564 03b3 54797065 		.ascii	"Type\000"
 1564      00
 1565              	.LASF17:
 1566 03b8 73747278 		.ascii	"strxfrm\000"
 1566      66726D00 
 1567              	.LASF9:
 1568 03c0 6C6F6E67 		.ascii	"long unsigned int\000"
 1568      20756E73 
 1568      69676E65 
 1568      6420696E 
 1568      7400
 1569              	.LASF62:
 1570 03d2 646F7562 		.ascii	"double\000"
 1570      6C6500
 1571              	.LASF43:
 1572 03d9 54696D65 		.ascii	"Time\000"
 1572      00
 1573              	.LASF21:
 1574 03de 746F5F75 		.ascii	"to_us_raw\000"
 1574      735F7261 
 1574      7700
 1575              	.LASF48:
 1576 03e8 5F5A4E33 		.ascii	"_ZN3r2p4Time2hzEd\000"
 1576      72327034 
 1576      54696D65 
 1576      32687A45 
 1576      6400
 1577              	.LASF6:
 1578 03fa 5F5F696E 		.ascii	"__int32_t\000"
 1578      7433325F 
 1578      7400
 1579              	.LASF58:
 1580 0404 76745F66 		.ascii	"vt_func\000"
 1580      756E6300 
 1581              	.LASF22:
 1582 040c 746F5F6D 		.ascii	"to_ms_raw\000"
 1582      735F7261 
 1582      7700
 1583              	.LASF68:
 1584 0416 54696D65 		.ascii	"Time<long int>\000"
 1584      3C6C6F6E 
 1584      6720696E 
 1584      743E00
 1585              	.LASF53:
 1586 0425 76746675 		.ascii	"vtfunc_t\000"
 1586      6E635F74 
 1586      00
 1587              	.LASF46:
 1588 042e 5F5A4E33 		.ascii	"_ZN3r2p4Time1sEl\000"
 1588      72327034 
 1588      54696D65 
 1588      3173456C 
 1588      00
 1589              	.LASF69:
 1590 043f 3656544C 		.ascii	"6VTList\000"
ARM GAS  /tmp/cc4N8URp.s 			page 32


 1590      69737400 
 1591              	.LASF61:
 1592 0447 56544C69 		.ascii	"VTList\000"
 1592      737400
 1593              	.LASF73:
 1594 044e 5F5A4E33 		.ascii	"_ZN3r2p4TimeC2IlEET_\000"
 1594      72327034 
 1594      54696D65 
 1594      4332496C 
 1594      4545545F 
 1595              	.LASF35:
 1596 0463 746F5F6D 		.ascii	"to_m\000"
 1596      00
 1597              	.LASF18:
 1598 0468 494D4D45 		.ascii	"IMMEDIATE\000"
 1598      44494154 
 1598      4500
 1599              	.LASF45:
 1600 0472 5F5A4E33 		.ascii	"_ZN3r2p4Time2msEl\000"
 1600      72327034 
 1600      54696D65 
 1600      326D7345 
 1600      6C00
 1601              	.LASF67:
 1602 0484 5F5A4E33 		.ascii	"_ZN3r2p4Time3nowEv\000"
 1602      72327034 
 1602      54696D65 
 1602      336E6F77 
 1602      457600
 1603              	.LASF57:
 1604 0497 76745F74 		.ascii	"vt_time\000"
 1604      696D6500 
 1605              	.LASF36:
 1606 049f 5F5A4E4B 		.ascii	"_ZNK3r2p4Time4to_mEv\000"
 1606      33723270 
 1606      3454696D 
 1606      6534746F 
 1606      5F6D4576 
 1607              		.ident	"GCC: (GNU Tools for ARM Embedded Processors) 4.9.3 20141119 (release) [ARM/embedded-4_9-br
ARM GAS  /tmp/cc4N8URp.s 			page 33


DEFINED SYMBOLS
                            *ABS*:00000000 Time_.cpp
     /tmp/cc4N8URp.s:19     .text._ZN3r2p4Time2msEl:00000000 $t
     /tmp/cc4N8URp.s:24     .text._ZN3r2p4Time2msEl:00000000 _ZN3r2p4Time2msEl
     /tmp/cc4N8URp.s:128    .text._ZN3r2p4TimeC2IlEET_:00000000 _ZN3r2p4TimeC1IlEET_
     /tmp/cc4N8URp.s:55     .text:00000000 $t
     /tmp/cc4N8URp.s:60     .text:00000000 _ZN3r2p4Time3nowEv
     /tmp/cc4N8URp.s:116    .text:00000038 $d
     /tmp/cc4N8URp.s:123    .text._ZN3r2p4TimeC2IlEET_:00000000 $t
     /tmp/cc4N8URp.s:128    .text._ZN3r2p4TimeC2IlEET_:00000000 _ZN3r2p4TimeC2IlEET_
                     .debug_frame:00000010 $d
                           .group:00000000 _ZN3r2p4TimeC5IlEET_

UNDEFINED SYMBOLS
vtlist
_ZN3r2p4Time9INFINITENE
_ZN3r2p4Time8INFINITEE
