ARM GAS  /tmp/ccm6ijpY.s 			page 1


   1              		.syntax unified
   2              		.cpu cortex-m4
   3              		.fpu softvfp
   4              		.eabi_attribute 20, 1
   5              		.eabi_attribute 21, 1
   6              		.eabi_attribute 23, 3
   7              		.eabi_attribute 24, 1
   8              		.eabi_attribute 25, 1
   9              		.eabi_attribute 26, 1
  10              		.eabi_attribute 30, 6
  11              		.eabi_attribute 34, 1
  12              		.eabi_attribute 18, 4
  13              		.thumb
  14              		.file	"Topic.cpp"
  15              		.text
  16              	.Ltext0:
  17              		.cfi_sections	.debug_frame
  18              		.section	.text._ZN3r2p10UncopyableC2Ev,"axG",%progbits,_ZN3r2p10UncopyableC5Ev,comdat
  19              		.align	2
  20              		.weak	_ZN3r2p10UncopyableC2Ev
  21              		.thumb
  22              		.thumb_func
  23              		.type	_ZN3r2p10UncopyableC2Ev, %function
  24              	_ZN3r2p10UncopyableC2Ev:
  25              	.LFB6:
  26              		.file 1 "/opt/R2P/core/Middleware/include/r2p/Uncopyable.hpp"
  27              		.loc 1 20 0
  28              		.cfi_startproc
  29              		@ args = 0, pretend = 0, frame = 8
  30              		@ frame_needed = 0, uses_anonymous_args = 0
  31              		@ link register save eliminated.
  32 0000 82B0     		sub	sp, sp, #8
  33              		.cfi_def_cfa_offset 8
  34 0002 0190     		str	r0, [sp, #4]
  35              		.loc 1 20 0
  36 0004 019B     		ldr	r3, [sp, #4]
  37 0006 1846     		mov	r0, r3
  38 0008 02B0     		add	sp, sp, #8
  39              		.cfi_def_cfa_offset 0
  40              		@ sp needed
  41 000a 7047     		bx	lr
  42              		.cfi_endproc
  43              	.LFE6:
  44              		.size	_ZN3r2p10UncopyableC2Ev, .-_ZN3r2p10UncopyableC2Ev
  45              		.weak	_ZN3r2p10UncopyableC1Ev
  46              		.thumb_set _ZN3r2p10UncopyableC1Ev,_ZN3r2p10UncopyableC2Ev
  47              		.section	.text._ZN3r2p10UncopyableD2Ev,"axG",%progbits,_ZN3r2p10UncopyableD5Ev,comdat
  48              		.align	2
  49              		.weak	_ZN3r2p10UncopyableD2Ev
  50              		.thumb
  51              		.thumb_func
  52              		.type	_ZN3r2p10UncopyableD2Ev, %function
  53              	_ZN3r2p10UncopyableD2Ev:
  54              	.LFB9:
  55              		.loc 1 21 0
  56              		.cfi_startproc
  57              		@ args = 0, pretend = 0, frame = 8
ARM GAS  /tmp/ccm6ijpY.s 			page 2


  58              		@ frame_needed = 0, uses_anonymous_args = 0
  59              		@ link register save eliminated.
  60 0000 82B0     		sub	sp, sp, #8
  61              		.cfi_def_cfa_offset 8
  62 0002 0190     		str	r0, [sp, #4]
  63              		.loc 1 21 0
  64 0004 019B     		ldr	r3, [sp, #4]
  65 0006 1846     		mov	r0, r3
  66 0008 02B0     		add	sp, sp, #8
  67              		.cfi_def_cfa_offset 0
  68              		@ sp needed
  69 000a 7047     		bx	lr
  70              		.cfi_endproc
  71              	.LFE9:
  72              		.size	_ZN3r2p10UncopyableD2Ev, .-_ZN3r2p10UncopyableD2Ev
  73              		.weak	_ZN3r2p10UncopyableD1Ev
  74              		.thumb_set _ZN3r2p10UncopyableD1Ev,_ZN3r2p10UncopyableD2Ev
  75              		.section	.text._ZN3r2p8SysLock_7acquireEv,"axG",%progbits,_ZN3r2p8SysLock_7acquireEv,comdat
  76              		.align	2
  77              		.weak	_ZN3r2p8SysLock_7acquireEv
  78              		.thumb
  79              		.thumb_func
  80              		.type	_ZN3r2p8SysLock_7acquireEv, %function
  81              	_ZN3r2p8SysLock_7acquireEv:
  82              	.LFB18:
  83              		.file 2 "/opt/R2P/core/Middleware/port/chibios/include/r2p/impl/SysLock_.hpp"
  84              		.loc 2 20 0
  85              		.cfi_startproc
  86              		@ args = 0, pretend = 0, frame = 0
  87              		@ frame_needed = 0, uses_anonymous_args = 0
  88 0000 08B5     		push	{r3, lr}
  89              		.cfi_def_cfa_offset 8
  90              		.cfi_offset 3, -8
  91              		.cfi_offset 14, -4
  92              	.LBB8:
  93              	.LBB9:
  94              	.LBB10:
  95              		.loc 2 22 0
  96 0002 2023     		movs	r3, #32
  97              	@ 22 "/opt/R2P/core/Middleware/port/chibios/include/r2p/impl/SysLock_.hpp" 1
  98 0004 83F31188 		msr     BASEPRI, r3
  99              	@ 0 "" 2
 100              		.thumb
 101              	.LBE10:
 102 0008 FFF7FEFF 		bl	dbg_check_lock
 103              	.LBE9:
 104              	.LBE8:
 105              		.loc 2 23 0
 106 000c 08BD     		pop	{r3, pc}
 107              		.cfi_endproc
 108              	.LFE18:
 109              		.size	_ZN3r2p8SysLock_7acquireEv, .-_ZN3r2p8SysLock_7acquireEv
 110 000e 00BF     		.section	.text._ZN3r2p8SysLock_7releaseEv,"axG",%progbits,_ZN3r2p8SysLock_7releaseEv,comdat
 111              		.align	2
 112              		.weak	_ZN3r2p8SysLock_7releaseEv
 113              		.thumb
 114              		.thumb_func
ARM GAS  /tmp/ccm6ijpY.s 			page 3


 115              		.type	_ZN3r2p8SysLock_7releaseEv, %function
 116              	_ZN3r2p8SysLock_7releaseEv:
 117              	.LFB19:
 118              		.loc 2 27 0
 119              		.cfi_startproc
 120              		@ args = 0, pretend = 0, frame = 0
 121              		@ frame_needed = 0, uses_anonymous_args = 0
 122 0000 08B5     		push	{r3, lr}
 123              		.cfi_def_cfa_offset 8
 124              		.cfi_offset 3, -8
 125              		.cfi_offset 14, -4
 126              	.LBB11:
 127              	.LBB12:
 128              		.loc 2 29 0
 129 0002 FFF7FEFF 		bl	dbg_check_unlock
 130              	.LBB13:
 131 0006 0023     		movs	r3, #0
 132              	@ 29 "/opt/R2P/core/Middleware/port/chibios/include/r2p/impl/SysLock_.hpp" 1
 133 0008 83F31188 		msr     BASEPRI, r3
 134              	@ 0 "" 2
 135              		.thumb
 136              	.LBE13:
 137              	.LBE12:
 138              	.LBE11:
 139              		.loc 2 30 0
 140 000c 08BD     		pop	{r3, pc}
 141              		.cfi_endproc
 142              	.LFE19:
 143              		.size	_ZN3r2p8SysLock_7releaseEv, .-_ZN3r2p8SysLock_7releaseEv
 144 000e 00BF     		.section	.text._ZN3r2p7SysLock5ScopeC2Ev,"axG",%progbits,_ZN3r2p7SysLock5ScopeC5Ev,comdat
 145              		.align	2
 146              		.weak	_ZN3r2p7SysLock5ScopeC2Ev
 147              		.thumb
 148              		.thumb_func
 149              		.type	_ZN3r2p7SysLock5ScopeC2Ev, %function
 150              	_ZN3r2p7SysLock5ScopeC2Ev:
 151              	.LFB21:
 152              		.file 3 "/opt/R2P/core/Middleware/include/r2p/SysLock.hpp"
 153              		.loc 3 13 0
 154              		.cfi_startproc
 155              		@ args = 0, pretend = 0, frame = 8
 156              		@ frame_needed = 0, uses_anonymous_args = 0
 157 0000 00B5     		push	{lr}
 158              		.cfi_def_cfa_offset 4
 159              		.cfi_offset 14, -4
 160 0002 83B0     		sub	sp, sp, #12
 161              		.cfi_def_cfa_offset 16
 162 0004 0190     		str	r0, [sp, #4]
 163              	.LBB14:
 164              		.loc 3 13 0
 165 0006 0198     		ldr	r0, [sp, #4]
 166 0008 FFF7FEFF 		bl	_ZN3r2p10UncopyableC2Ev
 167 000c FFF7FEFF 		bl	_ZN3r2p7SysLock7acquireEv
 168              	.LBE14:
 169 0010 019B     		ldr	r3, [sp, #4]
 170 0012 1846     		mov	r0, r3
 171 0014 03B0     		add	sp, sp, #12
ARM GAS  /tmp/ccm6ijpY.s 			page 4


 172              		.cfi_def_cfa_offset 4
 173              		@ sp needed
 174 0016 5DF804FB 		ldr	pc, [sp], #4
 175              		.cfi_endproc
 176              	.LFE21:
 177              		.size	_ZN3r2p7SysLock5ScopeC2Ev, .-_ZN3r2p7SysLock5ScopeC2Ev
 178              		.weak	_ZN3r2p7SysLock5ScopeC1Ev
 179              		.thumb_set _ZN3r2p7SysLock5ScopeC1Ev,_ZN3r2p7SysLock5ScopeC2Ev
 180 001a 00BF     		.section	.text._ZN3r2p7SysLock5ScopeD2Ev,"axG",%progbits,_ZN3r2p7SysLock5ScopeD5Ev,comdat
 181              		.align	2
 182              		.weak	_ZN3r2p7SysLock5ScopeD2Ev
 183              		.thumb
 184              		.thumb_func
 185              		.type	_ZN3r2p7SysLock5ScopeD2Ev, %function
 186              	_ZN3r2p7SysLock5ScopeD2Ev:
 187              	.LFB24:
 188              		.loc 3 14 0
 189              		.cfi_startproc
 190              		@ args = 0, pretend = 0, frame = 8
 191              		@ frame_needed = 0, uses_anonymous_args = 0
 192 0000 00B5     		push	{lr}
 193              		.cfi_def_cfa_offset 4
 194              		.cfi_offset 14, -4
 195 0002 83B0     		sub	sp, sp, #12
 196              		.cfi_def_cfa_offset 16
 197 0004 0190     		str	r0, [sp, #4]
 198              	.LBB15:
 199              		.loc 3 14 0
 200 0006 FFF7FEFF 		bl	_ZN3r2p7SysLock7releaseEv
 201 000a 0198     		ldr	r0, [sp, #4]
 202 000c FFF7FEFF 		bl	_ZN3r2p10UncopyableD2Ev
 203              	.LBE15:
 204 0010 019B     		ldr	r3, [sp, #4]
 205 0012 1846     		mov	r0, r3
 206 0014 03B0     		add	sp, sp, #12
 207              		.cfi_def_cfa_offset 4
 208              		@ sp needed
 209 0016 5DF804FB 		ldr	pc, [sp], #4
 210              		.cfi_endproc
 211              	.LFE24:
 212              		.size	_ZN3r2p7SysLock5ScopeD2Ev, .-_ZN3r2p7SysLock5ScopeD2Ev
 213              		.weak	_ZN3r2p7SysLock5ScopeD1Ev
 214              		.thumb_set _ZN3r2p7SysLock5ScopeD1Ev,_ZN3r2p7SysLock5ScopeD2Ev
 215 001a 00BF     		.section	.text._ZN3r2p7SysLock7acquireEv,"axG",%progbits,_ZN3r2p7SysLock7acquireEv,comdat
 216              		.align	2
 217              		.weak	_ZN3r2p7SysLock7acquireEv
 218              		.thumb
 219              		.thumb_func
 220              		.type	_ZN3r2p7SysLock7acquireEv, %function
 221              	_ZN3r2p7SysLock7acquireEv:
 222              	.LFB26:
 223              		.loc 3 27 0
 224              		.cfi_startproc
 225              		@ args = 0, pretend = 0, frame = 0
 226              		@ frame_needed = 0, uses_anonymous_args = 0
 227 0000 08B5     		push	{r3, lr}
 228              		.cfi_def_cfa_offset 8
ARM GAS  /tmp/ccm6ijpY.s 			page 5


 229              		.cfi_offset 3, -8
 230              		.cfi_offset 14, -4
 231              		.loc 3 29 0
 232 0002 FFF7FEFF 		bl	_ZN3r2p8SysLock_7acquireEv
 233              		.loc 3 30 0
 234 0006 08BD     		pop	{r3, pc}
 235              		.cfi_endproc
 236              	.LFE26:
 237              		.size	_ZN3r2p7SysLock7acquireEv, .-_ZN3r2p7SysLock7acquireEv
 238              		.section	.text._ZN3r2p7SysLock7releaseEv,"axG",%progbits,_ZN3r2p7SysLock7releaseEv,comdat
 239              		.align	2
 240              		.weak	_ZN3r2p7SysLock7releaseEv
 241              		.thumb
 242              		.thumb_func
 243              		.type	_ZN3r2p7SysLock7releaseEv, %function
 244              	_ZN3r2p7SysLock7releaseEv:
 245              	.LFB27:
 246              		.loc 3 34 0
 247              		.cfi_startproc
 248              		@ args = 0, pretend = 0, frame = 0
 249              		@ frame_needed = 0, uses_anonymous_args = 0
 250 0000 08B5     		push	{r3, lr}
 251              		.cfi_def_cfa_offset 8
 252              		.cfi_offset 3, -8
 253              		.cfi_offset 14, -4
 254              		.loc 3 36 0
 255 0002 FFF7FEFF 		bl	_ZN3r2p8SysLock_7releaseEv
 256              		.loc 3 37 0
 257 0006 08BD     		pop	{r3, pc}
 258              		.cfi_endproc
 259              	.LFE27:
 260              		.size	_ZN3r2p7SysLock7releaseEv, .-_ZN3r2p7SysLock7releaseEv
 261              		.section	.text._ZNK3r2p11MemoryPool_13get_item_sizeEv,"axG",%progbits,_ZNK3r2p11MemoryPool_13get_i
 262              		.align	2
 263              		.weak	_ZNK3r2p11MemoryPool_13get_item_sizeEv
 264              		.thumb
 265              		.thumb_func
 266              		.type	_ZNK3r2p11MemoryPool_13get_item_sizeEv, %function
 267              	_ZNK3r2p11MemoryPool_13get_item_sizeEv:
 268              	.LFB36:
 269              		.file 4 "/opt/R2P/core/Middleware/port/chibios/include/r2p/impl/MemoryPool_.hpp"
 270              		.loc 4 39 0
 271              		.cfi_startproc
 272              		@ args = 0, pretend = 0, frame = 8
 273              		@ frame_needed = 0, uses_anonymous_args = 0
 274              		@ link register save eliminated.
 275 0000 82B0     		sub	sp, sp, #8
 276              		.cfi_def_cfa_offset 8
 277 0002 0190     		str	r0, [sp, #4]
 278              		.loc 4 41 0
 279 0004 019B     		ldr	r3, [sp, #4]
 280 0006 5B68     		ldr	r3, [r3, #4]
 281              		.loc 4 42 0
 282 0008 1846     		mov	r0, r3
 283 000a 02B0     		add	sp, sp, #8
 284              		.cfi_def_cfa_offset 0
 285              		@ sp needed
ARM GAS  /tmp/ccm6ijpY.s 			page 6


 286 000c 7047     		bx	lr
 287              		.cfi_endproc
 288              	.LFE36:
 289              		.size	_ZNK3r2p11MemoryPool_13get_item_sizeEv, .-_ZNK3r2p11MemoryPool_13get_item_sizeEv
 290 000e 00BF     		.section	.text._ZN3r2p11MemoryPool_12alloc_unsafeEv,"axG",%progbits,_ZN3r2p11MemoryPool_12alloc_un
 291              		.align	2
 292              		.weak	_ZN3r2p11MemoryPool_12alloc_unsafeEv
 293              		.thumb
 294              		.thumb_func
 295              		.type	_ZN3r2p11MemoryPool_12alloc_unsafeEv, %function
 296              	_ZN3r2p11MemoryPool_12alloc_unsafeEv:
 297              	.LFB38:
 298              		.loc 4 53 0
 299              		.cfi_startproc
 300              		@ args = 0, pretend = 0, frame = 8
 301              		@ frame_needed = 0, uses_anonymous_args = 0
 302 0000 00B5     		push	{lr}
 303              		.cfi_def_cfa_offset 4
 304              		.cfi_offset 14, -4
 305 0002 83B0     		sub	sp, sp, #12
 306              		.cfi_def_cfa_offset 16
 307 0004 0190     		str	r0, [sp, #4]
 308              		.loc 4 55 0
 309 0006 019B     		ldr	r3, [sp, #4]
 310 0008 1846     		mov	r0, r3
 311 000a FFF7FEFF 		bl	chPoolAllocI
 312 000e 0346     		mov	r3, r0
 313              		.loc 4 56 0
 314 0010 1846     		mov	r0, r3
 315 0012 03B0     		add	sp, sp, #12
 316              		.cfi_def_cfa_offset 4
 317              		@ sp needed
 318 0014 5DF804FB 		ldr	pc, [sp], #4
 319              		.cfi_endproc
 320              	.LFE38:
 321              		.size	_ZN3r2p11MemoryPool_12alloc_unsafeEv, .-_ZN3r2p11MemoryPool_12alloc_unsafeEv
 322              		.section	.text._ZN3r2p11MemoryPool_11free_unsafeEPv,"axG",%progbits,_ZN3r2p11MemoryPool_11free_uns
 323              		.align	2
 324              		.weak	_ZN3r2p11MemoryPool_11free_unsafeEPv
 325              		.thumb
 326              		.thumb_func
 327              		.type	_ZN3r2p11MemoryPool_11free_unsafeEPv, %function
 328              	_ZN3r2p11MemoryPool_11free_unsafeEPv:
 329              	.LFB39:
 330              		.loc 4 60 0
 331              		.cfi_startproc
 332              		@ args = 0, pretend = 0, frame = 8
 333              		@ frame_needed = 0, uses_anonymous_args = 0
 334 0000 00B5     		push	{lr}
 335              		.cfi_def_cfa_offset 4
 336              		.cfi_offset 14, -4
 337 0002 83B0     		sub	sp, sp, #12
 338              		.cfi_def_cfa_offset 16
 339 0004 0190     		str	r0, [sp, #4]
 340 0006 0091     		str	r1, [sp]
 341              		.loc 4 62 0
 342 0008 009B     		ldr	r3, [sp]
ARM GAS  /tmp/ccm6ijpY.s 			page 7


 343 000a 002B     		cmp	r3, #0
 344 000c 04D0     		beq	.L21
 345              		.loc 4 63 0
 346 000e 019B     		ldr	r3, [sp, #4]
 347 0010 1846     		mov	r0, r3
 348 0012 0099     		ldr	r1, [sp]
 349 0014 FFF7FEFF 		bl	chPoolFreeI
 350              	.L21:
 351              		.loc 4 65 0
 352 0018 03B0     		add	sp, sp, #12
 353              		.cfi_def_cfa_offset 4
 354              		@ sp needed
 355 001a 5DF804FB 		ldr	pc, [sp], #4
 356              		.cfi_endproc
 357              	.LFE39:
 358              		.size	_ZN3r2p11MemoryPool_11free_unsafeEPv, .-_ZN3r2p11MemoryPool_11free_unsafeEPv
 359 001e 00BF     		.section	.text._ZN3r2p11MemoryPool_4freeEPv,"axG",%progbits,_ZN3r2p11MemoryPool_4freeEPv,comdat
 360              		.align	2
 361              		.weak	_ZN3r2p11MemoryPool_4freeEPv
 362              		.thumb
 363              		.thumb_func
 364              		.type	_ZN3r2p11MemoryPool_4freeEPv, %function
 365              	_ZN3r2p11MemoryPool_4freeEPv:
 366              	.LFB41:
 367              		.loc 4 76 0
 368              		.cfi_startproc
 369              		@ args = 0, pretend = 0, frame = 8
 370              		@ frame_needed = 0, uses_anonymous_args = 0
 371 0000 00B5     		push	{lr}
 372              		.cfi_def_cfa_offset 4
 373              		.cfi_offset 14, -4
 374 0002 83B0     		sub	sp, sp, #12
 375              		.cfi_def_cfa_offset 16
 376 0004 0190     		str	r0, [sp, #4]
 377 0006 0091     		str	r1, [sp]
 378              		.loc 4 78 0
 379 0008 009B     		ldr	r3, [sp]
 380 000a 002B     		cmp	r3, #0
 381 000c 04D0     		beq	.L23
 382              		.loc 4 79 0
 383 000e 019B     		ldr	r3, [sp, #4]
 384 0010 1846     		mov	r0, r3
 385 0012 0099     		ldr	r1, [sp]
 386 0014 FFF7FEFF 		bl	chPoolFree
 387              	.L23:
 388              		.loc 4 81 0
 389 0018 03B0     		add	sp, sp, #12
 390              		.cfi_def_cfa_offset 4
 391              		@ sp needed
 392 001a 5DF804FB 		ldr	pc, [sp], #4
 393              		.cfi_endproc
 394              	.LFE41:
 395              		.size	_ZN3r2p11MemoryPool_4freeEPv, .-_ZN3r2p11MemoryPool_4freeEPv
 396 001e 00BF     		.section	.text._ZN3r2p11MemoryPool_C2Ej,"axG",%progbits,_ZN3r2p11MemoryPool_C5Ej,comdat
 397              		.align	2
 398              		.weak	_ZN3r2p11MemoryPool_C2Ej
 399              		.thumb
ARM GAS  /tmp/ccm6ijpY.s 			page 8


 400              		.thumb_func
 401              		.type	_ZN3r2p11MemoryPool_C2Ej, %function
 402              	_ZN3r2p11MemoryPool_C2Ej:
 403              	.LFB45:
 404              		.loc 4 99 0
 405              		.cfi_startproc
 406              		@ args = 0, pretend = 0, frame = 8
 407              		@ frame_needed = 0, uses_anonymous_args = 0
 408 0000 00B5     		push	{lr}
 409              		.cfi_def_cfa_offset 4
 410              		.cfi_offset 14, -4
 411 0002 83B0     		sub	sp, sp, #12
 412              		.cfi_def_cfa_offset 16
 413 0004 0190     		str	r0, [sp, #4]
 414 0006 0091     		str	r1, [sp]
 415              	.LBB16:
 416              		.loc 4 99 0
 417 0008 0198     		ldr	r0, [sp, #4]
 418 000a FFF7FEFF 		bl	_ZN3r2p10UncopyableC2Ev
 419              		.loc 4 101 0
 420 000e 019B     		ldr	r3, [sp, #4]
 421 0010 1846     		mov	r0, r3
 422 0012 0099     		ldr	r1, [sp]
 423 0014 0022     		movs	r2, #0
 424 0016 FFF7FEFF 		bl	chPoolInit
 425              	.LBE16:
 426              		.loc 4 102 0
 427 001a 019B     		ldr	r3, [sp, #4]
 428 001c 1846     		mov	r0, r3
 429 001e 03B0     		add	sp, sp, #12
 430              		.cfi_def_cfa_offset 4
 431              		@ sp needed
 432 0020 5DF804FB 		ldr	pc, [sp], #4
 433              		.cfi_endproc
 434              	.LFE45:
 435              		.size	_ZN3r2p11MemoryPool_C2Ej, .-_ZN3r2p11MemoryPool_C2Ej
 436              		.weak	_ZN3r2p11MemoryPool_C1Ej
 437              		.thumb_set _ZN3r2p11MemoryPool_C1Ej,_ZN3r2p11MemoryPool_C2Ej
 438              		.section	.text._ZN3r2p4TimeaSERKS0_,"axG",%progbits,_ZN3r2p4TimeaSERKS0_,comdat
 439              		.align	2
 440              		.weak	_ZN3r2p4TimeaSERKS0_
 441              		.thumb
 442              		.thumb_func
 443              		.type	_ZN3r2p4TimeaSERKS0_, %function
 444              	_ZN3r2p4TimeaSERKS0_:
 445              	.LFB151:
 446              		.file 5 "/opt/R2P/core/Middleware/include/r2p/Time.hpp"
 447              		.loc 5 131 0
 448              		.cfi_startproc
 449              		@ args = 0, pretend = 0, frame = 8
 450              		@ frame_needed = 0, uses_anonymous_args = 0
 451              		@ link register save eliminated.
 452 0000 82B0     		sub	sp, sp, #8
 453              		.cfi_def_cfa_offset 8
 454 0002 0190     		str	r0, [sp, #4]
 455 0004 0091     		str	r1, [sp]
 456              		.loc 5 133 0
ARM GAS  /tmp/ccm6ijpY.s 			page 9


 457 0006 009B     		ldr	r3, [sp]
 458 0008 1A68     		ldr	r2, [r3]
 459 000a 019B     		ldr	r3, [sp, #4]
 460 000c 1A60     		str	r2, [r3]
 461              		.loc 5 134 0
 462 000e 019B     		ldr	r3, [sp, #4]
 463              		.loc 5 135 0
 464 0010 1846     		mov	r0, r3
 465 0012 02B0     		add	sp, sp, #8
 466              		.cfi_def_cfa_offset 0
 467              		@ sp needed
 468 0014 7047     		bx	lr
 469              		.cfi_endproc
 470              	.LFE151:
 471              		.size	_ZN3r2p4TimeaSERKS0_, .-_ZN3r2p4TimeaSERKS0_
 472 0016 00BF     		.section	.text._ZN3r2p4TimeC2ERKS0_,"axG",%progbits,_ZN3r2p4TimeC5ERKS0_,comdat
 473              		.align	2
 474              		.weak	_ZN3r2p4TimeC2ERKS0_
 475              		.thumb
 476              		.thumb_func
 477              		.type	_ZN3r2p4TimeC2ERKS0_, %function
 478              	_ZN3r2p4TimeC2ERKS0_:
 479              	.LFB162:
 480              		.loc 5 173 0
 481              		.cfi_startproc
 482              		@ args = 0, pretend = 0, frame = 8
 483              		@ frame_needed = 0, uses_anonymous_args = 0
 484              		@ link register save eliminated.
 485 0000 82B0     		sub	sp, sp, #8
 486              		.cfi_def_cfa_offset 8
 487 0002 0190     		str	r0, [sp, #4]
 488 0004 0091     		str	r1, [sp]
 489              	.LBB17:
 490              		.loc 5 173 0
 491 0006 009B     		ldr	r3, [sp]
 492 0008 1A68     		ldr	r2, [r3]
 493 000a 019B     		ldr	r3, [sp, #4]
 494 000c 1A60     		str	r2, [r3]
 495              	.LBE17:
 496 000e 019B     		ldr	r3, [sp, #4]
 497 0010 1846     		mov	r0, r3
 498 0012 02B0     		add	sp, sp, #8
 499              		.cfi_def_cfa_offset 0
 500              		@ sp needed
 501 0014 7047     		bx	lr
 502              		.cfi_endproc
 503              	.LFE162:
 504              		.size	_ZN3r2p4TimeC2ERKS0_, .-_ZN3r2p4TimeC2ERKS0_
 505              		.weak	_ZN3r2p4TimeC1ERKS0_
 506              		.thumb_set _ZN3r2p4TimeC1ERKS0_,_ZN3r2p4TimeC2ERKS0_
 507 0016 00BF     		.section	.text._ZN3r2pgtERKNS_4TimeES2_,"axG",%progbits,_ZN3r2pgtERKNS_4TimeES2_,comdat
 508              		.align	2
 509              		.weak	_ZN3r2pgtERKNS_4TimeES2_
 510              		.thumb
 511              		.thumb_func
 512              		.type	_ZN3r2pgtERKNS_4TimeES2_, %function
 513              	_ZN3r2pgtERKNS_4TimeES2_:
ARM GAS  /tmp/ccm6ijpY.s 			page 10


 514              	.LFB171:
 515              		.loc 5 228 0
 516              		.cfi_startproc
 517              		@ args = 0, pretend = 0, frame = 8
 518              		@ frame_needed = 0, uses_anonymous_args = 0
 519              		@ link register save eliminated.
 520 0000 82B0     		sub	sp, sp, #8
 521              		.cfi_def_cfa_offset 8
 522 0002 0190     		str	r0, [sp, #4]
 523 0004 0091     		str	r1, [sp]
 524              		.loc 5 230 0
 525 0006 019B     		ldr	r3, [sp, #4]
 526 0008 1A68     		ldr	r2, [r3]
 527 000a 009B     		ldr	r3, [sp]
 528 000c 1B68     		ldr	r3, [r3]
 529 000e 9A42     		cmp	r2, r3
 530 0010 CCBF     		ite	gt
 531 0012 0123     		movgt	r3, #1
 532 0014 0023     		movle	r3, #0
 533 0016 DBB2     		uxtb	r3, r3
 534              		.loc 5 231 0
 535 0018 1846     		mov	r0, r3
 536 001a 02B0     		add	sp, sp, #8
 537              		.cfi_def_cfa_offset 0
 538              		@ sp needed
 539 001c 7047     		bx	lr
 540              		.cfi_endproc
 541              	.LFE171:
 542              		.size	_ZN3r2pgtERKNS_4TimeES2_, .-_ZN3r2pgtERKNS_4TimeES2_
 543 001e 00BF     		.section	.rodata
 544              		.align	2
 545              	.LC0:
 546 0000 5232505F 		.ascii	"R2P_ASSERT()\000"
 546      41535345 
 546      52542829 
 546      00
 547 000d 000000   		.section	.text._ZN3r2p7Message14acquire_unsafeEv,"axG",%progbits,_ZN3r2p7Message14acquire_unsafeEv
 548              		.align	2
 549              		.weak	_ZN3r2p7Message14acquire_unsafeEv
 550              		.thumb
 551              		.thumb_func
 552              		.type	_ZN3r2p7Message14acquire_unsafeEv, %function
 553              	_ZN3r2p7Message14acquire_unsafeEv:
 554              	.LFB179:
 555              		.file 6 "/opt/R2P/core/Middleware/include/r2p/Message.hpp"
 556              		.loc 6 104 0
 557              		.cfi_startproc
 558              		@ args = 0, pretend = 0, frame = 8
 559              		@ frame_needed = 0, uses_anonymous_args = 0
 560 0000 00B5     		push	{lr}
 561              		.cfi_def_cfa_offset 4
 562              		.cfi_offset 14, -4
 563 0002 83B0     		sub	sp, sp, #12
 564              		.cfi_def_cfa_offset 16
 565 0004 0190     		str	r0, [sp, #4]
 566              		.loc 6 106 0
 567 0006 019B     		ldr	r3, [sp, #4]
ARM GAS  /tmp/ccm6ijpY.s 			page 11


 568 0008 1B88     		ldrh	r3, [r3]	@ unaligned
 569 000a 9BB2     		uxth	r3, r3
 570 000c 1A46     		mov	r2, r3
 571 000e 1023     		movs	r3, #16
 572 0010 013B     		subs	r3, r3, #1
 573 0012 1946     		mov	r1, r3
 574 0014 0123     		movs	r3, #1
 575 0016 8B40     		lsls	r3, r3, r1
 576 0018 013B     		subs	r3, r3, #1
 577 001a 9A42     		cmp	r2, r3
 578 001c 02DB     		blt	.L36
 579              		.loc 6 106 0 is_stmt 0 discriminator 1
 580 001e 0648     		ldr	r0, .L37
 581 0020 FFF7FEFF 		bl	chDbgPanic
 582              	.L36:
 583              		.loc 6 108 0 is_stmt 1
 584 0024 019B     		ldr	r3, [sp, #4]
 585 0026 1B88     		ldrh	r3, [r3]	@ unaligned
 586 0028 9BB2     		uxth	r3, r3
 587 002a 0133     		adds	r3, r3, #1
 588 002c 9AB2     		uxth	r2, r3
 589 002e 019B     		ldr	r3, [sp, #4]
 590 0030 1A80     		strh	r2, [r3]	@ unaligned
 591              		.loc 6 109 0
 592 0032 03B0     		add	sp, sp, #12
 593              		.cfi_def_cfa_offset 4
 594              		@ sp needed
 595 0034 5DF804FB 		ldr	pc, [sp], #4
 596              	.L38:
 597              		.align	2
 598              	.L37:
 599 0038 00000000 		.word	.LC0
 600              		.cfi_endproc
 601              	.LFE179:
 602              		.size	_ZN3r2p7Message14acquire_unsafeEv, .-_ZN3r2p7Message14acquire_unsafeEv
 603              		.section	.text._ZN3r2p7Message14release_unsafeEv,"axG",%progbits,_ZN3r2p7Message14release_unsafeEv
 604              		.align	2
 605              		.weak	_ZN3r2p7Message14release_unsafeEv
 606              		.thumb
 607              		.thumb_func
 608              		.type	_ZN3r2p7Message14release_unsafeEv, %function
 609              	_ZN3r2p7Message14release_unsafeEv:
 610              	.LFB180:
 611              		.loc 6 113 0
 612              		.cfi_startproc
 613              		@ args = 0, pretend = 0, frame = 8
 614              		@ frame_needed = 0, uses_anonymous_args = 0
 615 0000 00B5     		push	{lr}
 616              		.cfi_def_cfa_offset 4
 617              		.cfi_offset 14, -4
 618 0002 83B0     		sub	sp, sp, #12
 619              		.cfi_def_cfa_offset 16
 620 0004 0190     		str	r0, [sp, #4]
 621              		.loc 6 115 0
 622 0006 019B     		ldr	r3, [sp, #4]
 623 0008 1B88     		ldrh	r3, [r3]	@ unaligned
 624 000a 9BB2     		uxth	r3, r3
ARM GAS  /tmp/ccm6ijpY.s 			page 12


 625 000c 002B     		cmp	r3, #0
 626 000e 02D1     		bne	.L40
 627              		.loc 6 115 0 is_stmt 0 discriminator 1
 628 0010 0A48     		ldr	r0, .L42
 629 0012 FFF7FEFF 		bl	chDbgPanic
 630              	.L40:
 631              		.loc 6 117 0 is_stmt 1
 632 0016 019B     		ldr	r3, [sp, #4]
 633 0018 1B88     		ldrh	r3, [r3]	@ unaligned
 634 001a 9BB2     		uxth	r3, r3
 635 001c 013B     		subs	r3, r3, #1
 636 001e 9AB2     		uxth	r2, r3
 637 0020 019B     		ldr	r3, [sp, #4]
 638 0022 1A80     		strh	r2, [r3]	@ unaligned
 639 0024 019B     		ldr	r3, [sp, #4]
 640 0026 1B88     		ldrh	r3, [r3]	@ unaligned
 641 0028 9BB2     		uxth	r3, r3
 642 002a 002B     		cmp	r3, #0
 643 002c 14BF     		ite	ne
 644 002e 0123     		movne	r3, #1
 645 0030 0023     		moveq	r3, #0
 646 0032 DBB2     		uxtb	r3, r3
 647              		.loc 6 118 0
 648 0034 1846     		mov	r0, r3
 649 0036 03B0     		add	sp, sp, #12
 650              		.cfi_def_cfa_offset 4
 651              		@ sp needed
 652 0038 5DF804FB 		ldr	pc, [sp], #4
 653              	.L43:
 654              		.align	2
 655              	.L42:
 656 003c 00000000 		.word	.LC0
 657              		.cfi_endproc
 658              	.LFE180:
 659              		.size	_ZN3r2p7Message14release_unsafeEv, .-_ZN3r2p7Message14release_unsafeEv
 660              		.section	.text._ZN3r2p7Message12reset_unsafeEv,"axG",%progbits,_ZN3r2p7Message12reset_unsafeEv,com
 661              		.align	2
 662              		.weak	_ZN3r2p7Message12reset_unsafeEv
 663              		.thumb
 664              		.thumb_func
 665              		.type	_ZN3r2p7Message12reset_unsafeEv, %function
 666              	_ZN3r2p7Message12reset_unsafeEv:
 667              	.LFB181:
 668              		.loc 6 122 0
 669              		.cfi_startproc
 670              		@ args = 0, pretend = 0, frame = 8
 671              		@ frame_needed = 0, uses_anonymous_args = 0
 672              		@ link register save eliminated.
 673 0000 82B0     		sub	sp, sp, #8
 674              		.cfi_def_cfa_offset 8
 675 0002 0190     		str	r0, [sp, #4]
 676              		.loc 6 127 0
 677 0004 019B     		ldr	r3, [sp, #4]
 678 0006 0022     		movs	r2, #0
 679 0008 1A70     		strb	r2, [r3]
 680 000a 0022     		movs	r2, #0
 681 000c 5A70     		strb	r2, [r3, #1]
ARM GAS  /tmp/ccm6ijpY.s 			page 13


 682              		.loc 6 128 0
 683 000e 02B0     		add	sp, sp, #8
 684              		.cfi_def_cfa_offset 0
 685              		@ sp needed
 686 0010 7047     		bx	lr
 687              		.cfi_endproc
 688              	.LFE181:
 689              		.size	_ZN3r2p7Message12reset_unsafeEv, .-_ZN3r2p7Message12reset_unsafeEv
 690 0012 00BF     		.section	.text._ZNK3r2p16RemoteSubscriber13get_transportEv,"axG",%progbits,_ZNK3r2p16RemoteSubscri
 691              		.align	2
 692              		.weak	_ZNK3r2p16RemoteSubscriber13get_transportEv
 693              		.thumb
 694              		.thumb_func
 695              		.type	_ZNK3r2p16RemoteSubscriber13get_transportEv, %function
 696              	_ZNK3r2p16RemoteSubscriber13get_transportEv:
 697              	.LFB284:
 698              		.file 7 "/opt/R2P/core/Middleware/include/r2p/RemoteSubscriber.hpp"
 699              		.loc 7 31 0
 700              		.cfi_startproc
 701              		@ args = 0, pretend = 0, frame = 8
 702              		@ frame_needed = 0, uses_anonymous_args = 0
 703              		@ link register save eliminated.
 704 0000 82B0     		sub	sp, sp, #8
 705              		.cfi_def_cfa_offset 8
 706 0002 0190     		str	r0, [sp, #4]
 707              		.loc 7 33 0
 708 0004 019B     		ldr	r3, [sp, #4]
 709 0006 9B68     		ldr	r3, [r3, #8]
 710              		.loc 7 34 0
 711 0008 1846     		mov	r0, r3
 712 000a 02B0     		add	sp, sp, #8
 713              		.cfi_def_cfa_offset 0
 714              		@ sp needed
 715 000c 7047     		bx	lr
 716              		.cfi_endproc
 717              	.LFE284:
 718              		.size	_ZNK3r2p16RemoteSubscriber13get_transportEv, .-_ZNK3r2p16RemoteSubscriber13get_transportEv
 719 000e 00BF     		.section	.text._ZNK3r2p5Topic13get_type_sizeEv,"axG",%progbits,_ZNK3r2p5Topic13get_type_sizeEv,com
 720              		.align	2
 721              		.weak	_ZNK3r2p5Topic13get_type_sizeEv
 722              		.thumb
 723              		.thumb_func
 724              		.type	_ZNK3r2p5Topic13get_type_sizeEv, %function
 725              	_ZNK3r2p5Topic13get_type_sizeEv:
 726              	.LFB287:
 727              		.file 8 "/opt/R2P/core/Middleware/include/r2p/Topic.hpp"
 728              		.loc 8 145 0
 729              		.cfi_startproc
 730              		@ args = 0, pretend = 0, frame = 8
 731              		@ frame_needed = 0, uses_anonymous_args = 0
 732 0000 00B5     		push	{lr}
 733              		.cfi_def_cfa_offset 4
 734              		.cfi_offset 14, -4
 735 0002 83B0     		sub	sp, sp, #12
 736              		.cfi_def_cfa_offset 16
 737 0004 0190     		str	r0, [sp, #4]
 738              		.loc 8 147 0
ARM GAS  /tmp/ccm6ijpY.s 			page 14


 739 0006 019B     		ldr	r3, [sp, #4]
 740 0008 0833     		adds	r3, r3, #8
 741 000a 1846     		mov	r0, r3
 742 000c FFF7FEFF 		bl	_ZNK3r2p11MemoryPool_13get_item_sizeEv
 743 0010 0346     		mov	r3, r0
 744              		.loc 8 148 0
 745 0012 1846     		mov	r0, r3
 746 0014 03B0     		add	sp, sp, #12
 747              		.cfi_def_cfa_offset 4
 748              		@ sp needed
 749 0016 5DF804FB 		ldr	pc, [sp], #4
 750              		.cfi_endproc
 751              	.LFE287:
 752              		.size	_ZNK3r2p5Topic13get_type_sizeEv, .-_ZNK3r2p5Topic13get_type_sizeEv
 753 001a 00BF     		.section	.text._ZNK3r2p5Topic21has_local_subscribersEv,"axG",%progbits,_ZNK3r2p5Topic21has_local_s
 754              		.align	2
 755              		.weak	_ZNK3r2p5Topic21has_local_subscribersEv
 756              		.thumb
 757              		.thumb_func
 758              		.type	_ZNK3r2p5Topic21has_local_subscribersEv, %function
 759              	_ZNK3r2p5Topic21has_local_subscribersEv:
 760              	.LFB294:
 761              		.loc 8 198 0
 762              		.cfi_startproc
 763              		@ args = 0, pretend = 0, frame = 8
 764              		@ frame_needed = 0, uses_anonymous_args = 0
 765 0000 00B5     		push	{lr}
 766              		.cfi_def_cfa_offset 4
 767              		.cfi_offset 14, -4
 768 0002 83B0     		sub	sp, sp, #12
 769              		.cfi_def_cfa_offset 16
 770 0004 0190     		str	r0, [sp, #4]
 771              		.loc 8 200 0
 772 0006 019B     		ldr	r3, [sp, #4]
 773 0008 1C33     		adds	r3, r3, #28
 774 000a 1846     		mov	r0, r3
 775 000c FFF7FEFF 		bl	_ZNK3r2p10StaticListINS_15LocalSubscriberEE15is_empty_unsafeEv
 776 0010 0346     		mov	r3, r0
 777 0012 83F00103 		eor	r3, r3, #1
 778 0016 DBB2     		uxtb	r3, r3
 779              		.loc 8 201 0
 780 0018 1846     		mov	r0, r3
 781 001a 03B0     		add	sp, sp, #12
 782              		.cfi_def_cfa_offset 4
 783              		@ sp needed
 784 001c 5DF804FB 		ldr	pc, [sp], #4
 785              		.cfi_endproc
 786              	.LFE294:
 787              		.size	_ZNK3r2p5Topic21has_local_subscribersEv, .-_ZNK3r2p5Topic21has_local_subscribersEv
 788              		.section	.text._ZNK3r2p5Topic22has_remote_subscribersEv,"axG",%progbits,_ZNK3r2p5Topic22has_remote
 789              		.align	2
 790              		.weak	_ZNK3r2p5Topic22has_remote_subscribersEv
 791              		.thumb
 792              		.thumb_func
 793              		.type	_ZNK3r2p5Topic22has_remote_subscribersEv, %function
 794              	_ZNK3r2p5Topic22has_remote_subscribersEv:
 795              	.LFB295:
ARM GAS  /tmp/ccm6ijpY.s 			page 15


 796              		.loc 8 205 0
 797              		.cfi_startproc
 798              		@ args = 0, pretend = 0, frame = 8
 799              		@ frame_needed = 0, uses_anonymous_args = 0
 800 0000 00B5     		push	{lr}
 801              		.cfi_def_cfa_offset 4
 802              		.cfi_offset 14, -4
 803 0002 83B0     		sub	sp, sp, #12
 804              		.cfi_def_cfa_offset 16
 805 0004 0190     		str	r0, [sp, #4]
 806              		.loc 8 207 0
 807 0006 019B     		ldr	r3, [sp, #4]
 808 0008 2033     		adds	r3, r3, #32
 809 000a 1846     		mov	r0, r3
 810 000c FFF7FEFF 		bl	_ZNK3r2p10StaticListINS_16RemoteSubscriberEE15is_empty_unsafeEv
 811 0010 0346     		mov	r3, r0
 812 0012 83F00103 		eor	r3, r3, #1
 813 0016 DBB2     		uxtb	r3, r3
 814              		.loc 8 208 0
 815 0018 1846     		mov	r0, r3
 816 001a 03B0     		add	sp, sp, #12
 817              		.cfi_def_cfa_offset 4
 818              		@ sp needed
 819 001c 5DF804FB 		ldr	pc, [sp], #4
 820              		.cfi_endproc
 821              	.LFE295:
 822              		.size	_ZNK3r2p5Topic22has_remote_subscribersEv, .-_ZNK3r2p5Topic22has_remote_subscribersEv
 823              		.section	.text._ZN3r2p5Topic12alloc_unsafeEv,"axG",%progbits,_ZN3r2p5Topic12alloc_unsafeEv,comdat
 824              		.align	2
 825              		.weak	_ZN3r2p5Topic12alloc_unsafeEv
 826              		.thumb
 827              		.thumb_func
 828              		.type	_ZN3r2p5Topic12alloc_unsafeEv, %function
 829              	_ZN3r2p5Topic12alloc_unsafeEv:
 830              	.LFB301:
 831              		.loc 8 250 0
 832              		.cfi_startproc
 833              		@ args = 0, pretend = 0, frame = 8
 834              		@ frame_needed = 0, uses_anonymous_args = 0
 835 0000 10B5     		push	{r4, lr}
 836              		.cfi_def_cfa_offset 8
 837              		.cfi_offset 4, -8
 838              		.cfi_offset 14, -4
 839 0002 82B0     		sub	sp, sp, #8
 840              		.cfi_def_cfa_offset 16
 841 0004 0190     		str	r0, [sp, #4]
 842              	.LBB18:
 843              		.loc 8 252 0
 844 0006 019B     		ldr	r3, [sp, #4]
 845 0008 0833     		adds	r3, r3, #8
 846 000a 1846     		mov	r0, r3
 847 000c FFF7FEFF 		bl	_ZN3r2p11MemoryPool_12alloc_unsafeEv
 848 0010 0446     		mov	r4, r0
 849              		.loc 8 253 0
 850 0012 002C     		cmp	r4, #0
 851 0014 04D0     		beq	.L54
 852              		.loc 8 254 0
ARM GAS  /tmp/ccm6ijpY.s 			page 16


 853 0016 2046     		mov	r0, r4
 854 0018 FFF7FEFF 		bl	_ZN3r2p7Message12reset_unsafeEv
 855              		.loc 8 255 0
 856 001c 2346     		mov	r3, r4
 857 001e 00E0     		b	.L55
 858              	.L54:
 859              		.loc 8 257 0
 860 0020 0023     		movs	r3, #0
 861              	.L55:
 862              	.LBE18:
 863              		.loc 8 258 0
 864 0022 1846     		mov	r0, r3
 865 0024 02B0     		add	sp, sp, #8
 866              		.cfi_def_cfa_offset 8
 867              		@ sp needed
 868 0026 10BD     		pop	{r4, pc}
 869              		.cfi_endproc
 870              	.LFE301:
 871              		.size	_ZN3r2p5Topic12alloc_unsafeEv, .-_ZN3r2p5Topic12alloc_unsafeEv
 872              		.section	.text._ZN3r2p5Topic11free_unsafeERNS_7MessageE,"axG",%progbits,_ZN3r2p5Topic11free_unsafe
 873              		.align	2
 874              		.weak	_ZN3r2p5Topic11free_unsafeERNS_7MessageE
 875              		.thumb
 876              		.thumb_func
 877              		.type	_ZN3r2p5Topic11free_unsafeERNS_7MessageE, %function
 878              	_ZN3r2p5Topic11free_unsafeERNS_7MessageE:
 879              	.LFB304:
 880              		.loc 8 281 0
 881              		.cfi_startproc
 882              		@ args = 0, pretend = 0, frame = 8
 883              		@ frame_needed = 0, uses_anonymous_args = 0
 884 0000 00B5     		push	{lr}
 885              		.cfi_def_cfa_offset 4
 886              		.cfi_offset 14, -4
 887 0002 83B0     		sub	sp, sp, #12
 888              		.cfi_def_cfa_offset 16
 889 0004 0190     		str	r0, [sp, #4]
 890 0006 0091     		str	r1, [sp]
 891              		.loc 8 283 0
 892 0008 019B     		ldr	r3, [sp, #4]
 893 000a 0833     		adds	r3, r3, #8
 894 000c 1846     		mov	r0, r3
 895 000e 0099     		ldr	r1, [sp]
 896 0010 FFF7FEFF 		bl	_ZN3r2p11MemoryPool_11free_unsafeEPv
 897              		.loc 8 284 0
 898 0014 03B0     		add	sp, sp, #12
 899              		.cfi_def_cfa_offset 4
 900              		@ sp needed
 901 0016 5DF804FB 		ldr	pc, [sp], #4
 902              		.cfi_endproc
 903              	.LFE304:
 904              		.size	_ZN3r2p5Topic11free_unsafeERNS_7MessageE, .-_ZN3r2p5Topic11free_unsafeERNS_7MessageE
 905 001a 00BF     		.section	.text._ZN3r2p5Topic4freeERNS_7MessageE,"axG",%progbits,_ZN3r2p5Topic4freeERNS_7MessageE,c
 906              		.align	2
 907              		.weak	_ZN3r2p5Topic4freeERNS_7MessageE
 908              		.thumb
 909              		.thumb_func
ARM GAS  /tmp/ccm6ijpY.s 			page 17


 910              		.type	_ZN3r2p5Topic4freeERNS_7MessageE, %function
 911              	_ZN3r2p5Topic4freeERNS_7MessageE:
 912              	.LFB309:
 913              		.loc 8 323 0
 914              		.cfi_startproc
 915              		@ args = 0, pretend = 0, frame = 8
 916              		@ frame_needed = 0, uses_anonymous_args = 0
 917 0000 00B5     		push	{lr}
 918              		.cfi_def_cfa_offset 4
 919              		.cfi_offset 14, -4
 920 0002 83B0     		sub	sp, sp, #12
 921              		.cfi_def_cfa_offset 16
 922 0004 0190     		str	r0, [sp, #4]
 923 0006 0091     		str	r1, [sp]
 924              		.loc 8 325 0
 925 0008 019B     		ldr	r3, [sp, #4]
 926 000a 0833     		adds	r3, r3, #8
 927 000c 1846     		mov	r0, r3
 928 000e 0099     		ldr	r1, [sp]
 929 0010 FFF7FEFF 		bl	_ZN3r2p11MemoryPool_4freeEPv
 930              		.loc 8 326 0
 931 0014 03B0     		add	sp, sp, #12
 932              		.cfi_def_cfa_offset 4
 933              		@ sp needed
 934 0016 5DF804FB 		ldr	pc, [sp], #4
 935              		.cfi_endproc
 936              	.LFE309:
 937              		.size	_ZN3r2p5Topic4freeERNS_7MessageE, .-_ZN3r2p5Topic4freeERNS_7MessageE
 938 001a 00BF     		.section	.text._ZN3r2p10Middleware14get_mgmt_topicEv,"axG",%progbits,_ZN3r2p10Middleware14get_mgmt
 939              		.align	2
 940              		.weak	_ZN3r2p10Middleware14get_mgmt_topicEv
 941              		.thumb
 942              		.thumb_func
 943              		.type	_ZN3r2p10Middleware14get_mgmt_topicEv, %function
 944              	_ZN3r2p10Middleware14get_mgmt_topicEv:
 945              	.LFB672:
 946              		.file 9 "/opt/R2P/core/Middleware/include/r2p/Middleware.hpp"
 947              		.loc 9 198 0
 948              		.cfi_startproc
 949              		@ args = 0, pretend = 0, frame = 8
 950              		@ frame_needed = 0, uses_anonymous_args = 0
 951              		@ link register save eliminated.
 952 0000 82B0     		sub	sp, sp, #8
 953              		.cfi_def_cfa_offset 8
 954 0002 0190     		str	r0, [sp, #4]
 955              		.loc 9 200 0
 956 0004 019B     		ldr	r3, [sp, #4]
 957 0006 2833     		adds	r3, r3, #40
 958              		.loc 9 201 0
 959 0008 1846     		mov	r0, r3
 960 000a 02B0     		add	sp, sp, #8
 961              		.cfi_def_cfa_offset 0
 962              		@ sp needed
 963 000c 7047     		bx	lr
 964              		.cfi_endproc
 965              	.LFE672:
 966              		.size	_ZN3r2p10Middleware14get_mgmt_topicEv, .-_ZN3r2p10Middleware14get_mgmt_topicEv
ARM GAS  /tmp/ccm6ijpY.s 			page 18


 967 000e 00BF     		.text
 968              		.align	2
 969              		.global	_ZN3r2p5Topic20notify_locals_unsafeERNS_7MessageERKNS_4TimeE
 970              		.thumb
 971              		.thumb_func
 972              		.type	_ZN3r2p5Topic20notify_locals_unsafeERNS_7MessageERKNS_4TimeE, %function
 973              	_ZN3r2p5Topic20notify_locals_unsafeERNS_7MessageERKNS_4TimeE:
 974              	.LFB679:
 975              		.file 10 "/opt/R2P/core/Middleware/src/Topic.cpp"
 976              		.loc 10 11 0
 977              		.cfi_startproc
 978              		@ args = 0, pretend = 0, frame = 24
 979              		@ frame_needed = 0, uses_anonymous_args = 0
 980 0000 00B5     		push	{lr}
 981              		.cfi_def_cfa_offset 4
 982              		.cfi_offset 14, -4
 983 0002 87B0     		sub	sp, sp, #28
 984              		.cfi_def_cfa_offset 32
 985 0004 0390     		str	r0, [sp, #12]
 986 0006 0291     		str	r1, [sp, #8]
 987 0008 0192     		str	r2, [sp, #4]
 988              	.LBB19:
 989              	.LBB20:
 990              		.loc 10 13 0
 991 000a 0398     		ldr	r0, [sp, #12]
 992 000c FFF7FEFF 		bl	_ZNK3r2p5Topic21has_local_subscribersEv
 993 0010 0346     		mov	r3, r0
 994 0012 002B     		cmp	r3, #0
 995 0014 33D0     		beq	.L61
 996              	.LBB21:
 997              	.LBB22:
 998              		.loc 10 15 0
 999 0016 039B     		ldr	r3, [sp, #12]
 1000 0018 1C33     		adds	r3, r3, #28
 1001 001a 04AA     		add	r2, sp, #16
 1002 001c 1046     		mov	r0, r2
 1003 001e 1946     		mov	r1, r3
 1004 0020 FFF7FEFF 		bl	_ZN3r2p10StaticListINS_15LocalSubscriberEE12begin_unsafeEv
 1005              		.loc 10 14 0
 1006 0024 1BE0     		b	.L62
 1007              	.L64:
 1008              		.loc 10 17 0
 1009 0026 0298     		ldr	r0, [sp, #8]
 1010 0028 FFF7FEFF 		bl	_ZN3r2p7Message14acquire_unsafeEv
 1011              		.loc 10 18 0
 1012 002c 04AB     		add	r3, sp, #16
 1013 002e 1846     		mov	r0, r3
 1014 0030 FFF7FEFF 		bl	_ZNK3r2p10StaticListINS_15LocalSubscriberEE14IteratorUnsafeptEv
 1015 0034 0246     		mov	r2, r0
 1016 0036 1368     		ldr	r3, [r2]
 1017 0038 0433     		adds	r3, r3, #4
 1018 003a 1B68     		ldr	r3, [r3]
 1019 003c 1046     		mov	r0, r2
 1020 003e 0299     		ldr	r1, [sp, #8]
 1021 0040 019A     		ldr	r2, [sp, #4]
 1022 0042 9847     		blx	r3
 1023 0044 0346     		mov	r3, r0
ARM GAS  /tmp/ccm6ijpY.s 			page 19


 1024 0046 83F00103 		eor	r3, r3, #1
 1025 004a DBB2     		uxtb	r3, r3
 1026 004c 002B     		cmp	r3, #0
 1027 004e 02D0     		beq	.L63
 1028              		.loc 10 19 0
 1029 0050 0298     		ldr	r0, [sp, #8]
 1030 0052 FFF7FEFF 		bl	_ZN3r2p7Message14release_unsafeEv
 1031              	.L63:
 1032              		.loc 10 14 0
 1033 0056 04AB     		add	r3, sp, #16
 1034 0058 1846     		mov	r0, r3
 1035 005a FFF7FEFF 		bl	_ZN3r2p10StaticListINS_15LocalSubscriberEE14IteratorUnsafeppEv
 1036              	.L62:
 1037              		.loc 10 16 0 discriminator 1
 1038 005e 039B     		ldr	r3, [sp, #12]
 1039 0060 1C33     		adds	r3, r3, #28
 1040 0062 05AA     		add	r2, sp, #20
 1041 0064 1046     		mov	r0, r2
 1042 0066 1946     		mov	r1, r3
 1043 0068 FFF7FEFF 		bl	_ZN3r2p10StaticListINS_15LocalSubscriberEE10end_unsafeEv
 1044              		.loc 10 14 0 discriminator 1
 1045 006c 04AA     		add	r2, sp, #16
 1046 006e 05AB     		add	r3, sp, #20
 1047 0070 1046     		mov	r0, r2
 1048 0072 1946     		mov	r1, r3
 1049 0074 FFF7FEFF 		bl	_ZNK3r2p10StaticListINS_15LocalSubscriberEE14IteratorUnsafeneERKS3_
 1050 0078 0346     		mov	r3, r0
 1051 007a 002B     		cmp	r3, #0
 1052 007c D3D1     		bne	.L64
 1053              	.L61:
 1054              	.LBE22:
 1055              	.LBE21:
 1056              	.LBE20:
 1057              		.loc 10 24 0
 1058 007e 0123     		movs	r3, #1
 1059              	.LBE19:
 1060              		.loc 10 25 0
 1061 0080 1846     		mov	r0, r3
 1062 0082 07B0     		add	sp, sp, #28
 1063              		.cfi_def_cfa_offset 4
 1064              		@ sp needed
 1065 0084 5DF804FB 		ldr	pc, [sp], #4
 1066              		.cfi_endproc
 1067              	.LFE679:
 1068              		.size	_ZN3r2p5Topic20notify_locals_unsafeERNS_7MessageERKNS_4TimeE, .-_ZN3r2p5Topic20notify_locals
 1069              		.align	2
 1070              		.global	_ZN3r2p5Topic21notify_remotes_unsafeERNS_7MessageERKNS_4TimeE
 1071              		.thumb
 1072              		.thumb_func
 1073              		.type	_ZN3r2p5Topic21notify_remotes_unsafeERNS_7MessageERKNS_4TimeE, %function
 1074              	_ZN3r2p5Topic21notify_remotes_unsafeERNS_7MessageERKNS_4TimeE:
 1075              	.LFB680:
 1076              		.loc 10 28 0
 1077              		.cfi_startproc
 1078              		@ args = 0, pretend = 0, frame = 24
 1079              		@ frame_needed = 0, uses_anonymous_args = 0
 1080 0088 00B5     		push	{lr}
ARM GAS  /tmp/ccm6ijpY.s 			page 20


 1081              		.cfi_def_cfa_offset 4
 1082              		.cfi_offset 14, -4
 1083 008a 87B0     		sub	sp, sp, #28
 1084              		.cfi_def_cfa_offset 32
 1085 008c 0390     		str	r0, [sp, #12]
 1086 008e 0291     		str	r1, [sp, #8]
 1087 0090 0192     		str	r2, [sp, #4]
 1088              	.LBB23:
 1089              	.LBB24:
 1090              		.loc 10 30 0
 1091 0092 0398     		ldr	r0, [sp, #12]
 1092 0094 FFF7FEFF 		bl	_ZNK3r2p5Topic22has_remote_subscribersEv
 1093 0098 0346     		mov	r3, r0
 1094 009a 002B     		cmp	r3, #0
 1095 009c 34D0     		beq	.L67
 1096              	.LBB25:
 1097              	.LBB26:
 1098              		.loc 10 32 0
 1099 009e 039B     		ldr	r3, [sp, #12]
 1100 00a0 2033     		adds	r3, r3, #32
 1101 00a2 04AA     		add	r2, sp, #16
 1102 00a4 1046     		mov	r0, r2
 1103 00a6 1946     		mov	r1, r3
 1104 00a8 FFF7FEFF 		bl	_ZN3r2p10StaticListINS_16RemoteSubscriberEE12begin_unsafeEv
 1105              		.loc 10 31 0
 1106 00ac 1CE0     		b	.L68
 1107              	.L70:
 1108              		.loc 10 42 0
 1109 00ae 0298     		ldr	r0, [sp, #8]
 1110 00b0 FFF7FEFF 		bl	_ZN3r2p7Message14acquire_unsafeEv
 1111              		.loc 10 43 0
 1112 00b4 04AB     		add	r3, sp, #16
 1113 00b6 1846     		mov	r0, r3
 1114 00b8 FFF7FEFF 		bl	_ZNK3r2p10StaticListINS_16RemoteSubscriberEE14IteratorUnsafeptEv
 1115 00bc 0346     		mov	r3, r0
 1116 00be 1A46     		mov	r2, r3
 1117 00c0 1368     		ldr	r3, [r2]
 1118 00c2 0433     		adds	r3, r3, #4
 1119 00c4 1B68     		ldr	r3, [r3]
 1120 00c6 1046     		mov	r0, r2
 1121 00c8 0299     		ldr	r1, [sp, #8]
 1122 00ca 019A     		ldr	r2, [sp, #4]
 1123 00cc 9847     		blx	r3
 1124 00ce 0346     		mov	r3, r0
 1125 00d0 83F00103 		eor	r3, r3, #1
 1126 00d4 DBB2     		uxtb	r3, r3
 1127 00d6 002B     		cmp	r3, #0
 1128 00d8 02D0     		beq	.L69
 1129              		.loc 10 44 0
 1130 00da 0298     		ldr	r0, [sp, #8]
 1131 00dc FFF7FEFF 		bl	_ZN3r2p7Message14release_unsafeEv
 1132              	.L69:
 1133              		.loc 10 31 0
 1134 00e0 04AB     		add	r3, sp, #16
 1135 00e2 1846     		mov	r0, r3
 1136 00e4 FFF7FEFF 		bl	_ZN3r2p10StaticListINS_16RemoteSubscriberEE14IteratorUnsafeppEv
 1137              	.L68:
ARM GAS  /tmp/ccm6ijpY.s 			page 21


 1138              		.loc 10 33 0 discriminator 1
 1139 00e8 039B     		ldr	r3, [sp, #12]
 1140 00ea 2033     		adds	r3, r3, #32
 1141 00ec 05AA     		add	r2, sp, #20
 1142 00ee 1046     		mov	r0, r2
 1143 00f0 1946     		mov	r1, r3
 1144 00f2 FFF7FEFF 		bl	_ZN3r2p10StaticListINS_16RemoteSubscriberEE10end_unsafeEv
 1145              		.loc 10 31 0 discriminator 1
 1146 00f6 04AA     		add	r2, sp, #16
 1147 00f8 05AB     		add	r3, sp, #20
 1148 00fa 1046     		mov	r0, r2
 1149 00fc 1946     		mov	r1, r3
 1150 00fe FFF7FEFF 		bl	_ZNK3r2p10StaticListINS_16RemoteSubscriberEE14IteratorUnsafeneERKS3_
 1151 0102 0346     		mov	r3, r0
 1152 0104 002B     		cmp	r3, #0
 1153 0106 D2D1     		bne	.L70
 1154              	.L67:
 1155              	.LBE26:
 1156              	.LBE25:
 1157              	.LBE24:
 1158              		.loc 10 49 0
 1159 0108 0123     		movs	r3, #1
 1160              	.LBE23:
 1161              		.loc 10 50 0
 1162 010a 1846     		mov	r0, r3
 1163 010c 07B0     		add	sp, sp, #28
 1164              		.cfi_def_cfa_offset 4
 1165              		@ sp needed
 1166 010e 5DF804FB 		ldr	pc, [sp], #4
 1167              		.cfi_endproc
 1168              	.LFE680:
 1169              		.size	_ZN3r2p5Topic21notify_remotes_unsafeERNS_7MessageERKNS_4TimeE, .-_ZN3r2p5Topic21notify_remot
 1170 0112 00BF     		.align	2
 1171              		.global	_ZN3r2p5Topic19forward_copy_unsafeERKNS_7MessageERKNS_4TimeE
 1172              		.thumb
 1173              		.thumb_func
 1174              		.type	_ZN3r2p5Topic19forward_copy_unsafeERKNS_7MessageERKNS_4TimeE, %function
 1175              	_ZN3r2p5Topic19forward_copy_unsafeERKNS_7MessageERKNS_4TimeE:
 1176              	.LFB681:
 1177              		.loc 10 53 0
 1178              		.cfi_startproc
 1179              		@ args = 0, pretend = 0, frame = 32
 1180              		@ frame_needed = 0, uses_anonymous_args = 0
 1181 0114 10B5     		push	{r4, lr}
 1182              		.cfi_def_cfa_offset 8
 1183              		.cfi_offset 4, -8
 1184              		.cfi_offset 14, -4
 1185 0116 88B0     		sub	sp, sp, #32
 1186              		.cfi_def_cfa_offset 40
 1187 0118 0390     		str	r0, [sp, #12]
 1188 011a 0291     		str	r1, [sp, #8]
 1189 011c 0192     		str	r2, [sp, #4]
 1190              	.LBB27:
 1191              		.loc 10 55 0
 1192 011e 0123     		movs	r3, #1
 1193 0120 8DF81F30 		strb	r3, [sp, #31]
 1194              	.LBB28:
ARM GAS  /tmp/ccm6ijpY.s 			page 22


 1195              		.loc 10 58 0
 1196 0124 039B     		ldr	r3, [sp, #12]
 1197 0126 2033     		adds	r3, r3, #32
 1198 0128 05AA     		add	r2, sp, #20
 1199 012a 1046     		mov	r0, r2
 1200 012c 1946     		mov	r1, r3
 1201 012e FFF7FEFF 		bl	_ZN3r2p10StaticListINS_16RemoteSubscriberEE12begin_unsafeEv
 1202              		.loc 10 57 0
 1203 0132 47E0     		b	.L73
 1204              	.L76:
 1205              	.LBB29:
 1206              		.loc 10 69 0
 1207 0134 04AB     		add	r3, sp, #16
 1208 0136 0398     		ldr	r0, [sp, #12]
 1209 0138 1946     		mov	r1, r3
 1210 013a FFF7FEFF 		bl	_ZN3r2p5Topic12alloc_unsafeINS_7MessageEEEbRPT_
 1211 013e 0346     		mov	r3, r0
 1212 0140 002B     		cmp	r3, #0
 1213 0142 38D0     		beq	.L74
 1214              		.loc 10 70 0
 1215 0144 049C     		ldr	r4, [sp, #16]
 1216 0146 0398     		ldr	r0, [sp, #12]
 1217 0148 FFF7FEFF 		bl	_ZNK3r2p5Topic13get_type_sizeEv
 1218 014c 0346     		mov	r3, r0
 1219 014e 2046     		mov	r0, r4
 1220 0150 0299     		ldr	r1, [sp, #8]
 1221 0152 1A46     		mov	r2, r3
 1222 0154 FFF7FEFF 		bl	_ZN3r2p7Message4copyERS0_RKS0_j
 1223              		.loc 10 71 0
 1224 0158 049C     		ldr	r4, [sp, #16]
 1225 015a 05AB     		add	r3, sp, #20
 1226 015c 1846     		mov	r0, r3
 1227 015e FFF7FEFF 		bl	_ZNK3r2p10StaticListINS_16RemoteSubscriberEE14IteratorUnsafeptEv
 1228 0162 0346     		mov	r3, r0
 1229 0164 1846     		mov	r0, r3
 1230 0166 FFF7FEFF 		bl	_ZNK3r2p16RemoteSubscriber13get_transportEv
 1231 016a 0346     		mov	r3, r0
 1232 016c 0398     		ldr	r0, [sp, #12]
 1233 016e 2146     		mov	r1, r4
 1234 0170 1A46     		mov	r2, r3
 1235 0172 FFF7FEFF 		bl	_ZNK3r2p5Topic16patch_pubsub_msgERNS_7MessageERNS_9TransportE
 1236              		.loc 10 72 0
 1237 0176 049B     		ldr	r3, [sp, #16]
 1238 0178 1846     		mov	r0, r3
 1239 017a FFF7FEFF 		bl	_ZN3r2p7Message14acquire_unsafeEv
 1240              		.loc 10 73 0
 1241 017e 05AB     		add	r3, sp, #20
 1242 0180 1846     		mov	r0, r3
 1243 0182 FFF7FEFF 		bl	_ZNK3r2p10StaticListINS_16RemoteSubscriberEE14IteratorUnsafeptEv
 1244 0186 0346     		mov	r3, r0
 1245 0188 1A46     		mov	r2, r3
 1246 018a 1368     		ldr	r3, [r2]
 1247 018c 0433     		adds	r3, r3, #4
 1248 018e 1B68     		ldr	r3, [r3]
 1249 0190 0499     		ldr	r1, [sp, #16]
 1250 0192 1046     		mov	r0, r2
 1251 0194 019A     		ldr	r2, [sp, #4]
ARM GAS  /tmp/ccm6ijpY.s 			page 23


 1252 0196 9847     		blx	r3
 1253 0198 0346     		mov	r3, r0
 1254 019a 83F00103 		eor	r3, r3, #1
 1255 019e DBB2     		uxtb	r3, r3
 1256 01a0 002B     		cmp	r3, #0
 1257 01a2 0BD0     		beq	.L75
 1258              		.loc 10 74 0
 1259 01a4 049B     		ldr	r3, [sp, #16]
 1260 01a6 0398     		ldr	r0, [sp, #12]
 1261 01a8 1946     		mov	r1, r3
 1262 01aa FFF7FEFF 		bl	_ZN3r2p5Topic11free_unsafeERNS_7MessageE
 1263              		.loc 10 75 0
 1264 01ae 0023     		movs	r3, #0
 1265 01b0 8DF81F30 		strb	r3, [sp, #31]
 1266 01b4 02E0     		b	.L75
 1267              	.L74:
 1268              		.loc 10 78 0
 1269 01b6 0023     		movs	r3, #0
 1270 01b8 8DF81F30 		strb	r3, [sp, #31]
 1271              	.L75:
 1272              	.LBE29:
 1273              		.loc 10 57 0 discriminator 1
 1274 01bc 05AB     		add	r3, sp, #20
 1275 01be 1846     		mov	r0, r3
 1276 01c0 FFF7FEFF 		bl	_ZN3r2p10StaticListINS_16RemoteSubscriberEE14IteratorUnsafeppEv
 1277              	.L73:
 1278              		.loc 10 59 0 discriminator 1
 1279 01c4 039B     		ldr	r3, [sp, #12]
 1280 01c6 2033     		adds	r3, r3, #32
 1281 01c8 06AA     		add	r2, sp, #24
 1282 01ca 1046     		mov	r0, r2
 1283 01cc 1946     		mov	r1, r3
 1284 01ce FFF7FEFF 		bl	_ZN3r2p10StaticListINS_16RemoteSubscriberEE10end_unsafeEv
 1285              		.loc 10 57 0 discriminator 1
 1286 01d2 05AA     		add	r2, sp, #20
 1287 01d4 06AB     		add	r3, sp, #24
 1288 01d6 1046     		mov	r0, r2
 1289 01d8 1946     		mov	r1, r3
 1290 01da FFF7FEFF 		bl	_ZNK3r2p10StaticListINS_16RemoteSubscriberEE14IteratorUnsafeneERKS3_
 1291 01de 0346     		mov	r3, r0
 1292 01e0 002B     		cmp	r3, #0
 1293 01e2 A7D1     		bne	.L76
 1294              	.LBE28:
 1295              		.loc 10 82 0
 1296 01e4 9DF81F30 		ldrb	r3, [sp, #31]	@ zero_extendqisi2
 1297              	.LBE27:
 1298              		.loc 10 83 0
 1299 01e8 1846     		mov	r0, r3
 1300 01ea 08B0     		add	sp, sp, #32
 1301              		.cfi_def_cfa_offset 8
 1302              		@ sp needed
 1303 01ec 10BD     		pop	{r4, pc}
 1304              		.cfi_endproc
 1305              	.LFE681:
 1306              		.size	_ZN3r2p5Topic19forward_copy_unsafeERKNS_7MessageERKNS_4TimeE, .-_ZN3r2p5Topic19forward_copy_
 1307 01ee 00BF     		.align	2
 1308              		.global	_ZN3r2p5Topic5allocEv
ARM GAS  /tmp/ccm6ijpY.s 			page 24


 1309              		.thumb
 1310              		.thumb_func
 1311              		.type	_ZN3r2p5Topic5allocEv, %function
 1312              	_ZN3r2p5Topic5allocEv:
 1313              	.LFB682:
 1314              		.loc 10 86 0
 1315              		.cfi_startproc
 1316              		@ args = 0, pretend = 0, frame = 16
 1317              		@ frame_needed = 0, uses_anonymous_args = 0
 1318 01f0 00B5     		push	{lr}
 1319              		.cfi_def_cfa_offset 4
 1320              		.cfi_offset 14, -4
 1321 01f2 85B0     		sub	sp, sp, #20
 1322              		.cfi_def_cfa_offset 24
 1323 01f4 0190     		str	r0, [sp, #4]
 1324              	.LBB30:
 1325              		.loc 10 88 0
 1326 01f6 FFF7FEFF 		bl	_ZN3r2p7SysLock7acquireEv
 1327              		.loc 10 89 0
 1328 01fa 0198     		ldr	r0, [sp, #4]
 1329 01fc FFF7FEFF 		bl	_ZN3r2p5Topic12alloc_unsafeEv
 1330 0200 0390     		str	r0, [sp, #12]
 1331              		.loc 10 90 0
 1332 0202 FFF7FEFF 		bl	_ZN3r2p7SysLock7releaseEv
 1333              		.loc 10 91 0
 1334 0206 039B     		ldr	r3, [sp, #12]
 1335              	.LBE30:
 1336              		.loc 10 92 0
 1337 0208 1846     		mov	r0, r3
 1338 020a 05B0     		add	sp, sp, #20
 1339              		.cfi_def_cfa_offset 4
 1340              		@ sp needed
 1341 020c 5DF804FB 		ldr	pc, [sp], #4
 1342              		.cfi_endproc
 1343              	.LFE682:
 1344              		.size	_ZN3r2p5Topic5allocEv, .-_ZN3r2p5Topic5allocEv
 1345              		.align	2
 1346              		.global	_ZN3r2p5Topic13notify_localsERNS_7MessageERKNS_4TimeE
 1347              		.thumb
 1348              		.thumb_func
 1349              		.type	_ZN3r2p5Topic13notify_localsERNS_7MessageERKNS_4TimeE, %function
 1350              	_ZN3r2p5Topic13notify_localsERNS_7MessageERKNS_4TimeE:
 1351              	.LFB683:
 1352              		.loc 10 95 0
 1353              		.cfi_startproc
 1354              		@ args = 0, pretend = 0, frame = 24
 1355              		@ frame_needed = 0, uses_anonymous_args = 0
 1356 0210 00B5     		push	{lr}
 1357              		.cfi_def_cfa_offset 4
 1358              		.cfi_offset 14, -4
 1359 0212 87B0     		sub	sp, sp, #28
 1360              		.cfi_def_cfa_offset 32
 1361 0214 0390     		str	r0, [sp, #12]
 1362 0216 0291     		str	r1, [sp, #8]
 1363 0218 0192     		str	r2, [sp, #4]
 1364              	.LBB31:
 1365              	.LBB32:
ARM GAS  /tmp/ccm6ijpY.s 			page 25


 1366              		.loc 10 97 0
 1367 021a 0398     		ldr	r0, [sp, #12]
 1368 021c FFF7FEFF 		bl	_ZNK3r2p5Topic21has_local_subscribersEv
 1369 0220 0346     		mov	r3, r0
 1370 0222 002B     		cmp	r3, #0
 1371 0224 33D0     		beq	.L81
 1372              	.LBB33:
 1373              	.LBB34:
 1374              		.loc 10 98 0
 1375 0226 039B     		ldr	r3, [sp, #12]
 1376 0228 1C33     		adds	r3, r3, #28
 1377 022a 04AA     		add	r2, sp, #16
 1378 022c 1046     		mov	r0, r2
 1379 022e 1946     		mov	r1, r3
 1380 0230 FFF7FEFF 		bl	_ZN3r2p10StaticListINS_15LocalSubscriberEE5beginEv
 1381 0234 1BE0     		b	.L82
 1382              	.L84:
 1383              		.loc 10 100 0
 1384 0236 0298     		ldr	r0, [sp, #8]
 1385 0238 FFF7FEFF 		bl	_ZN3r2p7Message7acquireEv
 1386              		.loc 10 101 0
 1387 023c 04AB     		add	r3, sp, #16
 1388 023e 1846     		mov	r0, r3
 1389 0240 FFF7FEFF 		bl	_ZNK3r2p10StaticListINS_15LocalSubscriberEE8IteratorptEv
 1390 0244 0246     		mov	r2, r0
 1391 0246 1368     		ldr	r3, [r2]
 1392 0248 0C33     		adds	r3, r3, #12
 1393 024a 1B68     		ldr	r3, [r3]
 1394 024c 1046     		mov	r0, r2
 1395 024e 0299     		ldr	r1, [sp, #8]
 1396 0250 019A     		ldr	r2, [sp, #4]
 1397 0252 9847     		blx	r3
 1398 0254 0346     		mov	r3, r0
 1399 0256 83F00103 		eor	r3, r3, #1
 1400 025a DBB2     		uxtb	r3, r3
 1401 025c 002B     		cmp	r3, #0
 1402 025e 02D0     		beq	.L83
 1403              		.loc 10 102 0
 1404 0260 0298     		ldr	r0, [sp, #8]
 1405 0262 FFF7FEFF 		bl	_ZN3r2p7Message7releaseEv
 1406              	.L83:
 1407              		.loc 10 98 0 discriminator 2
 1408 0266 04AB     		add	r3, sp, #16
 1409 0268 1846     		mov	r0, r3
 1410 026a FFF7FEFF 		bl	_ZN3r2p10StaticListINS_15LocalSubscriberEE8IteratorppEv
 1411              	.L82:
 1412              		.loc 10 99 0 discriminator 1
 1413 026e 039B     		ldr	r3, [sp, #12]
 1414 0270 1C33     		adds	r3, r3, #28
 1415 0272 05AA     		add	r2, sp, #20
 1416 0274 1046     		mov	r0, r2
 1417 0276 1946     		mov	r1, r3
 1418 0278 FFF7FEFF 		bl	_ZN3r2p10StaticListINS_15LocalSubscriberEE3endEv
 1419              		.loc 10 98 0 discriminator 1
 1420 027c 04AA     		add	r2, sp, #16
 1421 027e 05AB     		add	r3, sp, #20
 1422 0280 1046     		mov	r0, r2
ARM GAS  /tmp/ccm6ijpY.s 			page 26


 1423 0282 1946     		mov	r1, r3
 1424 0284 FFF7FEFF 		bl	_ZNK3r2p10StaticListINS_15LocalSubscriberEE8IteratorneERKS3_
 1425 0288 0346     		mov	r3, r0
 1426 028a 002B     		cmp	r3, #0
 1427 028c D3D1     		bne	.L84
 1428              	.L81:
 1429              	.LBE34:
 1430              	.LBE33:
 1431              	.LBE32:
 1432              		.loc 10 107 0
 1433 028e 0123     		movs	r3, #1
 1434              	.LBE31:
 1435              		.loc 10 108 0
 1436 0290 1846     		mov	r0, r3
 1437 0292 07B0     		add	sp, sp, #28
 1438              		.cfi_def_cfa_offset 4
 1439              		@ sp needed
 1440 0294 5DF804FB 		ldr	pc, [sp], #4
 1441              		.cfi_endproc
 1442              	.LFE683:
 1443              		.size	_ZN3r2p5Topic13notify_localsERNS_7MessageERKNS_4TimeE, .-_ZN3r2p5Topic13notify_localsERNS_7M
 1444              		.align	2
 1445              		.global	_ZN3r2p5Topic14notify_remotesERNS_7MessageERKNS_4TimeE
 1446              		.thumb
 1447              		.thumb_func
 1448              		.type	_ZN3r2p5Topic14notify_remotesERNS_7MessageERKNS_4TimeE, %function
 1449              	_ZN3r2p5Topic14notify_remotesERNS_7MessageERKNS_4TimeE:
 1450              	.LFB684:
 1451              		.loc 10 111 0
 1452              		.cfi_startproc
 1453              		@ args = 0, pretend = 0, frame = 32
 1454              		@ frame_needed = 0, uses_anonymous_args = 0
 1455 0298 30B5     		push	{r4, r5, lr}
 1456              		.cfi_def_cfa_offset 12
 1457              		.cfi_offset 4, -12
 1458              		.cfi_offset 5, -8
 1459              		.cfi_offset 14, -4
 1460 029a 89B0     		sub	sp, sp, #36
 1461              		.cfi_def_cfa_offset 48
 1462 029c 0390     		str	r0, [sp, #12]
 1463 029e 0291     		str	r1, [sp, #8]
 1464 02a0 0192     		str	r2, [sp, #4]
 1465              	.LBB35:
 1466              	.LBB36:
 1467              		.loc 10 113 0
 1468 02a2 06AB     		add	r3, sp, #24
 1469 02a4 1846     		mov	r0, r3
 1470 02a6 FFF7FEFF 		bl	_ZN3r2p7SysLock5ScopeC1Ev
 1471              		.loc 10 114 0
 1472 02aa 0398     		ldr	r0, [sp, #12]
 1473 02ac FFF7FEFF 		bl	_ZNK3r2p5Topic22has_remote_subscribersEv
 1474 02b0 0346     		mov	r3, r0
 1475 02b2 83F00103 		eor	r3, r3, #1
 1476 02b6 DBB2     		uxtb	r3, r3
 1477 02b8 002B     		cmp	r3, #0
 1478 02ba 02D0     		beq	.L87
 1479              		.loc 10 114 0 is_stmt 0 discriminator 1
ARM GAS  /tmp/ccm6ijpY.s 			page 27


 1480 02bc 0125     		movs	r5, #1
 1481 02be 0024     		movs	r4, #0
 1482 02c0 00E0     		b	.L88
 1483              	.L87:
 1484 02c2 0124     		movs	r4, #1
 1485              	.L88:
 1486 02c4 06AB     		add	r3, sp, #24
 1487 02c6 1846     		mov	r0, r3
 1488 02c8 FFF7FEFF 		bl	_ZN3r2p7SysLock5ScopeD1Ev
 1489 02cc 012C     		cmp	r4, #1
 1490 02ce 36D1     		bne	.L92
 1491              		.loc 10 114 0
 1492 02d0 00BF     		nop
 1493              	.LBE36:
 1494              	.LBB37:
 1495              		.loc 10 116 0 is_stmt 1
 1496 02d2 039B     		ldr	r3, [sp, #12]
 1497 02d4 2033     		adds	r3, r3, #32
 1498 02d6 05AA     		add	r2, sp, #20
 1499 02d8 1046     		mov	r0, r2
 1500 02da 1946     		mov	r1, r3
 1501 02dc FFF7FEFF 		bl	_ZN3r2p10StaticListINS_16RemoteSubscriberEE5beginEv
 1502 02e0 1CE0     		b	.L91
 1503              	.L94:
 1504              		.loc 10 127 0
 1505 02e2 0298     		ldr	r0, [sp, #8]
 1506 02e4 FFF7FEFF 		bl	_ZN3r2p7Message7acquireEv
 1507              		.loc 10 128 0
 1508 02e8 05AB     		add	r3, sp, #20
 1509 02ea 1846     		mov	r0, r3
 1510 02ec FFF7FEFF 		bl	_ZNK3r2p10StaticListINS_16RemoteSubscriberEE8IteratorptEv
 1511 02f0 0346     		mov	r3, r0
 1512 02f2 1A46     		mov	r2, r3
 1513 02f4 1368     		ldr	r3, [r2]
 1514 02f6 0C33     		adds	r3, r3, #12
 1515 02f8 1B68     		ldr	r3, [r3]
 1516 02fa 1046     		mov	r0, r2
 1517 02fc 0299     		ldr	r1, [sp, #8]
 1518 02fe 019A     		ldr	r2, [sp, #4]
 1519 0300 9847     		blx	r3
 1520 0302 0346     		mov	r3, r0
 1521 0304 83F00103 		eor	r3, r3, #1
 1522 0308 DBB2     		uxtb	r3, r3
 1523 030a 002B     		cmp	r3, #0
 1524 030c 02D0     		beq	.L93
 1525              		.loc 10 129 0
 1526 030e 0298     		ldr	r0, [sp, #8]
 1527 0310 FFF7FEFF 		bl	_ZN3r2p7Message7releaseEv
 1528              	.L93:
 1529              		.loc 10 116 0 discriminator 2
 1530 0314 05AB     		add	r3, sp, #20
 1531 0316 1846     		mov	r0, r3
 1532 0318 FFF7FEFF 		bl	_ZN3r2p10StaticListINS_16RemoteSubscriberEE8IteratorppEv
 1533              	.L91:
 1534              		.loc 10 117 0 discriminator 1
 1535 031c 039B     		ldr	r3, [sp, #12]
 1536 031e 2033     		adds	r3, r3, #32
ARM GAS  /tmp/ccm6ijpY.s 			page 28


 1537 0320 07AA     		add	r2, sp, #28
 1538 0322 1046     		mov	r0, r2
 1539 0324 1946     		mov	r1, r3
 1540 0326 FFF7FEFF 		bl	_ZN3r2p10StaticListINS_16RemoteSubscriberEE3endEv
 1541              		.loc 10 116 0 discriminator 1
 1542 032a 05AA     		add	r2, sp, #20
 1543 032c 07AB     		add	r3, sp, #28
 1544 032e 1046     		mov	r0, r2
 1545 0330 1946     		mov	r1, r3
 1546 0332 FFF7FEFF 		bl	_ZNK3r2p10StaticListINS_16RemoteSubscriberEE8IteratorneERKS3_
 1547 0336 0346     		mov	r3, r0
 1548 0338 002B     		cmp	r3, #0
 1549 033a D2D1     		bne	.L94
 1550              	.LBE37:
 1551              		.loc 10 133 0
 1552 033c 0125     		movs	r5, #1
 1553              	.L92:
 1554 033e 2B46     		mov	r3, r5
 1555              	.LBE35:
 1556              		.loc 10 134 0 discriminator 3
 1557 0340 1846     		mov	r0, r3
 1558 0342 09B0     		add	sp, sp, #36
 1559              		.cfi_def_cfa_offset 12
 1560              		@ sp needed
 1561 0344 30BD     		pop	{r4, r5, pc}
 1562              		.cfi_endproc
 1563              	.LFE684:
 1564              		.size	_ZN3r2p5Topic14notify_remotesERNS_7MessageERKNS_4TimeE, .-_ZN3r2p5Topic14notify_remotesERNS_
 1565 0346 00BF     		.align	2
 1566              		.global	_ZN3r2p5Topic12forward_copyERKNS_7MessageERKNS_4TimeE
 1567              		.thumb
 1568              		.thumb_func
 1569              		.type	_ZN3r2p5Topic12forward_copyERKNS_7MessageERKNS_4TimeE, %function
 1570              	_ZN3r2p5Topic12forward_copyERKNS_7MessageERKNS_4TimeE:
 1571              	.LFB685:
 1572              		.loc 10 137 0
 1573              		.cfi_startproc
 1574              		@ args = 0, pretend = 0, frame = 32
 1575              		@ frame_needed = 0, uses_anonymous_args = 0
 1576 0348 10B5     		push	{r4, lr}
 1577              		.cfi_def_cfa_offset 8
 1578              		.cfi_offset 4, -8
 1579              		.cfi_offset 14, -4
 1580 034a 88B0     		sub	sp, sp, #32
 1581              		.cfi_def_cfa_offset 40
 1582 034c 0390     		str	r0, [sp, #12]
 1583 034e 0291     		str	r1, [sp, #8]
 1584 0350 0192     		str	r2, [sp, #4]
 1585              	.LBB38:
 1586              		.loc 10 139 0
 1587 0352 0123     		movs	r3, #1
 1588 0354 8DF81F30 		strb	r3, [sp, #31]
 1589              	.LBB39:
 1590              		.loc 10 141 0
 1591 0358 039B     		ldr	r3, [sp, #12]
 1592 035a 2033     		adds	r3, r3, #32
 1593 035c 05AA     		add	r2, sp, #20
ARM GAS  /tmp/ccm6ijpY.s 			page 29


 1594 035e 1046     		mov	r0, r2
 1595 0360 1946     		mov	r1, r3
 1596 0362 FFF7FEFF 		bl	_ZN3r2p10StaticListINS_16RemoteSubscriberEE5beginEv
 1597 0366 47E0     		b	.L97
 1598              	.L100:
 1599              	.LBB40:
 1600              		.loc 10 152 0
 1601 0368 04AB     		add	r3, sp, #16
 1602 036a 0398     		ldr	r0, [sp, #12]
 1603 036c 1946     		mov	r1, r3
 1604 036e FFF7FEFF 		bl	_ZN3r2p5Topic5allocINS_7MessageEEEbRPT_
 1605 0372 0346     		mov	r3, r0
 1606 0374 002B     		cmp	r3, #0
 1607 0376 38D0     		beq	.L98
 1608              		.loc 10 153 0
 1609 0378 049C     		ldr	r4, [sp, #16]
 1610 037a 0398     		ldr	r0, [sp, #12]
 1611 037c FFF7FEFF 		bl	_ZNK3r2p5Topic13get_type_sizeEv
 1612 0380 0346     		mov	r3, r0
 1613 0382 2046     		mov	r0, r4
 1614 0384 0299     		ldr	r1, [sp, #8]
 1615 0386 1A46     		mov	r2, r3
 1616 0388 FFF7FEFF 		bl	_ZN3r2p7Message4copyERS0_RKS0_j
 1617              		.loc 10 154 0
 1618 038c 049C     		ldr	r4, [sp, #16]
 1619 038e 05AB     		add	r3, sp, #20
 1620 0390 1846     		mov	r0, r3
 1621 0392 FFF7FEFF 		bl	_ZNK3r2p10StaticListINS_16RemoteSubscriberEE8IteratorptEv
 1622 0396 0346     		mov	r3, r0
 1623 0398 1846     		mov	r0, r3
 1624 039a FFF7FEFF 		bl	_ZNK3r2p16RemoteSubscriber13get_transportEv
 1625 039e 0346     		mov	r3, r0
 1626 03a0 0398     		ldr	r0, [sp, #12]
 1627 03a2 2146     		mov	r1, r4
 1628 03a4 1A46     		mov	r2, r3
 1629 03a6 FFF7FEFF 		bl	_ZNK3r2p5Topic16patch_pubsub_msgERNS_7MessageERNS_9TransportE
 1630              		.loc 10 155 0
 1631 03aa 049B     		ldr	r3, [sp, #16]
 1632 03ac 1846     		mov	r0, r3
 1633 03ae FFF7FEFF 		bl	_ZN3r2p7Message7acquireEv
 1634              		.loc 10 156 0
 1635 03b2 05AB     		add	r3, sp, #20
 1636 03b4 1846     		mov	r0, r3
 1637 03b6 FFF7FEFF 		bl	_ZNK3r2p10StaticListINS_16RemoteSubscriberEE8IteratorptEv
 1638 03ba 0346     		mov	r3, r0
 1639 03bc 1A46     		mov	r2, r3
 1640 03be 1368     		ldr	r3, [r2]
 1641 03c0 0C33     		adds	r3, r3, #12
 1642 03c2 1B68     		ldr	r3, [r3]
 1643 03c4 0499     		ldr	r1, [sp, #16]
 1644 03c6 1046     		mov	r0, r2
 1645 03c8 019A     		ldr	r2, [sp, #4]
 1646 03ca 9847     		blx	r3
 1647 03cc 0346     		mov	r3, r0
 1648 03ce 83F00103 		eor	r3, r3, #1
 1649 03d2 DBB2     		uxtb	r3, r3
 1650 03d4 002B     		cmp	r3, #0
ARM GAS  /tmp/ccm6ijpY.s 			page 30


 1651 03d6 0BD0     		beq	.L99
 1652              		.loc 10 157 0
 1653 03d8 049B     		ldr	r3, [sp, #16]
 1654 03da 0398     		ldr	r0, [sp, #12]
 1655 03dc 1946     		mov	r1, r3
 1656 03de FFF7FEFF 		bl	_ZN3r2p5Topic4freeERNS_7MessageE
 1657              		.loc 10 158 0
 1658 03e2 0023     		movs	r3, #0
 1659 03e4 8DF81F30 		strb	r3, [sp, #31]
 1660 03e8 02E0     		b	.L99
 1661              	.L98:
 1662              		.loc 10 161 0
 1663 03ea 0023     		movs	r3, #0
 1664 03ec 8DF81F30 		strb	r3, [sp, #31]
 1665              	.L99:
 1666              	.LBE40:
 1667              		.loc 10 141 0 discriminator 1
 1668 03f0 05AB     		add	r3, sp, #20
 1669 03f2 1846     		mov	r0, r3
 1670 03f4 FFF7FEFF 		bl	_ZN3r2p10StaticListINS_16RemoteSubscriberEE8IteratorppEv
 1671              	.L97:
 1672              		.loc 10 142 0 discriminator 2
 1673 03f8 039B     		ldr	r3, [sp, #12]
 1674 03fa 2033     		adds	r3, r3, #32
 1675 03fc 06AA     		add	r2, sp, #24
 1676 03fe 1046     		mov	r0, r2
 1677 0400 1946     		mov	r1, r3
 1678 0402 FFF7FEFF 		bl	_ZN3r2p10StaticListINS_16RemoteSubscriberEE3endEv
 1679              		.loc 10 141 0 discriminator 2
 1680 0406 05AA     		add	r2, sp, #20
 1681 0408 06AB     		add	r3, sp, #24
 1682 040a 1046     		mov	r0, r2
 1683 040c 1946     		mov	r1, r3
 1684 040e FFF7FEFF 		bl	_ZNK3r2p10StaticListINS_16RemoteSubscriberEE8IteratorneERKS3_
 1685 0412 0346     		mov	r3, r0
 1686 0414 002B     		cmp	r3, #0
 1687 0416 A7D1     		bne	.L100
 1688              	.LBE39:
 1689              		.loc 10 165 0
 1690 0418 9DF81F30 		ldrb	r3, [sp, #31]	@ zero_extendqisi2
 1691              	.LBE38:
 1692              		.loc 10 166 0
 1693 041c 1846     		mov	r0, r3
 1694 041e 08B0     		add	sp, sp, #32
 1695              		.cfi_def_cfa_offset 8
 1696              		@ sp needed
 1697 0420 10BD     		pop	{r4, pc}
 1698              		.cfi_endproc
 1699              	.LFE685:
 1700              		.size	_ZN3r2p5Topic12forward_copyERKNS_7MessageERKNS_4TimeE, .-_ZN3r2p5Topic12forward_copyERKNS_7M
 1701 0422 00BF     		.align	2
 1702              		.global	_ZN3r2p5Topic9advertiseERNS_14LocalPublisherERKNS_4TimeE
 1703              		.thumb
 1704              		.thumb_func
 1705              		.type	_ZN3r2p5Topic9advertiseERNS_14LocalPublisherERKNS_4TimeE, %function
 1706              	_ZN3r2p5Topic9advertiseERNS_14LocalPublisherERKNS_4TimeE:
 1707              	.LFB686:
ARM GAS  /tmp/ccm6ijpY.s 			page 31


 1708              		.loc 10 169 0
 1709              		.cfi_startproc
 1710              		@ args = 0, pretend = 0, frame = 16
 1711              		@ frame_needed = 0, uses_anonymous_args = 0
 1712 0424 00B5     		push	{lr}
 1713              		.cfi_def_cfa_offset 4
 1714              		.cfi_offset 14, -4
 1715 0426 85B0     		sub	sp, sp, #20
 1716              		.cfi_def_cfa_offset 24
 1717 0428 0390     		str	r0, [sp, #12]
 1718 042a 0291     		str	r1, [sp, #8]
 1719 042c 0192     		str	r2, [sp, #4]
 1720              		.loc 10 172 0
 1721 042e FFF7FEFF 		bl	_ZN3r2p7SysLock7acquireEv
 1722              		.loc 10 173 0
 1723 0432 039B     		ldr	r3, [sp, #12]
 1724 0434 0433     		adds	r3, r3, #4
 1725 0436 1846     		mov	r0, r3
 1726 0438 0199     		ldr	r1, [sp, #4]
 1727 043a FFF7FEFF 		bl	_ZN3r2pgtERKNS_4TimeES2_
 1728 043e 0346     		mov	r3, r0
 1729 0440 002B     		cmp	r3, #0
 1730 0442 05D0     		beq	.L103
 1731              		.loc 10 174 0
 1732 0444 039B     		ldr	r3, [sp, #12]
 1733 0446 0433     		adds	r3, r3, #4
 1734 0448 1846     		mov	r0, r3
 1735 044a 0199     		ldr	r1, [sp, #4]
 1736 044c FFF7FEFF 		bl	_ZN3r2p4TimeaSERKS0_
 1737              	.L103:
 1738              		.loc 10 176 0
 1739 0450 039B     		ldr	r3, [sp, #12]
 1740 0452 5B69     		ldr	r3, [r3, #20]
 1741 0454 5A1C     		adds	r2, r3, #1
 1742 0456 039B     		ldr	r3, [sp, #12]
 1743 0458 5A61     		str	r2, [r3, #20]
 1744              		.loc 10 177 0
 1745 045a FFF7FEFF 		bl	_ZN3r2p7SysLock7releaseEv
 1746              		.loc 10 178 0
 1747 045e 05B0     		add	sp, sp, #20
 1748              		.cfi_def_cfa_offset 4
 1749              		@ sp needed
 1750 0460 5DF804FB 		ldr	pc, [sp], #4
 1751              		.cfi_endproc
 1752              	.LFE686:
 1753              		.size	_ZN3r2p5Topic9advertiseERNS_14LocalPublisherERKNS_4TimeE, .-_ZN3r2p5Topic9advertiseERNS_14Lo
 1754              		.align	2
 1755              		.global	_ZN3r2p5Topic9advertiseERNS_15RemotePublisherERKNS_4TimeE
 1756              		.thumb
 1757              		.thumb_func
 1758              		.type	_ZN3r2p5Topic9advertiseERNS_15RemotePublisherERKNS_4TimeE, %function
 1759              	_ZN3r2p5Topic9advertiseERNS_15RemotePublisherERKNS_4TimeE:
 1760              	.LFB687:
 1761              		.loc 10 181 0
 1762              		.cfi_startproc
 1763              		@ args = 0, pretend = 0, frame = 16
 1764              		@ frame_needed = 0, uses_anonymous_args = 0
ARM GAS  /tmp/ccm6ijpY.s 			page 32


 1765 0464 00B5     		push	{lr}
 1766              		.cfi_def_cfa_offset 4
 1767              		.cfi_offset 14, -4
 1768 0466 85B0     		sub	sp, sp, #20
 1769              		.cfi_def_cfa_offset 24
 1770 0468 0390     		str	r0, [sp, #12]
 1771 046a 0291     		str	r1, [sp, #8]
 1772 046c 0192     		str	r2, [sp, #4]
 1773              		.loc 10 184 0
 1774 046e FFF7FEFF 		bl	_ZN3r2p7SysLock7acquireEv
 1775              		.loc 10 185 0
 1776 0472 039B     		ldr	r3, [sp, #12]
 1777 0474 0433     		adds	r3, r3, #4
 1778 0476 1846     		mov	r0, r3
 1779 0478 0199     		ldr	r1, [sp, #4]
 1780 047a FFF7FEFF 		bl	_ZN3r2pgtERKNS_4TimeES2_
 1781 047e 0346     		mov	r3, r0
 1782 0480 002B     		cmp	r3, #0
 1783 0482 05D0     		beq	.L105
 1784              		.loc 10 186 0
 1785 0484 039B     		ldr	r3, [sp, #12]
 1786 0486 0433     		adds	r3, r3, #4
 1787 0488 1846     		mov	r0, r3
 1788 048a 0199     		ldr	r1, [sp, #4]
 1789 048c FFF7FEFF 		bl	_ZN3r2p4TimeaSERKS0_
 1790              	.L105:
 1791              		.loc 10 188 0
 1792 0490 039B     		ldr	r3, [sp, #12]
 1793 0492 9B69     		ldr	r3, [r3, #24]
 1794 0494 5A1C     		adds	r2, r3, #1
 1795 0496 039B     		ldr	r3, [sp, #12]
 1796 0498 9A61     		str	r2, [r3, #24]
 1797              		.loc 10 189 0
 1798 049a FFF7FEFF 		bl	_ZN3r2p7SysLock7releaseEv
 1799              		.loc 10 190 0
 1800 049e 05B0     		add	sp, sp, #20
 1801              		.cfi_def_cfa_offset 4
 1802              		@ sp needed
 1803 04a0 5DF804FB 		ldr	pc, [sp], #4
 1804              		.cfi_endproc
 1805              	.LFE687:
 1806              		.size	_ZN3r2p5Topic9advertiseERNS_15RemotePublisherERKNS_4TimeE, .-_ZN3r2p5Topic9advertiseERNS_15R
 1807              		.align	2
 1808              		.global	_ZN3r2p5Topic9subscribeERNS_15LocalSubscriberEj
 1809              		.thumb
 1810              		.thumb_func
 1811              		.type	_ZN3r2p5Topic9subscribeERNS_15LocalSubscriberEj, %function
 1812              	_ZN3r2p5Topic9subscribeERNS_15LocalSubscriberEj:
 1813              	.LFB688:
 1814              		.loc 10 193 0
 1815              		.cfi_startproc
 1816              		@ args = 0, pretend = 0, frame = 16
 1817              		@ frame_needed = 0, uses_anonymous_args = 0
 1818 04a4 00B5     		push	{lr}
 1819              		.cfi_def_cfa_offset 4
 1820              		.cfi_offset 14, -4
 1821 04a6 85B0     		sub	sp, sp, #20
ARM GAS  /tmp/ccm6ijpY.s 			page 33


 1822              		.cfi_def_cfa_offset 24
 1823 04a8 0390     		str	r0, [sp, #12]
 1824 04aa 0291     		str	r1, [sp, #8]
 1825 04ac 0192     		str	r2, [sp, #4]
 1826              		.loc 10 195 0
 1827 04ae FFF7FEFF 		bl	_ZN3r2p7SysLock7acquireEv
 1828              		.loc 10 196 0
 1829 04b2 039B     		ldr	r3, [sp, #12]
 1830 04b4 5A6A     		ldr	r2, [r3, #36]
 1831 04b6 019B     		ldr	r3, [sp, #4]
 1832 04b8 9A42     		cmp	r2, r3
 1833 04ba 02D2     		bcs	.L107
 1834              		.loc 10 197 0
 1835 04bc 039B     		ldr	r3, [sp, #12]
 1836 04be 019A     		ldr	r2, [sp, #4]
 1837 04c0 5A62     		str	r2, [r3, #36]
 1838              	.L107:
 1839              		.loc 10 199 0
 1840 04c2 039B     		ldr	r3, [sp, #12]
 1841 04c4 03F11C02 		add	r2, r3, #28
 1842 04c8 029B     		ldr	r3, [sp, #8]
 1843 04ca 3033     		adds	r3, r3, #48
 1844 04cc 1046     		mov	r0, r2
 1845 04ce 1946     		mov	r1, r3
 1846 04d0 FFF7FEFF 		bl	_ZN3r2p10StaticListINS_15LocalSubscriberEE11link_unsafeERNS2_4LinkE
 1847              		.loc 10 200 0
 1848 04d4 FFF7FEFF 		bl	_ZN3r2p7SysLock7releaseEv
 1849              		.loc 10 201 0
 1850 04d8 05B0     		add	sp, sp, #20
 1851              		.cfi_def_cfa_offset 4
 1852              		@ sp needed
 1853 04da 5DF804FB 		ldr	pc, [sp], #4
 1854              		.cfi_endproc
 1855              	.LFE688:
 1856              		.size	_ZN3r2p5Topic9subscribeERNS_15LocalSubscriberEj, .-_ZN3r2p5Topic9subscribeERNS_15LocalSubscr
 1857 04de 00BF     		.align	2
 1858              		.global	_ZN3r2p5Topic9subscribeERNS_16RemoteSubscriberEj
 1859              		.thumb
 1860              		.thumb_func
 1861              		.type	_ZN3r2p5Topic9subscribeERNS_16RemoteSubscriberEj, %function
 1862              	_ZN3r2p5Topic9subscribeERNS_16RemoteSubscriberEj:
 1863              	.LFB689:
 1864              		.loc 10 204 0
 1865              		.cfi_startproc
 1866              		@ args = 0, pretend = 0, frame = 16
 1867              		@ frame_needed = 0, uses_anonymous_args = 0
 1868 04e0 00B5     		push	{lr}
 1869              		.cfi_def_cfa_offset 4
 1870              		.cfi_offset 14, -4
 1871 04e2 85B0     		sub	sp, sp, #20
 1872              		.cfi_def_cfa_offset 24
 1873 04e4 0390     		str	r0, [sp, #12]
 1874 04e6 0291     		str	r1, [sp, #8]
 1875 04e8 0192     		str	r2, [sp, #4]
 1876              		.loc 10 206 0
 1877 04ea FFF7FEFF 		bl	_ZN3r2p7SysLock7acquireEv
 1878              		.loc 10 207 0
ARM GAS  /tmp/ccm6ijpY.s 			page 34


 1879 04ee 039B     		ldr	r3, [sp, #12]
 1880 04f0 5A6A     		ldr	r2, [r3, #36]
 1881 04f2 019B     		ldr	r3, [sp, #4]
 1882 04f4 9A42     		cmp	r2, r3
 1883 04f6 02D2     		bcs	.L109
 1884              		.loc 10 208 0
 1885 04f8 039B     		ldr	r3, [sp, #12]
 1886 04fa 019A     		ldr	r2, [sp, #4]
 1887 04fc 5A62     		str	r2, [r3, #36]
 1888              	.L109:
 1889              		.loc 10 210 0
 1890 04fe 039B     		ldr	r3, [sp, #12]
 1891 0500 03F12002 		add	r2, r3, #32
 1892 0504 029B     		ldr	r3, [sp, #8]
 1893 0506 1433     		adds	r3, r3, #20
 1894 0508 1046     		mov	r0, r2
 1895 050a 1946     		mov	r1, r3
 1896 050c FFF7FEFF 		bl	_ZN3r2p10StaticListINS_16RemoteSubscriberEE11link_unsafeERNS2_4LinkE
 1897              		.loc 10 211 0
 1898 0510 FFF7FEFF 		bl	_ZN3r2p7SysLock7releaseEv
 1899              		.loc 10 212 0
 1900 0514 05B0     		add	sp, sp, #20
 1901              		.cfi_def_cfa_offset 4
 1902              		@ sp needed
 1903 0516 5DF804FB 		ldr	pc, [sp], #4
 1904              		.cfi_endproc
 1905              	.LFE689:
 1906              		.size	_ZN3r2p5Topic9subscribeERNS_16RemoteSubscriberEj, .-_ZN3r2p5Topic9subscribeERNS_16RemoteSubs
 1907 051a 00BF     		.align	2
 1908              		.global	_ZNK3r2p5Topic16patch_pubsub_msgERNS_7MessageERNS_9TransportE
 1909              		.thumb
 1910              		.thumb_func
 1911              		.type	_ZNK3r2p5Topic16patch_pubsub_msgERNS_7MessageERNS_9TransportE, %function
 1912              	_ZNK3r2p5Topic16patch_pubsub_msgERNS_7MessageERNS_9TransportE:
 1913              	.LFB690:
 1914              		.loc 10 215 0
 1915              		.cfi_startproc
 1916              		@ args = 0, pretend = 0, frame = 24
 1917              		@ frame_needed = 0, uses_anonymous_args = 0
 1918 051c 00B5     		push	{lr}
 1919              		.cfi_def_cfa_offset 4
 1920              		.cfi_offset 14, -4
 1921 051e 87B0     		sub	sp, sp, #28
 1922              		.cfi_def_cfa_offset 32
 1923 0520 0390     		str	r0, [sp, #12]
 1924 0522 0291     		str	r1, [sp, #8]
 1925 0524 0192     		str	r2, [sp, #4]
 1926              	.LBB41:
 1927              		.loc 10 217 0
 1928 0526 1548     		ldr	r0, .L115
 1929 0528 FFF7FEFF 		bl	_ZN3r2p10Middleware14get_mgmt_topicEv
 1930 052c 0246     		mov	r2, r0
 1931 052e 039B     		ldr	r3, [sp, #12]
 1932 0530 9A42     		cmp	r2, r3
 1933 0532 14BF     		ite	ne
 1934 0534 0123     		movne	r3, #1
 1935 0536 0023     		moveq	r3, #0
ARM GAS  /tmp/ccm6ijpY.s 			page 35


 1936 0538 DBB2     		uxtb	r3, r3
 1937 053a 002B     		cmp	r3, #0
 1938 053c 00D0     		beq	.L111
 1939 053e 1AE0     		b	.L110
 1940              	.L111:
 1941              		.loc 10 219 0
 1942 0540 029B     		ldr	r3, [sp, #8]
 1943 0542 0593     		str	r3, [sp, #20]
 1944              	.LBB42:
 1945              		.loc 10 221 0
 1946 0544 059B     		ldr	r3, [sp, #20]
 1947 0546 93F82130 		ldrb	r3, [r3, #33]	@ zero_extendqisi2
 1948 054a 213B     		subs	r3, r3, #33
 1949 054c 022B     		cmp	r3, #2
 1950 054e 12D8     		bhi	.L110
 1951              	.LBB43:
 1952              	.LBB44:
 1953              		.loc 10 226 0
 1954 0550 059B     		ldr	r3, [sp, #20]
 1955 0552 0233     		adds	r3, r3, #2
 1956 0554 0948     		ldr	r0, .L115
 1957 0556 1946     		mov	r1, r3
 1958 0558 FFF7FEFF 		bl	_ZN3r2p10Middleware10find_topicEPKc
 1959 055c 0490     		str	r0, [sp, #16]
 1960              		.loc 10 227 0
 1961 055e 049B     		ldr	r3, [sp, #16]
 1962 0560 002B     		cmp	r3, #0
 1963 0562 07D0     		beq	.L114
 1964              		.loc 10 228 0
 1965 0564 019B     		ldr	r3, [sp, #4]
 1966 0566 1B68     		ldr	r3, [r3]
 1967 0568 1B68     		ldr	r3, [r3]
 1968 056a 059A     		ldr	r2, [sp, #20]
 1969 056c 1632     		adds	r2, r2, #22
 1970 056e 0198     		ldr	r0, [sp, #4]
 1971 0570 0499     		ldr	r1, [sp, #16]
 1972 0572 9847     		blx	r3
 1973              	.L114:
 1974              		.loc 10 230 0
 1975 0574 00BF     		nop
 1976              	.L110:
 1977              	.LBE44:
 1978              	.LBE43:
 1979              	.LBE42:
 1980              	.LBE41:
 1981              		.loc 10 233 0
 1982 0576 07B0     		add	sp, sp, #28
 1983              		.cfi_def_cfa_offset 4
 1984              		@ sp needed
 1985 0578 5DF804FB 		ldr	pc, [sp], #4
 1986              	.L116:
 1987              		.align	2
 1988              	.L115:
 1989 057c 00000000 		.word	_ZN3r2p10Middleware8instanceE
 1990              		.cfi_endproc
 1991              	.LFE690:
 1992              		.size	_ZNK3r2p5Topic16patch_pubsub_msgERNS_7MessageERNS_9TransportE, .-_ZNK3r2p5Topic16patch_pubsu
ARM GAS  /tmp/ccm6ijpY.s 			page 36


 1993              		.align	2
 1994              		.global	_ZN3r2p5TopicC2EPKcjb
 1995              		.thumb
 1996              		.thumb_func
 1997              		.type	_ZN3r2p5TopicC2EPKcjb, %function
 1998              	_ZN3r2p5TopicC2EPKcjb:
 1999              	.LFB701:
 2000              		.loc 10 236 0
 2001              		.cfi_startproc
 2002              		@ args = 0, pretend = 0, frame = 16
 2003              		@ frame_needed = 0, uses_anonymous_args = 0
 2004 0580 00B5     		push	{lr}
 2005              		.cfi_def_cfa_offset 4
 2006              		.cfi_offset 14, -4
 2007 0582 85B0     		sub	sp, sp, #20
 2008              		.cfi_def_cfa_offset 24
 2009 0584 0390     		str	r0, [sp, #12]
 2010 0586 0291     		str	r1, [sp, #8]
 2011 0588 0192     		str	r2, [sp, #4]
 2012 058a 8DF80330 		strb	r3, [sp, #3]
 2013              	.LBB45:
 2014              		.loc 10 247 0
 2015 058e 0398     		ldr	r0, [sp, #12]
 2016 0590 FFF7FEFF 		bl	_ZN3r2p10UncopyableC2Ev
 2017 0594 039B     		ldr	r3, [sp, #12]
 2018 0596 029A     		ldr	r2, [sp, #8]
 2019 0598 1A60     		str	r2, [r3]
 2020 059a 039B     		ldr	r3, [sp, #12]
 2021 059c 0433     		adds	r3, r3, #4
 2022 059e 1846     		mov	r0, r3
 2023 05a0 1949     		ldr	r1, .L120
 2024 05a2 FFF7FEFF 		bl	_ZN3r2p4TimeC1ERKS0_
 2025 05a6 039B     		ldr	r3, [sp, #12]
 2026 05a8 0833     		adds	r3, r3, #8
 2027 05aa 1846     		mov	r0, r3
 2028 05ac 0199     		ldr	r1, [sp, #4]
 2029 05ae FFF7FEFF 		bl	_ZN3r2p11MemoryPool_C1Ej
 2030 05b2 039B     		ldr	r3, [sp, #12]
 2031 05b4 0022     		movs	r2, #0
 2032 05b6 5A61     		str	r2, [r3, #20]
 2033 05b8 039B     		ldr	r3, [sp, #12]
 2034 05ba 0022     		movs	r2, #0
 2035 05bc 9A61     		str	r2, [r3, #24]
 2036 05be 039B     		ldr	r3, [sp, #12]
 2037 05c0 1C33     		adds	r3, r3, #28
 2038 05c2 1846     		mov	r0, r3
 2039 05c4 FFF7FEFF 		bl	_ZN3r2p10StaticListINS_15LocalSubscriberEEC1Ev
 2040 05c8 039B     		ldr	r3, [sp, #12]
 2041 05ca 2033     		adds	r3, r3, #32
 2042 05cc 1846     		mov	r0, r3
 2043 05ce FFF7FEFF 		bl	_ZN3r2p10StaticListINS_16RemoteSubscriberEEC1Ev
 2044 05d2 039B     		ldr	r3, [sp, #12]
 2045 05d4 0022     		movs	r2, #0
 2046 05d6 5A62     		str	r2, [r3, #36]
 2047 05d8 039B     		ldr	r3, [sp, #12]
 2048 05da 2833     		adds	r3, r3, #40
 2049 05dc 1846     		mov	r0, r3
ARM GAS  /tmp/ccm6ijpY.s 			page 37


 2050 05de 0399     		ldr	r1, [sp, #12]
 2051 05e0 FFF7FEFF 		bl	_ZN3r2p10StaticListINS_5TopicEE4LinkC1ERS1_
 2052              		.loc 10 249 0
 2053 05e4 0298     		ldr	r0, [sp, #8]
 2054 05e6 1021     		movs	r1, #16
 2055 05e8 FFF7FEFF 		bl	_ZN3r2p13is_identifierEPKcj
 2056 05ec 0346     		mov	r3, r0
 2057 05ee 83F00103 		eor	r3, r3, #1
 2058 05f2 DBB2     		uxtb	r3, r3
 2059 05f4 002B     		cmp	r3, #0
 2060 05f6 02D0     		beq	.L118
 2061              		.loc 10 249 0 is_stmt 0 discriminator 1
 2062 05f8 0448     		ldr	r0, .L120+4
 2063 05fa FFF7FEFF 		bl	chDbgPanic
 2064              	.L118:
 2065              	.LBE45:
 2066              		.loc 10 252 0 is_stmt 1
 2067 05fe 039B     		ldr	r3, [sp, #12]
 2068 0600 1846     		mov	r0, r3
 2069 0602 05B0     		add	sp, sp, #20
 2070              		.cfi_def_cfa_offset 4
 2071              		@ sp needed
 2072 0604 5DF804FB 		ldr	pc, [sp], #4
 2073              	.L121:
 2074              		.align	2
 2075              	.L120:
 2076 0608 00000000 		.word	_ZN3r2p4Time8INFINITEE
 2077 060c 00000000 		.word	.LC0
 2078              		.cfi_endproc
 2079              	.LFE701:
 2080              		.size	_ZN3r2p5TopicC2EPKcjb, .-_ZN3r2p5TopicC2EPKcjb
 2081              		.global	_ZN3r2p5TopicC1EPKcjb
 2082              		.thumb_set _ZN3r2p5TopicC1EPKcjb,_ZN3r2p5TopicC2EPKcjb
 2083              		.section	.text._ZNK3r2p10StaticListINS_15LocalSubscriberEE15is_empty_unsafeEv,"axG",%progbits,_ZNK
 2084              		.align	2
 2085              		.weak	_ZNK3r2p10StaticListINS_15LocalSubscriberEE15is_empty_unsafeEv
 2086              		.thumb
 2087              		.thumb_func
 2088              		.type	_ZNK3r2p10StaticListINS_15LocalSubscriberEE15is_empty_unsafeEv, %function
 2089              	_ZNK3r2p10StaticListINS_15LocalSubscriberEE15is_empty_unsafeEv:
 2090              	.LFB715:
 2091              		.file 11 "/opt/R2P/core/Middleware/include/r2p/StaticList.hpp"
 2092              		.loc 11 401 0
 2093              		.cfi_startproc
 2094              		@ args = 0, pretend = 0, frame = 8
 2095              		@ frame_needed = 0, uses_anonymous_args = 0
 2096              		@ link register save eliminated.
 2097 0000 82B0     		sub	sp, sp, #8
 2098              		.cfi_def_cfa_offset 8
 2099 0002 0190     		str	r0, [sp, #4]
 2100              		.loc 11 402 0
 2101 0004 019B     		ldr	r3, [sp, #4]
 2102 0006 1B68     		ldr	r3, [r3]
 2103 0008 002B     		cmp	r3, #0
 2104 000a 0CBF     		ite	eq
 2105 000c 0123     		moveq	r3, #1
 2106 000e 0023     		movne	r3, #0
ARM GAS  /tmp/ccm6ijpY.s 			page 38


 2107 0010 DBB2     		uxtb	r3, r3
 2108              		.loc 11 403 0
 2109 0012 1846     		mov	r0, r3
 2110 0014 02B0     		add	sp, sp, #8
 2111              		.cfi_def_cfa_offset 0
 2112              		@ sp needed
 2113 0016 7047     		bx	lr
 2114              		.cfi_endproc
 2115              	.LFE715:
 2116              		.size	_ZNK3r2p10StaticListINS_15LocalSubscriberEE15is_empty_unsafeEv, .-_ZNK3r2p10StaticListINS_15
 2117              		.section	.text._ZNK3r2p10StaticListINS_16RemoteSubscriberEE15is_empty_unsafeEv,"axG",%progbits,_ZN
 2118              		.align	2
 2119              		.weak	_ZNK3r2p10StaticListINS_16RemoteSubscriberEE15is_empty_unsafeEv
 2120              		.thumb
 2121              		.thumb_func
 2122              		.type	_ZNK3r2p10StaticListINS_16RemoteSubscriberEE15is_empty_unsafeEv, %function
 2123              	_ZNK3r2p10StaticListINS_16RemoteSubscriberEE15is_empty_unsafeEv:
 2124              	.LFB716:
 2125              		.loc 11 401 0
 2126              		.cfi_startproc
 2127              		@ args = 0, pretend = 0, frame = 8
 2128              		@ frame_needed = 0, uses_anonymous_args = 0
 2129              		@ link register save eliminated.
 2130 0000 82B0     		sub	sp, sp, #8
 2131              		.cfi_def_cfa_offset 8
 2132 0002 0190     		str	r0, [sp, #4]
 2133              		.loc 11 402 0
 2134 0004 019B     		ldr	r3, [sp, #4]
 2135 0006 1B68     		ldr	r3, [r3]
 2136 0008 002B     		cmp	r3, #0
 2137 000a 0CBF     		ite	eq
 2138 000c 0123     		moveq	r3, #1
 2139 000e 0023     		movne	r3, #0
 2140 0010 DBB2     		uxtb	r3, r3
 2141              		.loc 11 403 0
 2142 0012 1846     		mov	r0, r3
 2143 0014 02B0     		add	sp, sp, #8
 2144              		.cfi_def_cfa_offset 0
 2145              		@ sp needed
 2146 0016 7047     		bx	lr
 2147              		.cfi_endproc
 2148              	.LFE716:
 2149              		.size	_ZNK3r2p10StaticListINS_16RemoteSubscriberEE15is_empty_unsafeEv, .-_ZNK3r2p10StaticListINS_1
 2150              		.section	.text._ZN3r2p10StaticListINS_15LocalSubscriberEE12begin_unsafeEv,"axG",%progbits,_ZN3r2p1
 2151              		.align	2
 2152              		.weak	_ZN3r2p10StaticListINS_15LocalSubscriberEE12begin_unsafeEv
 2153              		.thumb
 2154              		.thumb_func
 2155              		.type	_ZN3r2p10StaticListINS_15LocalSubscriberEE12begin_unsafeEv, %function
 2156              	_ZN3r2p10StaticListINS_15LocalSubscriberEE12begin_unsafeEv:
 2157              	.LFB725:
 2158              		.loc 11 435 0
 2159              		.cfi_startproc
 2160              		@ args = 0, pretend = 0, frame = 8
 2161              		@ frame_needed = 0, uses_anonymous_args = 0
 2162 0000 00B5     		push	{lr}
 2163              		.cfi_def_cfa_offset 4
ARM GAS  /tmp/ccm6ijpY.s 			page 39


 2164              		.cfi_offset 14, -4
 2165 0002 83B0     		sub	sp, sp, #12
 2166              		.cfi_def_cfa_offset 16
 2167 0004 0190     		str	r0, [sp, #4]
 2168 0006 0091     		str	r1, [sp]
 2169              		.loc 11 436 0
 2170 0008 0098     		ldr	r0, [sp]
 2171 000a FFF7FEFF 		bl	_ZNK3r2p10StaticListINS_15LocalSubscriberEE15get_head_unsafeEv
 2172 000e 0346     		mov	r3, r0
 2173 0010 0198     		ldr	r0, [sp, #4]
 2174 0012 1946     		mov	r1, r3
 2175 0014 FFF7FEFF 		bl	_ZN3r2p10StaticListINS_15LocalSubscriberEE14IteratorUnsafeC1EPKNS2_4LinkE
 2176              		.loc 11 437 0
 2177 0018 0198     		ldr	r0, [sp, #4]
 2178 001a 03B0     		add	sp, sp, #12
 2179              		.cfi_def_cfa_offset 4
 2180              		@ sp needed
 2181 001c 5DF804FB 		ldr	pc, [sp], #4
 2182              		.cfi_endproc
 2183              	.LFE725:
 2184              		.size	_ZN3r2p10StaticListINS_15LocalSubscriberEE12begin_unsafeEv, .-_ZN3r2p10StaticListINS_15Local
 2185              		.section	.text._ZN3r2p10StaticListINS_15LocalSubscriberEE10end_unsafeEv,"axG",%progbits,_ZN3r2p10S
 2186              		.align	2
 2187              		.weak	_ZN3r2p10StaticListINS_15LocalSubscriberEE10end_unsafeEv
 2188              		.thumb
 2189              		.thumb_func
 2190              		.type	_ZN3r2p10StaticListINS_15LocalSubscriberEE10end_unsafeEv, %function
 2191              	_ZN3r2p10StaticListINS_15LocalSubscriberEE10end_unsafeEv:
 2192              	.LFB729:
 2193              		.loc 11 439 0
 2194              		.cfi_startproc
 2195              		@ args = 0, pretend = 0, frame = 8
 2196              		@ frame_needed = 0, uses_anonymous_args = 0
 2197 0000 00B5     		push	{lr}
 2198              		.cfi_def_cfa_offset 4
 2199              		.cfi_offset 14, -4
 2200 0002 83B0     		sub	sp, sp, #12
 2201              		.cfi_def_cfa_offset 16
 2202 0004 0190     		str	r0, [sp, #4]
 2203 0006 0091     		str	r1, [sp]
 2204              		.loc 11 440 0
 2205 0008 0198     		ldr	r0, [sp, #4]
 2206 000a 0021     		movs	r1, #0
 2207 000c FFF7FEFF 		bl	_ZN3r2p10StaticListINS_15LocalSubscriberEE14IteratorUnsafeC1EPKNS2_4LinkE
 2208              		.loc 11 441 0
 2209 0010 0198     		ldr	r0, [sp, #4]
 2210 0012 03B0     		add	sp, sp, #12
 2211              		.cfi_def_cfa_offset 4
 2212              		@ sp needed
 2213 0014 5DF804FB 		ldr	pc, [sp], #4
 2214              		.cfi_endproc
 2215              	.LFE729:
 2216              		.size	_ZN3r2p10StaticListINS_15LocalSubscriberEE10end_unsafeEv, .-_ZN3r2p10StaticListINS_15LocalSu
 2217              		.section	.text._ZNK3r2p10StaticListINS_15LocalSubscriberEE14IteratorUnsafeneERKS3_,"axG",%progbits
 2218              		.align	2
 2219              		.weak	_ZNK3r2p10StaticListINS_15LocalSubscriberEE14IteratorUnsafeneERKS3_
 2220              		.thumb
ARM GAS  /tmp/ccm6ijpY.s 			page 40


 2221              		.thumb_func
 2222              		.type	_ZNK3r2p10StaticListINS_15LocalSubscriberEE14IteratorUnsafeneERKS3_, %function
 2223              	_ZNK3r2p10StaticListINS_15LocalSubscriberEE14IteratorUnsafeneERKS3_:
 2224              	.LFB730:
 2225              		.loc 11 75 0
 2226              		.cfi_startproc
 2227              		@ args = 0, pretend = 0, frame = 8
 2228              		@ frame_needed = 0, uses_anonymous_args = 0
 2229              		@ link register save eliminated.
 2230 0000 82B0     		sub	sp, sp, #8
 2231              		.cfi_def_cfa_offset 8
 2232 0002 0190     		str	r0, [sp, #4]
 2233 0004 0091     		str	r1, [sp]
 2234              		.loc 11 76 0
 2235 0006 019B     		ldr	r3, [sp, #4]
 2236 0008 1A68     		ldr	r2, [r3]
 2237 000a 009B     		ldr	r3, [sp]
 2238 000c 1B68     		ldr	r3, [r3]
 2239 000e 9A42     		cmp	r2, r3
 2240 0010 14BF     		ite	ne
 2241 0012 0123     		movne	r3, #1
 2242 0014 0023     		moveq	r3, #0
 2243 0016 DBB2     		uxtb	r3, r3
 2244              		.loc 11 77 0
 2245 0018 1846     		mov	r0, r3
 2246 001a 02B0     		add	sp, sp, #8
 2247              		.cfi_def_cfa_offset 0
 2248              		@ sp needed
 2249 001c 7047     		bx	lr
 2250              		.cfi_endproc
 2251              	.LFE730:
 2252              		.size	_ZNK3r2p10StaticListINS_15LocalSubscriberEE14IteratorUnsafeneERKS3_, .-_ZNK3r2p10StaticListI
 2253 001e 00BF     		.section	.text._ZN3r2p10StaticListINS_15LocalSubscriberEE14IteratorUnsafeppEv,"axG",%progbits,_ZN3
 2254              		.align	2
 2255              		.weak	_ZN3r2p10StaticListINS_15LocalSubscriberEE14IteratorUnsafeppEv
 2256              		.thumb
 2257              		.thumb_func
 2258              		.type	_ZN3r2p10StaticListINS_15LocalSubscriberEE14IteratorUnsafeppEv, %function
 2259              	_ZN3r2p10StaticListINS_15LocalSubscriberEE14IteratorUnsafeppEv:
 2260              	.LFB731:
 2261              		.loc 11 60 0
 2262              		.cfi_startproc
 2263              		@ args = 0, pretend = 0, frame = 8
 2264              		@ frame_needed = 0, uses_anonymous_args = 0
 2265              		@ link register save eliminated.
 2266 0000 82B0     		sub	sp, sp, #8
 2267              		.cfi_def_cfa_offset 8
 2268 0002 0190     		str	r0, [sp, #4]
 2269              		.loc 11 61 0
 2270 0004 019B     		ldr	r3, [sp, #4]
 2271 0006 1B68     		ldr	r3, [r3]
 2272 0008 1A68     		ldr	r2, [r3]
 2273 000a 019B     		ldr	r3, [sp, #4]
 2274 000c 1A60     		str	r2, [r3]
 2275              		.loc 11 62 0
 2276 000e 019B     		ldr	r3, [sp, #4]
 2277              		.loc 11 63 0
ARM GAS  /tmp/ccm6ijpY.s 			page 41


 2278 0010 1846     		mov	r0, r3
 2279 0012 02B0     		add	sp, sp, #8
 2280              		.cfi_def_cfa_offset 0
 2281              		@ sp needed
 2282 0014 7047     		bx	lr
 2283              		.cfi_endproc
 2284              	.LFE731:
 2285              		.size	_ZN3r2p10StaticListINS_15LocalSubscriberEE14IteratorUnsafeppEv, .-_ZN3r2p10StaticListINS_15L
 2286 0016 00BF     		.section	.text._ZNK3r2p10StaticListINS_15LocalSubscriberEE14IteratorUnsafeptEv,"axG",%progbits,_ZN
 2287              		.align	2
 2288              		.weak	_ZNK3r2p10StaticListINS_15LocalSubscriberEE14IteratorUnsafeptEv
 2289              		.thumb
 2290              		.thumb_func
 2291              		.type	_ZNK3r2p10StaticListINS_15LocalSubscriberEE14IteratorUnsafeptEv, %function
 2292              	_ZNK3r2p10StaticListINS_15LocalSubscriberEE14IteratorUnsafeptEv:
 2293              	.LFB732:
 2294              		.loc 11 52 0
 2295              		.cfi_startproc
 2296              		@ args = 0, pretend = 0, frame = 8
 2297              		@ frame_needed = 0, uses_anonymous_args = 0
 2298              		@ link register save eliminated.
 2299 0000 82B0     		sub	sp, sp, #8
 2300              		.cfi_def_cfa_offset 8
 2301 0002 0190     		str	r0, [sp, #4]
 2302              		.loc 11 53 0
 2303 0004 019B     		ldr	r3, [sp, #4]
 2304 0006 1B68     		ldr	r3, [r3]
 2305 0008 5B68     		ldr	r3, [r3, #4]
 2306              		.loc 11 54 0
 2307 000a 1846     		mov	r0, r3
 2308 000c 02B0     		add	sp, sp, #8
 2309              		.cfi_def_cfa_offset 0
 2310              		@ sp needed
 2311 000e 7047     		bx	lr
 2312              		.cfi_endproc
 2313              	.LFE732:
 2314              		.size	_ZNK3r2p10StaticListINS_15LocalSubscriberEE14IteratorUnsafeptEv, .-_ZNK3r2p10StaticListINS_1
 2315              		.section	.text._ZN3r2p10StaticListINS_16RemoteSubscriberEE12begin_unsafeEv,"axG",%progbits,_ZN3r2p
 2316              		.align	2
 2317              		.weak	_ZN3r2p10StaticListINS_16RemoteSubscriberEE12begin_unsafeEv
 2318              		.thumb
 2319              		.thumb_func
 2320              		.type	_ZN3r2p10StaticListINS_16RemoteSubscriberEE12begin_unsafeEv, %function
 2321              	_ZN3r2p10StaticListINS_16RemoteSubscriberEE12begin_unsafeEv:
 2322              	.LFB733:
 2323              		.loc 11 435 0
 2324              		.cfi_startproc
 2325              		@ args = 0, pretend = 0, frame = 8
 2326              		@ frame_needed = 0, uses_anonymous_args = 0
 2327 0000 00B5     		push	{lr}
 2328              		.cfi_def_cfa_offset 4
 2329              		.cfi_offset 14, -4
 2330 0002 83B0     		sub	sp, sp, #12
 2331              		.cfi_def_cfa_offset 16
 2332 0004 0190     		str	r0, [sp, #4]
 2333 0006 0091     		str	r1, [sp]
 2334              		.loc 11 436 0
ARM GAS  /tmp/ccm6ijpY.s 			page 42


 2335 0008 0098     		ldr	r0, [sp]
 2336 000a FFF7FEFF 		bl	_ZNK3r2p10StaticListINS_16RemoteSubscriberEE15get_head_unsafeEv
 2337 000e 0346     		mov	r3, r0
 2338 0010 0198     		ldr	r0, [sp, #4]
 2339 0012 1946     		mov	r1, r3
 2340 0014 FFF7FEFF 		bl	_ZN3r2p10StaticListINS_16RemoteSubscriberEE14IteratorUnsafeC1EPKNS2_4LinkE
 2341              		.loc 11 437 0
 2342 0018 0198     		ldr	r0, [sp, #4]
 2343 001a 03B0     		add	sp, sp, #12
 2344              		.cfi_def_cfa_offset 4
 2345              		@ sp needed
 2346 001c 5DF804FB 		ldr	pc, [sp], #4
 2347              		.cfi_endproc
 2348              	.LFE733:
 2349              		.size	_ZN3r2p10StaticListINS_16RemoteSubscriberEE12begin_unsafeEv, .-_ZN3r2p10StaticListINS_16Remo
 2350              		.section	.text._ZN3r2p10StaticListINS_16RemoteSubscriberEE10end_unsafeEv,"axG",%progbits,_ZN3r2p10
 2351              		.align	2
 2352              		.weak	_ZN3r2p10StaticListINS_16RemoteSubscriberEE10end_unsafeEv
 2353              		.thumb
 2354              		.thumb_func
 2355              		.type	_ZN3r2p10StaticListINS_16RemoteSubscriberEE10end_unsafeEv, %function
 2356              	_ZN3r2p10StaticListINS_16RemoteSubscriberEE10end_unsafeEv:
 2357              	.LFB737:
 2358              		.loc 11 439 0
 2359              		.cfi_startproc
 2360              		@ args = 0, pretend = 0, frame = 8
 2361              		@ frame_needed = 0, uses_anonymous_args = 0
 2362 0000 00B5     		push	{lr}
 2363              		.cfi_def_cfa_offset 4
 2364              		.cfi_offset 14, -4
 2365 0002 83B0     		sub	sp, sp, #12
 2366              		.cfi_def_cfa_offset 16
 2367 0004 0190     		str	r0, [sp, #4]
 2368 0006 0091     		str	r1, [sp]
 2369              		.loc 11 440 0
 2370 0008 0198     		ldr	r0, [sp, #4]
 2371 000a 0021     		movs	r1, #0
 2372 000c FFF7FEFF 		bl	_ZN3r2p10StaticListINS_16RemoteSubscriberEE14IteratorUnsafeC1EPKNS2_4LinkE
 2373              		.loc 11 441 0
 2374 0010 0198     		ldr	r0, [sp, #4]
 2375 0012 03B0     		add	sp, sp, #12
 2376              		.cfi_def_cfa_offset 4
 2377              		@ sp needed
 2378 0014 5DF804FB 		ldr	pc, [sp], #4
 2379              		.cfi_endproc
 2380              	.LFE737:
 2381              		.size	_ZN3r2p10StaticListINS_16RemoteSubscriberEE10end_unsafeEv, .-_ZN3r2p10StaticListINS_16Remote
 2382              		.section	.text._ZNK3r2p10StaticListINS_16RemoteSubscriberEE14IteratorUnsafeneERKS3_,"axG",%progbit
 2383              		.align	2
 2384              		.weak	_ZNK3r2p10StaticListINS_16RemoteSubscriberEE14IteratorUnsafeneERKS3_
 2385              		.thumb
 2386              		.thumb_func
 2387              		.type	_ZNK3r2p10StaticListINS_16RemoteSubscriberEE14IteratorUnsafeneERKS3_, %function
 2388              	_ZNK3r2p10StaticListINS_16RemoteSubscriberEE14IteratorUnsafeneERKS3_:
 2389              	.LFB738:
 2390              		.loc 11 75 0
 2391              		.cfi_startproc
ARM GAS  /tmp/ccm6ijpY.s 			page 43


 2392              		@ args = 0, pretend = 0, frame = 8
 2393              		@ frame_needed = 0, uses_anonymous_args = 0
 2394              		@ link register save eliminated.
 2395 0000 82B0     		sub	sp, sp, #8
 2396              		.cfi_def_cfa_offset 8
 2397 0002 0190     		str	r0, [sp, #4]
 2398 0004 0091     		str	r1, [sp]
 2399              		.loc 11 76 0
 2400 0006 019B     		ldr	r3, [sp, #4]
 2401 0008 1A68     		ldr	r2, [r3]
 2402 000a 009B     		ldr	r3, [sp]
 2403 000c 1B68     		ldr	r3, [r3]
 2404 000e 9A42     		cmp	r2, r3
 2405 0010 14BF     		ite	ne
 2406 0012 0123     		movne	r3, #1
 2407 0014 0023     		moveq	r3, #0
 2408 0016 DBB2     		uxtb	r3, r3
 2409              		.loc 11 77 0
 2410 0018 1846     		mov	r0, r3
 2411 001a 02B0     		add	sp, sp, #8
 2412              		.cfi_def_cfa_offset 0
 2413              		@ sp needed
 2414 001c 7047     		bx	lr
 2415              		.cfi_endproc
 2416              	.LFE738:
 2417              		.size	_ZNK3r2p10StaticListINS_16RemoteSubscriberEE14IteratorUnsafeneERKS3_, .-_ZNK3r2p10StaticList
 2418 001e 00BF     		.section	.text._ZN3r2p10StaticListINS_16RemoteSubscriberEE14IteratorUnsafeppEv,"axG",%progbits,_ZN
 2419              		.align	2
 2420              		.weak	_ZN3r2p10StaticListINS_16RemoteSubscriberEE14IteratorUnsafeppEv
 2421              		.thumb
 2422              		.thumb_func
 2423              		.type	_ZN3r2p10StaticListINS_16RemoteSubscriberEE14IteratorUnsafeppEv, %function
 2424              	_ZN3r2p10StaticListINS_16RemoteSubscriberEE14IteratorUnsafeppEv:
 2425              	.LFB739:
 2426              		.loc 11 60 0
 2427              		.cfi_startproc
 2428              		@ args = 0, pretend = 0, frame = 8
 2429              		@ frame_needed = 0, uses_anonymous_args = 0
 2430              		@ link register save eliminated.
 2431 0000 82B0     		sub	sp, sp, #8
 2432              		.cfi_def_cfa_offset 8
 2433 0002 0190     		str	r0, [sp, #4]
 2434              		.loc 11 61 0
 2435 0004 019B     		ldr	r3, [sp, #4]
 2436 0006 1B68     		ldr	r3, [r3]
 2437 0008 1A68     		ldr	r2, [r3]
 2438 000a 019B     		ldr	r3, [sp, #4]
 2439 000c 1A60     		str	r2, [r3]
 2440              		.loc 11 62 0
 2441 000e 019B     		ldr	r3, [sp, #4]
 2442              		.loc 11 63 0
 2443 0010 1846     		mov	r0, r3
 2444 0012 02B0     		add	sp, sp, #8
 2445              		.cfi_def_cfa_offset 0
 2446              		@ sp needed
 2447 0014 7047     		bx	lr
 2448              		.cfi_endproc
ARM GAS  /tmp/ccm6ijpY.s 			page 44


 2449              	.LFE739:
 2450              		.size	_ZN3r2p10StaticListINS_16RemoteSubscriberEE14IteratorUnsafeppEv, .-_ZN3r2p10StaticListINS_16
 2451 0016 00BF     		.section	.text._ZNK3r2p10StaticListINS_16RemoteSubscriberEE14IteratorUnsafeptEv,"axG",%progbits,_Z
 2452              		.align	2
 2453              		.weak	_ZNK3r2p10StaticListINS_16RemoteSubscriberEE14IteratorUnsafeptEv
 2454              		.thumb
 2455              		.thumb_func
 2456              		.type	_ZNK3r2p10StaticListINS_16RemoteSubscriberEE14IteratorUnsafeptEv, %function
 2457              	_ZNK3r2p10StaticListINS_16RemoteSubscriberEE14IteratorUnsafeptEv:
 2458              	.LFB740:
 2459              		.loc 11 52 0
 2460              		.cfi_startproc
 2461              		@ args = 0, pretend = 0, frame = 8
 2462              		@ frame_needed = 0, uses_anonymous_args = 0
 2463              		@ link register save eliminated.
 2464 0000 82B0     		sub	sp, sp, #8
 2465              		.cfi_def_cfa_offset 8
 2466 0002 0190     		str	r0, [sp, #4]
 2467              		.loc 11 53 0
 2468 0004 019B     		ldr	r3, [sp, #4]
 2469 0006 1B68     		ldr	r3, [r3]
 2470 0008 5B68     		ldr	r3, [r3, #4]
 2471              		.loc 11 54 0
 2472 000a 1846     		mov	r0, r3
 2473 000c 02B0     		add	sp, sp, #8
 2474              		.cfi_def_cfa_offset 0
 2475              		@ sp needed
 2476 000e 7047     		bx	lr
 2477              		.cfi_endproc
 2478              	.LFE740:
 2479              		.size	_ZNK3r2p10StaticListINS_16RemoteSubscriberEE14IteratorUnsafeptEv, .-_ZNK3r2p10StaticListINS_
 2480              		.section	.text._ZN3r2p5Topic12alloc_unsafeINS_7MessageEEEbRPT_,"axG",%progbits,_ZN3r2p5Topic12allo
 2481              		.align	2
 2482              		.weak	_ZN3r2p5Topic12alloc_unsafeINS_7MessageEEEbRPT_
 2483              		.thumb
 2484              		.thumb_func
 2485              		.type	_ZN3r2p5Topic12alloc_unsafeINS_7MessageEEEbRPT_, %function
 2486              	_ZN3r2p5Topic12alloc_unsafeINS_7MessageEEEbRPT_:
 2487              	.LFB741:
 2488              		.loc 8 262 0
 2489              		.cfi_startproc
 2490              		@ args = 0, pretend = 0, frame = 8
 2491              		@ frame_needed = 0, uses_anonymous_args = 0
 2492 0000 00B5     		push	{lr}
 2493              		.cfi_def_cfa_offset 4
 2494              		.cfi_offset 14, -4
 2495 0002 83B0     		sub	sp, sp, #12
 2496              		.cfi_def_cfa_offset 16
 2497 0004 0190     		str	r0, [sp, #4]
 2498 0006 0091     		str	r1, [sp]
 2499              		.loc 8 265 0
 2500 0008 0198     		ldr	r0, [sp, #4]
 2501 000a FFF7FEFF 		bl	_ZN3r2p5Topic12alloc_unsafeEv
 2502 000e 0246     		mov	r2, r0
 2503 0010 009B     		ldr	r3, [sp]
 2504 0012 1A60     		str	r2, [r3]
 2505 0014 009B     		ldr	r3, [sp]
ARM GAS  /tmp/ccm6ijpY.s 			page 45


 2506 0016 1B68     		ldr	r3, [r3]
 2507 0018 002B     		cmp	r3, #0
 2508 001a 14BF     		ite	ne
 2509 001c 0123     		movne	r3, #1
 2510 001e 0023     		moveq	r3, #0
 2511 0020 DBB2     		uxtb	r3, r3
 2512              		.loc 8 266 0
 2513 0022 1846     		mov	r0, r3
 2514 0024 03B0     		add	sp, sp, #12
 2515              		.cfi_def_cfa_offset 4
 2516              		@ sp needed
 2517 0026 5DF804FB 		ldr	pc, [sp], #4
 2518              		.cfi_endproc
 2519              	.LFE741:
 2520              		.size	_ZN3r2p5Topic12alloc_unsafeINS_7MessageEEEbRPT_, .-_ZN3r2p5Topic12alloc_unsafeINS_7MessageEE
 2521 002a 00BF     		.section	.text._ZN3r2p10StaticListINS_15LocalSubscriberEE5beginEv,"axG",%progbits,_ZN3r2p10StaticL
 2522              		.align	2
 2523              		.weak	_ZN3r2p10StaticListINS_15LocalSubscriberEE5beginEv
 2524              		.thumb
 2525              		.thumb_func
 2526              		.type	_ZN3r2p10StaticListINS_15LocalSubscriberEE5beginEv, %function
 2527              	_ZN3r2p10StaticListINS_15LocalSubscriberEE5beginEv:
 2528              	.LFB742:
 2529              		.loc 11 480 0
 2530              		.cfi_startproc
 2531              		@ args = 0, pretend = 0, frame = 8
 2532              		@ frame_needed = 0, uses_anonymous_args = 0
 2533 0000 00B5     		push	{lr}
 2534              		.cfi_def_cfa_offset 4
 2535              		.cfi_offset 14, -4
 2536 0002 83B0     		sub	sp, sp, #12
 2537              		.cfi_def_cfa_offset 16
 2538 0004 0190     		str	r0, [sp, #4]
 2539 0006 0091     		str	r1, [sp]
 2540              		.loc 11 481 0
 2541 0008 0098     		ldr	r0, [sp]
 2542 000a FFF7FEFF 		bl	_ZNK3r2p10StaticListINS_15LocalSubscriberEE8get_headEv
 2543 000e 0346     		mov	r3, r0
 2544 0010 0198     		ldr	r0, [sp, #4]
 2545 0012 1946     		mov	r1, r3
 2546 0014 FFF7FEFF 		bl	_ZN3r2p10StaticListINS_15LocalSubscriberEE8IteratorC1EPKNS2_4LinkE
 2547              		.loc 11 482 0
 2548 0018 0198     		ldr	r0, [sp, #4]
 2549 001a 03B0     		add	sp, sp, #12
 2550              		.cfi_def_cfa_offset 4
 2551              		@ sp needed
 2552 001c 5DF804FB 		ldr	pc, [sp], #4
 2553              		.cfi_endproc
 2554              	.LFE742:
 2555              		.size	_ZN3r2p10StaticListINS_15LocalSubscriberEE5beginEv, .-_ZN3r2p10StaticListINS_15LocalSubscrib
 2556              		.section	.text._ZN3r2p10StaticListINS_15LocalSubscriberEE3endEv,"axG",%progbits,_ZN3r2p10StaticLis
 2557              		.align	2
 2558              		.weak	_ZN3r2p10StaticListINS_15LocalSubscriberEE3endEv
 2559              		.thumb
 2560              		.thumb_func
 2561              		.type	_ZN3r2p10StaticListINS_15LocalSubscriberEE3endEv, %function
 2562              	_ZN3r2p10StaticListINS_15LocalSubscriberEE3endEv:
ARM GAS  /tmp/ccm6ijpY.s 			page 46


 2563              	.LFB746:
 2564              		.loc 11 484 0
 2565              		.cfi_startproc
 2566              		@ args = 0, pretend = 0, frame = 8
 2567              		@ frame_needed = 0, uses_anonymous_args = 0
 2568 0000 00B5     		push	{lr}
 2569              		.cfi_def_cfa_offset 4
 2570              		.cfi_offset 14, -4
 2571 0002 83B0     		sub	sp, sp, #12
 2572              		.cfi_def_cfa_offset 16
 2573 0004 0190     		str	r0, [sp, #4]
 2574 0006 0091     		str	r1, [sp]
 2575              		.loc 11 485 0
 2576 0008 0198     		ldr	r0, [sp, #4]
 2577 000a 0021     		movs	r1, #0
 2578 000c FFF7FEFF 		bl	_ZN3r2p10StaticListINS_15LocalSubscriberEE8IteratorC1EPKNS2_4LinkE
 2579              		.loc 11 486 0
 2580 0010 0198     		ldr	r0, [sp, #4]
 2581 0012 03B0     		add	sp, sp, #12
 2582              		.cfi_def_cfa_offset 4
 2583              		@ sp needed
 2584 0014 5DF804FB 		ldr	pc, [sp], #4
 2585              		.cfi_endproc
 2586              	.LFE746:
 2587              		.size	_ZN3r2p10StaticListINS_15LocalSubscriberEE3endEv, .-_ZN3r2p10StaticListINS_15LocalSubscriber
 2588              		.section	.text._ZNK3r2p10StaticListINS_15LocalSubscriberEE8IteratorneERKS3_,"axG",%progbits,_ZNK3r
 2589              		.align	2
 2590              		.weak	_ZNK3r2p10StaticListINS_15LocalSubscriberEE8IteratorneERKS3_
 2591              		.thumb
 2592              		.thumb_func
 2593              		.type	_ZNK3r2p10StaticListINS_15LocalSubscriberEE8IteratorneERKS3_, %function
 2594              	_ZNK3r2p10StaticListINS_15LocalSubscriberEE8IteratorneERKS3_:
 2595              	.LFB747:
 2596              		.loc 11 183 0
 2597              		.cfi_startproc
 2598              		@ args = 0, pretend = 0, frame = 8
 2599              		@ frame_needed = 0, uses_anonymous_args = 0
 2600              		@ link register save eliminated.
 2601 0000 82B0     		sub	sp, sp, #8
 2602              		.cfi_def_cfa_offset 8
 2603 0002 0190     		str	r0, [sp, #4]
 2604 0004 0091     		str	r1, [sp]
 2605              		.loc 11 184 0
 2606 0006 019B     		ldr	r3, [sp, #4]
 2607 0008 1A68     		ldr	r2, [r3]
 2608 000a 009B     		ldr	r3, [sp]
 2609 000c 1B68     		ldr	r3, [r3]
 2610 000e 9A42     		cmp	r2, r3
 2611 0010 14BF     		ite	ne
 2612 0012 0123     		movne	r3, #1
 2613 0014 0023     		moveq	r3, #0
 2614 0016 DBB2     		uxtb	r3, r3
 2615              		.loc 11 185 0
 2616 0018 1846     		mov	r0, r3
 2617 001a 02B0     		add	sp, sp, #8
 2618              		.cfi_def_cfa_offset 0
 2619              		@ sp needed
ARM GAS  /tmp/ccm6ijpY.s 			page 47


 2620 001c 7047     		bx	lr
 2621              		.cfi_endproc
 2622              	.LFE747:
 2623              		.size	_ZNK3r2p10StaticListINS_15LocalSubscriberEE8IteratorneERKS3_, .-_ZNK3r2p10StaticListINS_15Lo
 2624 001e 00BF     		.section	.text._ZN3r2p10StaticListINS_15LocalSubscriberEE8IteratorppEv,"axG",%progbits,_ZN3r2p10St
 2625              		.align	2
 2626              		.weak	_ZN3r2p10StaticListINS_15LocalSubscriberEE8IteratorppEv
 2627              		.thumb
 2628              		.thumb_func
 2629              		.type	_ZN3r2p10StaticListINS_15LocalSubscriberEE8IteratorppEv, %function
 2630              	_ZN3r2p10StaticListINS_15LocalSubscriberEE8IteratorppEv:
 2631              	.LFB748:
 2632              		.loc 11 164 0
 2633              		.cfi_startproc
 2634              		@ args = 0, pretend = 0, frame = 8
 2635              		@ frame_needed = 0, uses_anonymous_args = 0
 2636 0000 00B5     		push	{lr}
 2637              		.cfi_def_cfa_offset 4
 2638              		.cfi_offset 14, -4
 2639 0002 83B0     		sub	sp, sp, #12
 2640              		.cfi_def_cfa_offset 16
 2641 0004 0190     		str	r0, [sp, #4]
 2642              		.loc 11 165 0
 2643 0006 FFF7FEFF 		bl	_ZN3r2p7SysLock7acquireEv
 2644              		.loc 11 166 0
 2645 000a 019B     		ldr	r3, [sp, #4]
 2646 000c 1B68     		ldr	r3, [r3]
 2647 000e 1A68     		ldr	r2, [r3]
 2648 0010 019B     		ldr	r3, [sp, #4]
 2649 0012 1A60     		str	r2, [r3]
 2650              		.loc 11 167 0
 2651 0014 FFF7FEFF 		bl	_ZN3r2p7SysLock7releaseEv
 2652              		.loc 11 168 0
 2653 0018 019B     		ldr	r3, [sp, #4]
 2654              		.loc 11 169 0
 2655 001a 1846     		mov	r0, r3
 2656 001c 03B0     		add	sp, sp, #12
 2657              		.cfi_def_cfa_offset 4
 2658              		@ sp needed
 2659 001e 5DF804FB 		ldr	pc, [sp], #4
 2660              		.cfi_endproc
 2661              	.LFE748:
 2662              		.size	_ZN3r2p10StaticListINS_15LocalSubscriberEE8IteratorppEv, .-_ZN3r2p10StaticListINS_15LocalSub
 2663 0022 00BF     		.section	.text._ZNK3r2p10StaticListINS_15LocalSubscriberEE8IteratorptEv,"axG",%progbits,_ZNK3r2p10
 2664              		.align	2
 2665              		.weak	_ZNK3r2p10StaticListINS_15LocalSubscriberEE8IteratorptEv
 2666              		.thumb
 2667              		.thumb_func
 2668              		.type	_ZNK3r2p10StaticListINS_15LocalSubscriberEE8IteratorptEv, %function
 2669              	_ZNK3r2p10StaticListINS_15LocalSubscriberEE8IteratorptEv:
 2670              	.LFB749:
 2671              		.loc 11 156 0
 2672              		.cfi_startproc
 2673              		@ args = 0, pretend = 0, frame = 8
 2674              		@ frame_needed = 0, uses_anonymous_args = 0
 2675              		@ link register save eliminated.
 2676 0000 82B0     		sub	sp, sp, #8
ARM GAS  /tmp/ccm6ijpY.s 			page 48


 2677              		.cfi_def_cfa_offset 8
 2678 0002 0190     		str	r0, [sp, #4]
 2679              		.loc 11 157 0
 2680 0004 019B     		ldr	r3, [sp, #4]
 2681 0006 1B68     		ldr	r3, [r3]
 2682 0008 5B68     		ldr	r3, [r3, #4]
 2683              		.loc 11 158 0
 2684 000a 1846     		mov	r0, r3
 2685 000c 02B0     		add	sp, sp, #8
 2686              		.cfi_def_cfa_offset 0
 2687              		@ sp needed
 2688 000e 7047     		bx	lr
 2689              		.cfi_endproc
 2690              	.LFE749:
 2691              		.size	_ZNK3r2p10StaticListINS_15LocalSubscriberEE8IteratorptEv, .-_ZNK3r2p10StaticListINS_15LocalS
 2692              		.section	.text._ZN3r2p10StaticListINS_16RemoteSubscriberEE5beginEv,"axG",%progbits,_ZN3r2p10Static
 2693              		.align	2
 2694              		.weak	_ZN3r2p10StaticListINS_16RemoteSubscriberEE5beginEv
 2695              		.thumb
 2696              		.thumb_func
 2697              		.type	_ZN3r2p10StaticListINS_16RemoteSubscriberEE5beginEv, %function
 2698              	_ZN3r2p10StaticListINS_16RemoteSubscriberEE5beginEv:
 2699              	.LFB750:
 2700              		.loc 11 480 0
 2701              		.cfi_startproc
 2702              		@ args = 0, pretend = 0, frame = 8
 2703              		@ frame_needed = 0, uses_anonymous_args = 0
 2704 0000 00B5     		push	{lr}
 2705              		.cfi_def_cfa_offset 4
 2706              		.cfi_offset 14, -4
 2707 0002 83B0     		sub	sp, sp, #12
 2708              		.cfi_def_cfa_offset 16
 2709 0004 0190     		str	r0, [sp, #4]
 2710 0006 0091     		str	r1, [sp]
 2711              		.loc 11 481 0
 2712 0008 0098     		ldr	r0, [sp]
 2713 000a FFF7FEFF 		bl	_ZNK3r2p10StaticListINS_16RemoteSubscriberEE8get_headEv
 2714 000e 0346     		mov	r3, r0
 2715 0010 0198     		ldr	r0, [sp, #4]
 2716 0012 1946     		mov	r1, r3
 2717 0014 FFF7FEFF 		bl	_ZN3r2p10StaticListINS_16RemoteSubscriberEE8IteratorC1EPKNS2_4LinkE
 2718              		.loc 11 482 0
 2719 0018 0198     		ldr	r0, [sp, #4]
 2720 001a 03B0     		add	sp, sp, #12
 2721              		.cfi_def_cfa_offset 4
 2722              		@ sp needed
 2723 001c 5DF804FB 		ldr	pc, [sp], #4
 2724              		.cfi_endproc
 2725              	.LFE750:
 2726              		.size	_ZN3r2p10StaticListINS_16RemoteSubscriberEE5beginEv, .-_ZN3r2p10StaticListINS_16RemoteSubscr
 2727              		.section	.text._ZN3r2p10StaticListINS_16RemoteSubscriberEE3endEv,"axG",%progbits,_ZN3r2p10StaticLi
 2728              		.align	2
 2729              		.weak	_ZN3r2p10StaticListINS_16RemoteSubscriberEE3endEv
 2730              		.thumb
 2731              		.thumb_func
 2732              		.type	_ZN3r2p10StaticListINS_16RemoteSubscriberEE3endEv, %function
 2733              	_ZN3r2p10StaticListINS_16RemoteSubscriberEE3endEv:
ARM GAS  /tmp/ccm6ijpY.s 			page 49


 2734              	.LFB754:
 2735              		.loc 11 484 0
 2736              		.cfi_startproc
 2737              		@ args = 0, pretend = 0, frame = 8
 2738              		@ frame_needed = 0, uses_anonymous_args = 0
 2739 0000 00B5     		push	{lr}
 2740              		.cfi_def_cfa_offset 4
 2741              		.cfi_offset 14, -4
 2742 0002 83B0     		sub	sp, sp, #12
 2743              		.cfi_def_cfa_offset 16
 2744 0004 0190     		str	r0, [sp, #4]
 2745 0006 0091     		str	r1, [sp]
 2746              		.loc 11 485 0
 2747 0008 0198     		ldr	r0, [sp, #4]
 2748 000a 0021     		movs	r1, #0
 2749 000c FFF7FEFF 		bl	_ZN3r2p10StaticListINS_16RemoteSubscriberEE8IteratorC1EPKNS2_4LinkE
 2750              		.loc 11 486 0
 2751 0010 0198     		ldr	r0, [sp, #4]
 2752 0012 03B0     		add	sp, sp, #12
 2753              		.cfi_def_cfa_offset 4
 2754              		@ sp needed
 2755 0014 5DF804FB 		ldr	pc, [sp], #4
 2756              		.cfi_endproc
 2757              	.LFE754:
 2758              		.size	_ZN3r2p10StaticListINS_16RemoteSubscriberEE3endEv, .-_ZN3r2p10StaticListINS_16RemoteSubscrib
 2759              		.section	.text._ZNK3r2p10StaticListINS_16RemoteSubscriberEE8IteratorneERKS3_,"axG",%progbits,_ZNK3
 2760              		.align	2
 2761              		.weak	_ZNK3r2p10StaticListINS_16RemoteSubscriberEE8IteratorneERKS3_
 2762              		.thumb
 2763              		.thumb_func
 2764              		.type	_ZNK3r2p10StaticListINS_16RemoteSubscriberEE8IteratorneERKS3_, %function
 2765              	_ZNK3r2p10StaticListINS_16RemoteSubscriberEE8IteratorneERKS3_:
 2766              	.LFB755:
 2767              		.loc 11 183 0
 2768              		.cfi_startproc
 2769              		@ args = 0, pretend = 0, frame = 8
 2770              		@ frame_needed = 0, uses_anonymous_args = 0
 2771              		@ link register save eliminated.
 2772 0000 82B0     		sub	sp, sp, #8
 2773              		.cfi_def_cfa_offset 8
 2774 0002 0190     		str	r0, [sp, #4]
 2775 0004 0091     		str	r1, [sp]
 2776              		.loc 11 184 0
 2777 0006 019B     		ldr	r3, [sp, #4]
 2778 0008 1A68     		ldr	r2, [r3]
 2779 000a 009B     		ldr	r3, [sp]
 2780 000c 1B68     		ldr	r3, [r3]
 2781 000e 9A42     		cmp	r2, r3
 2782 0010 14BF     		ite	ne
 2783 0012 0123     		movne	r3, #1
 2784 0014 0023     		moveq	r3, #0
 2785 0016 DBB2     		uxtb	r3, r3
 2786              		.loc 11 185 0
 2787 0018 1846     		mov	r0, r3
 2788 001a 02B0     		add	sp, sp, #8
 2789              		.cfi_def_cfa_offset 0
 2790              		@ sp needed
ARM GAS  /tmp/ccm6ijpY.s 			page 50


 2791 001c 7047     		bx	lr
 2792              		.cfi_endproc
 2793              	.LFE755:
 2794              		.size	_ZNK3r2p10StaticListINS_16RemoteSubscriberEE8IteratorneERKS3_, .-_ZNK3r2p10StaticListINS_16R
 2795 001e 00BF     		.section	.text._ZN3r2p10StaticListINS_16RemoteSubscriberEE8IteratorppEv,"axG",%progbits,_ZN3r2p10S
 2796              		.align	2
 2797              		.weak	_ZN3r2p10StaticListINS_16RemoteSubscriberEE8IteratorppEv
 2798              		.thumb
 2799              		.thumb_func
 2800              		.type	_ZN3r2p10StaticListINS_16RemoteSubscriberEE8IteratorppEv, %function
 2801              	_ZN3r2p10StaticListINS_16RemoteSubscriberEE8IteratorppEv:
 2802              	.LFB756:
 2803              		.loc 11 164 0
 2804              		.cfi_startproc
 2805              		@ args = 0, pretend = 0, frame = 8
 2806              		@ frame_needed = 0, uses_anonymous_args = 0
 2807 0000 00B5     		push	{lr}
 2808              		.cfi_def_cfa_offset 4
 2809              		.cfi_offset 14, -4
 2810 0002 83B0     		sub	sp, sp, #12
 2811              		.cfi_def_cfa_offset 16
 2812 0004 0190     		str	r0, [sp, #4]
 2813              		.loc 11 165 0
 2814 0006 FFF7FEFF 		bl	_ZN3r2p7SysLock7acquireEv
 2815              		.loc 11 166 0
 2816 000a 019B     		ldr	r3, [sp, #4]
 2817 000c 1B68     		ldr	r3, [r3]
 2818 000e 1A68     		ldr	r2, [r3]
 2819 0010 019B     		ldr	r3, [sp, #4]
 2820 0012 1A60     		str	r2, [r3]
 2821              		.loc 11 167 0
 2822 0014 FFF7FEFF 		bl	_ZN3r2p7SysLock7releaseEv
 2823              		.loc 11 168 0
 2824 0018 019B     		ldr	r3, [sp, #4]
 2825              		.loc 11 169 0
 2826 001a 1846     		mov	r0, r3
 2827 001c 03B0     		add	sp, sp, #12
 2828              		.cfi_def_cfa_offset 4
 2829              		@ sp needed
 2830 001e 5DF804FB 		ldr	pc, [sp], #4
 2831              		.cfi_endproc
 2832              	.LFE756:
 2833              		.size	_ZN3r2p10StaticListINS_16RemoteSubscriberEE8IteratorppEv, .-_ZN3r2p10StaticListINS_16RemoteS
 2834 0022 00BF     		.section	.text._ZNK3r2p10StaticListINS_16RemoteSubscriberEE8IteratorptEv,"axG",%progbits,_ZNK3r2p1
 2835              		.align	2
 2836              		.weak	_ZNK3r2p10StaticListINS_16RemoteSubscriberEE8IteratorptEv
 2837              		.thumb
 2838              		.thumb_func
 2839              		.type	_ZNK3r2p10StaticListINS_16RemoteSubscriberEE8IteratorptEv, %function
 2840              	_ZNK3r2p10StaticListINS_16RemoteSubscriberEE8IteratorptEv:
 2841              	.LFB757:
 2842              		.loc 11 156 0
 2843              		.cfi_startproc
 2844              		@ args = 0, pretend = 0, frame = 8
 2845              		@ frame_needed = 0, uses_anonymous_args = 0
 2846              		@ link register save eliminated.
 2847 0000 82B0     		sub	sp, sp, #8
ARM GAS  /tmp/ccm6ijpY.s 			page 51


 2848              		.cfi_def_cfa_offset 8
 2849 0002 0190     		str	r0, [sp, #4]
 2850              		.loc 11 157 0
 2851 0004 019B     		ldr	r3, [sp, #4]
 2852 0006 1B68     		ldr	r3, [r3]
 2853 0008 5B68     		ldr	r3, [r3, #4]
 2854              		.loc 11 158 0
 2855 000a 1846     		mov	r0, r3
 2856 000c 02B0     		add	sp, sp, #8
 2857              		.cfi_def_cfa_offset 0
 2858              		@ sp needed
 2859 000e 7047     		bx	lr
 2860              		.cfi_endproc
 2861              	.LFE757:
 2862              		.size	_ZNK3r2p10StaticListINS_16RemoteSubscriberEE8IteratorptEv, .-_ZNK3r2p10StaticListINS_16Remot
 2863              		.section	.text._ZN3r2p5Topic5allocINS_7MessageEEEbRPT_,"axG",%progbits,_ZN3r2p5Topic5allocINS_7Mes
 2864              		.align	2
 2865              		.weak	_ZN3r2p5Topic5allocINS_7MessageEEEbRPT_
 2866              		.thumb
 2867              		.thumb_func
 2868              		.type	_ZN3r2p5Topic5allocINS_7MessageEEEbRPT_, %function
 2869              	_ZN3r2p5Topic5allocINS_7MessageEEEbRPT_:
 2870              	.LFB758:
 2871              		.loc 8 305 0
 2872              		.cfi_startproc
 2873              		@ args = 0, pretend = 0, frame = 8
 2874              		@ frame_needed = 0, uses_anonymous_args = 0
 2875 0000 00B5     		push	{lr}
 2876              		.cfi_def_cfa_offset 4
 2877              		.cfi_offset 14, -4
 2878 0002 83B0     		sub	sp, sp, #12
 2879              		.cfi_def_cfa_offset 16
 2880 0004 0190     		str	r0, [sp, #4]
 2881 0006 0091     		str	r1, [sp]
 2882              		.loc 8 308 0
 2883 0008 0198     		ldr	r0, [sp, #4]
 2884 000a FFF7FEFF 		bl	_ZN3r2p5Topic5allocEv
 2885 000e 0246     		mov	r2, r0
 2886 0010 009B     		ldr	r3, [sp]
 2887 0012 1A60     		str	r2, [r3]
 2888 0014 009B     		ldr	r3, [sp]
 2889 0016 1B68     		ldr	r3, [r3]
 2890 0018 002B     		cmp	r3, #0
 2891 001a 14BF     		ite	ne
 2892 001c 0123     		movne	r3, #1
 2893 001e 0023     		moveq	r3, #0
 2894 0020 DBB2     		uxtb	r3, r3
 2895              		.loc 8 309 0
 2896 0022 1846     		mov	r0, r3
 2897 0024 03B0     		add	sp, sp, #12
 2898              		.cfi_def_cfa_offset 4
 2899              		@ sp needed
 2900 0026 5DF804FB 		ldr	pc, [sp], #4
 2901              		.cfi_endproc
 2902              	.LFE758:
 2903              		.size	_ZN3r2p5Topic5allocINS_7MessageEEEbRPT_, .-_ZN3r2p5Topic5allocINS_7MessageEEEbRPT_
 2904 002a 00BF     		.section	.text._ZN3r2p10StaticListINS_15LocalSubscriberEE11link_unsafeERNS2_4LinkE,"axG",%progbits
ARM GAS  /tmp/ccm6ijpY.s 			page 52


 2905              		.align	2
 2906              		.weak	_ZN3r2p10StaticListINS_15LocalSubscriberEE11link_unsafeERNS2_4LinkE
 2907              		.thumb
 2908              		.thumb_func
 2909              		.type	_ZN3r2p10StaticListINS_15LocalSubscriberEE11link_unsafeERNS2_4LinkE, %function
 2910              	_ZN3r2p10StaticListINS_15LocalSubscriberEE11link_unsafeERNS2_4LinkE:
 2911              	.LFB759:
 2912              		.loc 11 407 0
 2913              		.cfi_startproc
 2914              		@ args = 0, pretend = 0, frame = 8
 2915              		@ frame_needed = 0, uses_anonymous_args = 0
 2916 0000 00B5     		push	{lr}
 2917              		.cfi_def_cfa_offset 4
 2918              		.cfi_offset 14, -4
 2919 0002 83B0     		sub	sp, sp, #12
 2920              		.cfi_def_cfa_offset 16
 2921 0004 0190     		str	r0, [sp, #4]
 2922 0006 0091     		str	r1, [sp]
 2923              		.loc 11 408 0
 2924 0008 009B     		ldr	r3, [sp]
 2925 000a 1B68     		ldr	r3, [r3]
 2926 000c 002B     		cmp	r3, #0
 2927 000e 02D0     		beq	.L171
 2928              		.loc 11 408 0 is_stmt 0 discriminator 1
 2929 0010 0B48     		ldr	r0, .L173
 2930 0012 FFF7FEFF 		bl	chDbgPanic
 2931              	.L171:
 2932              		.loc 11 409 0 is_stmt 1
 2933 0016 0198     		ldr	r0, [sp, #4]
 2934 0018 0099     		ldr	r1, [sp]
 2935 001a FFF7FEFF 		bl	_ZN3r2p10StaticListINS_15LocalSubscriberEE13unlink_unsafeERNS2_4LinkE
 2936 001e 0346     		mov	r3, r0
 2937 0020 002B     		cmp	r3, #0
 2938 0022 02D0     		beq	.L172
 2939              		.loc 11 409 0 is_stmt 0 discriminator 1
 2940 0024 0648     		ldr	r0, .L173
 2941 0026 FFF7FEFF 		bl	chDbgPanic
 2942              	.L172:
 2943              		.loc 11 411 0 is_stmt 1
 2944 002a 019B     		ldr	r3, [sp, #4]
 2945 002c 1A68     		ldr	r2, [r3]
 2946 002e 009B     		ldr	r3, [sp]
 2947 0030 1A60     		str	r2, [r3]
 2948              		.loc 11 412 0
 2949 0032 019B     		ldr	r3, [sp, #4]
 2950 0034 009A     		ldr	r2, [sp]
 2951 0036 1A60     		str	r2, [r3]
 2952              		.loc 11 413 0
 2953 0038 03B0     		add	sp, sp, #12
 2954              		.cfi_def_cfa_offset 4
 2955              		@ sp needed
 2956 003a 5DF804FB 		ldr	pc, [sp], #4
 2957              	.L174:
 2958 003e 00BF     		.align	2
 2959              	.L173:
 2960 0040 00000000 		.word	.LC0
 2961              		.cfi_endproc
ARM GAS  /tmp/ccm6ijpY.s 			page 53


 2962              	.LFE759:
 2963              		.size	_ZN3r2p10StaticListINS_15LocalSubscriberEE11link_unsafeERNS2_4LinkE, .-_ZN3r2p10StaticListIN
 2964              		.section	.text._ZN3r2p10StaticListINS_16RemoteSubscriberEE11link_unsafeERNS2_4LinkE,"axG",%progbit
 2965              		.align	2
 2966              		.weak	_ZN3r2p10StaticListINS_16RemoteSubscriberEE11link_unsafeERNS2_4LinkE
 2967              		.thumb
 2968              		.thumb_func
 2969              		.type	_ZN3r2p10StaticListINS_16RemoteSubscriberEE11link_unsafeERNS2_4LinkE, %function
 2970              	_ZN3r2p10StaticListINS_16RemoteSubscriberEE11link_unsafeERNS2_4LinkE:
 2971              	.LFB760:
 2972              		.loc 11 407 0
 2973              		.cfi_startproc
 2974              		@ args = 0, pretend = 0, frame = 8
 2975              		@ frame_needed = 0, uses_anonymous_args = 0
 2976 0000 00B5     		push	{lr}
 2977              		.cfi_def_cfa_offset 4
 2978              		.cfi_offset 14, -4
 2979 0002 83B0     		sub	sp, sp, #12
 2980              		.cfi_def_cfa_offset 16
 2981 0004 0190     		str	r0, [sp, #4]
 2982 0006 0091     		str	r1, [sp]
 2983              		.loc 11 408 0
 2984 0008 009B     		ldr	r3, [sp]
 2985 000a 1B68     		ldr	r3, [r3]
 2986 000c 002B     		cmp	r3, #0
 2987 000e 02D0     		beq	.L176
 2988              		.loc 11 408 0 is_stmt 0 discriminator 1
 2989 0010 0B48     		ldr	r0, .L178
 2990 0012 FFF7FEFF 		bl	chDbgPanic
 2991              	.L176:
 2992              		.loc 11 409 0 is_stmt 1
 2993 0016 0198     		ldr	r0, [sp, #4]
 2994 0018 0099     		ldr	r1, [sp]
 2995 001a FFF7FEFF 		bl	_ZN3r2p10StaticListINS_16RemoteSubscriberEE13unlink_unsafeERNS2_4LinkE
 2996 001e 0346     		mov	r3, r0
 2997 0020 002B     		cmp	r3, #0
 2998 0022 02D0     		beq	.L177
 2999              		.loc 11 409 0 is_stmt 0 discriminator 1
 3000 0024 0648     		ldr	r0, .L178
 3001 0026 FFF7FEFF 		bl	chDbgPanic
 3002              	.L177:
 3003              		.loc 11 411 0 is_stmt 1
 3004 002a 019B     		ldr	r3, [sp, #4]
 3005 002c 1A68     		ldr	r2, [r3]
 3006 002e 009B     		ldr	r3, [sp]
 3007 0030 1A60     		str	r2, [r3]
 3008              		.loc 11 412 0
 3009 0032 019B     		ldr	r3, [sp, #4]
 3010 0034 009A     		ldr	r2, [sp]
 3011 0036 1A60     		str	r2, [r3]
 3012              		.loc 11 413 0
 3013 0038 03B0     		add	sp, sp, #12
 3014              		.cfi_def_cfa_offset 4
 3015              		@ sp needed
 3016 003a 5DF804FB 		ldr	pc, [sp], #4
 3017              	.L179:
 3018 003e 00BF     		.align	2
ARM GAS  /tmp/ccm6ijpY.s 			page 54


 3019              	.L178:
 3020 0040 00000000 		.word	.LC0
 3021              		.cfi_endproc
 3022              	.LFE760:
 3023              		.size	_ZN3r2p10StaticListINS_16RemoteSubscriberEE11link_unsafeERNS2_4LinkE, .-_ZN3r2p10StaticListI
 3024              		.section	.text._ZN3r2p10StaticListINS_15LocalSubscriberEEC2Ev,"axG",%progbits,_ZN3r2p10StaticListI
 3025              		.align	2
 3026              		.weak	_ZN3r2p10StaticListINS_15LocalSubscriberEEC2Ev
 3027              		.thumb
 3028              		.thumb_func
 3029              		.type	_ZN3r2p10StaticListINS_15LocalSubscriberEEC2Ev, %function
 3030              	_ZN3r2p10StaticListINS_15LocalSubscriberEEC2Ev:
 3031              	.LFB762:
 3032              		.loc 11 506 0
 3033              		.cfi_startproc
 3034              		@ args = 0, pretend = 0, frame = 8
 3035              		@ frame_needed = 0, uses_anonymous_args = 0
 3036 0000 00B5     		push	{lr}
 3037              		.cfi_def_cfa_offset 4
 3038              		.cfi_offset 14, -4
 3039 0002 83B0     		sub	sp, sp, #12
 3040              		.cfi_def_cfa_offset 16
 3041 0004 0190     		str	r0, [sp, #4]
 3042              	.LBB46:
 3043              		.loc 11 506 0
 3044 0006 0198     		ldr	r0, [sp, #4]
 3045 0008 FFF7FEFF 		bl	_ZN3r2p10UncopyableC2Ev
 3046 000c 019B     		ldr	r3, [sp, #4]
 3047 000e 0022     		movs	r2, #0
 3048 0010 1A60     		str	r2, [r3]
 3049              	.LBE46:
 3050 0012 019B     		ldr	r3, [sp, #4]
 3051 0014 1846     		mov	r0, r3
 3052 0016 03B0     		add	sp, sp, #12
 3053              		.cfi_def_cfa_offset 4
 3054              		@ sp needed
 3055 0018 5DF804FB 		ldr	pc, [sp], #4
 3056              		.cfi_endproc
 3057              	.LFE762:
 3058              		.size	_ZN3r2p10StaticListINS_15LocalSubscriberEEC2Ev, .-_ZN3r2p10StaticListINS_15LocalSubscriberEE
 3059              		.weak	_ZN3r2p10StaticListINS_15LocalSubscriberEEC1Ev
 3060              		.thumb_set _ZN3r2p10StaticListINS_15LocalSubscriberEEC1Ev,_ZN3r2p10StaticListINS_15LocalSubscriber
 3061              		.section	.text._ZN3r2p10StaticListINS_16RemoteSubscriberEEC2Ev,"axG",%progbits,_ZN3r2p10StaticList
 3062              		.align	2
 3063              		.weak	_ZN3r2p10StaticListINS_16RemoteSubscriberEEC2Ev
 3064              		.thumb
 3065              		.thumb_func
 3066              		.type	_ZN3r2p10StaticListINS_16RemoteSubscriberEEC2Ev, %function
 3067              	_ZN3r2p10StaticListINS_16RemoteSubscriberEEC2Ev:
 3068              	.LFB765:
 3069              		.loc 11 506 0
 3070              		.cfi_startproc
 3071              		@ args = 0, pretend = 0, frame = 8
 3072              		@ frame_needed = 0, uses_anonymous_args = 0
 3073 0000 00B5     		push	{lr}
 3074              		.cfi_def_cfa_offset 4
 3075              		.cfi_offset 14, -4
ARM GAS  /tmp/ccm6ijpY.s 			page 55


 3076 0002 83B0     		sub	sp, sp, #12
 3077              		.cfi_def_cfa_offset 16
 3078 0004 0190     		str	r0, [sp, #4]
 3079              	.LBB47:
 3080              		.loc 11 506 0
 3081 0006 0198     		ldr	r0, [sp, #4]
 3082 0008 FFF7FEFF 		bl	_ZN3r2p10UncopyableC2Ev
 3083 000c 019B     		ldr	r3, [sp, #4]
 3084 000e 0022     		movs	r2, #0
 3085 0010 1A60     		str	r2, [r3]
 3086              	.LBE47:
 3087 0012 019B     		ldr	r3, [sp, #4]
 3088 0014 1846     		mov	r0, r3
 3089 0016 03B0     		add	sp, sp, #12
 3090              		.cfi_def_cfa_offset 4
 3091              		@ sp needed
 3092 0018 5DF804FB 		ldr	pc, [sp], #4
 3093              		.cfi_endproc
 3094              	.LFE765:
 3095              		.size	_ZN3r2p10StaticListINS_16RemoteSubscriberEEC2Ev, .-_ZN3r2p10StaticListINS_16RemoteSubscriber
 3096              		.weak	_ZN3r2p10StaticListINS_16RemoteSubscriberEEC1Ev
 3097              		.thumb_set _ZN3r2p10StaticListINS_16RemoteSubscriberEEC1Ev,_ZN3r2p10StaticListINS_16RemoteSubscrib
 3098              		.section	.text._ZN3r2p10StaticListINS_5TopicEE4LinkC2ERS1_,"axG",%progbits,_ZN3r2p10StaticListINS_
 3099              		.align	2
 3100              		.weak	_ZN3r2p10StaticListINS_5TopicEE4LinkC2ERS1_
 3101              		.thumb
 3102              		.thumb_func
 3103              		.type	_ZN3r2p10StaticListINS_5TopicEE4LinkC2ERS1_, %function
 3104              	_ZN3r2p10StaticListINS_5TopicEE4LinkC2ERS1_:
 3105              	.LFB768:
 3106              		.loc 11 21 0
 3107              		.cfi_startproc
 3108              		@ args = 0, pretend = 0, frame = 8
 3109              		@ frame_needed = 0, uses_anonymous_args = 0
 3110              		@ link register save eliminated.
 3111 0000 82B0     		sub	sp, sp, #8
 3112              		.cfi_def_cfa_offset 8
 3113 0002 0190     		str	r0, [sp, #4]
 3114 0004 0091     		str	r1, [sp]
 3115              	.LBB48:
 3116              		.loc 11 21 0
 3117 0006 019B     		ldr	r3, [sp, #4]
 3118 0008 0022     		movs	r2, #0
 3119 000a 1A60     		str	r2, [r3]
 3120 000c 019B     		ldr	r3, [sp, #4]
 3121 000e 009A     		ldr	r2, [sp]
 3122 0010 5A60     		str	r2, [r3, #4]
 3123              	.LBE48:
 3124 0012 019B     		ldr	r3, [sp, #4]
 3125 0014 1846     		mov	r0, r3
 3126 0016 02B0     		add	sp, sp, #8
 3127              		.cfi_def_cfa_offset 0
 3128              		@ sp needed
 3129 0018 7047     		bx	lr
 3130              		.cfi_endproc
 3131              	.LFE768:
 3132              		.size	_ZN3r2p10StaticListINS_5TopicEE4LinkC2ERS1_, .-_ZN3r2p10StaticListINS_5TopicEE4LinkC2ERS1_
ARM GAS  /tmp/ccm6ijpY.s 			page 56


 3133              		.weak	_ZN3r2p10StaticListINS_5TopicEE4LinkC1ERS1_
 3134              		.thumb_set _ZN3r2p10StaticListINS_5TopicEE4LinkC1ERS1_,_ZN3r2p10StaticListINS_5TopicEE4LinkC2ERS1_
 3135 001a 00BF     		.section	.text._ZNK3r2p10StaticListINS_15LocalSubscriberEE15get_head_unsafeEv,"axG",%progbits,_ZNK
 3136              		.align	2
 3137              		.weak	_ZNK3r2p10StaticListINS_15LocalSubscriberEE15get_head_unsafeEv
 3138              		.thumb
 3139              		.thumb_func
 3140              		.type	_ZNK3r2p10StaticListINS_15LocalSubscriberEE15get_head_unsafeEv, %function
 3141              	_ZNK3r2p10StaticListINS_15LocalSubscriberEE15get_head_unsafeEv:
 3142              	.LFB770:
 3143              		.loc 11 397 0
 3144              		.cfi_startproc
 3145              		@ args = 0, pretend = 0, frame = 8
 3146              		@ frame_needed = 0, uses_anonymous_args = 0
 3147              		@ link register save eliminated.
 3148 0000 82B0     		sub	sp, sp, #8
 3149              		.cfi_def_cfa_offset 8
 3150 0002 0190     		str	r0, [sp, #4]
 3151              		.loc 11 398 0
 3152 0004 019B     		ldr	r3, [sp, #4]
 3153 0006 1B68     		ldr	r3, [r3]
 3154              		.loc 11 399 0
 3155 0008 1846     		mov	r0, r3
 3156 000a 02B0     		add	sp, sp, #8
 3157              		.cfi_def_cfa_offset 0
 3158              		@ sp needed
 3159 000c 7047     		bx	lr
 3160              		.cfi_endproc
 3161              	.LFE770:
 3162              		.size	_ZNK3r2p10StaticListINS_15LocalSubscriberEE15get_head_unsafeEv, .-_ZNK3r2p10StaticListINS_15
 3163 000e 00BF     		.section	.text._ZN3r2p10StaticListINS_15LocalSubscriberEE14IteratorUnsafeC2EPKNS2_4LinkE,"axG",%pr
 3164              		.align	2
 3165              		.weak	_ZN3r2p10StaticListINS_15LocalSubscriberEE14IteratorUnsafeC2EPKNS2_4LinkE
 3166              		.thumb
 3167              		.thumb_func
 3168              		.type	_ZN3r2p10StaticListINS_15LocalSubscriberEE14IteratorUnsafeC2EPKNS2_4LinkE, %function
 3169              	_ZN3r2p10StaticListINS_15LocalSubscriberEE14IteratorUnsafeC2EPKNS2_4LinkE:
 3170              	.LFB772:
 3171              		.loc 11 43 0
 3172              		.cfi_startproc
 3173              		@ args = 0, pretend = 0, frame = 8
 3174              		@ frame_needed = 0, uses_anonymous_args = 0
 3175              		@ link register save eliminated.
 3176 0000 82B0     		sub	sp, sp, #8
 3177              		.cfi_def_cfa_offset 8
 3178 0002 0190     		str	r0, [sp, #4]
 3179 0004 0091     		str	r1, [sp]
 3180              	.LBB49:
 3181              		.loc 11 43 0
 3182 0006 019B     		ldr	r3, [sp, #4]
 3183 0008 009A     		ldr	r2, [sp]
 3184 000a 1A60     		str	r2, [r3]
 3185              	.LBE49:
 3186 000c 019B     		ldr	r3, [sp, #4]
 3187 000e 1846     		mov	r0, r3
 3188 0010 02B0     		add	sp, sp, #8
 3189              		.cfi_def_cfa_offset 0
ARM GAS  /tmp/ccm6ijpY.s 			page 57


 3190              		@ sp needed
 3191 0012 7047     		bx	lr
 3192              		.cfi_endproc
 3193              	.LFE772:
 3194              		.size	_ZN3r2p10StaticListINS_15LocalSubscriberEE14IteratorUnsafeC2EPKNS2_4LinkE, .-_ZN3r2p10Static
 3195              		.weak	_ZN3r2p10StaticListINS_15LocalSubscriberEE14IteratorUnsafeC1EPKNS2_4LinkE
 3196              		.thumb_set _ZN3r2p10StaticListINS_15LocalSubscriberEE14IteratorUnsafeC1EPKNS2_4LinkE,_ZN3r2p10Stat
 3197              		.section	.text._ZNK3r2p10StaticListINS_16RemoteSubscriberEE15get_head_unsafeEv,"axG",%progbits,_ZN
 3198              		.align	2
 3199              		.weak	_ZNK3r2p10StaticListINS_16RemoteSubscriberEE15get_head_unsafeEv
 3200              		.thumb
 3201              		.thumb_func
 3202              		.type	_ZNK3r2p10StaticListINS_16RemoteSubscriberEE15get_head_unsafeEv, %function
 3203              	_ZNK3r2p10StaticListINS_16RemoteSubscriberEE15get_head_unsafeEv:
 3204              	.LFB774:
 3205              		.loc 11 397 0
 3206              		.cfi_startproc
 3207              		@ args = 0, pretend = 0, frame = 8
 3208              		@ frame_needed = 0, uses_anonymous_args = 0
 3209              		@ link register save eliminated.
 3210 0000 82B0     		sub	sp, sp, #8
 3211              		.cfi_def_cfa_offset 8
 3212 0002 0190     		str	r0, [sp, #4]
 3213              		.loc 11 398 0
 3214 0004 019B     		ldr	r3, [sp, #4]
 3215 0006 1B68     		ldr	r3, [r3]
 3216              		.loc 11 399 0
 3217 0008 1846     		mov	r0, r3
 3218 000a 02B0     		add	sp, sp, #8
 3219              		.cfi_def_cfa_offset 0
 3220              		@ sp needed
 3221 000c 7047     		bx	lr
 3222              		.cfi_endproc
 3223              	.LFE774:
 3224              		.size	_ZNK3r2p10StaticListINS_16RemoteSubscriberEE15get_head_unsafeEv, .-_ZNK3r2p10StaticListINS_1
 3225 000e 00BF     		.section	.text._ZN3r2p10StaticListINS_16RemoteSubscriberEE14IteratorUnsafeC2EPKNS2_4LinkE,"axG",%p
 3226              		.align	2
 3227              		.weak	_ZN3r2p10StaticListINS_16RemoteSubscriberEE14IteratorUnsafeC2EPKNS2_4LinkE
 3228              		.thumb
 3229              		.thumb_func
 3230              		.type	_ZN3r2p10StaticListINS_16RemoteSubscriberEE14IteratorUnsafeC2EPKNS2_4LinkE, %function
 3231              	_ZN3r2p10StaticListINS_16RemoteSubscriberEE14IteratorUnsafeC2EPKNS2_4LinkE:
 3232              	.LFB776:
 3233              		.loc 11 43 0
 3234              		.cfi_startproc
 3235              		@ args = 0, pretend = 0, frame = 8
 3236              		@ frame_needed = 0, uses_anonymous_args = 0
 3237              		@ link register save eliminated.
 3238 0000 82B0     		sub	sp, sp, #8
 3239              		.cfi_def_cfa_offset 8
 3240 0002 0190     		str	r0, [sp, #4]
 3241 0004 0091     		str	r1, [sp]
 3242              	.LBB50:
 3243              		.loc 11 43 0
 3244 0006 019B     		ldr	r3, [sp, #4]
 3245 0008 009A     		ldr	r2, [sp]
 3246 000a 1A60     		str	r2, [r3]
ARM GAS  /tmp/ccm6ijpY.s 			page 58


 3247              	.LBE50:
 3248 000c 019B     		ldr	r3, [sp, #4]
 3249 000e 1846     		mov	r0, r3
 3250 0010 02B0     		add	sp, sp, #8
 3251              		.cfi_def_cfa_offset 0
 3252              		@ sp needed
 3253 0012 7047     		bx	lr
 3254              		.cfi_endproc
 3255              	.LFE776:
 3256              		.size	_ZN3r2p10StaticListINS_16RemoteSubscriberEE14IteratorUnsafeC2EPKNS2_4LinkE, .-_ZN3r2p10Stati
 3257              		.weak	_ZN3r2p10StaticListINS_16RemoteSubscriberEE14IteratorUnsafeC1EPKNS2_4LinkE
 3258              		.thumb_set _ZN3r2p10StaticListINS_16RemoteSubscriberEE14IteratorUnsafeC1EPKNS2_4LinkE,_ZN3r2p10Sta
 3259              		.section	.text._ZNK3r2p10StaticListINS_15LocalSubscriberEE8get_headEv,"axG",%progbits,_ZNK3r2p10St
 3260              		.align	2
 3261              		.weak	_ZNK3r2p10StaticListINS_15LocalSubscriberEE8get_headEv
 3262              		.thumb
 3263              		.thumb_func
 3264              		.type	_ZNK3r2p10StaticListINS_15LocalSubscriberEE8get_headEv, %function
 3265              	_ZNK3r2p10StaticListINS_15LocalSubscriberEE8get_headEv:
 3266              	.LFB779:
 3267              		.loc 11 595 0
 3268              		.cfi_startproc
 3269              		@ args = 0, pretend = 0, frame = 16
 3270              		@ frame_needed = 0, uses_anonymous_args = 0
 3271 0000 00B5     		push	{lr}
 3272              		.cfi_def_cfa_offset 4
 3273              		.cfi_offset 14, -4
 3274 0002 85B0     		sub	sp, sp, #20
 3275              		.cfi_def_cfa_offset 24
 3276 0004 0190     		str	r0, [sp, #4]
 3277              	.LBB51:
 3278              		.loc 11 597 0
 3279 0006 FFF7FEFF 		bl	_ZN3r2p7SysLock7acquireEv
 3280              		.loc 11 598 0
 3281 000a 0198     		ldr	r0, [sp, #4]
 3282 000c FFF7FEFF 		bl	_ZNK3r2p10StaticListINS_15LocalSubscriberEE15get_head_unsafeEv
 3283 0010 0390     		str	r0, [sp, #12]
 3284              		.loc 11 599 0
 3285 0012 FFF7FEFF 		bl	_ZN3r2p7SysLock7releaseEv
 3286              		.loc 11 600 0
 3287 0016 039B     		ldr	r3, [sp, #12]
 3288              	.LBE51:
 3289              		.loc 11 601 0
 3290 0018 1846     		mov	r0, r3
 3291 001a 05B0     		add	sp, sp, #20
 3292              		.cfi_def_cfa_offset 4
 3293              		@ sp needed
 3294 001c 5DF804FB 		ldr	pc, [sp], #4
 3295              		.cfi_endproc
 3296              	.LFE779:
 3297              		.size	_ZNK3r2p10StaticListINS_15LocalSubscriberEE8get_headEv, .-_ZNK3r2p10StaticListINS_15LocalSub
 3298              		.section	.text._ZN3r2p10StaticListINS_15LocalSubscriberEE8IteratorC2EPKNS2_4LinkE,"axG",%progbits,
 3299              		.align	2
 3300              		.weak	_ZN3r2p10StaticListINS_15LocalSubscriberEE8IteratorC2EPKNS2_4LinkE
 3301              		.thumb
 3302              		.thumb_func
 3303              		.type	_ZN3r2p10StaticListINS_15LocalSubscriberEE8IteratorC2EPKNS2_4LinkE, %function
ARM GAS  /tmp/ccm6ijpY.s 			page 59


 3304              	_ZN3r2p10StaticListINS_15LocalSubscriberEE8IteratorC2EPKNS2_4LinkE:
 3305              	.LFB781:
 3306              		.loc 11 147 0
 3307              		.cfi_startproc
 3308              		@ args = 0, pretend = 0, frame = 8
 3309              		@ frame_needed = 0, uses_anonymous_args = 0
 3310              		@ link register save eliminated.
 3311 0000 82B0     		sub	sp, sp, #8
 3312              		.cfi_def_cfa_offset 8
 3313 0002 0190     		str	r0, [sp, #4]
 3314 0004 0091     		str	r1, [sp]
 3315              	.LBB52:
 3316              		.loc 11 147 0
 3317 0006 019B     		ldr	r3, [sp, #4]
 3318 0008 009A     		ldr	r2, [sp]
 3319 000a 1A60     		str	r2, [r3]
 3320              	.LBE52:
 3321 000c 019B     		ldr	r3, [sp, #4]
 3322 000e 1846     		mov	r0, r3
 3323 0010 02B0     		add	sp, sp, #8
 3324              		.cfi_def_cfa_offset 0
 3325              		@ sp needed
 3326 0012 7047     		bx	lr
 3327              		.cfi_endproc
 3328              	.LFE781:
 3329              		.size	_ZN3r2p10StaticListINS_15LocalSubscriberEE8IteratorC2EPKNS2_4LinkE, .-_ZN3r2p10StaticListINS
 3330              		.weak	_ZN3r2p10StaticListINS_15LocalSubscriberEE8IteratorC1EPKNS2_4LinkE
 3331              		.thumb_set _ZN3r2p10StaticListINS_15LocalSubscriberEE8IteratorC1EPKNS2_4LinkE,_ZN3r2p10StaticListI
 3332              		.section	.text._ZNK3r2p10StaticListINS_16RemoteSubscriberEE8get_headEv,"axG",%progbits,_ZNK3r2p10S
 3333              		.align	2
 3334              		.weak	_ZNK3r2p10StaticListINS_16RemoteSubscriberEE8get_headEv
 3335              		.thumb
 3336              		.thumb_func
 3337              		.type	_ZNK3r2p10StaticListINS_16RemoteSubscriberEE8get_headEv, %function
 3338              	_ZNK3r2p10StaticListINS_16RemoteSubscriberEE8get_headEv:
 3339              	.LFB783:
 3340              		.loc 11 595 0
 3341              		.cfi_startproc
 3342              		@ args = 0, pretend = 0, frame = 16
 3343              		@ frame_needed = 0, uses_anonymous_args = 0
 3344 0000 00B5     		push	{lr}
 3345              		.cfi_def_cfa_offset 4
 3346              		.cfi_offset 14, -4
 3347 0002 85B0     		sub	sp, sp, #20
 3348              		.cfi_def_cfa_offset 24
 3349 0004 0190     		str	r0, [sp, #4]
 3350              	.LBB53:
 3351              		.loc 11 597 0
 3352 0006 FFF7FEFF 		bl	_ZN3r2p7SysLock7acquireEv
 3353              		.loc 11 598 0
 3354 000a 0198     		ldr	r0, [sp, #4]
 3355 000c FFF7FEFF 		bl	_ZNK3r2p10StaticListINS_16RemoteSubscriberEE15get_head_unsafeEv
 3356 0010 0390     		str	r0, [sp, #12]
 3357              		.loc 11 599 0
 3358 0012 FFF7FEFF 		bl	_ZN3r2p7SysLock7releaseEv
 3359              		.loc 11 600 0
 3360 0016 039B     		ldr	r3, [sp, #12]
ARM GAS  /tmp/ccm6ijpY.s 			page 60


 3361              	.LBE53:
 3362              		.loc 11 601 0
 3363 0018 1846     		mov	r0, r3
 3364 001a 05B0     		add	sp, sp, #20
 3365              		.cfi_def_cfa_offset 4
 3366              		@ sp needed
 3367 001c 5DF804FB 		ldr	pc, [sp], #4
 3368              		.cfi_endproc
 3369              	.LFE783:
 3370              		.size	_ZNK3r2p10StaticListINS_16RemoteSubscriberEE8get_headEv, .-_ZNK3r2p10StaticListINS_16RemoteS
 3371              		.section	.text._ZN3r2p10StaticListINS_16RemoteSubscriberEE8IteratorC2EPKNS2_4LinkE,"axG",%progbits
 3372              		.align	2
 3373              		.weak	_ZN3r2p10StaticListINS_16RemoteSubscriberEE8IteratorC2EPKNS2_4LinkE
 3374              		.thumb
 3375              		.thumb_func
 3376              		.type	_ZN3r2p10StaticListINS_16RemoteSubscriberEE8IteratorC2EPKNS2_4LinkE, %function
 3377              	_ZN3r2p10StaticListINS_16RemoteSubscriberEE8IteratorC2EPKNS2_4LinkE:
 3378              	.LFB785:
 3379              		.loc 11 147 0
 3380              		.cfi_startproc
 3381              		@ args = 0, pretend = 0, frame = 8
 3382              		@ frame_needed = 0, uses_anonymous_args = 0
 3383              		@ link register save eliminated.
 3384 0000 82B0     		sub	sp, sp, #8
 3385              		.cfi_def_cfa_offset 8
 3386 0002 0190     		str	r0, [sp, #4]
 3387 0004 0091     		str	r1, [sp]
 3388              	.LBB54:
 3389              		.loc 11 147 0
 3390 0006 019B     		ldr	r3, [sp, #4]
 3391 0008 009A     		ldr	r2, [sp]
 3392 000a 1A60     		str	r2, [r3]
 3393              	.LBE54:
 3394 000c 019B     		ldr	r3, [sp, #4]
 3395 000e 1846     		mov	r0, r3
 3396 0010 02B0     		add	sp, sp, #8
 3397              		.cfi_def_cfa_offset 0
 3398              		@ sp needed
 3399 0012 7047     		bx	lr
 3400              		.cfi_endproc
 3401              	.LFE785:
 3402              		.size	_ZN3r2p10StaticListINS_16RemoteSubscriberEE8IteratorC2EPKNS2_4LinkE, .-_ZN3r2p10StaticListIN
 3403              		.weak	_ZN3r2p10StaticListINS_16RemoteSubscriberEE8IteratorC1EPKNS2_4LinkE
 3404              		.thumb_set _ZN3r2p10StaticListINS_16RemoteSubscriberEE8IteratorC1EPKNS2_4LinkE,_ZN3r2p10StaticList
 3405              		.section	.text._ZN3r2p10StaticListINS_15LocalSubscriberEE13unlink_unsafeERNS2_4LinkE,"axG",%progbi
 3406              		.align	2
 3407              		.weak	_ZN3r2p10StaticListINS_15LocalSubscriberEE13unlink_unsafeERNS2_4LinkE
 3408              		.thumb
 3409              		.thumb_func
 3410              		.type	_ZN3r2p10StaticListINS_15LocalSubscriberEE13unlink_unsafeERNS2_4LinkE, %function
 3411              	_ZN3r2p10StaticListINS_15LocalSubscriberEE13unlink_unsafeERNS2_4LinkE:
 3412              	.LFB787:
 3413              		.loc 11 526 0
 3414              		.cfi_startproc
 3415              		@ args = 0, pretend = 0, frame = 16
 3416              		@ frame_needed = 0, uses_anonymous_args = 0
 3417              		@ link register save eliminated.
ARM GAS  /tmp/ccm6ijpY.s 			page 61


 3418 0000 84B0     		sub	sp, sp, #16
 3419              		.cfi_def_cfa_offset 16
 3420 0002 0190     		str	r0, [sp, #4]
 3421 0004 0091     		str	r1, [sp]
 3422              	.LBB55:
 3423              	.LBB56:
 3424              		.loc 11 528 0
 3425 0006 019B     		ldr	r3, [sp, #4]
 3426 0008 1B68     		ldr	r3, [r3]
 3427 000a 0393     		str	r3, [sp, #12]
 3428 000c 0023     		movs	r3, #0
 3429 000e 0293     		str	r3, [sp, #8]
 3430 0010 19E0     		b	.L210
 3431              	.L215:
 3432              		.loc 11 531 0
 3433 0012 039A     		ldr	r2, [sp, #12]
 3434 0014 009B     		ldr	r3, [sp]
 3435 0016 9A42     		cmp	r2, r3
 3436 0018 10D1     		bne	.L211
 3437              		.loc 11 532 0
 3438 001a 029B     		ldr	r3, [sp, #8]
 3439 001c 002B     		cmp	r3, #0
 3440 001e 04D0     		beq	.L212
 3441              		.loc 11 532 0 is_stmt 0 discriminator 1
 3442 0020 039B     		ldr	r3, [sp, #12]
 3443 0022 1A68     		ldr	r2, [r3]
 3444 0024 029B     		ldr	r3, [sp, #8]
 3445 0026 1A60     		str	r2, [r3]
 3446 0028 03E0     		b	.L213
 3447              	.L212:
 3448              		.loc 11 533 0 is_stmt 1
 3449 002a 039B     		ldr	r3, [sp, #12]
 3450 002c 1A68     		ldr	r2, [r3]
 3451 002e 019B     		ldr	r3, [sp, #4]
 3452 0030 1A60     		str	r2, [r3]
 3453              	.L213:
 3454              		.loc 11 534 0
 3455 0032 039B     		ldr	r3, [sp, #12]
 3456 0034 0022     		movs	r2, #0
 3457 0036 1A60     		str	r2, [r3]
 3458              		.loc 11 535 0
 3459 0038 0123     		movs	r3, #1
 3460 003a 08E0     		b	.L214
 3461              	.L211:
 3462              		.loc 11 528 0 discriminator 2
 3463 003c 039B     		ldr	r3, [sp, #12]
 3464 003e 0293     		str	r3, [sp, #8]
 3465 0040 039B     		ldr	r3, [sp, #12]
 3466 0042 1B68     		ldr	r3, [r3]
 3467 0044 0393     		str	r3, [sp, #12]
 3468              	.L210:
 3469              		.loc 11 528 0 is_stmt 0 discriminator 1
 3470 0046 039B     		ldr	r3, [sp, #12]
 3471 0048 002B     		cmp	r3, #0
 3472 004a E2D1     		bne	.L215
 3473              	.LBE56:
 3474              		.loc 11 538 0 is_stmt 1
ARM GAS  /tmp/ccm6ijpY.s 			page 62


 3475 004c 0023     		movs	r3, #0
 3476              	.L214:
 3477              	.LBE55:
 3478              		.loc 11 539 0
 3479 004e 1846     		mov	r0, r3
 3480 0050 04B0     		add	sp, sp, #16
 3481              		.cfi_def_cfa_offset 0
 3482              		@ sp needed
 3483 0052 7047     		bx	lr
 3484              		.cfi_endproc
 3485              	.LFE787:
 3486              		.size	_ZN3r2p10StaticListINS_15LocalSubscriberEE13unlink_unsafeERNS2_4LinkE, .-_ZN3r2p10StaticList
 3487              		.section	.text._ZN3r2p10StaticListINS_16RemoteSubscriberEE13unlink_unsafeERNS2_4LinkE,"axG",%progb
 3488              		.align	2
 3489              		.weak	_ZN3r2p10StaticListINS_16RemoteSubscriberEE13unlink_unsafeERNS2_4LinkE
 3490              		.thumb
 3491              		.thumb_func
 3492              		.type	_ZN3r2p10StaticListINS_16RemoteSubscriberEE13unlink_unsafeERNS2_4LinkE, %function
 3493              	_ZN3r2p10StaticListINS_16RemoteSubscriberEE13unlink_unsafeERNS2_4LinkE:
 3494              	.LFB788:
 3495              		.loc 11 526 0
 3496              		.cfi_startproc
 3497              		@ args = 0, pretend = 0, frame = 16
 3498              		@ frame_needed = 0, uses_anonymous_args = 0
 3499              		@ link register save eliminated.
 3500 0000 84B0     		sub	sp, sp, #16
 3501              		.cfi_def_cfa_offset 16
 3502 0002 0190     		str	r0, [sp, #4]
 3503 0004 0091     		str	r1, [sp]
 3504              	.LBB57:
 3505              	.LBB58:
 3506              		.loc 11 528 0
 3507 0006 019B     		ldr	r3, [sp, #4]
 3508 0008 1B68     		ldr	r3, [r3]
 3509 000a 0393     		str	r3, [sp, #12]
 3510 000c 0023     		movs	r3, #0
 3511 000e 0293     		str	r3, [sp, #8]
 3512 0010 19E0     		b	.L217
 3513              	.L222:
 3514              		.loc 11 531 0
 3515 0012 039A     		ldr	r2, [sp, #12]
 3516 0014 009B     		ldr	r3, [sp]
 3517 0016 9A42     		cmp	r2, r3
 3518 0018 10D1     		bne	.L218
 3519              		.loc 11 532 0
 3520 001a 029B     		ldr	r3, [sp, #8]
 3521 001c 002B     		cmp	r3, #0
 3522 001e 04D0     		beq	.L219
 3523              		.loc 11 532 0 is_stmt 0 discriminator 1
 3524 0020 039B     		ldr	r3, [sp, #12]
 3525 0022 1A68     		ldr	r2, [r3]
 3526 0024 029B     		ldr	r3, [sp, #8]
 3527 0026 1A60     		str	r2, [r3]
 3528 0028 03E0     		b	.L220
 3529              	.L219:
 3530              		.loc 11 533 0 is_stmt 1
 3531 002a 039B     		ldr	r3, [sp, #12]
ARM GAS  /tmp/ccm6ijpY.s 			page 63


 3532 002c 1A68     		ldr	r2, [r3]
 3533 002e 019B     		ldr	r3, [sp, #4]
 3534 0030 1A60     		str	r2, [r3]
 3535              	.L220:
 3536              		.loc 11 534 0
 3537 0032 039B     		ldr	r3, [sp, #12]
 3538 0034 0022     		movs	r2, #0
 3539 0036 1A60     		str	r2, [r3]
 3540              		.loc 11 535 0
 3541 0038 0123     		movs	r3, #1
 3542 003a 08E0     		b	.L221
 3543              	.L218:
 3544              		.loc 11 528 0 discriminator 2
 3545 003c 039B     		ldr	r3, [sp, #12]
 3546 003e 0293     		str	r3, [sp, #8]
 3547 0040 039B     		ldr	r3, [sp, #12]
 3548 0042 1B68     		ldr	r3, [r3]
 3549 0044 0393     		str	r3, [sp, #12]
 3550              	.L217:
 3551              		.loc 11 528 0 is_stmt 0 discriminator 1
 3552 0046 039B     		ldr	r3, [sp, #12]
 3553 0048 002B     		cmp	r3, #0
 3554 004a E2D1     		bne	.L222
 3555              	.LBE58:
 3556              		.loc 11 538 0 is_stmt 1
 3557 004c 0023     		movs	r3, #0
 3558              	.L221:
 3559              	.LBE57:
 3560              		.loc 11 539 0
 3561 004e 1846     		mov	r0, r3
 3562 0050 04B0     		add	sp, sp, #16
 3563              		.cfi_def_cfa_offset 0
 3564              		@ sp needed
 3565 0052 7047     		bx	lr
 3566              		.cfi_endproc
 3567              	.LFE788:
 3568              		.size	_ZN3r2p10StaticListINS_16RemoteSubscriberEE13unlink_unsafeERNS2_4LinkE, .-_ZN3r2p10StaticLis
 3569              		.text
 3570              	.Letext0:
 3571              		.file 12 "/opt/R2P/tools/gcc-arm-none-eabi-4_9-2014q4/lib/gcc/arm-none-eabi/4.9.3/include/stddef.h
 3572              		.file 13 "/opt/R2P/tools/gcc-arm-none-eabi-4_9-2014q4/arm-none-eabi/include/machine/_default_types
 3573              		.file 14 "/opt/R2P/tools/gcc-arm-none-eabi-4_9-2014q4/arm-none-eabi/include/c++/4.9.3/cstring"
 3574              		.file 15 "/opt/R2P/tools/gcc-arm-none-eabi-4_9-2014q4/arm-none-eabi/include/string.h"
 3575              		.file 16 "<built-in>"
 3576              		.file 17 "/opt/R2P/core/Middleware/port/chibios/include/r2p/impl/Thread_.hpp"
 3577              		.file 18 "/opt/R2P/core/Middleware/include/r2p/Thread.hpp"
 3578              		.file 19 "/opt/R2P/core/Middleware/port/chibios/include/r2p/impl/SpinEvent_.hpp"
 3579              		.file 20 "/opt/R2P/core/Middleware/include/r2p/SpinEvent.hpp"
 3580              		.file 21 "/opt/R2P/core/Middleware/include/r2p/MgmtMsg.hpp"
 3581              		.file 22 "/opt/R2P/core/Middleware/include/r2p/Node.hpp"
 3582              		.file 23 "/opt/R2P/core/Middleware/port/chibios/include/r2p/impl/Mutex_.hpp"
 3583              		.file 24 "/opt/R2P/core/Middleware/include/r2p/Mutex.hpp"
 3584              		.file 25 "/opt/R2P/core/Middleware/include/r2p/ReMutex.hpp"
 3585              		.file 26 "/opt/R2P/tools/gcc-arm-none-eabi-4_9-2014q4/arm-none-eabi/include/stdint.h"
 3586              		.file 27 "/opt/R2P/core/ChibiOS_2.6.5/os/ports/GCC/ARMCMx/chtypes.h"
 3587              		.file 28 "/opt/R2P/core/ChibiOS_2.6.5/os/kernel/include/chlists.h"
 3588              		.file 29 "/opt/R2P/core/ChibiOS_2.6.5/os/kernel/include/chthreads.h"
ARM GAS  /tmp/ccm6ijpY.s 			page 64


 3589              		.file 30 "/opt/R2P/core/ChibiOS_2.6.5/os/ports/GCC/ARMCMx/chcore_v7m.h"
 3590              		.file 31 "/opt/R2P/core/ChibiOS_2.6.5/os/kernel/include/chschd.h"
 3591              		.file 32 "/opt/R2P/core/ChibiOS_2.6.5/os/kernel/include/chmtx.h"
 3592              		.file 33 "/opt/R2P/core/ChibiOS_2.6.5/os/kernel/include/chmemcore.h"
 3593              		.file 34 "/opt/R2P/core/ChibiOS_2.6.5/os/kernel/include/chmempools.h"
 3594              		.file 35 "/opt/R2P/core/Middleware/include/r2p/common.hpp"
 3595              		.file 36 "/opt/R2P/core/Middleware/port/chibios/include/r2p/impl/Flasher_.hpp"
 3596              		.file 37 "/opt/R2P/core/ChibiOS_2.6.5/os/ports/common/ARMCMx/CMSIS/include/core_cm4.h"