ARM GAS  /tmp/ccyYK6L9.s 			page 1


   1              		.syntax unified
   2              		.cpu cortex-m4
   3              		.fpu softvfp
   4              		.eabi_attribute 20, 1
   5              		.eabi_attribute 21, 1
   6              		.eabi_attribute 23, 3
   7              		.eabi_attribute 24, 1
   8              		.eabi_attribute 25, 1
   9              		.eabi_attribute 26, 1
  10              		.eabi_attribute 30, 6
  11              		.eabi_attribute 34, 1
  12              		.eabi_attribute 18, 4
  13              		.thumb
  14              		.file	"Transport.cpp"
  15              		.text
  16              	.Ltext0:
  17              		.cfi_sections	.debug_frame
  18              		.section	.text._ZN3r2p10UncopyableC2Ev,"axG",%progbits,_ZN3r2p10UncopyableC5Ev,comdat
  19              		.align	2
  20              		.weak	_ZN3r2p10UncopyableC2Ev
  21              		.thumb
  22              		.thumb_func
  23              		.type	_ZN3r2p10UncopyableC2Ev, %function
  24              	_ZN3r2p10UncopyableC2Ev:
  25              	.LFB6:
  26              		.file 1 "/opt/R2P/core/Middleware/include/r2p/Uncopyable.hpp"
  27              		.loc 1 20 0
  28              		.cfi_startproc
  29              		@ args = 0, pretend = 0, frame = 8
  30              		@ frame_needed = 0, uses_anonymous_args = 0
  31              		@ link register save eliminated.
  32 0000 82B0     		sub	sp, sp, #8
  33              		.cfi_def_cfa_offset 8
  34 0002 0190     		str	r0, [sp, #4]
  35              		.loc 1 20 0
  36 0004 019B     		ldr	r3, [sp, #4]
  37 0006 1846     		mov	r0, r3
  38 0008 02B0     		add	sp, sp, #8
  39              		.cfi_def_cfa_offset 0
  40              		@ sp needed
  41 000a 7047     		bx	lr
  42              		.cfi_endproc
  43              	.LFE6:
  44              		.size	_ZN3r2p10UncopyableC2Ev, .-_ZN3r2p10UncopyableC2Ev
  45              		.weak	_ZN3r2p10UncopyableC1Ev
  46              		.thumb_set _ZN3r2p10UncopyableC1Ev,_ZN3r2p10UncopyableC2Ev
  47              		.section	.text._ZN3r2p10UncopyableD2Ev,"axG",%progbits,_ZN3r2p10UncopyableD5Ev,comdat
  48              		.align	2
  49              		.weak	_ZN3r2p10UncopyableD2Ev
  50              		.thumb
  51              		.thumb_func
  52              		.type	_ZN3r2p10UncopyableD2Ev, %function
  53              	_ZN3r2p10UncopyableD2Ev:
  54              	.LFB9:
  55              		.loc 1 21 0
  56              		.cfi_startproc
  57              		@ args = 0, pretend = 0, frame = 8
ARM GAS  /tmp/ccyYK6L9.s 			page 2


  58              		@ frame_needed = 0, uses_anonymous_args = 0
  59              		@ link register save eliminated.
  60 0000 82B0     		sub	sp, sp, #8
  61              		.cfi_def_cfa_offset 8
  62 0002 0190     		str	r0, [sp, #4]
  63              		.loc 1 21 0
  64 0004 019B     		ldr	r3, [sp, #4]
  65 0006 1846     		mov	r0, r3
  66 0008 02B0     		add	sp, sp, #8
  67              		.cfi_def_cfa_offset 0
  68              		@ sp needed
  69 000a 7047     		bx	lr
  70              		.cfi_endproc
  71              	.LFE9:
  72              		.size	_ZN3r2p10UncopyableD2Ev, .-_ZN3r2p10UncopyableD2Ev
  73              		.weak	_ZN3r2p10UncopyableD1Ev
  74              		.thumb_set _ZN3r2p10UncopyableD1Ev,_ZN3r2p10UncopyableD2Ev
  75              		.section	.text._ZN3r2p8SysLock_7acquireEv,"axG",%progbits,_ZN3r2p8SysLock_7acquireEv,comdat
  76              		.align	2
  77              		.weak	_ZN3r2p8SysLock_7acquireEv
  78              		.thumb
  79              		.thumb_func
  80              		.type	_ZN3r2p8SysLock_7acquireEv, %function
  81              	_ZN3r2p8SysLock_7acquireEv:
  82              	.LFB18:
  83              		.file 2 "/opt/R2P/core/Middleware/port/chibios/include/r2p/impl/SysLock_.hpp"
  84              		.loc 2 20 0
  85              		.cfi_startproc
  86              		@ args = 0, pretend = 0, frame = 0
  87              		@ frame_needed = 0, uses_anonymous_args = 0
  88 0000 08B5     		push	{r3, lr}
  89              		.cfi_def_cfa_offset 8
  90              		.cfi_offset 3, -8
  91              		.cfi_offset 14, -4
  92              	.LBB2:
  93              	.LBB3:
  94              	.LBB4:
  95              		.loc 2 22 0
  96 0002 2023     		movs	r3, #32
  97              	@ 22 "/opt/R2P/core/Middleware/port/chibios/include/r2p/impl/SysLock_.hpp" 1
  98 0004 83F31188 		msr     BASEPRI, r3
  99              	@ 0 "" 2
 100              		.thumb
 101              	.LBE4:
 102 0008 FFF7FEFF 		bl	dbg_check_lock
 103              	.LBE3:
 104              	.LBE2:
 105              		.loc 2 23 0
 106 000c 08BD     		pop	{r3, pc}
 107              		.cfi_endproc
 108              	.LFE18:
 109              		.size	_ZN3r2p8SysLock_7acquireEv, .-_ZN3r2p8SysLock_7acquireEv
 110 000e 00BF     		.section	.text._ZN3r2p8SysLock_7releaseEv,"axG",%progbits,_ZN3r2p8SysLock_7releaseEv,comdat
 111              		.align	2
 112              		.weak	_ZN3r2p8SysLock_7releaseEv
 113              		.thumb
 114              		.thumb_func
ARM GAS  /tmp/ccyYK6L9.s 			page 3


 115              		.type	_ZN3r2p8SysLock_7releaseEv, %function
 116              	_ZN3r2p8SysLock_7releaseEv:
 117              	.LFB19:
 118              		.loc 2 27 0
 119              		.cfi_startproc
 120              		@ args = 0, pretend = 0, frame = 0
 121              		@ frame_needed = 0, uses_anonymous_args = 0
 122 0000 08B5     		push	{r3, lr}
 123              		.cfi_def_cfa_offset 8
 124              		.cfi_offset 3, -8
 125              		.cfi_offset 14, -4
 126              	.LBB5:
 127              	.LBB6:
 128              		.loc 2 29 0
 129 0002 FFF7FEFF 		bl	dbg_check_unlock
 130              	.LBB7:
 131 0006 0023     		movs	r3, #0
 132              	@ 29 "/opt/R2P/core/Middleware/port/chibios/include/r2p/impl/SysLock_.hpp" 1
 133 0008 83F31188 		msr     BASEPRI, r3
 134              	@ 0 "" 2
 135              		.thumb
 136              	.LBE7:
 137              	.LBE6:
 138              	.LBE5:
 139              		.loc 2 30 0
 140 000c 08BD     		pop	{r3, pc}
 141              		.cfi_endproc
 142              	.LFE19:
 143              		.size	_ZN3r2p8SysLock_7releaseEv, .-_ZN3r2p8SysLock_7releaseEv
 144 000e 00BF     		.section	.text._ZN3r2p7SysLock7acquireEv,"axG",%progbits,_ZN3r2p7SysLock7acquireEv,comdat
 145              		.align	2
 146              		.weak	_ZN3r2p7SysLock7acquireEv
 147              		.thumb
 148              		.thumb_func
 149              		.type	_ZN3r2p7SysLock7acquireEv, %function
 150              	_ZN3r2p7SysLock7acquireEv:
 151              	.LFB26:
 152              		.file 3 "/opt/R2P/core/Middleware/include/r2p/SysLock.hpp"
 153              		.loc 3 27 0
 154              		.cfi_startproc
 155              		@ args = 0, pretend = 0, frame = 0
 156              		@ frame_needed = 0, uses_anonymous_args = 0
 157 0000 08B5     		push	{r3, lr}
 158              		.cfi_def_cfa_offset 8
 159              		.cfi_offset 3, -8
 160              		.cfi_offset 14, -4
 161              		.loc 3 29 0
 162 0002 FFF7FEFF 		bl	_ZN3r2p8SysLock_7acquireEv
 163              		.loc 3 30 0
 164 0006 08BD     		pop	{r3, pc}
 165              		.cfi_endproc
 166              	.LFE26:
 167              		.size	_ZN3r2p7SysLock7acquireEv, .-_ZN3r2p7SysLock7acquireEv
 168              		.section	.text._ZN3r2p7SysLock7releaseEv,"axG",%progbits,_ZN3r2p7SysLock7releaseEv,comdat
 169              		.align	2
 170              		.weak	_ZN3r2p7SysLock7releaseEv
 171              		.thumb
ARM GAS  /tmp/ccyYK6L9.s 			page 4


 172              		.thumb_func
 173              		.type	_ZN3r2p7SysLock7releaseEv, %function
 174              	_ZN3r2p7SysLock7releaseEv:
 175              	.LFB27:
 176              		.loc 3 34 0
 177              		.cfi_startproc
 178              		@ args = 0, pretend = 0, frame = 0
 179              		@ frame_needed = 0, uses_anonymous_args = 0
 180 0000 08B5     		push	{r3, lr}
 181              		.cfi_def_cfa_offset 8
 182              		.cfi_offset 3, -8
 183              		.cfi_offset 14, -4
 184              		.loc 3 36 0
 185 0002 FFF7FEFF 		bl	_ZN3r2p8SysLock_7releaseEv
 186              		.loc 3 37 0
 187 0006 08BD     		pop	{r3, pc}
 188              		.cfi_endproc
 189              	.LFE27:
 190              		.size	_ZN3r2p7SysLock7releaseEv, .-_ZN3r2p7SysLock7releaseEv
 191              		.section	.text._ZN3r2p4TimeC2Ev,"axG",%progbits,_ZN3r2p4TimeC5Ev,comdat
 192              		.align	2
 193              		.weak	_ZN3r2p4TimeC2Ev
 194              		.thumb
 195              		.thumb_func
 196              		.type	_ZN3r2p4TimeC2Ev, %function
 197              	_ZN3r2p4TimeC2Ev:
 198              	.LFB144:
 199              		.file 4 "/opt/R2P/core/Middleware/include/r2p/Time.hpp"
 200              		.loc 4 155 0
 201              		.cfi_startproc
 202              		@ args = 0, pretend = 0, frame = 8
 203              		@ frame_needed = 0, uses_anonymous_args = 0
 204              		@ link register save eliminated.
 205 0000 82B0     		sub	sp, sp, #8
 206              		.cfi_def_cfa_offset 8
 207 0002 0190     		str	r0, [sp, #4]
 208              	.LBB8:
 209              		.loc 4 155 0
 210 0004 019B     		ldr	r3, [sp, #4]
 211 0006 0022     		movs	r2, #0
 212 0008 1A60     		str	r2, [r3]
 213              	.LBE8:
 214 000a 019B     		ldr	r3, [sp, #4]
 215 000c 1846     		mov	r0, r3
 216 000e 02B0     		add	sp, sp, #8
 217              		.cfi_def_cfa_offset 0
 218              		@ sp needed
 219 0010 7047     		bx	lr
 220              		.cfi_endproc
 221              	.LFE144:
 222              		.size	_ZN3r2p4TimeC2Ev, .-_ZN3r2p4TimeC2Ev
 223              		.weak	_ZN3r2p4TimeC1Ev
 224              		.thumb_set _ZN3r2p4TimeC1Ev,_ZN3r2p4TimeC2Ev
 225 0012 00BF     		.section	.text._ZN3r2p22TimestampedMsgPtrQueue5EntryC2Ev,"axG",%progbits,_ZN3r2p22TimestampedMsgPt
 226              		.align	2
 227              		.weak	_ZN3r2p22TimestampedMsgPtrQueue5EntryC2Ev
 228              		.thumb
ARM GAS  /tmp/ccyYK6L9.s 			page 5


 229              		.thumb_func
 230              		.type	_ZN3r2p22TimestampedMsgPtrQueue5EntryC2Ev, %function
 231              	_ZN3r2p22TimestampedMsgPtrQueue5EntryC2Ev:
 232              	.LFB180:
 233              		.file 5 "/opt/R2P/core/Middleware/include/r2p/TimestampedMsgPtrQueue.hpp"
 234              		.loc 5 106 0
 235              		.cfi_startproc
 236              		@ args = 0, pretend = 0, frame = 8
 237              		@ frame_needed = 0, uses_anonymous_args = 0
 238 0000 00B5     		push	{lr}
 239              		.cfi_def_cfa_offset 4
 240              		.cfi_offset 14, -4
 241 0002 83B0     		sub	sp, sp, #12
 242              		.cfi_def_cfa_offset 16
 243 0004 0190     		str	r0, [sp, #4]
 244              	.LBB9:
 245              		.loc 5 108 0
 246 0006 019B     		ldr	r3, [sp, #4]
 247 0008 0022     		movs	r2, #0
 248 000a 1A60     		str	r2, [r3]
 249 000c 019B     		ldr	r3, [sp, #4]
 250 000e 0433     		adds	r3, r3, #4
 251 0010 1846     		mov	r0, r3
 252 0012 FFF7FEFF 		bl	_ZN3r2p4TimeC1Ev
 253              	.LBE9:
 254              		.loc 5 109 0
 255 0016 019B     		ldr	r3, [sp, #4]
 256 0018 1846     		mov	r0, r3
 257 001a 03B0     		add	sp, sp, #12
 258              		.cfi_def_cfa_offset 4
 259              		@ sp needed
 260 001c 5DF804FB 		ldr	pc, [sp], #4
 261              		.cfi_endproc
 262              	.LFE180:
 263              		.size	_ZN3r2p22TimestampedMsgPtrQueue5EntryC2Ev, .-_ZN3r2p22TimestampedMsgPtrQueue5EntryC2Ev
 264              		.weak	_ZN3r2p22TimestampedMsgPtrQueue5EntryC1Ev
 265              		.thumb_set _ZN3r2p22TimestampedMsgPtrQueue5EntryC1Ev,_ZN3r2p22TimestampedMsgPtrQueue5EntryC2Ev
 266              		.section	.text._ZN3r2p6Mutex_10initializeEv,"axG",%progbits,_ZN3r2p6Mutex_10initializeEv,comdat
 267              		.align	2
 268              		.weak	_ZN3r2p6Mutex_10initializeEv
 269              		.thumb
 270              		.thumb_func
 271              		.type	_ZN3r2p6Mutex_10initializeEv, %function
 272              	_ZN3r2p6Mutex_10initializeEv:
 273              	.LFB182:
 274              		.file 6 "/opt/R2P/core/Middleware/port/chibios/include/r2p/impl/Mutex_.hpp"
 275              		.loc 6 31 0
 276              		.cfi_startproc
 277              		@ args = 0, pretend = 0, frame = 8
 278              		@ frame_needed = 0, uses_anonymous_args = 0
 279 0000 00B5     		push	{lr}
 280              		.cfi_def_cfa_offset 4
 281              		.cfi_offset 14, -4
 282 0002 83B0     		sub	sp, sp, #12
 283              		.cfi_def_cfa_offset 16
 284 0004 0190     		str	r0, [sp, #4]
 285              		.loc 6 33 0
ARM GAS  /tmp/ccyYK6L9.s 			page 6


 286 0006 019B     		ldr	r3, [sp, #4]
 287 0008 1846     		mov	r0, r3
 288 000a FFF7FEFF 		bl	chMtxInit
 289              		.loc 6 34 0
 290 000e 03B0     		add	sp, sp, #12
 291              		.cfi_def_cfa_offset 4
 292              		@ sp needed
 293 0010 5DF804FB 		ldr	pc, [sp], #4
 294              		.cfi_endproc
 295              	.LFE182:
 296              		.size	_ZN3r2p6Mutex_10initializeEv, .-_ZN3r2p6Mutex_10initializeEv
 297              		.section	.text._ZN3r2p6Mutex_7acquireEv,"axG",%progbits,_ZN3r2p6Mutex_7acquireEv,comdat
 298              		.align	2
 299              		.weak	_ZN3r2p6Mutex_7acquireEv
 300              		.thumb
 301              		.thumb_func
 302              		.type	_ZN3r2p6Mutex_7acquireEv, %function
 303              	_ZN3r2p6Mutex_7acquireEv:
 304              	.LFB185:
 305              		.loc 6 52 0
 306              		.cfi_startproc
 307              		@ args = 0, pretend = 0, frame = 8
 308              		@ frame_needed = 0, uses_anonymous_args = 0
 309 0000 00B5     		push	{lr}
 310              		.cfi_def_cfa_offset 4
 311              		.cfi_offset 14, -4
 312 0002 83B0     		sub	sp, sp, #12
 313              		.cfi_def_cfa_offset 16
 314 0004 0190     		str	r0, [sp, #4]
 315              		.loc 6 54 0
 316 0006 019B     		ldr	r3, [sp, #4]
 317 0008 1846     		mov	r0, r3
 318 000a FFF7FEFF 		bl	chMtxLock
 319              		.loc 6 55 0
 320 000e 03B0     		add	sp, sp, #12
 321              		.cfi_def_cfa_offset 4
 322              		@ sp needed
 323 0010 5DF804FB 		ldr	pc, [sp], #4
 324              		.cfi_endproc
 325              	.LFE185:
 326              		.size	_ZN3r2p6Mutex_7acquireEv, .-_ZN3r2p6Mutex_7acquireEv
 327              		.section	.text._ZN3r2p6Mutex_7releaseEv,"axG",%progbits,_ZN3r2p6Mutex_7releaseEv,comdat
 328              		.align	2
 329              		.weak	_ZN3r2p6Mutex_7releaseEv
 330              		.thumb
 331              		.thumb_func
 332              		.type	_ZN3r2p6Mutex_7releaseEv, %function
 333              	_ZN3r2p6Mutex_7releaseEv:
 334              	.LFB186:
 335              		.loc 6 59 0
 336              		.cfi_startproc
 337              		@ args = 0, pretend = 0, frame = 8
 338              		@ frame_needed = 0, uses_anonymous_args = 0
 339 0000 00B5     		push	{lr}
 340              		.cfi_def_cfa_offset 4
 341              		.cfi_offset 14, -4
 342 0002 83B0     		sub	sp, sp, #12
ARM GAS  /tmp/ccyYK6L9.s 			page 7


 343              		.cfi_def_cfa_offset 16
 344 0004 0190     		str	r0, [sp, #4]
 345              		.loc 6 61 0
 346 0006 FFF7FEFF 		bl	chMtxUnlock
 347              		.loc 6 62 0
 348 000a 03B0     		add	sp, sp, #12
 349              		.cfi_def_cfa_offset 4
 350              		@ sp needed
 351 000c 5DF804FB 		ldr	pc, [sp], #4
 352              		.cfi_endproc
 353              	.LFE186:
 354              		.size	_ZN3r2p6Mutex_7releaseEv, .-_ZN3r2p6Mutex_7releaseEv
 355              		.section	.text._ZN3r2p6Mutex_C2Ev,"axG",%progbits,_ZN3r2p6Mutex_C5Ev,comdat
 356              		.align	2
 357              		.weak	_ZN3r2p6Mutex_C2Ev
 358              		.thumb
 359              		.thumb_func
 360              		.type	_ZN3r2p6Mutex_C2Ev, %function
 361              	_ZN3r2p6Mutex_C2Ev:
 362              	.LFB189:
 363              		.loc 6 73 0
 364              		.cfi_startproc
 365              		@ args = 0, pretend = 0, frame = 8
 366              		@ frame_needed = 0, uses_anonymous_args = 0
 367 0000 00B5     		push	{lr}
 368              		.cfi_def_cfa_offset 4
 369              		.cfi_offset 14, -4
 370 0002 83B0     		sub	sp, sp, #12
 371              		.cfi_def_cfa_offset 16
 372 0004 0190     		str	r0, [sp, #4]
 373              	.LBB10:
 374              		.loc 6 73 0
 375 0006 0198     		ldr	r0, [sp, #4]
 376 0008 FFF7FEFF 		bl	_ZN3r2p10UncopyableC2Ev
 377              		.loc 6 75 0
 378 000c 0198     		ldr	r0, [sp, #4]
 379 000e FFF7FEFF 		bl	_ZN3r2p6Mutex_10initializeEv
 380              	.LBE10:
 381              		.loc 6 76 0
 382 0012 019B     		ldr	r3, [sp, #4]
 383 0014 1846     		mov	r0, r3
 384 0016 03B0     		add	sp, sp, #12
 385              		.cfi_def_cfa_offset 4
 386              		@ sp needed
 387 0018 5DF804FB 		ldr	pc, [sp], #4
 388              		.cfi_endproc
 389              	.LFE189:
 390              		.size	_ZN3r2p6Mutex_C2Ev, .-_ZN3r2p6Mutex_C2Ev
 391              		.weak	_ZN3r2p6Mutex_C1Ev
 392              		.thumb_set _ZN3r2p6Mutex_C1Ev,_ZN3r2p6Mutex_C2Ev
 393              		.section	.text._ZN3r2p5Mutex7acquireEv,"axG",%progbits,_ZN3r2p5Mutex7acquireEv,comdat
 394              		.align	2
 395              		.weak	_ZN3r2p5Mutex7acquireEv
 396              		.thumb
 397              		.thumb_func
 398              		.type	_ZN3r2p5Mutex7acquireEv, %function
 399              	_ZN3r2p5Mutex7acquireEv:
ARM GAS  /tmp/ccyYK6L9.s 			page 8


 400              	.LFB197:
 401              		.file 7 "/opt/R2P/core/Middleware/include/r2p/Mutex.hpp"
 402              		.loc 7 48 0
 403              		.cfi_startproc
 404              		@ args = 0, pretend = 0, frame = 8
 405              		@ frame_needed = 0, uses_anonymous_args = 0
 406 0000 00B5     		push	{lr}
 407              		.cfi_def_cfa_offset 4
 408              		.cfi_offset 14, -4
 409 0002 83B0     		sub	sp, sp, #12
 410              		.cfi_def_cfa_offset 16
 411 0004 0190     		str	r0, [sp, #4]
 412              		.loc 7 49 0
 413 0006 019B     		ldr	r3, [sp, #4]
 414 0008 0433     		adds	r3, r3, #4
 415 000a 1846     		mov	r0, r3
 416 000c FFF7FEFF 		bl	_ZN3r2p6Mutex_7acquireEv
 417              		.loc 7 50 0
 418 0010 03B0     		add	sp, sp, #12
 419              		.cfi_def_cfa_offset 4
 420              		@ sp needed
 421 0012 5DF804FB 		ldr	pc, [sp], #4
 422              		.cfi_endproc
 423              	.LFE197:
 424              		.size	_ZN3r2p5Mutex7acquireEv, .-_ZN3r2p5Mutex7acquireEv
 425 0016 00BF     		.section	.text._ZN3r2p5Mutex7releaseEv,"axG",%progbits,_ZN3r2p5Mutex7releaseEv,comdat
 426              		.align	2
 427              		.weak	_ZN3r2p5Mutex7releaseEv
 428              		.thumb
 429              		.thumb_func
 430              		.type	_ZN3r2p5Mutex7releaseEv, %function
 431              	_ZN3r2p5Mutex7releaseEv:
 432              	.LFB198:
 433              		.loc 7 54 0
 434              		.cfi_startproc
 435              		@ args = 0, pretend = 0, frame = 8
 436              		@ frame_needed = 0, uses_anonymous_args = 0
 437 0000 00B5     		push	{lr}
 438              		.cfi_def_cfa_offset 4
 439              		.cfi_offset 14, -4
 440 0002 83B0     		sub	sp, sp, #12
 441              		.cfi_def_cfa_offset 16
 442 0004 0190     		str	r0, [sp, #4]
 443              		.loc 7 55 0
 444 0006 019B     		ldr	r3, [sp, #4]
 445 0008 0433     		adds	r3, r3, #4
 446 000a 1846     		mov	r0, r3
 447 000c FFF7FEFF 		bl	_ZN3r2p6Mutex_7releaseEv
 448              		.loc 7 56 0
 449 0010 03B0     		add	sp, sp, #12
 450              		.cfi_def_cfa_offset 4
 451              		@ sp needed
 452 0012 5DF804FB 		ldr	pc, [sp], #4
 453              		.cfi_endproc
 454              	.LFE198:
 455              		.size	_ZN3r2p5Mutex7releaseEv, .-_ZN3r2p5Mutex7releaseEv
 456 0016 00BF     		.section	.text._ZN3r2p6Mutex_D2Ev,"axG",%progbits,_ZN3r2p6Mutex_D5Ev,comdat
ARM GAS  /tmp/ccyYK6L9.s 			page 9


 457              		.align	2
 458              		.weak	_ZN3r2p6Mutex_D2Ev
 459              		.thumb
 460              		.thumb_func
 461              		.type	_ZN3r2p6Mutex_D2Ev, %function
 462              	_ZN3r2p6Mutex_D2Ev:
 463              	.LFB201:
 464              		.loc 6 9 0
 465              		.cfi_startproc
 466              		@ args = 0, pretend = 0, frame = 8
 467              		@ frame_needed = 0, uses_anonymous_args = 0
 468 0000 00B5     		push	{lr}
 469              		.cfi_def_cfa_offset 4
 470              		.cfi_offset 14, -4
 471 0002 83B0     		sub	sp, sp, #12
 472              		.cfi_def_cfa_offset 16
 473 0004 0190     		str	r0, [sp, #4]
 474              	.LBB11:
 475              		.loc 6 9 0
 476 0006 0198     		ldr	r0, [sp, #4]
 477 0008 FFF7FEFF 		bl	_ZN3r2p10UncopyableD2Ev
 478              	.LBE11:
 479 000c 019B     		ldr	r3, [sp, #4]
 480 000e 1846     		mov	r0, r3
 481 0010 03B0     		add	sp, sp, #12
 482              		.cfi_def_cfa_offset 4
 483              		@ sp needed
 484 0012 5DF804FB 		ldr	pc, [sp], #4
 485              		.cfi_endproc
 486              	.LFE201:
 487              		.size	_ZN3r2p6Mutex_D2Ev, .-_ZN3r2p6Mutex_D2Ev
 488              		.weak	_ZN3r2p6Mutex_D1Ev
 489              		.thumb_set _ZN3r2p6Mutex_D1Ev,_ZN3r2p6Mutex_D2Ev
 490 0016 00BF     		.section	.text._ZN3r2p5MutexC2Ev,"axG",%progbits,_ZN3r2p5MutexC5Ev,comdat
 491              		.align	2
 492              		.weak	_ZN3r2p5MutexC2Ev
 493              		.thumb
 494              		.thumb_func
 495              		.type	_ZN3r2p5MutexC2Ev, %function
 496              	_ZN3r2p5MutexC2Ev:
 497              	.LFB203:
 498              		.loc 7 60 0
 499              		.cfi_startproc
 500              		@ args = 0, pretend = 0, frame = 8
 501              		@ frame_needed = 0, uses_anonymous_args = 0
 502 0000 00B5     		push	{lr}
 503              		.cfi_def_cfa_offset 4
 504              		.cfi_offset 14, -4
 505 0002 83B0     		sub	sp, sp, #12
 506              		.cfi_def_cfa_offset 16
 507 0004 0190     		str	r0, [sp, #4]
 508              	.LBB12:
 509              		.loc 7 62 0
 510 0006 0198     		ldr	r0, [sp, #4]
 511 0008 FFF7FEFF 		bl	_ZN3r2p10UncopyableC2Ev
 512 000c 019B     		ldr	r3, [sp, #4]
 513 000e 0433     		adds	r3, r3, #4
ARM GAS  /tmp/ccyYK6L9.s 			page 10


 514 0010 1846     		mov	r0, r3
 515 0012 FFF7FEFF 		bl	_ZN3r2p6Mutex_C1Ev
 516              	.LBE12:
 517              		.loc 7 63 0
 518 0016 019B     		ldr	r3, [sp, #4]
 519 0018 1846     		mov	r0, r3
 520 001a 03B0     		add	sp, sp, #12
 521              		.cfi_def_cfa_offset 4
 522              		@ sp needed
 523 001c 5DF804FB 		ldr	pc, [sp], #4
 524              		.cfi_endproc
 525              	.LFE203:
 526              		.size	_ZN3r2p5MutexC2Ev, .-_ZN3r2p5MutexC2Ev
 527              		.weak	_ZN3r2p5MutexC1Ev
 528              		.thumb_set _ZN3r2p5MutexC1Ev,_ZN3r2p5MutexC2Ev
 529              		.section	.text._ZNK3r2p11MemoryPool_13get_item_sizeEv,"axG",%progbits,_ZNK3r2p11MemoryPool_13get_i
 530              		.align	2
 531              		.weak	_ZNK3r2p11MemoryPool_13get_item_sizeEv
 532              		.thumb
 533              		.thumb_func
 534              		.type	_ZNK3r2p11MemoryPool_13get_item_sizeEv, %function
 535              	_ZNK3r2p11MemoryPool_13get_item_sizeEv:
 536              	.LFB227:
 537              		.file 8 "/opt/R2P/core/Middleware/port/chibios/include/r2p/impl/MemoryPool_.hpp"
 538              		.loc 8 39 0
 539              		.cfi_startproc
 540              		@ args = 0, pretend = 0, frame = 8
 541              		@ frame_needed = 0, uses_anonymous_args = 0
 542              		@ link register save eliminated.
 543 0000 82B0     		sub	sp, sp, #8
 544              		.cfi_def_cfa_offset 8
 545 0002 0190     		str	r0, [sp, #4]
 546              		.loc 8 41 0
 547 0004 019B     		ldr	r3, [sp, #4]
 548 0006 5B68     		ldr	r3, [r3, #4]
 549              		.loc 8 42 0
 550 0008 1846     		mov	r0, r3
 551 000a 02B0     		add	sp, sp, #8
 552              		.cfi_def_cfa_offset 0
 553              		@ sp needed
 554 000c 7047     		bx	lr
 555              		.cfi_endproc
 556              	.LFE227:
 557              		.size	_ZNK3r2p11MemoryPool_13get_item_sizeEv, .-_ZNK3r2p11MemoryPool_13get_item_sizeEv
 558 000e 00BF     		.section	.text._ZN3r2p11MemoryPool_6extendEPvj,"axG",%progbits,_ZN3r2p11MemoryPool_6extendEPvj,com
 559              		.align	2
 560              		.weak	_ZN3r2p11MemoryPool_6extendEPvj
 561              		.thumb
 562              		.thumb_func
 563              		.type	_ZN3r2p11MemoryPool_6extendEPvj, %function
 564              	_ZN3r2p11MemoryPool_6extendEPvj:
 565              	.LFB233:
 566              		.loc 8 85 0
 567              		.cfi_startproc
 568              		@ args = 0, pretend = 0, frame = 16
 569              		@ frame_needed = 0, uses_anonymous_args = 0
 570 0000 00B5     		push	{lr}
ARM GAS  /tmp/ccyYK6L9.s 			page 11


 571              		.cfi_def_cfa_offset 4
 572              		.cfi_offset 14, -4
 573 0002 85B0     		sub	sp, sp, #20
 574              		.cfi_def_cfa_offset 24
 575 0004 0390     		str	r0, [sp, #12]
 576 0006 0291     		str	r1, [sp, #8]
 577 0008 0192     		str	r2, [sp, #4]
 578              		.loc 8 87 0
 579 000a 039B     		ldr	r3, [sp, #12]
 580 000c 1846     		mov	r0, r3
 581 000e 0299     		ldr	r1, [sp, #8]
 582 0010 019A     		ldr	r2, [sp, #4]
 583 0012 FFF7FEFF 		bl	chPoolLoadArray
 584              		.loc 8 88 0
 585 0016 05B0     		add	sp, sp, #20
 586              		.cfi_def_cfa_offset 4
 587              		@ sp needed
 588 0018 5DF804FB 		ldr	pc, [sp], #4
 589              		.cfi_endproc
 590              	.LFE233:
 591              		.size	_ZN3r2p11MemoryPool_6extendEPvj, .-_ZN3r2p11MemoryPool_6extendEPvj
 592              		.section	.rodata
 593              		.align	2
 594              	.LC0:
 595 0000 5232505F 		.ascii	"R2P_ASSERT()\000"
 595      41535345 
 595      52542829 
 595      00
 596              		.section	.text._ZN3r2p13BasePublisher17notify_advertisedERNS_5TopicE,"axG",%progbits,_ZN3r2p13Base
 597              		.align	2
 598              		.weak	_ZN3r2p13BasePublisher17notify_advertisedERNS_5TopicE
 599              		.thumb
 600              		.thumb_func
 601              		.type	_ZN3r2p13BasePublisher17notify_advertisedERNS_5TopicE, %function
 602              	_ZN3r2p13BasePublisher17notify_advertisedERNS_5TopicE:
 603              	.LFB248:
 604              		.file 9 "/opt/R2P/core/Middleware/include/r2p/BasePublisher.hpp"
 605              		.loc 9 55 0
 606              		.cfi_startproc
 607              		@ args = 0, pretend = 0, frame = 8
 608              		@ frame_needed = 0, uses_anonymous_args = 0
 609 0000 00B5     		push	{lr}
 610              		.cfi_def_cfa_offset 4
 611              		.cfi_offset 14, -4
 612 0002 83B0     		sub	sp, sp, #12
 613              		.cfi_def_cfa_offset 16
 614 0004 0190     		str	r0, [sp, #4]
 615 0006 0091     		str	r1, [sp]
 616              		.loc 9 57 0
 617 0008 019B     		ldr	r3, [sp, #4]
 618 000a 5B68     		ldr	r3, [r3, #4]
 619 000c 002B     		cmp	r3, #0
 620 000e 02D0     		beq	.L35
 621              		.loc 9 57 0 is_stmt 0 discriminator 1
 622 0010 0448     		ldr	r0, .L36
 623 0012 FFF7FEFF 		bl	chDbgPanic
 624              	.L35:
ARM GAS  /tmp/ccyYK6L9.s 			page 12


 625              		.loc 9 59 0 is_stmt 1
 626 0016 019B     		ldr	r3, [sp, #4]
 627 0018 009A     		ldr	r2, [sp]
 628 001a 5A60     		str	r2, [r3, #4]
 629              		.loc 9 60 0
 630 001c 03B0     		add	sp, sp, #12
 631              		.cfi_def_cfa_offset 4
 632              		@ sp needed
 633 001e 5DF804FB 		ldr	pc, [sp], #4
 634              	.L37:
 635 0022 00BF     		.align	2
 636              	.L36:
 637 0024 00000000 		.word	.LC0
 638              		.cfi_endproc
 639              	.LFE248:
 640              		.size	_ZN3r2p13BasePublisher17notify_advertisedERNS_5TopicE, .-_ZN3r2p13BasePublisher17notify_adve
 641              		.section	.text._ZN3r2p13BasePublisher9has_topicERKS0_PKc,"axG",%progbits,_ZN3r2p13BasePublisher9ha
 642              		.align	2
 643              		.weak	_ZN3r2p13BasePublisher9has_topicERKS0_PKc
 644              		.thumb
 645              		.thumb_func
 646              		.type	_ZN3r2p13BasePublisher9has_topicERKS0_PKc, %function
 647              	_ZN3r2p13BasePublisher9has_topicERKS0_PKc:
 648              	.LFB253:
 649              		.loc 9 102 0
 650              		.cfi_startproc
 651              		@ args = 0, pretend = 0, frame = 8
 652              		@ frame_needed = 0, uses_anonymous_args = 0
 653 0000 00B5     		push	{lr}
 654              		.cfi_def_cfa_offset 4
 655              		.cfi_offset 14, -4
 656 0002 83B0     		sub	sp, sp, #12
 657              		.cfi_def_cfa_offset 16
 658 0004 0190     		str	r0, [sp, #4]
 659 0006 0091     		str	r1, [sp]
 660              		.loc 9 104 0
 661 0008 019B     		ldr	r3, [sp, #4]
 662 000a 5B68     		ldr	r3, [r3, #4]
 663 000c 002B     		cmp	r3, #0
 664 000e 0AD0     		beq	.L39
 665              		.loc 9 104 0 is_stmt 0 discriminator 1
 666 0010 019B     		ldr	r3, [sp, #4]
 667 0012 5B68     		ldr	r3, [r3, #4]
 668 0014 1846     		mov	r0, r3
 669 0016 0099     		ldr	r1, [sp]
 670 0018 FFF7FEFF 		bl	_ZN3r2p5Topic8has_nameERKS0_PKc
 671 001c 0346     		mov	r3, r0
 672 001e 002B     		cmp	r3, #0
 673 0020 01D0     		beq	.L39
 674              		.loc 9 104 0 discriminator 3
 675 0022 0123     		movs	r3, #1
 676 0024 00E0     		b	.L40
 677              	.L39:
 678              		.loc 9 104 0 discriminator 4
 679 0026 0023     		movs	r3, #0
 680              	.L40:
 681              		.loc 9 105 0 is_stmt 1 discriminator 6
ARM GAS  /tmp/ccyYK6L9.s 			page 13


 682 0028 1846     		mov	r0, r3
 683 002a 03B0     		add	sp, sp, #12
 684              		.cfi_def_cfa_offset 4
 685              		@ sp needed
 686 002c 5DF804FB 		ldr	pc, [sp], #4
 687              		.cfi_endproc
 688              	.LFE253:
 689              		.size	_ZN3r2p13BasePublisher9has_topicERKS0_PKc, .-_ZN3r2p13BasePublisher9has_topicERKS0_PKc
 690              		.section	.text._ZN3r2p14BaseSubscriber17notify_subscribedERNS_5TopicE,"axG",%progbits,_ZN3r2p14Bas
 691              		.align	2
 692              		.weak	_ZN3r2p14BaseSubscriber17notify_subscribedERNS_5TopicE
 693              		.thumb
 694              		.thumb_func
 695              		.type	_ZN3r2p14BaseSubscriber17notify_subscribedERNS_5TopicE, %function
 696              	_ZN3r2p14BaseSubscriber17notify_subscribedERNS_5TopicE:
 697              	.LFB266:
 698              		.file 10 "/opt/R2P/core/Middleware/include/r2p/BaseSubscriber.hpp"
 699              		.loc 10 49 0
 700              		.cfi_startproc
 701              		@ args = 0, pretend = 0, frame = 8
 702              		@ frame_needed = 0, uses_anonymous_args = 0
 703 0000 00B5     		push	{lr}
 704              		.cfi_def_cfa_offset 4
 705              		.cfi_offset 14, -4
 706 0002 83B0     		sub	sp, sp, #12
 707              		.cfi_def_cfa_offset 16
 708 0004 0190     		str	r0, [sp, #4]
 709 0006 0091     		str	r1, [sp]
 710              		.loc 10 51 0
 711 0008 019B     		ldr	r3, [sp, #4]
 712 000a 5B68     		ldr	r3, [r3, #4]
 713 000c 002B     		cmp	r3, #0
 714 000e 02D0     		beq	.L43
 715              		.loc 10 51 0 is_stmt 0 discriminator 1
 716 0010 0448     		ldr	r0, .L44
 717 0012 FFF7FEFF 		bl	chDbgPanic
 718              	.L43:
 719              		.loc 10 53 0 is_stmt 1
 720 0016 019B     		ldr	r3, [sp, #4]
 721 0018 009A     		ldr	r2, [sp]
 722 001a 5A60     		str	r2, [r3, #4]
 723              		.loc 10 54 0
 724 001c 03B0     		add	sp, sp, #12
 725              		.cfi_def_cfa_offset 4
 726              		@ sp needed
 727 001e 5DF804FB 		ldr	pc, [sp], #4
 728              	.L45:
 729 0022 00BF     		.align	2
 730              	.L44:
 731 0024 00000000 		.word	.LC0
 732              		.cfi_endproc
 733              	.LFE266:
 734              		.size	_ZN3r2p14BaseSubscriber17notify_subscribedERNS_5TopicE, .-_ZN3r2p14BaseSubscriber17notify_su
 735              		.section	.text._ZNK3r2p5Topic8get_nameEv,"axG",%progbits,_ZNK3r2p5Topic8get_nameEv,comdat
 736              		.align	2
 737              		.weak	_ZNK3r2p5Topic8get_nameEv
 738              		.thumb
ARM GAS  /tmp/ccyYK6L9.s 			page 14


 739              		.thumb_func
 740              		.type	_ZNK3r2p5Topic8get_nameEv, %function
 741              	_ZNK3r2p5Topic8get_nameEv:
 742              	.LFB333:
 743              		.file 11 "/opt/R2P/core/Middleware/include/r2p/Topic.hpp"
 744              		.loc 11 131 0
 745              		.cfi_startproc
 746              		@ args = 0, pretend = 0, frame = 8
 747              		@ frame_needed = 0, uses_anonymous_args = 0
 748              		@ link register save eliminated.
 749 0000 82B0     		sub	sp, sp, #8
 750              		.cfi_def_cfa_offset 8
 751 0002 0190     		str	r0, [sp, #4]
 752              		.loc 11 133 0
 753 0004 019B     		ldr	r3, [sp, #4]
 754 0006 1B68     		ldr	r3, [r3]
 755              		.loc 11 134 0
 756 0008 1846     		mov	r0, r3
 757 000a 02B0     		add	sp, sp, #8
 758              		.cfi_def_cfa_offset 0
 759              		@ sp needed
 760 000c 7047     		bx	lr
 761              		.cfi_endproc
 762              	.LFE333:
 763              		.size	_ZNK3r2p5Topic8get_nameEv, .-_ZNK3r2p5Topic8get_nameEv
 764 000e 00BF     		.section	.text._ZNK3r2p5Topic13get_type_sizeEv,"axG",%progbits,_ZNK3r2p5Topic13get_type_sizeEv,com
 765              		.align	2
 766              		.weak	_ZNK3r2p5Topic13get_type_sizeEv
 767              		.thumb
 768              		.thumb_func
 769              		.type	_ZNK3r2p5Topic13get_type_sizeEv, %function
 770              	_ZNK3r2p5Topic13get_type_sizeEv:
 771              	.LFB335:
 772              		.loc 11 145 0
 773              		.cfi_startproc
 774              		@ args = 0, pretend = 0, frame = 8
 775              		@ frame_needed = 0, uses_anonymous_args = 0
 776 0000 00B5     		push	{lr}
 777              		.cfi_def_cfa_offset 4
 778              		.cfi_offset 14, -4
 779 0002 83B0     		sub	sp, sp, #12
 780              		.cfi_def_cfa_offset 16
 781 0004 0190     		str	r0, [sp, #4]
 782              		.loc 11 147 0
 783 0006 019B     		ldr	r3, [sp, #4]
 784 0008 0833     		adds	r3, r3, #8
 785 000a 1846     		mov	r0, r3
 786 000c FFF7FEFF 		bl	_ZNK3r2p11MemoryPool_13get_item_sizeEv
 787 0010 0346     		mov	r3, r0
 788              		.loc 11 148 0
 789 0012 1846     		mov	r0, r3
 790 0014 03B0     		add	sp, sp, #12
 791              		.cfi_def_cfa_offset 4
 792              		@ sp needed
 793 0016 5DF804FB 		ldr	pc, [sp], #4
 794              		.cfi_endproc
 795              	.LFE335:
ARM GAS  /tmp/ccyYK6L9.s 			page 15


 796              		.size	_ZNK3r2p5Topic13get_type_sizeEv, .-_ZNK3r2p5Topic13get_type_sizeEv
 797 001a 00BF     		.section	.text._ZN3r2p5Topic11extend_poolEPNS_7MessageEj,"axG",%progbits,_ZN3r2p5Topic11extend_poo
 798              		.align	2
 799              		.weak	_ZN3r2p5Topic11extend_poolEPNS_7MessageEj
 800              		.thumb
 801              		.thumb_func
 802              		.type	_ZN3r2p5Topic11extend_poolEPNS_7MessageEj, %function
 803              	_ZN3r2p5Topic11extend_poolEPNS_7MessageEj:
 804              	.LFB358:
 805              		.loc 11 330 0
 806              		.cfi_startproc
 807              		@ args = 0, pretend = 0, frame = 16
 808              		@ frame_needed = 0, uses_anonymous_args = 0
 809 0000 00B5     		push	{lr}
 810              		.cfi_def_cfa_offset 4
 811              		.cfi_offset 14, -4
 812 0002 85B0     		sub	sp, sp, #20
 813              		.cfi_def_cfa_offset 24
 814 0004 0390     		str	r0, [sp, #12]
 815 0006 0291     		str	r1, [sp, #8]
 816 0008 0192     		str	r2, [sp, #4]
 817              		.loc 11 332 0
 818 000a 039B     		ldr	r3, [sp, #12]
 819 000c 0833     		adds	r3, r3, #8
 820 000e 1846     		mov	r0, r3
 821 0010 0299     		ldr	r1, [sp, #8]
 822 0012 019A     		ldr	r2, [sp, #4]
 823 0014 FFF7FEFF 		bl	_ZN3r2p11MemoryPool_6extendEPvj
 824              		.loc 11 333 0
 825 0018 05B0     		add	sp, sp, #20
 826              		.cfi_def_cfa_offset 4
 827              		@ sp needed
 828 001a 5DF804FB 		ldr	pc, [sp], #4
 829              		.cfi_endproc
 830              	.LFE358:
 831              		.size	_ZN3r2p5Topic11extend_poolEPNS_7MessageEj, .-_ZN3r2p5Topic11extend_poolEPNS_7MessageEj
 832 001e 00BF     		.section	.text._ZN3r2p5Topic8has_nameERKS0_PKc,"axG",%progbits,_ZN3r2p5Topic8has_nameERKS0_PKc,com
 833              		.align	2
 834              		.weak	_ZN3r2p5Topic8has_nameERKS0_PKc
 835              		.thumb
 836              		.thumb_func
 837              		.type	_ZN3r2p5Topic8has_nameERKS0_PKc, %function
 838              	_ZN3r2p5Topic8has_nameERKS0_PKc:
 839              	.LFB359:
 840              		.loc 11 337 0
 841              		.cfi_startproc
 842              		@ args = 0, pretend = 0, frame = 8
 843              		@ frame_needed = 0, uses_anonymous_args = 0
 844 0000 00B5     		push	{lr}
 845              		.cfi_def_cfa_offset 4
 846              		.cfi_offset 14, -4
 847 0002 83B0     		sub	sp, sp, #12
 848              		.cfi_def_cfa_offset 16
 849 0004 0190     		str	r0, [sp, #4]
 850 0006 0091     		str	r1, [sp]
 851              		.loc 11 339 0
 852 0008 009B     		ldr	r3, [sp]
ARM GAS  /tmp/ccyYK6L9.s 			page 16


 853 000a 002B     		cmp	r3, #0
 854 000c 0DD0     		beq	.L52
 855              		.loc 11 340 0 discriminator 1
 856 000e 0198     		ldr	r0, [sp, #4]
 857 0010 FFF7FEFF 		bl	_ZNK3r2p5Topic8get_nameEv
 858 0014 0346     		mov	r3, r0
 859 0016 1846     		mov	r0, r3
 860 0018 0099     		ldr	r1, [sp]
 861 001a 1022     		movs	r2, #16
 862 001c FFF7FEFF 		bl	strncmp
 863 0020 0346     		mov	r3, r0
 864              		.loc 11 339 0 discriminator 1
 865 0022 002B     		cmp	r3, #0
 866 0024 01D1     		bne	.L52
 867              		.loc 11 339 0 is_stmt 0 discriminator 3
 868 0026 0123     		movs	r3, #1
 869 0028 00E0     		b	.L53
 870              	.L52:
 871              		.loc 11 339 0 discriminator 4
 872 002a 0023     		movs	r3, #0
 873              	.L53:
 874              		.loc 11 341 0 is_stmt 1
 875 002c 1846     		mov	r0, r3
 876 002e 03B0     		add	sp, sp, #12
 877              		.cfi_def_cfa_offset 4
 878              		@ sp needed
 879 0030 5DF804FB 		ldr	pc, [sp], #4
 880              		.cfi_endproc
 881              	.LFE359:
 882              		.size	_ZN3r2p5Topic8has_nameERKS0_PKc, .-_ZN3r2p5Topic8has_nameERKS0_PKc
 883              		.section	.text._ZN3r2p5MutexD2Ev,"axG",%progbits,_ZN3r2p5MutexD5Ev,comdat
 884              		.align	2
 885              		.weak	_ZN3r2p5MutexD2Ev
 886              		.thumb
 887              		.thumb_func
 888              		.type	_ZN3r2p5MutexD2Ev, %function
 889              	_ZN3r2p5MutexD2Ev:
 890              	.LFB463:
 891              		.loc 7 9 0
 892              		.cfi_startproc
 893              		@ args = 0, pretend = 0, frame = 8
 894              		@ frame_needed = 0, uses_anonymous_args = 0
 895 0000 00B5     		push	{lr}
 896              		.cfi_def_cfa_offset 4
 897              		.cfi_offset 14, -4
 898 0002 83B0     		sub	sp, sp, #12
 899              		.cfi_def_cfa_offset 16
 900 0004 0190     		str	r0, [sp, #4]
 901              	.LBB13:
 902              		.loc 7 9 0
 903 0006 019B     		ldr	r3, [sp, #4]
 904 0008 0433     		adds	r3, r3, #4
 905 000a 1846     		mov	r0, r3
 906 000c FFF7FEFF 		bl	_ZN3r2p6Mutex_D1Ev
 907 0010 0198     		ldr	r0, [sp, #4]
 908 0012 FFF7FEFF 		bl	_ZN3r2p10UncopyableD2Ev
 909              	.LBE13:
ARM GAS  /tmp/ccyYK6L9.s 			page 17


 910 0016 019B     		ldr	r3, [sp, #4]
 911 0018 1846     		mov	r0, r3
 912 001a 03B0     		add	sp, sp, #12
 913              		.cfi_def_cfa_offset 4
 914              		@ sp needed
 915 001c 5DF804FB 		ldr	pc, [sp], #4
 916              		.cfi_endproc
 917              	.LFE463:
 918              		.size	_ZN3r2p5MutexD2Ev, .-_ZN3r2p5MutexD2Ev
 919              		.weak	_ZN3r2p5MutexD1Ev
 920              		.thumb_set _ZN3r2p5MutexD1Ev,_ZN3r2p5MutexD2Ev
 921              		.text
 922              		.align	2
 923              		.global	_ZN3r2p9Transport15touch_publisherERNS_5TopicEPKh
 924              		.thumb
 925              		.thumb_func
 926              		.type	_ZN3r2p9Transport15touch_publisherERNS_5TopicEPKh, %function
 927              	_ZN3r2p9Transport15touch_publisherERNS_5TopicEPKh:
 928              	.LFB681:
 929              		.file 12 "/opt/R2P/core/Middleware/src/Transport.cpp"
 930              		.loc 12 14 0
 931              		.cfi_startproc
 932              		@ args = 0, pretend = 0, frame = 24
 933              		@ frame_needed = 0, uses_anonymous_args = 0
 934 0000 10B5     		push	{r4, lr}
 935              		.cfi_def_cfa_offset 8
 936              		.cfi_offset 4, -8
 937              		.cfi_offset 14, -4
 938 0002 86B0     		sub	sp, sp, #24
 939              		.cfi_def_cfa_offset 32
 940 0004 0390     		str	r0, [sp, #12]
 941 0006 0291     		str	r1, [sp, #8]
 942 0008 0192     		str	r2, [sp, #4]
 943              	.LBB14:
 944              		.loc 12 16 0
 945 000a 039B     		ldr	r3, [sp, #12]
 946 000c 1033     		adds	r3, r3, #16
 947 000e 04AA     		add	r2, sp, #16
 948 0010 1046     		mov	r0, r2
 949 0012 1946     		mov	r1, r3
 950 0014 FFF7FEFF 		bl	_ZN3r2p10ScopedLockINS_5MutexEEC1ERS1_
 951              		.loc 12 20 0
 952 0018 039B     		ldr	r3, [sp, #12]
 953 001a 03F10804 		add	r4, r3, #8
 954 001e 0298     		ldr	r0, [sp, #8]
 955 0020 FFF7FEFF 		bl	_ZNK3r2p5Topic8get_nameEv
 956 0024 0346     		mov	r3, r0
 957 0026 2046     		mov	r0, r4
 958 0028 1949     		ldr	r1, .L63
 959 002a 1A46     		mov	r2, r3
 960 002c FFF7FEFF 		bl	_ZNK3r2p10StaticListINS_15RemotePublisherEE10find_firstIPFbRKNS_13BasePublisherEPKcEcEEPS1_T_PK
 961 0030 0590     		str	r0, [sp, #20]
 962              		.loc 12 21 0
 963 0032 059B     		ldr	r3, [sp, #20]
 964 0034 002B     		cmp	r3, #0
 965 0036 01D0     		beq	.L59
 966              		.loc 12 21 0 is_stmt 0 discriminator 1
ARM GAS  /tmp/ccyYK6L9.s 			page 18


 967 0038 0124     		movs	r4, #1
 968 003a 21E0     		b	.L60
 969              	.L59:
 970              		.loc 12 24 0 is_stmt 1
 971 003c 039B     		ldr	r3, [sp, #12]
 972 003e 1B68     		ldr	r3, [r3]
 973 0040 0433     		adds	r3, r3, #4
 974 0042 1B68     		ldr	r3, [r3]
 975 0044 0398     		ldr	r0, [sp, #12]
 976 0046 0299     		ldr	r1, [sp, #8]
 977 0048 019A     		ldr	r2, [sp, #4]
 978 004a 9847     		blx	r3
 979 004c 0590     		str	r0, [sp, #20]
 980              		.loc 12 25 0
 981 004e 059B     		ldr	r3, [sp, #20]
 982 0050 002B     		cmp	r3, #0
 983 0052 01D1     		bne	.L61
 984              		.loc 12 25 0 is_stmt 0 discriminator 1
 985 0054 0024     		movs	r4, #0
 986 0056 13E0     		b	.L60
 987              	.L61:
 988              		.loc 12 27 0 is_stmt 1
 989 0058 059B     		ldr	r3, [sp, #20]
 990 005a 1846     		mov	r0, r3
 991 005c 0299     		ldr	r1, [sp, #8]
 992 005e FFF7FEFF 		bl	_ZN3r2p13BasePublisher17notify_advertisedERNS_5TopicE
 993              		.loc 12 28 0
 994 0062 0298     		ldr	r0, [sp, #8]
 995 0064 0599     		ldr	r1, [sp, #20]
 996 0066 0B4A     		ldr	r2, .L63+4
 997 0068 FFF7FEFF 		bl	_ZN3r2p5Topic9advertiseERNS_15RemotePublisherERKNS_4TimeE
 998              		.loc 12 29 0
 999 006c 039B     		ldr	r3, [sp, #12]
 1000 006e 03F10802 		add	r2, r3, #8
 1001 0072 059B     		ldr	r3, [sp, #20]
 1002 0074 0C33     		adds	r3, r3, #12
 1003 0076 1046     		mov	r0, r2
 1004 0078 1946     		mov	r1, r3
 1005 007a FFF7FEFF 		bl	_ZN3r2p10StaticListINS_15RemotePublisherEE4linkERNS2_4LinkE
 1006              		.loc 12 31 0
 1007 007e 0124     		movs	r4, #1
 1008              	.L60:
 1009              		.loc 12 31 0 is_stmt 0 discriminator 1
 1010 0080 04AB     		add	r3, sp, #16
 1011 0082 1846     		mov	r0, r3
 1012 0084 FFF7FEFF 		bl	_ZN3r2p10ScopedLockINS_5MutexEED1Ev
 1013 0088 2346     		mov	r3, r4
 1014              	.LBE14:
 1015              		.loc 12 32 0 is_stmt 1 discriminator 1
 1016 008a 1846     		mov	r0, r3
 1017 008c 06B0     		add	sp, sp, #24
 1018              		.cfi_def_cfa_offset 8
 1019              		@ sp needed
 1020 008e 10BD     		pop	{r4, pc}
 1021              	.L64:
 1022              		.align	2
 1023              	.L63:
ARM GAS  /tmp/ccyYK6L9.s 			page 19


 1024 0090 00000000 		.word	_ZN3r2p13BasePublisher9has_topicERKS0_PKc
 1025 0094 00000000 		.word	_ZN3r2p4Time8INFINITEE
 1026              		.cfi_endproc
 1027              	.LFE681:
 1028              		.size	_ZN3r2p9Transport15touch_publisherERNS_5TopicEPKh, .-_ZN3r2p9Transport15touch_publisherERNS_
 1029              		.align	2
 1030              		.global	_ZN3r2p9Transport16touch_subscriberERNS_5TopicEjPh
 1031              		.thumb
 1032              		.thumb_func
 1033              		.type	_ZN3r2p9Transport16touch_subscriberERNS_5TopicEjPh, %function
 1034              	_ZN3r2p9Transport16touch_subscriberERNS_5TopicEjPh:
 1035              	.LFB682:
 1036              		.loc 12 36 0
 1037              		.cfi_startproc
 1038              		@ args = 0, pretend = 0, frame = 32
 1039              		@ frame_needed = 0, uses_anonymous_args = 0
 1040 0098 70B5     		push	{r4, r5, r6, lr}
 1041              		.cfi_def_cfa_offset 16
 1042              		.cfi_offset 4, -16
 1043              		.cfi_offset 5, -12
 1044              		.cfi_offset 6, -8
 1045              		.cfi_offset 14, -4
 1046 009a 88B0     		sub	sp, sp, #32
 1047              		.cfi_def_cfa_offset 48
 1048 009c 0390     		str	r0, [sp, #12]
 1049 009e 0291     		str	r1, [sp, #8]
 1050 00a0 0192     		str	r2, [sp, #4]
 1051 00a2 0093     		str	r3, [sp]
 1052              	.LBB15:
 1053              		.loc 12 38 0
 1054 00a4 039B     		ldr	r3, [sp, #12]
 1055 00a6 2433     		adds	r3, r3, #36
 1056 00a8 04AA     		add	r2, sp, #16
 1057 00aa 1046     		mov	r0, r2
 1058 00ac 1946     		mov	r1, r3
 1059 00ae FFF7FEFF 		bl	_ZN3r2p10ScopedLockINS_5MutexEEC1ERS1_
 1060              		.loc 12 42 0
 1061 00b2 039B     		ldr	r3, [sp, #12]
 1062 00b4 03F10C04 		add	r4, r3, #12
 1063 00b8 0298     		ldr	r0, [sp, #8]
 1064 00ba FFF7FEFF 		bl	_ZNK3r2p5Topic8get_nameEv
 1065 00be 0346     		mov	r3, r0
 1066 00c0 2046     		mov	r0, r4
 1067 00c2 4649     		ldr	r1, .L77
 1068 00c4 1A46     		mov	r2, r3
 1069 00c6 FFF7FEFF 		bl	_ZNK3r2p10StaticListINS_16RemoteSubscriberEE10find_firstIPFbRKNS_14BaseSubscriberEPKcEcEEPS1_T_
 1070 00ca 0790     		str	r0, [sp, #28]
 1071              		.loc 12 43 0
 1072 00cc 079B     		ldr	r3, [sp, #28]
 1073 00ce 002B     		cmp	r3, #0
 1074 00d0 08D0     		beq	.L66
 1075              		.loc 12 44 0
 1076 00d2 039B     		ldr	r3, [sp, #12]
 1077 00d4 1B68     		ldr	r3, [r3]
 1078 00d6 1B68     		ldr	r3, [r3]
 1079 00d8 0398     		ldr	r0, [sp, #12]
 1080 00da 0299     		ldr	r1, [sp, #8]
ARM GAS  /tmp/ccyYK6L9.s 			page 20


 1081 00dc 009A     		ldr	r2, [sp]
 1082 00de 9847     		blx	r3
 1083              		.loc 12 45 0
 1084 00e0 0124     		movs	r4, #1
 1085 00e2 72E0     		b	.L67
 1086              	.L66:
 1087              		.loc 12 49 0
 1088 00e4 0023     		movs	r3, #0
 1089 00e6 0593     		str	r3, [sp, #20]
 1090              		.loc 12 50 0
 1091 00e8 0023     		movs	r3, #0
 1092 00ea 0693     		str	r3, [sp, #24]
 1093              		.loc 12 53 0
 1094 00ec 0298     		ldr	r0, [sp, #8]
 1095 00ee FFF7FEFF 		bl	_ZNK3r2p5Topic13get_type_sizeEv
 1096 00f2 0246     		mov	r2, r0
 1097 00f4 019B     		ldr	r3, [sp, #4]
 1098 00f6 03FB02F3 		mul	r3, r3, r2
 1099              		.loc 12 54 0
 1100 00fa 1846     		mov	r0, r3
 1101 00fc FFF7FEFF 		bl	_Znaj
 1102 0100 0590     		str	r0, [sp, #20]
 1103              		.loc 12 55 0
 1104 0102 059B     		ldr	r3, [sp, #20]
 1105 0104 002B     		cmp	r3, #0
 1106 0106 4AD0     		beq	.L68
 1107              		.loc 12 56 0
 1108 0108 019C     		ldr	r4, [sp, #4]
 1109 010a B4F17E6F 		cmp	r4, #266338304
 1110 010e 01D8     		bhi	.L69
 1111              		.loc 12 56 0 is_stmt 0 discriminator 1
 1112 0110 E300     		lsls	r3, r4, #3
 1113 0112 01E0     		b	.L70
 1114              	.L69:
 1115              		.loc 12 56 0 discriminator 2
 1116 0114 4FF0FF33 		mov	r3, #-1
 1117              	.L70:
 1118              		.loc 12 56 0 discriminator 4
 1119 0118 1846     		mov	r0, r3
 1120 011a FFF7FEFF 		bl	_Znaj
 1121 011e 0646     		mov	r6, r0
 1122 0120 3246     		mov	r2, r6
 1123 0122 631E     		subs	r3, r4, #1
 1124 0124 1C46     		mov	r4, r3
 1125 0126 1546     		mov	r5, r2
 1126 0128 04E0     		b	.L71
 1127              	.L72:
 1128              		.loc 12 56 0 discriminator 7
 1129 012a 2846     		mov	r0, r5
 1130 012c FFF7FEFF 		bl	_ZN3r2p22TimestampedMsgPtrQueue5EntryC1Ev
 1131 0130 0835     		adds	r5, r5, #8
 1132 0132 013C     		subs	r4, r4, #1
 1133              	.L71:
 1134              		.loc 12 56 0 discriminator 5
 1135 0134 B4F1FF3F 		cmp	r4, #-1
 1136 0138 F7D1     		bne	.L72
 1137              		.loc 12 56 0 discriminator 8
ARM GAS  /tmp/ccyYK6L9.s 			page 21


 1138 013a 0696     		str	r6, [sp, #24]
 1139              		.loc 12 57 0 is_stmt 1 discriminator 8
 1140 013c 069B     		ldr	r3, [sp, #24]
 1141 013e 002B     		cmp	r3, #0
 1142 0140 2DD0     		beq	.L68
 1143              		.loc 12 58 0
 1144 0142 039B     		ldr	r3, [sp, #12]
 1145 0144 1B68     		ldr	r3, [r3]
 1146 0146 0833     		adds	r3, r3, #8
 1147 0148 1C68     		ldr	r4, [r3]
 1148 014a 0398     		ldr	r0, [sp, #12]
 1149 014c 0299     		ldr	r1, [sp, #8]
 1150 014e 069A     		ldr	r2, [sp, #24]
 1151 0150 019B     		ldr	r3, [sp, #4]
 1152 0152 A047     		blx	r4
 1153 0154 0790     		str	r0, [sp, #28]
 1154              		.loc 12 59 0
 1155 0156 079B     		ldr	r3, [sp, #28]
 1156 0158 002B     		cmp	r3, #0
 1157 015a 20D0     		beq	.L68
 1158              		.loc 12 60 0
 1159 015c 0298     		ldr	r0, [sp, #8]
 1160 015e 0599     		ldr	r1, [sp, #20]
 1161 0160 019A     		ldr	r2, [sp, #4]
 1162 0162 FFF7FEFF 		bl	_ZN3r2p5Topic11extend_poolEPNS_7MessageEj
 1163              		.loc 12 61 0
 1164 0166 079B     		ldr	r3, [sp, #28]
 1165 0168 1846     		mov	r0, r3
 1166 016a 0299     		ldr	r1, [sp, #8]
 1167 016c FFF7FEFF 		bl	_ZN3r2p14BaseSubscriber17notify_subscribedERNS_5TopicE
 1168              		.loc 12 62 0
 1169 0170 0298     		ldr	r0, [sp, #8]
 1170 0172 0799     		ldr	r1, [sp, #28]
 1171 0174 019A     		ldr	r2, [sp, #4]
 1172 0176 FFF7FEFF 		bl	_ZN3r2p5Topic9subscribeERNS_16RemoteSubscriberEj
 1173              		.loc 12 63 0
 1174 017a 039B     		ldr	r3, [sp, #12]
 1175 017c 03F10C02 		add	r2, r3, #12
 1176 0180 079B     		ldr	r3, [sp, #28]
 1177 0182 0C33     		adds	r3, r3, #12
 1178 0184 1046     		mov	r0, r2
 1179 0186 1946     		mov	r1, r3
 1180 0188 FFF7FEFF 		bl	_ZN3r2p10StaticListINS_16RemoteSubscriberEE4linkERNS2_4LinkE
 1181              		.loc 12 64 0
 1182 018c 039B     		ldr	r3, [sp, #12]
 1183 018e 1B68     		ldr	r3, [r3]
 1184 0190 1B68     		ldr	r3, [r3]
 1185 0192 0398     		ldr	r0, [sp, #12]
 1186 0194 0299     		ldr	r1, [sp, #8]
 1187 0196 009A     		ldr	r2, [sp]
 1188 0198 9847     		blx	r3
 1189              		.loc 12 65 0
 1190 019a 0124     		movs	r4, #1
 1191 019c 15E0     		b	.L67
 1192              	.L68:
 1193              		.loc 12 69 0
 1194 019e 059B     		ldr	r3, [sp, #20]
ARM GAS  /tmp/ccyYK6L9.s 			page 22


 1195 01a0 002B     		cmp	r3, #0
 1196 01a2 05D0     		beq	.L73
 1197              		.loc 12 69 0 is_stmt 0 discriminator 1
 1198 01a4 069B     		ldr	r3, [sp, #24]
 1199 01a6 002B     		cmp	r3, #0
 1200 01a8 02D0     		beq	.L73
 1201              		.loc 12 69 0 discriminator 2
 1202 01aa 079B     		ldr	r3, [sp, #28]
 1203 01ac 002B     		cmp	r3, #0
 1204 01ae 0BD1     		bne	.L74
 1205              	.L73:
 1206              		.loc 12 70 0 is_stmt 1
 1207 01b0 069B     		ldr	r3, [sp, #24]
 1208 01b2 002B     		cmp	r3, #0
 1209 01b4 02D0     		beq	.L75
 1210              		.loc 12 70 0 is_stmt 0 discriminator 1
 1211 01b6 0698     		ldr	r0, [sp, #24]
 1212 01b8 FFF7FEFF 		bl	_ZdaPv
 1213              	.L75:
 1214              		.loc 12 71 0 is_stmt 1
 1215 01bc 059B     		ldr	r3, [sp, #20]
 1216 01be 002B     		cmp	r3, #0
 1217 01c0 02D0     		beq	.L74
 1218              		.loc 12 71 0 is_stmt 0 discriminator 1
 1219 01c2 0598     		ldr	r0, [sp, #20]
 1220 01c4 FFF7FEFF 		bl	_ZdaPv
 1221              	.L74:
 1222              		.loc 12 73 0 is_stmt 1
 1223 01c8 0024     		movs	r4, #0
 1224              	.L67:
 1225              		.loc 12 73 0 is_stmt 0 discriminator 1
 1226 01ca 04AB     		add	r3, sp, #16
 1227 01cc 1846     		mov	r0, r3
 1228 01ce FFF7FEFF 		bl	_ZN3r2p10ScopedLockINS_5MutexEED1Ev
 1229 01d2 2346     		mov	r3, r4
 1230              	.LBE15:
 1231              		.loc 12 74 0 is_stmt 1 discriminator 1
 1232 01d4 1846     		mov	r0, r3
 1233 01d6 08B0     		add	sp, sp, #32
 1234              		.cfi_def_cfa_offset 16
 1235              		@ sp needed
 1236 01d8 70BD     		pop	{r4, r5, r6, pc}
 1237              	.L78:
 1238 01da 00BF     		.align	2
 1239              	.L77:
 1240 01dc 00000000 		.word	_ZN3r2p14BaseSubscriber9has_topicERKS0_PKc
 1241              		.cfi_endproc
 1242              	.LFE682:
 1243              		.size	_ZN3r2p9Transport16touch_subscriberERNS_5TopicEjPh, .-_ZN3r2p9Transport16touch_subscriberERN
 1244              		.align	2
 1245              		.global	_ZN3r2p9Transport12advertise_cbERNS_5TopicEPKh
 1246              		.thumb
 1247              		.thumb_func
 1248              		.type	_ZN3r2p9Transport12advertise_cbERNS_5TopicEPKh, %function
 1249              	_ZN3r2p9Transport12advertise_cbERNS_5TopicEPKh:
 1250              	.LFB683:
 1251              		.loc 12 77 0
ARM GAS  /tmp/ccyYK6L9.s 			page 23


 1252              		.cfi_startproc
 1253              		@ args = 0, pretend = 0, frame = 16
 1254              		@ frame_needed = 0, uses_anonymous_args = 0
 1255 01e0 00B5     		push	{lr}
 1256              		.cfi_def_cfa_offset 4
 1257              		.cfi_offset 14, -4
 1258 01e2 85B0     		sub	sp, sp, #20
 1259              		.cfi_def_cfa_offset 24
 1260 01e4 0390     		str	r0, [sp, #12]
 1261 01e6 0291     		str	r1, [sp, #8]
 1262 01e8 0192     		str	r2, [sp, #4]
 1263              		.loc 12 79 0
 1264 01ea 0398     		ldr	r0, [sp, #12]
 1265 01ec 0299     		ldr	r1, [sp, #8]
 1266 01ee 019A     		ldr	r2, [sp, #4]
 1267 01f0 FFF7FEFF 		bl	_ZN3r2p9Transport15touch_publisherERNS_5TopicEPKh
 1268 01f4 0346     		mov	r3, r0
 1269              		.loc 12 80 0
 1270 01f6 1846     		mov	r0, r3
 1271 01f8 05B0     		add	sp, sp, #20
 1272              		.cfi_def_cfa_offset 4
 1273              		@ sp needed
 1274 01fa 5DF804FB 		ldr	pc, [sp], #4
 1275              		.cfi_endproc
 1276              	.LFE683:
 1277              		.size	_ZN3r2p9Transport12advertise_cbERNS_5TopicEPKh, .-_ZN3r2p9Transport12advertise_cbERNS_5Topic
 1278 01fe 00BF     		.align	2
 1279              		.global	_ZN3r2p9Transport12subscribe_cbERNS_5TopicEjPh
 1280              		.thumb
 1281              		.thumb_func
 1282              		.type	_ZN3r2p9Transport12subscribe_cbERNS_5TopicEjPh, %function
 1283              	_ZN3r2p9Transport12subscribe_cbERNS_5TopicEjPh:
 1284              	.LFB684:
 1285              		.loc 12 84 0
 1286              		.cfi_startproc
 1287              		@ args = 0, pretend = 0, frame = 16
 1288              		@ frame_needed = 0, uses_anonymous_args = 0
 1289 0200 00B5     		push	{lr}
 1290              		.cfi_def_cfa_offset 4
 1291              		.cfi_offset 14, -4
 1292 0202 85B0     		sub	sp, sp, #20
 1293              		.cfi_def_cfa_offset 24
 1294 0204 0390     		str	r0, [sp, #12]
 1295 0206 0291     		str	r1, [sp, #8]
 1296 0208 0192     		str	r2, [sp, #4]
 1297 020a 0093     		str	r3, [sp]
 1298              		.loc 12 86 0
 1299 020c 0398     		ldr	r0, [sp, #12]
 1300 020e 0299     		ldr	r1, [sp, #8]
 1301 0210 019A     		ldr	r2, [sp, #4]
 1302 0212 009B     		ldr	r3, [sp]
 1303 0214 FFF7FEFF 		bl	_ZN3r2p9Transport16touch_subscriberERNS_5TopicEjPh
 1304 0218 0346     		mov	r3, r0
 1305              		.loc 12 87 0
 1306 021a 1846     		mov	r0, r3
 1307 021c 05B0     		add	sp, sp, #20
 1308              		.cfi_def_cfa_offset 4
ARM GAS  /tmp/ccyYK6L9.s 			page 24


 1309              		@ sp needed
 1310 021e 5DF804FB 		ldr	pc, [sp], #4
 1311              		.cfi_endproc
 1312              	.LFE684:
 1313              		.size	_ZN3r2p9Transport12subscribe_cbERNS_5TopicEjPh, .-_ZN3r2p9Transport12subscribe_cbERNS_5Topic
 1314 0222 00BF     		.align	2
 1315              		.global	_ZN3r2p9Transport9advertiseERNS_15RemotePublisherEPKcRKNS_4TimeEj
 1316              		.thumb
 1317              		.thumb_func
 1318              		.type	_ZN3r2p9Transport9advertiseERNS_15RemotePublisherEPKcRKNS_4TimeEj, %function
 1319              	_ZN3r2p9Transport9advertiseERNS_15RemotePublisherEPKcRKNS_4TimeEj:
 1320              	.LFB685:
 1321              		.loc 12 91 0
 1322              		.cfi_startproc
 1323              		@ args = 4, pretend = 0, frame = 16
 1324              		@ frame_needed = 0, uses_anonymous_args = 0
 1325 0224 00B5     		push	{lr}
 1326              		.cfi_def_cfa_offset 4
 1327              		.cfi_offset 14, -4
 1328 0226 87B0     		sub	sp, sp, #28
 1329              		.cfi_def_cfa_offset 32
 1330 0228 0590     		str	r0, [sp, #20]
 1331 022a 0491     		str	r1, [sp, #16]
 1332 022c 0392     		str	r2, [sp, #12]
 1333 022e 0293     		str	r3, [sp, #8]
 1334              		.loc 12 93 0
 1335 0230 059B     		ldr	r3, [sp, #20]
 1336 0232 1033     		adds	r3, r3, #16
 1337 0234 1846     		mov	r0, r3
 1338 0236 FFF7FEFF 		bl	_ZN3r2p5Mutex7acquireEv
 1339              		.loc 12 94 0
 1340 023a 089B     		ldr	r3, [sp, #32]
 1341 023c 0093     		str	r3, [sp]
 1342 023e 1148     		ldr	r0, .L86
 1343 0240 0499     		ldr	r1, [sp, #16]
 1344 0242 039A     		ldr	r2, [sp, #12]
 1345 0244 029B     		ldr	r3, [sp, #8]
 1346 0246 FFF7FEFF 		bl	_ZN3r2p10Middleware9advertiseERNS_15RemotePublisherEPKcRKNS_4TimeEj
 1347 024a 0346     		mov	r3, r0
 1348 024c 002B     		cmp	r3, #0
 1349 024e 0FD0     		beq	.L84
 1350              		.loc 12 95 0
 1351 0250 059B     		ldr	r3, [sp, #20]
 1352 0252 03F10802 		add	r2, r3, #8
 1353 0256 049B     		ldr	r3, [sp, #16]
 1354 0258 0C33     		adds	r3, r3, #12
 1355 025a 1046     		mov	r0, r2
 1356 025c 1946     		mov	r1, r3
 1357 025e FFF7FEFF 		bl	_ZN3r2p10StaticListINS_15RemotePublisherEE4linkERNS2_4LinkE
 1358              		.loc 12 96 0
 1359 0262 059B     		ldr	r3, [sp, #20]
 1360 0264 1033     		adds	r3, r3, #16
 1361 0266 1846     		mov	r0, r3
 1362 0268 FFF7FEFF 		bl	_ZN3r2p5Mutex7releaseEv
 1363              		.loc 12 97 0
 1364 026c 0123     		movs	r3, #1
 1365 026e 05E0     		b	.L85
ARM GAS  /tmp/ccyYK6L9.s 			page 25


 1366              	.L84:
 1367              		.loc 12 99 0
 1368 0270 059B     		ldr	r3, [sp, #20]
 1369 0272 1033     		adds	r3, r3, #16
 1370 0274 1846     		mov	r0, r3
 1371 0276 FFF7FEFF 		bl	_ZN3r2p5Mutex7releaseEv
 1372              		.loc 12 100 0
 1373 027a 0023     		movs	r3, #0
 1374              	.L85:
 1375              		.loc 12 102 0
 1376 027c 1846     		mov	r0, r3
 1377 027e 07B0     		add	sp, sp, #28
 1378              		.cfi_def_cfa_offset 4
 1379              		@ sp needed
 1380 0280 5DF804FB 		ldr	pc, [sp], #4
 1381              	.L87:
 1382              		.align	2
 1383              	.L86:
 1384 0284 00000000 		.word	_ZN3r2p10Middleware8instanceE
 1385              		.cfi_endproc
 1386              	.LFE685:
 1387              		.size	_ZN3r2p9Transport9advertiseERNS_15RemotePublisherEPKcRKNS_4TimeEj, .-_ZN3r2p9Transport9adver
 1388              		.align	2
 1389              		.global	_ZN3r2p9Transport9subscribeERNS_16RemoteSubscriberEPKcPNS_7MessageEjj
 1390              		.thumb
 1391              		.thumb_func
 1392              		.type	_ZN3r2p9Transport9subscribeERNS_16RemoteSubscriberEPKcPNS_7MessageEjj, %function
 1393              	_ZN3r2p9Transport9subscribeERNS_16RemoteSubscriberEPKcPNS_7MessageEjj:
 1394              	.LFB686:
 1395              		.loc 12 107 0
 1396              		.cfi_startproc
 1397              		@ args = 8, pretend = 0, frame = 16
 1398              		@ frame_needed = 0, uses_anonymous_args = 0
 1399 0288 00B5     		push	{lr}
 1400              		.cfi_def_cfa_offset 4
 1401              		.cfi_offset 14, -4
 1402 028a 87B0     		sub	sp, sp, #28
 1403              		.cfi_def_cfa_offset 32
 1404 028c 0590     		str	r0, [sp, #20]
 1405 028e 0491     		str	r1, [sp, #16]
 1406 0290 0392     		str	r2, [sp, #12]
 1407 0292 0293     		str	r3, [sp, #8]
 1408              		.loc 12 109 0
 1409 0294 059B     		ldr	r3, [sp, #20]
 1410 0296 2433     		adds	r3, r3, #36
 1411 0298 1846     		mov	r0, r3
 1412 029a FFF7FEFF 		bl	_ZN3r2p5Mutex7acquireEv
 1413              		.loc 12 110 0
 1414 029e 089B     		ldr	r3, [sp, #32]
 1415 02a0 0093     		str	r3, [sp]
 1416 02a2 099B     		ldr	r3, [sp, #36]
 1417 02a4 0193     		str	r3, [sp, #4]
 1418 02a6 1148     		ldr	r0, .L91
 1419 02a8 0499     		ldr	r1, [sp, #16]
 1420 02aa 039A     		ldr	r2, [sp, #12]
 1421 02ac 029B     		ldr	r3, [sp, #8]
 1422 02ae FFF7FEFF 		bl	_ZN3r2p10Middleware9subscribeERNS_16RemoteSubscriberEPKcPNS_7MessageEjj
ARM GAS  /tmp/ccyYK6L9.s 			page 26


 1423 02b2 0346     		mov	r3, r0
 1424 02b4 002B     		cmp	r3, #0
 1425 02b6 0FD0     		beq	.L89
 1426              		.loc 12 112 0
 1427 02b8 059B     		ldr	r3, [sp, #20]
 1428 02ba 03F10C02 		add	r2, r3, #12
 1429 02be 049B     		ldr	r3, [sp, #16]
 1430 02c0 0C33     		adds	r3, r3, #12
 1431 02c2 1046     		mov	r0, r2
 1432 02c4 1946     		mov	r1, r3
 1433 02c6 FFF7FEFF 		bl	_ZN3r2p10StaticListINS_16RemoteSubscriberEE4linkERNS2_4LinkE
 1434              		.loc 12 113 0
 1435 02ca 059B     		ldr	r3, [sp, #20]
 1436 02cc 2433     		adds	r3, r3, #36
 1437 02ce 1846     		mov	r0, r3
 1438 02d0 FFF7FEFF 		bl	_ZN3r2p5Mutex7releaseEv
 1439              		.loc 12 114 0
 1440 02d4 0123     		movs	r3, #1
 1441 02d6 05E0     		b	.L90
 1442              	.L89:
 1443              		.loc 12 116 0
 1444 02d8 059B     		ldr	r3, [sp, #20]
 1445 02da 2433     		adds	r3, r3, #36
 1446 02dc 1846     		mov	r0, r3
 1447 02de FFF7FEFF 		bl	_ZN3r2p5Mutex7releaseEv
 1448              		.loc 12 117 0
 1449 02e2 0023     		movs	r3, #0
 1450              	.L90:
 1451              		.loc 12 119 0
 1452 02e4 1846     		mov	r0, r3
 1453 02e6 07B0     		add	sp, sp, #28
 1454              		.cfi_def_cfa_offset 4
 1455              		@ sp needed
 1456 02e8 5DF804FB 		ldr	pc, [sp], #4
 1457              	.L92:
 1458              		.align	2
 1459              	.L91:
 1460 02ec 00000000 		.word	_ZN3r2p10Middleware8instanceE
 1461              		.cfi_endproc
 1462              	.LFE686:
 1463              		.size	_ZN3r2p9Transport9subscribeERNS_16RemoteSubscriberEPKcPNS_7MessageEjj, .-_ZN3r2p9Transport9s
 1464              		.align	2
 1465              		.global	_ZN3r2p9Transport15fill_raw_paramsERKNS_5TopicEPh
 1466              		.thumb
 1467              		.thumb_func
 1468              		.type	_ZN3r2p9Transport15fill_raw_paramsERKNS_5TopicEPh, %function
 1469              	_ZN3r2p9Transport15fill_raw_paramsERKNS_5TopicEPh:
 1470              	.LFB687:
 1471              		.loc 12 122 0
 1472              		.cfi_startproc
 1473              		@ args = 0, pretend = 0, frame = 16
 1474              		@ frame_needed = 0, uses_anonymous_args = 0
 1475 02f0 00B5     		push	{lr}
 1476              		.cfi_def_cfa_offset 4
 1477              		.cfi_offset 14, -4
 1478 02f2 85B0     		sub	sp, sp, #20
 1479              		.cfi_def_cfa_offset 24
ARM GAS  /tmp/ccyYK6L9.s 			page 27


 1480 02f4 0390     		str	r0, [sp, #12]
 1481 02f6 0291     		str	r1, [sp, #8]
 1482 02f8 0192     		str	r2, [sp, #4]
 1483              		.loc 12 127 0
 1484 02fa 0198     		ldr	r0, [sp, #4]
 1485 02fc CC21     		movs	r1, #204
 1486 02fe 0A22     		movs	r2, #10
 1487 0300 FFF7FEFF 		bl	memset
 1488              		.loc 12 128 0
 1489 0304 05B0     		add	sp, sp, #20
 1490              		.cfi_def_cfa_offset 4
 1491              		@ sp needed
 1492 0306 5DF804FB 		ldr	pc, [sp], #4
 1493              		.cfi_endproc
 1494              	.LFE687:
 1495              		.size	_ZN3r2p9Transport15fill_raw_paramsERKNS_5TopicEPh, .-_ZN3r2p9Transport15fill_raw_paramsERKNS
 1496              		.section	.text._ZN3r2p10StaticListINS_15RemotePublisherEED2Ev,"axG",%progbits,_ZN3r2p10StaticListI
 1497              		.align	2
 1498              		.weak	_ZN3r2p10StaticListINS_15RemotePublisherEED2Ev
 1499              		.thumb
 1500              		.thumb_func
 1501              		.type	_ZN3r2p10StaticListINS_15RemotePublisherEED2Ev, %function
 1502              	_ZN3r2p10StaticListINS_15RemotePublisherEED2Ev:
 1503              	.LFB690:
 1504              		.file 13 "/opt/R2P/core/Middleware/include/r2p/StaticList.hpp"
 1505              		.loc 13 15 0
 1506              		.cfi_startproc
 1507              		@ args = 0, pretend = 0, frame = 8
 1508              		@ frame_needed = 0, uses_anonymous_args = 0
 1509 0000 00B5     		push	{lr}
 1510              		.cfi_def_cfa_offset 4
 1511              		.cfi_offset 14, -4
 1512 0002 83B0     		sub	sp, sp, #12
 1513              		.cfi_def_cfa_offset 16
 1514 0004 0190     		str	r0, [sp, #4]
 1515              	.LBB16:
 1516              		.loc 13 15 0
 1517 0006 0198     		ldr	r0, [sp, #4]
 1518 0008 FFF7FEFF 		bl	_ZN3r2p10UncopyableD2Ev
 1519              	.LBE16:
 1520 000c 019B     		ldr	r3, [sp, #4]
 1521 000e 1846     		mov	r0, r3
 1522 0010 03B0     		add	sp, sp, #12
 1523              		.cfi_def_cfa_offset 4
 1524              		@ sp needed
 1525 0012 5DF804FB 		ldr	pc, [sp], #4
 1526              		.cfi_endproc
 1527              	.LFE690:
 1528              		.size	_ZN3r2p10StaticListINS_15RemotePublisherEED2Ev, .-_ZN3r2p10StaticListINS_15RemotePublisherEE
 1529              		.weak	_ZN3r2p10StaticListINS_15RemotePublisherEED1Ev
 1530              		.thumb_set _ZN3r2p10StaticListINS_15RemotePublisherEED1Ev,_ZN3r2p10StaticListINS_15RemotePublisher
 1531 0016 00BF     		.section	.text._ZN3r2p10StaticListINS_16RemoteSubscriberEED2Ev,"axG",%progbits,_ZN3r2p10StaticList
 1532              		.align	2
 1533              		.weak	_ZN3r2p10StaticListINS_16RemoteSubscriberEED2Ev
 1534              		.thumb
 1535              		.thumb_func
 1536              		.type	_ZN3r2p10StaticListINS_16RemoteSubscriberEED2Ev, %function
ARM GAS  /tmp/ccyYK6L9.s 			page 28


 1537              	_ZN3r2p10StaticListINS_16RemoteSubscriberEED2Ev:
 1538              	.LFB693:
 1539              		.loc 13 15 0
 1540              		.cfi_startproc
 1541              		@ args = 0, pretend = 0, frame = 8
 1542              		@ frame_needed = 0, uses_anonymous_args = 0
 1543 0000 00B5     		push	{lr}
 1544              		.cfi_def_cfa_offset 4
 1545              		.cfi_offset 14, -4
 1546 0002 83B0     		sub	sp, sp, #12
 1547              		.cfi_def_cfa_offset 16
 1548 0004 0190     		str	r0, [sp, #4]
 1549              	.LBB17:
 1550              		.loc 13 15 0
 1551 0006 0198     		ldr	r0, [sp, #4]
 1552 0008 FFF7FEFF 		bl	_ZN3r2p10UncopyableD2Ev
 1553              	.LBE17:
 1554 000c 019B     		ldr	r3, [sp, #4]
 1555 000e 1846     		mov	r0, r3
 1556 0010 03B0     		add	sp, sp, #12
 1557              		.cfi_def_cfa_offset 4
 1558              		@ sp needed
 1559 0012 5DF804FB 		ldr	pc, [sp], #4
 1560              		.cfi_endproc
 1561              	.LFE693:
 1562              		.size	_ZN3r2p10StaticListINS_16RemoteSubscriberEED2Ev, .-_ZN3r2p10StaticListINS_16RemoteSubscriber
 1563              		.weak	_ZN3r2p10StaticListINS_16RemoteSubscriberEED1Ev
 1564              		.thumb_set _ZN3r2p10StaticListINS_16RemoteSubscriberEED1Ev,_ZN3r2p10StaticListINS_16RemoteSubscrib
 1565 0016 00BF     		.text
 1566 030a 00BF     		.align	2
 1567              		.global	_ZN3r2p9TransportC2EPKc
 1568              		.thumb
 1569              		.thumb_func
 1570              		.type	_ZN3r2p9TransportC2EPKc, %function
 1571              	_ZN3r2p9TransportC2EPKc:
 1572              	.LFB695:
 1573              		.loc 12 131 0
 1574              		.cfi_startproc
 1575              		@ args = 0, pretend = 0, frame = 8
 1576              		@ frame_needed = 0, uses_anonymous_args = 0
 1577 030c 00B5     		push	{lr}
 1578              		.cfi_def_cfa_offset 4
 1579              		.cfi_offset 14, -4
 1580 030e 83B0     		sub	sp, sp, #12
 1581              		.cfi_def_cfa_offset 16
 1582 0310 0190     		str	r0, [sp, #4]
 1583 0312 0091     		str	r1, [sp]
 1584              	.LBB18:
 1585              		.loc 12 134 0
 1586 0314 0198     		ldr	r0, [sp, #4]
 1587 0316 FFF7FEFF 		bl	_ZN3r2p10UncopyableC2Ev
 1588 031a 019B     		ldr	r3, [sp, #4]
 1589 031c 184A     		ldr	r2, .L103
 1590 031e 1A60     		str	r2, [r3]
 1591 0320 019B     		ldr	r3, [sp, #4]
 1592 0322 009A     		ldr	r2, [sp]
 1593 0324 5A60     		str	r2, [r3, #4]
ARM GAS  /tmp/ccyYK6L9.s 			page 29


 1594 0326 019B     		ldr	r3, [sp, #4]
 1595 0328 0833     		adds	r3, r3, #8
 1596 032a 1846     		mov	r0, r3
 1597 032c FFF7FEFF 		bl	_ZN3r2p10StaticListINS_15RemotePublisherEEC1Ev
 1598 0330 019B     		ldr	r3, [sp, #4]
 1599 0332 0C33     		adds	r3, r3, #12
 1600 0334 1846     		mov	r0, r3
 1601 0336 FFF7FEFF 		bl	_ZN3r2p10StaticListINS_16RemoteSubscriberEEC1Ev
 1602 033a 019B     		ldr	r3, [sp, #4]
 1603 033c 1033     		adds	r3, r3, #16
 1604 033e 1846     		mov	r0, r3
 1605 0340 FFF7FEFF 		bl	_ZN3r2p5MutexC1Ev
 1606 0344 019B     		ldr	r3, [sp, #4]
 1607 0346 2433     		adds	r3, r3, #36
 1608 0348 1846     		mov	r0, r3
 1609 034a FFF7FEFF 		bl	_ZN3r2p5MutexC1Ev
 1610 034e 019B     		ldr	r3, [sp, #4]
 1611 0350 3833     		adds	r3, r3, #56
 1612 0352 1846     		mov	r0, r3
 1613 0354 0199     		ldr	r1, [sp, #4]
 1614 0356 FFF7FEFF 		bl	_ZN3r2p10StaticListINS_9TransportEE4LinkC1ERS1_
 1615              		.loc 12 136 0
 1616 035a 0098     		ldr	r0, [sp]
 1617 035c 0821     		movs	r1, #8
 1618 035e FFF7FEFF 		bl	_ZN3r2p13is_identifierEPKcj
 1619 0362 0346     		mov	r3, r0
 1620 0364 83F00103 		eor	r3, r3, #1
 1621 0368 DBB2     		uxtb	r3, r3
 1622 036a 002B     		cmp	r3, #0
 1623 036c 02D0     		beq	.L101
 1624              		.loc 12 136 0 is_stmt 0 discriminator 1
 1625 036e 0548     		ldr	r0, .L103+4
 1626 0370 FFF7FEFF 		bl	chDbgPanic
 1627              	.L101:
 1628              	.LBE18:
 1629              		.loc 12 137 0 is_stmt 1
 1630 0374 019B     		ldr	r3, [sp, #4]
 1631 0376 1846     		mov	r0, r3
 1632 0378 03B0     		add	sp, sp, #12
 1633              		.cfi_def_cfa_offset 4
 1634              		@ sp needed
 1635 037a 5DF804FB 		ldr	pc, [sp], #4
 1636              	.L104:
 1637 037e 00BF     		.align	2
 1638              	.L103:
 1639 0380 08000000 		.word	_ZTVN3r2p9TransportE+8
 1640 0384 00000000 		.word	.LC0
 1641              		.cfi_endproc
 1642              	.LFE695:
 1643              		.size	_ZN3r2p9TransportC2EPKc, .-_ZN3r2p9TransportC2EPKc
 1644              		.global	_ZN3r2p9TransportC1EPKc
 1645              		.thumb_set _ZN3r2p9TransportC1EPKc,_ZN3r2p9TransportC2EPKc
 1646              		.align	2
 1647              		.global	_ZN3r2p9TransportD2Ev
 1648              		.thumb
 1649              		.thumb_func
 1650              		.type	_ZN3r2p9TransportD2Ev, %function
ARM GAS  /tmp/ccyYK6L9.s 			page 30


 1651              	_ZN3r2p9TransportD2Ev:
 1652              	.LFB698:
 1653              		.loc 12 140 0
 1654              		.cfi_startproc
 1655              		@ args = 0, pretend = 0, frame = 8
 1656              		@ frame_needed = 0, uses_anonymous_args = 0
 1657 0388 00B5     		push	{lr}
 1658              		.cfi_def_cfa_offset 4
 1659              		.cfi_offset 14, -4
 1660 038a 83B0     		sub	sp, sp, #12
 1661              		.cfi_def_cfa_offset 16
 1662 038c 0190     		str	r0, [sp, #4]
 1663              	.LBB19:
 1664              		.loc 12 140 0
 1665 038e 019B     		ldr	r3, [sp, #4]
 1666 0390 114A     		ldr	r2, .L109
 1667 0392 1A60     		str	r2, [r3]
 1668 0394 019B     		ldr	r3, [sp, #4]
 1669 0396 2433     		adds	r3, r3, #36
 1670 0398 1846     		mov	r0, r3
 1671 039a FFF7FEFF 		bl	_ZN3r2p5MutexD1Ev
 1672 039e 019B     		ldr	r3, [sp, #4]
 1673 03a0 1033     		adds	r3, r3, #16
 1674 03a2 1846     		mov	r0, r3
 1675 03a4 FFF7FEFF 		bl	_ZN3r2p5MutexD1Ev
 1676 03a8 019B     		ldr	r3, [sp, #4]
 1677 03aa 0C33     		adds	r3, r3, #12
 1678 03ac 1846     		mov	r0, r3
 1679 03ae FFF7FEFF 		bl	_ZN3r2p10StaticListINS_16RemoteSubscriberEED1Ev
 1680 03b2 019B     		ldr	r3, [sp, #4]
 1681 03b4 0833     		adds	r3, r3, #8
 1682 03b6 1846     		mov	r0, r3
 1683 03b8 FFF7FEFF 		bl	_ZN3r2p10StaticListINS_15RemotePublisherEED1Ev
 1684 03bc 0198     		ldr	r0, [sp, #4]
 1685 03be FFF7FEFF 		bl	_ZN3r2p10UncopyableD2Ev
 1686              	.LBE19:
 1687 03c2 0023     		movs	r3, #0
 1688 03c4 002B     		cmp	r3, #0
 1689 03c6 02D0     		beq	.L107
 1690              		.loc 12 140 0 is_stmt 0 discriminator 2
 1691 03c8 0198     		ldr	r0, [sp, #4]
 1692 03ca FFF7FEFF 		bl	_ZdlPv
 1693              	.L107:
 1694              		.loc 12 140 0 discriminator 4
 1695 03ce 019B     		ldr	r3, [sp, #4]
 1696 03d0 1846     		mov	r0, r3
 1697 03d2 03B0     		add	sp, sp, #12
 1698              		.cfi_def_cfa_offset 4
 1699              		@ sp needed
 1700 03d4 5DF804FB 		ldr	pc, [sp], #4
 1701              	.L110:
 1702              		.align	2
 1703              	.L109:
 1704 03d8 08000000 		.word	_ZTVN3r2p9TransportE+8
 1705              		.cfi_endproc
 1706              	.LFE698:
 1707              		.size	_ZN3r2p9TransportD2Ev, .-_ZN3r2p9TransportD2Ev
ARM GAS  /tmp/ccyYK6L9.s 			page 31


 1708              		.global	_ZN3r2p9TransportD1Ev
 1709              		.thumb_set _ZN3r2p9TransportD1Ev,_ZN3r2p9TransportD2Ev
 1710              		.align	2
 1711              		.global	_ZN3r2p9TransportD0Ev
 1712              		.thumb
 1713              		.thumb_func
 1714              		.type	_ZN3r2p9TransportD0Ev, %function
 1715              	_ZN3r2p9TransportD0Ev:
 1716              	.LFB700:
 1717              		.loc 12 140 0 is_stmt 1
 1718              		.cfi_startproc
 1719              		@ args = 0, pretend = 0, frame = 8
 1720              		@ frame_needed = 0, uses_anonymous_args = 0
 1721 03dc 00B5     		push	{lr}
 1722              		.cfi_def_cfa_offset 4
 1723              		.cfi_offset 14, -4
 1724 03de 83B0     		sub	sp, sp, #12
 1725              		.cfi_def_cfa_offset 16
 1726 03e0 0190     		str	r0, [sp, #4]
 1727              		.loc 12 140 0
 1728 03e2 0198     		ldr	r0, [sp, #4]
 1729 03e4 FFF7FEFF 		bl	_ZN3r2p9TransportD2Ev
 1730 03e8 0198     		ldr	r0, [sp, #4]
 1731 03ea FFF7FEFF 		bl	_ZdlPv
 1732 03ee 019B     		ldr	r3, [sp, #4]
 1733 03f0 1846     		mov	r0, r3
 1734 03f2 03B0     		add	sp, sp, #12
 1735              		.cfi_def_cfa_offset 4
 1736              		@ sp needed
 1737 03f4 5DF804FB 		ldr	pc, [sp], #4
 1738              		.cfi_endproc
 1739              	.LFE700:
 1740              		.size	_ZN3r2p9TransportD0Ev, .-_ZN3r2p9TransportD0Ev
 1741              		.section	.text._ZNK3r2p10StaticListINS_16RemoteSubscriberEE15is_empty_unsafeEv,"axG",%progbits,_ZN
 1742              		.align	2
 1743              		.weak	_ZNK3r2p10StaticListINS_16RemoteSubscriberEE15is_empty_unsafeEv
 1744              		.thumb
 1745              		.thumb_func
 1746              		.type	_ZNK3r2p10StaticListINS_16RemoteSubscriberEE15is_empty_unsafeEv, %function
 1747              	_ZNK3r2p10StaticListINS_16RemoteSubscriberEE15is_empty_unsafeEv:
 1748              	.LFB720:
 1749              		.loc 13 401 0
 1750              		.cfi_startproc
 1751              		@ args = 0, pretend = 0, frame = 8
 1752              		@ frame_needed = 0, uses_anonymous_args = 0
 1753              		@ link register save eliminated.
 1754 0000 82B0     		sub	sp, sp, #8
 1755              		.cfi_def_cfa_offset 8
 1756 0002 0190     		str	r0, [sp, #4]
 1757              		.loc 13 402 0
 1758 0004 019B     		ldr	r3, [sp, #4]
 1759 0006 1B68     		ldr	r3, [r3]
 1760 0008 002B     		cmp	r3, #0
 1761 000a 0CBF     		ite	eq
 1762 000c 0123     		moveq	r3, #1
 1763 000e 0023     		movne	r3, #0
 1764 0010 DBB2     		uxtb	r3, r3
ARM GAS  /tmp/ccyYK6L9.s 			page 32


 1765              		.loc 13 403 0
 1766 0012 1846     		mov	r0, r3
 1767 0014 02B0     		add	sp, sp, #8
 1768              		.cfi_def_cfa_offset 0
 1769              		@ sp needed
 1770 0016 7047     		bx	lr
 1771              		.cfi_endproc
 1772              	.LFE720:
 1773              		.size	_ZNK3r2p10StaticListINS_16RemoteSubscriberEE15is_empty_unsafeEv, .-_ZNK3r2p10StaticListINS_1
 1774              		.section	.text._ZN3r2p10ScopedLockINS_5MutexEEC2ERS1_,"axG",%progbits,_ZN3r2p10ScopedLockINS_5Mute
 1775              		.align	2
 1776              		.weak	_ZN3r2p10ScopedLockINS_5MutexEEC2ERS1_
 1777              		.thumb
 1778              		.thumb_func
 1779              		.type	_ZN3r2p10ScopedLockINS_5MutexEEC2ERS1_, %function
 1780              	_ZN3r2p10ScopedLockINS_5MutexEEC2ERS1_:
 1781              	.LFB724:
 1782              		.file 14 "/opt/R2P/core/Middleware/include/r2p/ScopedLock.hpp"
 1783              		.loc 14 20 0
 1784              		.cfi_startproc
 1785              		@ args = 0, pretend = 0, frame = 8
 1786              		@ frame_needed = 0, uses_anonymous_args = 0
 1787 0000 00B5     		push	{lr}
 1788              		.cfi_def_cfa_offset 4
 1789              		.cfi_offset 14, -4
 1790 0002 83B0     		sub	sp, sp, #12
 1791              		.cfi_def_cfa_offset 16
 1792 0004 0190     		str	r0, [sp, #4]
 1793 0006 0091     		str	r1, [sp]
 1794              	.LBB20:
 1795              		.loc 14 22 0
 1796 0008 0198     		ldr	r0, [sp, #4]
 1797 000a FFF7FEFF 		bl	_ZN3r2p10UncopyableC2Ev
 1798 000e 019B     		ldr	r3, [sp, #4]
 1799 0010 009A     		ldr	r2, [sp]
 1800 0012 1A60     		str	r2, [r3]
 1801              		.loc 14 24 0
 1802 0014 019B     		ldr	r3, [sp, #4]
 1803 0016 1B68     		ldr	r3, [r3]
 1804 0018 1846     		mov	r0, r3
 1805 001a FFF7FEFF 		bl	_ZN3r2p5Mutex7acquireEv
 1806              	.LBE20:
 1807              		.loc 14 25 0
 1808 001e 019B     		ldr	r3, [sp, #4]
 1809 0020 1846     		mov	r0, r3
 1810 0022 03B0     		add	sp, sp, #12
 1811              		.cfi_def_cfa_offset 4
 1812              		@ sp needed
 1813 0024 5DF804FB 		ldr	pc, [sp], #4
 1814              		.cfi_endproc
 1815              	.LFE724:
 1816              		.size	_ZN3r2p10ScopedLockINS_5MutexEEC2ERS1_, .-_ZN3r2p10ScopedLockINS_5MutexEEC2ERS1_
 1817              		.weak	_ZN3r2p10ScopedLockINS_5MutexEEC1ERS1_
 1818              		.thumb_set _ZN3r2p10ScopedLockINS_5MutexEEC1ERS1_,_ZN3r2p10ScopedLockINS_5MutexEEC2ERS1_
 1819              		.section	.text._ZN3r2p10ScopedLockINS_5MutexEED2Ev,"axG",%progbits,_ZN3r2p10ScopedLockINS_5MutexEE
 1820              		.align	2
 1821              		.weak	_ZN3r2p10ScopedLockINS_5MutexEED2Ev
ARM GAS  /tmp/ccyYK6L9.s 			page 33


 1822              		.thumb
 1823              		.thumb_func
 1824              		.type	_ZN3r2p10ScopedLockINS_5MutexEED2Ev, %function
 1825              	_ZN3r2p10ScopedLockINS_5MutexEED2Ev:
 1826              	.LFB727:
 1827              		.loc 14 29 0
 1828              		.cfi_startproc
 1829              		@ args = 0, pretend = 0, frame = 8
 1830              		@ frame_needed = 0, uses_anonymous_args = 0
 1831 0000 00B5     		push	{lr}
 1832              		.cfi_def_cfa_offset 4
 1833              		.cfi_offset 14, -4
 1834 0002 83B0     		sub	sp, sp, #12
 1835              		.cfi_def_cfa_offset 16
 1836 0004 0190     		str	r0, [sp, #4]
 1837              	.LBB21:
 1838              		.loc 14 31 0
 1839 0006 019B     		ldr	r3, [sp, #4]
 1840 0008 1B68     		ldr	r3, [r3]
 1841 000a 1846     		mov	r0, r3
 1842 000c FFF7FEFF 		bl	_ZN3r2p5Mutex7releaseEv
 1843              		.loc 14 32 0
 1844 0010 0198     		ldr	r0, [sp, #4]
 1845 0012 FFF7FEFF 		bl	_ZN3r2p10UncopyableD2Ev
 1846              	.LBE21:
 1847 0016 019B     		ldr	r3, [sp, #4]
 1848 0018 1846     		mov	r0, r3
 1849 001a 03B0     		add	sp, sp, #12
 1850              		.cfi_def_cfa_offset 4
 1851              		@ sp needed
 1852 001c 5DF804FB 		ldr	pc, [sp], #4
 1853              		.cfi_endproc
 1854              	.LFE727:
 1855              		.size	_ZN3r2p10ScopedLockINS_5MutexEED2Ev, .-_ZN3r2p10ScopedLockINS_5MutexEED2Ev
 1856              		.weak	_ZN3r2p10ScopedLockINS_5MutexEED1Ev
 1857              		.thumb_set _ZN3r2p10ScopedLockINS_5MutexEED1Ev,_ZN3r2p10ScopedLockINS_5MutexEED2Ev
 1858              		.section	.text._ZNK3r2p10StaticListINS_15RemotePublisherEE10find_firstIPFbRKNS_13BasePublisherEPKc
 1859              		.align	2
 1860              		.weak	_ZNK3r2p10StaticListINS_15RemotePublisherEE10find_firstIPFbRKNS_13BasePublisherEPKcEcEEPS1_T
 1861              		.thumb
 1862              		.thumb_func
 1863              		.type	_ZNK3r2p10StaticListINS_15RemotePublisherEE10find_firstIPFbRKNS_13BasePublisherEPKcEcEEPS1_T
 1864              	_ZNK3r2p10StaticListINS_15RemotePublisherEE10find_firstIPFbRKNS_13BasePublisherEPKcEcEEPS1_T_PKT0_:
 1865              	.LFB729:
 1866              		.loc 13 475 0
 1867              		.cfi_startproc
 1868              		@ args = 0, pretend = 0, frame = 16
 1869              		@ frame_needed = 0, uses_anonymous_args = 0
 1870 0000 00B5     		push	{lr}
 1871              		.cfi_def_cfa_offset 4
 1872              		.cfi_offset 14, -4
 1873 0002 85B0     		sub	sp, sp, #20
 1874              		.cfi_def_cfa_offset 24
 1875 0004 0390     		str	r0, [sp, #12]
 1876 0006 0291     		str	r1, [sp, #8]
 1877 0008 0192     		str	r2, [sp, #4]
 1878              		.loc 13 477 0
ARM GAS  /tmp/ccyYK6L9.s 			page 34


 1879 000a 0398     		ldr	r0, [sp, #12]
 1880 000c 0299     		ldr	r1, [sp, #8]
 1881 000e 019A     		ldr	r2, [sp, #4]
 1882 0010 FFF7FEFF 		bl	_ZNK3r2p10StaticListINS_15RemotePublisherEE10find_firstEPFbRKS1_PKvES6_
 1883 0014 0346     		mov	r3, r0
 1884              		.loc 13 478 0
 1885 0016 1846     		mov	r0, r3
 1886 0018 05B0     		add	sp, sp, #20
 1887              		.cfi_def_cfa_offset 4
 1888              		@ sp needed
 1889 001a 5DF804FB 		ldr	pc, [sp], #4
 1890              		.cfi_endproc
 1891              	.LFE729:
 1892              		.size	_ZNK3r2p10StaticListINS_15RemotePublisherEE10find_firstIPFbRKNS_13BasePublisherEPKcEcEEPS1_T
 1893 001e 00BF     		.section	.text._ZN3r2p10StaticListINS_15RemotePublisherEE4linkERNS2_4LinkE,"axG",%progbits,_ZN3r2p
 1894              		.align	2
 1895              		.weak	_ZN3r2p10StaticListINS_15RemotePublisherEE4linkERNS2_4LinkE
 1896              		.thumb
 1897              		.thumb_func
 1898              		.type	_ZN3r2p10StaticListINS_15RemotePublisherEE4linkERNS2_4LinkE, %function
 1899              	_ZN3r2p10StaticListINS_15RemotePublisherEE4linkERNS2_4LinkE:
 1900              	.LFB730:
 1901              		.loc 13 630 0
 1902              		.cfi_startproc
 1903              		@ args = 0, pretend = 0, frame = 8
 1904              		@ frame_needed = 0, uses_anonymous_args = 0
 1905 0000 00B5     		push	{lr}
 1906              		.cfi_def_cfa_offset 4
 1907              		.cfi_offset 14, -4
 1908 0002 83B0     		sub	sp, sp, #12
 1909              		.cfi_def_cfa_offset 16
 1910 0004 0190     		str	r0, [sp, #4]
 1911 0006 0091     		str	r1, [sp]
 1912              		.loc 13 632 0
 1913 0008 FFF7FEFF 		bl	_ZN3r2p7SysLock7acquireEv
 1914              		.loc 13 633 0
 1915 000c 0198     		ldr	r0, [sp, #4]
 1916 000e 0099     		ldr	r1, [sp]
 1917 0010 FFF7FEFF 		bl	_ZN3r2p10StaticListINS_15RemotePublisherEE16link_tail_unsafeERNS2_4LinkE
 1918              		.loc 13 635 0
 1919 0014 FFF7FEFF 		bl	_ZN3r2p7SysLock7releaseEv
 1920              		.loc 13 636 0
 1921 0018 03B0     		add	sp, sp, #12
 1922              		.cfi_def_cfa_offset 4
 1923              		@ sp needed
 1924 001a 5DF804FB 		ldr	pc, [sp], #4
 1925              		.cfi_endproc
 1926              	.LFE730:
 1927              		.size	_ZN3r2p10StaticListINS_15RemotePublisherEE4linkERNS2_4LinkE, .-_ZN3r2p10StaticListINS_15Remo
 1928 001e 00BF     		.section	.text._ZNK3r2p10StaticListINS_16RemoteSubscriberEE10find_firstIPFbRKNS_14BaseSubscriberEP
 1929              		.align	2
 1930              		.weak	_ZNK3r2p10StaticListINS_16RemoteSubscriberEE10find_firstIPFbRKNS_14BaseSubscriberEPKcEcEEPS1
 1931              		.thumb
 1932              		.thumb_func
 1933              		.type	_ZNK3r2p10StaticListINS_16RemoteSubscriberEE10find_firstIPFbRKNS_14BaseSubscriberEPKcEcEEPS1
 1934              	_ZNK3r2p10StaticListINS_16RemoteSubscriberEE10find_firstIPFbRKNS_14BaseSubscriberEPKcEcEEPS1_T_PKT0
 1935              	.LFB731:
ARM GAS  /tmp/ccyYK6L9.s 			page 35


 1936              		.loc 13 475 0
 1937              		.cfi_startproc
 1938              		@ args = 0, pretend = 0, frame = 16
 1939              		@ frame_needed = 0, uses_anonymous_args = 0
 1940 0000 00B5     		push	{lr}
 1941              		.cfi_def_cfa_offset 4
 1942              		.cfi_offset 14, -4
 1943 0002 85B0     		sub	sp, sp, #20
 1944              		.cfi_def_cfa_offset 24
 1945 0004 0390     		str	r0, [sp, #12]
 1946 0006 0291     		str	r1, [sp, #8]
 1947 0008 0192     		str	r2, [sp, #4]
 1948              		.loc 13 477 0
 1949 000a 0398     		ldr	r0, [sp, #12]
 1950 000c 0299     		ldr	r1, [sp, #8]
 1951 000e 019A     		ldr	r2, [sp, #4]
 1952 0010 FFF7FEFF 		bl	_ZNK3r2p10StaticListINS_16RemoteSubscriberEE10find_firstEPFbRKS1_PKvES6_
 1953 0014 0346     		mov	r3, r0
 1954              		.loc 13 478 0
 1955 0016 1846     		mov	r0, r3
 1956 0018 05B0     		add	sp, sp, #20
 1957              		.cfi_def_cfa_offset 4
 1958              		@ sp needed
 1959 001a 5DF804FB 		ldr	pc, [sp], #4
 1960              		.cfi_endproc
 1961              	.LFE731:
 1962              		.size	_ZNK3r2p10StaticListINS_16RemoteSubscriberEE10find_firstIPFbRKNS_14BaseSubscriberEPKcEcEEPS1
 1963 001e 00BF     		.section	.text._ZN3r2p10StaticListINS_16RemoteSubscriberEE4linkERNS2_4LinkE,"axG",%progbits,_ZN3r2
 1964              		.align	2
 1965              		.weak	_ZN3r2p10StaticListINS_16RemoteSubscriberEE4linkERNS2_4LinkE
 1966              		.thumb
 1967              		.thumb_func
 1968              		.type	_ZN3r2p10StaticListINS_16RemoteSubscriberEE4linkERNS2_4LinkE, %function
 1969              	_ZN3r2p10StaticListINS_16RemoteSubscriberEE4linkERNS2_4LinkE:
 1970              	.LFB732:
 1971              		.loc 13 630 0
 1972              		.cfi_startproc
 1973              		@ args = 0, pretend = 0, frame = 8
 1974              		@ frame_needed = 0, uses_anonymous_args = 0
 1975 0000 00B5     		push	{lr}
 1976              		.cfi_def_cfa_offset 4
 1977              		.cfi_offset 14, -4
 1978 0002 83B0     		sub	sp, sp, #12
 1979              		.cfi_def_cfa_offset 16
 1980 0004 0190     		str	r0, [sp, #4]
 1981 0006 0091     		str	r1, [sp]
 1982              		.loc 13 632 0
 1983 0008 FFF7FEFF 		bl	_ZN3r2p7SysLock7acquireEv
 1984              		.loc 13 633 0
 1985 000c 0198     		ldr	r0, [sp, #4]
 1986 000e 0099     		ldr	r1, [sp]
 1987 0010 FFF7FEFF 		bl	_ZN3r2p10StaticListINS_16RemoteSubscriberEE16link_tail_unsafeERNS2_4LinkE
 1988              		.loc 13 635 0
 1989 0014 FFF7FEFF 		bl	_ZN3r2p7SysLock7releaseEv
 1990              		.loc 13 636 0
 1991 0018 03B0     		add	sp, sp, #12
 1992              		.cfi_def_cfa_offset 4
ARM GAS  /tmp/ccyYK6L9.s 			page 36


 1993              		@ sp needed
 1994 001a 5DF804FB 		ldr	pc, [sp], #4
 1995              		.cfi_endproc
 1996              	.LFE732:
 1997              		.size	_ZN3r2p10StaticListINS_16RemoteSubscriberEE4linkERNS2_4LinkE, .-_ZN3r2p10StaticListINS_16Rem
 1998 001e 00BF     		.section	.text._ZN3r2p10StaticListINS_15RemotePublisherEEC2Ev,"axG",%progbits,_ZN3r2p10StaticListI
 1999              		.align	2
 2000              		.weak	_ZN3r2p10StaticListINS_15RemotePublisherEEC2Ev
 2001              		.thumb
 2002              		.thumb_func
 2003              		.type	_ZN3r2p10StaticListINS_15RemotePublisherEEC2Ev, %function
 2004              	_ZN3r2p10StaticListINS_15RemotePublisherEEC2Ev:
 2005              	.LFB734:
 2006              		.loc 13 506 0
 2007              		.cfi_startproc
 2008              		@ args = 0, pretend = 0, frame = 8
 2009              		@ frame_needed = 0, uses_anonymous_args = 0
 2010 0000 00B5     		push	{lr}
 2011              		.cfi_def_cfa_offset 4
 2012              		.cfi_offset 14, -4
 2013 0002 83B0     		sub	sp, sp, #12
 2014              		.cfi_def_cfa_offset 16
 2015 0004 0190     		str	r0, [sp, #4]
 2016              	.LBB22:
 2017              		.loc 13 506 0
 2018 0006 0198     		ldr	r0, [sp, #4]
 2019 0008 FFF7FEFF 		bl	_ZN3r2p10UncopyableC2Ev
 2020 000c 019B     		ldr	r3, [sp, #4]
 2021 000e 0022     		movs	r2, #0
 2022 0010 1A60     		str	r2, [r3]
 2023              	.LBE22:
 2024 0012 019B     		ldr	r3, [sp, #4]
 2025 0014 1846     		mov	r0, r3
 2026 0016 03B0     		add	sp, sp, #12
 2027              		.cfi_def_cfa_offset 4
 2028              		@ sp needed
 2029 0018 5DF804FB 		ldr	pc, [sp], #4
 2030              		.cfi_endproc
 2031              	.LFE734:
 2032              		.size	_ZN3r2p10StaticListINS_15RemotePublisherEEC2Ev, .-_ZN3r2p10StaticListINS_15RemotePublisherEE
 2033              		.weak	_ZN3r2p10StaticListINS_15RemotePublisherEEC1Ev
 2034              		.thumb_set _ZN3r2p10StaticListINS_15RemotePublisherEEC1Ev,_ZN3r2p10StaticListINS_15RemotePublisher
 2035              		.section	.text._ZN3r2p10StaticListINS_16RemoteSubscriberEEC2Ev,"axG",%progbits,_ZN3r2p10StaticList
 2036              		.align	2
 2037              		.weak	_ZN3r2p10StaticListINS_16RemoteSubscriberEEC2Ev
 2038              		.thumb
 2039              		.thumb_func
 2040              		.type	_ZN3r2p10StaticListINS_16RemoteSubscriberEEC2Ev, %function
 2041              	_ZN3r2p10StaticListINS_16RemoteSubscriberEEC2Ev:
 2042              	.LFB737:
 2043              		.loc 13 506 0
 2044              		.cfi_startproc
 2045              		@ args = 0, pretend = 0, frame = 8
 2046              		@ frame_needed = 0, uses_anonymous_args = 0
 2047 0000 00B5     		push	{lr}
 2048              		.cfi_def_cfa_offset 4
 2049              		.cfi_offset 14, -4
ARM GAS  /tmp/ccyYK6L9.s 			page 37


 2050 0002 83B0     		sub	sp, sp, #12
 2051              		.cfi_def_cfa_offset 16
 2052 0004 0190     		str	r0, [sp, #4]
 2053              	.LBB23:
 2054              		.loc 13 506 0
 2055 0006 0198     		ldr	r0, [sp, #4]
 2056 0008 FFF7FEFF 		bl	_ZN3r2p10UncopyableC2Ev
 2057 000c 019B     		ldr	r3, [sp, #4]
 2058 000e 0022     		movs	r2, #0
 2059 0010 1A60     		str	r2, [r3]
 2060              	.LBE23:
 2061 0012 019B     		ldr	r3, [sp, #4]
 2062 0014 1846     		mov	r0, r3
 2063 0016 03B0     		add	sp, sp, #12
 2064              		.cfi_def_cfa_offset 4
 2065              		@ sp needed
 2066 0018 5DF804FB 		ldr	pc, [sp], #4
 2067              		.cfi_endproc
 2068              	.LFE737:
 2069              		.size	_ZN3r2p10StaticListINS_16RemoteSubscriberEEC2Ev, .-_ZN3r2p10StaticListINS_16RemoteSubscriber
 2070              		.weak	_ZN3r2p10StaticListINS_16RemoteSubscriberEEC1Ev
 2071              		.thumb_set _ZN3r2p10StaticListINS_16RemoteSubscriberEEC1Ev,_ZN3r2p10StaticListINS_16RemoteSubscrib
 2072              		.section	.text._ZN3r2p10StaticListINS_9TransportEE4LinkC2ERS1_,"axG",%progbits,_ZN3r2p10StaticList
 2073              		.align	2
 2074              		.weak	_ZN3r2p10StaticListINS_9TransportEE4LinkC2ERS1_
 2075              		.thumb
 2076              		.thumb_func
 2077              		.type	_ZN3r2p10StaticListINS_9TransportEE4LinkC2ERS1_, %function
 2078              	_ZN3r2p10StaticListINS_9TransportEE4LinkC2ERS1_:
 2079              	.LFB740:
 2080              		.loc 13 21 0
 2081              		.cfi_startproc
 2082              		@ args = 0, pretend = 0, frame = 8
 2083              		@ frame_needed = 0, uses_anonymous_args = 0
 2084              		@ link register save eliminated.
 2085 0000 82B0     		sub	sp, sp, #8
 2086              		.cfi_def_cfa_offset 8
 2087 0002 0190     		str	r0, [sp, #4]
 2088 0004 0091     		str	r1, [sp]
 2089              	.LBB24:
 2090              		.loc 13 21 0
 2091 0006 019B     		ldr	r3, [sp, #4]
 2092 0008 0022     		movs	r2, #0
 2093 000a 1A60     		str	r2, [r3]
 2094 000c 019B     		ldr	r3, [sp, #4]
 2095 000e 009A     		ldr	r2, [sp]
 2096 0010 5A60     		str	r2, [r3, #4]
 2097              	.LBE24:
 2098 0012 019B     		ldr	r3, [sp, #4]
 2099 0014 1846     		mov	r0, r3
 2100 0016 02B0     		add	sp, sp, #8
 2101              		.cfi_def_cfa_offset 0
 2102              		@ sp needed
 2103 0018 7047     		bx	lr
 2104              		.cfi_endproc
 2105              	.LFE740:
 2106              		.size	_ZN3r2p10StaticListINS_9TransportEE4LinkC2ERS1_, .-_ZN3r2p10StaticListINS_9TransportEE4LinkC
ARM GAS  /tmp/ccyYK6L9.s 			page 38


 2107              		.weak	_ZN3r2p10StaticListINS_9TransportEE4LinkC1ERS1_
 2108              		.thumb_set _ZN3r2p10StaticListINS_9TransportEE4LinkC1ERS1_,_ZN3r2p10StaticListINS_9TransportEE4Lin
 2109 001a 00BF     		.section	.text._ZNK3r2p10StaticListINS_15RemotePublisherEE10find_firstEPFbRKS1_PKvES6_,"axG",%prog
 2110              		.align	2
 2111              		.weak	_ZNK3r2p10StaticListINS_15RemotePublisherEE10find_firstEPFbRKS1_PKvES6_
 2112              		.thumb
 2113              		.thumb_func
 2114              		.type	_ZNK3r2p10StaticListINS_15RemotePublisherEE10find_firstEPFbRKS1_PKvES6_, %function
 2115              	_ZNK3r2p10StaticListINS_15RemotePublisherEE10find_firstEPFbRKS1_PKvES6_:
 2116              	.LFB742:
 2117              		.loc 13 700 0
 2118              		.cfi_startproc
 2119              		@ args = 0, pretend = 0, frame = 24
 2120              		@ frame_needed = 0, uses_anonymous_args = 0
 2121 0000 00B5     		push	{lr}
 2122              		.cfi_def_cfa_offset 4
 2123              		.cfi_offset 14, -4
 2124 0002 87B0     		sub	sp, sp, #28
 2125              		.cfi_def_cfa_offset 32
 2126 0004 0390     		str	r0, [sp, #12]
 2127 0006 0291     		str	r1, [sp, #8]
 2128 0008 0192     		str	r2, [sp, #4]
 2129              	.LBB25:
 2130              		.loc 13 703 0
 2131 000a 019B     		ldr	r3, [sp, #4]
 2132 000c 002B     		cmp	r3, #0
 2133 000e 02D1     		bne	.L138
 2134              		.loc 13 703 0 is_stmt 0 discriminator 1
 2135 0010 1248     		ldr	r0, .L143
 2136 0012 FFF7FEFF 		bl	chDbgPanic
 2137              	.L138:
 2138              		.loc 13 705 0 is_stmt 1
 2139 0016 FFF7FEFF 		bl	_ZN3r2p7SysLock7acquireEv
 2140              	.LBB26:
 2141              		.loc 13 706 0
 2142 001a 039B     		ldr	r3, [sp, #12]
 2143 001c 1B68     		ldr	r3, [r3]
 2144 001e 0593     		str	r3, [sp, #20]
 2145 0020 12E0     		b	.L139
 2146              	.L142:
 2147              		.loc 13 707 0
 2148 0022 FFF7FEFF 		bl	_ZN3r2p7SysLock7releaseEv
 2149              		.loc 13 708 0
 2150 0026 059B     		ldr	r3, [sp, #20]
 2151 0028 5A68     		ldr	r2, [r3, #4]
 2152 002a 029B     		ldr	r3, [sp, #8]
 2153 002c 1046     		mov	r0, r2
 2154 002e 0199     		ldr	r1, [sp, #4]
 2155 0030 9847     		blx	r3
 2156 0032 0346     		mov	r3, r0
 2157 0034 002B     		cmp	r3, #0
 2158 0036 02D0     		beq	.L140
 2159              		.loc 13 709 0
 2160 0038 059B     		ldr	r3, [sp, #20]
 2161 003a 5B68     		ldr	r3, [r3, #4]
 2162 003c 0AE0     		b	.L141
 2163              	.L140:
ARM GAS  /tmp/ccyYK6L9.s 			page 39


 2164              		.loc 13 711 0 discriminator 2
 2165 003e FFF7FEFF 		bl	_ZN3r2p7SysLock7acquireEv
 2166              		.loc 13 706 0 discriminator 2
 2167 0042 059B     		ldr	r3, [sp, #20]
 2168 0044 1B68     		ldr	r3, [r3]
 2169 0046 0593     		str	r3, [sp, #20]
 2170              	.L139:
 2171              		.loc 13 706 0 is_stmt 0 discriminator 1
 2172 0048 059B     		ldr	r3, [sp, #20]
 2173 004a 002B     		cmp	r3, #0
 2174 004c E9D1     		bne	.L142
 2175              	.LBE26:
 2176              		.loc 13 713 0 is_stmt 1
 2177 004e FFF7FEFF 		bl	_ZN3r2p7SysLock7releaseEv
 2178              		.loc 13 714 0
 2179 0052 0023     		movs	r3, #0
 2180              	.L141:
 2181              	.LBE25:
 2182              		.loc 13 715 0
 2183 0054 1846     		mov	r0, r3
 2184 0056 07B0     		add	sp, sp, #28
 2185              		.cfi_def_cfa_offset 4
 2186              		@ sp needed
 2187 0058 5DF804FB 		ldr	pc, [sp], #4
 2188              	.L144:
 2189              		.align	2
 2190              	.L143:
 2191 005c 00000000 		.word	.LC0
 2192              		.cfi_endproc
 2193              	.LFE742:
 2194              		.size	_ZNK3r2p10StaticListINS_15RemotePublisherEE10find_firstEPFbRKS1_PKvES6_, .-_ZNK3r2p10StaticL
 2195              		.section	.text._ZN3r2p10StaticListINS_15RemotePublisherEE16link_tail_unsafeERNS2_4LinkE,"axG",%pro
 2196              		.align	2
 2197              		.weak	_ZN3r2p10StaticListINS_15RemotePublisherEE16link_tail_unsafeERNS2_4LinkE
 2198              		.thumb
 2199              		.thumb_func
 2200              		.type	_ZN3r2p10StaticListINS_15RemotePublisherEE16link_tail_unsafeERNS2_4LinkE, %function
 2201              	_ZN3r2p10StaticListINS_15RemotePublisherEE16link_tail_unsafeERNS2_4LinkE:
 2202              	.LFB743:
 2203              		.loc 13 415 0
 2204              		.cfi_startproc
 2205              		@ args = 0, pretend = 0, frame = 16
 2206              		@ frame_needed = 0, uses_anonymous_args = 0
 2207 0000 00B5     		push	{lr}
 2208              		.cfi_def_cfa_offset 4
 2209              		.cfi_offset 14, -4
 2210 0002 85B0     		sub	sp, sp, #20
 2211              		.cfi_def_cfa_offset 24
 2212 0004 0190     		str	r0, [sp, #4]
 2213 0006 0091     		str	r1, [sp]
 2214              	.LBB27:
 2215              		.loc 13 416 0
 2216 0008 019B     		ldr	r3, [sp, #4]
 2217 000a 1B68     		ldr	r3, [r3]
 2218 000c 0393     		str	r3, [sp, #12]
 2219              		.loc 13 418 0
 2220 000e 009B     		ldr	r3, [sp]
ARM GAS  /tmp/ccyYK6L9.s 			page 40


 2221 0010 1B68     		ldr	r3, [r3]
 2222 0012 002B     		cmp	r3, #0
 2223 0014 02D0     		beq	.L146
 2224              		.loc 13 418 0 is_stmt 0 discriminator 1
 2225 0016 1248     		ldr	r0, .L152
 2226 0018 FFF7FEFF 		bl	chDbgPanic
 2227              	.L146:
 2228              		.loc 13 419 0 is_stmt 1
 2229 001c 0198     		ldr	r0, [sp, #4]
 2230 001e 0099     		ldr	r1, [sp]
 2231 0020 FFF7FEFF 		bl	_ZN3r2p10StaticListINS_15RemotePublisherEE13unlink_unsafeERNS2_4LinkE
 2232 0024 0346     		mov	r3, r0
 2233 0026 002B     		cmp	r3, #0
 2234 0028 02D0     		beq	.L147
 2235              		.loc 13 419 0 is_stmt 0 discriminator 1
 2236 002a 0D48     		ldr	r0, .L152
 2237 002c FFF7FEFF 		bl	chDbgPanic
 2238              	.L147:
 2239              		.loc 13 421 0 is_stmt 1
 2240 0030 0198     		ldr	r0, [sp, #4]
 2241 0032 FFF7FEFF 		bl	_ZNK3r2p10StaticListINS_15RemotePublisherEE15is_empty_unsafeEv
 2242 0036 0346     		mov	r3, r0
 2243 0038 002B     		cmp	r3, #0
 2244 003a 03D0     		beq	.L148
 2245              		.loc 13 422 0
 2246 003c 019B     		ldr	r3, [sp, #4]
 2247 003e 009A     		ldr	r2, [sp]
 2248 0040 1A60     		str	r2, [r3]
 2249 0042 0AE0     		b	.L145
 2250              	.L148:
 2251              		.loc 13 424 0
 2252 0044 02E0     		b	.L150
 2253              	.L151:
 2254              		.loc 13 424 0 is_stmt 0 discriminator 2
 2255 0046 039B     		ldr	r3, [sp, #12]
 2256 0048 1B68     		ldr	r3, [r3]
 2257 004a 0393     		str	r3, [sp, #12]
 2258              	.L150:
 2259              		.loc 13 424 0 discriminator 1
 2260 004c 039B     		ldr	r3, [sp, #12]
 2261 004e 1B68     		ldr	r3, [r3]
 2262 0050 002B     		cmp	r3, #0
 2263 0052 F8D1     		bne	.L151
 2264              		.loc 13 425 0 is_stmt 1
 2265 0054 039B     		ldr	r3, [sp, #12]
 2266 0056 009A     		ldr	r2, [sp]
 2267 0058 1A60     		str	r2, [r3]
 2268              	.L145:
 2269              	.LBE27:
 2270              		.loc 13 427 0
 2271 005a 05B0     		add	sp, sp, #20
 2272              		.cfi_def_cfa_offset 4
 2273              		@ sp needed
 2274 005c 5DF804FB 		ldr	pc, [sp], #4
 2275              	.L153:
 2276              		.align	2
 2277              	.L152:
ARM GAS  /tmp/ccyYK6L9.s 			page 41


 2278 0060 00000000 		.word	.LC0
 2279              		.cfi_endproc
 2280              	.LFE743:
 2281              		.size	_ZN3r2p10StaticListINS_15RemotePublisherEE16link_tail_unsafeERNS2_4LinkE, .-_ZN3r2p10StaticL
 2282              		.section	.text._ZNK3r2p10StaticListINS_16RemoteSubscriberEE10find_firstEPFbRKS1_PKvES6_,"axG",%pro
 2283              		.align	2
 2284              		.weak	_ZNK3r2p10StaticListINS_16RemoteSubscriberEE10find_firstEPFbRKS1_PKvES6_
 2285              		.thumb
 2286              		.thumb_func
 2287              		.type	_ZNK3r2p10StaticListINS_16RemoteSubscriberEE10find_firstEPFbRKS1_PKvES6_, %function
 2288              	_ZNK3r2p10StaticListINS_16RemoteSubscriberEE10find_firstEPFbRKS1_PKvES6_:
 2289              	.LFB744:
 2290              		.loc 13 700 0
 2291              		.cfi_startproc
 2292              		@ args = 0, pretend = 0, frame = 24
 2293              		@ frame_needed = 0, uses_anonymous_args = 0
 2294 0000 00B5     		push	{lr}
 2295              		.cfi_def_cfa_offset 4
 2296              		.cfi_offset 14, -4
 2297 0002 87B0     		sub	sp, sp, #28
 2298              		.cfi_def_cfa_offset 32
 2299 0004 0390     		str	r0, [sp, #12]
 2300 0006 0291     		str	r1, [sp, #8]
 2301 0008 0192     		str	r2, [sp, #4]
 2302              	.LBB28:
 2303              		.loc 13 703 0
 2304 000a 019B     		ldr	r3, [sp, #4]
 2305 000c 002B     		cmp	r3, #0
 2306 000e 02D1     		bne	.L155
 2307              		.loc 13 703 0 is_stmt 0 discriminator 1
 2308 0010 1248     		ldr	r0, .L160
 2309 0012 FFF7FEFF 		bl	chDbgPanic
 2310              	.L155:
 2311              		.loc 13 705 0 is_stmt 1
 2312 0016 FFF7FEFF 		bl	_ZN3r2p7SysLock7acquireEv
 2313              	.LBB29:
 2314              		.loc 13 706 0
 2315 001a 039B     		ldr	r3, [sp, #12]
 2316 001c 1B68     		ldr	r3, [r3]
 2317 001e 0593     		str	r3, [sp, #20]
 2318 0020 12E0     		b	.L156
 2319              	.L159:
 2320              		.loc 13 707 0
 2321 0022 FFF7FEFF 		bl	_ZN3r2p7SysLock7releaseEv
 2322              		.loc 13 708 0
 2323 0026 059B     		ldr	r3, [sp, #20]
 2324 0028 5A68     		ldr	r2, [r3, #4]
 2325 002a 029B     		ldr	r3, [sp, #8]
 2326 002c 1046     		mov	r0, r2
 2327 002e 0199     		ldr	r1, [sp, #4]
 2328 0030 9847     		blx	r3
 2329 0032 0346     		mov	r3, r0
 2330 0034 002B     		cmp	r3, #0
 2331 0036 02D0     		beq	.L157
 2332              		.loc 13 709 0
 2333 0038 059B     		ldr	r3, [sp, #20]
 2334 003a 5B68     		ldr	r3, [r3, #4]
ARM GAS  /tmp/ccyYK6L9.s 			page 42


 2335 003c 0AE0     		b	.L158
 2336              	.L157:
 2337              		.loc 13 711 0 discriminator 2
 2338 003e FFF7FEFF 		bl	_ZN3r2p7SysLock7acquireEv
 2339              		.loc 13 706 0 discriminator 2
 2340 0042 059B     		ldr	r3, [sp, #20]
 2341 0044 1B68     		ldr	r3, [r3]
 2342 0046 0593     		str	r3, [sp, #20]
 2343              	.L156:
 2344              		.loc 13 706 0 is_stmt 0 discriminator 1
 2345 0048 059B     		ldr	r3, [sp, #20]
 2346 004a 002B     		cmp	r3, #0
 2347 004c E9D1     		bne	.L159
 2348              	.LBE29:
 2349              		.loc 13 713 0 is_stmt 1
 2350 004e FFF7FEFF 		bl	_ZN3r2p7SysLock7releaseEv
 2351              		.loc 13 714 0
 2352 0052 0023     		movs	r3, #0
 2353              	.L158:
 2354              	.LBE28:
 2355              		.loc 13 715 0
 2356 0054 1846     		mov	r0, r3
 2357 0056 07B0     		add	sp, sp, #28
 2358              		.cfi_def_cfa_offset 4
 2359              		@ sp needed
 2360 0058 5DF804FB 		ldr	pc, [sp], #4
 2361              	.L161:
 2362              		.align	2
 2363              	.L160:
 2364 005c 00000000 		.word	.LC0
 2365              		.cfi_endproc
 2366              	.LFE744:
 2367              		.size	_ZNK3r2p10StaticListINS_16RemoteSubscriberEE10find_firstEPFbRKS1_PKvES6_, .-_ZNK3r2p10Static
 2368              		.section	.text._ZN3r2p10StaticListINS_16RemoteSubscriberEE16link_tail_unsafeERNS2_4LinkE,"axG",%pr
 2369              		.align	2
 2370              		.weak	_ZN3r2p10StaticListINS_16RemoteSubscriberEE16link_tail_unsafeERNS2_4LinkE
 2371              		.thumb
 2372              		.thumb_func
 2373              		.type	_ZN3r2p10StaticListINS_16RemoteSubscriberEE16link_tail_unsafeERNS2_4LinkE, %function
 2374              	_ZN3r2p10StaticListINS_16RemoteSubscriberEE16link_tail_unsafeERNS2_4LinkE:
 2375              	.LFB745:
 2376              		.loc 13 415 0
 2377              		.cfi_startproc
 2378              		@ args = 0, pretend = 0, frame = 16
 2379              		@ frame_needed = 0, uses_anonymous_args = 0
 2380 0000 00B5     		push	{lr}
 2381              		.cfi_def_cfa_offset 4
 2382              		.cfi_offset 14, -4
 2383 0002 85B0     		sub	sp, sp, #20
 2384              		.cfi_def_cfa_offset 24
 2385 0004 0190     		str	r0, [sp, #4]
 2386 0006 0091     		str	r1, [sp]
 2387              	.LBB30:
 2388              		.loc 13 416 0
 2389 0008 019B     		ldr	r3, [sp, #4]
 2390 000a 1B68     		ldr	r3, [r3]
 2391 000c 0393     		str	r3, [sp, #12]
ARM GAS  /tmp/ccyYK6L9.s 			page 43


 2392              		.loc 13 418 0
 2393 000e 009B     		ldr	r3, [sp]
 2394 0010 1B68     		ldr	r3, [r3]
 2395 0012 002B     		cmp	r3, #0
 2396 0014 02D0     		beq	.L163
 2397              		.loc 13 418 0 is_stmt 0 discriminator 1
 2398 0016 1248     		ldr	r0, .L169
 2399 0018 FFF7FEFF 		bl	chDbgPanic
 2400              	.L163:
 2401              		.loc 13 419 0 is_stmt 1
 2402 001c 0198     		ldr	r0, [sp, #4]
 2403 001e 0099     		ldr	r1, [sp]
 2404 0020 FFF7FEFF 		bl	_ZN3r2p10StaticListINS_16RemoteSubscriberEE13unlink_unsafeERNS2_4LinkE
 2405 0024 0346     		mov	r3, r0
 2406 0026 002B     		cmp	r3, #0
 2407 0028 02D0     		beq	.L164
 2408              		.loc 13 419 0 is_stmt 0 discriminator 1
 2409 002a 0D48     		ldr	r0, .L169
 2410 002c FFF7FEFF 		bl	chDbgPanic
 2411              	.L164:
 2412              		.loc 13 421 0 is_stmt 1
 2413 0030 0198     		ldr	r0, [sp, #4]
 2414 0032 FFF7FEFF 		bl	_ZNK3r2p10StaticListINS_16RemoteSubscriberEE15is_empty_unsafeEv
 2415 0036 0346     		mov	r3, r0
 2416 0038 002B     		cmp	r3, #0
 2417 003a 03D0     		beq	.L165
 2418              		.loc 13 422 0
 2419 003c 019B     		ldr	r3, [sp, #4]
 2420 003e 009A     		ldr	r2, [sp]
 2421 0040 1A60     		str	r2, [r3]
 2422 0042 0AE0     		b	.L162
 2423              	.L165:
 2424              		.loc 13 424 0
 2425 0044 02E0     		b	.L167
 2426              	.L168:
 2427              		.loc 13 424 0 is_stmt 0 discriminator 2
 2428 0046 039B     		ldr	r3, [sp, #12]
 2429 0048 1B68     		ldr	r3, [r3]
 2430 004a 0393     		str	r3, [sp, #12]
 2431              	.L167:
 2432              		.loc 13 424 0 discriminator 1
 2433 004c 039B     		ldr	r3, [sp, #12]
 2434 004e 1B68     		ldr	r3, [r3]
 2435 0050 002B     		cmp	r3, #0
 2436 0052 F8D1     		bne	.L168
 2437              		.loc 13 425 0 is_stmt 1
 2438 0054 039B     		ldr	r3, [sp, #12]
 2439 0056 009A     		ldr	r2, [sp]
 2440 0058 1A60     		str	r2, [r3]
 2441              	.L162:
 2442              	.LBE30:
 2443              		.loc 13 427 0
 2444 005a 05B0     		add	sp, sp, #20
 2445              		.cfi_def_cfa_offset 4
 2446              		@ sp needed
 2447 005c 5DF804FB 		ldr	pc, [sp], #4
 2448              	.L170:
ARM GAS  /tmp/ccyYK6L9.s 			page 44


 2449              		.align	2
 2450              	.L169:
 2451 0060 00000000 		.word	.LC0
 2452              		.cfi_endproc
 2453              	.LFE745:
 2454              		.size	_ZN3r2p10StaticListINS_16RemoteSubscriberEE16link_tail_unsafeERNS2_4LinkE, .-_ZN3r2p10Static
 2455              		.section	.text._ZN3r2p10StaticListINS_15RemotePublisherEE13unlink_unsafeERNS2_4LinkE,"axG",%progbi
 2456              		.align	2
 2457              		.weak	_ZN3r2p10StaticListINS_15RemotePublisherEE13unlink_unsafeERNS2_4LinkE
 2458              		.thumb
 2459              		.thumb_func
 2460              		.type	_ZN3r2p10StaticListINS_15RemotePublisherEE13unlink_unsafeERNS2_4LinkE, %function
 2461              	_ZN3r2p10StaticListINS_15RemotePublisherEE13unlink_unsafeERNS2_4LinkE:
 2462              	.LFB746:
 2463              		.loc 13 526 0
 2464              		.cfi_startproc
 2465              		@ args = 0, pretend = 0, frame = 16
 2466              		@ frame_needed = 0, uses_anonymous_args = 0
 2467              		@ link register save eliminated.
 2468 0000 84B0     		sub	sp, sp, #16
 2469              		.cfi_def_cfa_offset 16
 2470 0002 0190     		str	r0, [sp, #4]
 2471 0004 0091     		str	r1, [sp]
 2472              	.LBB31:
 2473              	.LBB32:
 2474              		.loc 13 528 0
 2475 0006 019B     		ldr	r3, [sp, #4]
 2476 0008 1B68     		ldr	r3, [r3]
 2477 000a 0393     		str	r3, [sp, #12]
 2478 000c 0023     		movs	r3, #0
 2479 000e 0293     		str	r3, [sp, #8]
 2480 0010 19E0     		b	.L172
 2481              	.L177:
 2482              		.loc 13 531 0
 2483 0012 039A     		ldr	r2, [sp, #12]
 2484 0014 009B     		ldr	r3, [sp]
 2485 0016 9A42     		cmp	r2, r3
 2486 0018 10D1     		bne	.L173
 2487              		.loc 13 532 0
 2488 001a 029B     		ldr	r3, [sp, #8]
 2489 001c 002B     		cmp	r3, #0
 2490 001e 04D0     		beq	.L174
 2491              		.loc 13 532 0 is_stmt 0 discriminator 1
 2492 0020 039B     		ldr	r3, [sp, #12]
 2493 0022 1A68     		ldr	r2, [r3]
 2494 0024 029B     		ldr	r3, [sp, #8]
 2495 0026 1A60     		str	r2, [r3]
 2496 0028 03E0     		b	.L175
 2497              	.L174:
 2498              		.loc 13 533 0 is_stmt 1
 2499 002a 039B     		ldr	r3, [sp, #12]
 2500 002c 1A68     		ldr	r2, [r3]
 2501 002e 019B     		ldr	r3, [sp, #4]
 2502 0030 1A60     		str	r2, [r3]
 2503              	.L175:
 2504              		.loc 13 534 0
 2505 0032 039B     		ldr	r3, [sp, #12]
ARM GAS  /tmp/ccyYK6L9.s 			page 45


 2506 0034 0022     		movs	r2, #0
 2507 0036 1A60     		str	r2, [r3]
 2508              		.loc 13 535 0
 2509 0038 0123     		movs	r3, #1
 2510 003a 08E0     		b	.L176
 2511              	.L173:
 2512              		.loc 13 528 0 discriminator 2
 2513 003c 039B     		ldr	r3, [sp, #12]
 2514 003e 0293     		str	r3, [sp, #8]
 2515 0040 039B     		ldr	r3, [sp, #12]
 2516 0042 1B68     		ldr	r3, [r3]
 2517 0044 0393     		str	r3, [sp, #12]
 2518              	.L172:
 2519              		.loc 13 528 0 is_stmt 0 discriminator 1
 2520 0046 039B     		ldr	r3, [sp, #12]
 2521 0048 002B     		cmp	r3, #0
 2522 004a E2D1     		bne	.L177
 2523              	.LBE32:
 2524              		.loc 13 538 0 is_stmt 1
 2525 004c 0023     		movs	r3, #0
 2526              	.L176:
 2527              	.LBE31:
 2528              		.loc 13 539 0
 2529 004e 1846     		mov	r0, r3
 2530 0050 04B0     		add	sp, sp, #16
 2531              		.cfi_def_cfa_offset 0
 2532              		@ sp needed
 2533 0052 7047     		bx	lr
 2534              		.cfi_endproc
 2535              	.LFE746:
 2536              		.size	_ZN3r2p10StaticListINS_15RemotePublisherEE13unlink_unsafeERNS2_4LinkE, .-_ZN3r2p10StaticList
 2537              		.section	.text._ZNK3r2p10StaticListINS_15RemotePublisherEE15is_empty_unsafeEv,"axG",%progbits,_ZNK
 2538              		.align	2
 2539              		.weak	_ZNK3r2p10StaticListINS_15RemotePublisherEE15is_empty_unsafeEv
 2540              		.thumb
 2541              		.thumb_func
 2542              		.type	_ZNK3r2p10StaticListINS_15RemotePublisherEE15is_empty_unsafeEv, %function
 2543              	_ZNK3r2p10StaticListINS_15RemotePublisherEE15is_empty_unsafeEv:
 2544              	.LFB747:
 2545              		.loc 13 401 0
 2546              		.cfi_startproc
 2547              		@ args = 0, pretend = 0, frame = 8
 2548              		@ frame_needed = 0, uses_anonymous_args = 0
 2549              		@ link register save eliminated.
 2550 0000 82B0     		sub	sp, sp, #8
 2551              		.cfi_def_cfa_offset 8
 2552 0002 0190     		str	r0, [sp, #4]
 2553              		.loc 13 402 0
 2554 0004 019B     		ldr	r3, [sp, #4]
 2555 0006 1B68     		ldr	r3, [r3]
 2556 0008 002B     		cmp	r3, #0
 2557 000a 0CBF     		ite	eq
 2558 000c 0123     		moveq	r3, #1
 2559 000e 0023     		movne	r3, #0
 2560 0010 DBB2     		uxtb	r3, r3
 2561              		.loc 13 403 0
 2562 0012 1846     		mov	r0, r3
ARM GAS  /tmp/ccyYK6L9.s 			page 46


 2563 0014 02B0     		add	sp, sp, #8
 2564              		.cfi_def_cfa_offset 0
 2565              		@ sp needed
 2566 0016 7047     		bx	lr
 2567              		.cfi_endproc
 2568              	.LFE747:
 2569              		.size	_ZNK3r2p10StaticListINS_15RemotePublisherEE15is_empty_unsafeEv, .-_ZNK3r2p10StaticListINS_15
 2570              		.section	.text._ZN3r2p10StaticListINS_16RemoteSubscriberEE13unlink_unsafeERNS2_4LinkE,"axG",%progb
 2571              		.align	2
 2572              		.weak	_ZN3r2p10StaticListINS_16RemoteSubscriberEE13unlink_unsafeERNS2_4LinkE
 2573              		.thumb
 2574              		.thumb_func
 2575              		.type	_ZN3r2p10StaticListINS_16RemoteSubscriberEE13unlink_unsafeERNS2_4LinkE, %function
 2576              	_ZN3r2p10StaticListINS_16RemoteSubscriberEE13unlink_unsafeERNS2_4LinkE:
 2577              	.LFB748:
 2578              		.loc 13 526 0
 2579              		.cfi_startproc
 2580              		@ args = 0, pretend = 0, frame = 16
 2581              		@ frame_needed = 0, uses_anonymous_args = 0
 2582              		@ link register save eliminated.
 2583 0000 84B0     		sub	sp, sp, #16
 2584              		.cfi_def_cfa_offset 16
 2585 0002 0190     		str	r0, [sp, #4]
 2586 0004 0091     		str	r1, [sp]
 2587              	.LBB33:
 2588              	.LBB34:
 2589              		.loc 13 528 0
 2590 0006 019B     		ldr	r3, [sp, #4]
 2591 0008 1B68     		ldr	r3, [r3]
 2592 000a 0393     		str	r3, [sp, #12]
 2593 000c 0023     		movs	r3, #0
 2594 000e 0293     		str	r3, [sp, #8]
 2595 0010 19E0     		b	.L181
 2596              	.L186:
 2597              		.loc 13 531 0
 2598 0012 039A     		ldr	r2, [sp, #12]
 2599 0014 009B     		ldr	r3, [sp]
 2600 0016 9A42     		cmp	r2, r3
 2601 0018 10D1     		bne	.L182
 2602              		.loc 13 532 0
 2603 001a 029B     		ldr	r3, [sp, #8]
 2604 001c 002B     		cmp	r3, #0
 2605 001e 04D0     		beq	.L183
 2606              		.loc 13 532 0 is_stmt 0 discriminator 1
 2607 0020 039B     		ldr	r3, [sp, #12]
 2608 0022 1A68     		ldr	r2, [r3]
 2609 0024 029B     		ldr	r3, [sp, #8]
 2610 0026 1A60     		str	r2, [r3]
 2611 0028 03E0     		b	.L184
 2612              	.L183:
 2613              		.loc 13 533 0 is_stmt 1
 2614 002a 039B     		ldr	r3, [sp, #12]
 2615 002c 1A68     		ldr	r2, [r3]
 2616 002e 019B     		ldr	r3, [sp, #4]
 2617 0030 1A60     		str	r2, [r3]
 2618              	.L184:
 2619              		.loc 13 534 0
ARM GAS  /tmp/ccyYK6L9.s 			page 47


 2620 0032 039B     		ldr	r3, [sp, #12]
 2621 0034 0022     		movs	r2, #0
 2622 0036 1A60     		str	r2, [r3]
 2623              		.loc 13 535 0
 2624 0038 0123     		movs	r3, #1
 2625 003a 08E0     		b	.L185
 2626              	.L182:
 2627              		.loc 13 528 0 discriminator 2
 2628 003c 039B     		ldr	r3, [sp, #12]
 2629 003e 0293     		str	r3, [sp, #8]
 2630 0040 039B     		ldr	r3, [sp, #12]
 2631 0042 1B68     		ldr	r3, [r3]
 2632 0044 0393     		str	r3, [sp, #12]
 2633              	.L181:
 2634              		.loc 13 528 0 is_stmt 0 discriminator 1
 2635 0046 039B     		ldr	r3, [sp, #12]
 2636 0048 002B     		cmp	r3, #0
 2637 004a E2D1     		bne	.L186
 2638              	.LBE34:
 2639              		.loc 13 538 0 is_stmt 1
 2640 004c 0023     		movs	r3, #0
 2641              	.L185:
 2642              	.LBE33:
 2643              		.loc 13 539 0
 2644 004e 1846     		mov	r0, r3
 2645 0050 04B0     		add	sp, sp, #16
 2646              		.cfi_def_cfa_offset 0
 2647              		@ sp needed
 2648 0052 7047     		bx	lr
 2649              		.cfi_endproc
 2650              	.LFE748:
 2651              		.size	_ZN3r2p10StaticListINS_16RemoteSubscriberEE13unlink_unsafeERNS2_4LinkE, .-_ZN3r2p10StaticLis
 2652              		.global	_ZTVN3r2p9TransportE
 2653              		.section	.rodata
 2654 000d 000000   		.align	3
 2655              		.type	_ZTVN3r2p9TransportE, %object
 2656              		.size	_ZTVN3r2p9TransportE, 28
 2657              	_ZTVN3r2p9TransportE:
 2658 0010 00000000 		.word	0
 2659 0014 00000000 		.word	0
 2660 0018 00000000 		.word	_ZN3r2p9Transport15fill_raw_paramsERKNS_5TopicEPh
 2661 001c 00000000 		.word	__cxa_pure_virtual
 2662 0020 00000000 		.word	__cxa_pure_virtual
 2663 0024 00000000 		.word	__cxa_pure_virtual
 2664 0028 00000000 		.word	__cxa_pure_virtual
 2665 002c 00000000 		.text
 2666              	.Letext0:
 2667              		.file 15 "/opt/R2P/tools/gcc-arm-none-eabi-4_9-2014q4/lib/gcc/arm-none-eabi/4.9.3/include/stddef.h
 2668              		.file 16 "/opt/R2P/tools/gcc-arm-none-eabi-4_9-2014q4/arm-none-eabi/include/machine/_default_types
 2669              		.file 17 "/opt/R2P/tools/gcc-arm-none-eabi-4_9-2014q4/arm-none-eabi/include/c++/4.9.3/cstring"
 2670              		.file 18 "/opt/R2P/tools/gcc-arm-none-eabi-4_9-2014q4/arm-none-eabi/include/string.h"
 2671              		.file 19 "<built-in>"
 2672              		.file 20 "/opt/R2P/core/Middleware/include/r2p/Message.hpp"
 2673              		.file 21 "/opt/R2P/core/Middleware/include/r2p/ArrayQueue.hpp"
 2674              		.file 22 "/opt/R2P/core/Middleware/include/r2p/Transport.hpp"
 2675              		.file 23 "/opt/R2P/tools/gcc-arm-none-eabi-4_9-2014q4/arm-none-eabi/include/stdint.h"
 2676              		.file 24 "/opt/R2P/core/ChibiOS_2.6.5/os/ports/GCC/ARMCMx/chtypes.h"
ARM GAS  /tmp/ccyYK6L9.s 			page 48


 2677              		.file 25 "/opt/R2P/core/ChibiOS_2.6.5/os/kernel/include/chlists.h"
 2678              		.file 26 "/opt/R2P/core/ChibiOS_2.6.5/os/kernel/include/chthreads.h"
 2679              		.file 27 "/opt/R2P/core/ChibiOS_2.6.5/os/ports/GCC/ARMCMx/chcore_v7m.h"
 2680              		.file 28 "/opt/R2P/core/ChibiOS_2.6.5/os/kernel/include/chschd.h"
 2681              		.file 29 "/opt/R2P/core/ChibiOS_2.6.5/os/kernel/include/chmtx.h"
 2682              		.file 30 "/opt/R2P/core/ChibiOS_2.6.5/os/kernel/include/chmemcore.h"
 2683              		.file 31 "/opt/R2P/core/ChibiOS_2.6.5/os/kernel/include/chmempools.h"
 2684              		.file 32 "/opt/R2P/core/Middleware/port/chibios/include/r2p/impl/Flasher_.hpp"
 2685              		.file 33 "/opt/R2P/core/ChibiOS_2.6.5/os/ports/common/ARMCMx/CMSIS/include/core_cm4.h"
 2686              		.section	.debug_info,"",%progbits
 2687              	.Ldebug_info0:
 2688 0000 5E470000 		.4byte	0x475e
 2689 0004 0400     		.2byte	0x4
 2690 0006 00000000 		.4byte	.Ldebug_abbrev0
 2691 000a 04       		.byte	0x4
 2692 000b 01       		.uleb128 0x1
 2693 000c B7090000 		.4byte	.LASF593
 2694 0010 04       		.byte	0x4
 2695 0011 56440000 		.4byte	.LASF594
 2696 0015 A0290000 		.4byte	.LASF595
 2697 0019 00000000 		.4byte	.Ldebug_ranges0+0
 2698 001d 00000000 		.4byte	0
 2699 0021 00000000 		.4byte	.Ldebug_line0
 2700 0025 02       		.uleb128 0x2
 2701 0026 04       		.byte	0x4
 2702 0027 05       		.byte	0x5
 2703 0028 696E7400 		.ascii	"int\000"
 2704 002c 03       		.uleb128 0x3
 2705 002d 9D180000 		.4byte	.LASF2
 2706 0031 0F       		.byte	0xf
 2707 0032 D4       		.byte	0xd4
 2708 0033 37000000 		.4byte	0x37
 2709 0037 04       		.uleb128 0x4
 2710 0038 04       		.byte	0x4
 2711 0039 07       		.byte	0x7
 2712 003a C4490000 		.4byte	.LASF0
 2713 003e 04       		.uleb128 0x4
 2714 003f 01       		.byte	0x1
 2715 0040 06       		.byte	0x6
 2716 0041 7E260000 		.4byte	.LASF1
 2717 0045 03       		.uleb128 0x3
 2718 0046 50020000 		.4byte	.LASF3
 2719 004a 10       		.byte	0x10
 2720 004b 1D       		.byte	0x1d
 2721 004c 50000000 		.4byte	0x50
 2722 0050 04       		.uleb128 0x4
 2723 0051 01       		.byte	0x1
 2724 0052 08       		.byte	0x8
 2725 0053 6E110000 		.4byte	.LASF4
 2726 0057 04       		.uleb128 0x4
 2727 0058 02       		.byte	0x2
 2728 0059 05       		.byte	0x5
 2729 005a 654A0000 		.4byte	.LASF5
 2730 005e 03       		.uleb128 0x3
 2731 005f 810F0000 		.4byte	.LASF6
 2732 0063 10       		.byte	0x10
 2733 0064 2B       		.byte	0x2b
ARM GAS  /tmp/ccyYK6L9.s 			page 49


 2734 0065 69000000 		.4byte	0x69
 2735 0069 04       		.uleb128 0x4
 2736 006a 02       		.byte	0x2
 2737 006b 07       		.byte	0x7
 2738 006c 6B260000 		.4byte	.LASF7
 2739 0070 03       		.uleb128 0x3
 2740 0071 733A0000 		.4byte	.LASF8
 2741 0075 10       		.byte	0x10
 2742 0076 3F       		.byte	0x3f
 2743 0077 7B000000 		.4byte	0x7b
 2744 007b 04       		.uleb128 0x4
 2745 007c 04       		.byte	0x4
 2746 007d 05       		.byte	0x5
 2747 007e BF2C0000 		.4byte	.LASF9
 2748 0082 03       		.uleb128 0x3
 2749 0083 B83A0000 		.4byte	.LASF10
 2750 0087 10       		.byte	0x10
 2751 0088 41       		.byte	0x41
 2752 0089 8D000000 		.4byte	0x8d
 2753 008d 04       		.uleb128 0x4
 2754 008e 04       		.byte	0x4
 2755 008f 07       		.byte	0x7
 2756 0090 DD300000 		.4byte	.LASF11
 2757 0094 04       		.uleb128 0x4
 2758 0095 08       		.byte	0x8
 2759 0096 05       		.byte	0x5
 2760 0097 52450000 		.4byte	.LASF12
 2761 009b 03       		.uleb128 0x3
 2762 009c 7A1D0000 		.4byte	.LASF13
 2763 00a0 10       		.byte	0x10
 2764 00a1 5B       		.byte	0x5b
 2765 00a2 A6000000 		.4byte	0xa6
 2766 00a6 04       		.uleb128 0x4
 2767 00a7 08       		.byte	0x8
 2768 00a8 07       		.byte	0x7
 2769 00a9 AE3E0000 		.4byte	.LASF14
 2770 00ad 04       		.uleb128 0x4
 2771 00ae 04       		.byte	0x4
 2772 00af 07       		.byte	0x7
 2773 00b0 58250000 		.4byte	.LASF15
 2774 00b4 05       		.uleb128 0x5
 2775 00b5 04       		.byte	0x4
 2776 00b6 06       		.uleb128 0x6
 2777 00b7 04       		.byte	0x4
 2778 00b8 BC000000 		.4byte	0xbc
 2779 00bc 04       		.uleb128 0x4
 2780 00bd 01       		.byte	0x1
 2781 00be 08       		.byte	0x8
 2782 00bf E4310000 		.4byte	.LASF16
 2783 00c3 06       		.uleb128 0x6
 2784 00c4 04       		.byte	0x4
 2785 00c5 C9000000 		.4byte	0xc9
 2786 00c9 07       		.uleb128 0x7
 2787 00ca BC000000 		.4byte	0xbc
 2788 00ce 08       		.uleb128 0x8
 2789 00cf 73746400 		.ascii	"std\000"
 2790 00d3 13       		.byte	0x13
ARM GAS  /tmp/ccyYK6L9.s 			page 50


 2791 00d4 00       		.byte	0
 2792 00d5 F6000000 		.4byte	0xf6
 2793 00d9 09       		.uleb128 0x9
 2794 00da 11       		.byte	0x11
 2795 00db 52       		.byte	0x52
 2796 00dc F6000000 		.4byte	0xf6
 2797 00e0 09       		.uleb128 0x9
 2798 00e1 11       		.byte	0x11
 2799 00e2 55       		.byte	0x55
 2800 00e3 10010000 		.4byte	0x110
 2801 00e7 09       		.uleb128 0x9
 2802 00e8 11       		.byte	0x11
 2803 00e9 5B       		.byte	0x5b
 2804 00ea 25010000 		.4byte	0x125
 2805 00ee 09       		.uleb128 0x9
 2806 00ef 11       		.byte	0x11
 2807 00f0 5C       		.byte	0x5c
 2808 00f1 3F010000 		.4byte	0x13f
 2809 00f5 00       		.byte	0
 2810 00f6 0A       		.uleb128 0xa
 2811 00f7 24080000 		.4byte	.LASF17
 2812 00fb 12       		.byte	0x12
 2813 00fc 1D       		.byte	0x1d
 2814 00fd 25000000 		.4byte	0x25
 2815 0101 10010000 		.4byte	0x110
 2816 0105 0B       		.uleb128 0xb
 2817 0106 C3000000 		.4byte	0xc3
 2818 010a 0B       		.uleb128 0xb
 2819 010b C3000000 		.4byte	0xc3
 2820 010f 00       		.byte	0
 2821 0110 0A       		.uleb128 0xa
 2822 0111 40200000 		.4byte	.LASF18
 2823 0115 12       		.byte	0x12
 2824 0116 20       		.byte	0x20
 2825 0117 B6000000 		.4byte	0xb6
 2826 011b 25010000 		.4byte	0x125
 2827 011f 0B       		.uleb128 0xb
 2828 0120 25000000 		.4byte	0x25
 2829 0124 00       		.byte	0
 2830 0125 0A       		.uleb128 0xa
 2831 0126 53300000 		.4byte	.LASF19
 2832 012a 12       		.byte	0x12
 2833 012b 2A       		.byte	0x2a
 2834 012c B6000000 		.4byte	0xb6
 2835 0130 3F010000 		.4byte	0x13f
 2836 0134 0B       		.uleb128 0xb
 2837 0135 B6000000 		.4byte	0xb6
 2838 0139 0B       		.uleb128 0xb
 2839 013a C3000000 		.4byte	0xc3
 2840 013e 00       		.byte	0
 2841 013f 0A       		.uleb128 0xa
 2842 0140 90200000 		.4byte	.LASF20
 2843 0144 12       		.byte	0x12
 2844 0145 2C       		.byte	0x2c
 2845 0146 2C000000 		.4byte	0x2c
 2846 014a 5E010000 		.4byte	0x15e
 2847 014e 0B       		.uleb128 0xb
ARM GAS  /tmp/ccyYK6L9.s 			page 51


 2848 014f B6000000 		.4byte	0xb6
 2849 0153 0B       		.uleb128 0xb
 2850 0154 C3000000 		.4byte	0xc3
 2851 0158 0B       		.uleb128 0xb
 2852 0159 2C000000 		.4byte	0x2c
 2853 015d 00       		.byte	0
 2854 015e 08       		.uleb128 0x8
 2855 015f 72327000 		.ascii	"r2p\000"
 2856 0163 01       		.byte	0x1
 2857 0164 03       		.byte	0x3
 2858 0165 DF300000 		.4byte	0x30df
 2859 0169 0C       		.uleb128 0xc
 2860 016a 45210000 		.4byte	.LASF21
 2861 016e 01       		.byte	0x1
 2862 016f 01       		.byte	0x1
 2863 0170 06       		.byte	0x6
 2864 0171 C9010000 		.4byte	0x1c9
 2865 0175 0D       		.uleb128 0xd
 2866 0176 45210000 		.4byte	.LASF21
 2867 017a 01       		.byte	0x1
 2868 017b 09       		.byte	0x9
 2869 017c DF300000 		.4byte	0x30df
 2870 0180 88010000 		.4byte	0x188
 2871 0184 93010000 		.4byte	0x193
 2872 0188 0E       		.uleb128 0xe
 2873 0189 DF300000 		.4byte	0x30df
 2874 018d 0B       		.uleb128 0xb
 2875 018e E5300000 		.4byte	0x30e5
 2876 0192 00       		.byte	0
 2877 0193 0F       		.uleb128 0xf
 2878 0194 45210000 		.4byte	.LASF21
 2879 0198 01       		.byte	0x1
 2880 0199 14       		.byte	0x14
 2881 019a DF300000 		.4byte	0x30df
 2882 019e 02       		.byte	0x2
 2883 019f A7010000 		.4byte	0x1a7
 2884 01a3 AD010000 		.4byte	0x1ad
 2885 01a7 0E       		.uleb128 0xe
 2886 01a8 DF300000 		.4byte	0x30df
 2887 01ac 00       		.byte	0
 2888 01ad 10       		.uleb128 0x10
 2889 01ae 174A0000 		.4byte	.LASF22
 2890 01b2 01       		.byte	0x1
 2891 01b3 15       		.byte	0x15
 2892 01b4 B4000000 		.4byte	0xb4
 2893 01b8 02       		.byte	0x2
 2894 01b9 BD010000 		.4byte	0x1bd
 2895 01bd 0E       		.uleb128 0xe
 2896 01be DF300000 		.4byte	0x30df
 2897 01c2 0E       		.uleb128 0xe
 2898 01c3 25000000 		.4byte	0x25
 2899 01c7 00       		.byte	0
 2900 01c8 00       		.byte	0
 2901 01c9 07       		.uleb128 0x7
 2902 01ca 69010000 		.4byte	0x169
 2903 01ce 0C       		.uleb128 0xc
 2904 01cf E9310000 		.4byte	.LASF23
ARM GAS  /tmp/ccyYK6L9.s 			page 52


 2905 01d3 01       		.byte	0x1
 2906 01d4 02       		.byte	0x2
 2907 01d5 09       		.byte	0x9
 2908 01d6 12020000 		.4byte	0x212
 2909 01da 11       		.uleb128 0x11
 2910 01db 69010000 		.4byte	0x169
 2911 01df 00       		.byte	0
 2912 01e0 0D       		.uleb128 0xd
 2913 01e1 E9310000 		.4byte	.LASF23
 2914 01e5 02       		.byte	0x2
 2915 01e6 0B       		.byte	0xb
 2916 01e7 05350000 		.4byte	0x3505
 2917 01eb F3010000 		.4byte	0x1f3
 2918 01ef F9010000 		.4byte	0x1f9
 2919 01f3 0E       		.uleb128 0xe
 2920 01f4 05350000 		.4byte	0x3505
 2921 01f8 00       		.byte	0
 2922 01f9 12       		.uleb128 0x12
 2923 01fa 39180000 		.4byte	.LASF24
 2924 01fe 02       		.byte	0x2
 2925 01ff 0E       		.byte	0xe
 2926 0200 3E0F0000 		.4byte	.LASF26
 2927 0204 01       		.byte	0x1
 2928 0205 12       		.uleb128 0x12
 2929 0206 30390000 		.4byte	.LASF25
 2930 020a 02       		.byte	0x2
 2931 020b 0F       		.byte	0xf
 2932 020c DD110000 		.4byte	.LASF27
 2933 0210 01       		.byte	0x1
 2934 0211 00       		.byte	0
 2935 0212 0C       		.uleb128 0xc
 2936 0213 933F0000 		.4byte	.LASF28
 2937 0217 01       		.byte	0x1
 2938 0218 03       		.byte	0x3
 2939 0219 09       		.byte	0x9
 2940 021a 56020000 		.4byte	0x256
 2941 021e 11       		.uleb128 0x11
 2942 021f 69010000 		.4byte	0x169
 2943 0223 00       		.byte	0
 2944 0224 0D       		.uleb128 0xd
 2945 0225 933F0000 		.4byte	.LASF28
 2946 0229 03       		.byte	0x3
 2947 022a 12       		.byte	0x12
 2948 022b 0B350000 		.4byte	0x350b
 2949 022f 37020000 		.4byte	0x237
 2950 0233 3D020000 		.4byte	0x23d
 2951 0237 0E       		.uleb128 0xe
 2952 0238 0B350000 		.4byte	0x350b
 2953 023c 00       		.byte	0
 2954 023d 12       		.uleb128 0x12
 2955 023e 39180000 		.4byte	.LASF24
 2956 0242 03       		.byte	0x3
 2957 0243 15       		.byte	0x15
 2958 0244 EA340000 		.4byte	.LASF29
 2959 0248 01       		.byte	0x1
 2960 0249 12       		.uleb128 0x12
 2961 024a 30390000 		.4byte	.LASF25
ARM GAS  /tmp/ccyYK6L9.s 			page 53


 2962 024e 03       		.byte	0x3
 2963 024f 16       		.byte	0x16
 2964 0250 023A0000 		.4byte	.LASF30
 2965 0254 01       		.byte	0x1
 2966 0255 00       		.byte	0
 2967 0256 0C       		.uleb128 0xc
 2968 0257 D0350000 		.4byte	.LASF31
 2969 025b 04       		.byte	0x4
 2970 025c 04       		.byte	0x4
 2971 025d 08       		.byte	0x8
 2972 025e DC040000 		.4byte	0x4dc
 2973 0262 13       		.uleb128 0x13
 2974 0263 C8170000 		.4byte	.LASF82
 2975 0267 04       		.byte	0x4
 2976 0268 0A       		.byte	0xa
 2977 0269 01310000 		.4byte	0x3101
 2978 026d 01       		.byte	0x1
 2979 026e 14       		.uleb128 0x14
 2980 026f 72617700 		.ascii	"raw\000"
 2981 0273 04       		.byte	0x4
 2982 0274 1B       		.byte	0x1b
 2983 0275 62020000 		.4byte	0x262
 2984 0279 00       		.byte	0
 2985 027a 01       		.byte	0x1
 2986 027b 15       		.uleb128 0x15
 2987 027c 30190000 		.4byte	.LASF32
 2988 0280 04       		.byte	0x4
 2989 0281 3B       		.byte	0x3b
 2990 0282 DC040000 		.4byte	0x4dc
 2991 0286 01       		.byte	0x1
 2992 0287 15       		.uleb128 0x15
 2993 0288 D9160000 		.4byte	.LASF33
 2994 028c 04       		.byte	0x4
 2995 028d 3C       		.byte	0x3c
 2996 028e DC040000 		.4byte	0x4dc
 2997 0292 01       		.byte	0x1
 2998 0293 15       		.uleb128 0x15
 2999 0294 B64A0000 		.4byte	.LASF34
 3000 0298 04       		.byte	0x4
 3001 0299 3D       		.byte	0x3d
 3002 029a DC040000 		.4byte	0x4dc
 3003 029e 01       		.byte	0x1
 3004 029f 16       		.uleb128 0x16
 3005 02a0 9C1C0000 		.4byte	.LASF35
 3006 02a4 04       		.byte	0x4
 3007 02a5 1E       		.byte	0x1e
 3008 02a6 3A480000 		.4byte	.LASF37
 3009 02aa 62020000 		.4byte	0x262
 3010 02ae 01       		.byte	0x1
 3011 02af B7020000 		.4byte	0x2b7
 3012 02b3 BD020000 		.4byte	0x2bd
 3013 02b7 0E       		.uleb128 0xe
 3014 02b8 18350000 		.4byte	0x3518
 3015 02bc 00       		.byte	0
 3016 02bd 16       		.uleb128 0x16
 3017 02be 75300000 		.4byte	.LASF36
 3018 02c2 04       		.byte	0x4
ARM GAS  /tmp/ccyYK6L9.s 			page 54


 3019 02c3 1F       		.byte	0x1f
 3020 02c4 67170000 		.4byte	.LASF38
 3021 02c8 62020000 		.4byte	0x262
 3022 02cc 01       		.byte	0x1
 3023 02cd D5020000 		.4byte	0x2d5
 3024 02d1 DB020000 		.4byte	0x2db
 3025 02d5 0E       		.uleb128 0xe
 3026 02d6 18350000 		.4byte	0x3518
 3027 02da 00       		.byte	0
 3028 02db 16       		.uleb128 0x16
 3029 02dc 16040000 		.4byte	.LASF39
 3030 02e0 04       		.byte	0x4
 3031 02e1 20       		.byte	0x20
 3032 02e2 AC430000 		.4byte	.LASF40
 3033 02e6 62020000 		.4byte	0x262
 3034 02ea 01       		.byte	0x1
 3035 02eb F3020000 		.4byte	0x2f3
 3036 02ef F9020000 		.4byte	0x2f9
 3037 02f3 0E       		.uleb128 0xe
 3038 02f4 18350000 		.4byte	0x3518
 3039 02f8 00       		.byte	0
 3040 02f9 16       		.uleb128 0x16
 3041 02fa 220E0000 		.4byte	.LASF41
 3042 02fe 04       		.byte	0x4
 3043 02ff 21       		.byte	0x21
 3044 0300 A62C0000 		.4byte	.LASF42
 3045 0304 62020000 		.4byte	0x262
 3046 0308 01       		.byte	0x1
 3047 0309 11030000 		.4byte	0x311
 3048 030d 17030000 		.4byte	0x317
 3049 0311 0E       		.uleb128 0xe
 3050 0312 18350000 		.4byte	0x3518
 3051 0316 00       		.byte	0
 3052 0317 16       		.uleb128 0x16
 3053 0318 38150000 		.4byte	.LASF43
 3054 031c 04       		.byte	0x4
 3055 031d 23       		.byte	0x23
 3056 031e 1E050000 		.4byte	.LASF44
 3057 0322 1E350000 		.4byte	0x351e
 3058 0326 01       		.byte	0x1
 3059 0327 2F030000 		.4byte	0x32f
 3060 032b 35030000 		.4byte	0x335
 3061 032f 0E       		.uleb128 0xe
 3062 0330 18350000 		.4byte	0x3518
 3063 0334 00       		.byte	0
 3064 0335 16       		.uleb128 0x16
 3065 0336 A00D0000 		.4byte	.LASF45
 3066 033a 04       		.byte	0x4
 3067 033b 24       		.byte	0x24
 3068 033c E70F0000 		.4byte	.LASF46
 3069 0340 1E350000 		.4byte	0x351e
 3070 0344 01       		.byte	0x1
 3071 0345 4D030000 		.4byte	0x34d
 3072 0349 53030000 		.4byte	0x353
 3073 034d 0E       		.uleb128 0xe
 3074 034e 18350000 		.4byte	0x3518
 3075 0352 00       		.byte	0
ARM GAS  /tmp/ccyYK6L9.s 			page 55


 3076 0353 16       		.uleb128 0x16
 3077 0354 69490000 		.4byte	.LASF47
 3078 0358 04       		.byte	0x4
 3079 0359 25       		.byte	0x25
 3080 035a B3410000 		.4byte	.LASF48
 3081 035e 1E350000 		.4byte	0x351e
 3082 0362 01       		.byte	0x1
 3083 0363 6B030000 		.4byte	0x36b
 3084 0367 71030000 		.4byte	0x371
 3085 036b 0E       		.uleb128 0xe
 3086 036c 18350000 		.4byte	0x3518
 3087 0370 00       		.byte	0
 3088 0371 16       		.uleb128 0x16
 3089 0372 54490000 		.4byte	.LASF49
 3090 0376 04       		.byte	0x4
 3091 0377 26       		.byte	0x26
 3092 0378 08140000 		.4byte	.LASF50
 3093 037c 1E350000 		.4byte	0x351e
 3094 0380 01       		.byte	0x1
 3095 0381 89030000 		.4byte	0x389
 3096 0385 8F030000 		.4byte	0x38f
 3097 0389 0E       		.uleb128 0xe
 3098 038a 18350000 		.4byte	0x3518
 3099 038e 00       		.byte	0
 3100 038f 16       		.uleb128 0x16
 3101 0390 770F0000 		.4byte	.LASF51
 3102 0394 04       		.byte	0x4
 3103 0395 28       		.byte	0x28
 3104 0396 BB2A0000 		.4byte	.LASF52
 3105 039a 25350000 		.4byte	0x3525
 3106 039e 01       		.byte	0x1
 3107 039f A7030000 		.4byte	0x3a7
 3108 03a3 B2030000 		.4byte	0x3b2
 3109 03a7 0E       		.uleb128 0xe
 3110 03a8 2B350000 		.4byte	0x352b
 3111 03ac 0B       		.uleb128 0xb
 3112 03ad 31350000 		.4byte	0x3531
 3113 03b1 00       		.byte	0
 3114 03b2 16       		.uleb128 0x16
 3115 03b3 14310000 		.4byte	.LASF53
 3116 03b7 04       		.byte	0x4
 3117 03b8 29       		.byte	0x29
 3118 03b9 D1410000 		.4byte	.LASF54
 3119 03bd 25350000 		.4byte	0x3525
 3120 03c1 01       		.byte	0x1
 3121 03c2 CA030000 		.4byte	0x3ca
 3122 03c6 D5030000 		.4byte	0x3d5
 3123 03ca 0E       		.uleb128 0xe
 3124 03cb 2B350000 		.4byte	0x352b
 3125 03cf 0B       		.uleb128 0xb
 3126 03d0 31350000 		.4byte	0x3531
 3127 03d4 00       		.byte	0
 3128 03d5 16       		.uleb128 0x16
 3129 03d6 48330000 		.4byte	.LASF55
 3130 03da 04       		.byte	0x4
 3131 03db 2A       		.byte	0x2a
 3132 03dc 430D0000 		.4byte	.LASF56
ARM GAS  /tmp/ccyYK6L9.s 			page 56


 3133 03e0 25350000 		.4byte	0x3525
 3134 03e4 01       		.byte	0x1
 3135 03e5 ED030000 		.4byte	0x3ed
 3136 03e9 F8030000 		.4byte	0x3f8
 3137 03ed 0E       		.uleb128 0xe
 3138 03ee 2B350000 		.4byte	0x352b
 3139 03f2 0B       		.uleb128 0xb
 3140 03f3 31350000 		.4byte	0x3531
 3141 03f7 00       		.byte	0
 3142 03f8 0F       		.uleb128 0xf
 3143 03f9 D0350000 		.4byte	.LASF31
 3144 03fd 04       		.byte	0x4
 3145 03fe 2D       		.byte	0x2d
 3146 03ff 2B350000 		.4byte	0x352b
 3147 0403 01       		.byte	0x1
 3148 0404 0C040000 		.4byte	0x40c
 3149 0408 12040000 		.4byte	0x412
 3150 040c 0E       		.uleb128 0xe
 3151 040d 2B350000 		.4byte	0x352b
 3152 0411 00       		.byte	0
 3153 0412 17       		.uleb128 0x17
 3154 0413 D0350000 		.4byte	.LASF31
 3155 0417 04       		.byte	0x4
 3156 0418 2F       		.byte	0x2f
 3157 0419 2B350000 		.4byte	0x352b
 3158 041d 01       		.byte	0x1
 3159 041e 26040000 		.4byte	0x426
 3160 0422 31040000 		.4byte	0x431
 3161 0426 0E       		.uleb128 0xe
 3162 0427 2B350000 		.4byte	0x352b
 3163 042b 0B       		.uleb128 0xb
 3164 042c 1E350000 		.4byte	0x351e
 3165 0430 00       		.byte	0
 3166 0431 0F       		.uleb128 0xf
 3167 0432 D0350000 		.4byte	.LASF31
 3168 0436 04       		.byte	0x4
 3169 0437 30       		.byte	0x30
 3170 0438 2B350000 		.4byte	0x352b
 3171 043c 01       		.byte	0x1
 3172 043d 45040000 		.4byte	0x445
 3173 0441 50040000 		.4byte	0x450
 3174 0445 0E       		.uleb128 0xe
 3175 0446 2B350000 		.4byte	0x352b
 3176 044a 0B       		.uleb128 0xb
 3177 044b 31350000 		.4byte	0x3531
 3178 044f 00       		.byte	0
 3179 0450 18       		.uleb128 0x18
 3180 0451 757300   		.ascii	"us\000"
 3181 0454 04       		.byte	0x4
 3182 0455 33       		.byte	0x33
 3183 0456 96250000 		.4byte	.LASF57
 3184 045a 56020000 		.4byte	0x256
 3185 045e 01       		.byte	0x1
 3186 045f 69040000 		.4byte	0x469
 3187 0463 0B       		.uleb128 0xb
 3188 0464 62020000 		.4byte	0x262
 3189 0468 00       		.byte	0
ARM GAS  /tmp/ccyYK6L9.s 			page 57


 3190 0469 18       		.uleb128 0x18
 3191 046a 6D7300   		.ascii	"ms\000"
 3192 046d 04       		.byte	0x4
 3193 046e 34       		.byte	0x34
 3194 046f B3310000 		.4byte	.LASF58
 3195 0473 56020000 		.4byte	0x256
 3196 0477 01       		.byte	0x1
 3197 0478 82040000 		.4byte	0x482
 3198 047c 0B       		.uleb128 0xb
 3199 047d 62020000 		.4byte	0x262
 3200 0481 00       		.byte	0
 3201 0482 18       		.uleb128 0x18
 3202 0483 7300     		.ascii	"s\000"
 3203 0485 04       		.byte	0x4
 3204 0486 35       		.byte	0x35
 3205 0487 1F390000 		.4byte	.LASF59
 3206 048b 56020000 		.4byte	0x256
 3207 048f 01       		.byte	0x1
 3208 0490 9A040000 		.4byte	0x49a
 3209 0494 0B       		.uleb128 0xb
 3210 0495 62020000 		.4byte	0x262
 3211 0499 00       		.byte	0
 3212 049a 18       		.uleb128 0x18
 3213 049b 6D00     		.ascii	"m\000"
 3214 049d 04       		.byte	0x4
 3215 049e 36       		.byte	0x36
 3216 049f 330E0000 		.4byte	.LASF60
 3217 04a3 56020000 		.4byte	0x256
 3218 04a7 01       		.byte	0x1
 3219 04a8 B2040000 		.4byte	0x4b2
 3220 04ac 0B       		.uleb128 0xb
 3221 04ad 62020000 		.4byte	0x262
 3222 04b1 00       		.byte	0
 3223 04b2 18       		.uleb128 0x18
 3224 04b3 687A00   		.ascii	"hz\000"
 3225 04b6 04       		.byte	0x4
 3226 04b7 37       		.byte	0x37
 3227 04b8 CF470000 		.4byte	.LASF61
 3228 04bc 56020000 		.4byte	0x256
 3229 04c0 01       		.byte	0x1
 3230 04c1 CB040000 		.4byte	0x4cb
 3231 04c5 0B       		.uleb128 0xb
 3232 04c6 1E350000 		.4byte	0x351e
 3233 04ca 00       		.byte	0
 3234 04cb 19       		.uleb128 0x19
 3235 04cc 6E6F7700 		.ascii	"now\000"
 3236 04d0 04       		.byte	0x4
 3237 04d1 38       		.byte	0x38
 3238 04d2 B3470000 		.4byte	.LASF596
 3239 04d6 56020000 		.4byte	0x256
 3240 04da 01       		.byte	0x1
 3241 04db 00       		.byte	0
 3242 04dc 07       		.uleb128 0x7
 3243 04dd 56020000 		.4byte	0x256
 3244 04e1 0C       		.uleb128 0xc
 3245 04e2 C0150000 		.4byte	.LASF62
 3246 04e6 14       		.byte	0x14
ARM GAS  /tmp/ccyYK6L9.s 			page 58


 3247 04e7 05       		.byte	0x5
 3248 04e8 0C       		.byte	0xc
 3249 04e9 85060000 		.4byte	0x685
 3250 04ed 1A       		.uleb128 0x1a
 3251 04ee F32E0000 		.4byte	.LASF65
 3252 04f2 08       		.byte	0x8
 3253 04f3 05       		.byte	0x5
 3254 04f4 0E       		.byte	0xe
 3255 04f5 01       		.byte	0x1
 3256 04f6 6D050000 		.4byte	0x56d
 3257 04fa 1B       		.uleb128 0x1b
 3258 04fb EF300000 		.4byte	.LASF63
 3259 04ff 05       		.byte	0x5
 3260 0500 0F       		.byte	0xf
 3261 0501 37350000 		.4byte	0x3537
 3262 0505 00       		.byte	0
 3263 0506 1B       		.uleb128 0x1b
 3264 0507 471D0000 		.4byte	.LASF64
 3265 050b 05       		.byte	0x5
 3266 050c 10       		.byte	0x10
 3267 050d 56020000 		.4byte	0x256
 3268 0511 04       		.byte	0x4
 3269 0512 1C       		.uleb128 0x1c
 3270 0513 770F0000 		.4byte	.LASF51
 3271 0517 05       		.byte	0x5
 3272 0518 12       		.byte	0x12
 3273 0519 E8030000 		.4byte	.LASF88
 3274 051d 3D350000 		.4byte	0x353d
 3275 0521 29050000 		.4byte	0x529
 3276 0525 34050000 		.4byte	0x534
 3277 0529 0E       		.uleb128 0xe
 3278 052a 43350000 		.4byte	0x3543
 3279 052e 0B       		.uleb128 0xb
 3280 052f 49350000 		.4byte	0x3549
 3281 0533 00       		.byte	0
 3282 0534 0D       		.uleb128 0xd
 3283 0535 F32E0000 		.4byte	.LASF65
 3284 0539 05       		.byte	0x5
 3285 053a 14       		.byte	0x14
 3286 053b 43350000 		.4byte	0x3543
 3287 053f 47050000 		.4byte	0x547
 3288 0543 4D050000 		.4byte	0x54d
 3289 0547 0E       		.uleb128 0xe
 3290 0548 43350000 		.4byte	0x3543
 3291 054c 00       		.byte	0
 3292 054d 1D       		.uleb128 0x1d
 3293 054e F32E0000 		.4byte	.LASF65
 3294 0552 05       		.byte	0x5
 3295 0553 15       		.byte	0x15
 3296 0554 43350000 		.4byte	0x3543
 3297 0558 5C050000 		.4byte	0x55c
 3298 055c 0E       		.uleb128 0xe
 3299 055d 43350000 		.4byte	0x3543
 3300 0561 0B       		.uleb128 0xb
 3301 0562 37350000 		.4byte	0x3537
 3302 0566 0B       		.uleb128 0xb
 3303 0567 31350000 		.4byte	0x3531
ARM GAS  /tmp/ccyYK6L9.s 			page 59


 3304 056b 00       		.byte	0
 3305 056c 00       		.byte	0
 3306 056d 07       		.uleb128 0x7
 3307 056e ED040000 		.4byte	0x4ed
 3308 0572 1B       		.uleb128 0x1b
 3309 0573 3E150000 		.4byte	.LASF66
 3310 0577 05       		.byte	0x5
 3311 0578 19       		.byte	0x19
 3312 0579 F0070000 		.4byte	0x7f0
 3313 057d 00       		.byte	0
 3314 057e 16       		.uleb128 0x16
 3315 057f 1F040000 		.4byte	.LASF67
 3316 0583 05       		.byte	0x5
 3317 0584 1C       		.byte	0x1c
 3318 0585 61250000 		.4byte	.LASF68
 3319 0589 2C000000 		.4byte	0x2c
 3320 058d 01       		.byte	0x1
 3321 058e 96050000 		.4byte	0x596
 3322 0592 9C050000 		.4byte	0x59c
 3323 0596 0E       		.uleb128 0xe
 3324 0597 5B350000 		.4byte	0x355b
 3325 059b 00       		.byte	0
 3326 059c 16       		.uleb128 0x16
 3327 059d C5310000 		.4byte	.LASF69
 3328 05a1 05       		.byte	0x5
 3329 05a2 1D       		.byte	0x1d
 3330 05a3 EB220000 		.4byte	.LASF70
 3331 05a7 22310000 		.4byte	0x3122
 3332 05ab 01       		.byte	0x1
 3333 05ac B4050000 		.4byte	0x5b4
 3334 05b0 BF050000 		.4byte	0x5bf
 3335 05b4 0E       		.uleb128 0xe
 3336 05b5 61350000 		.4byte	0x3561
 3337 05b9 0B       		.uleb128 0xb
 3338 05ba 3D350000 		.4byte	0x353d
 3339 05be 00       		.byte	0
 3340 05bf 16       		.uleb128 0x16
 3341 05c0 45290000 		.4byte	.LASF71
 3342 05c4 05       		.byte	0x5
 3343 05c5 1E       		.byte	0x1e
 3344 05c6 D4380000 		.4byte	.LASF72
 3345 05ca 22310000 		.4byte	0x3122
 3346 05ce 01       		.byte	0x1
 3347 05cf D7050000 		.4byte	0x5d7
 3348 05d3 E2050000 		.4byte	0x5e2
 3349 05d7 0E       		.uleb128 0xe
 3350 05d8 61350000 		.4byte	0x3561
 3351 05dc 0B       		.uleb128 0xb
 3352 05dd 3D350000 		.4byte	0x353d
 3353 05e1 00       		.byte	0
 3354 05e2 16       		.uleb128 0x16
 3355 05e3 F7200000 		.4byte	.LASF73
 3356 05e7 05       		.byte	0x5
 3357 05e8 20       		.byte	0x20
 3358 05e9 51350000 		.4byte	.LASF74
 3359 05ed 2C000000 		.4byte	0x2c
 3360 05f1 01       		.byte	0x1
ARM GAS  /tmp/ccyYK6L9.s 			page 60


 3361 05f2 FA050000 		.4byte	0x5fa
 3362 05f6 00060000 		.4byte	0x600
 3363 05fa 0E       		.uleb128 0xe
 3364 05fb 5B350000 		.4byte	0x355b
 3365 05ff 00       		.byte	0
 3366 0600 16       		.uleb128 0x16
 3367 0601 A8250000 		.4byte	.LASF75
 3368 0605 05       		.byte	0x5
 3369 0606 21       		.byte	0x21
 3370 0607 EA3B0000 		.4byte	.LASF76
 3371 060b 2C000000 		.4byte	0x2c
 3372 060f 01       		.byte	0x1
 3373 0610 18060000 		.4byte	0x618
 3374 0614 1E060000 		.4byte	0x61e
 3375 0618 0E       		.uleb128 0xe
 3376 0619 5B350000 		.4byte	0x355b
 3377 061d 00       		.byte	0
 3378 061e 16       		.uleb128 0x16
 3379 061f E7460000 		.4byte	.LASF77
 3380 0623 05       		.byte	0x5
 3381 0624 22       		.byte	0x22
 3382 0625 A4280000 		.4byte	.LASF78
 3383 0629 22310000 		.4byte	0x3122
 3384 062d 01       		.byte	0x1
 3385 062e 36060000 		.4byte	0x636
 3386 0632 41060000 		.4byte	0x641
 3387 0636 0E       		.uleb128 0xe
 3388 0637 61350000 		.4byte	0x3561
 3389 063b 0B       		.uleb128 0xb
 3390 063c 3D350000 		.4byte	0x353d
 3391 0640 00       		.byte	0
 3392 0641 16       		.uleb128 0x16
 3393 0642 891A0000 		.4byte	.LASF79
 3394 0646 05       		.byte	0x5
 3395 0647 23       		.byte	0x23
 3396 0648 2C080000 		.4byte	.LASF80
 3397 064c 22310000 		.4byte	0x3122
 3398 0650 01       		.byte	0x1
 3399 0651 59060000 		.4byte	0x659
 3400 0655 64060000 		.4byte	0x664
 3401 0659 0E       		.uleb128 0xe
 3402 065a 61350000 		.4byte	0x3561
 3403 065e 0B       		.uleb128 0xb
 3404 065f 3D350000 		.4byte	0x353d
 3405 0663 00       		.byte	0
 3406 0664 10       		.uleb128 0x10
 3407 0665 C0150000 		.4byte	.LASF62
 3408 0669 05       		.byte	0x5
 3409 066a 26       		.byte	0x26
 3410 066b 61350000 		.4byte	0x3561
 3411 066f 01       		.byte	0x1
 3412 0670 74060000 		.4byte	0x674
 3413 0674 0E       		.uleb128 0xe
 3414 0675 61350000 		.4byte	0x3561
 3415 0679 0B       		.uleb128 0xb
 3416 067a 43350000 		.4byte	0x3543
 3417 067e 0B       		.uleb128 0xb
ARM GAS  /tmp/ccyYK6L9.s 			page 61


 3418 067f 2C000000 		.4byte	0x2c
 3419 0683 00       		.byte	0
 3420 0684 00       		.byte	0
 3421 0685 0C       		.uleb128 0xc
 3422 0686 AA370000 		.4byte	.LASF81
 3423 068a 02       		.byte	0x2
 3424 068b 14       		.byte	0x14
 3425 068c 14       		.byte	0x14
 3426 068d F0070000 		.4byte	0x7f0
 3427 0691 13       		.uleb128 0x13
 3428 0692 21070000 		.4byte	.LASF83
 3429 0696 14       		.byte	0x14
 3430 0697 16       		.byte	0x16
 3431 0698 F6300000 		.4byte	0x30f6
 3432 069c 01       		.byte	0x1
 3433 069d 1B       		.uleb128 0x1b
 3434 069e 711D0000 		.4byte	.LASF84
 3435 06a2 14       		.byte	0x14
 3436 06a3 1D       		.byte	0x1d
 3437 06a4 91060000 		.4byte	0x691
 3438 06a8 00       		.byte	0
 3439 06a9 16       		.uleb128 0x16
 3440 06aa BE080000 		.4byte	.LASF85
 3441 06ae 14       		.byte	0x14
 3442 06af 20       		.byte	0x20
 3443 06b0 410B0000 		.4byte	.LASF86
 3444 06b4 FA340000 		.4byte	0x34fa
 3445 06b8 01       		.byte	0x1
 3446 06b9 C1060000 		.4byte	0x6c1
 3447 06bd C7060000 		.4byte	0x6c7
 3448 06c1 0E       		.uleb128 0xe
 3449 06c2 D7360000 		.4byte	0x36d7
 3450 06c6 00       		.byte	0
 3451 06c7 1E       		.uleb128 0x1e
 3452 06c8 7D3A0000 		.4byte	.LASF87
 3453 06cc 14       		.byte	0x14
 3454 06cd 26       		.byte	0x26
 3455 06ce F8110000 		.4byte	.LASF89
 3456 06d2 01       		.byte	0x1
 3457 06d3 DB060000 		.4byte	0x6db
 3458 06d7 E1060000 		.4byte	0x6e1
 3459 06db 0E       		.uleb128 0xe
 3460 06dc 37350000 		.4byte	0x3537
 3461 06e0 00       		.byte	0
 3462 06e1 16       		.uleb128 0x16
 3463 06e2 511D0000 		.4byte	.LASF90
 3464 06e6 14       		.byte	0x14
 3465 06e7 27       		.byte	0x27
 3466 06e8 02210000 		.4byte	.LASF91
 3467 06ec 22310000 		.4byte	0x3122
 3468 06f0 01       		.byte	0x1
 3469 06f1 F9060000 		.4byte	0x6f9
 3470 06f5 FF060000 		.4byte	0x6ff
 3471 06f9 0E       		.uleb128 0xe
 3472 06fa 37350000 		.4byte	0x3537
 3473 06fe 00       		.byte	0
 3474 06ff 1E       		.uleb128 0x1e
ARM GAS  /tmp/ccyYK6L9.s 			page 62


 3475 0700 F2240000 		.4byte	.LASF92
 3476 0704 14       		.byte	0x14
 3477 0705 28       		.byte	0x28
 3478 0706 5A020000 		.4byte	.LASF93
 3479 070a 01       		.byte	0x1
 3480 070b 13070000 		.4byte	0x713
 3481 070f 19070000 		.4byte	0x719
 3482 0713 0E       		.uleb128 0xe
 3483 0714 37350000 		.4byte	0x3537
 3484 0718 00       		.byte	0
 3485 0719 1E       		.uleb128 0x1e
 3486 071a 39180000 		.4byte	.LASF24
 3487 071e 14       		.byte	0x14
 3488 071f 2A       		.byte	0x2a
 3489 0720 66220000 		.4byte	.LASF94
 3490 0724 01       		.byte	0x1
 3491 0725 2D070000 		.4byte	0x72d
 3492 0729 33070000 		.4byte	0x733
 3493 072d 0E       		.uleb128 0xe
 3494 072e 37350000 		.4byte	0x3537
 3495 0732 00       		.byte	0
 3496 0733 16       		.uleb128 0x16
 3497 0734 30390000 		.4byte	.LASF25
 3498 0738 14       		.byte	0x14
 3499 0739 2B       		.byte	0x2b
 3500 073a B5070000 		.4byte	.LASF95
 3501 073e 22310000 		.4byte	0x3122
 3502 0742 01       		.byte	0x1
 3503 0743 4B070000 		.4byte	0x74b
 3504 0747 51070000 		.4byte	0x751
 3505 074b 0E       		.uleb128 0xe
 3506 074c 37350000 		.4byte	0x3537
 3507 0750 00       		.byte	0
 3508 0751 1E       		.uleb128 0x1e
 3509 0752 FF240000 		.4byte	.LASF96
 3510 0756 14       		.byte	0x14
 3511 0757 2C       		.byte	0x2c
 3512 0758 53260000 		.4byte	.LASF97
 3513 075c 01       		.byte	0x1
 3514 075d 65070000 		.4byte	0x765
 3515 0761 6B070000 		.4byte	0x76b
 3516 0765 0E       		.uleb128 0xe
 3517 0766 37350000 		.4byte	0x3537
 3518 076a 00       		.byte	0
 3519 076b 0F       		.uleb128 0xf
 3520 076c AA370000 		.4byte	.LASF81
 3521 0770 14       		.byte	0x14
 3522 0771 2F       		.byte	0x2f
 3523 0772 37350000 		.4byte	0x3537
 3524 0776 02       		.byte	0x2
 3525 0777 7F070000 		.4byte	0x77f
 3526 077b 85070000 		.4byte	0x785
 3527 077f 0E       		.uleb128 0xe
 3528 0780 37350000 		.4byte	0x3537
 3529 0784 00       		.byte	0
 3530 0785 1F       		.uleb128 0x1f
 3531 0786 2A2C0000 		.4byte	.LASF98
ARM GAS  /tmp/ccyYK6L9.s 			page 63


 3532 078a 14       		.byte	0x14
 3533 078b 32       		.byte	0x32
 3534 078c F71D0000 		.4byte	.LASF104
 3535 0790 01       		.byte	0x1
 3536 0791 A5070000 		.4byte	0x7a5
 3537 0795 0B       		.uleb128 0xb
 3538 0796 DD360000 		.4byte	0x36dd
 3539 079a 0B       		.uleb128 0xb
 3540 079b E3360000 		.4byte	0x36e3
 3541 079f 0B       		.uleb128 0xb
 3542 07a0 2C000000 		.4byte	0x2c
 3543 07a4 00       		.byte	0
 3544 07a5 20       		.uleb128 0x20
 3545 07a6 39040000 		.4byte	.LASF99
 3546 07aa 14       		.byte	0x14
 3547 07ab 33       		.byte	0x33
 3548 07ac 72180000 		.4byte	.LASF100
 3549 07b0 E3360000 		.4byte	0x36e3
 3550 07b4 01       		.byte	0x1
 3551 07b5 BF070000 		.4byte	0x7bf
 3552 07b9 0B       		.uleb128 0xb
 3553 07ba FA340000 		.4byte	0x34fa
 3554 07be 00       		.byte	0
 3555 07bf 20       		.uleb128 0x20
 3556 07c0 FC470000 		.4byte	.LASF101
 3557 07c4 14       		.byte	0x14
 3558 07c5 34       		.byte	0x34
 3559 07c6 C7010000 		.4byte	.LASF102
 3560 07ca 2C000000 		.4byte	0x2c
 3561 07ce 01       		.byte	0x1
 3562 07cf D9070000 		.4byte	0x7d9
 3563 07d3 0B       		.uleb128 0xb
 3564 07d4 2C000000 		.4byte	0x2c
 3565 07d8 00       		.byte	0
 3566 07d9 21       		.uleb128 0x21
 3567 07da C7420000 		.4byte	.LASF103
 3568 07de 14       		.byte	0x14
 3569 07df 35       		.byte	0x35
 3570 07e0 A4180000 		.4byte	.LASF105
 3571 07e4 2C000000 		.4byte	0x2c
 3572 07e8 01       		.byte	0x1
 3573 07e9 0B       		.uleb128 0xb
 3574 07ea 2C000000 		.4byte	0x2c
 3575 07ee 00       		.byte	0
 3576 07ef 00       		.byte	0
 3577 07f0 0C       		.uleb128 0xc
 3578 07f1 9B320000 		.4byte	.LASF106
 3579 07f5 14       		.byte	0x14
 3580 07f6 15       		.byte	0x15
 3581 07f7 09       		.byte	0x9
 3582 07f8 70090000 		.4byte	0x970
 3583 07fc 11       		.uleb128 0x11
 3584 07fd 69010000 		.4byte	0x169
 3585 0801 00       		.byte	0
 3586 0802 1B       		.uleb128 0x1b
 3587 0803 7F4A0000 		.4byte	.LASF107
 3588 0807 15       		.byte	0x15
ARM GAS  /tmp/ccyYK6L9.s 			page 64


 3589 0808 0B       		.byte	0xb
 3590 0809 43350000 		.4byte	0x3543
 3591 080d 00       		.byte	0
 3592 080e 1B       		.uleb128 0x1b
 3593 080f DB040000 		.4byte	.LASF108
 3594 0813 15       		.byte	0x15
 3595 0814 0C       		.byte	0xc
 3596 0815 2C000000 		.4byte	0x2c
 3597 0819 04       		.byte	0x4
 3598 081a 1B       		.uleb128 0x1b
 3599 081b 24270000 		.4byte	.LASF109
 3600 081f 15       		.byte	0x15
 3601 0820 0D       		.byte	0xd
 3602 0821 2C000000 		.4byte	0x2c
 3603 0825 08       		.byte	0x8
 3604 0826 1B       		.uleb128 0x1b
 3605 0827 DC0E0000 		.4byte	.LASF110
 3606 082b 15       		.byte	0x15
 3607 082c 0E       		.byte	0xe
 3608 082d 43350000 		.4byte	0x3543
 3609 0831 0C       		.byte	0xc
 3610 0832 1B       		.uleb128 0x1b
 3611 0833 9B190000 		.4byte	.LASF111
 3612 0837 15       		.byte	0x15
 3613 0838 0F       		.byte	0xf
 3614 0839 43350000 		.4byte	0x3543
 3615 083d 10       		.byte	0x10
 3616 083e 16       		.uleb128 0x16
 3617 083f C5310000 		.4byte	.LASF69
 3618 0843 15       		.byte	0x15
 3619 0844 25       		.byte	0x25
 3620 0845 74450000 		.4byte	.LASF112
 3621 0849 22310000 		.4byte	0x3122
 3622 084d 01       		.byte	0x1
 3623 084e 56080000 		.4byte	0x856
 3624 0852 61080000 		.4byte	0x861
 3625 0856 0E       		.uleb128 0xe
 3626 0857 4F350000 		.4byte	0x354f
 3627 085b 0B       		.uleb128 0xb
 3628 085c ED040000 		.4byte	0x4ed
 3629 0860 00       		.byte	0
 3630 0861 16       		.uleb128 0x16
 3631 0862 45290000 		.4byte	.LASF71
 3632 0866 15       		.byte	0x15
 3633 0867 34       		.byte	0x34
 3634 0868 800A0000 		.4byte	.LASF113
 3635 086c 22310000 		.4byte	0x3122
 3636 0870 01       		.byte	0x1
 3637 0871 79080000 		.4byte	0x879
 3638 0875 84080000 		.4byte	0x884
 3639 0879 0E       		.uleb128 0xe
 3640 087a 4F350000 		.4byte	0x354f
 3641 087e 0B       		.uleb128 0xb
 3642 087f 3D350000 		.4byte	0x353d
 3643 0883 00       		.byte	0
 3644 0884 16       		.uleb128 0x16
 3645 0885 062C0000 		.4byte	.LASF114
ARM GAS  /tmp/ccyYK6L9.s 			page 65


 3646 0889 15       		.byte	0x15
 3647 088a 43       		.byte	0x43
 3648 088b 751B0000 		.4byte	.LASF115
 3649 088f 22310000 		.4byte	0x3122
 3650 0893 01       		.byte	0x1
 3651 0894 9C080000 		.4byte	0x89c
 3652 0898 A2080000 		.4byte	0x8a2
 3653 089c 0E       		.uleb128 0xe
 3654 089d 4F350000 		.4byte	0x354f
 3655 08a1 00       		.byte	0
 3656 08a2 16       		.uleb128 0x16
 3657 08a3 F7200000 		.4byte	.LASF73
 3658 08a7 15       		.byte	0x15
 3659 08a8 51       		.byte	0x51
 3660 08a9 223C0000 		.4byte	.LASF116
 3661 08ad 2C000000 		.4byte	0x2c
 3662 08b1 01       		.byte	0x1
 3663 08b2 BA080000 		.4byte	0x8ba
 3664 08b6 C0080000 		.4byte	0x8c0
 3665 08ba 0E       		.uleb128 0xe
 3666 08bb 55350000 		.4byte	0x3555
 3667 08bf 00       		.byte	0
 3668 08c0 16       		.uleb128 0x16
 3669 08c1 A8250000 		.4byte	.LASF75
 3670 08c5 15       		.byte	0x15
 3671 08c6 58       		.byte	0x58
 3672 08c7 D02A0000 		.4byte	.LASF117
 3673 08cb 2C000000 		.4byte	0x2c
 3674 08cf 01       		.byte	0x1
 3675 08d0 D8080000 		.4byte	0x8d8
 3676 08d4 DE080000 		.4byte	0x8de
 3677 08d8 0E       		.uleb128 0xe
 3678 08d9 55350000 		.4byte	0x3555
 3679 08dd 00       		.byte	0
 3680 08de 16       		.uleb128 0x16
 3681 08df E7460000 		.4byte	.LASF77
 3682 08e3 15       		.byte	0x15
 3683 08e4 5F       		.byte	0x5f
 3684 08e5 B52D0000 		.4byte	.LASF118
 3685 08e9 22310000 		.4byte	0x3122
 3686 08ed 01       		.byte	0x1
 3687 08ee F6080000 		.4byte	0x8f6
 3688 08f2 01090000 		.4byte	0x901
 3689 08f6 0E       		.uleb128 0xe
 3690 08f7 4F350000 		.4byte	0x354f
 3691 08fb 0B       		.uleb128 0xb
 3692 08fc ED040000 		.4byte	0x4ed
 3693 0900 00       		.byte	0
 3694 0901 16       		.uleb128 0x16
 3695 0902 891A0000 		.4byte	.LASF79
 3696 0906 15       		.byte	0x15
 3697 0907 69       		.byte	0x69
 3698 0908 D74A0000 		.4byte	.LASF119
 3699 090c 22310000 		.4byte	0x3122
 3700 0910 01       		.byte	0x1
 3701 0911 19090000 		.4byte	0x919
 3702 0915 24090000 		.4byte	0x924
ARM GAS  /tmp/ccyYK6L9.s 			page 66


 3703 0919 0E       		.uleb128 0xe
 3704 091a 4F350000 		.4byte	0x354f
 3705 091e 0B       		.uleb128 0xb
 3706 091f 3D350000 		.4byte	0x353d
 3707 0923 00       		.byte	0
 3708 0924 16       		.uleb128 0x16
 3709 0925 D8110000 		.4byte	.LASF120
 3710 0929 15       		.byte	0x15
 3711 092a 73       		.byte	0x73
 3712 092b 58380000 		.4byte	.LASF121
 3713 092f 22310000 		.4byte	0x3122
 3714 0933 01       		.byte	0x1
 3715 0934 3C090000 		.4byte	0x93c
 3716 0938 42090000 		.4byte	0x942
 3717 093c 0E       		.uleb128 0xe
 3718 093d 4F350000 		.4byte	0x354f
 3719 0941 00       		.byte	0
 3720 0942 0F       		.uleb128 0xf
 3721 0943 9B3F0000 		.4byte	.LASF122
 3722 0947 15       		.byte	0x15
 3723 0948 7D       		.byte	0x7d
 3724 0949 4F350000 		.4byte	0x354f
 3725 094d 01       		.byte	0x1
 3726 094e 56090000 		.4byte	0x956
 3727 0952 66090000 		.4byte	0x966
 3728 0956 0E       		.uleb128 0xe
 3729 0957 4F350000 		.4byte	0x354f
 3730 095b 0B       		.uleb128 0xb
 3731 095c 43350000 		.4byte	0x3543
 3732 0960 0B       		.uleb128 0xb
 3733 0961 2C000000 		.4byte	0x2c
 3734 0965 00       		.byte	0
 3735 0966 22       		.uleb128 0x22
 3736 0967 96190000 		.4byte	.LASF206
 3737 096b ED040000 		.4byte	0x4ed
 3738 096f 00       		.byte	0
 3739 0970 07       		.uleb128 0x7
 3740 0971 F0070000 		.4byte	0x7f0
 3741 0975 07       		.uleb128 0x7
 3742 0976 E1040000 		.4byte	0x4e1
 3743 097a 0C       		.uleb128 0xc
 3744 097b EC460000 		.4byte	.LASF123
 3745 097f 10       		.byte	0x10
 3746 0980 06       		.byte	0x6
 3747 0981 09       		.byte	0x9
 3748 0982 8B0A0000 		.4byte	0xa8b
 3749 0986 11       		.uleb128 0x11
 3750 0987 69010000 		.4byte	0x169
 3751 098b 00       		.byte	0
 3752 098c 1B       		.uleb128 0x1b
 3753 098d 3E150000 		.4byte	.LASF66
 3754 0991 06       		.byte	0x6
 3755 0992 0B       		.byte	0xb
 3756 0993 5C340000 		.4byte	0x345c
 3757 0997 00       		.byte	0
 3758 0998 1E       		.uleb128 0x1e
 3759 0999 97380000 		.4byte	.LASF124
ARM GAS  /tmp/ccyYK6L9.s 			page 67


 3760 099d 06       		.byte	0x6
 3761 099e 0E       		.byte	0xe
 3762 099f 4F1B0000 		.4byte	.LASF125
 3763 09a3 01       		.byte	0x1
 3764 09a4 AC090000 		.4byte	0x9ac
 3765 09a8 B2090000 		.4byte	0x9b2
 3766 09ac 0E       		.uleb128 0xe
 3767 09ad 67350000 		.4byte	0x3567
 3768 09b1 00       		.byte	0
 3769 09b2 1E       		.uleb128 0x1e
 3770 09b3 7D3A0000 		.4byte	.LASF87
 3771 09b7 06       		.byte	0x6
 3772 09b8 10       		.byte	0x10
 3773 09b9 83050000 		.4byte	.LASF126
 3774 09bd 01       		.byte	0x1
 3775 09be C6090000 		.4byte	0x9c6
 3776 09c2 CC090000 		.4byte	0x9cc
 3777 09c6 0E       		.uleb128 0xe
 3778 09c7 67350000 		.4byte	0x3567
 3779 09cb 00       		.byte	0
 3780 09cc 1E       		.uleb128 0x1e
 3781 09cd 511D0000 		.4byte	.LASF90
 3782 09d1 06       		.byte	0x6
 3783 09d2 11       		.byte	0x11
 3784 09d3 17150000 		.4byte	.LASF127
 3785 09d7 01       		.byte	0x1
 3786 09d8 E0090000 		.4byte	0x9e0
 3787 09dc E6090000 		.4byte	0x9e6
 3788 09e0 0E       		.uleb128 0xe
 3789 09e1 67350000 		.4byte	0x3567
 3790 09e5 00       		.byte	0
 3791 09e6 1E       		.uleb128 0x1e
 3792 09e7 39180000 		.4byte	.LASF24
 3793 09eb 06       		.byte	0x6
 3794 09ec 13       		.byte	0x13
 3795 09ed E6410000 		.4byte	.LASF128
 3796 09f1 01       		.byte	0x1
 3797 09f2 FA090000 		.4byte	0x9fa
 3798 09f6 000A0000 		.4byte	0xa00
 3799 09fa 0E       		.uleb128 0xe
 3800 09fb 67350000 		.4byte	0x3567
 3801 09ff 00       		.byte	0
 3802 0a00 1E       		.uleb128 0x1e
 3803 0a01 30390000 		.4byte	.LASF25
 3804 0a05 06       		.byte	0x6
 3805 0a06 14       		.byte	0x14
 3806 0a07 C0210000 		.4byte	.LASF129
 3807 0a0b 01       		.byte	0x1
 3808 0a0c 140A0000 		.4byte	0xa14
 3809 0a10 1A0A0000 		.4byte	0xa1a
 3810 0a14 0E       		.uleb128 0xe
 3811 0a15 67350000 		.4byte	0x3567
 3812 0a19 00       		.byte	0
 3813 0a1a 16       		.uleb128 0x16
 3814 0a1b 6C1B0000 		.4byte	.LASF130
 3815 0a1f 06       		.byte	0x6
 3816 0a20 16       		.byte	0x16
ARM GAS  /tmp/ccyYK6L9.s 			page 68


 3817 0a21 D5420000 		.4byte	.LASF131
 3818 0a25 6D350000 		.4byte	0x356d
 3819 0a29 01       		.byte	0x1
 3820 0a2a 320A0000 		.4byte	0xa32
 3821 0a2e 380A0000 		.4byte	0xa38
 3822 0a32 0E       		.uleb128 0xe
 3823 0a33 67350000 		.4byte	0x3567
 3824 0a37 00       		.byte	0
 3825 0a38 0F       		.uleb128 0xf
 3826 0a39 EC460000 		.4byte	.LASF123
 3827 0a3d 06       		.byte	0x6
 3828 0a3e 19       		.byte	0x19
 3829 0a3f 67350000 		.4byte	0x3567
 3830 0a43 01       		.byte	0x1
 3831 0a44 4C0A0000 		.4byte	0xa4c
 3832 0a48 520A0000 		.4byte	0xa52
 3833 0a4c 0E       		.uleb128 0xe
 3834 0a4d 67350000 		.4byte	0x3567
 3835 0a51 00       		.byte	0
 3836 0a52 17       		.uleb128 0x17
 3837 0a53 EC460000 		.4byte	.LASF123
 3838 0a57 06       		.byte	0x6
 3839 0a58 1A       		.byte	0x1a
 3840 0a59 67350000 		.4byte	0x3567
 3841 0a5d 01       		.byte	0x1
 3842 0a5e 660A0000 		.4byte	0xa66
 3843 0a62 710A0000 		.4byte	0xa71
 3844 0a66 0E       		.uleb128 0xe
 3845 0a67 67350000 		.4byte	0x3567
 3846 0a6b 0B       		.uleb128 0xb
 3847 0a6c 22310000 		.4byte	0x3122
 3848 0a70 00       		.byte	0
 3849 0a71 23       		.uleb128 0x23
 3850 0a72 5D090000 		.4byte	.LASF132
 3851 0a76 B4000000 		.4byte	0xb4
 3852 0a7a 01       		.byte	0x1
 3853 0a7b 7F0A0000 		.4byte	0xa7f
 3854 0a7f 0E       		.uleb128 0xe
 3855 0a80 67350000 		.4byte	0x3567
 3856 0a84 0E       		.uleb128 0xe
 3857 0a85 25000000 		.4byte	0x25
 3858 0a89 00       		.byte	0
 3859 0a8a 00       		.byte	0
 3860 0a8b 0C       		.uleb128 0xc
 3861 0a8c 0C160000 		.4byte	.LASF133
 3862 0a90 14       		.byte	0x14
 3863 0a91 07       		.byte	0x7
 3864 0a92 09       		.byte	0x9
 3865 0a93 7E0B0000 		.4byte	0xb7e
 3866 0a97 11       		.uleb128 0x11
 3867 0a98 69010000 		.4byte	0x169
 3868 0a9c 00       		.byte	0
 3869 0a9d 1B       		.uleb128 0x1b
 3870 0a9e 3E150000 		.4byte	.LASF66
 3871 0aa2 07       		.byte	0x7
 3872 0aa3 0B       		.byte	0xb
 3873 0aa4 7A090000 		.4byte	0x97a
ARM GAS  /tmp/ccyYK6L9.s 			page 69


 3874 0aa8 04       		.byte	0x4
 3875 0aa9 1E       		.uleb128 0x1e
 3876 0aaa 97380000 		.4byte	.LASF124
 3877 0aae 07       		.byte	0x7
 3878 0aaf 0E       		.byte	0xe
 3879 0ab0 083D0000 		.4byte	.LASF134
 3880 0ab4 01       		.byte	0x1
 3881 0ab5 BD0A0000 		.4byte	0xabd
 3882 0ab9 C30A0000 		.4byte	0xac3
 3883 0abd 0E       		.uleb128 0xe
 3884 0abe 73350000 		.4byte	0x3573
 3885 0ac2 00       		.byte	0
 3886 0ac3 1E       		.uleb128 0x1e
 3887 0ac4 7D3A0000 		.4byte	.LASF87
 3888 0ac8 07       		.byte	0x7
 3889 0ac9 10       		.byte	0x10
 3890 0aca 964A0000 		.4byte	.LASF135
 3891 0ace 01       		.byte	0x1
 3892 0acf D70A0000 		.4byte	0xad7
 3893 0ad3 DD0A0000 		.4byte	0xadd
 3894 0ad7 0E       		.uleb128 0xe
 3895 0ad8 73350000 		.4byte	0x3573
 3896 0adc 00       		.byte	0
 3897 0add 1E       		.uleb128 0x1e
 3898 0ade 511D0000 		.4byte	.LASF90
 3899 0ae2 07       		.byte	0x7
 3900 0ae3 11       		.byte	0x11
 3901 0ae4 D1200000 		.4byte	.LASF136
 3902 0ae8 01       		.byte	0x1
 3903 0ae9 F10A0000 		.4byte	0xaf1
 3904 0aed F70A0000 		.4byte	0xaf7
 3905 0af1 0E       		.uleb128 0xe
 3906 0af2 73350000 		.4byte	0x3573
 3907 0af6 00       		.byte	0
 3908 0af7 1E       		.uleb128 0x1e
 3909 0af8 39180000 		.4byte	.LASF24
 3910 0afc 07       		.byte	0x7
 3911 0afd 13       		.byte	0x13
 3912 0afe C5120000 		.4byte	.LASF137
 3913 0b02 01       		.byte	0x1
 3914 0b03 0B0B0000 		.4byte	0xb0b
 3915 0b07 110B0000 		.4byte	0xb11
 3916 0b0b 0E       		.uleb128 0xe
 3917 0b0c 73350000 		.4byte	0x3573
 3918 0b10 00       		.byte	0
 3919 0b11 1E       		.uleb128 0x1e
 3920 0b12 30390000 		.4byte	.LASF25
 3921 0b16 07       		.byte	0x7
 3922 0b17 14       		.byte	0x14
 3923 0b18 D7150000 		.4byte	.LASF138
 3924 0b1c 01       		.byte	0x1
 3925 0b1d 250B0000 		.4byte	0xb25
 3926 0b21 2B0B0000 		.4byte	0xb2b
 3927 0b25 0E       		.uleb128 0xe
 3928 0b26 73350000 		.4byte	0x3573
 3929 0b2a 00       		.byte	0
 3930 0b2b 0F       		.uleb128 0xf
ARM GAS  /tmp/ccyYK6L9.s 			page 70


 3931 0b2c 0C160000 		.4byte	.LASF133
 3932 0b30 07       		.byte	0x7
 3933 0b31 17       		.byte	0x17
 3934 0b32 73350000 		.4byte	0x3573
 3935 0b36 01       		.byte	0x1
 3936 0b37 3F0B0000 		.4byte	0xb3f
 3937 0b3b 450B0000 		.4byte	0xb45
 3938 0b3f 0E       		.uleb128 0xe
 3939 0b40 73350000 		.4byte	0x3573
 3940 0b44 00       		.byte	0
 3941 0b45 17       		.uleb128 0x17
 3942 0b46 0C160000 		.4byte	.LASF133
 3943 0b4a 07       		.byte	0x7
 3944 0b4b 18       		.byte	0x18
 3945 0b4c 73350000 		.4byte	0x3573
 3946 0b50 01       		.byte	0x1
 3947 0b51 590B0000 		.4byte	0xb59
 3948 0b55 640B0000 		.4byte	0xb64
 3949 0b59 0E       		.uleb128 0xe
 3950 0b5a 73350000 		.4byte	0x3573
 3951 0b5e 0B       		.uleb128 0xb
 3952 0b5f 22310000 		.4byte	0x3122
 3953 0b63 00       		.byte	0
 3954 0b64 23       		.uleb128 0x23
 3955 0b65 31420000 		.4byte	.LASF139
 3956 0b69 B4000000 		.4byte	0xb4
 3957 0b6d 01       		.byte	0x1
 3958 0b6e 720B0000 		.4byte	0xb72
 3959 0b72 0E       		.uleb128 0xe
 3960 0b73 73350000 		.4byte	0x3573
 3961 0b77 0E       		.uleb128 0xe
 3962 0b78 25000000 		.4byte	0x25
 3963 0b7c 00       		.byte	0
 3964 0b7d 00       		.byte	0
 3965 0b7e 0C       		.uleb128 0xc
 3966 0b7f F62D0000 		.4byte	.LASF140
 3967 0b83 04       		.byte	0x4
 3968 0b84 0D       		.byte	0xd
 3969 0b85 0F       		.byte	0xf
 3970 0b86 A3100000 		.4byte	0x10a3
 3971 0b8a 11       		.uleb128 0x11
 3972 0b8b 69010000 		.4byte	0x169
 3973 0b8f 00       		.byte	0
 3974 0b90 1A       		.uleb128 0x1a
 3975 0b91 CE440000 		.4byte	.LASF141
 3976 0b95 08       		.byte	0x8
 3977 0b96 0D       		.byte	0xd
 3978 0b97 11       		.byte	0x11
 3979 0b98 01       		.byte	0x1
 3980 0b99 D00B0000 		.4byte	0xbd0
 3981 0b9d 1B       		.uleb128 0x1b
 3982 0b9e 50210000 		.4byte	.LASF142
 3983 0ba2 0D       		.byte	0xd
 3984 0ba3 12       		.byte	0x12
 3985 0ba4 79350000 		.4byte	0x3579
 3986 0ba8 00       		.byte	0
 3987 0ba9 1B       		.uleb128 0x1b
ARM GAS  /tmp/ccyYK6L9.s 			page 71


 3988 0baa 98130000 		.4byte	.LASF143
 3989 0bae 0D       		.byte	0xd
 3990 0baf 13       		.byte	0x13
 3991 0bb0 10380000 		.4byte	0x3810
 3992 0bb4 04       		.byte	0x4
 3993 0bb5 1D       		.uleb128 0x1d
 3994 0bb6 CE440000 		.4byte	.LASF141
 3995 0bba 0D       		.byte	0xd
 3996 0bbb 15       		.byte	0x15
 3997 0bbc 79350000 		.4byte	0x3579
 3998 0bc0 C40B0000 		.4byte	0xbc4
 3999 0bc4 0E       		.uleb128 0xe
 4000 0bc5 79350000 		.4byte	0x3579
 4001 0bc9 0B       		.uleb128 0xb
 4002 0bca F9370000 		.4byte	0x37f9
 4003 0bce 00       		.byte	0
 4004 0bcf 00       		.byte	0
 4005 0bd0 24       		.uleb128 0x24
 4006 0bd1 DC0E0000 		.4byte	.LASF110
 4007 0bd5 0D       		.byte	0xd
 4008 0bd6 8A01     		.2byte	0x18a
 4009 0bd8 79350000 		.4byte	0x3579
 4010 0bdc 00       		.byte	0
 4011 0bdd 25       		.uleb128 0x25
 4012 0bde 2A180000 		.4byte	.LASF144
 4013 0be2 25       		.uleb128 0x25
 4014 0be3 52220000 		.4byte	.LASF145
 4015 0be7 25       		.uleb128 0x25
 4016 0be8 8B3E0000 		.4byte	.LASF146
 4017 0bec 25       		.uleb128 0x25
 4018 0bed E52E0000 		.4byte	.LASF147
 4019 0bf1 26       		.uleb128 0x26
 4020 0bf2 4F2D0000 		.4byte	.LASF148
 4021 0bf6 0D       		.byte	0xd
 4022 0bf7 8601     		.2byte	0x186
 4023 0bf9 7F350000 		.4byte	0x357f
 4024 0bfd 26       		.uleb128 0x26
 4025 0bfe 440E0000 		.4byte	.LASF149
 4026 0c02 0D       		.byte	0xd
 4027 0c03 8701     		.2byte	0x187
 4028 0c05 9A350000 		.4byte	0x359a
 4029 0c09 27       		.uleb128 0x27
 4030 0c0a 864A0000 		.4byte	.LASF150
 4031 0c0e 0D       		.byte	0xd
 4032 0c0f 8D01     		.2byte	0x18d
 4033 0c11 A63F0000 		.4byte	.LASF152
 4034 0c15 B4350000 		.4byte	0x35b4
 4035 0c19 01       		.byte	0x1
 4036 0c1a 220C0000 		.4byte	0xc22
 4037 0c1e 280C0000 		.4byte	0xc28
 4038 0c22 0E       		.uleb128 0xe
 4039 0c23 BA350000 		.4byte	0x35ba
 4040 0c27 00       		.byte	0
 4041 0c28 07       		.uleb128 0x7
 4042 0c29 900B0000 		.4byte	0xb90
 4043 0c2d 27       		.uleb128 0x27
 4044 0c2e DE290000 		.4byte	.LASF151
ARM GAS  /tmp/ccyYK6L9.s 			page 72


 4045 0c32 0D       		.byte	0xd
 4046 0c33 9101     		.2byte	0x191
 4047 0c35 D20A0000 		.4byte	.LASF153
 4048 0c39 22310000 		.4byte	0x3122
 4049 0c3d 01       		.byte	0x1
 4050 0c3e 460C0000 		.4byte	0xc46
 4051 0c42 4C0C0000 		.4byte	0xc4c
 4052 0c46 0E       		.uleb128 0xe
 4053 0c47 BA350000 		.4byte	0x35ba
 4054 0c4b 00       		.byte	0
 4055 0c4c 27       		.uleb128 0x27
 4056 0c4d 23170000 		.4byte	.LASF154
 4057 0c51 0D       		.byte	0xd
 4058 0c52 0302     		.2byte	0x203
 4059 0c54 8A0E0000 		.4byte	.LASF155
 4060 0c58 2C000000 		.4byte	0x2c
 4061 0c5c 01       		.byte	0x1
 4062 0c5d 650C0000 		.4byte	0xc65
 4063 0c61 6B0C0000 		.4byte	0xc6b
 4064 0c65 0E       		.uleb128 0xe
 4065 0c66 BA350000 		.4byte	0x35ba
 4066 0c6a 00       		.byte	0
 4067 0c6b 28       		.uleb128 0x28
 4068 0c6c 2F360000 		.4byte	.LASF156
 4069 0c70 0D       		.byte	0xd
 4070 0c71 9701     		.2byte	0x197
 4071 0c73 3A010000 		.4byte	.LASF158
 4072 0c77 01       		.byte	0x1
 4073 0c78 800C0000 		.4byte	0xc80
 4074 0c7c 8B0C0000 		.4byte	0xc8b
 4075 0c80 0E       		.uleb128 0xe
 4076 0c81 C0350000 		.4byte	0x35c0
 4077 0c85 0B       		.uleb128 0xb
 4078 0c86 C6350000 		.4byte	0x35c6
 4079 0c8a 00       		.byte	0
 4080 0c8b 28       		.uleb128 0x28
 4081 0c8c 113E0000 		.4byte	.LASF157
 4082 0c90 0D       		.byte	0xd
 4083 0c91 9F01     		.2byte	0x19f
 4084 0c93 31100000 		.4byte	.LASF159
 4085 0c97 01       		.byte	0x1
 4086 0c98 A00C0000 		.4byte	0xca0
 4087 0c9c AB0C0000 		.4byte	0xcab
 4088 0ca0 0E       		.uleb128 0xe
 4089 0ca1 C0350000 		.4byte	0x35c0
 4090 0ca5 0B       		.uleb128 0xb
 4091 0ca6 C6350000 		.4byte	0x35c6
 4092 0caa 00       		.byte	0
 4093 0cab 27       		.uleb128 0x27
 4094 0cac 171E0000 		.4byte	.LASF160
 4095 0cb0 0D       		.byte	0xd
 4096 0cb1 0E02     		.2byte	0x20e
 4097 0cb3 D1490000 		.4byte	.LASF161
 4098 0cb7 22310000 		.4byte	0x3122
 4099 0cbb 01       		.byte	0x1
 4100 0cbc C40C0000 		.4byte	0xcc4
 4101 0cc0 CF0C0000 		.4byte	0xccf
ARM GAS  /tmp/ccyYK6L9.s 			page 73


 4102 0cc4 0E       		.uleb128 0xe
 4103 0cc5 C0350000 		.4byte	0x35c0
 4104 0cc9 0B       		.uleb128 0xb
 4105 0cca C6350000 		.4byte	0x35c6
 4106 0cce 00       		.byte	0
 4107 0ccf 27       		.uleb128 0x27
 4108 0cd0 90290000 		.4byte	.LASF162
 4109 0cd4 0D       		.byte	0xd
 4110 0cd5 1F02     		.2byte	0x21f
 4111 0cd7 84420000 		.4byte	.LASF163
 4112 0cdb 25000000 		.4byte	0x25
 4113 0cdf 01       		.byte	0x1
 4114 0ce0 E80C0000 		.4byte	0xce8
 4115 0ce4 F30C0000 		.4byte	0xcf3
 4116 0ce8 0E       		.uleb128 0xe
 4117 0ce9 BA350000 		.4byte	0x35ba
 4118 0ced 0B       		.uleb128 0xb
 4119 0cee 94350000 		.4byte	0x3594
 4120 0cf2 00       		.byte	0
 4121 0cf3 27       		.uleb128 0x27
 4122 0cf4 3E3B0000 		.4byte	.LASF164
 4123 0cf8 0D       		.byte	0xd
 4124 0cf9 2C02     		.2byte	0x22c
 4125 0cfb 0F450000 		.4byte	.LASF165
 4126 0cff 22310000 		.4byte	0x3122
 4127 0d03 01       		.byte	0x1
 4128 0d04 0C0D0000 		.4byte	0xd0c
 4129 0d08 170D0000 		.4byte	0xd17
 4130 0d0c 0E       		.uleb128 0xe
 4131 0d0d BA350000 		.4byte	0x35ba
 4132 0d11 0B       		.uleb128 0xb
 4133 0d12 94350000 		.4byte	0x3594
 4134 0d16 00       		.byte	0
 4135 0d17 27       		.uleb128 0x27
 4136 0d18 DD260000 		.4byte	.LASF166
 4137 0d1c 0D       		.byte	0xd
 4138 0d1d 3802     		.2byte	0x238
 4139 0d1f 5E330000 		.4byte	.LASF167
 4140 0d23 CC350000 		.4byte	0x35cc
 4141 0d27 01       		.byte	0x1
 4142 0d28 300D0000 		.4byte	0xd30
 4143 0d2c 3B0D0000 		.4byte	0xd3b
 4144 0d30 0E       		.uleb128 0xe
 4145 0d31 BA350000 		.4byte	0x35ba
 4146 0d35 0B       		.uleb128 0xb
 4147 0d36 F10B0000 		.4byte	0xbf1
 4148 0d3a 00       		.byte	0
 4149 0d3b 27       		.uleb128 0x27
 4150 0d3c DD260000 		.4byte	.LASF166
 4151 0d40 0D       		.byte	0xd
 4152 0d41 4402     		.2byte	0x244
 4153 0d43 34050000 		.4byte	.LASF168
 4154 0d47 CC350000 		.4byte	0x35cc
 4155 0d4b 01       		.byte	0x1
 4156 0d4c 540D0000 		.4byte	0xd54
 4157 0d50 640D0000 		.4byte	0xd64
 4158 0d54 0E       		.uleb128 0xe
ARM GAS  /tmp/ccyYK6L9.s 			page 74


 4159 0d55 BA350000 		.4byte	0x35ba
 4160 0d59 0B       		.uleb128 0xb
 4161 0d5a FD0B0000 		.4byte	0xbfd
 4162 0d5e 0B       		.uleb128 0xb
 4163 0d5f 11350000 		.4byte	0x3511
 4164 0d63 00       		.byte	0
 4165 0d64 27       		.uleb128 0x27
 4166 0d65 E90B0000 		.4byte	.LASF169
 4167 0d69 0D       		.byte	0xd
 4168 0d6a B301     		.2byte	0x1b3
 4169 0d6c BE1A0000 		.4byte	.LASF170
 4170 0d70 830D0000 		.4byte	0xd83
 4171 0d74 01       		.byte	0x1
 4172 0d75 7D0D0000 		.4byte	0xd7d
 4173 0d79 830D0000 		.4byte	0xd83
 4174 0d7d 0E       		.uleb128 0xe
 4175 0d7e C0350000 		.4byte	0x35c0
 4176 0d82 00       		.byte	0
 4177 0d83 07       		.uleb128 0x7
 4178 0d84 DD0B0000 		.4byte	0xbdd
 4179 0d88 27       		.uleb128 0x27
 4180 0d89 D1230000 		.4byte	.LASF171
 4181 0d8d 0D       		.byte	0xd
 4182 0d8e B701     		.2byte	0x1b7
 4183 0d90 D91B0000 		.4byte	.LASF172
 4184 0d94 830D0000 		.4byte	0xd83
 4185 0d98 01       		.byte	0x1
 4186 0d99 A10D0000 		.4byte	0xda1
 4187 0d9d A70D0000 		.4byte	0xda7
 4188 0da1 0E       		.uleb128 0xe
 4189 0da2 C0350000 		.4byte	0x35c0
 4190 0da6 00       		.byte	0
 4191 0da7 28       		.uleb128 0x28
 4192 0da8 C04A0000 		.4byte	.LASF173
 4193 0dac 0D       		.byte	0xd
 4194 0dad BB01     		.2byte	0x1bb
 4195 0daf 65090000 		.4byte	.LASF174
 4196 0db3 01       		.byte	0x1
 4197 0db4 BC0D0000 		.4byte	0xdbc
 4198 0db8 C70D0000 		.4byte	0xdc7
 4199 0dbc 0E       		.uleb128 0xe
 4200 0dbd C0350000 		.4byte	0x35c0
 4201 0dc1 0B       		.uleb128 0xb
 4202 0dc2 D2350000 		.4byte	0x35d2
 4203 0dc6 00       		.byte	0
 4204 0dc7 27       		.uleb128 0x27
 4205 0dc8 E90B0000 		.4byte	.LASF169
 4206 0dcc 0D       		.byte	0xd
 4207 0dcd BF01     		.2byte	0x1bf
 4208 0dcf 251E0000 		.4byte	.LASF175
 4209 0dd3 E60D0000 		.4byte	0xde6
 4210 0dd7 01       		.byte	0x1
 4211 0dd8 E00D0000 		.4byte	0xde0
 4212 0ddc E60D0000 		.4byte	0xde6
 4213 0de0 0E       		.uleb128 0xe
 4214 0de1 BA350000 		.4byte	0x35ba
 4215 0de5 00       		.byte	0
ARM GAS  /tmp/ccyYK6L9.s 			page 75


 4216 0de6 07       		.uleb128 0x7
 4217 0de7 E20B0000 		.4byte	0xbe2
 4218 0deb 27       		.uleb128 0x27
 4219 0dec D1230000 		.4byte	.LASF171
 4220 0df0 0D       		.byte	0xd
 4221 0df1 C301     		.2byte	0x1c3
 4222 0df3 D73D0000 		.4byte	.LASF176
 4223 0df7 E60D0000 		.4byte	0xde6
 4224 0dfb 01       		.byte	0x1
 4225 0dfc 040E0000 		.4byte	0xe04
 4226 0e00 0A0E0000 		.4byte	0xe0a
 4227 0e04 0E       		.uleb128 0xe
 4228 0e05 BA350000 		.4byte	0x35ba
 4229 0e09 00       		.byte	0
 4230 0e0a 28       		.uleb128 0x28
 4231 0e0b C04A0000 		.4byte	.LASF173
 4232 0e0f 0D       		.byte	0xd
 4233 0e10 C701     		.2byte	0x1c7
 4234 0e12 172F0000 		.4byte	.LASF177
 4235 0e16 01       		.byte	0x1
 4236 0e17 1F0E0000 		.4byte	0xe1f
 4237 0e1b 2A0E0000 		.4byte	0xe2a
 4238 0e1f 0E       		.uleb128 0xe
 4239 0e20 BA350000 		.4byte	0x35ba
 4240 0e24 0B       		.uleb128 0xb
 4241 0e25 D8350000 		.4byte	0x35d8
 4242 0e29 00       		.byte	0
 4243 0e2a 27       		.uleb128 0x27
 4244 0e2b FA440000 		.4byte	.LASF178
 4245 0e2f 0D       		.byte	0xd
 4246 0e30 5302     		.2byte	0x253
 4247 0e32 B4220000 		.4byte	.LASF179
 4248 0e36 B4350000 		.4byte	0x35b4
 4249 0e3a 01       		.byte	0x1
 4250 0e3b 430E0000 		.4byte	0xe43
 4251 0e3f 490E0000 		.4byte	0xe49
 4252 0e43 0E       		.uleb128 0xe
 4253 0e44 BA350000 		.4byte	0x35ba
 4254 0e48 00       		.byte	0
 4255 0e49 27       		.uleb128 0x27
 4256 0e4a 94340000 		.4byte	.LASF180
 4257 0e4e 0D       		.byte	0xd
 4258 0e4f 5D02     		.2byte	0x25d
 4259 0e51 20130000 		.4byte	.LASF181
 4260 0e55 22310000 		.4byte	0x3122
 4261 0e59 01       		.byte	0x1
 4262 0e5a 620E0000 		.4byte	0xe62
 4263 0e5e 680E0000 		.4byte	0xe68
 4264 0e62 0E       		.uleb128 0xe
 4265 0e63 BA350000 		.4byte	0x35ba
 4266 0e67 00       		.byte	0
 4267 0e68 27       		.uleb128 0x27
 4268 0e69 24270000 		.4byte	.LASF109
 4269 0e6d 0D       		.byte	0xd
 4270 0e6e 6702     		.2byte	0x267
 4271 0e70 50420000 		.4byte	.LASF182
 4272 0e74 2C000000 		.4byte	0x2c
ARM GAS  /tmp/ccyYK6L9.s 			page 76


 4273 0e78 01       		.byte	0x1
 4274 0e79 810E0000 		.4byte	0xe81
 4275 0e7d 870E0000 		.4byte	0xe87
 4276 0e81 0E       		.uleb128 0xe
 4277 0e82 BA350000 		.4byte	0x35ba
 4278 0e86 00       		.byte	0
 4279 0e87 28       		.uleb128 0x28
 4280 0e88 30170000 		.4byte	.LASF183
 4281 0e8c 0D       		.byte	0xd
 4282 0e8d 7602     		.2byte	0x276
 4283 0e8f E2040000 		.4byte	.LASF184
 4284 0e93 01       		.byte	0x1
 4285 0e94 9C0E0000 		.4byte	0xe9c
 4286 0e98 A70E0000 		.4byte	0xea7
 4287 0e9c 0E       		.uleb128 0xe
 4288 0e9d C0350000 		.4byte	0x35c0
 4289 0ea1 0B       		.uleb128 0xb
 4290 0ea2 C6350000 		.4byte	0x35c6
 4291 0ea6 00       		.byte	0
 4292 0ea7 27       		.uleb128 0x27
 4293 0ea8 2D0F0000 		.4byte	.LASF185
 4294 0eac 0D       		.byte	0xd
 4295 0ead 8002     		.2byte	0x280
 4296 0eaf 883D0000 		.4byte	.LASF186
 4297 0eb3 22310000 		.4byte	0x3122
 4298 0eb7 01       		.byte	0x1
 4299 0eb8 C00E0000 		.4byte	0xec0
 4300 0ebc CB0E0000 		.4byte	0xecb
 4301 0ec0 0E       		.uleb128 0xe
 4302 0ec1 C0350000 		.4byte	0x35c0
 4303 0ec5 0B       		.uleb128 0xb
 4304 0ec6 C6350000 		.4byte	0x35c6
 4305 0eca 00       		.byte	0
 4306 0ecb 27       		.uleb128 0x27
 4307 0ecc B22A0000 		.4byte	.LASF187
 4308 0ed0 0D       		.byte	0xd
 4309 0ed1 8A02     		.2byte	0x28a
 4310 0ed3 CA320000 		.4byte	.LASF188
 4311 0ed7 25000000 		.4byte	0x25
 4312 0edb 01       		.byte	0x1
 4313 0edc E40E0000 		.4byte	0xee4
 4314 0ee0 EF0E0000 		.4byte	0xeef
 4315 0ee4 0E       		.uleb128 0xe
 4316 0ee5 BA350000 		.4byte	0x35ba
 4317 0ee9 0B       		.uleb128 0xb
 4318 0eea 94350000 		.4byte	0x3594
 4319 0eee 00       		.byte	0
 4320 0eef 27       		.uleb128 0x27
 4321 0ef0 8F1A0000 		.4byte	.LASF189
 4322 0ef4 0D       		.byte	0xd
 4323 0ef5 9B02     		.2byte	0x29b
 4324 0ef7 FA370000 		.4byte	.LASF190
 4325 0efb 22310000 		.4byte	0x3122
 4326 0eff 01       		.byte	0x1
 4327 0f00 080F0000 		.4byte	0xf08
 4328 0f04 130F0000 		.4byte	0xf13
 4329 0f08 0E       		.uleb128 0xe
ARM GAS  /tmp/ccyYK6L9.s 			page 77


 4330 0f09 BA350000 		.4byte	0x35ba
 4331 0f0d 0B       		.uleb128 0xb
 4332 0f0e 94350000 		.4byte	0x3594
 4333 0f12 00       		.byte	0
 4334 0f13 27       		.uleb128 0x27
 4335 0f14 AA2D0000 		.4byte	.LASF191
 4336 0f18 0D       		.byte	0xd
 4337 0f19 AC02     		.2byte	0x2ac
 4338 0f1b 541C0000 		.4byte	.LASF192
 4339 0f1f CC350000 		.4byte	0x35cc
 4340 0f23 01       		.byte	0x1
 4341 0f24 2C0F0000 		.4byte	0xf2c
 4342 0f28 370F0000 		.4byte	0xf37
 4343 0f2c 0E       		.uleb128 0xe
 4344 0f2d BA350000 		.4byte	0x35ba
 4345 0f31 0B       		.uleb128 0xb
 4346 0f32 F10B0000 		.4byte	0xbf1
 4347 0f36 00       		.byte	0
 4348 0f37 27       		.uleb128 0x27
 4349 0f38 AA2D0000 		.4byte	.LASF191
 4350 0f3c 0D       		.byte	0xd
 4351 0f3d BC02     		.2byte	0x2bc
 4352 0f3f 38390000 		.4byte	.LASF193
 4353 0f43 CC350000 		.4byte	0x35cc
 4354 0f47 01       		.byte	0x1
 4355 0f48 500F0000 		.4byte	0xf50
 4356 0f4c 600F0000 		.4byte	0xf60
 4357 0f50 0E       		.uleb128 0xe
 4358 0f51 BA350000 		.4byte	0x35ba
 4359 0f55 0B       		.uleb128 0xb
 4360 0f56 FD0B0000 		.4byte	0xbfd
 4361 0f5a 0B       		.uleb128 0xb
 4362 0f5b 11350000 		.4byte	0x3511
 4363 0f5f 00       		.byte	0
 4364 0f60 27       		.uleb128 0x27
 4365 0f61 6F4A0000 		.4byte	.LASF194
 4366 0f65 0D       		.byte	0xd
 4367 0f66 E001     		.2byte	0x1e0
 4368 0f68 12160000 		.4byte	.LASF195
 4369 0f6c 7F0F0000 		.4byte	0xf7f
 4370 0f70 01       		.byte	0x1
 4371 0f71 790F0000 		.4byte	0xf79
 4372 0f75 7F0F0000 		.4byte	0xf7f
 4373 0f79 0E       		.uleb128 0xe
 4374 0f7a C0350000 		.4byte	0x35c0
 4375 0f7e 00       		.byte	0
 4376 0f7f 07       		.uleb128 0x7
 4377 0f80 E70B0000 		.4byte	0xbe7
 4378 0f84 29       		.uleb128 0x29
 4379 0f85 656E6400 		.ascii	"end\000"
 4380 0f89 0D       		.byte	0xd
 4381 0f8a E401     		.2byte	0x1e4
 4382 0f8c 7A460000 		.4byte	.LASF199
 4383 0f90 7F0F0000 		.4byte	0xf7f
 4384 0f94 01       		.byte	0x1
 4385 0f95 9D0F0000 		.4byte	0xf9d
 4386 0f99 A30F0000 		.4byte	0xfa3
ARM GAS  /tmp/ccyYK6L9.s 			page 78


 4387 0f9d 0E       		.uleb128 0xe
 4388 0f9e C0350000 		.4byte	0x35c0
 4389 0fa2 00       		.byte	0
 4390 0fa3 28       		.uleb128 0x28
 4391 0fa4 1A0E0000 		.4byte	.LASF196
 4392 0fa8 0D       		.byte	0xd
 4393 0fa9 E801     		.2byte	0x1e8
 4394 0fab 3B2C0000 		.4byte	.LASF197
 4395 0faf 01       		.byte	0x1
 4396 0fb0 B80F0000 		.4byte	0xfb8
 4397 0fb4 C30F0000 		.4byte	0xfc3
 4398 0fb8 0E       		.uleb128 0xe
 4399 0fb9 C0350000 		.4byte	0x35c0
 4400 0fbd 0B       		.uleb128 0xb
 4401 0fbe DE350000 		.4byte	0x35de
 4402 0fc2 00       		.byte	0
 4403 0fc3 27       		.uleb128 0x27
 4404 0fc4 6F4A0000 		.4byte	.LASF194
 4405 0fc8 0D       		.byte	0xd
 4406 0fc9 EC01     		.2byte	0x1ec
 4407 0fcb 8A080000 		.4byte	.LASF198
 4408 0fcf E20F0000 		.4byte	0xfe2
 4409 0fd3 01       		.byte	0x1
 4410 0fd4 DC0F0000 		.4byte	0xfdc
 4411 0fd8 E20F0000 		.4byte	0xfe2
 4412 0fdc 0E       		.uleb128 0xe
 4413 0fdd BA350000 		.4byte	0x35ba
 4414 0fe1 00       		.byte	0
 4415 0fe2 07       		.uleb128 0x7
 4416 0fe3 EC0B0000 		.4byte	0xbec
 4417 0fe7 29       		.uleb128 0x29
 4418 0fe8 656E6400 		.ascii	"end\000"
 4419 0fec 0D       		.byte	0xd
 4420 0fed F201     		.2byte	0x1f2
 4421 0fef 8C020000 		.4byte	.LASF200
 4422 0ff3 E20F0000 		.4byte	0xfe2
 4423 0ff7 01       		.byte	0x1
 4424 0ff8 00100000 		.4byte	0x1000
 4425 0ffc 06100000 		.4byte	0x1006
 4426 1000 0E       		.uleb128 0xe
 4427 1001 BA350000 		.4byte	0x35ba
 4428 1005 00       		.byte	0
 4429 1006 28       		.uleb128 0x28
 4430 1007 1A0E0000 		.4byte	.LASF196
 4431 100b 0D       		.byte	0xd
 4432 100c F601     		.2byte	0x1f6
 4433 100e 00460000 		.4byte	.LASF201
 4434 1012 01       		.byte	0x1
 4435 1013 1B100000 		.4byte	0x101b
 4436 1017 26100000 		.4byte	0x1026
 4437 101b 0E       		.uleb128 0xe
 4438 101c BA350000 		.4byte	0x35ba
 4439 1020 0B       		.uleb128 0xb
 4440 1021 E4350000 		.4byte	0x35e4
 4441 1025 00       		.byte	0
 4442 1026 2A       		.uleb128 0x2a
 4443 1027 1D0C0000 		.4byte	.LASF202
ARM GAS  /tmp/ccyYK6L9.s 			page 79


 4444 102b 0D       		.byte	0xd
 4445 102c FA01     		.2byte	0x1fa
 4446 102e C0350000 		.4byte	0x35c0
 4447 1032 01       		.byte	0x1
 4448 1033 3B100000 		.4byte	0x103b
 4449 1037 41100000 		.4byte	0x1041
 4450 103b 0E       		.uleb128 0xe
 4451 103c C0350000 		.4byte	0x35c0
 4452 1040 00       		.byte	0
 4453 1041 2B       		.uleb128 0x2b
 4454 1042 26300000 		.4byte	.LASF203
 4455 1046 B4000000 		.4byte	0xb4
 4456 104a 01       		.byte	0x1
 4457 104b 53100000 		.4byte	0x1053
 4458 104f 5E100000 		.4byte	0x105e
 4459 1053 0E       		.uleb128 0xe
 4460 1054 C0350000 		.4byte	0x35c0
 4461 1058 0E       		.uleb128 0xe
 4462 1059 25000000 		.4byte	0x25
 4463 105d 00       		.byte	0
 4464 105e 27       		.uleb128 0x27
 4465 105f DD120000 		.4byte	.LASF204
 4466 1063 0D       		.byte	0xd
 4467 1064 DB01     		.2byte	0x1db
 4468 1066 F0250000 		.4byte	.LASF205
 4469 106a CC350000 		.4byte	0x35cc
 4470 106e 01       		.byte	0x1
 4471 106f 89100000 		.4byte	0x1089
 4472 1073 99100000 		.4byte	0x1099
 4473 1077 22       		.uleb128 0x22
 4474 1078 440E0000 		.4byte	.LASF149
 4475 107c AF420000 		.4byte	0x42af
 4476 1080 22       		.uleb128 0x22
 4477 1081 29310000 		.4byte	.LASF207
 4478 1085 BC000000 		.4byte	0xbc
 4479 1089 0E       		.uleb128 0xe
 4480 108a BA350000 		.4byte	0x35ba
 4481 108e 0B       		.uleb128 0xb
 4482 108f AF420000 		.4byte	0x42af
 4483 1093 0B       		.uleb128 0xb
 4484 1094 C3000000 		.4byte	0xc3
 4485 1098 00       		.byte	0
 4486 1099 22       		.uleb128 0x22
 4487 109a 96190000 		.4byte	.LASF206
 4488 109e A8100000 		.4byte	0x10a8
 4489 10a2 00       		.byte	0
 4490 10a3 07       		.uleb128 0x7
 4491 10a4 A8100000 		.4byte	0x10a8
 4492 10a8 25       		.uleb128 0x25
 4493 10a9 06020000 		.4byte	.LASF208
 4494 10ad 07       		.uleb128 0x7
 4495 10ae 7E0B0000 		.4byte	0xb7e
 4496 10b2 0C       		.uleb128 0xc
 4497 10b3 663D0000 		.4byte	.LASF209
 4498 10b7 04       		.byte	0x4
 4499 10b8 0D       		.byte	0xd
 4500 10b9 0F       		.byte	0xf
ARM GAS  /tmp/ccyYK6L9.s 			page 80


 4501 10ba D7150000 		.4byte	0x15d7
 4502 10be 11       		.uleb128 0x11
 4503 10bf 69010000 		.4byte	0x169
 4504 10c3 00       		.byte	0
 4505 10c4 1A       		.uleb128 0x1a
 4506 10c5 CE440000 		.4byte	.LASF141
 4507 10c9 08       		.byte	0x8
 4508 10ca 0D       		.byte	0xd
 4509 10cb 11       		.byte	0x11
 4510 10cc 01       		.byte	0x1
 4511 10cd 04110000 		.4byte	0x1104
 4512 10d1 1B       		.uleb128 0x1b
 4513 10d2 50210000 		.4byte	.LASF142
 4514 10d6 0D       		.byte	0xd
 4515 10d7 12       		.byte	0x12
 4516 10d8 EA350000 		.4byte	0x35ea
 4517 10dc 00       		.byte	0
 4518 10dd 1B       		.uleb128 0x1b
 4519 10de 98130000 		.4byte	.LASF143
 4520 10e2 0D       		.byte	0xd
 4521 10e3 13       		.byte	0x13
 4522 10e4 15380000 		.4byte	0x3815
 4523 10e8 04       		.byte	0x4
 4524 10e9 1D       		.uleb128 0x1d
 4525 10ea CE440000 		.4byte	.LASF141
 4526 10ee 0D       		.byte	0xd
 4527 10ef 15       		.byte	0x15
 4528 10f0 EA350000 		.4byte	0x35ea
 4529 10f4 F8100000 		.4byte	0x10f8
 4530 10f8 0E       		.uleb128 0xe
 4531 10f9 EA350000 		.4byte	0x35ea
 4532 10fd 0B       		.uleb128 0xb
 4533 10fe 05380000 		.4byte	0x3805
 4534 1102 00       		.byte	0
 4535 1103 00       		.byte	0
 4536 1104 24       		.uleb128 0x24
 4537 1105 DC0E0000 		.4byte	.LASF110
 4538 1109 0D       		.byte	0xd
 4539 110a 8A01     		.2byte	0x18a
 4540 110c EA350000 		.4byte	0x35ea
 4541 1110 00       		.byte	0
 4542 1111 25       		.uleb128 0x25
 4543 1112 2A180000 		.4byte	.LASF144
 4544 1116 25       		.uleb128 0x25
 4545 1117 52220000 		.4byte	.LASF145
 4546 111b 25       		.uleb128 0x25
 4547 111c 8B3E0000 		.4byte	.LASF146
 4548 1120 25       		.uleb128 0x25
 4549 1121 E52E0000 		.4byte	.LASF147
 4550 1125 26       		.uleb128 0x26
 4551 1126 4F2D0000 		.4byte	.LASF148
 4552 112a 0D       		.byte	0xd
 4553 112b 8601     		.2byte	0x186
 4554 112d F0350000 		.4byte	0x35f0
 4555 1131 26       		.uleb128 0x26
 4556 1132 440E0000 		.4byte	.LASF149
 4557 1136 0D       		.byte	0xd
ARM GAS  /tmp/ccyYK6L9.s 			page 81


 4558 1137 8701     		.2byte	0x187
 4559 1139 0B360000 		.4byte	0x360b
 4560 113d 27       		.uleb128 0x27
 4561 113e 864A0000 		.4byte	.LASF150
 4562 1142 0D       		.byte	0xd
 4563 1143 8D01     		.2byte	0x18d
 4564 1145 CD170000 		.4byte	.LASF210
 4565 1149 25360000 		.4byte	0x3625
 4566 114d 01       		.byte	0x1
 4567 114e 56110000 		.4byte	0x1156
 4568 1152 5C110000 		.4byte	0x115c
 4569 1156 0E       		.uleb128 0xe
 4570 1157 2B360000 		.4byte	0x362b
 4571 115b 00       		.byte	0
 4572 115c 07       		.uleb128 0x7
 4573 115d C4100000 		.4byte	0x10c4
 4574 1161 27       		.uleb128 0x27
 4575 1162 DE290000 		.4byte	.LASF151
 4576 1166 0D       		.byte	0xd
 4577 1167 9101     		.2byte	0x191
 4578 1169 0F2D0000 		.4byte	.LASF211
 4579 116d 22310000 		.4byte	0x3122
 4580 1171 01       		.byte	0x1
 4581 1172 7A110000 		.4byte	0x117a
 4582 1176 80110000 		.4byte	0x1180
 4583 117a 0E       		.uleb128 0xe
 4584 117b 2B360000 		.4byte	0x362b
 4585 117f 00       		.byte	0
 4586 1180 27       		.uleb128 0x27
 4587 1181 23170000 		.4byte	.LASF154
 4588 1185 0D       		.byte	0xd
 4589 1186 0302     		.2byte	0x203
 4590 1188 68140000 		.4byte	.LASF212
 4591 118c 2C000000 		.4byte	0x2c
 4592 1190 01       		.byte	0x1
 4593 1191 99110000 		.4byte	0x1199
 4594 1195 9F110000 		.4byte	0x119f
 4595 1199 0E       		.uleb128 0xe
 4596 119a 2B360000 		.4byte	0x362b
 4597 119e 00       		.byte	0
 4598 119f 28       		.uleb128 0x28
 4599 11a0 2F360000 		.4byte	.LASF156
 4600 11a4 0D       		.byte	0xd
 4601 11a5 9701     		.2byte	0x197
 4602 11a7 A5140000 		.4byte	.LASF213
 4603 11ab 01       		.byte	0x1
 4604 11ac B4110000 		.4byte	0x11b4
 4605 11b0 BF110000 		.4byte	0x11bf
 4606 11b4 0E       		.uleb128 0xe
 4607 11b5 31360000 		.4byte	0x3631
 4608 11b9 0B       		.uleb128 0xb
 4609 11ba 37360000 		.4byte	0x3637
 4610 11be 00       		.byte	0
 4611 11bf 28       		.uleb128 0x28
 4612 11c0 113E0000 		.4byte	.LASF157
 4613 11c4 0D       		.byte	0xd
 4614 11c5 9F01     		.2byte	0x19f
ARM GAS  /tmp/ccyYK6L9.s 			page 82


 4615 11c7 6B070000 		.4byte	.LASF214
 4616 11cb 01       		.byte	0x1
 4617 11cc D4110000 		.4byte	0x11d4
 4618 11d0 DF110000 		.4byte	0x11df
 4619 11d4 0E       		.uleb128 0xe
 4620 11d5 31360000 		.4byte	0x3631
 4621 11d9 0B       		.uleb128 0xb
 4622 11da 37360000 		.4byte	0x3637
 4623 11de 00       		.byte	0
 4624 11df 27       		.uleb128 0x27
 4625 11e0 171E0000 		.4byte	.LASF160
 4626 11e4 0D       		.byte	0xd
 4627 11e5 0E02     		.2byte	0x20e
 4628 11e7 49200000 		.4byte	.LASF215
 4629 11eb 22310000 		.4byte	0x3122
 4630 11ef 01       		.byte	0x1
 4631 11f0 F8110000 		.4byte	0x11f8
 4632 11f4 03120000 		.4byte	0x1203
 4633 11f8 0E       		.uleb128 0xe
 4634 11f9 31360000 		.4byte	0x3631
 4635 11fd 0B       		.uleb128 0xb
 4636 11fe 37360000 		.4byte	0x3637
 4637 1202 00       		.byte	0
 4638 1203 27       		.uleb128 0x27
 4639 1204 90290000 		.4byte	.LASF162
 4640 1208 0D       		.byte	0xd
 4641 1209 1F02     		.2byte	0x21f
 4642 120b 4A410000 		.4byte	.LASF216
 4643 120f 25000000 		.4byte	0x25
 4644 1213 01       		.byte	0x1
 4645 1214 1C120000 		.4byte	0x121c
 4646 1218 27120000 		.4byte	0x1227
 4647 121c 0E       		.uleb128 0xe
 4648 121d 2B360000 		.4byte	0x362b
 4649 1221 0B       		.uleb128 0xb
 4650 1222 05360000 		.4byte	0x3605
 4651 1226 00       		.byte	0
 4652 1227 27       		.uleb128 0x27
 4653 1228 3E3B0000 		.4byte	.LASF164
 4654 122c 0D       		.byte	0xd
 4655 122d 2C02     		.2byte	0x22c
 4656 122f 152B0000 		.4byte	.LASF217
 4657 1233 22310000 		.4byte	0x3122
 4658 1237 01       		.byte	0x1
 4659 1238 40120000 		.4byte	0x1240
 4660 123c 4B120000 		.4byte	0x124b
 4661 1240 0E       		.uleb128 0xe
 4662 1241 2B360000 		.4byte	0x362b
 4663 1245 0B       		.uleb128 0xb
 4664 1246 05360000 		.4byte	0x3605
 4665 124a 00       		.byte	0
 4666 124b 27       		.uleb128 0x27
 4667 124c DD260000 		.4byte	.LASF166
 4668 1250 0D       		.byte	0xd
 4669 1251 3802     		.2byte	0x238
 4670 1253 4F040000 		.4byte	.LASF218
 4671 1257 3D360000 		.4byte	0x363d
ARM GAS  /tmp/ccyYK6L9.s 			page 83


 4672 125b 01       		.byte	0x1
 4673 125c 64120000 		.4byte	0x1264
 4674 1260 6F120000 		.4byte	0x126f
 4675 1264 0E       		.uleb128 0xe
 4676 1265 2B360000 		.4byte	0x362b
 4677 1269 0B       		.uleb128 0xb
 4678 126a 25110000 		.4byte	0x1125
 4679 126e 00       		.byte	0
 4680 126f 27       		.uleb128 0x27
 4681 1270 DD260000 		.4byte	.LASF166
 4682 1274 0D       		.byte	0xd
 4683 1275 4402     		.2byte	0x244
 4684 1277 3B360000 		.4byte	.LASF219
 4685 127b 3D360000 		.4byte	0x363d
 4686 127f 01       		.byte	0x1
 4687 1280 88120000 		.4byte	0x1288
 4688 1284 98120000 		.4byte	0x1298
 4689 1288 0E       		.uleb128 0xe
 4690 1289 2B360000 		.4byte	0x362b
 4691 128d 0B       		.uleb128 0xb
 4692 128e 31110000 		.4byte	0x1131
 4693 1292 0B       		.uleb128 0xb
 4694 1293 11350000 		.4byte	0x3511
 4695 1297 00       		.byte	0
 4696 1298 27       		.uleb128 0x27
 4697 1299 E90B0000 		.4byte	.LASF169
 4698 129d 0D       		.byte	0xd
 4699 129e B301     		.2byte	0x1b3
 4700 12a0 56400000 		.4byte	.LASF220
 4701 12a4 B7120000 		.4byte	0x12b7
 4702 12a8 01       		.byte	0x1
 4703 12a9 B1120000 		.4byte	0x12b1
 4704 12ad B7120000 		.4byte	0x12b7
 4705 12b1 0E       		.uleb128 0xe
 4706 12b2 31360000 		.4byte	0x3631
 4707 12b6 00       		.byte	0
 4708 12b7 07       		.uleb128 0x7
 4709 12b8 11110000 		.4byte	0x1111
 4710 12bc 27       		.uleb128 0x27
 4711 12bd D1230000 		.4byte	.LASF171
 4712 12c1 0D       		.byte	0xd
 4713 12c2 B701     		.2byte	0x1b7
 4714 12c4 2D060000 		.4byte	.LASF221
 4715 12c8 B7120000 		.4byte	0x12b7
 4716 12cc 01       		.byte	0x1
 4717 12cd D5120000 		.4byte	0x12d5
 4718 12d1 DB120000 		.4byte	0x12db
 4719 12d5 0E       		.uleb128 0xe
 4720 12d6 31360000 		.4byte	0x3631
 4721 12da 00       		.byte	0
 4722 12db 28       		.uleb128 0x28
 4723 12dc C04A0000 		.4byte	.LASF173
 4724 12e0 0D       		.byte	0xd
 4725 12e1 BB01     		.2byte	0x1bb
 4726 12e3 05250000 		.4byte	.LASF222
 4727 12e7 01       		.byte	0x1
 4728 12e8 F0120000 		.4byte	0x12f0
ARM GAS  /tmp/ccyYK6L9.s 			page 84


 4729 12ec FB120000 		.4byte	0x12fb
 4730 12f0 0E       		.uleb128 0xe
 4731 12f1 31360000 		.4byte	0x3631
 4732 12f5 0B       		.uleb128 0xb
 4733 12f6 43360000 		.4byte	0x3643
 4734 12fa 00       		.byte	0
 4735 12fb 27       		.uleb128 0x27
 4736 12fc E90B0000 		.4byte	.LASF169
 4737 1300 0D       		.byte	0xd
 4738 1301 BF01     		.2byte	0x1bf
 4739 1303 2E070000 		.4byte	.LASF223
 4740 1307 1A130000 		.4byte	0x131a
 4741 130b 01       		.byte	0x1
 4742 130c 14130000 		.4byte	0x1314
 4743 1310 1A130000 		.4byte	0x131a
 4744 1314 0E       		.uleb128 0xe
 4745 1315 2B360000 		.4byte	0x362b
 4746 1319 00       		.byte	0
 4747 131a 07       		.uleb128 0x7
 4748 131b 16110000 		.4byte	0x1116
 4749 131f 27       		.uleb128 0x27
 4750 1320 D1230000 		.4byte	.LASF171
 4751 1324 0D       		.byte	0xd
 4752 1325 C301     		.2byte	0x1c3
 4753 1327 E8160000 		.4byte	.LASF224
 4754 132b 1A130000 		.4byte	0x131a
 4755 132f 01       		.byte	0x1
 4756 1330 38130000 		.4byte	0x1338
 4757 1334 3E130000 		.4byte	0x133e
 4758 1338 0E       		.uleb128 0xe
 4759 1339 2B360000 		.4byte	0x362b
 4760 133d 00       		.byte	0
 4761 133e 28       		.uleb128 0x28
 4762 133f C04A0000 		.4byte	.LASF173
 4763 1343 0D       		.byte	0xd
 4764 1344 C701     		.2byte	0x1c7
 4765 1346 FC360000 		.4byte	.LASF225
 4766 134a 01       		.byte	0x1
 4767 134b 53130000 		.4byte	0x1353
 4768 134f 5E130000 		.4byte	0x135e
 4769 1353 0E       		.uleb128 0xe
 4770 1354 2B360000 		.4byte	0x362b
 4771 1358 0B       		.uleb128 0xb
 4772 1359 49360000 		.4byte	0x3649
 4773 135d 00       		.byte	0
 4774 135e 27       		.uleb128 0x27
 4775 135f FA440000 		.4byte	.LASF178
 4776 1363 0D       		.byte	0xd
 4777 1364 5302     		.2byte	0x253
 4778 1366 381A0000 		.4byte	.LASF226
 4779 136a 25360000 		.4byte	0x3625
 4780 136e 01       		.byte	0x1
 4781 136f 77130000 		.4byte	0x1377
 4782 1373 7D130000 		.4byte	0x137d
 4783 1377 0E       		.uleb128 0xe
 4784 1378 2B360000 		.4byte	0x362b
 4785 137c 00       		.byte	0
ARM GAS  /tmp/ccyYK6L9.s 			page 85


 4786 137d 27       		.uleb128 0x27
 4787 137e 94340000 		.4byte	.LASF180
 4788 1382 0D       		.byte	0xd
 4789 1383 5D02     		.2byte	0x25d
 4790 1385 9D340000 		.4byte	.LASF227
 4791 1389 22310000 		.4byte	0x3122
 4792 138d 01       		.byte	0x1
 4793 138e 96130000 		.4byte	0x1396
 4794 1392 9C130000 		.4byte	0x139c
 4795 1396 0E       		.uleb128 0xe
 4796 1397 2B360000 		.4byte	0x362b
 4797 139b 00       		.byte	0
 4798 139c 27       		.uleb128 0x27
 4799 139d 24270000 		.4byte	.LASF109
 4800 13a1 0D       		.byte	0xd
 4801 13a2 6702     		.2byte	0x267
 4802 13a4 E53F0000 		.4byte	.LASF228
 4803 13a8 2C000000 		.4byte	0x2c
 4804 13ac 01       		.byte	0x1
 4805 13ad B5130000 		.4byte	0x13b5
 4806 13b1 BB130000 		.4byte	0x13bb
 4807 13b5 0E       		.uleb128 0xe
 4808 13b6 2B360000 		.4byte	0x362b
 4809 13ba 00       		.byte	0
 4810 13bb 28       		.uleb128 0x28
 4811 13bc 30170000 		.4byte	.LASF183
 4812 13c0 0D       		.byte	0xd
 4813 13c1 7602     		.2byte	0x276
 4814 13c3 F2430000 		.4byte	.LASF229
 4815 13c7 01       		.byte	0x1
 4816 13c8 D0130000 		.4byte	0x13d0
 4817 13cc DB130000 		.4byte	0x13db
 4818 13d0 0E       		.uleb128 0xe
 4819 13d1 31360000 		.4byte	0x3631
 4820 13d5 0B       		.uleb128 0xb
 4821 13d6 37360000 		.4byte	0x3637
 4822 13da 00       		.byte	0
 4823 13db 27       		.uleb128 0x27
 4824 13dc 2D0F0000 		.4byte	.LASF185
 4825 13e0 0D       		.byte	0xd
 4826 13e1 8002     		.2byte	0x280
 4827 13e3 E7100000 		.4byte	.LASF230
 4828 13e7 22310000 		.4byte	0x3122
 4829 13eb 01       		.byte	0x1
 4830 13ec F4130000 		.4byte	0x13f4
 4831 13f0 FF130000 		.4byte	0x13ff
 4832 13f4 0E       		.uleb128 0xe
 4833 13f5 31360000 		.4byte	0x3631
 4834 13f9 0B       		.uleb128 0xb
 4835 13fa 37360000 		.4byte	0x3637
 4836 13fe 00       		.byte	0
 4837 13ff 27       		.uleb128 0x27
 4838 1400 B22A0000 		.4byte	.LASF187
 4839 1404 0D       		.byte	0xd
 4840 1405 8A02     		.2byte	0x28a
 4841 1407 1A400000 		.4byte	.LASF231
 4842 140b 25000000 		.4byte	0x25
ARM GAS  /tmp/ccyYK6L9.s 			page 86


 4843 140f 01       		.byte	0x1
 4844 1410 18140000 		.4byte	0x1418
 4845 1414 23140000 		.4byte	0x1423
 4846 1418 0E       		.uleb128 0xe
 4847 1419 2B360000 		.4byte	0x362b
 4848 141d 0B       		.uleb128 0xb
 4849 141e 05360000 		.4byte	0x3605
 4850 1422 00       		.byte	0
 4851 1423 27       		.uleb128 0x27
 4852 1424 8F1A0000 		.4byte	.LASF189
 4853 1428 0D       		.byte	0xd
 4854 1429 9B02     		.2byte	0x29b
 4855 142b AB460000 		.4byte	.LASF232
 4856 142f 22310000 		.4byte	0x3122
 4857 1433 01       		.byte	0x1
 4858 1434 3C140000 		.4byte	0x143c
 4859 1438 47140000 		.4byte	0x1447
 4860 143c 0E       		.uleb128 0xe
 4861 143d 2B360000 		.4byte	0x362b
 4862 1441 0B       		.uleb128 0xb
 4863 1442 05360000 		.4byte	0x3605
 4864 1446 00       		.byte	0
 4865 1447 27       		.uleb128 0x27
 4866 1448 AA2D0000 		.4byte	.LASF191
 4867 144c 0D       		.byte	0xd
 4868 144d AC02     		.2byte	0x2ac
 4869 144f 8B440000 		.4byte	.LASF233
 4870 1453 3D360000 		.4byte	0x363d
 4871 1457 01       		.byte	0x1
 4872 1458 60140000 		.4byte	0x1460
 4873 145c 6B140000 		.4byte	0x146b
 4874 1460 0E       		.uleb128 0xe
 4875 1461 2B360000 		.4byte	0x362b
 4876 1465 0B       		.uleb128 0xb
 4877 1466 25110000 		.4byte	0x1125
 4878 146a 00       		.byte	0
 4879 146b 27       		.uleb128 0x27
 4880 146c AA2D0000 		.4byte	.LASF191
 4881 1470 0D       		.byte	0xd
 4882 1471 BC02     		.2byte	0x2bc
 4883 1473 B9390000 		.4byte	.LASF234
 4884 1477 3D360000 		.4byte	0x363d
 4885 147b 01       		.byte	0x1
 4886 147c 84140000 		.4byte	0x1484
 4887 1480 94140000 		.4byte	0x1494
 4888 1484 0E       		.uleb128 0xe
 4889 1485 2B360000 		.4byte	0x362b
 4890 1489 0B       		.uleb128 0xb
 4891 148a 31110000 		.4byte	0x1131
 4892 148e 0B       		.uleb128 0xb
 4893 148f 11350000 		.4byte	0x3511
 4894 1493 00       		.byte	0
 4895 1494 27       		.uleb128 0x27
 4896 1495 6F4A0000 		.4byte	.LASF194
 4897 1499 0D       		.byte	0xd
 4898 149a E001     		.2byte	0x1e0
 4899 149c FD0F0000 		.4byte	.LASF235
ARM GAS  /tmp/ccyYK6L9.s 			page 87


 4900 14a0 B3140000 		.4byte	0x14b3
 4901 14a4 01       		.byte	0x1
 4902 14a5 AD140000 		.4byte	0x14ad
 4903 14a9 B3140000 		.4byte	0x14b3
 4904 14ad 0E       		.uleb128 0xe
 4905 14ae 31360000 		.4byte	0x3631
 4906 14b2 00       		.byte	0
 4907 14b3 07       		.uleb128 0x7
 4908 14b4 1B110000 		.4byte	0x111b
 4909 14b8 29       		.uleb128 0x29
 4910 14b9 656E6400 		.ascii	"end\000"
 4911 14bd 0D       		.byte	0xd
 4912 14be E401     		.2byte	0x1e4
 4913 14c0 7F100000 		.4byte	.LASF236
 4914 14c4 B3140000 		.4byte	0x14b3
 4915 14c8 01       		.byte	0x1
 4916 14c9 D1140000 		.4byte	0x14d1
 4917 14cd D7140000 		.4byte	0x14d7
 4918 14d1 0E       		.uleb128 0xe
 4919 14d2 31360000 		.4byte	0x3631
 4920 14d6 00       		.byte	0
 4921 14d7 28       		.uleb128 0x28
 4922 14d8 1A0E0000 		.4byte	.LASF196
 4923 14dc 0D       		.byte	0xd
 4924 14dd E801     		.2byte	0x1e8
 4925 14df 4E120000 		.4byte	.LASF237
 4926 14e3 01       		.byte	0x1
 4927 14e4 EC140000 		.4byte	0x14ec
 4928 14e8 F7140000 		.4byte	0x14f7
 4929 14ec 0E       		.uleb128 0xe
 4930 14ed 31360000 		.4byte	0x3631
 4931 14f1 0B       		.uleb128 0xb
 4932 14f2 4F360000 		.4byte	0x364f
 4933 14f6 00       		.byte	0
 4934 14f7 27       		.uleb128 0x27
 4935 14f8 6F4A0000 		.4byte	.LASF194
 4936 14fc 0D       		.byte	0xd
 4937 14fd EC01     		.2byte	0x1ec
 4938 14ff A8300000 		.4byte	.LASF238
 4939 1503 16150000 		.4byte	0x1516
 4940 1507 01       		.byte	0x1
 4941 1508 10150000 		.4byte	0x1510
 4942 150c 16150000 		.4byte	0x1516
 4943 1510 0E       		.uleb128 0xe
 4944 1511 2B360000 		.4byte	0x362b
 4945 1515 00       		.byte	0
 4946 1516 07       		.uleb128 0x7
 4947 1517 20110000 		.4byte	0x1120
 4948 151b 29       		.uleb128 0x29
 4949 151c 656E6400 		.ascii	"end\000"
 4950 1520 0D       		.byte	0xd
 4951 1521 F201     		.2byte	0x1f2
 4952 1523 EE290000 		.4byte	.LASF239
 4953 1527 16150000 		.4byte	0x1516
 4954 152b 01       		.byte	0x1
 4955 152c 34150000 		.4byte	0x1534
 4956 1530 3A150000 		.4byte	0x153a
ARM GAS  /tmp/ccyYK6L9.s 			page 88


 4957 1534 0E       		.uleb128 0xe
 4958 1535 2B360000 		.4byte	0x362b
 4959 1539 00       		.byte	0
 4960 153a 28       		.uleb128 0x28
 4961 153b 1A0E0000 		.4byte	.LASF196
 4962 153f 0D       		.byte	0xd
 4963 1540 F601     		.2byte	0x1f6
 4964 1542 27240000 		.4byte	.LASF240
 4965 1546 01       		.byte	0x1
 4966 1547 4F150000 		.4byte	0x154f
 4967 154b 5A150000 		.4byte	0x155a
 4968 154f 0E       		.uleb128 0xe
 4969 1550 2B360000 		.4byte	0x362b
 4970 1554 0B       		.uleb128 0xb
 4971 1555 55360000 		.4byte	0x3655
 4972 1559 00       		.byte	0
 4973 155a 2A       		.uleb128 0x2a
 4974 155b 1D0C0000 		.4byte	.LASF202
 4975 155f 0D       		.byte	0xd
 4976 1560 FA01     		.2byte	0x1fa
 4977 1562 31360000 		.4byte	0x3631
 4978 1566 01       		.byte	0x1
 4979 1567 6F150000 		.4byte	0x156f
 4980 156b 75150000 		.4byte	0x1575
 4981 156f 0E       		.uleb128 0xe
 4982 1570 31360000 		.4byte	0x3631
 4983 1574 00       		.byte	0
 4984 1575 2B       		.uleb128 0x2b
 4985 1576 26300000 		.4byte	.LASF203
 4986 157a B4000000 		.4byte	0xb4
 4987 157e 01       		.byte	0x1
 4988 157f 87150000 		.4byte	0x1587
 4989 1583 92150000 		.4byte	0x1592
 4990 1587 0E       		.uleb128 0xe
 4991 1588 31360000 		.4byte	0x3631
 4992 158c 0E       		.uleb128 0xe
 4993 158d 25000000 		.4byte	0x25
 4994 1591 00       		.byte	0
 4995 1592 27       		.uleb128 0x27
 4996 1593 68430000 		.4byte	.LASF241
 4997 1597 0D       		.byte	0xd
 4998 1598 DB01     		.2byte	0x1db
 4999 159a 6F2F0000 		.4byte	.LASF242
 5000 159e 3D360000 		.4byte	0x363d
 5001 15a2 01       		.byte	0x1
 5002 15a3 BD150000 		.4byte	0x15bd
 5003 15a7 CD150000 		.4byte	0x15cd
 5004 15ab 22       		.uleb128 0x22
 5005 15ac 440E0000 		.4byte	.LASF149
 5006 15b0 5A430000 		.4byte	0x435a
 5007 15b4 22       		.uleb128 0x22
 5008 15b5 29310000 		.4byte	.LASF207
 5009 15b9 BC000000 		.4byte	0xbc
 5010 15bd 0E       		.uleb128 0xe
 5011 15be 2B360000 		.4byte	0x362b
 5012 15c2 0B       		.uleb128 0xb
 5013 15c3 5A430000 		.4byte	0x435a
ARM GAS  /tmp/ccyYK6L9.s 			page 89


 5014 15c7 0B       		.uleb128 0xb
 5015 15c8 C3000000 		.4byte	0xc3
 5016 15cc 00       		.byte	0
 5017 15cd 22       		.uleb128 0x22
 5018 15ce 96190000 		.4byte	.LASF206
 5019 15d2 DC150000 		.4byte	0x15dc
 5020 15d6 00       		.byte	0
 5021 15d7 07       		.uleb128 0x7
 5022 15d8 DC150000 		.4byte	0x15dc
 5023 15dc 25       		.uleb128 0x25
 5024 15dd C63D0000 		.4byte	.LASF243
 5025 15e1 07       		.uleb128 0x7
 5026 15e2 B2100000 		.4byte	0x10b2
 5027 15e6 0C       		.uleb128 0xc
 5028 15e7 EB010000 		.4byte	.LASF244
 5029 15eb 04       		.byte	0x4
 5030 15ec 0D       		.byte	0xd
 5031 15ed 0F       		.byte	0xf
 5032 15ee B31A0000 		.4byte	0x1ab3
 5033 15f2 11       		.uleb128 0x11
 5034 15f3 69010000 		.4byte	0x169
 5035 15f7 00       		.byte	0
 5036 15f8 1A       		.uleb128 0x1a
 5037 15f9 CE440000 		.4byte	.LASF141
 5038 15fd 08       		.byte	0x8
 5039 15fe 0D       		.byte	0xd
 5040 15ff 11       		.byte	0x11
 5041 1600 01       		.byte	0x1
 5042 1601 38160000 		.4byte	0x1638
 5043 1605 1B       		.uleb128 0x1b
 5044 1606 50210000 		.4byte	.LASF142
 5045 160a 0D       		.byte	0xd
 5046 160b 12       		.byte	0x12
 5047 160c 5B360000 		.4byte	0x365b
 5048 1610 00       		.byte	0
 5049 1611 1B       		.uleb128 0x1b
 5050 1612 98130000 		.4byte	.LASF143
 5051 1616 0D       		.byte	0xd
 5052 1617 13       		.byte	0x13
 5053 1618 CC360000 		.4byte	0x36cc
 5054 161c 04       		.byte	0x4
 5055 161d 1D       		.uleb128 0x1d
 5056 161e CE440000 		.4byte	.LASF141
 5057 1622 0D       		.byte	0xd
 5058 1623 15       		.byte	0x15
 5059 1624 5B360000 		.4byte	0x365b
 5060 1628 2C160000 		.4byte	0x162c
 5061 162c 0E       		.uleb128 0xe
 5062 162d 5B360000 		.4byte	0x365b
 5063 1631 0B       		.uleb128 0xb
 5064 1632 D1360000 		.4byte	0x36d1
 5065 1636 00       		.byte	0
 5066 1637 00       		.byte	0
 5067 1638 24       		.uleb128 0x24
 5068 1639 DC0E0000 		.4byte	.LASF110
 5069 163d 0D       		.byte	0xd
 5070 163e 8A01     		.2byte	0x18a
ARM GAS  /tmp/ccyYK6L9.s 			page 90


 5071 1640 5B360000 		.4byte	0x365b
 5072 1644 00       		.byte	0
 5073 1645 25       		.uleb128 0x25
 5074 1646 2A180000 		.4byte	.LASF144
 5075 164a 25       		.uleb128 0x25
 5076 164b 52220000 		.4byte	.LASF145
 5077 164f 25       		.uleb128 0x25
 5078 1650 8B3E0000 		.4byte	.LASF146
 5079 1654 25       		.uleb128 0x25
 5080 1655 E52E0000 		.4byte	.LASF147
 5081 1659 26       		.uleb128 0x26
 5082 165a 4F2D0000 		.4byte	.LASF148
 5083 165e 0D       		.byte	0xd
 5084 165f 8601     		.2byte	0x186
 5085 1661 61360000 		.4byte	0x3661
 5086 1665 26       		.uleb128 0x26
 5087 1666 440E0000 		.4byte	.LASF149
 5088 166a 0D       		.byte	0xd
 5089 166b 8701     		.2byte	0x187
 5090 166d 7C360000 		.4byte	0x367c
 5091 1671 27       		.uleb128 0x27
 5092 1672 864A0000 		.4byte	.LASF150
 5093 1676 0D       		.byte	0xd
 5094 1677 8D01     		.2byte	0x18d
 5095 1679 580D0000 		.4byte	.LASF245
 5096 167d 96360000 		.4byte	0x3696
 5097 1681 01       		.byte	0x1
 5098 1682 8A160000 		.4byte	0x168a
 5099 1686 90160000 		.4byte	0x1690
 5100 168a 0E       		.uleb128 0xe
 5101 168b 9C360000 		.4byte	0x369c
 5102 168f 00       		.byte	0
 5103 1690 07       		.uleb128 0x7
 5104 1691 F8150000 		.4byte	0x15f8
 5105 1695 27       		.uleb128 0x27
 5106 1696 DE290000 		.4byte	.LASF151
 5107 169a 0D       		.byte	0xd
 5108 169b 9101     		.2byte	0x191
 5109 169d DA190000 		.4byte	.LASF246
 5110 16a1 22310000 		.4byte	0x3122
 5111 16a5 01       		.byte	0x1
 5112 16a6 AE160000 		.4byte	0x16ae
 5113 16aa B4160000 		.4byte	0x16b4
 5114 16ae 0E       		.uleb128 0xe
 5115 16af 9C360000 		.4byte	0x369c
 5116 16b3 00       		.byte	0
 5117 16b4 27       		.uleb128 0x27
 5118 16b5 23170000 		.4byte	.LASF154
 5119 16b9 0D       		.byte	0xd
 5120 16ba 0302     		.2byte	0x203
 5121 16bc 93170000 		.4byte	.LASF247
 5122 16c0 2C000000 		.4byte	0x2c
 5123 16c4 01       		.byte	0x1
 5124 16c5 CD160000 		.4byte	0x16cd
 5125 16c9 D3160000 		.4byte	0x16d3
 5126 16cd 0E       		.uleb128 0xe
 5127 16ce 9C360000 		.4byte	0x369c
ARM GAS  /tmp/ccyYK6L9.s 			page 91


 5128 16d2 00       		.byte	0
 5129 16d3 28       		.uleb128 0x28
 5130 16d4 2F360000 		.4byte	.LASF156
 5131 16d8 0D       		.byte	0xd
 5132 16d9 9701     		.2byte	0x197
 5133 16db 14350000 		.4byte	.LASF248
 5134 16df 01       		.byte	0x1
 5135 16e0 E8160000 		.4byte	0x16e8
 5136 16e4 F3160000 		.4byte	0x16f3
 5137 16e8 0E       		.uleb128 0xe
 5138 16e9 A2360000 		.4byte	0x36a2
 5139 16ed 0B       		.uleb128 0xb
 5140 16ee A8360000 		.4byte	0x36a8
 5141 16f2 00       		.byte	0
 5142 16f3 28       		.uleb128 0x28
 5143 16f4 113E0000 		.4byte	.LASF157
 5144 16f8 0D       		.byte	0xd
 5145 16f9 9F01     		.2byte	0x19f
 5146 16fb FC3A0000 		.4byte	.LASF249
 5147 16ff 01       		.byte	0x1
 5148 1700 08170000 		.4byte	0x1708
 5149 1704 13170000 		.4byte	0x1713
 5150 1708 0E       		.uleb128 0xe
 5151 1709 A2360000 		.4byte	0x36a2
 5152 170d 0B       		.uleb128 0xb
 5153 170e A8360000 		.4byte	0x36a8
 5154 1712 00       		.byte	0
 5155 1713 27       		.uleb128 0x27
 5156 1714 171E0000 		.4byte	.LASF160
 5157 1718 0D       		.byte	0xd
 5158 1719 0E02     		.2byte	0x20e
 5159 171b D8050000 		.4byte	.LASF250
 5160 171f 22310000 		.4byte	0x3122
 5161 1723 01       		.byte	0x1
 5162 1724 2C170000 		.4byte	0x172c
 5163 1728 37170000 		.4byte	0x1737
 5164 172c 0E       		.uleb128 0xe
 5165 172d A2360000 		.4byte	0x36a2
 5166 1731 0B       		.uleb128 0xb
 5167 1732 A8360000 		.4byte	0x36a8
 5168 1736 00       		.byte	0
 5169 1737 27       		.uleb128 0x27
 5170 1738 90290000 		.4byte	.LASF162
 5171 173c 0D       		.byte	0xd
 5172 173d 1F02     		.2byte	0x21f
 5173 173f 2C140000 		.4byte	.LASF251
 5174 1743 25000000 		.4byte	0x25
 5175 1747 01       		.byte	0x1
 5176 1748 50170000 		.4byte	0x1750
 5177 174c 5B170000 		.4byte	0x175b
 5178 1750 0E       		.uleb128 0xe
 5179 1751 9C360000 		.4byte	0x369c
 5180 1755 0B       		.uleb128 0xb
 5181 1756 76360000 		.4byte	0x3676
 5182 175a 00       		.byte	0
 5183 175b 27       		.uleb128 0x27
 5184 175c 3E3B0000 		.4byte	.LASF164
ARM GAS  /tmp/ccyYK6L9.s 			page 92


 5185 1760 0D       		.byte	0xd
 5186 1761 2C02     		.2byte	0x22c
 5187 1763 45160000 		.4byte	.LASF252
 5188 1767 22310000 		.4byte	0x3122
 5189 176b 01       		.byte	0x1
 5190 176c 74170000 		.4byte	0x1774
 5191 1770 7F170000 		.4byte	0x177f
 5192 1774 0E       		.uleb128 0xe
 5193 1775 9C360000 		.4byte	0x369c
 5194 1779 0B       		.uleb128 0xb
 5195 177a 76360000 		.4byte	0x3676
 5196 177e 00       		.byte	0
 5197 177f 27       		.uleb128 0x27
 5198 1780 DD260000 		.4byte	.LASF166
 5199 1784 0D       		.byte	0xd
 5200 1785 3802     		.2byte	0x238
 5201 1787 12490000 		.4byte	.LASF253
 5202 178b AE360000 		.4byte	0x36ae
 5203 178f 01       		.byte	0x1
 5204 1790 98170000 		.4byte	0x1798
 5205 1794 A3170000 		.4byte	0x17a3
 5206 1798 0E       		.uleb128 0xe
 5207 1799 9C360000 		.4byte	0x369c
 5208 179d 0B       		.uleb128 0xb
 5209 179e 59160000 		.4byte	0x1659
 5210 17a2 00       		.byte	0
 5211 17a3 27       		.uleb128 0x27
 5212 17a4 DD260000 		.4byte	.LASF166
 5213 17a8 0D       		.byte	0xd
 5214 17a9 4402     		.2byte	0x244
 5215 17ab D9060000 		.4byte	.LASF254
 5216 17af AE360000 		.4byte	0x36ae
 5217 17b3 01       		.byte	0x1
 5218 17b4 BC170000 		.4byte	0x17bc
 5219 17b8 CC170000 		.4byte	0x17cc
 5220 17bc 0E       		.uleb128 0xe
 5221 17bd 9C360000 		.4byte	0x369c
 5222 17c1 0B       		.uleb128 0xb
 5223 17c2 65160000 		.4byte	0x1665
 5224 17c6 0B       		.uleb128 0xb
 5225 17c7 11350000 		.4byte	0x3511
 5226 17cb 00       		.byte	0
 5227 17cc 27       		.uleb128 0x27
 5228 17cd E90B0000 		.4byte	.LASF169
 5229 17d1 0D       		.byte	0xd
 5230 17d2 B301     		.2byte	0x1b3
 5231 17d4 A7330000 		.4byte	.LASF255
 5232 17d8 EB170000 		.4byte	0x17eb
 5233 17dc 01       		.byte	0x1
 5234 17dd E5170000 		.4byte	0x17e5
 5235 17e1 EB170000 		.4byte	0x17eb
 5236 17e5 0E       		.uleb128 0xe
 5237 17e6 A2360000 		.4byte	0x36a2
 5238 17ea 00       		.byte	0
 5239 17eb 07       		.uleb128 0x7
 5240 17ec 45160000 		.4byte	0x1645
 5241 17f0 27       		.uleb128 0x27
ARM GAS  /tmp/ccyYK6L9.s 			page 93


 5242 17f1 D1230000 		.4byte	.LASF171
 5243 17f5 0D       		.byte	0xd
 5244 17f6 B701     		.2byte	0x1b7
 5245 17f8 18410000 		.4byte	.LASF256
 5246 17fc EB170000 		.4byte	0x17eb
 5247 1800 01       		.byte	0x1
 5248 1801 09180000 		.4byte	0x1809
 5249 1805 0F180000 		.4byte	0x180f
 5250 1809 0E       		.uleb128 0xe
 5251 180a A2360000 		.4byte	0x36a2
 5252 180e 00       		.byte	0
 5253 180f 28       		.uleb128 0x28
 5254 1810 C04A0000 		.4byte	.LASF173
 5255 1814 0D       		.byte	0xd
 5256 1815 BB01     		.2byte	0x1bb
 5257 1817 59280000 		.4byte	.LASF257
 5258 181b 01       		.byte	0x1
 5259 181c 24180000 		.4byte	0x1824
 5260 1820 2F180000 		.4byte	0x182f
 5261 1824 0E       		.uleb128 0xe
 5262 1825 A2360000 		.4byte	0x36a2
 5263 1829 0B       		.uleb128 0xb
 5264 182a B4360000 		.4byte	0x36b4
 5265 182e 00       		.byte	0
 5266 182f 27       		.uleb128 0x27
 5267 1830 E90B0000 		.4byte	.LASF169
 5268 1834 0D       		.byte	0xd
 5269 1835 BF01     		.2byte	0x1bf
 5270 1837 620B0000 		.4byte	.LASF258
 5271 183b 4E180000 		.4byte	0x184e
 5272 183f 01       		.byte	0x1
 5273 1840 48180000 		.4byte	0x1848
 5274 1844 4E180000 		.4byte	0x184e
 5275 1848 0E       		.uleb128 0xe
 5276 1849 9C360000 		.4byte	0x369c
 5277 184d 00       		.byte	0
 5278 184e 07       		.uleb128 0x7
 5279 184f 4A160000 		.4byte	0x164a
 5280 1853 27       		.uleb128 0x27
 5281 1854 D1230000 		.4byte	.LASF171
 5282 1858 0D       		.byte	0xd
 5283 1859 C301     		.2byte	0x1c3
 5284 185b 373A0000 		.4byte	.LASF259
 5285 185f 4E180000 		.4byte	0x184e
 5286 1863 01       		.byte	0x1
 5287 1864 6C180000 		.4byte	0x186c
 5288 1868 72180000 		.4byte	0x1872
 5289 186c 0E       		.uleb128 0xe
 5290 186d 9C360000 		.4byte	0x369c
 5291 1871 00       		.byte	0
 5292 1872 28       		.uleb128 0x28
 5293 1873 C04A0000 		.4byte	.LASF173
 5294 1877 0D       		.byte	0xd
 5295 1878 C701     		.2byte	0x1c7
 5296 187a AA270000 		.4byte	.LASF260
 5297 187e 01       		.byte	0x1
 5298 187f 87180000 		.4byte	0x1887
ARM GAS  /tmp/ccyYK6L9.s 			page 94


 5299 1883 92180000 		.4byte	0x1892
 5300 1887 0E       		.uleb128 0xe
 5301 1888 9C360000 		.4byte	0x369c
 5302 188c 0B       		.uleb128 0xb
 5303 188d BA360000 		.4byte	0x36ba
 5304 1891 00       		.byte	0
 5305 1892 27       		.uleb128 0x27
 5306 1893 FA440000 		.4byte	.LASF178
 5307 1897 0D       		.byte	0xd
 5308 1898 5302     		.2byte	0x253
 5309 189a C5180000 		.4byte	.LASF261
 5310 189e 96360000 		.4byte	0x3696
 5311 18a2 01       		.byte	0x1
 5312 18a3 AB180000 		.4byte	0x18ab
 5313 18a7 B1180000 		.4byte	0x18b1
 5314 18ab 0E       		.uleb128 0xe
 5315 18ac 9C360000 		.4byte	0x369c
 5316 18b0 00       		.byte	0
 5317 18b1 27       		.uleb128 0x27
 5318 18b2 94340000 		.4byte	.LASF180
 5319 18b6 0D       		.byte	0xd
 5320 18b7 5D02     		.2byte	0x25d
 5321 18b9 6B320000 		.4byte	.LASF262
 5322 18bd 22310000 		.4byte	0x3122
 5323 18c1 01       		.byte	0x1
 5324 18c2 CA180000 		.4byte	0x18ca
 5325 18c6 D0180000 		.4byte	0x18d0
 5326 18ca 0E       		.uleb128 0xe
 5327 18cb 9C360000 		.4byte	0x369c
 5328 18cf 00       		.byte	0
 5329 18d0 27       		.uleb128 0x27
 5330 18d1 24270000 		.4byte	.LASF109
 5331 18d5 0D       		.byte	0xd
 5332 18d6 6702     		.2byte	0x267
 5333 18d8 BE020000 		.4byte	.LASF263
 5334 18dc 2C000000 		.4byte	0x2c
 5335 18e0 01       		.byte	0x1
 5336 18e1 E9180000 		.4byte	0x18e9
 5337 18e5 EF180000 		.4byte	0x18ef
 5338 18e9 0E       		.uleb128 0xe
 5339 18ea 9C360000 		.4byte	0x369c
 5340 18ee 00       		.byte	0
 5341 18ef 28       		.uleb128 0x28
 5342 18f0 30170000 		.4byte	.LASF183
 5343 18f4 0D       		.byte	0xd
 5344 18f5 7602     		.2byte	0x276
 5345 18f7 EF260000 		.4byte	.LASF264
 5346 18fb 01       		.byte	0x1
 5347 18fc 04190000 		.4byte	0x1904
 5348 1900 0F190000 		.4byte	0x190f
 5349 1904 0E       		.uleb128 0xe
 5350 1905 A2360000 		.4byte	0x36a2
 5351 1909 0B       		.uleb128 0xb
 5352 190a A8360000 		.4byte	0x36a8
 5353 190e 00       		.byte	0
 5354 190f 27       		.uleb128 0x27
 5355 1910 2D0F0000 		.4byte	.LASF185
ARM GAS  /tmp/ccyYK6L9.s 			page 95


 5356 1914 0D       		.byte	0xd
 5357 1915 8002     		.2byte	0x280
 5358 1917 C82C0000 		.4byte	.LASF265
 5359 191b 22310000 		.4byte	0x3122
 5360 191f 01       		.byte	0x1
 5361 1920 28190000 		.4byte	0x1928
 5362 1924 33190000 		.4byte	0x1933
 5363 1928 0E       		.uleb128 0xe
 5364 1929 A2360000 		.4byte	0x36a2
 5365 192d 0B       		.uleb128 0xb
 5366 192e A8360000 		.4byte	0x36a8
 5367 1932 00       		.byte	0
 5368 1933 27       		.uleb128 0x27
 5369 1934 B22A0000 		.4byte	.LASF187
 5370 1938 0D       		.byte	0xd
 5371 1939 8A02     		.2byte	0x28a
 5372 193b 3F230000 		.4byte	.LASF266
 5373 193f 25000000 		.4byte	0x25
 5374 1943 01       		.byte	0x1
 5375 1944 4C190000 		.4byte	0x194c
 5376 1948 57190000 		.4byte	0x1957
 5377 194c 0E       		.uleb128 0xe
 5378 194d 9C360000 		.4byte	0x369c
 5379 1951 0B       		.uleb128 0xb
 5380 1952 76360000 		.4byte	0x3676
 5381 1956 00       		.byte	0
 5382 1957 27       		.uleb128 0x27
 5383 1958 8F1A0000 		.4byte	.LASF189
 5384 195c 0D       		.byte	0xd
 5385 195d 9B02     		.2byte	0x29b
 5386 195f D6280000 		.4byte	.LASF267
 5387 1963 22310000 		.4byte	0x3122
 5388 1967 01       		.byte	0x1
 5389 1968 70190000 		.4byte	0x1970
 5390 196c 7B190000 		.4byte	0x197b
 5391 1970 0E       		.uleb128 0xe
 5392 1971 9C360000 		.4byte	0x369c
 5393 1975 0B       		.uleb128 0xb
 5394 1976 76360000 		.4byte	0x3676
 5395 197a 00       		.byte	0
 5396 197b 27       		.uleb128 0x27
 5397 197c AA2D0000 		.4byte	.LASF191
 5398 1980 0D       		.byte	0xd
 5399 1981 AC02     		.2byte	0x2ac
 5400 1983 79490000 		.4byte	.LASF268
 5401 1987 AE360000 		.4byte	0x36ae
 5402 198b 01       		.byte	0x1
 5403 198c 94190000 		.4byte	0x1994
 5404 1990 9F190000 		.4byte	0x199f
 5405 1994 0E       		.uleb128 0xe
 5406 1995 9C360000 		.4byte	0x369c
 5407 1999 0B       		.uleb128 0xb
 5408 199a 59160000 		.4byte	0x1659
 5409 199e 00       		.byte	0
 5410 199f 27       		.uleb128 0x27
 5411 19a0 AA2D0000 		.4byte	.LASF191
 5412 19a4 0D       		.byte	0xd
ARM GAS  /tmp/ccyYK6L9.s 			page 96


 5413 19a5 BC02     		.2byte	0x2bc
 5414 19a7 B2370000 		.4byte	.LASF269
 5415 19ab AE360000 		.4byte	0x36ae
 5416 19af 01       		.byte	0x1
 5417 19b0 B8190000 		.4byte	0x19b8
 5418 19b4 C8190000 		.4byte	0x19c8
 5419 19b8 0E       		.uleb128 0xe
 5420 19b9 9C360000 		.4byte	0x369c
 5421 19bd 0B       		.uleb128 0xb
 5422 19be 65160000 		.4byte	0x1665
 5423 19c2 0B       		.uleb128 0xb
 5424 19c3 11350000 		.4byte	0x3511
 5425 19c7 00       		.byte	0
 5426 19c8 27       		.uleb128 0x27
 5427 19c9 6F4A0000 		.4byte	.LASF194
 5428 19cd 0D       		.byte	0xd
 5429 19ce E001     		.2byte	0x1e0
 5430 19d0 A4050000 		.4byte	.LASF270
 5431 19d4 E7190000 		.4byte	0x19e7
 5432 19d8 01       		.byte	0x1
 5433 19d9 E1190000 		.4byte	0x19e1
 5434 19dd E7190000 		.4byte	0x19e7
 5435 19e1 0E       		.uleb128 0xe
 5436 19e2 A2360000 		.4byte	0x36a2
 5437 19e6 00       		.byte	0
 5438 19e7 07       		.uleb128 0x7
 5439 19e8 4F160000 		.4byte	0x164f
 5440 19ec 29       		.uleb128 0x29
 5441 19ed 656E6400 		.ascii	"end\000"
 5442 19f1 0D       		.byte	0xd
 5443 19f2 E401     		.2byte	0x1e4
 5444 19f4 223E0000 		.4byte	.LASF271
 5445 19f8 E7190000 		.4byte	0x19e7
 5446 19fc 01       		.byte	0x1
 5447 19fd 051A0000 		.4byte	0x1a05
 5448 1a01 0B1A0000 		.4byte	0x1a0b
 5449 1a05 0E       		.uleb128 0xe
 5450 1a06 A2360000 		.4byte	0x36a2
 5451 1a0a 00       		.byte	0
 5452 1a0b 28       		.uleb128 0x28
 5453 1a0c 1A0E0000 		.4byte	.LASF196
 5454 1a10 0D       		.byte	0xd
 5455 1a11 E801     		.2byte	0x1e8
 5456 1a13 77470000 		.4byte	.LASF272
 5457 1a17 01       		.byte	0x1
 5458 1a18 201A0000 		.4byte	0x1a20
 5459 1a1c 2B1A0000 		.4byte	0x1a2b
 5460 1a20 0E       		.uleb128 0xe
 5461 1a21 A2360000 		.4byte	0x36a2
 5462 1a25 0B       		.uleb128 0xb
 5463 1a26 C0360000 		.4byte	0x36c0
 5464 1a2a 00       		.byte	0
 5465 1a2b 27       		.uleb128 0x27
 5466 1a2c 6F4A0000 		.4byte	.LASF194
 5467 1a30 0D       		.byte	0xd
 5468 1a31 EC01     		.2byte	0x1ec
 5469 1a33 B0130000 		.4byte	.LASF273
ARM GAS  /tmp/ccyYK6L9.s 			page 97


 5470 1a37 4A1A0000 		.4byte	0x1a4a
 5471 1a3b 01       		.byte	0x1
 5472 1a3c 441A0000 		.4byte	0x1a44
 5473 1a40 4A1A0000 		.4byte	0x1a4a
 5474 1a44 0E       		.uleb128 0xe
 5475 1a45 9C360000 		.4byte	0x369c
 5476 1a49 00       		.byte	0
 5477 1a4a 07       		.uleb128 0x7
 5478 1a4b 54160000 		.4byte	0x1654
 5479 1a4f 29       		.uleb128 0x29
 5480 1a50 656E6400 		.ascii	"end\000"
 5481 1a54 0D       		.byte	0xd
 5482 1a55 F201     		.2byte	0x1f2
 5483 1a57 A1190000 		.4byte	.LASF274
 5484 1a5b 4A1A0000 		.4byte	0x1a4a
 5485 1a5f 01       		.byte	0x1
 5486 1a60 681A0000 		.4byte	0x1a68
 5487 1a64 6E1A0000 		.4byte	0x1a6e
 5488 1a68 0E       		.uleb128 0xe
 5489 1a69 9C360000 		.4byte	0x369c
 5490 1a6d 00       		.byte	0
 5491 1a6e 28       		.uleb128 0x28
 5492 1a6f 1A0E0000 		.4byte	.LASF196
 5493 1a73 0D       		.byte	0xd
 5494 1a74 F601     		.2byte	0x1f6
 5495 1a76 1A090000 		.4byte	.LASF275
 5496 1a7a 01       		.byte	0x1
 5497 1a7b 831A0000 		.4byte	0x1a83
 5498 1a7f 8E1A0000 		.4byte	0x1a8e
 5499 1a83 0E       		.uleb128 0xe
 5500 1a84 9C360000 		.4byte	0x369c
 5501 1a88 0B       		.uleb128 0xb
 5502 1a89 C6360000 		.4byte	0x36c6
 5503 1a8d 00       		.byte	0
 5504 1a8e 2A       		.uleb128 0x2a
 5505 1a8f 1D0C0000 		.4byte	.LASF202
 5506 1a93 0D       		.byte	0xd
 5507 1a94 FA01     		.2byte	0x1fa
 5508 1a96 A2360000 		.4byte	0x36a2
 5509 1a9a 01       		.byte	0x1
 5510 1a9b A31A0000 		.4byte	0x1aa3
 5511 1a9f A91A0000 		.4byte	0x1aa9
 5512 1aa3 0E       		.uleb128 0xe
 5513 1aa4 A2360000 		.4byte	0x36a2
 5514 1aa8 00       		.byte	0
 5515 1aa9 22       		.uleb128 0x22
 5516 1aaa 96190000 		.4byte	.LASF206
 5517 1aae B81A0000 		.4byte	0x1ab8
 5518 1ab2 00       		.byte	0
 5519 1ab3 07       		.uleb128 0x7
 5520 1ab4 B81A0000 		.4byte	0x1ab8
 5521 1ab8 2C       		.uleb128 0x2c
 5522 1ab9 D1310000 		.4byte	.LASF283
 5523 1abd 40       		.byte	0x40
 5524 1abe 16       		.byte	0x16
 5525 1abf 12       		.byte	0x12
 5526 1ac0 B81A0000 		.4byte	0x1ab8
ARM GAS  /tmp/ccyYK6L9.s 			page 98


 5527 1ac4 A01D0000 		.4byte	0x1da0
 5528 1ac8 11       		.uleb128 0x11
 5529 1ac9 69010000 		.4byte	0x169
 5530 1acd 00       		.byte	0
 5531 1ace 2D       		.uleb128 0x2d
 5532 1acf 07150000 		.4byte	.LASF276
 5533 1ad3 64380000 		.4byte	0x3864
 5534 1ad7 00       		.byte	0
 5535 1ad8 01       		.byte	0x1
 5536 1ad9 2E       		.uleb128 0x2e
 5537 1ada E2160000 		.4byte	.LASF277
 5538 1ade 16       		.byte	0x16
 5539 1adf 16       		.byte	0x16
 5540 1ae0 C3000000 		.4byte	0xc3
 5541 1ae4 04       		.byte	0x4
 5542 1ae5 02       		.byte	0x2
 5543 1ae6 2E       		.uleb128 0x2e
 5544 1ae7 BB230000 		.4byte	.LASF278
 5545 1aeb 16       		.byte	0x16
 5546 1aec 17       		.byte	0x17
 5547 1aed 7E0B0000 		.4byte	0xb7e
 5548 1af1 08       		.byte	0x8
 5549 1af2 02       		.byte	0x2
 5550 1af3 2E       		.uleb128 0x2e
 5551 1af4 EA140000 		.4byte	.LASF279
 5552 1af8 16       		.byte	0x16
 5553 1af9 18       		.byte	0x18
 5554 1afa B2100000 		.4byte	0x10b2
 5555 1afe 0C       		.byte	0xc
 5556 1aff 02       		.byte	0x2
 5557 1b00 2E       		.uleb128 0x2e
 5558 1b01 234A0000 		.4byte	.LASF280
 5559 1b05 16       		.byte	0x16
 5560 1b06 19       		.byte	0x19
 5561 1b07 8B0A0000 		.4byte	0xa8b
 5562 1b0b 10       		.byte	0x10
 5563 1b0c 02       		.byte	0x2
 5564 1b0d 2E       		.uleb128 0x2e
 5565 1b0e B81E0000 		.4byte	.LASF281
 5566 1b12 16       		.byte	0x16
 5567 1b13 1A       		.byte	0x1a
 5568 1b14 8B0A0000 		.4byte	0xa8b
 5569 1b18 24       		.byte	0x24
 5570 1b19 02       		.byte	0x2
 5571 1b1a 1B       		.uleb128 0x1b
 5572 1b1b 8E410000 		.4byte	.LASF282
 5573 1b1f 16       		.byte	0x16
 5574 1b20 1D       		.byte	0x1d
 5575 1b21 F8150000 		.4byte	0x15f8
 5576 1b25 38       		.byte	0x38
 5577 1b26 2B       		.uleb128 0x2b
 5578 1b27 D1310000 		.4byte	.LASF283
 5579 1b2b AE360000 		.4byte	0x36ae
 5580 1b2f 01       		.byte	0x1
 5581 1b30 381B0000 		.4byte	0x1b38
 5582 1b34 431B0000 		.4byte	0x1b43
 5583 1b38 0E       		.uleb128 0xe
ARM GAS  /tmp/ccyYK6L9.s 			page 99


 5584 1b39 AE360000 		.4byte	0x36ae
 5585 1b3d 0B       		.uleb128 0xb
 5586 1b3e 76360000 		.4byte	0x3676
 5587 1b42 00       		.byte	0
 5588 1b43 16       		.uleb128 0x16
 5589 1b44 212C0000 		.4byte	.LASF284
 5590 1b48 16       		.byte	0x16
 5591 1b49 57       		.byte	0x57
 5592 1b4a 590F0000 		.4byte	.LASF285
 5593 1b4e C3000000 		.4byte	0xc3
 5594 1b52 01       		.byte	0x1
 5595 1b53 5B1B0000 		.4byte	0x1b5b
 5596 1b57 611B0000 		.4byte	0x1b61
 5597 1b5b 0E       		.uleb128 0xe
 5598 1b5c 74380000 		.4byte	0x3874
 5599 1b60 00       		.byte	0
 5600 1b61 16       		.uleb128 0x16
 5601 1b62 ED470000 		.4byte	.LASF286
 5602 1b66 16       		.byte	0x16
 5603 1b67 5E       		.byte	0x5e
 5604 1b68 DB000000 		.4byte	.LASF287
 5605 1b6c 7A380000 		.4byte	0x387a
 5606 1b70 01       		.byte	0x1
 5607 1b71 791B0000 		.4byte	0x1b79
 5608 1b75 7F1B0000 		.4byte	0x1b7f
 5609 1b79 0E       		.uleb128 0xe
 5610 1b7a 74380000 		.4byte	0x3874
 5611 1b7e 00       		.byte	0
 5612 1b7f 16       		.uleb128 0x16
 5613 1b80 D6250000 		.4byte	.LASF288
 5614 1b84 16       		.byte	0x16
 5615 1b85 65       		.byte	0x65
 5616 1b86 981A0000 		.4byte	.LASF289
 5617 1b8a 80380000 		.4byte	0x3880
 5618 1b8e 01       		.byte	0x1
 5619 1b8f 971B0000 		.4byte	0x1b97
 5620 1b93 9D1B0000 		.4byte	0x1b9d
 5621 1b97 0E       		.uleb128 0xe
 5622 1b98 74380000 		.4byte	0x3874
 5623 1b9c 00       		.byte	0
 5624 1b9d 2F       		.uleb128 0x2f
 5625 1b9e 900D0000 		.4byte	.LASF597
 5626 1ba2 0C       		.byte	0xc
 5627 1ba3 7A       		.byte	0x7a
 5628 1ba4 87390000 		.4byte	.LASF598
 5629 1ba8 01       		.byte	0x1
 5630 1ba9 02       		.uleb128 0x2
 5631 1baa 10       		.byte	0x10
 5632 1bab 00       		.uleb128 0
 5633 1bac B81A0000 		.4byte	0x1ab8
 5634 1bb0 01       		.byte	0x1
 5635 1bb1 B91B0000 		.4byte	0x1bb9
 5636 1bb5 C91B0000 		.4byte	0x1bc9
 5637 1bb9 0E       		.uleb128 0xe
 5638 1bba AE360000 		.4byte	0x36ae
 5639 1bbe 0B       		.uleb128 0xb
 5640 1bbf 87370000 		.4byte	0x3787
ARM GAS  /tmp/ccyYK6L9.s 			page 100


 5641 1bc3 0B       		.uleb128 0xb
 5642 1bc4 F4340000 		.4byte	0x34f4
 5643 1bc8 00       		.byte	0
 5644 1bc9 16       		.uleb128 0x16
 5645 1bca B8100000 		.4byte	.LASF290
 5646 1bce 0C       		.byte	0xc
 5647 1bcf 0E       		.byte	0xe
 5648 1bd0 35170000 		.4byte	.LASF291
 5649 1bd4 22310000 		.4byte	0x3122
 5650 1bd8 02       		.byte	0x2
 5651 1bd9 E11B0000 		.4byte	0x1be1
 5652 1bdd F11B0000 		.4byte	0x1bf1
 5653 1be1 0E       		.uleb128 0xe
 5654 1be2 AE360000 		.4byte	0x36ae
 5655 1be6 0B       		.uleb128 0xb
 5656 1be7 E2370000 		.4byte	0x37e2
 5657 1beb 0B       		.uleb128 0xb
 5658 1bec FA340000 		.4byte	0x34fa
 5659 1bf0 00       		.byte	0
 5660 1bf1 16       		.uleb128 0x16
 5661 1bf2 F6140000 		.4byte	.LASF292
 5662 1bf6 0C       		.byte	0xc
 5663 1bf7 23       		.byte	0x23
 5664 1bf8 92120000 		.4byte	.LASF293
 5665 1bfc 22310000 		.4byte	0x3122
 5666 1c00 02       		.byte	0x2
 5667 1c01 091C0000 		.4byte	0x1c09
 5668 1c05 1E1C0000 		.4byte	0x1c1e
 5669 1c09 0E       		.uleb128 0xe
 5670 1c0a AE360000 		.4byte	0x36ae
 5671 1c0e 0B       		.uleb128 0xb
 5672 1c0f E2370000 		.4byte	0x37e2
 5673 1c13 0B       		.uleb128 0xb
 5674 1c14 2C000000 		.4byte	0x2c
 5675 1c18 0B       		.uleb128 0xb
 5676 1c19 F4340000 		.4byte	0x34f4
 5677 1c1d 00       		.byte	0
 5678 1c1e 16       		.uleb128 0x16
 5679 1c1f 9D2D0000 		.4byte	.LASF294
 5680 1c23 0C       		.byte	0xc
 5681 1c24 4D       		.byte	0x4d
 5682 1c25 5D3F0000 		.4byte	.LASF295
 5683 1c29 22310000 		.4byte	0x3122
 5684 1c2d 02       		.byte	0x2
 5685 1c2e 361C0000 		.4byte	0x1c36
 5686 1c32 461C0000 		.4byte	0x1c46
 5687 1c36 0E       		.uleb128 0xe
 5688 1c37 AE360000 		.4byte	0x36ae
 5689 1c3b 0B       		.uleb128 0xb
 5690 1c3c E2370000 		.4byte	0x37e2
 5691 1c40 0B       		.uleb128 0xb
 5692 1c41 FA340000 		.4byte	0x34fa
 5693 1c45 00       		.byte	0
 5694 1c46 16       		.uleb128 0x16
 5695 1c47 9C410000 		.4byte	.LASF296
 5696 1c4b 0C       		.byte	0xc
 5697 1c4c 53       		.byte	0x53
ARM GAS  /tmp/ccyYK6L9.s 			page 101


 5698 1c4d 72240000 		.4byte	.LASF297
 5699 1c51 22310000 		.4byte	0x3122
 5700 1c55 02       		.byte	0x2
 5701 1c56 5E1C0000 		.4byte	0x1c5e
 5702 1c5a 731C0000 		.4byte	0x1c73
 5703 1c5e 0E       		.uleb128 0xe
 5704 1c5f AE360000 		.4byte	0x36ae
 5705 1c63 0B       		.uleb128 0xb
 5706 1c64 E2370000 		.4byte	0x37e2
 5707 1c68 0B       		.uleb128 0xb
 5708 1c69 2C000000 		.4byte	0x2c
 5709 1c6d 0B       		.uleb128 0xb
 5710 1c6e F4340000 		.4byte	0x34f4
 5711 1c72 00       		.byte	0
 5712 1c73 16       		.uleb128 0x16
 5713 1c74 C6350000 		.4byte	.LASF298
 5714 1c78 0C       		.byte	0xc
 5715 1c79 5A       		.byte	0x5a
 5716 1c7a 243D0000 		.4byte	.LASF299
 5717 1c7e 22310000 		.4byte	0x3122
 5718 1c82 02       		.byte	0x2
 5719 1c83 8B1C0000 		.4byte	0x1c8b
 5720 1c87 A51C0000 		.4byte	0x1ca5
 5721 1c8b 0E       		.uleb128 0xe
 5722 1c8c AE360000 		.4byte	0x36ae
 5723 1c90 0B       		.uleb128 0xb
 5724 1c91 F9370000 		.4byte	0x37f9
 5725 1c95 0B       		.uleb128 0xb
 5726 1c96 C3000000 		.4byte	0xc3
 5727 1c9a 0B       		.uleb128 0xb
 5728 1c9b 31350000 		.4byte	0x3531
 5729 1c9f 0B       		.uleb128 0xb
 5730 1ca0 2C000000 		.4byte	0x2c
 5731 1ca4 00       		.byte	0
 5732 1ca5 16       		.uleb128 0x16
 5733 1ca6 54480000 		.4byte	.LASF300
 5734 1caa 0C       		.byte	0xc
 5735 1cab 69       		.byte	0x69
 5736 1cac EB020000 		.4byte	.LASF301
 5737 1cb0 22310000 		.4byte	0x3122
 5738 1cb4 02       		.byte	0x2
 5739 1cb5 BD1C0000 		.4byte	0x1cbd
 5740 1cb9 DC1C0000 		.4byte	0x1cdc
 5741 1cbd 0E       		.uleb128 0xe
 5742 1cbe AE360000 		.4byte	0x36ae
 5743 1cc2 0B       		.uleb128 0xb
 5744 1cc3 05380000 		.4byte	0x3805
 5745 1cc7 0B       		.uleb128 0xb
 5746 1cc8 C3000000 		.4byte	0xc3
 5747 1ccc 0B       		.uleb128 0xb
 5748 1ccd 37350000 		.4byte	0x3537
 5749 1cd1 0B       		.uleb128 0xb
 5750 1cd2 2C000000 		.4byte	0x2c
 5751 1cd6 0B       		.uleb128 0xb
 5752 1cd7 2C000000 		.4byte	0x2c
 5753 1cdb 00       		.byte	0
 5754 1cdc 30       		.uleb128 0x30
ARM GAS  /tmp/ccyYK6L9.s 			page 102


 5755 1cdd DB330000 		.4byte	.LASF302
 5756 1ce1 16       		.byte	0x16
 5757 1ce2 3D       		.byte	0x3d
 5758 1ce3 80220000 		.4byte	.LASF304
 5759 1ce7 CC350000 		.4byte	0x35cc
 5760 1ceb 01       		.byte	0x1
 5761 1cec 02       		.uleb128 0x2
 5762 1ced 10       		.byte	0x10
 5763 1cee 01       		.uleb128 0x1
 5764 1cef B81A0000 		.4byte	0x1ab8
 5765 1cf3 02       		.byte	0x2
 5766 1cf4 FC1C0000 		.4byte	0x1cfc
 5767 1cf8 0C1D0000 		.4byte	0x1d0c
 5768 1cfc 0E       		.uleb128 0xe
 5769 1cfd 74380000 		.4byte	0x3874
 5770 1d01 0B       		.uleb128 0xb
 5771 1d02 E2370000 		.4byte	0x37e2
 5772 1d06 0B       		.uleb128 0xb
 5773 1d07 FA340000 		.4byte	0x34fa
 5774 1d0b 00       		.byte	0
 5775 1d0c 30       		.uleb128 0x30
 5776 1d0d 9E130000 		.4byte	.LASF303
 5777 1d11 16       		.byte	0x16
 5778 1d12 40       		.byte	0x40
 5779 1d13 F91A0000 		.4byte	.LASF305
 5780 1d17 3D360000 		.4byte	0x363d
 5781 1d1b 01       		.byte	0x1
 5782 1d1c 02       		.uleb128 0x2
 5783 1d1d 10       		.byte	0x10
 5784 1d1e 02       		.uleb128 0x2
 5785 1d1f B81A0000 		.4byte	0x1ab8
 5786 1d23 02       		.byte	0x2
 5787 1d24 2C1D0000 		.4byte	0x1d2c
 5788 1d28 411D0000 		.4byte	0x1d41
 5789 1d2c 0E       		.uleb128 0xe
 5790 1d2d 74380000 		.4byte	0x3874
 5791 1d31 0B       		.uleb128 0xb
 5792 1d32 E2370000 		.4byte	0x37e2
 5793 1d36 0B       		.uleb128 0xb
 5794 1d37 43350000 		.4byte	0x3543
 5795 1d3b 0B       		.uleb128 0xb
 5796 1d3c 2C000000 		.4byte	0x2c
 5797 1d40 00       		.byte	0
 5798 1d41 0F       		.uleb128 0xf
 5799 1d42 D1310000 		.4byte	.LASF283
 5800 1d46 0C       		.byte	0xc
 5801 1d47 83       		.byte	0x83
 5802 1d48 AE360000 		.4byte	0x36ae
 5803 1d4c 02       		.byte	0x2
 5804 1d4d 551D0000 		.4byte	0x1d55
 5805 1d51 601D0000 		.4byte	0x1d60
 5806 1d55 0E       		.uleb128 0xe
 5807 1d56 AE360000 		.4byte	0x36ae
 5808 1d5a 0B       		.uleb128 0xb
 5809 1d5b C3000000 		.4byte	0xc3
 5810 1d5f 00       		.byte	0
 5811 1d60 31       		.uleb128 0x31
ARM GAS  /tmp/ccyYK6L9.s 			page 103


 5812 1d61 D3290000 		.4byte	.LASF599
 5813 1d65 0C       		.byte	0xc
 5814 1d66 8C       		.byte	0x8c
 5815 1d67 B4000000 		.4byte	0xb4
 5816 1d6b 01       		.byte	0x1
 5817 1d6c B81A0000 		.4byte	0x1ab8
 5818 1d70 02       		.byte	0x2
 5819 1d71 791D0000 		.4byte	0x1d79
 5820 1d75 841D0000 		.4byte	0x1d84
 5821 1d79 0E       		.uleb128 0xe
 5822 1d7a AE360000 		.4byte	0x36ae
 5823 1d7e 0E       		.uleb128 0xe
 5824 1d7f 25000000 		.4byte	0x25
 5825 1d83 00       		.byte	0
 5826 1d84 21       		.uleb128 0x21
 5827 1d85 6A3A0000 		.4byte	.LASF306
 5828 1d89 16       		.byte	0x16
 5829 1d8a 7F       		.byte	0x7f
 5830 1d8b 6A030000 		.4byte	.LASF307
 5831 1d8f 22310000 		.4byte	0x3122
 5832 1d93 01       		.byte	0x1
 5833 1d94 0B       		.uleb128 0xb
 5834 1d95 76360000 		.4byte	0x3676
 5835 1d99 0B       		.uleb128 0xb
 5836 1d9a C3000000 		.4byte	0xc3
 5837 1d9e 00       		.byte	0
 5838 1d9f 00       		.byte	0
 5839 1da0 07       		.uleb128 0x7
 5840 1da1 E6150000 		.4byte	0x15e6
 5841 1da5 07       		.uleb128 0x7
 5842 1da6 85060000 		.4byte	0x685
 5843 1daa 0C       		.uleb128 0xc
 5844 1dab 03450000 		.4byte	.LASF308
 5845 1daf 0C       		.byte	0xc
 5846 1db0 08       		.byte	0x8
 5847 1db1 09       		.byte	0x9
 5848 1db2 631F0000 		.4byte	0x1f63
 5849 1db6 11       		.uleb128 0x11
 5850 1db7 69010000 		.4byte	0x169
 5851 1dbb 00       		.byte	0
 5852 1dbc 1B       		.uleb128 0x1b
 5853 1dbd 3E150000 		.4byte	.LASF66
 5854 1dc1 08       		.byte	0x8
 5855 1dc2 0E       		.byte	0xe
 5856 1dc3 D7340000 		.4byte	0x34d7
 5857 1dc7 00       		.byte	0
 5858 1dc8 13       		.uleb128 0x13
 5859 1dc9 79000000 		.4byte	.LASF309
 5860 1dcd 08       		.byte	0x8
 5861 1dce 0B       		.byte	0xb
 5862 1dcf 67340000 		.4byte	0x3467
 5863 1dd3 01       		.byte	0x1
 5864 1dd4 16       		.uleb128 0x16
 5865 1dd5 86340000 		.4byte	.LASF310
 5866 1dd9 08       		.byte	0x8
 5867 1dda 11       		.byte	0x11
 5868 1ddb AD380000 		.4byte	.LASF311
ARM GAS  /tmp/ccyYK6L9.s 			page 104


 5869 1ddf 2C000000 		.4byte	0x2c
 5870 1de3 01       		.byte	0x1
 5871 1de4 EC1D0000 		.4byte	0x1dec
 5872 1de8 F21D0000 		.4byte	0x1df2
 5873 1dec 0E       		.uleb128 0xe
 5874 1ded E9360000 		.4byte	0x36e9
 5875 1df1 00       		.byte	0
 5876 1df2 16       		.uleb128 0x16
 5877 1df3 C21D0000 		.4byte	.LASF312
 5878 1df7 08       		.byte	0x8
 5879 1df8 12       		.byte	0x12
 5880 1df9 55150000 		.4byte	.LASF313
 5881 1dfd C81D0000 		.4byte	0x1dc8
 5882 1e01 01       		.byte	0x1
 5883 1e02 0A1E0000 		.4byte	0x1e0a
 5884 1e06 101E0000 		.4byte	0x1e10
 5885 1e0a 0E       		.uleb128 0xe
 5886 1e0b E9360000 		.4byte	0x36e9
 5887 1e0f 00       		.byte	0
 5888 1e10 16       		.uleb128 0x16
 5889 1e11 AB1E0000 		.4byte	.LASF314
 5890 1e15 08       		.byte	0x8
 5891 1e16 14       		.byte	0x14
 5892 1e17 2F2A0000 		.4byte	.LASF315
 5893 1e1b B4000000 		.4byte	0xb4
 5894 1e1f 01       		.byte	0x1
 5895 1e20 281E0000 		.4byte	0x1e28
 5896 1e24 2E1E0000 		.4byte	0x1e2e
 5897 1e28 0E       		.uleb128 0xe
 5898 1e29 EF360000 		.4byte	0x36ef
 5899 1e2d 00       		.byte	0
 5900 1e2e 1E       		.uleb128 0x1e
 5901 1e2f D0100000 		.4byte	.LASF316
 5902 1e33 08       		.byte	0x8
 5903 1e34 15       		.byte	0x15
 5904 1e35 E40D0000 		.4byte	.LASF317
 5905 1e39 01       		.byte	0x1
 5906 1e3a 421E0000 		.4byte	0x1e42
 5907 1e3e 4D1E0000 		.4byte	0x1e4d
 5908 1e42 0E       		.uleb128 0xe
 5909 1e43 EF360000 		.4byte	0x36ef
 5910 1e47 0B       		.uleb128 0xb
 5911 1e48 B4000000 		.4byte	0xb4
 5912 1e4c 00       		.byte	0
 5913 1e4d 16       		.uleb128 0x16
 5914 1e4e 592D0000 		.4byte	.LASF318
 5915 1e52 08       		.byte	0x8
 5916 1e53 17       		.byte	0x17
 5917 1e54 EF150000 		.4byte	.LASF319
 5918 1e58 B4000000 		.4byte	0xb4
 5919 1e5c 01       		.byte	0x1
 5920 1e5d 651E0000 		.4byte	0x1e65
 5921 1e61 6B1E0000 		.4byte	0x1e6b
 5922 1e65 0E       		.uleb128 0xe
 5923 1e66 EF360000 		.4byte	0x36ef
 5924 1e6a 00       		.byte	0
 5925 1e6b 1E       		.uleb128 0x1e
ARM GAS  /tmp/ccyYK6L9.s 			page 105


 5926 1e6c 180C0000 		.4byte	.LASF320
 5927 1e70 08       		.byte	0x8
 5928 1e71 18       		.byte	0x18
 5929 1e72 BC1B0000 		.4byte	.LASF321
 5930 1e76 01       		.byte	0x1
 5931 1e77 7F1E0000 		.4byte	0x1e7f
 5932 1e7b 8A1E0000 		.4byte	0x1e8a
 5933 1e7f 0E       		.uleb128 0xe
 5934 1e80 EF360000 		.4byte	0x36ef
 5935 1e84 0B       		.uleb128 0xb
 5936 1e85 B4000000 		.4byte	0xb4
 5937 1e89 00       		.byte	0
 5938 1e8a 1E       		.uleb128 0x1e
 5939 1e8b 8C3F0000 		.4byte	.LASF322
 5940 1e8f 08       		.byte	0x8
 5941 1e90 19       		.byte	0x19
 5942 1e91 F4300000 		.4byte	.LASF323
 5943 1e95 01       		.byte	0x1
 5944 1e96 9E1E0000 		.4byte	0x1e9e
 5945 1e9a AE1E0000 		.4byte	0x1eae
 5946 1e9e 0E       		.uleb128 0xe
 5947 1e9f EF360000 		.4byte	0x36ef
 5948 1ea3 0B       		.uleb128 0xb
 5949 1ea4 B4000000 		.4byte	0xb4
 5950 1ea8 0B       		.uleb128 0xb
 5951 1ea9 2C000000 		.4byte	0x2c
 5952 1ead 00       		.byte	0
 5953 1eae 16       		.uleb128 0x16
 5954 1eaf 6C1B0000 		.4byte	.LASF130
 5955 1eb3 08       		.byte	0x8
 5956 1eb4 1B       		.byte	0x1b
 5957 1eb5 7C110000 		.4byte	.LASF324
 5958 1eb9 F5360000 		.4byte	0x36f5
 5959 1ebd 01       		.byte	0x1
 5960 1ebe C61E0000 		.4byte	0x1ec6
 5961 1ec2 CC1E0000 		.4byte	0x1ecc
 5962 1ec6 0E       		.uleb128 0xe
 5963 1ec7 EF360000 		.4byte	0x36ef
 5964 1ecb 00       		.byte	0
 5965 1ecc 0F       		.uleb128 0xf
 5966 1ecd 03450000 		.4byte	.LASF308
 5967 1ed1 08       		.byte	0x8
 5968 1ed2 1E       		.byte	0x1e
 5969 1ed3 EF360000 		.4byte	0x36ef
 5970 1ed7 01       		.byte	0x1
 5971 1ed8 E01E0000 		.4byte	0x1ee0
 5972 1edc EB1E0000 		.4byte	0x1eeb
 5973 1ee0 0E       		.uleb128 0xe
 5974 1ee1 EF360000 		.4byte	0x36ef
 5975 1ee5 0B       		.uleb128 0xb
 5976 1ee6 2C000000 		.4byte	0x2c
 5977 1eea 00       		.byte	0
 5978 1eeb 0F       		.uleb128 0xf
 5979 1eec 03450000 		.4byte	.LASF308
 5980 1ef0 08       		.byte	0x8
 5981 1ef1 1F       		.byte	0x1f
 5982 1ef2 EF360000 		.4byte	0x36ef
ARM GAS  /tmp/ccyYK6L9.s 			page 106


 5983 1ef6 01       		.byte	0x1
 5984 1ef7 FF1E0000 		.4byte	0x1eff
 5985 1efb 141F0000 		.4byte	0x1f14
 5986 1eff 0E       		.uleb128 0xe
 5987 1f00 EF360000 		.4byte	0x36ef
 5988 1f04 0B       		.uleb128 0xb
 5989 1f05 B4000000 		.4byte	0xb4
 5990 1f09 0B       		.uleb128 0xb
 5991 1f0a 2C000000 		.4byte	0x2c
 5992 1f0e 0B       		.uleb128 0xb
 5993 1f0f 2C000000 		.4byte	0x2c
 5994 1f13 00       		.byte	0
 5995 1f14 0F       		.uleb128 0xf
 5996 1f15 03450000 		.4byte	.LASF308
 5997 1f19 08       		.byte	0x8
 5998 1f1a 20       		.byte	0x20
 5999 1f1b EF360000 		.4byte	0x36ef
 6000 1f1f 01       		.byte	0x1
 6001 1f20 281F0000 		.4byte	0x1f28
 6002 1f24 381F0000 		.4byte	0x1f38
 6003 1f28 0E       		.uleb128 0xe
 6004 1f29 EF360000 		.4byte	0x36ef
 6005 1f2d 0B       		.uleb128 0xb
 6006 1f2e 2C000000 		.4byte	0x2c
 6007 1f32 0B       		.uleb128 0xb
 6008 1f33 C81D0000 		.4byte	0x1dc8
 6009 1f37 00       		.byte	0
 6010 1f38 10       		.uleb128 0x10
 6011 1f39 03450000 		.4byte	.LASF308
 6012 1f3d 08       		.byte	0x8
 6013 1f3e 21       		.byte	0x21
 6014 1f3f EF360000 		.4byte	0x36ef
 6015 1f43 01       		.byte	0x1
 6016 1f44 481F0000 		.4byte	0x1f48
 6017 1f48 0E       		.uleb128 0xe
 6018 1f49 EF360000 		.4byte	0x36ef
 6019 1f4d 0B       		.uleb128 0xb
 6020 1f4e B4000000 		.4byte	0xb4
 6021 1f52 0B       		.uleb128 0xb
 6022 1f53 2C000000 		.4byte	0x2c
 6023 1f57 0B       		.uleb128 0xb
 6024 1f58 2C000000 		.4byte	0x2c
 6025 1f5c 0B       		.uleb128 0xb
 6026 1f5d C81D0000 		.4byte	0x1dc8
 6027 1f61 00       		.byte	0
 6028 1f62 00       		.byte	0
 6029 1f63 07       		.uleb128 0x7
 6030 1f64 AA1D0000 		.4byte	0x1daa
 6031 1f68 0C       		.uleb128 0xc
 6032 1f69 24210000 		.4byte	.LASF325
 6033 1f6d 04       		.byte	0x4
 6034 1f6e 0D       		.byte	0xd
 6035 1f6f 0F       		.byte	0xf
 6036 1f70 AA250000 		.4byte	0x25aa
 6037 1f74 11       		.uleb128 0x11
 6038 1f75 69010000 		.4byte	0x169
 6039 1f79 00       		.byte	0
ARM GAS  /tmp/ccyYK6L9.s 			page 107


 6040 1f7a 1A       		.uleb128 0x1a
 6041 1f7b CE440000 		.4byte	.LASF141
 6042 1f7f 08       		.byte	0x8
 6043 1f80 0D       		.byte	0xd
 6044 1f81 11       		.byte	0x11
 6045 1f82 01       		.byte	0x1
 6046 1f83 BA1F0000 		.4byte	0x1fba
 6047 1f87 1B       		.uleb128 0x1b
 6048 1f88 50210000 		.4byte	.LASF142
 6049 1f8c 0D       		.byte	0xd
 6050 1f8d 12       		.byte	0x12
 6051 1f8e FB360000 		.4byte	0x36fb
 6052 1f92 00       		.byte	0
 6053 1f93 1B       		.uleb128 0x1b
 6054 1f94 98130000 		.4byte	.LASF143
 6055 1f98 0D       		.byte	0xd
 6056 1f99 13       		.byte	0x13
 6057 1f9a 0B380000 		.4byte	0x380b
 6058 1f9e 04       		.byte	0x4
 6059 1f9f 1D       		.uleb128 0x1d
 6060 1fa0 CE440000 		.4byte	.LASF141
 6061 1fa4 0D       		.byte	0xd
 6062 1fa5 15       		.byte	0x15
 6063 1fa6 FB360000 		.4byte	0x36fb
 6064 1faa AE1F0000 		.4byte	0x1fae
 6065 1fae 0E       		.uleb128 0xe
 6066 1faf FB360000 		.4byte	0x36fb
 6067 1fb3 0B       		.uleb128 0xb
 6068 1fb4 FF370000 		.4byte	0x37ff
 6069 1fb8 00       		.byte	0
 6070 1fb9 00       		.byte	0
 6071 1fba 24       		.uleb128 0x24
 6072 1fbb DC0E0000 		.4byte	.LASF110
 6073 1fbf 0D       		.byte	0xd
 6074 1fc0 8A01     		.2byte	0x18a
 6075 1fc2 FB360000 		.4byte	0x36fb
 6076 1fc6 00       		.byte	0
 6077 1fc7 32       		.uleb128 0x32
 6078 1fc8 DE1D0000 		.4byte	.LASF600
 6079 1fcc 25       		.uleb128 0x25
 6080 1fcd 2A180000 		.4byte	.LASF144
 6081 1fd1 25       		.uleb128 0x25
 6082 1fd2 52220000 		.4byte	.LASF145
 6083 1fd6 25       		.uleb128 0x25
 6084 1fd7 8B3E0000 		.4byte	.LASF146
 6085 1fdb 33       		.uleb128 0x33
 6086 1fdc E52E0000 		.4byte	.LASF147
 6087 1fe0 04       		.byte	0x4
 6088 1fe1 0D       		.byte	0xd
 6089 1fe2 C0       		.byte	0xc0
 6090 1fe3 01       		.byte	0x1
 6091 1fe4 4B210000 		.4byte	0x214b
 6092 1fe8 1B       		.uleb128 0x1b
 6093 1fe9 D90F0000 		.4byte	.LASF326
 6094 1fed 0D       		.byte	0xd
 6095 1fee C4       		.byte	0xc4
 6096 1fef 2A380000 		.4byte	0x382a
ARM GAS  /tmp/ccyYK6L9.s 			page 108


 6097 1ff3 00       		.byte	0
 6098 1ff4 0F       		.uleb128 0xf
 6099 1ff5 E52E0000 		.4byte	.LASF147
 6100 1ff9 0D       		.byte	0xd
 6101 1ffa C7       		.byte	0xc7
 6102 1ffb 30380000 		.4byte	0x3830
 6103 1fff 01       		.byte	0x1
 6104 2000 08200000 		.4byte	0x2008
 6105 2004 0E200000 		.4byte	0x200e
 6106 2008 0E       		.uleb128 0xe
 6107 2009 30380000 		.4byte	0x3830
 6108 200d 00       		.byte	0
 6109 200e 0F       		.uleb128 0xf
 6110 200f E52E0000 		.4byte	.LASF147
 6111 2013 0D       		.byte	0xd
 6112 2014 C8       		.byte	0xc8
 6113 2015 30380000 		.4byte	0x3830
 6114 2019 01       		.byte	0x1
 6115 201a 22200000 		.4byte	0x2022
 6116 201e 2D200000 		.4byte	0x202d
 6117 2022 0E       		.uleb128 0xe
 6118 2023 30380000 		.4byte	0x3830
 6119 2027 0B       		.uleb128 0xb
 6120 2028 36380000 		.4byte	0x3836
 6121 202c 00       		.byte	0
 6122 202d 0D       		.uleb128 0xd
 6123 202e E52E0000 		.4byte	.LASF147
 6124 2032 0D       		.byte	0xd
 6125 2033 CB       		.byte	0xcb
 6126 2034 30380000 		.4byte	0x3830
 6127 2038 40200000 		.4byte	0x2040
 6128 203c 4B200000 		.4byte	0x204b
 6129 2040 0E       		.uleb128 0xe
 6130 2041 30380000 		.4byte	0x3830
 6131 2045 0B       		.uleb128 0xb
 6132 2046 2A380000 		.4byte	0x382a
 6133 204a 00       		.byte	0
 6134 204b 1C       		.uleb128 0x1c
 6135 204c 770F0000 		.4byte	.LASF51
 6136 2050 0D       		.byte	0xd
 6137 2051 CE       		.byte	0xce
 6138 2052 121C0000 		.4byte	.LASF327
 6139 2056 66370000 		.4byte	0x3766
 6140 205a 62200000 		.4byte	0x2062
 6141 205e 6D200000 		.4byte	0x206d
 6142 2062 0E       		.uleb128 0xe
 6143 2063 30380000 		.4byte	0x3830
 6144 2067 0B       		.uleb128 0xb
 6145 2068 36380000 		.4byte	0x3836
 6146 206c 00       		.byte	0
 6147 206d 16       		.uleb128 0x16
 6148 206e 53330000 		.4byte	.LASF328
 6149 2072 0D       		.byte	0xd
 6150 2073 D4       		.byte	0xd4
 6151 2074 D9400000 		.4byte	.LASF329
 6152 2078 3C380000 		.4byte	0x383c
 6153 207c 01       		.byte	0x1
ARM GAS  /tmp/ccyYK6L9.s 			page 109


 6154 207d 85200000 		.4byte	0x2085
 6155 2081 8B200000 		.4byte	0x208b
 6156 2085 0E       		.uleb128 0xe
 6157 2086 42380000 		.4byte	0x3842
 6158 208a 00       		.byte	0
 6159 208b 16       		.uleb128 0x16
 6160 208c 340F0000 		.4byte	.LASF330
 6161 2090 0D       		.byte	0xd
 6162 2091 D8       		.byte	0xd8
 6163 2092 E20E0000 		.4byte	.LASF331
 6164 2096 16370000 		.4byte	0x3716
 6165 209a 01       		.byte	0x1
 6166 209b A3200000 		.4byte	0x20a3
 6167 209f A9200000 		.4byte	0x20a9
 6168 20a3 0E       		.uleb128 0xe
 6169 20a4 42380000 		.4byte	0x3842
 6170 20a8 00       		.byte	0
 6171 20a9 16       		.uleb128 0x16
 6172 20aa 48320000 		.4byte	.LASF332
 6173 20ae 0D       		.byte	0xd
 6174 20af DC       		.byte	0xdc
 6175 20b0 4C0E0000 		.4byte	.LASF333
 6176 20b4 66370000 		.4byte	0x3766
 6177 20b8 01       		.byte	0x1
 6178 20b9 C1200000 		.4byte	0x20c1
 6179 20bd C7200000 		.4byte	0x20c7
 6180 20c1 0E       		.uleb128 0xe
 6181 20c2 30380000 		.4byte	0x3830
 6182 20c6 00       		.byte	0
 6183 20c7 16       		.uleb128 0x16
 6184 20c8 48320000 		.4byte	.LASF332
 6185 20cc 0D       		.byte	0xd
 6186 20cd E3       		.byte	0xe3
 6187 20ce 48340000 		.4byte	.LASF334
 6188 20d2 3C250000 		.4byte	0x253c
 6189 20d6 01       		.byte	0x1
 6190 20d7 DF200000 		.4byte	0x20df
 6191 20db EA200000 		.4byte	0x20ea
 6192 20df 0E       		.uleb128 0xe
 6193 20e0 30380000 		.4byte	0x3830
 6194 20e4 0B       		.uleb128 0xb
 6195 20e5 25000000 		.4byte	0x25
 6196 20e9 00       		.byte	0
 6197 20ea 16       		.uleb128 0x16
 6198 20eb 6E490000 		.4byte	.LASF335
 6199 20ef 0D       		.byte	0xd
 6200 20f0 EB       		.byte	0xeb
 6201 20f1 BD450000 		.4byte	.LASF336
 6202 20f5 22310000 		.4byte	0x3122
 6203 20f9 01       		.byte	0x1
 6204 20fa 02210000 		.4byte	0x2102
 6205 20fe 0D210000 		.4byte	0x210d
 6206 2102 0E       		.uleb128 0xe
 6207 2103 42380000 		.4byte	0x3842
 6208 2107 0B       		.uleb128 0xb
 6209 2108 36380000 		.4byte	0x3836
 6210 210c 00       		.byte	0
ARM GAS  /tmp/ccyYK6L9.s 			page 110


 6211 210d 16       		.uleb128 0x16
 6212 210e C6230000 		.4byte	.LASF337
 6213 2112 0D       		.byte	0xd
 6214 2113 EF       		.byte	0xef
 6215 2114 2A270000 		.4byte	.LASF338
 6216 2118 22310000 		.4byte	0x3122
 6217 211c 01       		.byte	0x1
 6218 211d 25210000 		.4byte	0x2125
 6219 2121 30210000 		.4byte	0x2130
 6220 2125 0E       		.uleb128 0xe
 6221 2126 42380000 		.4byte	0x3842
 6222 212a 0B       		.uleb128 0xb
 6223 212b 36380000 		.4byte	0x3836
 6224 212f 00       		.byte	0
 6225 2130 34       		.uleb128 0x34
 6226 2131 DB310000 		.4byte	.LASF339
 6227 2135 0D       		.byte	0xd
 6228 2136 F3       		.byte	0xf3
 6229 2137 AD1C0000 		.4byte	.LASF340
 6230 213b 22310000 		.4byte	0x3122
 6231 213f 01       		.byte	0x1
 6232 2140 44210000 		.4byte	0x2144
 6233 2144 0E       		.uleb128 0xe
 6234 2145 42380000 		.4byte	0x3842
 6235 2149 00       		.byte	0
 6236 214a 00       		.byte	0
 6237 214b 26       		.uleb128 0x26
 6238 214c 4F2D0000 		.4byte	.LASF148
 6239 2150 0D       		.byte	0xd
 6240 2151 8601     		.2byte	0x186
 6241 2153 01370000 		.4byte	0x3701
 6242 2157 26       		.uleb128 0x26
 6243 2158 440E0000 		.4byte	.LASF149
 6244 215c 0D       		.byte	0xd
 6245 215d 8701     		.2byte	0x187
 6246 215f 1C370000 		.4byte	0x371c
 6247 2163 27       		.uleb128 0x27
 6248 2164 864A0000 		.4byte	.LASF150
 6249 2168 0D       		.byte	0xd
 6250 2169 8D01     		.2byte	0x18d
 6251 216b D42F0000 		.4byte	.LASF341
 6252 216f 36370000 		.4byte	0x3736
 6253 2173 01       		.byte	0x1
 6254 2174 7C210000 		.4byte	0x217c
 6255 2178 82210000 		.4byte	0x2182
 6256 217c 0E       		.uleb128 0xe
 6257 217d 3C370000 		.4byte	0x373c
 6258 2181 00       		.byte	0
 6259 2182 07       		.uleb128 0x7
 6260 2183 7A1F0000 		.4byte	0x1f7a
 6261 2187 27       		.uleb128 0x27
 6262 2188 DE290000 		.4byte	.LASF151
 6263 218c 0D       		.byte	0xd
 6264 218d 9101     		.2byte	0x191
 6265 218f 30470000 		.4byte	.LASF342
 6266 2193 22310000 		.4byte	0x3122
 6267 2197 01       		.byte	0x1
ARM GAS  /tmp/ccyYK6L9.s 			page 111


 6268 2198 A0210000 		.4byte	0x21a0
 6269 219c A6210000 		.4byte	0x21a6
 6270 21a0 0E       		.uleb128 0xe
 6271 21a1 3C370000 		.4byte	0x373c
 6272 21a5 00       		.byte	0
 6273 21a6 27       		.uleb128 0x27
 6274 21a7 23170000 		.4byte	.LASF154
 6275 21ab 0D       		.byte	0xd
 6276 21ac 0302     		.2byte	0x203
 6277 21ae 963C0000 		.4byte	.LASF343
 6278 21b2 2C000000 		.4byte	0x2c
 6279 21b6 01       		.byte	0x1
 6280 21b7 BF210000 		.4byte	0x21bf
 6281 21bb C5210000 		.4byte	0x21c5
 6282 21bf 0E       		.uleb128 0xe
 6283 21c0 3C370000 		.4byte	0x373c
 6284 21c4 00       		.byte	0
 6285 21c5 28       		.uleb128 0x28
 6286 21c6 2F360000 		.4byte	.LASF156
 6287 21ca 0D       		.byte	0xd
 6288 21cb 9701     		.2byte	0x197
 6289 21cd 7C150000 		.4byte	.LASF344
 6290 21d1 01       		.byte	0x1
 6291 21d2 DA210000 		.4byte	0x21da
 6292 21d6 E5210000 		.4byte	0x21e5
 6293 21da 0E       		.uleb128 0xe
 6294 21db 42370000 		.4byte	0x3742
 6295 21df 0B       		.uleb128 0xb
 6296 21e0 48370000 		.4byte	0x3748
 6297 21e4 00       		.byte	0
 6298 21e5 28       		.uleb128 0x28
 6299 21e6 113E0000 		.4byte	.LASF157
 6300 21ea 0D       		.byte	0xd
 6301 21eb 9F01     		.2byte	0x19f
 6302 21ed 30000000 		.4byte	.LASF345
 6303 21f1 01       		.byte	0x1
 6304 21f2 FA210000 		.4byte	0x21fa
 6305 21f6 05220000 		.4byte	0x2205
 6306 21fa 0E       		.uleb128 0xe
 6307 21fb 42370000 		.4byte	0x3742
 6308 21ff 0B       		.uleb128 0xb
 6309 2200 48370000 		.4byte	0x3748
 6310 2204 00       		.byte	0
 6311 2205 27       		.uleb128 0x27
 6312 2206 171E0000 		.4byte	.LASF160
 6313 220a 0D       		.byte	0xd
 6314 220b 0E02     		.2byte	0x20e
 6315 220d 80350000 		.4byte	.LASF346
 6316 2211 22310000 		.4byte	0x3122
 6317 2215 01       		.byte	0x1
 6318 2216 1E220000 		.4byte	0x221e
 6319 221a 29220000 		.4byte	0x2229
 6320 221e 0E       		.uleb128 0xe
 6321 221f 42370000 		.4byte	0x3742
 6322 2223 0B       		.uleb128 0xb
 6323 2224 48370000 		.4byte	0x3748
 6324 2228 00       		.byte	0
ARM GAS  /tmp/ccyYK6L9.s 			page 112


 6325 2229 27       		.uleb128 0x27
 6326 222a 90290000 		.4byte	.LASF162
 6327 222e 0D       		.byte	0xd
 6328 222f 1F02     		.2byte	0x21f
 6329 2231 32310000 		.4byte	.LASF347
 6330 2235 25000000 		.4byte	0x25
 6331 2239 01       		.byte	0x1
 6332 223a 42220000 		.4byte	0x2242
 6333 223e 4D220000 		.4byte	0x224d
 6334 2242 0E       		.uleb128 0xe
 6335 2243 3C370000 		.4byte	0x373c
 6336 2247 0B       		.uleb128 0xb
 6337 2248 16370000 		.4byte	0x3716
 6338 224c 00       		.byte	0
 6339 224d 27       		.uleb128 0x27
 6340 224e 3E3B0000 		.4byte	.LASF164
 6341 2252 0D       		.byte	0xd
 6342 2253 2C02     		.2byte	0x22c
 6343 2255 05330000 		.4byte	.LASF348
 6344 2259 22310000 		.4byte	0x3122
 6345 225d 01       		.byte	0x1
 6346 225e 66220000 		.4byte	0x2266
 6347 2262 71220000 		.4byte	0x2271
 6348 2266 0E       		.uleb128 0xe
 6349 2267 3C370000 		.4byte	0x373c
 6350 226b 0B       		.uleb128 0xb
 6351 226c 16370000 		.4byte	0x3716
 6352 2270 00       		.byte	0
 6353 2271 27       		.uleb128 0x27
 6354 2272 DD260000 		.4byte	.LASF166
 6355 2276 0D       		.byte	0xd
 6356 2277 3802     		.2byte	0x238
 6357 2279 7E010000 		.4byte	.LASF349
 6358 227d 4E370000 		.4byte	0x374e
 6359 2281 01       		.byte	0x1
 6360 2282 8A220000 		.4byte	0x228a
 6361 2286 95220000 		.4byte	0x2295
 6362 228a 0E       		.uleb128 0xe
 6363 228b 3C370000 		.4byte	0x373c
 6364 228f 0B       		.uleb128 0xb
 6365 2290 4B210000 		.4byte	0x214b
 6366 2294 00       		.byte	0
 6367 2295 27       		.uleb128 0x27
 6368 2296 DD260000 		.4byte	.LASF166
 6369 229a 0D       		.byte	0xd
 6370 229b 4402     		.2byte	0x244
 6371 229d CB080000 		.4byte	.LASF350
 6372 22a1 4E370000 		.4byte	0x374e
 6373 22a5 01       		.byte	0x1
 6374 22a6 AE220000 		.4byte	0x22ae
 6375 22aa BE220000 		.4byte	0x22be
 6376 22ae 0E       		.uleb128 0xe
 6377 22af 3C370000 		.4byte	0x373c
 6378 22b3 0B       		.uleb128 0xb
 6379 22b4 57210000 		.4byte	0x2157
 6380 22b8 0B       		.uleb128 0xb
 6381 22b9 11350000 		.4byte	0x3511
ARM GAS  /tmp/ccyYK6L9.s 			page 113


 6382 22bd 00       		.byte	0
 6383 22be 27       		.uleb128 0x27
 6384 22bf E90B0000 		.4byte	.LASF169
 6385 22c3 0D       		.byte	0xd
 6386 22c4 B301     		.2byte	0x1b3
 6387 22c6 612A0000 		.4byte	.LASF351
 6388 22ca DD220000 		.4byte	0x22dd
 6389 22ce 01       		.byte	0x1
 6390 22cf D7220000 		.4byte	0x22d7
 6391 22d3 DD220000 		.4byte	0x22dd
 6392 22d7 0E       		.uleb128 0xe
 6393 22d8 42370000 		.4byte	0x3742
 6394 22dc 00       		.byte	0
 6395 22dd 07       		.uleb128 0x7
 6396 22de CC1F0000 		.4byte	0x1fcc
 6397 22e2 27       		.uleb128 0x27
 6398 22e3 D1230000 		.4byte	.LASF171
 6399 22e7 0D       		.byte	0xd
 6400 22e8 B701     		.2byte	0x1b7
 6401 22ea 82230000 		.4byte	.LASF352
 6402 22ee DD220000 		.4byte	0x22dd
 6403 22f2 01       		.byte	0x1
 6404 22f3 FB220000 		.4byte	0x22fb
 6405 22f7 01230000 		.4byte	0x2301
 6406 22fb 0E       		.uleb128 0xe
 6407 22fc 42370000 		.4byte	0x3742
 6408 2300 00       		.byte	0
 6409 2301 28       		.uleb128 0x28
 6410 2302 C04A0000 		.4byte	.LASF173
 6411 2306 0D       		.byte	0xd
 6412 2307 BB01     		.2byte	0x1bb
 6413 2309 D51E0000 		.4byte	.LASF353
 6414 230d 01       		.byte	0x1
 6415 230e 16230000 		.4byte	0x2316
 6416 2312 21230000 		.4byte	0x2321
 6417 2316 0E       		.uleb128 0xe
 6418 2317 42370000 		.4byte	0x3742
 6419 231b 0B       		.uleb128 0xb
 6420 231c 54370000 		.4byte	0x3754
 6421 2320 00       		.byte	0
 6422 2321 27       		.uleb128 0x27
 6423 2322 E90B0000 		.4byte	.LASF169
 6424 2326 0D       		.byte	0xd
 6425 2327 BF01     		.2byte	0x1bf
 6426 2329 172E0000 		.4byte	.LASF354
 6427 232d 40230000 		.4byte	0x2340
 6428 2331 01       		.byte	0x1
 6429 2332 3A230000 		.4byte	0x233a
 6430 2336 40230000 		.4byte	0x2340
 6431 233a 0E       		.uleb128 0xe
 6432 233b 3C370000 		.4byte	0x373c
 6433 233f 00       		.byte	0
 6434 2340 07       		.uleb128 0x7
 6435 2341 D11F0000 		.4byte	0x1fd1
 6436 2345 27       		.uleb128 0x27
 6437 2346 D1230000 		.4byte	.LASF171
 6438 234a 0D       		.byte	0xd
ARM GAS  /tmp/ccyYK6L9.s 			page 114


 6439 234b C301     		.2byte	0x1c3
 6440 234d 18220000 		.4byte	.LASF355
 6441 2351 40230000 		.4byte	0x2340
 6442 2355 01       		.byte	0x1
 6443 2356 5E230000 		.4byte	0x235e
 6444 235a 64230000 		.4byte	0x2364
 6445 235e 0E       		.uleb128 0xe
 6446 235f 3C370000 		.4byte	0x373c
 6447 2363 00       		.byte	0
 6448 2364 28       		.uleb128 0x28
 6449 2365 C04A0000 		.4byte	.LASF173
 6450 2369 0D       		.byte	0xd
 6451 236a C701     		.2byte	0x1c7
 6452 236c 81160000 		.4byte	.LASF356
 6453 2370 01       		.byte	0x1
 6454 2371 79230000 		.4byte	0x2379
 6455 2375 84230000 		.4byte	0x2384
 6456 2379 0E       		.uleb128 0xe
 6457 237a 3C370000 		.4byte	0x373c
 6458 237e 0B       		.uleb128 0xb
 6459 237f 5A370000 		.4byte	0x375a
 6460 2383 00       		.byte	0
 6461 2384 27       		.uleb128 0x27
 6462 2385 FA440000 		.4byte	.LASF178
 6463 2389 0D       		.byte	0xd
 6464 238a 5302     		.2byte	0x253
 6465 238c CB480000 		.4byte	.LASF357
 6466 2390 36370000 		.4byte	0x3736
 6467 2394 01       		.byte	0x1
 6468 2395 9D230000 		.4byte	0x239d
 6469 2399 A3230000 		.4byte	0x23a3
 6470 239d 0E       		.uleb128 0xe
 6471 239e 3C370000 		.4byte	0x373c
 6472 23a2 00       		.byte	0
 6473 23a3 27       		.uleb128 0x27
 6474 23a4 94340000 		.4byte	.LASF180
 6475 23a8 0D       		.byte	0xd
 6476 23a9 5D02     		.2byte	0x25d
 6477 23ab B90C0000 		.4byte	.LASF358
 6478 23af 22310000 		.4byte	0x3122
 6479 23b3 01       		.byte	0x1
 6480 23b4 BC230000 		.4byte	0x23bc
 6481 23b8 C2230000 		.4byte	0x23c2
 6482 23bc 0E       		.uleb128 0xe
 6483 23bd 3C370000 		.4byte	0x373c
 6484 23c1 00       		.byte	0
 6485 23c2 27       		.uleb128 0x27
 6486 23c3 24270000 		.4byte	.LASF109
 6487 23c7 0D       		.byte	0xd
 6488 23c8 6702     		.2byte	0x267
 6489 23ca 00010000 		.4byte	.LASF359
 6490 23ce 2C000000 		.4byte	0x2c
 6491 23d2 01       		.byte	0x1
 6492 23d3 DB230000 		.4byte	0x23db
 6493 23d7 E1230000 		.4byte	0x23e1
 6494 23db 0E       		.uleb128 0xe
 6495 23dc 3C370000 		.4byte	0x373c
ARM GAS  /tmp/ccyYK6L9.s 			page 115


 6496 23e0 00       		.byte	0
 6497 23e1 28       		.uleb128 0x28
 6498 23e2 30170000 		.4byte	.LASF183
 6499 23e6 0D       		.byte	0xd
 6500 23e7 7602     		.2byte	0x276
 6501 23e9 B6240000 		.4byte	.LASF360
 6502 23ed 01       		.byte	0x1
 6503 23ee F6230000 		.4byte	0x23f6
 6504 23f2 01240000 		.4byte	0x2401
 6505 23f6 0E       		.uleb128 0xe
 6506 23f7 42370000 		.4byte	0x3742
 6507 23fb 0B       		.uleb128 0xb
 6508 23fc 48370000 		.4byte	0x3748
 6509 2400 00       		.byte	0
 6510 2401 27       		.uleb128 0x27
 6511 2402 2D0F0000 		.4byte	.LASF185
 6512 2406 0D       		.byte	0xd
 6513 2407 8002     		.2byte	0x280
 6514 2409 5F2D0000 		.4byte	.LASF361
 6515 240d 22310000 		.4byte	0x3122
 6516 2411 01       		.byte	0x1
 6517 2412 1A240000 		.4byte	0x241a
 6518 2416 25240000 		.4byte	0x2425
 6519 241a 0E       		.uleb128 0xe
 6520 241b 42370000 		.4byte	0x3742
 6521 241f 0B       		.uleb128 0xb
 6522 2420 48370000 		.4byte	0x3748
 6523 2424 00       		.byte	0
 6524 2425 27       		.uleb128 0x27
 6525 2426 B22A0000 		.4byte	.LASF187
 6526 242a 0D       		.byte	0xd
 6527 242b 8A02     		.2byte	0x28a
 6528 242d 480C0000 		.4byte	.LASF362
 6529 2431 25000000 		.4byte	0x25
 6530 2435 01       		.byte	0x1
 6531 2436 3E240000 		.4byte	0x243e
 6532 243a 49240000 		.4byte	0x2449
 6533 243e 0E       		.uleb128 0xe
 6534 243f 3C370000 		.4byte	0x373c
 6535 2443 0B       		.uleb128 0xb
 6536 2444 16370000 		.4byte	0x3716
 6537 2448 00       		.byte	0
 6538 2449 27       		.uleb128 0x27
 6539 244a 8F1A0000 		.4byte	.LASF189
 6540 244e 0D       		.byte	0xd
 6541 244f 9B02     		.2byte	0x29b
 6542 2451 A12E0000 		.4byte	.LASF363
 6543 2455 22310000 		.4byte	0x3122
 6544 2459 01       		.byte	0x1
 6545 245a 62240000 		.4byte	0x2462
 6546 245e 6D240000 		.4byte	0x246d
 6547 2462 0E       		.uleb128 0xe
 6548 2463 3C370000 		.4byte	0x373c
 6549 2467 0B       		.uleb128 0xb
 6550 2468 16370000 		.4byte	0x3716
 6551 246c 00       		.byte	0
 6552 246d 27       		.uleb128 0x27
ARM GAS  /tmp/ccyYK6L9.s 			page 116


 6553 246e AA2D0000 		.4byte	.LASF191
 6554 2472 0D       		.byte	0xd
 6555 2473 AC02     		.2byte	0x2ac
 6556 2475 1B3F0000 		.4byte	.LASF364
 6557 2479 4E370000 		.4byte	0x374e
 6558 247d 01       		.byte	0x1
 6559 247e 86240000 		.4byte	0x2486
 6560 2482 91240000 		.4byte	0x2491
 6561 2486 0E       		.uleb128 0xe
 6562 2487 3C370000 		.4byte	0x373c
 6563 248b 0B       		.uleb128 0xb
 6564 248c 4B210000 		.4byte	0x214b
 6565 2490 00       		.byte	0
 6566 2491 27       		.uleb128 0x27
 6567 2492 AA2D0000 		.4byte	.LASF191
 6568 2496 0D       		.byte	0xd
 6569 2497 BC02     		.2byte	0x2bc
 6570 2499 26110000 		.4byte	.LASF365
 6571 249d 4E370000 		.4byte	0x374e
 6572 24a1 01       		.byte	0x1
 6573 24a2 AA240000 		.4byte	0x24aa
 6574 24a6 BA240000 		.4byte	0x24ba
 6575 24aa 0E       		.uleb128 0xe
 6576 24ab 3C370000 		.4byte	0x373c
 6577 24af 0B       		.uleb128 0xb
 6578 24b0 57210000 		.4byte	0x2157
 6579 24b4 0B       		.uleb128 0xb
 6580 24b5 11350000 		.4byte	0x3511
 6581 24b9 00       		.byte	0
 6582 24ba 27       		.uleb128 0x27
 6583 24bb 6F4A0000 		.4byte	.LASF194
 6584 24bf 0D       		.byte	0xd
 6585 24c0 E001     		.2byte	0x1e0
 6586 24c2 391F0000 		.4byte	.LASF366
 6587 24c6 D9240000 		.4byte	0x24d9
 6588 24ca 01       		.byte	0x1
 6589 24cb D3240000 		.4byte	0x24d3
 6590 24cf D9240000 		.4byte	0x24d9
 6591 24d3 0E       		.uleb128 0xe
 6592 24d4 42370000 		.4byte	0x3742
 6593 24d8 00       		.byte	0
 6594 24d9 07       		.uleb128 0x7
 6595 24da D61F0000 		.4byte	0x1fd6
 6596 24de 29       		.uleb128 0x29
 6597 24df 656E6400 		.ascii	"end\000"
 6598 24e3 0D       		.byte	0xd
 6599 24e4 E401     		.2byte	0x1e4
 6600 24e6 F31C0000 		.4byte	.LASF367
 6601 24ea D9240000 		.4byte	0x24d9
 6602 24ee 01       		.byte	0x1
 6603 24ef F7240000 		.4byte	0x24f7
 6604 24f3 FD240000 		.4byte	0x24fd
 6605 24f7 0E       		.uleb128 0xe
 6606 24f8 42370000 		.4byte	0x3742
 6607 24fc 00       		.byte	0
 6608 24fd 28       		.uleb128 0x28
 6609 24fe 1A0E0000 		.4byte	.LASF196
ARM GAS  /tmp/ccyYK6L9.s 			page 117


 6610 2502 0D       		.byte	0xd
 6611 2503 E801     		.2byte	0x1e8
 6612 2505 DC230000 		.4byte	.LASF368
 6613 2509 01       		.byte	0x1
 6614 250a 12250000 		.4byte	0x2512
 6615 250e 1D250000 		.4byte	0x251d
 6616 2512 0E       		.uleb128 0xe
 6617 2513 42370000 		.4byte	0x3742
 6618 2517 0B       		.uleb128 0xb
 6619 2518 60370000 		.4byte	0x3760
 6620 251c 00       		.byte	0
 6621 251d 27       		.uleb128 0x27
 6622 251e 6F4A0000 		.4byte	.LASF194
 6623 2522 0D       		.byte	0xd
 6624 2523 EC01     		.2byte	0x1ec
 6625 2525 1A120000 		.4byte	.LASF369
 6626 2529 3C250000 		.4byte	0x253c
 6627 252d 01       		.byte	0x1
 6628 252e 36250000 		.4byte	0x2536
 6629 2532 3C250000 		.4byte	0x253c
 6630 2536 0E       		.uleb128 0xe
 6631 2537 3C370000 		.4byte	0x373c
 6632 253b 00       		.byte	0
 6633 253c 07       		.uleb128 0x7
 6634 253d DB1F0000 		.4byte	0x1fdb
 6635 2541 29       		.uleb128 0x29
 6636 2542 656E6400 		.ascii	"end\000"
 6637 2546 0D       		.byte	0xd
 6638 2547 F201     		.2byte	0x1f2
 6639 2549 334A0000 		.4byte	.LASF370
 6640 254d 3C250000 		.4byte	0x253c
 6641 2551 01       		.byte	0x1
 6642 2552 5A250000 		.4byte	0x255a
 6643 2556 60250000 		.4byte	0x2560
 6644 255a 0E       		.uleb128 0xe
 6645 255b 3C370000 		.4byte	0x373c
 6646 255f 00       		.byte	0
 6647 2560 28       		.uleb128 0x28
 6648 2561 1A0E0000 		.4byte	.LASF196
 6649 2565 0D       		.byte	0xd
 6650 2566 F601     		.2byte	0x1f6
 6651 2568 F8420000 		.4byte	.LASF371
 6652 256c 01       		.byte	0x1
 6653 256d 75250000 		.4byte	0x2575
 6654 2571 80250000 		.4byte	0x2580
 6655 2575 0E       		.uleb128 0xe
 6656 2576 3C370000 		.4byte	0x373c
 6657 257a 0B       		.uleb128 0xb
 6658 257b 66370000 		.4byte	0x3766
 6659 257f 00       		.byte	0
 6660 2580 2A       		.uleb128 0x2a
 6661 2581 1D0C0000 		.4byte	.LASF202
 6662 2585 0D       		.byte	0xd
 6663 2586 FA01     		.2byte	0x1fa
 6664 2588 42370000 		.4byte	0x3742
 6665 258c 01       		.byte	0x1
 6666 258d 95250000 		.4byte	0x2595
ARM GAS  /tmp/ccyYK6L9.s 			page 118


 6667 2591 9B250000 		.4byte	0x259b
 6668 2595 0E       		.uleb128 0xe
 6669 2596 42370000 		.4byte	0x3742
 6670 259a 00       		.byte	0
 6671 259b 07       		.uleb128 0x7
 6672 259c C71F0000 		.4byte	0x1fc7
 6673 25a0 22       		.uleb128 0x22
 6674 25a1 96190000 		.4byte	.LASF206
 6675 25a5 AF250000 		.4byte	0x25af
 6676 25a9 00       		.byte	0
 6677 25aa 07       		.uleb128 0x7
 6678 25ab AF250000 		.4byte	0x25af
 6679 25af 25       		.uleb128 0x25
 6680 25b0 59490000 		.4byte	.LASF372
 6681 25b4 07       		.uleb128 0x7
 6682 25b5 681F0000 		.4byte	0x1f68
 6683 25b9 0C       		.uleb128 0xc
 6684 25ba 043F0000 		.4byte	.LASF373
 6685 25be 04       		.byte	0x4
 6686 25bf 0D       		.byte	0xd
 6687 25c0 0F       		.byte	0xf
 6688 25c1 862A0000 		.4byte	0x2a86
 6689 25c5 11       		.uleb128 0x11
 6690 25c6 69010000 		.4byte	0x169
 6691 25ca 00       		.byte	0
 6692 25cb 1A       		.uleb128 0x1a
 6693 25cc CE440000 		.4byte	.LASF141
 6694 25d0 08       		.byte	0x8
 6695 25d1 0D       		.byte	0xd
 6696 25d2 11       		.byte	0x11
 6697 25d3 01       		.byte	0x1
 6698 25d4 0B260000 		.4byte	0x260b
 6699 25d8 1B       		.uleb128 0x1b
 6700 25d9 50210000 		.4byte	.LASF142
 6701 25dd 0D       		.byte	0xd
 6702 25de 12       		.byte	0x12
 6703 25df 6C370000 		.4byte	0x376c
 6704 25e3 00       		.byte	0
 6705 25e4 1B       		.uleb128 0x1b
 6706 25e5 98130000 		.4byte	.LASF143
 6707 25e9 0D       		.byte	0xd
 6708 25ea 13       		.byte	0x13
 6709 25eb DD370000 		.4byte	0x37dd
 6710 25ef 04       		.byte	0x4
 6711 25f0 1D       		.uleb128 0x1d
 6712 25f1 CE440000 		.4byte	.LASF141
 6713 25f5 0D       		.byte	0xd
 6714 25f6 15       		.byte	0x15
 6715 25f7 6C370000 		.4byte	0x376c
 6716 25fb FF250000 		.4byte	0x25ff
 6717 25ff 0E       		.uleb128 0xe
 6718 2600 6C370000 		.4byte	0x376c
 6719 2604 0B       		.uleb128 0xb
 6720 2605 E2370000 		.4byte	0x37e2
 6721 2609 00       		.byte	0
 6722 260a 00       		.byte	0
 6723 260b 24       		.uleb128 0x24
ARM GAS  /tmp/ccyYK6L9.s 			page 119


 6724 260c DC0E0000 		.4byte	.LASF110
 6725 2610 0D       		.byte	0xd
 6726 2611 8A01     		.2byte	0x18a
 6727 2613 6C370000 		.4byte	0x376c
 6728 2617 00       		.byte	0
 6729 2618 25       		.uleb128 0x25
 6730 2619 2A180000 		.4byte	.LASF144
 6731 261d 25       		.uleb128 0x25
 6732 261e 52220000 		.4byte	.LASF145
 6733 2622 25       		.uleb128 0x25
 6734 2623 8B3E0000 		.4byte	.LASF146
 6735 2627 25       		.uleb128 0x25
 6736 2628 E52E0000 		.4byte	.LASF147
 6737 262c 26       		.uleb128 0x26
 6738 262d 4F2D0000 		.4byte	.LASF148
 6739 2631 0D       		.byte	0xd
 6740 2632 8601     		.2byte	0x186
 6741 2634 72370000 		.4byte	0x3772
 6742 2638 26       		.uleb128 0x26
 6743 2639 440E0000 		.4byte	.LASF149
 6744 263d 0D       		.byte	0xd
 6745 263e 8701     		.2byte	0x187
 6746 2640 8D370000 		.4byte	0x378d
 6747 2644 27       		.uleb128 0x27
 6748 2645 864A0000 		.4byte	.LASF150
 6749 2649 0D       		.byte	0xd
 6750 264a 8D01     		.2byte	0x18d
 6751 264c 91260000 		.4byte	.LASF374
 6752 2650 A7370000 		.4byte	0x37a7
 6753 2654 01       		.byte	0x1
 6754 2655 5D260000 		.4byte	0x265d
 6755 2659 63260000 		.4byte	0x2663
 6756 265d 0E       		.uleb128 0xe
 6757 265e AD370000 		.4byte	0x37ad
 6758 2662 00       		.byte	0
 6759 2663 07       		.uleb128 0x7
 6760 2664 CB250000 		.4byte	0x25cb
 6761 2668 27       		.uleb128 0x27
 6762 2669 DE290000 		.4byte	.LASF151
 6763 266d 0D       		.byte	0xd
 6764 266e 9101     		.2byte	0x191
 6765 2670 E4210000 		.4byte	.LASF375
 6766 2674 22310000 		.4byte	0x3122
 6767 2678 01       		.byte	0x1
 6768 2679 81260000 		.4byte	0x2681
 6769 267d 87260000 		.4byte	0x2687
 6770 2681 0E       		.uleb128 0xe
 6771 2682 AD370000 		.4byte	0x37ad
 6772 2686 00       		.byte	0
 6773 2687 27       		.uleb128 0x27
 6774 2688 23170000 		.4byte	.LASF154
 6775 268c 0D       		.byte	0xd
 6776 268d 0302     		.2byte	0x203
 6777 268f A0200000 		.4byte	.LASF376
 6778 2693 2C000000 		.4byte	0x2c
 6779 2697 01       		.byte	0x1
 6780 2698 A0260000 		.4byte	0x26a0
ARM GAS  /tmp/ccyYK6L9.s 			page 120


 6781 269c A6260000 		.4byte	0x26a6
 6782 26a0 0E       		.uleb128 0xe
 6783 26a1 AD370000 		.4byte	0x37ad
 6784 26a5 00       		.byte	0
 6785 26a6 28       		.uleb128 0x28
 6786 26a7 2F360000 		.4byte	.LASF156
 6787 26ab 0D       		.byte	0xd
 6788 26ac 9701     		.2byte	0x197
 6789 26ae C33A0000 		.4byte	.LASF377
 6790 26b2 01       		.byte	0x1
 6791 26b3 BB260000 		.4byte	0x26bb
 6792 26b7 C6260000 		.4byte	0x26c6
 6793 26bb 0E       		.uleb128 0xe
 6794 26bc B3370000 		.4byte	0x37b3
 6795 26c0 0B       		.uleb128 0xb
 6796 26c1 B9370000 		.4byte	0x37b9
 6797 26c5 00       		.byte	0
 6798 26c6 28       		.uleb128 0x28
 6799 26c7 113E0000 		.4byte	.LASF157
 6800 26cb 0D       		.byte	0xd
 6801 26cc 9F01     		.2byte	0x19f
 6802 26ce 02200000 		.4byte	.LASF378
 6803 26d2 01       		.byte	0x1
 6804 26d3 DB260000 		.4byte	0x26db
 6805 26d7 E6260000 		.4byte	0x26e6
 6806 26db 0E       		.uleb128 0xe
 6807 26dc B3370000 		.4byte	0x37b3
 6808 26e0 0B       		.uleb128 0xb
 6809 26e1 B9370000 		.4byte	0x37b9
 6810 26e5 00       		.byte	0
 6811 26e6 27       		.uleb128 0x27
 6812 26e7 171E0000 		.4byte	.LASF160
 6813 26eb 0D       		.byte	0xd
 6814 26ec 0E02     		.2byte	0x20e
 6815 26ee F5180000 		.4byte	.LASF379
 6816 26f2 22310000 		.4byte	0x3122
 6817 26f6 01       		.byte	0x1
 6818 26f7 FF260000 		.4byte	0x26ff
 6819 26fb 0A270000 		.4byte	0x270a
 6820 26ff 0E       		.uleb128 0xe
 6821 2700 B3370000 		.4byte	0x37b3
 6822 2704 0B       		.uleb128 0xb
 6823 2705 B9370000 		.4byte	0x37b9
 6824 2709 00       		.byte	0
 6825 270a 27       		.uleb128 0x27
 6826 270b 90290000 		.4byte	.LASF162
 6827 270f 0D       		.byte	0xd
 6828 2710 1F02     		.2byte	0x21f
 6829 2712 4C3E0000 		.4byte	.LASF380
 6830 2716 25000000 		.4byte	0x25
 6831 271a 01       		.byte	0x1
 6832 271b 23270000 		.4byte	0x2723
 6833 271f 2E270000 		.4byte	0x272e
 6834 2723 0E       		.uleb128 0xe
 6835 2724 AD370000 		.4byte	0x37ad
 6836 2728 0B       		.uleb128 0xb
 6837 2729 87370000 		.4byte	0x3787
ARM GAS  /tmp/ccyYK6L9.s 			page 121


 6838 272d 00       		.byte	0
 6839 272e 27       		.uleb128 0x27
 6840 272f 3E3B0000 		.4byte	.LASF164
 6841 2733 0D       		.byte	0xd
 6842 2734 2C02     		.2byte	0x22c
 6843 2736 9A400000 		.4byte	.LASF381
 6844 273a 22310000 		.4byte	0x3122
 6845 273e 01       		.byte	0x1
 6846 273f 47270000 		.4byte	0x2747
 6847 2743 52270000 		.4byte	0x2752
 6848 2747 0E       		.uleb128 0xe
 6849 2748 AD370000 		.4byte	0x37ad
 6850 274c 0B       		.uleb128 0xb
 6851 274d 87370000 		.4byte	0x3787
 6852 2751 00       		.byte	0
 6853 2752 27       		.uleb128 0x27
 6854 2753 DD260000 		.4byte	.LASF166
 6855 2757 0D       		.byte	0xd
 6856 2758 3802     		.2byte	0x238
 6857 275a 52290000 		.4byte	.LASF382
 6858 275e BF370000 		.4byte	0x37bf
 6859 2762 01       		.byte	0x1
 6860 2763 6B270000 		.4byte	0x276b
 6861 2767 76270000 		.4byte	0x2776
 6862 276b 0E       		.uleb128 0xe
 6863 276c AD370000 		.4byte	0x37ad
 6864 2770 0B       		.uleb128 0xb
 6865 2771 2C260000 		.4byte	0x262c
 6866 2775 00       		.byte	0
 6867 2776 27       		.uleb128 0x27
 6868 2777 DD260000 		.4byte	.LASF166
 6869 277b 0D       		.byte	0xd
 6870 277c 4402     		.2byte	0x244
 6871 277e 6C1F0000 		.4byte	.LASF383
 6872 2782 BF370000 		.4byte	0x37bf
 6873 2786 01       		.byte	0x1
 6874 2787 8F270000 		.4byte	0x278f
 6875 278b 9F270000 		.4byte	0x279f
 6876 278f 0E       		.uleb128 0xe
 6877 2790 AD370000 		.4byte	0x37ad
 6878 2794 0B       		.uleb128 0xb
 6879 2795 38260000 		.4byte	0x2638
 6880 2799 0B       		.uleb128 0xb
 6881 279a 11350000 		.4byte	0x3511
 6882 279e 00       		.byte	0
 6883 279f 27       		.uleb128 0x27
 6884 27a0 E90B0000 		.4byte	.LASF169
 6885 27a4 0D       		.byte	0xd
 6886 27a5 B301     		.2byte	0x1b3
 6887 27a7 8E030000 		.4byte	.LASF384
 6888 27ab BE270000 		.4byte	0x27be
 6889 27af 01       		.byte	0x1
 6890 27b0 B8270000 		.4byte	0x27b8
 6891 27b4 BE270000 		.4byte	0x27be
 6892 27b8 0E       		.uleb128 0xe
 6893 27b9 B3370000 		.4byte	0x37b3
 6894 27bd 00       		.byte	0
ARM GAS  /tmp/ccyYK6L9.s 			page 122


 6895 27be 07       		.uleb128 0x7
 6896 27bf 18260000 		.4byte	0x2618
 6897 27c3 27       		.uleb128 0x27
 6898 27c4 D1230000 		.4byte	.LASF171
 6899 27c8 0D       		.byte	0xd
 6900 27c9 B701     		.2byte	0x1b7
 6901 27cb D41F0000 		.4byte	.LASF385
 6902 27cf BE270000 		.4byte	0x27be
 6903 27d3 01       		.byte	0x1
 6904 27d4 DC270000 		.4byte	0x27dc
 6905 27d8 E2270000 		.4byte	0x27e2
 6906 27dc 0E       		.uleb128 0xe
 6907 27dd B3370000 		.4byte	0x37b3
 6908 27e1 00       		.byte	0
 6909 27e2 28       		.uleb128 0x28
 6910 27e3 C04A0000 		.4byte	.LASF173
 6911 27e7 0D       		.byte	0xd
 6912 27e8 BB01     		.2byte	0x1bb
 6913 27ea 920F0000 		.4byte	.LASF386
 6914 27ee 01       		.byte	0x1
 6915 27ef F7270000 		.4byte	0x27f7
 6916 27f3 02280000 		.4byte	0x2802
 6917 27f7 0E       		.uleb128 0xe
 6918 27f8 B3370000 		.4byte	0x37b3
 6919 27fc 0B       		.uleb128 0xb
 6920 27fd C5370000 		.4byte	0x37c5
 6921 2801 00       		.byte	0
 6922 2802 27       		.uleb128 0x27
 6923 2803 E90B0000 		.4byte	.LASF169
 6924 2807 0D       		.byte	0xd
 6925 2808 BF01     		.2byte	0x1bf
 6926 280a 67130000 		.4byte	.LASF387
 6927 280e 21280000 		.4byte	0x2821
 6928 2812 01       		.byte	0x1
 6929 2813 1B280000 		.4byte	0x281b
 6930 2817 21280000 		.4byte	0x2821
 6931 281b 0E       		.uleb128 0xe
 6932 281c AD370000 		.4byte	0x37ad
 6933 2820 00       		.byte	0
 6934 2821 07       		.uleb128 0x7
 6935 2822 1D260000 		.4byte	0x261d
 6936 2826 27       		.uleb128 0x27
 6937 2827 D1230000 		.4byte	.LASF171
 6938 282b 0D       		.byte	0xd
 6939 282c C301     		.2byte	0x1c3
 6940 282e 533B0000 		.4byte	.LASF388
 6941 2832 21280000 		.4byte	0x2821
 6942 2836 01       		.byte	0x1
 6943 2837 3F280000 		.4byte	0x283f
 6944 283b 45280000 		.4byte	0x2845
 6945 283f 0E       		.uleb128 0xe
 6946 2840 AD370000 		.4byte	0x37ad
 6947 2844 00       		.byte	0
 6948 2845 28       		.uleb128 0x28
 6949 2846 C04A0000 		.4byte	.LASF173
 6950 284a 0D       		.byte	0xd
 6951 284b C701     		.2byte	0x1c7
ARM GAS  /tmp/ccyYK6L9.s 			page 123


 6952 284d F00C0000 		.4byte	.LASF389
 6953 2851 01       		.byte	0x1
 6954 2852 5A280000 		.4byte	0x285a
 6955 2856 65280000 		.4byte	0x2865
 6956 285a 0E       		.uleb128 0xe
 6957 285b AD370000 		.4byte	0x37ad
 6958 285f 0B       		.uleb128 0xb
 6959 2860 CB370000 		.4byte	0x37cb
 6960 2864 00       		.byte	0
 6961 2865 27       		.uleb128 0x27
 6962 2866 FA440000 		.4byte	.LASF178
 6963 286a 0D       		.byte	0xd
 6964 286b 5302     		.2byte	0x253
 6965 286d 1C340000 		.4byte	.LASF390
 6966 2871 A7370000 		.4byte	0x37a7
 6967 2875 01       		.byte	0x1
 6968 2876 7E280000 		.4byte	0x287e
 6969 287a 84280000 		.4byte	0x2884
 6970 287e 0E       		.uleb128 0xe
 6971 287f AD370000 		.4byte	0x37ad
 6972 2883 00       		.byte	0
 6973 2884 27       		.uleb128 0x27
 6974 2885 94340000 		.4byte	.LASF180
 6975 2889 0D       		.byte	0xd
 6976 288a 5D02     		.2byte	0x25d
 6977 288c 3E030000 		.4byte	.LASF391
 6978 2890 22310000 		.4byte	0x3122
 6979 2894 01       		.byte	0x1
 6980 2895 9D280000 		.4byte	0x289d
 6981 2899 A3280000 		.4byte	0x28a3
 6982 289d 0E       		.uleb128 0xe
 6983 289e AD370000 		.4byte	0x37ad
 6984 28a2 00       		.byte	0
 6985 28a3 27       		.uleb128 0x27
 6986 28a4 24270000 		.4byte	.LASF109
 6987 28a8 0D       		.byte	0xd
 6988 28a9 6702     		.2byte	0x267
 6989 28ab B2000000 		.4byte	.LASF392
 6990 28af 2C000000 		.4byte	0x2c
 6991 28b3 01       		.byte	0x1
 6992 28b4 BC280000 		.4byte	0x28bc
 6993 28b8 C2280000 		.4byte	0x28c2
 6994 28bc 0E       		.uleb128 0xe
 6995 28bd AD370000 		.4byte	0x37ad
 6996 28c1 00       		.byte	0
 6997 28c2 28       		.uleb128 0x28
 6998 28c3 30170000 		.4byte	.LASF183
 6999 28c7 0D       		.byte	0xd
 7000 28c8 7602     		.2byte	0x276
 7001 28ca 41180000 		.4byte	.LASF393
 7002 28ce 01       		.byte	0x1
 7003 28cf D7280000 		.4byte	0x28d7
 7004 28d3 E2280000 		.4byte	0x28e2
 7005 28d7 0E       		.uleb128 0xe
 7006 28d8 B3370000 		.4byte	0x37b3
 7007 28dc 0B       		.uleb128 0xb
 7008 28dd B9370000 		.4byte	0x37b9
ARM GAS  /tmp/ccyYK6L9.s 			page 124


 7009 28e1 00       		.byte	0
 7010 28e2 27       		.uleb128 0x27
 7011 28e3 2D0F0000 		.4byte	.LASF185
 7012 28e7 0D       		.byte	0xd
 7013 28e8 8002     		.2byte	0x280
 7014 28ea 12290000 		.4byte	.LASF394
 7015 28ee 22310000 		.4byte	0x3122
 7016 28f2 01       		.byte	0x1
 7017 28f3 FB280000 		.4byte	0x28fb
 7018 28f7 06290000 		.4byte	0x2906
 7019 28fb 0E       		.uleb128 0xe
 7020 28fc B3370000 		.4byte	0x37b3
 7021 2900 0B       		.uleb128 0xb
 7022 2901 B9370000 		.4byte	0x37b9
 7023 2905 00       		.byte	0
 7024 2906 27       		.uleb128 0x27
 7025 2907 B22A0000 		.4byte	.LASF187
 7026 290b 0D       		.byte	0xd
 7027 290c 8A02     		.2byte	0x28a
 7028 290e AB040000 		.4byte	.LASF395
 7029 2912 25000000 		.4byte	0x25
 7030 2916 01       		.byte	0x1
 7031 2917 1F290000 		.4byte	0x291f
 7032 291b 2A290000 		.4byte	0x292a
 7033 291f 0E       		.uleb128 0xe
 7034 2920 AD370000 		.4byte	0x37ad
 7035 2924 0B       		.uleb128 0xb
 7036 2925 87370000 		.4byte	0x3787
 7037 2929 00       		.byte	0
 7038 292a 27       		.uleb128 0x27
 7039 292b 8F1A0000 		.4byte	.LASF189
 7040 292f 0D       		.byte	0xd
 7041 2930 9B02     		.2byte	0x29b
 7042 2932 110B0000 		.4byte	.LASF396
 7043 2936 22310000 		.4byte	0x3122
 7044 293a 01       		.byte	0x1
 7045 293b 43290000 		.4byte	0x2943
 7046 293f 4E290000 		.4byte	0x294e
 7047 2943 0E       		.uleb128 0xe
 7048 2944 AD370000 		.4byte	0x37ad
 7049 2948 0B       		.uleb128 0xb
 7050 2949 87370000 		.4byte	0x3787
 7051 294d 00       		.byte	0
 7052 294e 27       		.uleb128 0x27
 7053 294f AA2D0000 		.4byte	.LASF191
 7054 2953 0D       		.byte	0xd
 7055 2954 AC02     		.2byte	0x2ac
 7056 2956 89210000 		.4byte	.LASF397
 7057 295a BF370000 		.4byte	0x37bf
 7058 295e 01       		.byte	0x1
 7059 295f 67290000 		.4byte	0x2967
 7060 2963 72290000 		.4byte	0x2972
 7061 2967 0E       		.uleb128 0xe
 7062 2968 AD370000 		.4byte	0x37ad
 7063 296c 0B       		.uleb128 0xb
 7064 296d 2C260000 		.4byte	0x262c
 7065 2971 00       		.byte	0
ARM GAS  /tmp/ccyYK6L9.s 			page 125


 7066 2972 27       		.uleb128 0x27
 7067 2973 AA2D0000 		.4byte	.LASF191
 7068 2977 0D       		.byte	0xd
 7069 2978 BC02     		.2byte	0x2bc
 7070 297a F2310000 		.4byte	.LASF398
 7071 297e BF370000 		.4byte	0x37bf
 7072 2982 01       		.byte	0x1
 7073 2983 8B290000 		.4byte	0x298b
 7074 2987 9B290000 		.4byte	0x299b
 7075 298b 0E       		.uleb128 0xe
 7076 298c AD370000 		.4byte	0x37ad
 7077 2990 0B       		.uleb128 0xb
 7078 2991 38260000 		.4byte	0x2638
 7079 2995 0B       		.uleb128 0xb
 7080 2996 11350000 		.4byte	0x3511
 7081 299a 00       		.byte	0
 7082 299b 27       		.uleb128 0x27
 7083 299c 6F4A0000 		.4byte	.LASF194
 7084 29a0 0D       		.byte	0xd
 7085 29a1 E001     		.2byte	0x1e0
 7086 29a3 31280000 		.4byte	.LASF399
 7087 29a7 BA290000 		.4byte	0x29ba
 7088 29ab 01       		.byte	0x1
 7089 29ac B4290000 		.4byte	0x29b4
 7090 29b0 BA290000 		.4byte	0x29ba
 7091 29b4 0E       		.uleb128 0xe
 7092 29b5 B3370000 		.4byte	0x37b3
 7093 29b9 00       		.byte	0
 7094 29ba 07       		.uleb128 0x7
 7095 29bb 22260000 		.4byte	0x2622
 7096 29bf 29       		.uleb128 0x29
 7097 29c0 656E6400 		.ascii	"end\000"
 7098 29c4 0D       		.byte	0xd
 7099 29c5 E401     		.2byte	0x1e4
 7100 29c7 121A0000 		.4byte	.LASF400
 7101 29cb BA290000 		.4byte	0x29ba
 7102 29cf 01       		.byte	0x1
 7103 29d0 D8290000 		.4byte	0x29d8
 7104 29d4 DE290000 		.4byte	0x29de
 7105 29d8 0E       		.uleb128 0xe
 7106 29d9 B3370000 		.4byte	0x37b3
 7107 29dd 00       		.byte	0
 7108 29de 28       		.uleb128 0x28
 7109 29df 1A0E0000 		.4byte	.LASF196
 7110 29e3 0D       		.byte	0xd
 7111 29e4 E801     		.2byte	0x1e8
 7112 29e6 72370000 		.4byte	.LASF401
 7113 29ea 01       		.byte	0x1
 7114 29eb F3290000 		.4byte	0x29f3
 7115 29ef FE290000 		.4byte	0x29fe
 7116 29f3 0E       		.uleb128 0xe
 7117 29f4 B3370000 		.4byte	0x37b3
 7118 29f8 0B       		.uleb128 0xb
 7119 29f9 D1370000 		.4byte	0x37d1
 7120 29fd 00       		.byte	0
 7121 29fe 27       		.uleb128 0x27
 7122 29ff 6F4A0000 		.4byte	.LASF194
ARM GAS  /tmp/ccyYK6L9.s 			page 126


 7123 2a03 0D       		.byte	0xd
 7124 2a04 EC01     		.2byte	0x1ec
 7125 2a06 9D2B0000 		.4byte	.LASF402
 7126 2a0a 1D2A0000 		.4byte	0x2a1d
 7127 2a0e 01       		.byte	0x1
 7128 2a0f 172A0000 		.4byte	0x2a17
 7129 2a13 1D2A0000 		.4byte	0x2a1d
 7130 2a17 0E       		.uleb128 0xe
 7131 2a18 AD370000 		.4byte	0x37ad
 7132 2a1c 00       		.byte	0
 7133 2a1d 07       		.uleb128 0x7
 7134 2a1e 27260000 		.4byte	0x2627
 7135 2a22 29       		.uleb128 0x29
 7136 2a23 656E6400 		.ascii	"end\000"
 7137 2a27 0D       		.byte	0xd
 7138 2a28 F201     		.2byte	0x1f2
 7139 2a2a D3440000 		.4byte	.LASF403
 7140 2a2e 1D2A0000 		.4byte	0x2a1d
 7141 2a32 01       		.byte	0x1
 7142 2a33 3B2A0000 		.4byte	0x2a3b
 7143 2a37 412A0000 		.4byte	0x2a41
 7144 2a3b 0E       		.uleb128 0xe
 7145 2a3c AD370000 		.4byte	0x37ad
 7146 2a40 00       		.byte	0
 7147 2a41 28       		.uleb128 0x28
 7148 2a42 1A0E0000 		.4byte	.LASF196
 7149 2a46 0D       		.byte	0xd
 7150 2a47 F601     		.2byte	0x1f6
 7151 2a49 C53E0000 		.4byte	.LASF404
 7152 2a4d 01       		.byte	0x1
 7153 2a4e 562A0000 		.4byte	0x2a56
 7154 2a52 612A0000 		.4byte	0x2a61
 7155 2a56 0E       		.uleb128 0xe
 7156 2a57 AD370000 		.4byte	0x37ad
 7157 2a5b 0B       		.uleb128 0xb
 7158 2a5c D7370000 		.4byte	0x37d7
 7159 2a60 00       		.byte	0
 7160 2a61 2A       		.uleb128 0x2a
 7161 2a62 1D0C0000 		.4byte	.LASF202
 7162 2a66 0D       		.byte	0xd
 7163 2a67 FA01     		.2byte	0x1fa
 7164 2a69 B3370000 		.4byte	0x37b3
 7165 2a6d 01       		.byte	0x1
 7166 2a6e 762A0000 		.4byte	0x2a76
 7167 2a72 7C2A0000 		.4byte	0x2a7c
 7168 2a76 0E       		.uleb128 0xe
 7169 2a77 B3370000 		.4byte	0x37b3
 7170 2a7b 00       		.byte	0
 7171 2a7c 22       		.uleb128 0x22
 7172 2a7d 96190000 		.4byte	.LASF206
 7173 2a81 8B2A0000 		.4byte	0x2a8b
 7174 2a85 00       		.byte	0
 7175 2a86 07       		.uleb128 0x7
 7176 2a87 8B2A0000 		.4byte	0x2a8b
 7177 2a8b 0C       		.uleb128 0xc
 7178 2a8c FB130000 		.4byte	.LASF405
 7179 2a90 30       		.byte	0x30
ARM GAS  /tmp/ccyYK6L9.s 			page 127


 7180 2a91 0B       		.byte	0xb
 7181 2a92 17       		.byte	0x17
 7182 2a93 FB2F0000 		.4byte	0x2ffb
 7183 2a97 11       		.uleb128 0x11
 7184 2a98 69010000 		.4byte	0x169
 7185 2a9c 00       		.byte	0
 7186 2a9d 1B       		.uleb128 0x1b
 7187 2a9e E2160000 		.4byte	.LASF277
 7188 2aa2 0B       		.byte	0xb
 7189 2aa3 1B       		.byte	0x1b
 7190 2aa4 E8370000 		.4byte	0x37e8
 7191 2aa8 00       		.byte	0
 7192 2aa9 1B       		.uleb128 0x1b
 7193 2aaa B4490000 		.4byte	.LASF406
 7194 2aae 0B       		.byte	0xb
 7195 2aaf 1C       		.byte	0x1c
 7196 2ab0 56020000 		.4byte	0x256
 7197 2ab4 04       		.byte	0x4
 7198 2ab5 1B       		.uleb128 0x1b
 7199 2ab6 701A0000 		.4byte	.LASF407
 7200 2aba 0B       		.byte	0xb
 7201 2abb 1D       		.byte	0x1d
 7202 2abc AA1D0000 		.4byte	0x1daa
 7203 2ac0 08       		.byte	0x8
 7204 2ac1 1B       		.uleb128 0x1b
 7205 2ac2 4A460000 		.4byte	.LASF408
 7206 2ac6 0B       		.byte	0xb
 7207 2ac7 1E       		.byte	0x1e
 7208 2ac8 2C000000 		.4byte	0x2c
 7209 2acc 14       		.byte	0x14
 7210 2acd 1B       		.uleb128 0x1b
 7211 2ace C00B0000 		.4byte	.LASF409
 7212 2ad2 0B       		.byte	0xb
 7213 2ad3 1F       		.byte	0x1f
 7214 2ad4 2C000000 		.4byte	0x2c
 7215 2ad8 18       		.byte	0x18
 7216 2ad9 1B       		.uleb128 0x1b
 7217 2ada 271F0000 		.4byte	.LASF410
 7218 2ade 0B       		.byte	0xb
 7219 2adf 20       		.byte	0x20
 7220 2ae0 681F0000 		.4byte	0x1f68
 7221 2ae4 1C       		.byte	0x1c
 7222 2ae5 1B       		.uleb128 0x1b
 7223 2ae6 AF1D0000 		.4byte	.LASF411
 7224 2aea 0B       		.byte	0xb
 7225 2aeb 21       		.byte	0x21
 7226 2aec B2100000 		.4byte	0x10b2
 7227 2af0 20       		.byte	0x20
 7228 2af1 1B       		.uleb128 0x1b
 7229 2af2 37320000 		.4byte	.LASF412
 7230 2af6 0B       		.byte	0xb
 7231 2af7 22       		.byte	0x22
 7232 2af8 2C000000 		.4byte	0x2c
 7233 2afc 24       		.byte	0x24
 7234 2afd 1B       		.uleb128 0x1b
 7235 2afe 8E410000 		.4byte	.LASF282
 7236 2b02 0B       		.byte	0xb
ARM GAS  /tmp/ccyYK6L9.s 			page 128


 7237 2b03 27       		.byte	0x27
 7238 2b04 CB250000 		.4byte	0x25cb
 7239 2b08 28       		.byte	0x28
 7240 2b09 16       		.uleb128 0x16
 7241 2b0a 212C0000 		.4byte	.LASF284
 7242 2b0e 0B       		.byte	0xb
 7243 2b0f 2A       		.byte	0x2a
 7244 2b10 592B0000 		.4byte	.LASF413
 7245 2b14 C3000000 		.4byte	0xc3
 7246 2b18 01       		.byte	0x1
 7247 2b19 212B0000 		.4byte	0x2b21
 7248 2b1d 272B0000 		.4byte	0x2b27
 7249 2b21 0E       		.uleb128 0xe
 7250 2b22 ED370000 		.4byte	0x37ed
 7251 2b26 00       		.byte	0
 7252 2b27 16       		.uleb128 0x16
 7253 2b28 60450000 		.4byte	.LASF414
 7254 2b2c 0B       		.byte	0xb
 7255 2b2d 2B       		.byte	0x2b
 7256 2b2e 42430000 		.4byte	.LASF415
 7257 2b32 31350000 		.4byte	0x3531
 7258 2b36 01       		.byte	0x1
 7259 2b37 3F2B0000 		.4byte	0x2b3f
 7260 2b3b 452B0000 		.4byte	0x2b45
 7261 2b3f 0E       		.uleb128 0xe
 7262 2b40 ED370000 		.4byte	0x37ed
 7263 2b44 00       		.byte	0
 7264 2b45 16       		.uleb128 0x16
 7265 2b46 C7420000 		.4byte	.LASF103
 7266 2b4a 0B       		.byte	0xb
 7267 2b4b 2C       		.byte	0x2c
 7268 2b4c 280C0000 		.4byte	.LASF416
 7269 2b50 2C000000 		.4byte	0x2c
 7270 2b54 01       		.byte	0x1
 7271 2b55 5D2B0000 		.4byte	0x2b5d
 7272 2b59 632B0000 		.4byte	0x2b63
 7273 2b5d 0E       		.uleb128 0xe
 7274 2b5e ED370000 		.4byte	0x37ed
 7275 2b62 00       		.byte	0
 7276 2b63 16       		.uleb128 0x16
 7277 2b64 FC470000 		.4byte	.LASF101
 7278 2b68 0B       		.byte	0xb
 7279 2b69 2D       		.byte	0x2d
 7280 2b6a 35380000 		.4byte	.LASF417
 7281 2b6e 2C000000 		.4byte	0x2c
 7282 2b72 01       		.byte	0x1
 7283 2b73 7B2B0000 		.4byte	0x2b7b
 7284 2b77 812B0000 		.4byte	0x2b81
 7285 2b7b 0E       		.uleb128 0xe
 7286 2b7c ED370000 		.4byte	0x37ed
 7287 2b80 00       		.byte	0
 7288 2b81 16       		.uleb128 0x16
 7289 2b82 E6130000 		.4byte	.LASF418
 7290 2b86 0B       		.byte	0xb
 7291 2b87 2E       		.byte	0x2e
 7292 2b88 FF410000 		.4byte	.LASF419
 7293 2b8c 2C000000 		.4byte	0x2c
ARM GAS  /tmp/ccyYK6L9.s 			page 129


 7294 2b90 01       		.byte	0x1
 7295 2b91 992B0000 		.4byte	0x2b99
 7296 2b95 9F2B0000 		.4byte	0x2b9f
 7297 2b99 0E       		.uleb128 0xe
 7298 2b9a ED370000 		.4byte	0x37ed
 7299 2b9e 00       		.byte	0
 7300 2b9f 16       		.uleb128 0x16
 7301 2ba0 CC190000 		.4byte	.LASF420
 7302 2ba4 0B       		.byte	0xb
 7303 2ba5 2F       		.byte	0x2f
 7304 2ba6 83000000 		.4byte	.LASF421
 7305 2baa 22310000 		.4byte	0x3122
 7306 2bae 01       		.byte	0x1
 7307 2baf B72B0000 		.4byte	0x2bb7
 7308 2bb3 BD2B0000 		.4byte	0x2bbd
 7309 2bb7 0E       		.uleb128 0xe
 7310 2bb8 ED370000 		.4byte	0x37ed
 7311 2bbc 00       		.byte	0
 7312 2bbd 16       		.uleb128 0x16
 7313 2bbe A1240000 		.4byte	.LASF422
 7314 2bc2 0B       		.byte	0xb
 7315 2bc3 31       		.byte	0x31
 7316 2bc4 2F440000 		.4byte	.LASF423
 7317 2bc8 22310000 		.4byte	0x3122
 7318 2bcc 01       		.byte	0x1
 7319 2bcd D52B0000 		.4byte	0x2bd5
 7320 2bd1 DB2B0000 		.4byte	0x2bdb
 7321 2bd5 0E       		.uleb128 0xe
 7322 2bd6 ED370000 		.4byte	0x37ed
 7323 2bda 00       		.byte	0
 7324 2bdb 16       		.uleb128 0x16
 7325 2bdc 17060000 		.4byte	.LASF424
 7326 2be0 0B       		.byte	0xb
 7327 2be1 32       		.byte	0x32
 7328 2be2 56210000 		.4byte	.LASF425
 7329 2be6 22310000 		.4byte	0x3122
 7330 2bea 01       		.byte	0x1
 7331 2beb F32B0000 		.4byte	0x2bf3
 7332 2bef F92B0000 		.4byte	0x2bf9
 7333 2bf3 0E       		.uleb128 0xe
 7334 2bf4 ED370000 		.4byte	0x37ed
 7335 2bf8 00       		.byte	0
 7336 2bf9 16       		.uleb128 0x16
 7337 2bfa E81D0000 		.4byte	.LASF426
 7338 2bfe 0B       		.byte	0xb
 7339 2bff 33       		.byte	0x33
 7340 2c00 EC330000 		.4byte	.LASF427
 7341 2c04 22310000 		.4byte	0x3122
 7342 2c08 01       		.byte	0x1
 7343 2c09 112C0000 		.4byte	0x2c11
 7344 2c0d 172C0000 		.4byte	0x2c17
 7345 2c11 0E       		.uleb128 0xe
 7346 2c12 ED370000 		.4byte	0x37ed
 7347 2c16 00       		.byte	0
 7348 2c17 16       		.uleb128 0x16
 7349 2c18 832E0000 		.4byte	.LASF428
 7350 2c1c 0B       		.byte	0xb
ARM GAS  /tmp/ccyYK6L9.s 			page 130


 7351 2c1d 34       		.byte	0x34
 7352 2c1e 7E2C0000 		.4byte	.LASF429
 7353 2c22 22310000 		.4byte	0x3122
 7354 2c26 01       		.byte	0x1
 7355 2c27 2F2C0000 		.4byte	0x2c2f
 7356 2c2b 352C0000 		.4byte	0x2c35
 7357 2c2f 0E       		.uleb128 0xe
 7358 2c30 ED370000 		.4byte	0x37ed
 7359 2c34 00       		.byte	0
 7360 2c35 16       		.uleb128 0x16
 7361 2c36 23480000 		.4byte	.LASF430
 7362 2c3a 0B       		.byte	0xb
 7363 2c3b 35       		.byte	0x35
 7364 2c3c 970B0000 		.4byte	.LASF431
 7365 2c40 22310000 		.4byte	0x3122
 7366 2c44 01       		.byte	0x1
 7367 2c45 4D2C0000 		.4byte	0x2c4d
 7368 2c49 532C0000 		.4byte	0x2c53
 7369 2c4d 0E       		.uleb128 0xe
 7370 2c4e ED370000 		.4byte	0x37ed
 7371 2c52 00       		.byte	0
 7372 2c53 16       		.uleb128 0x16
 7373 2c54 791A0000 		.4byte	.LASF432
 7374 2c58 0B       		.byte	0xb
 7375 2c59 36       		.byte	0x36
 7376 2c5a F60B0000 		.4byte	.LASF433
 7377 2c5e 22310000 		.4byte	0x3122
 7378 2c62 01       		.byte	0x1
 7379 2c63 6B2C0000 		.4byte	0x2c6b
 7380 2c67 712C0000 		.4byte	0x2c71
 7381 2c6b 0E       		.uleb128 0xe
 7382 2c6c ED370000 		.4byte	0x37ed
 7383 2c70 00       		.byte	0
 7384 2c71 16       		.uleb128 0x16
 7385 2c72 1C3A0000 		.4byte	.LASF434
 7386 2c76 0B       		.byte	0xb
 7387 2c77 37       		.byte	0x37
 7388 2c78 C5430000 		.4byte	.LASF435
 7389 2c7c 22310000 		.4byte	0x3122
 7390 2c80 01       		.byte	0x1
 7391 2c81 892C0000 		.4byte	0x2c89
 7392 2c85 8F2C0000 		.4byte	0x2c8f
 7393 2c89 0E       		.uleb128 0xe
 7394 2c8a ED370000 		.4byte	0x37ed
 7395 2c8e 00       		.byte	0
 7396 2c8f 16       		.uleb128 0x16
 7397 2c90 25230000 		.4byte	.LASF436
 7398 2c94 0B       		.byte	0xb
 7399 2c95 38       		.byte	0x38
 7400 2c96 8C3A0000 		.4byte	.LASF437
 7401 2c9a 22310000 		.4byte	0x3122
 7402 2c9e 01       		.byte	0x1
 7403 2c9f A72C0000 		.4byte	0x2ca7
 7404 2ca3 AD2C0000 		.4byte	0x2cad
 7405 2ca7 0E       		.uleb128 0xe
 7406 2ca8 ED370000 		.4byte	0x37ed
 7407 2cac 00       		.byte	0
ARM GAS  /tmp/ccyYK6L9.s 			page 131


 7408 2cad 16       		.uleb128 0x16
 7409 2cae 53320000 		.4byte	.LASF438
 7410 2cb2 0B       		.byte	0xb
 7411 2cb3 3A       		.byte	0x3a
 7412 2cb4 611E0000 		.4byte	.LASF439
 7413 2cb8 DC040000 		.4byte	0x4dc
 7414 2cbc 01       		.byte	0x1
 7415 2cbd C52C0000 		.4byte	0x2cc5
 7416 2cc1 D02C0000 		.4byte	0x2cd0
 7417 2cc5 0E       		.uleb128 0xe
 7418 2cc6 ED370000 		.4byte	0x37ed
 7419 2cca 0B       		.uleb128 0xb
 7420 2ccb 31350000 		.4byte	0x3531
 7421 2ccf 00       		.byte	0
 7422 2cd0 16       		.uleb128 0x16
 7423 2cd1 53320000 		.4byte	.LASF438
 7424 2cd5 0B       		.byte	0xb
 7425 2cd6 3B       		.byte	0x3b
 7426 2cd7 732B0000 		.4byte	.LASF440
 7427 2cdb DC040000 		.4byte	0x4dc
 7428 2cdf 01       		.byte	0x1
 7429 2ce0 E82C0000 		.4byte	0x2ce8
 7430 2ce4 EE2C0000 		.4byte	0x2cee
 7431 2ce8 0E       		.uleb128 0xe
 7432 2ce9 ED370000 		.4byte	0x37ed
 7433 2ced 00       		.byte	0
 7434 2cee 16       		.uleb128 0x16
 7435 2cef AB1E0000 		.4byte	.LASF314
 7436 2cf3 0B       		.byte	0xb
 7437 2cf4 3C       		.byte	0x3c
 7438 2cf5 F92E0000 		.4byte	.LASF441
 7439 2cf9 37350000 		.4byte	0x3537
 7440 2cfd 01       		.byte	0x1
 7441 2cfe 062D0000 		.4byte	0x2d06
 7442 2d02 0C2D0000 		.4byte	0x2d0c
 7443 2d06 0E       		.uleb128 0xe
 7444 2d07 BF370000 		.4byte	0x37bf
 7445 2d0b 00       		.byte	0
 7446 2d0c 16       		.uleb128 0x16
 7447 2d0d 511D0000 		.4byte	.LASF90
 7448 2d11 0B       		.byte	0xb
 7449 2d12 3E       		.byte	0x3e
 7450 2d13 8D0C0000 		.4byte	.LASF442
 7451 2d17 22310000 		.4byte	0x3122
 7452 2d1b 01       		.byte	0x1
 7453 2d1c 242D0000 		.4byte	0x2d24
 7454 2d20 2F2D0000 		.4byte	0x2d2f
 7455 2d24 0E       		.uleb128 0xe
 7456 2d25 BF370000 		.4byte	0x37bf
 7457 2d29 0B       		.uleb128 0xb
 7458 2d2a DD360000 		.4byte	0x36dd
 7459 2d2e 00       		.byte	0
 7460 2d2f 1E       		.uleb128 0x1e
 7461 2d30 D0100000 		.4byte	.LASF316
 7462 2d34 0B       		.byte	0xb
 7463 2d35 3F       		.byte	0x3f
 7464 2d36 7F300000 		.4byte	.LASF443
ARM GAS  /tmp/ccyYK6L9.s 			page 132


 7465 2d3a 01       		.byte	0x1
 7466 2d3b 432D0000 		.4byte	0x2d43
 7467 2d3f 4E2D0000 		.4byte	0x2d4e
 7468 2d43 0E       		.uleb128 0xe
 7469 2d44 BF370000 		.4byte	0x37bf
 7470 2d48 0B       		.uleb128 0xb
 7471 2d49 DD360000 		.4byte	0x36dd
 7472 2d4d 00       		.byte	0
 7473 2d4e 16       		.uleb128 0x16
 7474 2d4f D5340000 		.4byte	.LASF444
 7475 2d53 0B       		.byte	0xb
 7476 2d54 40       		.byte	0x40
 7477 2d55 6D270000 		.4byte	.LASF445
 7478 2d59 22310000 		.4byte	0x3122
 7479 2d5d 01       		.byte	0x1
 7480 2d5e 662D0000 		.4byte	0x2d66
 7481 2d62 762D0000 		.4byte	0x2d76
 7482 2d66 0E       		.uleb128 0xe
 7483 2d67 BF370000 		.4byte	0x37bf
 7484 2d6b 0B       		.uleb128 0xb
 7485 2d6c DD360000 		.4byte	0x36dd
 7486 2d70 0B       		.uleb128 0xb
 7487 2d71 31350000 		.4byte	0x3531
 7488 2d75 00       		.byte	0
 7489 2d76 16       		.uleb128 0x16
 7490 2d77 0D480000 		.4byte	.LASF446
 7491 2d7b 0B       		.byte	0xb
 7492 2d7c 41       		.byte	0x41
 7493 2d7d 75310000 		.4byte	.LASF447
 7494 2d81 22310000 		.4byte	0x3122
 7495 2d85 01       		.byte	0x1
 7496 2d86 8E2D0000 		.4byte	0x2d8e
 7497 2d8a 9E2D0000 		.4byte	0x2d9e
 7498 2d8e 0E       		.uleb128 0xe
 7499 2d8f BF370000 		.4byte	0x37bf
 7500 2d93 0B       		.uleb128 0xb
 7501 2d94 DD360000 		.4byte	0x36dd
 7502 2d98 0B       		.uleb128 0xb
 7503 2d99 31350000 		.4byte	0x3531
 7504 2d9d 00       		.byte	0
 7505 2d9e 16       		.uleb128 0x16
 7506 2d9f 6C080000 		.4byte	.LASF448
 7507 2da3 0B       		.byte	0xb
 7508 2da4 42       		.byte	0x42
 7509 2da5 F3460000 		.4byte	.LASF449
 7510 2da9 22310000 		.4byte	0x3122
 7511 2dad 01       		.byte	0x1
 7512 2dae B62D0000 		.4byte	0x2db6
 7513 2db2 C62D0000 		.4byte	0x2dc6
 7514 2db6 0E       		.uleb128 0xe
 7515 2db7 BF370000 		.4byte	0x37bf
 7516 2dbb 0B       		.uleb128 0xb
 7517 2dbc E3360000 		.4byte	0x36e3
 7518 2dc0 0B       		.uleb128 0xb
 7519 2dc1 31350000 		.4byte	0x3531
 7520 2dc5 00       		.byte	0
 7521 2dc6 16       		.uleb128 0x16
ARM GAS  /tmp/ccyYK6L9.s 			page 133


 7522 2dc7 601D0000 		.4byte	.LASF450
 7523 2dcb 0B       		.byte	0xb
 7524 2dcc 45       		.byte	0x45
 7525 2dcd 693C0000 		.4byte	.LASF451
 7526 2dd1 DC040000 		.4byte	0x4dc
 7527 2dd5 01       		.byte	0x1
 7528 2dd6 DE2D0000 		.4byte	0x2dde
 7529 2dda E92D0000 		.4byte	0x2de9
 7530 2dde 0E       		.uleb128 0xe
 7531 2ddf ED370000 		.4byte	0x37ed
 7532 2de3 0B       		.uleb128 0xb
 7533 2de4 31350000 		.4byte	0x3531
 7534 2de8 00       		.byte	0
 7535 2de9 16       		.uleb128 0x16
 7536 2dea 601D0000 		.4byte	.LASF450
 7537 2dee 0B       		.byte	0xb
 7538 2def 46       		.byte	0x46
 7539 2df0 241D0000 		.4byte	.LASF452
 7540 2df4 DC040000 		.4byte	0x4dc
 7541 2df8 01       		.byte	0x1
 7542 2df9 012E0000 		.4byte	0x2e01
 7543 2dfd 072E0000 		.4byte	0x2e07
 7544 2e01 0E       		.uleb128 0xe
 7545 2e02 ED370000 		.4byte	0x37ed
 7546 2e06 00       		.byte	0
 7547 2e07 16       		.uleb128 0x16
 7548 2e08 592D0000 		.4byte	.LASF318
 7549 2e0c 0B       		.byte	0xb
 7550 2e0d 47       		.byte	0x47
 7551 2e0e C60E0000 		.4byte	.LASF453
 7552 2e12 37350000 		.4byte	0x3537
 7553 2e16 01       		.byte	0x1
 7554 2e17 1F2E0000 		.4byte	0x2e1f
 7555 2e1b 252E0000 		.4byte	0x2e25
 7556 2e1f 0E       		.uleb128 0xe
 7557 2e20 BF370000 		.4byte	0x37bf
 7558 2e24 00       		.byte	0
 7559 2e25 16       		.uleb128 0x16
 7560 2e26 30390000 		.4byte	.LASF25
 7561 2e2a 0B       		.byte	0xb
 7562 2e2b 49       		.byte	0x49
 7563 2e2c B01F0000 		.4byte	.LASF454
 7564 2e30 22310000 		.4byte	0x3122
 7565 2e34 01       		.byte	0x1
 7566 2e35 3D2E0000 		.4byte	0x2e3d
 7567 2e39 482E0000 		.4byte	0x2e48
 7568 2e3d 0E       		.uleb128 0xe
 7569 2e3e BF370000 		.4byte	0x37bf
 7570 2e42 0B       		.uleb128 0xb
 7571 2e43 DD360000 		.4byte	0x36dd
 7572 2e47 00       		.byte	0
 7573 2e48 1E       		.uleb128 0x1e
 7574 2e49 180C0000 		.4byte	.LASF320
 7575 2e4d 0B       		.byte	0xb
 7576 2e4e 4A       		.byte	0x4a
 7577 2e4f 32300000 		.4byte	.LASF455
 7578 2e53 01       		.byte	0x1
ARM GAS  /tmp/ccyYK6L9.s 			page 134


 7579 2e54 5C2E0000 		.4byte	0x2e5c
 7580 2e58 672E0000 		.4byte	0x2e67
 7581 2e5c 0E       		.uleb128 0xe
 7582 2e5d BF370000 		.4byte	0x37bf
 7583 2e61 0B       		.uleb128 0xb
 7584 2e62 DD360000 		.4byte	0x36dd
 7585 2e66 00       		.byte	0
 7586 2e67 16       		.uleb128 0x16
 7587 2e68 5F460000 		.4byte	.LASF456
 7588 2e6c 0B       		.byte	0xb
 7589 2e6d 4B       		.byte	0x4b
 7590 2e6e FB270000 		.4byte	.LASF457
 7591 2e72 22310000 		.4byte	0x3122
 7592 2e76 01       		.byte	0x1
 7593 2e77 7F2E0000 		.4byte	0x2e7f
 7594 2e7b 8F2E0000 		.4byte	0x2e8f
 7595 2e7f 0E       		.uleb128 0xe
 7596 2e80 BF370000 		.4byte	0x37bf
 7597 2e84 0B       		.uleb128 0xb
 7598 2e85 DD360000 		.4byte	0x36dd
 7599 2e89 0B       		.uleb128 0xb
 7600 2e8a 31350000 		.4byte	0x3531
 7601 2e8e 00       		.byte	0
 7602 2e8f 16       		.uleb128 0x16
 7603 2e90 1D140000 		.4byte	.LASF458
 7604 2e94 0B       		.byte	0xb
 7605 2e95 4C       		.byte	0x4c
 7606 2e96 7F060000 		.4byte	.LASF459
 7607 2e9a 22310000 		.4byte	0x3122
 7608 2e9e 01       		.byte	0x1
 7609 2e9f A72E0000 		.4byte	0x2ea7
 7610 2ea3 B72E0000 		.4byte	0x2eb7
 7611 2ea7 0E       		.uleb128 0xe
 7612 2ea8 BF370000 		.4byte	0x37bf
 7613 2eac 0B       		.uleb128 0xb
 7614 2ead DD360000 		.4byte	0x36dd
 7615 2eb1 0B       		.uleb128 0xb
 7616 2eb2 31350000 		.4byte	0x3531
 7617 2eb6 00       		.byte	0
 7618 2eb7 16       		.uleb128 0x16
 7619 2eb8 BE030000 		.4byte	.LASF460
 7620 2ebc 0B       		.byte	0xb
 7621 2ebd 4D       		.byte	0x4d
 7622 2ebe 5E480000 		.4byte	.LASF461
 7623 2ec2 22310000 		.4byte	0x3122
 7624 2ec6 01       		.byte	0x1
 7625 2ec7 CF2E0000 		.4byte	0x2ecf
 7626 2ecb DF2E0000 		.4byte	0x2edf
 7627 2ecf 0E       		.uleb128 0xe
 7628 2ed0 BF370000 		.4byte	0x37bf
 7629 2ed4 0B       		.uleb128 0xb
 7630 2ed5 E3360000 		.4byte	0x36e3
 7631 2ed9 0B       		.uleb128 0xb
 7632 2eda 31350000 		.4byte	0x3531
 7633 2ede 00       		.byte	0
 7634 2edf 1E       		.uleb128 0x1e
 7635 2ee0 B6060000 		.4byte	.LASF462
ARM GAS  /tmp/ccyYK6L9.s 			page 135


 7636 2ee4 0B       		.byte	0xb
 7637 2ee5 4E       		.byte	0x4e
 7638 2ee6 D5350000 		.4byte	.LASF463
 7639 2eea 01       		.byte	0x1
 7640 2eeb F32E0000 		.4byte	0x2ef3
 7641 2eef 032F0000 		.4byte	0x2f03
 7642 2ef3 0E       		.uleb128 0xe
 7643 2ef4 BF370000 		.4byte	0x37bf
 7644 2ef8 0B       		.uleb128 0xb
 7645 2ef9 37350000 		.4byte	0x3537
 7646 2efd 0B       		.uleb128 0xb
 7647 2efe 2C000000 		.4byte	0x2c
 7648 2f02 00       		.byte	0
 7649 2f03 1E       		.uleb128 0x1e
 7650 2f04 C6350000 		.4byte	.LASF298
 7651 2f08 0B       		.byte	0xb
 7652 2f09 50       		.byte	0x50
 7653 2f0a EB070000 		.4byte	.LASF464
 7654 2f0e 01       		.byte	0x1
 7655 2f0f 172F0000 		.4byte	0x2f17
 7656 2f13 272F0000 		.4byte	0x2f27
 7657 2f17 0E       		.uleb128 0xe
 7658 2f18 BF370000 		.4byte	0x37bf
 7659 2f1c 0B       		.uleb128 0xb
 7660 2f1d F3370000 		.4byte	0x37f3
 7661 2f21 0B       		.uleb128 0xb
 7662 2f22 31350000 		.4byte	0x3531
 7663 2f26 00       		.byte	0
 7664 2f27 1E       		.uleb128 0x1e
 7665 2f28 C6350000 		.4byte	.LASF298
 7666 2f2c 0B       		.byte	0xb
 7667 2f2d 51       		.byte	0x51
 7668 2f2e 16020000 		.4byte	.LASF465
 7669 2f32 01       		.byte	0x1
 7670 2f33 3B2F0000 		.4byte	0x2f3b
 7671 2f37 4B2F0000 		.4byte	0x2f4b
 7672 2f3b 0E       		.uleb128 0xe
 7673 2f3c BF370000 		.4byte	0x37bf
 7674 2f40 0B       		.uleb128 0xb
 7675 2f41 F9370000 		.4byte	0x37f9
 7676 2f45 0B       		.uleb128 0xb
 7677 2f46 31350000 		.4byte	0x3531
 7678 2f4a 00       		.byte	0
 7679 2f4b 1E       		.uleb128 0x1e
 7680 2f4c 54480000 		.4byte	.LASF300
 7681 2f50 0B       		.byte	0xb
 7682 2f51 52       		.byte	0x52
 7683 2f52 00000000 		.4byte	.LASF466
 7684 2f56 01       		.byte	0x1
 7685 2f57 5F2F0000 		.4byte	0x2f5f
 7686 2f5b 6F2F0000 		.4byte	0x2f6f
 7687 2f5f 0E       		.uleb128 0xe
 7688 2f60 BF370000 		.4byte	0x37bf
 7689 2f64 0B       		.uleb128 0xb
 7690 2f65 FF370000 		.4byte	0x37ff
 7691 2f69 0B       		.uleb128 0xb
 7692 2f6a 2C000000 		.4byte	0x2c
ARM GAS  /tmp/ccyYK6L9.s 			page 136


 7693 2f6e 00       		.byte	0
 7694 2f6f 1E       		.uleb128 0x1e
 7695 2f70 54480000 		.4byte	.LASF300
 7696 2f74 0B       		.byte	0xb
 7697 2f75 53       		.byte	0x53
 7698 2f76 8B360000 		.4byte	.LASF467
 7699 2f7a 01       		.byte	0x1
 7700 2f7b 832F0000 		.4byte	0x2f83
 7701 2f7f 932F0000 		.4byte	0x2f93
 7702 2f83 0E       		.uleb128 0xe
 7703 2f84 BF370000 		.4byte	0x37bf
 7704 2f88 0B       		.uleb128 0xb
 7705 2f89 05380000 		.4byte	0x3805
 7706 2f8d 0B       		.uleb128 0xb
 7707 2f8e 2C000000 		.4byte	0x2c
 7708 2f92 00       		.byte	0
 7709 2f93 35       		.uleb128 0x35
 7710 2f94 F52B0000 		.4byte	.LASF468
 7711 2f98 0B       		.byte	0xb
 7712 2f99 56       		.byte	0x56
 7713 2f9a AC3B0000 		.4byte	.LASF469
 7714 2f9e A62F0000 		.4byte	0x2fa6
 7715 2fa2 B62F0000 		.4byte	0x2fb6
 7716 2fa6 0E       		.uleb128 0xe
 7717 2fa7 ED370000 		.4byte	0x37ed
 7718 2fab 0B       		.uleb128 0xb
 7719 2fac DD360000 		.4byte	0x36dd
 7720 2fb0 0B       		.uleb128 0xb
 7721 2fb1 D1360000 		.4byte	0x36d1
 7722 2fb5 00       		.byte	0
 7723 2fb6 0F       		.uleb128 0xf
 7724 2fb7 FB130000 		.4byte	.LASF405
 7725 2fbb 0B       		.byte	0xb
 7726 2fbc 59       		.byte	0x59
 7727 2fbd BF370000 		.4byte	0x37bf
 7728 2fc1 01       		.byte	0x1
 7729 2fc2 CA2F0000 		.4byte	0x2fca
 7730 2fc6 DF2F0000 		.4byte	0x2fdf
 7731 2fca 0E       		.uleb128 0xe
 7732 2fcb BF370000 		.4byte	0x37bf
 7733 2fcf 0B       		.uleb128 0xb
 7734 2fd0 C3000000 		.4byte	0xc3
 7735 2fd4 0B       		.uleb128 0xb
 7736 2fd5 2C000000 		.4byte	0x2c
 7737 2fd9 0B       		.uleb128 0xb
 7738 2fda 22310000 		.4byte	0x3122
 7739 2fde 00       		.byte	0
 7740 2fdf 21       		.uleb128 0x21
 7741 2fe0 6A3A0000 		.4byte	.LASF306
 7742 2fe4 0B       		.byte	0xb
 7743 2fe5 5D       		.byte	0x5d
 7744 2fe6 76190000 		.4byte	.LASF470
 7745 2fea 22310000 		.4byte	0x3122
 7746 2fee 01       		.byte	0x1
 7747 2fef 0B       		.uleb128 0xb
 7748 2ff0 87370000 		.4byte	0x3787
 7749 2ff4 0B       		.uleb128 0xb
ARM GAS  /tmp/ccyYK6L9.s 			page 137


 7750 2ff5 C3000000 		.4byte	0xc3
 7751 2ff9 00       		.byte	0
 7752 2ffa 00       		.byte	0
 7753 2ffb 07       		.uleb128 0x7
 7754 2ffc B9250000 		.4byte	0x25b9
 7755 3000 25       		.uleb128 0x25
 7756 3001 A60D0000 		.4byte	.LASF471
 7757 3005 36       		.uleb128 0x36
 7758 3006 122C0000 		.4byte	.LASF479
 7759 300a 2A300000 		.4byte	0x302a
 7760 300e 37       		.uleb128 0x37
 7761 300f 43150000 		.4byte	.LASF472
 7762 3013 0A       		.byte	0xa
 7763 3014 31       		.byte	0x31
 7764 3015 94480000 		.4byte	.LASF473
 7765 3019 01       		.byte	0x1
 7766 301a 1E300000 		.4byte	0x301e
 7767 301e 0E       		.uleb128 0xe
 7768 301f 1F380000 		.4byte	0x381f
 7769 3023 0B       		.uleb128 0xb
 7770 3024 E2370000 		.4byte	0x37e2
 7771 3028 00       		.byte	0
 7772 3029 00       		.byte	0
 7773 302a 0C       		.uleb128 0xc
 7774 302b D4070000 		.4byte	.LASF474
 7775 302f 04       		.byte	0x4
 7776 3030 0E       		.byte	0xe
 7777 3031 09       		.byte	0x9
 7778 3032 90300000 		.4byte	0x3090
 7779 3036 11       		.uleb128 0x11
 7780 3037 69010000 		.4byte	0x169
 7781 303b 00       		.byte	0
 7782 303c 1B       		.uleb128 0x1b
 7783 303d 0F350000 		.4byte	.LASF475
 7784 3041 0E       		.byte	0xe
 7785 3042 0B       		.byte	0xb
 7786 3043 48380000 		.4byte	0x3848
 7787 3047 00       		.byte	0
 7788 3048 0F       		.uleb128 0xf
 7789 3049 C2360000 		.4byte	.LASF476
 7790 304d 0E       		.byte	0xe
 7791 304e 14       		.byte	0x14
 7792 304f 53380000 		.4byte	0x3853
 7793 3053 01       		.byte	0x1
 7794 3054 5C300000 		.4byte	0x305c
 7795 3058 67300000 		.4byte	0x3067
 7796 305c 0E       		.uleb128 0xe
 7797 305d 53380000 		.4byte	0x3853
 7798 3061 0B       		.uleb128 0xb
 7799 3062 4D380000 		.4byte	0x384d
 7800 3066 00       		.byte	0
 7801 3067 0F       		.uleb128 0xf
 7802 3068 5B370000 		.4byte	.LASF477
 7803 306c 0E       		.byte	0xe
 7804 306d 1D       		.byte	0x1d
 7805 306e B4000000 		.4byte	0xb4
 7806 3072 01       		.byte	0x1
ARM GAS  /tmp/ccyYK6L9.s 			page 138


 7807 3073 7B300000 		.4byte	0x307b
 7808 3077 86300000 		.4byte	0x3086
 7809 307b 0E       		.uleb128 0xe
 7810 307c 53380000 		.4byte	0x3853
 7811 3080 0E       		.uleb128 0xe
 7812 3081 25000000 		.4byte	0x25
 7813 3085 00       		.byte	0
 7814 3086 22       		.uleb128 0x22
 7815 3087 EF420000 		.4byte	.LASF478
 7816 308b 8B0A0000 		.4byte	0xa8b
 7817 308f 00       		.byte	0
 7818 3090 36       		.uleb128 0x36
 7819 3091 D01D0000 		.4byte	.LASF480
 7820 3095 D4300000 		.4byte	0x30d4
 7821 3099 1E       		.uleb128 0x1e
 7822 309a 7A020000 		.4byte	.LASF481
 7823 309e 09       		.byte	0x9
 7824 309f 37       		.byte	0x37
 7825 30a0 D23C0000 		.4byte	.LASF482
 7826 30a4 01       		.byte	0x1
 7827 30a5 AD300000 		.4byte	0x30ad
 7828 30a9 B8300000 		.4byte	0x30b8
 7829 30ad 0E       		.uleb128 0xe
 7830 30ae 063C0000 		.4byte	0x3c06
 7831 30b2 0B       		.uleb128 0xb
 7832 30b3 E2370000 		.4byte	0x37e2
 7833 30b7 00       		.byte	0
 7834 30b8 21       		.uleb128 0x21
 7835 30b9 D3260000 		.4byte	.LASF483
 7836 30bd 09       		.byte	0x9
 7837 30be 66       		.byte	0x66
 7838 30bf 851D0000 		.4byte	.LASF484
 7839 30c3 22310000 		.4byte	0x3122
 7840 30c7 01       		.byte	0x1
 7841 30c8 0B       		.uleb128 0xb
 7842 30c9 483C0000 		.4byte	0x3c48
 7843 30cd 0B       		.uleb128 0xb
 7844 30ce C3000000 		.4byte	0xc3
 7845 30d2 00       		.byte	0
 7846 30d3 00       		.byte	0
 7847 30d4 07       		.uleb128 0x7
 7848 30d5 90300000 		.4byte	0x3090
 7849 30d9 07       		.uleb128 0x7
 7850 30da 05300000 		.4byte	0x3005
 7851 30de 00       		.byte	0
 7852 30df 06       		.uleb128 0x6
 7853 30e0 04       		.byte	0x4
 7854 30e1 69010000 		.4byte	0x169
 7855 30e5 38       		.uleb128 0x38
 7856 30e6 04       		.byte	0x4
 7857 30e7 C9010000 		.4byte	0x1c9
 7858 30eb 03       		.uleb128 0x3
 7859 30ec 47190000 		.4byte	.LASF485
 7860 30f0 17       		.byte	0x17
 7861 30f1 15       		.byte	0x15
 7862 30f2 45000000 		.4byte	0x45
 7863 30f6 03       		.uleb128 0x3
ARM GAS  /tmp/ccyYK6L9.s 			page 139


 7864 30f7 30040000 		.4byte	.LASF486
 7865 30fb 17       		.byte	0x17
 7866 30fc 21       		.byte	0x21
 7867 30fd 5E000000 		.4byte	0x5e
 7868 3101 03       		.uleb128 0x3
 7869 3102 64080000 		.4byte	.LASF487
 7870 3106 17       		.byte	0x17
 7871 3107 2C       		.byte	0x2c
 7872 3108 70000000 		.4byte	0x70
 7873 310c 03       		.uleb128 0x3
 7874 310d DC2E0000 		.4byte	.LASF488
 7875 3111 17       		.byte	0x17
 7876 3112 2D       		.byte	0x2d
 7877 3113 82000000 		.4byte	0x82
 7878 3117 03       		.uleb128 0x3
 7879 3118 DD130000 		.4byte	.LASF489
 7880 311c 17       		.byte	0x17
 7881 311d 39       		.byte	0x39
 7882 311e 9B000000 		.4byte	0x9b
 7883 3122 04       		.uleb128 0x4
 7884 3123 01       		.byte	0x1
 7885 3124 02       		.byte	0x2
 7886 3125 CF070000 		.4byte	.LASF490
 7887 3129 03       		.uleb128 0x3
 7888 312a C8100000 		.4byte	.LASF491
 7889 312e 18       		.byte	0x18
 7890 312f 2C       		.byte	0x2c
 7891 3130 EB300000 		.4byte	0x30eb
 7892 3134 03       		.uleb128 0x3
 7893 3135 C8410000 		.4byte	.LASF492
 7894 3139 18       		.byte	0x18
 7895 313a 2D       		.byte	0x2d
 7896 313b EB300000 		.4byte	0x30eb
 7897 313f 03       		.uleb128 0x3
 7898 3140 98200000 		.4byte	.LASF493
 7899 3144 18       		.byte	0x18
 7900 3145 2E       		.byte	0x2e
 7901 3146 EB300000 		.4byte	0x30eb
 7902 314a 03       		.uleb128 0x3
 7903 314b 2B0E0000 		.4byte	.LASF494
 7904 314f 18       		.byte	0x18
 7905 3150 30       		.byte	0x30
 7906 3151 0C310000 		.4byte	0x310c
 7907 3155 03       		.uleb128 0x3
 7908 3156 34010000 		.4byte	.LASF495
 7909 315a 18       		.byte	0x18
 7910 315b 31       		.byte	0x31
 7911 315c 01310000 		.4byte	0x3101
 7912 3160 03       		.uleb128 0x3
 7913 3161 69300000 		.4byte	.LASF496
 7914 3165 18       		.byte	0x18
 7915 3166 33       		.byte	0x33
 7916 3167 0C310000 		.4byte	0x310c
 7917 316b 03       		.uleb128 0x3
 7918 316c 80080000 		.4byte	.LASF497
 7919 3170 18       		.byte	0x18
 7920 3171 35       		.byte	0x35
ARM GAS  /tmp/ccyYK6L9.s 			page 140


 7921 3172 0C310000 		.4byte	0x310c
 7922 3176 03       		.uleb128 0x3
 7923 3177 01140000 		.4byte	.LASF498
 7924 317b 19       		.byte	0x19
 7925 317c 2A       		.byte	0x2a
 7926 317d 81310000 		.4byte	0x3181
 7927 3181 39       		.uleb128 0x39
 7928 3182 01140000 		.4byte	.LASF498
 7929 3186 4C       		.byte	0x4c
 7930 3187 1A       		.byte	0x1a
 7931 3188 5E       		.byte	0x5e
 7932 3189 B3320000 		.4byte	0x32b3
 7933 318d 3A       		.uleb128 0x3a
 7934 318e 04       		.byte	0x4
 7935 318f 1A       		.byte	0x1a
 7936 3190 96       		.byte	0x96
 7937 3191 C2310000 		.4byte	0x31c2
 7938 3195 3B       		.uleb128 0x3b
 7939 3196 A61C0000 		.4byte	.LASF499
 7940 319a 1A       		.byte	0x1a
 7941 319b 9D       		.byte	0x9d
 7942 319c 55310000 		.4byte	0x3155
 7943 31a0 3B       		.uleb128 0x3b
 7944 31a1 DE0F0000 		.4byte	.LASF500
 7945 31a5 1A       		.byte	0x1a
 7946 31a6 A4       		.byte	0xa4
 7947 31a7 55310000 		.4byte	0x3155
 7948 31ab 3B       		.uleb128 0x3b
 7949 31ac F3370000 		.4byte	.LASF501
 7950 31b0 1A       		.byte	0x1a
 7951 31b1 AB       		.byte	0xab
 7952 31b2 B4000000 		.4byte	0xb4
 7953 31b6 3B       		.uleb128 0x3b
 7954 31b7 D2400000 		.4byte	.LASF502
 7955 31bb 1A       		.byte	0x1a
 7956 31bc B2       		.byte	0xb2
 7957 31bd 60310000 		.4byte	0x3160
 7958 31c1 00       		.byte	0
 7959 31c2 1B       		.uleb128 0x1b
 7960 31c3 CE1E0000 		.4byte	.LASF503
 7961 31c7 1A       		.byte	0x1a
 7962 31c8 5F       		.byte	0x5f
 7963 31c9 E2340000 		.4byte	0x34e2
 7964 31cd 00       		.byte	0
 7965 31ce 1B       		.uleb128 0x1b
 7966 31cf 6F190000 		.4byte	.LASF504
 7967 31d3 1A       		.byte	0x1a
 7968 31d4 61       		.byte	0x61
 7969 31d5 E2340000 		.4byte	0x34e2
 7970 31d9 04       		.byte	0x4
 7971 31da 1B       		.uleb128 0x1b
 7972 31db B1100000 		.4byte	.LASF505
 7973 31df 1A       		.byte	0x1a
 7974 31e0 63       		.byte	0x63
 7975 31e1 4A310000 		.4byte	0x314a
 7976 31e5 08       		.byte	0x8
 7977 31e6 1B       		.uleb128 0x1b
ARM GAS  /tmp/ccyYK6L9.s 			page 141


 7978 31e7 F1200000 		.4byte	.LASF506
 7979 31eb 1A       		.byte	0x1a
 7980 31ec 64       		.byte	0x64
 7981 31ed 9F330000 		.4byte	0x339f
 7982 31f1 0C       		.byte	0xc
 7983 31f2 1B       		.uleb128 0x1b
 7984 31f3 D0050000 		.4byte	.LASF507
 7985 31f7 1A       		.byte	0x1a
 7986 31f8 66       		.byte	0x66
 7987 31f9 E2340000 		.4byte	0x34e2
 7988 31fd 10       		.byte	0x10
 7989 31fe 1B       		.uleb128 0x1b
 7990 31ff 6F470000 		.4byte	.LASF508
 7991 3203 1A       		.byte	0x1a
 7992 3204 67       		.byte	0x67
 7993 3205 E2340000 		.4byte	0x34e2
 7994 3209 14       		.byte	0x14
 7995 320a 1B       		.uleb128 0x1b
 7996 320b CB030000 		.4byte	.LASF509
 7997 320f 1A       		.byte	0x1a
 7998 3210 6E       		.byte	0x6e
 7999 3211 C3000000 		.4byte	0xc3
 8000 3215 18       		.byte	0x18
 8001 3216 1B       		.uleb128 0x1b
 8002 3217 04350000 		.4byte	.LASF510
 8003 321b 1A       		.byte	0x1a
 8004 321c 74       		.byte	0x74
 8005 321d E8340000 		.4byte	0x34e8
 8006 3221 1C       		.byte	0x1c
 8007 3222 1B       		.uleb128 0x1b
 8008 3223 CF4A0000 		.4byte	.LASF511
 8009 3227 1A       		.byte	0x1a
 8010 3228 79       		.byte	0x79
 8011 3229 34310000 		.4byte	0x3134
 8012 322d 20       		.byte	0x20
 8013 322e 1B       		.uleb128 0x1b
 8014 322f 92400000 		.4byte	.LASF512
 8015 3233 1A       		.byte	0x1a
 8016 3234 7D       		.byte	0x7d
 8017 3235 29310000 		.4byte	0x3129
 8018 3239 21       		.byte	0x21
 8019 323a 1B       		.uleb128 0x1b
 8020 323b CB0A0000 		.4byte	.LASF513
 8021 323f 1A       		.byte	0x1a
 8022 3240 82       		.byte	0x82
 8023 3241 3F310000 		.4byte	0x313f
 8024 3245 22       		.byte	0x22
 8025 3246 1B       		.uleb128 0x1b
 8026 3247 8A260000 		.4byte	.LASF514
 8027 324b 1A       		.byte	0x1a
 8028 324c 8F       		.byte	0x8f
 8029 324d C0330000 		.4byte	0x33c0
 8030 3251 24       		.byte	0x24
 8031 3252 3C       		.uleb128 0x3c
 8032 3253 705F7500 		.ascii	"p_u\000"
 8033 3257 1A       		.byte	0x1a
 8034 3258 B4       		.byte	0xb4
ARM GAS  /tmp/ccyYK6L9.s 			page 142


 8035 3259 8D310000 		.4byte	0x318d
 8036 325d 28       		.byte	0x28
 8037 325e 1B       		.uleb128 0x1b
 8038 325f 830C0000 		.4byte	.LASF515
 8039 3263 1A       		.byte	0x1a
 8040 3264 B9       		.byte	0xb9
 8041 3265 02330000 		.4byte	0x3302
 8042 3269 2C       		.byte	0x2c
 8043 326a 1B       		.uleb128 0x1b
 8044 326b 1F180000 		.4byte	.LASF516
 8045 326f 1A       		.byte	0x1a
 8046 3270 BF       		.byte	0xbf
 8047 3271 DE320000 		.4byte	0x32de
 8048 3275 30       		.byte	0x30
 8049 3276 1B       		.uleb128 0x1b
 8050 3277 8C0F0000 		.4byte	.LASF517
 8051 327b 1A       		.byte	0x1a
 8052 327c C3       		.byte	0xc3
 8053 327d 55310000 		.4byte	0x3155
 8054 3281 38       		.byte	0x38
 8055 3282 1B       		.uleb128 0x1b
 8056 3283 173C0000 		.4byte	.LASF518
 8057 3287 1A       		.byte	0x1a
 8058 3288 C9       		.byte	0xc9
 8059 3289 60310000 		.4byte	0x3160
 8060 328d 3C       		.byte	0x3c
 8061 328e 1B       		.uleb128 0x1b
 8062 328f A9410000 		.4byte	.LASF519
 8063 3293 1A       		.byte	0x1a
 8064 3294 D0       		.byte	0xd0
 8065 3295 EE340000 		.4byte	0x34ee
 8066 3299 40       		.byte	0x40
 8067 329a 1B       		.uleb128 0x1b
 8068 329b A2380000 		.4byte	.LASF520
 8069 329f 1A       		.byte	0x1a
 8070 32a0 D4       		.byte	0xd4
 8071 32a1 4A310000 		.4byte	0x314a
 8072 32a5 44       		.byte	0x44
 8073 32a6 1B       		.uleb128 0x1b
 8074 32a7 A3000000 		.4byte	.LASF521
 8075 32ab 1A       		.byte	0x1a
 8076 32ac DA       		.byte	0xda
 8077 32ad B4000000 		.4byte	0xb4
 8078 32b1 48       		.byte	0x48
 8079 32b2 00       		.byte	0
 8080 32b3 3D       		.uleb128 0x3d
 8081 32b4 08       		.byte	0x8
 8082 32b5 19       		.byte	0x19
 8083 32b6 61       		.byte	0x61
 8084 32b7 0D340000 		.4byte	.LASF523
 8085 32bb D8320000 		.4byte	0x32d8
 8086 32bf 1B       		.uleb128 0x1b
 8087 32c0 CE1E0000 		.4byte	.LASF503
 8088 32c4 19       		.byte	0x19
 8089 32c5 62       		.byte	0x62
 8090 32c6 D8320000 		.4byte	0x32d8
 8091 32ca 00       		.byte	0
ARM GAS  /tmp/ccyYK6L9.s 			page 143


 8092 32cb 1B       		.uleb128 0x1b
 8093 32cc 6F190000 		.4byte	.LASF504
 8094 32d0 19       		.byte	0x19
 8095 32d1 64       		.byte	0x64
 8096 32d2 D8320000 		.4byte	0x32d8
 8097 32d6 04       		.byte	0x4
 8098 32d7 00       		.byte	0
 8099 32d8 06       		.uleb128 0x6
 8100 32d9 04       		.byte	0x4
 8101 32da 76310000 		.4byte	0x3176
 8102 32de 03       		.uleb128 0x3
 8103 32df 3A190000 		.4byte	.LASF522
 8104 32e3 19       		.byte	0x19
 8105 32e4 66       		.byte	0x66
 8106 32e5 B3320000 		.4byte	0x32b3
 8107 32e9 3D       		.uleb128 0x3d
 8108 32ea 04       		.byte	0x4
 8109 32eb 19       		.byte	0x19
 8110 32ec 6B       		.byte	0x6b
 8111 32ed 212A0000 		.4byte	.LASF524
 8112 32f1 02330000 		.4byte	0x3302
 8113 32f5 1B       		.uleb128 0x1b
 8114 32f6 CE1E0000 		.4byte	.LASF503
 8115 32fa 19       		.byte	0x19
 8116 32fb 6D       		.byte	0x6d
 8117 32fc D8320000 		.4byte	0x32d8
 8118 3300 00       		.byte	0
 8119 3301 00       		.byte	0
 8120 3302 03       		.uleb128 0x3
 8121 3303 C2060000 		.4byte	.LASF525
 8122 3307 19       		.byte	0x19
 8123 3308 70       		.byte	0x70
 8124 3309 E9320000 		.4byte	0x32e9
 8125 330d 03       		.uleb128 0x3
 8126 330e 5A300000 		.4byte	.LASF526
 8127 3312 1B       		.byte	0x1b
 8128 3313 E5       		.byte	0xe5
 8129 3314 B4000000 		.4byte	0xb4
 8130 3318 03       		.uleb128 0x3
 8131 3319 DC100000 		.4byte	.LASF527
 8132 331d 1B       		.byte	0x1b
 8133 331e EB       		.byte	0xeb
 8134 331f 17310000 		.4byte	0x3117
 8135 3323 3E       		.uleb128 0x3e
 8136 3324 AB000000 		.4byte	.LASF528
 8137 3328 24       		.byte	0x24
 8138 3329 1B       		.byte	0x1b
 8139 332a 0C01     		.2byte	0x10c
 8140 332c 9F330000 		.4byte	0x339f
 8141 3330 3F       		.uleb128 0x3f
 8142 3331 723400   		.ascii	"r4\000"
 8143 3334 1B       		.byte	0x1b
 8144 3335 1F01     		.2byte	0x11f
 8145 3337 0D330000 		.4byte	0x330d
 8146 333b 00       		.byte	0
 8147 333c 3F       		.uleb128 0x3f
 8148 333d 723500   		.ascii	"r5\000"
ARM GAS  /tmp/ccyYK6L9.s 			page 144


 8149 3340 1B       		.byte	0x1b
 8150 3341 2001     		.2byte	0x120
 8151 3343 0D330000 		.4byte	0x330d
 8152 3347 04       		.byte	0x4
 8153 3348 3F       		.uleb128 0x3f
 8154 3349 723600   		.ascii	"r6\000"
 8155 334c 1B       		.byte	0x1b
 8156 334d 2101     		.2byte	0x121
 8157 334f 0D330000 		.4byte	0x330d
 8158 3353 08       		.byte	0x8
 8159 3354 3F       		.uleb128 0x3f
 8160 3355 723700   		.ascii	"r7\000"
 8161 3358 1B       		.byte	0x1b
 8162 3359 2201     		.2byte	0x122
 8163 335b 0D330000 		.4byte	0x330d
 8164 335f 0C       		.byte	0xc
 8165 3360 3F       		.uleb128 0x3f
 8166 3361 723800   		.ascii	"r8\000"
 8167 3364 1B       		.byte	0x1b
 8168 3365 2301     		.2byte	0x123
 8169 3367 0D330000 		.4byte	0x330d
 8170 336b 10       		.byte	0x10
 8171 336c 3F       		.uleb128 0x3f
 8172 336d 723900   		.ascii	"r9\000"
 8173 3370 1B       		.byte	0x1b
 8174 3371 2401     		.2byte	0x124
 8175 3373 0D330000 		.4byte	0x330d
 8176 3377 14       		.byte	0x14
 8177 3378 3F       		.uleb128 0x3f
 8178 3379 72313000 		.ascii	"r10\000"
 8179 337d 1B       		.byte	0x1b
 8180 337e 2501     		.2byte	0x125
 8181 3380 0D330000 		.4byte	0x330d
 8182 3384 18       		.byte	0x18
 8183 3385 3F       		.uleb128 0x3f
 8184 3386 72313100 		.ascii	"r11\000"
 8185 338a 1B       		.byte	0x1b
 8186 338b 2601     		.2byte	0x126
 8187 338d 0D330000 		.4byte	0x330d
 8188 3391 1C       		.byte	0x1c
 8189 3392 3F       		.uleb128 0x3f
 8190 3393 6C7200   		.ascii	"lr\000"
 8191 3396 1B       		.byte	0x1b
 8192 3397 2701     		.2byte	0x127
 8193 3399 0D330000 		.4byte	0x330d
 8194 339d 20       		.byte	0x20
 8195 339e 00       		.byte	0
 8196 339f 3E       		.uleb128 0x3e
 8197 33a0 992E0000 		.4byte	.LASF529
 8198 33a4 04       		.byte	0x4
 8199 33a5 1B       		.byte	0x1b
 8200 33a6 3101     		.2byte	0x131
 8201 33a8 BA330000 		.4byte	0x33ba
 8202 33ac 3F       		.uleb128 0x3f
 8203 33ad 72313300 		.ascii	"r13\000"
 8204 33b1 1B       		.byte	0x1b
 8205 33b2 3201     		.2byte	0x132
ARM GAS  /tmp/ccyYK6L9.s 			page 145


 8206 33b4 BA330000 		.4byte	0x33ba
 8207 33b8 00       		.byte	0
 8208 33b9 00       		.byte	0
 8209 33ba 06       		.uleb128 0x6
 8210 33bb 04       		.byte	0x4
 8211 33bc 23330000 		.4byte	0x3323
 8212 33c0 40       		.uleb128 0x40
 8213 33c1 6B310000 		.4byte	0x316b
 8214 33c5 3D       		.uleb128 0x3d
 8215 33c6 1C       		.byte	0x1c
 8216 33c7 1C       		.byte	0x1c
 8217 33c8 5E       		.byte	0x5e
 8218 33c9 D9210000 		.4byte	.LASF530
 8219 33cd 1A340000 		.4byte	0x341a
 8220 33d1 1B       		.uleb128 0x1b
 8221 33d2 2F320000 		.4byte	.LASF531
 8222 33d6 1C       		.byte	0x1c
 8223 33d7 5F       		.byte	0x5f
 8224 33d8 DE320000 		.4byte	0x32de
 8225 33dc 00       		.byte	0
 8226 33dd 1B       		.uleb128 0x1b
 8227 33de 843E0000 		.4byte	.LASF532
 8228 33e2 1C       		.byte	0x1c
 8229 33e3 60       		.byte	0x60
 8230 33e4 4A310000 		.4byte	0x314a
 8231 33e8 08       		.byte	0x8
 8232 33e9 1B       		.uleb128 0x1b
 8233 33ea 961C0000 		.4byte	.LASF533
 8234 33ee 1C       		.byte	0x1c
 8235 33ef 62       		.byte	0x62
 8236 33f0 9F330000 		.4byte	0x339f
 8237 33f4 0C       		.byte	0xc
 8238 33f5 1B       		.uleb128 0x1b
 8239 33f6 1F240000 		.4byte	.LASF534
 8240 33fa 1C       		.byte	0x1c
 8241 33fb 65       		.byte	0x65
 8242 33fc D8320000 		.4byte	0x32d8
 8243 3400 10       		.byte	0x10
 8244 3401 1B       		.uleb128 0x1b
 8245 3402 67190000 		.4byte	.LASF535
 8246 3406 1C       		.byte	0x1c
 8247 3407 66       		.byte	0x66
 8248 3408 D8320000 		.4byte	0x32d8
 8249 340c 14       		.byte	0x14
 8250 340d 1B       		.uleb128 0x1b
 8251 340e 5D130000 		.4byte	.LASF536
 8252 3412 1C       		.byte	0x1c
 8253 3413 69       		.byte	0x69
 8254 3414 D8320000 		.4byte	0x32d8
 8255 3418 18       		.byte	0x18
 8256 3419 00       		.byte	0
 8257 341a 03       		.uleb128 0x3
 8258 341b 1F310000 		.4byte	.LASF537
 8259 341f 1C       		.byte	0x1c
 8260 3420 6B       		.byte	0x6b
 8261 3421 C5330000 		.4byte	0x33c5
 8262 3425 39       		.uleb128 0x39
ARM GAS  /tmp/ccyYK6L9.s 			page 146


 8263 3426 0C160000 		.4byte	.LASF133
 8264 342a 10       		.byte	0x10
 8265 342b 1D       		.byte	0x1d
 8266 342c 2C       		.byte	0x2c
 8267 342d 56340000 		.4byte	0x3456
 8268 3431 1B       		.uleb128 0x1b
 8269 3432 072D0000 		.4byte	.LASF538
 8270 3436 1D       		.byte	0x1d
 8271 3437 2D       		.byte	0x2d
 8272 3438 DE320000 		.4byte	0x32de
 8273 343c 00       		.byte	0
 8274 343d 1B       		.uleb128 0x1b
 8275 343e 0A290000 		.4byte	.LASF539
 8276 3442 1D       		.byte	0x1d
 8277 3443 2F       		.byte	0x2f
 8278 3444 D8320000 		.4byte	0x32d8
 8279 3448 08       		.byte	0x8
 8280 3449 1B       		.uleb128 0x1b
 8281 344a D2030000 		.4byte	.LASF540
 8282 344e 1D       		.byte	0x1d
 8283 344f 31       		.byte	0x31
 8284 3450 56340000 		.4byte	0x3456
 8285 3454 0C       		.byte	0xc
 8286 3455 00       		.byte	0
 8287 3456 06       		.uleb128 0x6
 8288 3457 04       		.byte	0x4
 8289 3458 25340000 		.4byte	0x3425
 8290 345c 03       		.uleb128 0x3
 8291 345d 0C160000 		.4byte	.LASF133
 8292 3461 1D       		.byte	0x1d
 8293 3462 33       		.byte	0x33
 8294 3463 25340000 		.4byte	0x3425
 8295 3467 03       		.uleb128 0x3
 8296 3468 31030000 		.4byte	.LASF541
 8297 346c 1E       		.byte	0x1e
 8298 346d 2C       		.byte	0x2c
 8299 346e 72340000 		.4byte	0x3472
 8300 3472 06       		.uleb128 0x6
 8301 3473 04       		.byte	0x4
 8302 3474 78340000 		.4byte	0x3478
 8303 3478 41       		.uleb128 0x41
 8304 3479 B4000000 		.4byte	0xb4
 8305 347d 87340000 		.4byte	0x3487
 8306 3481 0B       		.uleb128 0xb
 8307 3482 2C000000 		.4byte	0x2c
 8308 3486 00       		.byte	0
 8309 3487 39       		.uleb128 0x39
 8310 3488 E1470000 		.4byte	.LASF542
 8311 348c 04       		.byte	0x4
 8312 348d 1F       		.byte	0x1f
 8313 348e 2C       		.byte	0x2c
 8314 348f A0340000 		.4byte	0x34a0
 8315 3493 1B       		.uleb128 0x1b
 8316 3494 FF2C0000 		.4byte	.LASF543
 8317 3498 1F       		.byte	0x1f
 8318 3499 2D       		.byte	0x2d
 8319 349a A0340000 		.4byte	0x34a0
ARM GAS  /tmp/ccyYK6L9.s 			page 147


 8320 349e 00       		.byte	0
 8321 349f 00       		.byte	0
 8322 34a0 06       		.uleb128 0x6
 8323 34a1 04       		.byte	0x4
 8324 34a2 87340000 		.4byte	0x3487
 8325 34a6 3D       		.uleb128 0x3d
 8326 34a7 0C       		.byte	0xc
 8327 34a8 1F       		.byte	0x1f
 8328 34a9 34       		.byte	0x34
 8329 34aa A13E0000 		.4byte	.LASF544
 8330 34ae D7340000 		.4byte	0x34d7
 8331 34b2 1B       		.uleb128 0x1b
 8332 34b3 C62B0000 		.4byte	.LASF545
 8333 34b7 1F       		.byte	0x1f
 8334 34b8 35       		.byte	0x35
 8335 34b9 A0340000 		.4byte	0x34a0
 8336 34bd 00       		.byte	0
 8337 34be 1B       		.uleb128 0x1b
 8338 34bf 73230000 		.4byte	.LASF546
 8339 34c3 1F       		.byte	0x1f
 8340 34c4 36       		.byte	0x36
 8341 34c5 2C000000 		.4byte	0x2c
 8342 34c9 04       		.byte	0x4
 8343 34ca 1B       		.uleb128 0x1b
 8344 34cb 2F2C0000 		.4byte	.LASF547
 8345 34cf 1F       		.byte	0x1f
 8346 34d0 38       		.byte	0x38
 8347 34d1 67340000 		.4byte	0x3467
 8348 34d5 08       		.byte	0x8
 8349 34d6 00       		.byte	0
 8350 34d7 03       		.uleb128 0x3
 8351 34d8 67370000 		.4byte	.LASF548
 8352 34dc 1F       		.byte	0x1f
 8353 34dd 3A       		.byte	0x3a
 8354 34de A6340000 		.4byte	0x34a6
 8355 34e2 06       		.uleb128 0x6
 8356 34e3 04       		.byte	0x4
 8357 34e4 81310000 		.4byte	0x3181
 8358 34e8 06       		.uleb128 0x6
 8359 34e9 04       		.byte	0x4
 8360 34ea 18330000 		.4byte	0x3318
 8361 34ee 06       		.uleb128 0x6
 8362 34ef 04       		.byte	0x4
 8363 34f0 5C340000 		.4byte	0x345c
 8364 34f4 06       		.uleb128 0x6
 8365 34f5 04       		.byte	0x4
 8366 34f6 EB300000 		.4byte	0x30eb
 8367 34fa 06       		.uleb128 0x6
 8368 34fb 04       		.byte	0x4
 8369 34fc 00350000 		.4byte	0x3500
 8370 3500 07       		.uleb128 0x7
 8371 3501 EB300000 		.4byte	0x30eb
 8372 3505 06       		.uleb128 0x6
 8373 3506 04       		.byte	0x4
 8374 3507 CE010000 		.4byte	0x1ce
 8375 350b 06       		.uleb128 0x6
 8376 350c 04       		.byte	0x4
ARM GAS  /tmp/ccyYK6L9.s 			page 148


 8377 350d 12020000 		.4byte	0x212
 8378 3511 06       		.uleb128 0x6
 8379 3512 04       		.byte	0x4
 8380 3513 17350000 		.4byte	0x3517
 8381 3517 42       		.uleb128 0x42
 8382 3518 06       		.uleb128 0x6
 8383 3519 04       		.byte	0x4
 8384 351a DC040000 		.4byte	0x4dc
 8385 351e 04       		.uleb128 0x4
 8386 351f 08       		.byte	0x8
 8387 3520 04       		.byte	0x4
 8388 3521 80390000 		.4byte	.LASF549
 8389 3525 38       		.uleb128 0x38
 8390 3526 04       		.byte	0x4
 8391 3527 56020000 		.4byte	0x256
 8392 352b 06       		.uleb128 0x6
 8393 352c 04       		.byte	0x4
 8394 352d 56020000 		.4byte	0x256
 8395 3531 38       		.uleb128 0x38
 8396 3532 04       		.byte	0x4
 8397 3533 DC040000 		.4byte	0x4dc
 8398 3537 06       		.uleb128 0x6
 8399 3538 04       		.byte	0x4
 8400 3539 85060000 		.4byte	0x685
 8401 353d 38       		.uleb128 0x38
 8402 353e 04       		.byte	0x4
 8403 353f ED040000 		.4byte	0x4ed
 8404 3543 06       		.uleb128 0x6
 8405 3544 04       		.byte	0x4
 8406 3545 ED040000 		.4byte	0x4ed
 8407 3549 38       		.uleb128 0x38
 8408 354a 04       		.byte	0x4
 8409 354b 6D050000 		.4byte	0x56d
 8410 354f 06       		.uleb128 0x6
 8411 3550 04       		.byte	0x4
 8412 3551 F0070000 		.4byte	0x7f0
 8413 3555 06       		.uleb128 0x6
 8414 3556 04       		.byte	0x4
 8415 3557 70090000 		.4byte	0x970
 8416 355b 06       		.uleb128 0x6
 8417 355c 04       		.byte	0x4
 8418 355d 75090000 		.4byte	0x975
 8419 3561 06       		.uleb128 0x6
 8420 3562 04       		.byte	0x4
 8421 3563 E1040000 		.4byte	0x4e1
 8422 3567 06       		.uleb128 0x6
 8423 3568 04       		.byte	0x4
 8424 3569 7A090000 		.4byte	0x97a
 8425 356d 38       		.uleb128 0x38
 8426 356e 04       		.byte	0x4
 8427 356f 5C340000 		.4byte	0x345c
 8428 3573 06       		.uleb128 0x6
 8429 3574 04       		.byte	0x4
 8430 3575 8B0A0000 		.4byte	0xa8b
 8431 3579 06       		.uleb128 0x6
 8432 357a 04       		.byte	0x4
 8433 357b 900B0000 		.4byte	0xb90
ARM GAS  /tmp/ccyYK6L9.s 			page 149


 8434 357f 06       		.uleb128 0x6
 8435 3580 04       		.byte	0x4
 8436 3581 85350000 		.4byte	0x3585
 8437 3585 41       		.uleb128 0x41
 8438 3586 22310000 		.4byte	0x3122
 8439 358a 94350000 		.4byte	0x3594
 8440 358e 0B       		.uleb128 0xb
 8441 358f 94350000 		.4byte	0x3594
 8442 3593 00       		.byte	0
 8443 3594 38       		.uleb128 0x38
 8444 3595 04       		.byte	0x4
 8445 3596 A3100000 		.4byte	0x10a3
 8446 359a 06       		.uleb128 0x6
 8447 359b 04       		.byte	0x4
 8448 359c A0350000 		.4byte	0x35a0
 8449 35a0 41       		.uleb128 0x41
 8450 35a1 22310000 		.4byte	0x3122
 8451 35a5 B4350000 		.4byte	0x35b4
 8452 35a9 0B       		.uleb128 0xb
 8453 35aa 94350000 		.4byte	0x3594
 8454 35ae 0B       		.uleb128 0xb
 8455 35af 11350000 		.4byte	0x3511
 8456 35b3 00       		.byte	0
 8457 35b4 06       		.uleb128 0x6
 8458 35b5 04       		.byte	0x4
 8459 35b6 280C0000 		.4byte	0xc28
 8460 35ba 06       		.uleb128 0x6
 8461 35bb 04       		.byte	0x4
 8462 35bc AD100000 		.4byte	0x10ad
 8463 35c0 06       		.uleb128 0x6
 8464 35c1 04       		.byte	0x4
 8465 35c2 7E0B0000 		.4byte	0xb7e
 8466 35c6 38       		.uleb128 0x38
 8467 35c7 04       		.byte	0x4
 8468 35c8 900B0000 		.4byte	0xb90
 8469 35cc 06       		.uleb128 0x6
 8470 35cd 04       		.byte	0x4
 8471 35ce A8100000 		.4byte	0x10a8
 8472 35d2 38       		.uleb128 0x38
 8473 35d3 04       		.byte	0x4
 8474 35d4 DD0B0000 		.4byte	0xbdd
 8475 35d8 38       		.uleb128 0x38
 8476 35d9 04       		.byte	0x4
 8477 35da E20B0000 		.4byte	0xbe2
 8478 35de 38       		.uleb128 0x38
 8479 35df 04       		.byte	0x4
 8480 35e0 E70B0000 		.4byte	0xbe7
 8481 35e4 38       		.uleb128 0x38
 8482 35e5 04       		.byte	0x4
 8483 35e6 EC0B0000 		.4byte	0xbec
 8484 35ea 06       		.uleb128 0x6
 8485 35eb 04       		.byte	0x4
 8486 35ec C4100000 		.4byte	0x10c4
 8487 35f0 06       		.uleb128 0x6
 8488 35f1 04       		.byte	0x4
 8489 35f2 F6350000 		.4byte	0x35f6
 8490 35f6 41       		.uleb128 0x41
ARM GAS  /tmp/ccyYK6L9.s 			page 150


 8491 35f7 22310000 		.4byte	0x3122
 8492 35fb 05360000 		.4byte	0x3605
 8493 35ff 0B       		.uleb128 0xb
 8494 3600 05360000 		.4byte	0x3605
 8495 3604 00       		.byte	0
 8496 3605 38       		.uleb128 0x38
 8497 3606 04       		.byte	0x4
 8498 3607 D7150000 		.4byte	0x15d7
 8499 360b 06       		.uleb128 0x6
 8500 360c 04       		.byte	0x4
 8501 360d 11360000 		.4byte	0x3611
 8502 3611 41       		.uleb128 0x41
 8503 3612 22310000 		.4byte	0x3122
 8504 3616 25360000 		.4byte	0x3625
 8505 361a 0B       		.uleb128 0xb
 8506 361b 05360000 		.4byte	0x3605
 8507 361f 0B       		.uleb128 0xb
 8508 3620 11350000 		.4byte	0x3511
 8509 3624 00       		.byte	0
 8510 3625 06       		.uleb128 0x6
 8511 3626 04       		.byte	0x4
 8512 3627 5C110000 		.4byte	0x115c
 8513 362b 06       		.uleb128 0x6
 8514 362c 04       		.byte	0x4
 8515 362d E1150000 		.4byte	0x15e1
 8516 3631 06       		.uleb128 0x6
 8517 3632 04       		.byte	0x4
 8518 3633 B2100000 		.4byte	0x10b2
 8519 3637 38       		.uleb128 0x38
 8520 3638 04       		.byte	0x4
 8521 3639 C4100000 		.4byte	0x10c4
 8522 363d 06       		.uleb128 0x6
 8523 363e 04       		.byte	0x4
 8524 363f DC150000 		.4byte	0x15dc
 8525 3643 38       		.uleb128 0x38
 8526 3644 04       		.byte	0x4
 8527 3645 11110000 		.4byte	0x1111
 8528 3649 38       		.uleb128 0x38
 8529 364a 04       		.byte	0x4
 8530 364b 16110000 		.4byte	0x1116
 8531 364f 38       		.uleb128 0x38
 8532 3650 04       		.byte	0x4
 8533 3651 1B110000 		.4byte	0x111b
 8534 3655 38       		.uleb128 0x38
 8535 3656 04       		.byte	0x4
 8536 3657 20110000 		.4byte	0x1120
 8537 365b 06       		.uleb128 0x6
 8538 365c 04       		.byte	0x4
 8539 365d F8150000 		.4byte	0x15f8
 8540 3661 06       		.uleb128 0x6
 8541 3662 04       		.byte	0x4
 8542 3663 67360000 		.4byte	0x3667
 8543 3667 41       		.uleb128 0x41
 8544 3668 22310000 		.4byte	0x3122
 8545 366c 76360000 		.4byte	0x3676
 8546 3670 0B       		.uleb128 0xb
 8547 3671 76360000 		.4byte	0x3676
ARM GAS  /tmp/ccyYK6L9.s 			page 151


 8548 3675 00       		.byte	0
 8549 3676 38       		.uleb128 0x38
 8550 3677 04       		.byte	0x4
 8551 3678 B31A0000 		.4byte	0x1ab3
 8552 367c 06       		.uleb128 0x6
 8553 367d 04       		.byte	0x4
 8554 367e 82360000 		.4byte	0x3682
 8555 3682 41       		.uleb128 0x41
 8556 3683 22310000 		.4byte	0x3122
 8557 3687 96360000 		.4byte	0x3696
 8558 368b 0B       		.uleb128 0xb
 8559 368c 76360000 		.4byte	0x3676
 8560 3690 0B       		.uleb128 0xb
 8561 3691 11350000 		.4byte	0x3511
 8562 3695 00       		.byte	0
 8563 3696 06       		.uleb128 0x6
 8564 3697 04       		.byte	0x4
 8565 3698 90160000 		.4byte	0x1690
 8566 369c 06       		.uleb128 0x6
 8567 369d 04       		.byte	0x4
 8568 369e A01D0000 		.4byte	0x1da0
 8569 36a2 06       		.uleb128 0x6
 8570 36a3 04       		.byte	0x4
 8571 36a4 E6150000 		.4byte	0x15e6
 8572 36a8 38       		.uleb128 0x38
 8573 36a9 04       		.byte	0x4
 8574 36aa F8150000 		.4byte	0x15f8
 8575 36ae 06       		.uleb128 0x6
 8576 36af 04       		.byte	0x4
 8577 36b0 B81A0000 		.4byte	0x1ab8
 8578 36b4 38       		.uleb128 0x38
 8579 36b5 04       		.byte	0x4
 8580 36b6 45160000 		.4byte	0x1645
 8581 36ba 38       		.uleb128 0x38
 8582 36bb 04       		.byte	0x4
 8583 36bc 4A160000 		.4byte	0x164a
 8584 36c0 38       		.uleb128 0x38
 8585 36c1 04       		.byte	0x4
 8586 36c2 4F160000 		.4byte	0x164f
 8587 36c6 38       		.uleb128 0x38
 8588 36c7 04       		.byte	0x4
 8589 36c8 54160000 		.4byte	0x1654
 8590 36cc 07       		.uleb128 0x7
 8591 36cd AE360000 		.4byte	0x36ae
 8592 36d1 38       		.uleb128 0x38
 8593 36d2 04       		.byte	0x4
 8594 36d3 B81A0000 		.4byte	0x1ab8
 8595 36d7 06       		.uleb128 0x6
 8596 36d8 04       		.byte	0x4
 8597 36d9 A51D0000 		.4byte	0x1da5
 8598 36dd 38       		.uleb128 0x38
 8599 36de 04       		.byte	0x4
 8600 36df 85060000 		.4byte	0x685
 8601 36e3 38       		.uleb128 0x38
 8602 36e4 04       		.byte	0x4
 8603 36e5 A51D0000 		.4byte	0x1da5
 8604 36e9 06       		.uleb128 0x6
ARM GAS  /tmp/ccyYK6L9.s 			page 152


 8605 36ea 04       		.byte	0x4
 8606 36eb 631F0000 		.4byte	0x1f63
 8607 36ef 06       		.uleb128 0x6
 8608 36f0 04       		.byte	0x4
 8609 36f1 AA1D0000 		.4byte	0x1daa
 8610 36f5 38       		.uleb128 0x38
 8611 36f6 04       		.byte	0x4
 8612 36f7 D7340000 		.4byte	0x34d7
 8613 36fb 06       		.uleb128 0x6
 8614 36fc 04       		.byte	0x4
 8615 36fd 7A1F0000 		.4byte	0x1f7a
 8616 3701 06       		.uleb128 0x6
 8617 3702 04       		.byte	0x4
 8618 3703 07370000 		.4byte	0x3707
 8619 3707 41       		.uleb128 0x41
 8620 3708 22310000 		.4byte	0x3122
 8621 370c 16370000 		.4byte	0x3716
 8622 3710 0B       		.uleb128 0xb
 8623 3711 16370000 		.4byte	0x3716
 8624 3715 00       		.byte	0
 8625 3716 38       		.uleb128 0x38
 8626 3717 04       		.byte	0x4
 8627 3718 AA250000 		.4byte	0x25aa
 8628 371c 06       		.uleb128 0x6
 8629 371d 04       		.byte	0x4
 8630 371e 22370000 		.4byte	0x3722
 8631 3722 41       		.uleb128 0x41
 8632 3723 22310000 		.4byte	0x3122
 8633 3727 36370000 		.4byte	0x3736
 8634 372b 0B       		.uleb128 0xb
 8635 372c 16370000 		.4byte	0x3716
 8636 3730 0B       		.uleb128 0xb
 8637 3731 11350000 		.4byte	0x3511
 8638 3735 00       		.byte	0
 8639 3736 06       		.uleb128 0x6
 8640 3737 04       		.byte	0x4
 8641 3738 82210000 		.4byte	0x2182
 8642 373c 06       		.uleb128 0x6
 8643 373d 04       		.byte	0x4
 8644 373e B4250000 		.4byte	0x25b4
 8645 3742 06       		.uleb128 0x6
 8646 3743 04       		.byte	0x4
 8647 3744 681F0000 		.4byte	0x1f68
 8648 3748 38       		.uleb128 0x38
 8649 3749 04       		.byte	0x4
 8650 374a 7A1F0000 		.4byte	0x1f7a
 8651 374e 06       		.uleb128 0x6
 8652 374f 04       		.byte	0x4
 8653 3750 AF250000 		.4byte	0x25af
 8654 3754 38       		.uleb128 0x38
 8655 3755 04       		.byte	0x4
 8656 3756 CC1F0000 		.4byte	0x1fcc
 8657 375a 38       		.uleb128 0x38
 8658 375b 04       		.byte	0x4
 8659 375c D11F0000 		.4byte	0x1fd1
 8660 3760 38       		.uleb128 0x38
 8661 3761 04       		.byte	0x4
ARM GAS  /tmp/ccyYK6L9.s 			page 153


 8662 3762 D61F0000 		.4byte	0x1fd6
 8663 3766 38       		.uleb128 0x38
 8664 3767 04       		.byte	0x4
 8665 3768 DB1F0000 		.4byte	0x1fdb
 8666 376c 06       		.uleb128 0x6
 8667 376d 04       		.byte	0x4
 8668 376e CB250000 		.4byte	0x25cb
 8669 3772 06       		.uleb128 0x6
 8670 3773 04       		.byte	0x4
 8671 3774 78370000 		.4byte	0x3778
 8672 3778 41       		.uleb128 0x41
 8673 3779 22310000 		.4byte	0x3122
 8674 377d 87370000 		.4byte	0x3787
 8675 3781 0B       		.uleb128 0xb
 8676 3782 87370000 		.4byte	0x3787
 8677 3786 00       		.byte	0
 8678 3787 38       		.uleb128 0x38
 8679 3788 04       		.byte	0x4
 8680 3789 862A0000 		.4byte	0x2a86
 8681 378d 06       		.uleb128 0x6
 8682 378e 04       		.byte	0x4
 8683 378f 93370000 		.4byte	0x3793
 8684 3793 41       		.uleb128 0x41
 8685 3794 22310000 		.4byte	0x3122
 8686 3798 A7370000 		.4byte	0x37a7
 8687 379c 0B       		.uleb128 0xb
 8688 379d 87370000 		.4byte	0x3787
 8689 37a1 0B       		.uleb128 0xb
 8690 37a2 11350000 		.4byte	0x3511
 8691 37a6 00       		.byte	0
 8692 37a7 06       		.uleb128 0x6
 8693 37a8 04       		.byte	0x4
 8694 37a9 63260000 		.4byte	0x2663
 8695 37ad 06       		.uleb128 0x6
 8696 37ae 04       		.byte	0x4
 8697 37af FB2F0000 		.4byte	0x2ffb
 8698 37b3 06       		.uleb128 0x6
 8699 37b4 04       		.byte	0x4
 8700 37b5 B9250000 		.4byte	0x25b9
 8701 37b9 38       		.uleb128 0x38
 8702 37ba 04       		.byte	0x4
 8703 37bb CB250000 		.4byte	0x25cb
 8704 37bf 06       		.uleb128 0x6
 8705 37c0 04       		.byte	0x4
 8706 37c1 8B2A0000 		.4byte	0x2a8b
 8707 37c5 38       		.uleb128 0x38
 8708 37c6 04       		.byte	0x4
 8709 37c7 18260000 		.4byte	0x2618
 8710 37cb 38       		.uleb128 0x38
 8711 37cc 04       		.byte	0x4
 8712 37cd 1D260000 		.4byte	0x261d
 8713 37d1 38       		.uleb128 0x38
 8714 37d2 04       		.byte	0x4
 8715 37d3 22260000 		.4byte	0x2622
 8716 37d7 38       		.uleb128 0x38
 8717 37d8 04       		.byte	0x4
 8718 37d9 27260000 		.4byte	0x2627
ARM GAS  /tmp/ccyYK6L9.s 			page 154


 8719 37dd 07       		.uleb128 0x7
 8720 37de BF370000 		.4byte	0x37bf
 8721 37e2 38       		.uleb128 0x38
 8722 37e3 04       		.byte	0x4
 8723 37e4 8B2A0000 		.4byte	0x2a8b
 8724 37e8 07       		.uleb128 0x7
 8725 37e9 C3000000 		.4byte	0xc3
 8726 37ed 06       		.uleb128 0x6
 8727 37ee 04       		.byte	0x4
 8728 37ef 862A0000 		.4byte	0x2a86
 8729 37f3 38       		.uleb128 0x38
 8730 37f4 04       		.byte	0x4
 8731 37f5 00300000 		.4byte	0x3000
 8732 37f9 38       		.uleb128 0x38
 8733 37fa 04       		.byte	0x4
 8734 37fb A8100000 		.4byte	0x10a8
 8735 37ff 38       		.uleb128 0x38
 8736 3800 04       		.byte	0x4
 8737 3801 AF250000 		.4byte	0x25af
 8738 3805 38       		.uleb128 0x38
 8739 3806 04       		.byte	0x4
 8740 3807 DC150000 		.4byte	0x15dc
 8741 380b 07       		.uleb128 0x7
 8742 380c 4E370000 		.4byte	0x374e
 8743 3810 07       		.uleb128 0x7
 8744 3811 CC350000 		.4byte	0x35cc
 8745 3815 07       		.uleb128 0x7
 8746 3816 3D360000 		.4byte	0x363d
 8747 381a 07       		.uleb128 0x7
 8748 381b 1F380000 		.4byte	0x381f
 8749 381f 06       		.uleb128 0x6
 8750 3820 04       		.byte	0x4
 8751 3821 05300000 		.4byte	0x3005
 8752 3825 40       		.uleb128 0x40
 8753 3826 01310000 		.4byte	0x3101
 8754 382a 06       		.uleb128 0x6
 8755 382b 04       		.byte	0x4
 8756 382c 9B250000 		.4byte	0x259b
 8757 3830 06       		.uleb128 0x6
 8758 3831 04       		.byte	0x4
 8759 3832 DB1F0000 		.4byte	0x1fdb
 8760 3836 38       		.uleb128 0x38
 8761 3837 04       		.byte	0x4
 8762 3838 3C250000 		.4byte	0x253c
 8763 383c 06       		.uleb128 0x6
 8764 383d 04       		.byte	0x4
 8765 383e AA250000 		.4byte	0x25aa
 8766 3842 06       		.uleb128 0x6
 8767 3843 04       		.byte	0x4
 8768 3844 3C250000 		.4byte	0x253c
 8769 3848 07       		.uleb128 0x7
 8770 3849 4D380000 		.4byte	0x384d
 8771 384d 38       		.uleb128 0x38
 8772 384e 04       		.byte	0x4
 8773 384f 8B0A0000 		.4byte	0xa8b
 8774 3853 06       		.uleb128 0x6
 8775 3854 04       		.byte	0x4
ARM GAS  /tmp/ccyYK6L9.s 			page 155


 8776 3855 2A300000 		.4byte	0x302a
 8777 3859 41       		.uleb128 0x41
 8778 385a 25000000 		.4byte	0x25
 8779 385e 64380000 		.4byte	0x3864
 8780 3862 43       		.uleb128 0x43
 8781 3863 00       		.byte	0
 8782 3864 06       		.uleb128 0x6
 8783 3865 04       		.byte	0x4
 8784 3866 6A380000 		.4byte	0x386a
 8785 386a 44       		.uleb128 0x44
 8786 386b 04       		.byte	0x4
 8787 386c 0F390000 		.4byte	.LASF601
 8788 3870 59380000 		.4byte	0x3859
 8789 3874 06       		.uleb128 0x6
 8790 3875 04       		.byte	0x4
 8791 3876 B31A0000 		.4byte	0x1ab3
 8792 387a 38       		.uleb128 0x38
 8793 387b 04       		.byte	0x4
 8794 387c AD100000 		.4byte	0x10ad
 8795 3880 38       		.uleb128 0x38
 8796 3881 04       		.byte	0x4
 8797 3882 E1150000 		.4byte	0x15e1
 8798 3886 45       		.uleb128 0x45
 8799 3887 93010000 		.4byte	0x193
 8800 388b 02       		.byte	0x2
 8801 388c 94380000 		.4byte	0x3894
 8802 3890 9E380000 		.4byte	0x389e
 8803 3894 46       		.uleb128 0x46
 8804 3895 C91E0000 		.4byte	.LASF550
 8805 3899 9E380000 		.4byte	0x389e
 8806 389d 00       		.byte	0
 8807 389e 07       		.uleb128 0x7
 8808 389f DF300000 		.4byte	0x30df
 8809 38a3 47       		.uleb128 0x47
 8810 38a4 86380000 		.4byte	0x3886
 8811 38a8 38420000 		.4byte	.LASF552
 8812 38ac 00000000 		.4byte	.LFB6
 8813 38b0 0C000000 		.4byte	.LFE6-.LFB6
 8814 38b4 01       		.uleb128 0x1
 8815 38b5 9C       		.byte	0x9c
 8816 38b6 BE380000 		.4byte	0x38be
 8817 38ba C7380000 		.4byte	0x38c7
 8818 38be 48       		.uleb128 0x48
 8819 38bf 94380000 		.4byte	0x3894
 8820 38c3 02       		.uleb128 0x2
 8821 38c4 91       		.byte	0x91
 8822 38c5 7C       		.sleb128 -4
 8823 38c6 00       		.byte	0
 8824 38c7 45       		.uleb128 0x45
 8825 38c8 AD010000 		.4byte	0x1ad
 8826 38cc 02       		.byte	0x2
 8827 38cd D5380000 		.4byte	0x38d5
 8828 38d1 E8380000 		.4byte	0x38e8
 8829 38d5 46       		.uleb128 0x46
 8830 38d6 C91E0000 		.4byte	.LASF550
 8831 38da 9E380000 		.4byte	0x389e
 8832 38de 46       		.uleb128 0x46
ARM GAS  /tmp/ccyYK6L9.s 			page 156


 8833 38df 81440000 		.4byte	.LASF551
 8834 38e3 E8380000 		.4byte	0x38e8
 8835 38e7 00       		.byte	0
 8836 38e8 07       		.uleb128 0x7
 8837 38e9 25000000 		.4byte	0x25
 8838 38ed 47       		.uleb128 0x47
 8839 38ee C7380000 		.4byte	0x38c7
 8840 38f2 4F190000 		.4byte	.LASF553
 8841 38f6 00000000 		.4byte	.LFB9
 8842 38fa 0C000000 		.4byte	.LFE9-.LFB9
 8843 38fe 01       		.uleb128 0x1
 8844 38ff 9C       		.byte	0x9c
 8845 3900 08390000 		.4byte	0x3908
 8846 3904 11390000 		.4byte	0x3911
 8847 3908 48       		.uleb128 0x48
 8848 3909 D5380000 		.4byte	0x38d5
 8849 390d 02       		.uleb128 0x2
 8850 390e 91       		.byte	0x91
 8851 390f 7C       		.sleb128 -4
 8852 3910 00       		.byte	0
 8853 3911 49       		.uleb128 0x49
 8854 3912 F9010000 		.4byte	0x1f9
 8855 3916 14       		.byte	0x14
 8856 3917 00000000 		.4byte	.LFB18
 8857 391b 0E000000 		.4byte	.LFE18-.LFB18
 8858 391f 01       		.uleb128 0x1
 8859 3920 9C       		.byte	0x9c
 8860 3921 3D390000 		.4byte	0x393d
 8861 3925 4A       		.uleb128 0x4a
 8862 3926 02000000 		.4byte	.LBB4
 8863 392a 06000000 		.4byte	.LBE4-.LBB4
 8864 392e 4B       		.uleb128 0x4b
 8865 392f 746D7000 		.ascii	"tmp\000"
 8866 3933 02       		.byte	0x2
 8867 3934 16       		.byte	0x16
 8868 3935 0C310000 		.4byte	0x310c
 8869 3939 01       		.uleb128 0x1
 8870 393a 53       		.byte	0x53
 8871 393b 00       		.byte	0
 8872 393c 00       		.byte	0
 8873 393d 49       		.uleb128 0x49
 8874 393e 05020000 		.4byte	0x205
 8875 3942 1B       		.byte	0x1b
 8876 3943 00000000 		.4byte	.LFB19
 8877 3947 0E000000 		.4byte	.LFE19-.LFB19
 8878 394b 01       		.uleb128 0x1
 8879 394c 9C       		.byte	0x9c
 8880 394d 69390000 		.4byte	0x3969
 8881 3951 4A       		.uleb128 0x4a
 8882 3952 06000000 		.4byte	.LBB7
 8883 3956 06000000 		.4byte	.LBE7-.LBB7
 8884 395a 4B       		.uleb128 0x4b
 8885 395b 746D7000 		.ascii	"tmp\000"
 8886 395f 02       		.byte	0x2
 8887 3960 1D       		.byte	0x1d
 8888 3961 0C310000 		.4byte	0x310c
 8889 3965 01       		.uleb128 0x1
ARM GAS  /tmp/ccyYK6L9.s 			page 157


 8890 3966 53       		.byte	0x53
 8891 3967 00       		.byte	0
 8892 3968 00       		.byte	0
 8893 3969 4C       		.uleb128 0x4c
 8894 396a 3D020000 		.4byte	0x23d
 8895 396e 1B       		.byte	0x1b
 8896 396f 00000000 		.4byte	.LFB26
 8897 3973 08000000 		.4byte	.LFE26-.LFB26
 8898 3977 01       		.uleb128 0x1
 8899 3978 9C       		.byte	0x9c
 8900 3979 4C       		.uleb128 0x4c
 8901 397a 49020000 		.4byte	0x249
 8902 397e 22       		.byte	0x22
 8903 397f 00000000 		.4byte	.LFB27
 8904 3983 08000000 		.4byte	.LFE27-.LFB27
 8905 3987 01       		.uleb128 0x1
 8906 3988 9C       		.byte	0x9c
 8907 3989 4D       		.uleb128 0x4d
 8908 398a F8030000 		.4byte	0x3f8
 8909 398e 9B       		.byte	0x9b
 8910 398f 02       		.byte	0x2
 8911 3990 98390000 		.4byte	0x3998
 8912 3994 A2390000 		.4byte	0x39a2
 8913 3998 46       		.uleb128 0x46
 8914 3999 C91E0000 		.4byte	.LASF550
 8915 399d A2390000 		.4byte	0x39a2
 8916 39a1 00       		.byte	0
 8917 39a2 07       		.uleb128 0x7
 8918 39a3 2B350000 		.4byte	0x352b
 8919 39a7 47       		.uleb128 0x47
 8920 39a8 89390000 		.4byte	0x3989
 8921 39ac 090E0000 		.4byte	.LASF554
 8922 39b0 00000000 		.4byte	.LFB144
 8923 39b4 12000000 		.4byte	.LFE144-.LFB144
 8924 39b8 01       		.uleb128 0x1
 8925 39b9 9C       		.byte	0x9c
 8926 39ba C2390000 		.4byte	0x39c2
 8927 39be CB390000 		.4byte	0x39cb
 8928 39c2 48       		.uleb128 0x48
 8929 39c3 98390000 		.4byte	0x3998
 8930 39c7 02       		.uleb128 0x2
 8931 39c8 91       		.byte	0x91
 8932 39c9 7C       		.sleb128 -4
 8933 39ca 00       		.byte	0
 8934 39cb 4D       		.uleb128 0x4d
 8935 39cc 34050000 		.4byte	0x534
 8936 39d0 6A       		.byte	0x6a
 8937 39d1 02       		.byte	0x2
 8938 39d2 DA390000 		.4byte	0x39da
 8939 39d6 E4390000 		.4byte	0x39e4
 8940 39da 46       		.uleb128 0x46
 8941 39db C91E0000 		.4byte	.LASF550
 8942 39df E4390000 		.4byte	0x39e4
 8943 39e3 00       		.byte	0
 8944 39e4 07       		.uleb128 0x7
 8945 39e5 43350000 		.4byte	0x3543
 8946 39e9 4E       		.uleb128 0x4e
ARM GAS  /tmp/ccyYK6L9.s 			page 158


 8947 39ea CB390000 		.4byte	0x39cb
 8948 39ee 823B0000 		.4byte	.LASF555
 8949 39f2 00000000 		.4byte	.LFB180
 8950 39f6 20000000 		.4byte	.LFE180-.LFB180
 8951 39fa 01       		.uleb128 0x1
 8952 39fb 9C       		.byte	0x9c
 8953 39fc 043A0000 		.4byte	0x3a04
 8954 3a00 0D3A0000 		.4byte	0x3a0d
 8955 3a04 48       		.uleb128 0x48
 8956 3a05 DA390000 		.4byte	0x39da
 8957 3a09 02       		.uleb128 0x2
 8958 3a0a 91       		.byte	0x91
 8959 3a0b 74       		.sleb128 -12
 8960 3a0c 00       		.byte	0
 8961 3a0d 4F       		.uleb128 0x4f
 8962 3a0e 98090000 		.4byte	0x998
 8963 3a12 1F       		.byte	0x1f
 8964 3a13 00000000 		.4byte	.LFB182
 8965 3a17 14000000 		.4byte	.LFE182-.LFB182
 8966 3a1b 01       		.uleb128 0x1
 8967 3a1c 9C       		.byte	0x9c
 8968 3a1d 253A0000 		.4byte	0x3a25
 8969 3a21 323A0000 		.4byte	0x3a32
 8970 3a25 50       		.uleb128 0x50
 8971 3a26 C91E0000 		.4byte	.LASF550
 8972 3a2a 323A0000 		.4byte	0x3a32
 8973 3a2e 02       		.uleb128 0x2
 8974 3a2f 91       		.byte	0x91
 8975 3a30 74       		.sleb128 -12
 8976 3a31 00       		.byte	0
 8977 3a32 07       		.uleb128 0x7
 8978 3a33 67350000 		.4byte	0x3567
 8979 3a37 4F       		.uleb128 0x4f
 8980 3a38 E6090000 		.4byte	0x9e6
 8981 3a3c 34       		.byte	0x34
 8982 3a3d 00000000 		.4byte	.LFB185
 8983 3a41 14000000 		.4byte	.LFE185-.LFB185
 8984 3a45 01       		.uleb128 0x1
 8985 3a46 9C       		.byte	0x9c
 8986 3a47 4F3A0000 		.4byte	0x3a4f
 8987 3a4b 5C3A0000 		.4byte	0x3a5c
 8988 3a4f 50       		.uleb128 0x50
 8989 3a50 C91E0000 		.4byte	.LASF550
 8990 3a54 323A0000 		.4byte	0x3a32
 8991 3a58 02       		.uleb128 0x2
 8992 3a59 91       		.byte	0x91
 8993 3a5a 74       		.sleb128 -12
 8994 3a5b 00       		.byte	0
 8995 3a5c 4F       		.uleb128 0x4f
 8996 3a5d 000A0000 		.4byte	0xa00
 8997 3a61 3B       		.byte	0x3b
 8998 3a62 00000000 		.4byte	.LFB186
 8999 3a66 10000000 		.4byte	.LFE186-.LFB186
 9000 3a6a 01       		.uleb128 0x1
 9001 3a6b 9C       		.byte	0x9c
 9002 3a6c 743A0000 		.4byte	0x3a74
 9003 3a70 813A0000 		.4byte	0x3a81
ARM GAS  /tmp/ccyYK6L9.s 			page 159


 9004 3a74 50       		.uleb128 0x50
 9005 3a75 C91E0000 		.4byte	.LASF550
 9006 3a79 323A0000 		.4byte	0x3a32
 9007 3a7d 02       		.uleb128 0x2
 9008 3a7e 91       		.byte	0x91
 9009 3a7f 74       		.sleb128 -12
 9010 3a80 00       		.byte	0
 9011 3a81 4D       		.uleb128 0x4d
 9012 3a82 380A0000 		.4byte	0xa38
 9013 3a86 49       		.byte	0x49
 9014 3a87 02       		.byte	0x2
 9015 3a88 903A0000 		.4byte	0x3a90
 9016 3a8c 9A3A0000 		.4byte	0x3a9a
 9017 3a90 46       		.uleb128 0x46
 9018 3a91 C91E0000 		.4byte	.LASF550
 9019 3a95 323A0000 		.4byte	0x3a32
 9020 3a99 00       		.byte	0
 9021 3a9a 4E       		.uleb128 0x4e
 9022 3a9b 813A0000 		.4byte	0x3a81
 9023 3a9f 13300000 		.4byte	.LASF556
 9024 3aa3 00000000 		.4byte	.LFB189
 9025 3aa7 1C000000 		.4byte	.LFE189-.LFB189
 9026 3aab 01       		.uleb128 0x1
 9027 3aac 9C       		.byte	0x9c
 9028 3aad B53A0000 		.4byte	0x3ab5
 9029 3ab1 BE3A0000 		.4byte	0x3abe
 9030 3ab5 48       		.uleb128 0x48
 9031 3ab6 903A0000 		.4byte	0x3a90
 9032 3aba 02       		.uleb128 0x2
 9033 3abb 91       		.byte	0x91
 9034 3abc 74       		.sleb128 -12
 9035 3abd 00       		.byte	0
 9036 3abe 4F       		.uleb128 0x4f
 9037 3abf F70A0000 		.4byte	0xaf7
 9038 3ac3 30       		.byte	0x30
 9039 3ac4 00000000 		.4byte	.LFB197
 9040 3ac8 16000000 		.4byte	.LFE197-.LFB197
 9041 3acc 01       		.uleb128 0x1
 9042 3acd 9C       		.byte	0x9c
 9043 3ace D63A0000 		.4byte	0x3ad6
 9044 3ad2 E33A0000 		.4byte	0x3ae3
 9045 3ad6 50       		.uleb128 0x50
 9046 3ad7 C91E0000 		.4byte	.LASF550
 9047 3adb E33A0000 		.4byte	0x3ae3
 9048 3adf 02       		.uleb128 0x2
 9049 3ae0 91       		.byte	0x91
 9050 3ae1 74       		.sleb128 -12
 9051 3ae2 00       		.byte	0
 9052 3ae3 07       		.uleb128 0x7
 9053 3ae4 73350000 		.4byte	0x3573
 9054 3ae8 4F       		.uleb128 0x4f
 9055 3ae9 110B0000 		.4byte	0xb11
 9056 3aed 36       		.byte	0x36
 9057 3aee 00000000 		.4byte	.LFB198
 9058 3af2 16000000 		.4byte	.LFE198-.LFB198
 9059 3af6 01       		.uleb128 0x1
 9060 3af7 9C       		.byte	0x9c
ARM GAS  /tmp/ccyYK6L9.s 			page 160


 9061 3af8 003B0000 		.4byte	0x3b00
 9062 3afc 0D3B0000 		.4byte	0x3b0d
 9063 3b00 50       		.uleb128 0x50
 9064 3b01 C91E0000 		.4byte	.LASF550
 9065 3b05 E33A0000 		.4byte	0x3ae3
 9066 3b09 02       		.uleb128 0x2
 9067 3b0a 91       		.byte	0x91
 9068 3b0b 74       		.sleb128 -12
 9069 3b0c 00       		.byte	0
 9070 3b0d 51       		.uleb128 0x51
 9071 3b0e 710A0000 		.4byte	0xa71
 9072 3b12 06       		.byte	0x6
 9073 3b13 09       		.byte	0x9
 9074 3b14 02       		.byte	0x2
 9075 3b15 1D3B0000 		.4byte	0x3b1d
 9076 3b19 303B0000 		.4byte	0x3b30
 9077 3b1d 46       		.uleb128 0x46
 9078 3b1e C91E0000 		.4byte	.LASF550
 9079 3b22 323A0000 		.4byte	0x3a32
 9080 3b26 46       		.uleb128 0x46
 9081 3b27 81440000 		.4byte	.LASF551
 9082 3b2b 303B0000 		.4byte	0x3b30
 9083 3b2f 00       		.byte	0
 9084 3b30 07       		.uleb128 0x7
 9085 3b31 25000000 		.4byte	0x25
 9086 3b35 4E       		.uleb128 0x4e
 9087 3b36 0D3B0000 		.4byte	0x3b0d
 9088 3b3a D60B0000 		.4byte	.LASF557
 9089 3b3e 00000000 		.4byte	.LFB201
 9090 3b42 16000000 		.4byte	.LFE201-.LFB201
 9091 3b46 01       		.uleb128 0x1
 9092 3b47 9C       		.byte	0x9c
 9093 3b48 503B0000 		.4byte	0x3b50
 9094 3b4c 593B0000 		.4byte	0x3b59
 9095 3b50 48       		.uleb128 0x48
 9096 3b51 1D3B0000 		.4byte	0x3b1d
 9097 3b55 02       		.uleb128 0x2
 9098 3b56 91       		.byte	0x91
 9099 3b57 74       		.sleb128 -12
 9100 3b58 00       		.byte	0
 9101 3b59 4D       		.uleb128 0x4d
 9102 3b5a 2B0B0000 		.4byte	0xb2b
 9103 3b5e 3C       		.byte	0x3c
 9104 3b5f 02       		.byte	0x2
 9105 3b60 683B0000 		.4byte	0x3b68
 9106 3b64 723B0000 		.4byte	0x3b72
 9107 3b68 46       		.uleb128 0x46
 9108 3b69 C91E0000 		.4byte	.LASF550
 9109 3b6d E33A0000 		.4byte	0x3ae3
 9110 3b71 00       		.byte	0
 9111 3b72 4E       		.uleb128 0x4e
 9112 3b73 593B0000 		.4byte	0x3b59
 9113 3b77 99040000 		.4byte	.LASF558
 9114 3b7b 00000000 		.4byte	.LFB203
 9115 3b7f 20000000 		.4byte	.LFE203-.LFB203
 9116 3b83 01       		.uleb128 0x1
 9117 3b84 9C       		.byte	0x9c
ARM GAS  /tmp/ccyYK6L9.s 			page 161


 9118 3b85 8D3B0000 		.4byte	0x3b8d
 9119 3b89 963B0000 		.4byte	0x3b96
 9120 3b8d 48       		.uleb128 0x48
 9121 3b8e 683B0000 		.4byte	0x3b68
 9122 3b92 02       		.uleb128 0x2
 9123 3b93 91       		.byte	0x91
 9124 3b94 74       		.sleb128 -12
 9125 3b95 00       		.byte	0
 9126 3b96 52       		.uleb128 0x52
 9127 3b97 D41D0000 		.4byte	0x1dd4
 9128 3b9b 27       		.byte	0x27
 9129 3b9c 00000000 		.4byte	.LFB227
 9130 3ba0 0E000000 		.4byte	.LFE227-.LFB227
 9131 3ba4 01       		.uleb128 0x1
 9132 3ba5 9C       		.byte	0x9c
 9133 3ba6 AE3B0000 		.4byte	0x3bae
 9134 3baa BB3B0000 		.4byte	0x3bbb
 9135 3bae 50       		.uleb128 0x50
 9136 3baf C91E0000 		.4byte	.LASF550
 9137 3bb3 BB3B0000 		.4byte	0x3bbb
 9138 3bb7 02       		.uleb128 0x2
 9139 3bb8 91       		.byte	0x91
 9140 3bb9 7C       		.sleb128 -4
 9141 3bba 00       		.byte	0
 9142 3bbb 07       		.uleb128 0x7
 9143 3bbc E9360000 		.4byte	0x36e9
 9144 3bc0 4F       		.uleb128 0x4f
 9145 3bc1 8A1E0000 		.4byte	0x1e8a
 9146 3bc5 55       		.byte	0x55
 9147 3bc6 00000000 		.4byte	.LFB233
 9148 3bca 1C000000 		.4byte	.LFE233-.LFB233
 9149 3bce 01       		.uleb128 0x1
 9150 3bcf 9C       		.byte	0x9c
 9151 3bd0 D83B0000 		.4byte	0x3bd8
 9152 3bd4 013C0000 		.4byte	0x3c01
 9153 3bd8 50       		.uleb128 0x50
 9154 3bd9 C91E0000 		.4byte	.LASF550
 9155 3bdd 013C0000 		.4byte	0x3c01
 9156 3be1 02       		.uleb128 0x2
 9157 3be2 91       		.byte	0x91
 9158 3be3 74       		.sleb128 -12
 9159 3be4 53       		.uleb128 0x53
 9160 3be5 7F4A0000 		.4byte	.LASF107
 9161 3be9 08       		.byte	0x8
 9162 3bea 55       		.byte	0x55
 9163 3beb B4000000 		.4byte	0xb4
 9164 3bef 02       		.uleb128 0x2
 9165 3bf0 91       		.byte	0x91
 9166 3bf1 70       		.sleb128 -16
 9167 3bf2 53       		.uleb128 0x53
 9168 3bf3 DB040000 		.4byte	.LASF108
 9169 3bf7 08       		.byte	0x8
 9170 3bf8 55       		.byte	0x55
 9171 3bf9 2C000000 		.4byte	0x2c
 9172 3bfd 02       		.uleb128 0x2
 9173 3bfe 91       		.byte	0x91
 9174 3bff 6C       		.sleb128 -20
ARM GAS  /tmp/ccyYK6L9.s 			page 162


 9175 3c00 00       		.byte	0
 9176 3c01 07       		.uleb128 0x7
 9177 3c02 EF360000 		.4byte	0x36ef
 9178 3c06 06       		.uleb128 0x6
 9179 3c07 04       		.byte	0x4
 9180 3c08 90300000 		.4byte	0x3090
 9181 3c0c 54       		.uleb128 0x54
 9182 3c0d 99300000 		.4byte	0x3099
 9183 3c11 00000000 		.4byte	.LFB248
 9184 3c15 28000000 		.4byte	.LFE248-.LFB248
 9185 3c19 01       		.uleb128 0x1
 9186 3c1a 9C       		.byte	0x9c
 9187 3c1b 233C0000 		.4byte	0x3c23
 9188 3c1f 3E3C0000 		.4byte	0x3c3e
 9189 3c23 50       		.uleb128 0x50
 9190 3c24 C91E0000 		.4byte	.LASF550
 9191 3c28 3E3C0000 		.4byte	0x3c3e
 9192 3c2c 02       		.uleb128 0x2
 9193 3c2d 91       		.byte	0x91
 9194 3c2e 74       		.sleb128 -12
 9195 3c2f 53       		.uleb128 0x53
 9196 3c30 BC360000 		.4byte	.LASF559
 9197 3c34 09       		.byte	0x9
 9198 3c35 37       		.byte	0x37
 9199 3c36 433C0000 		.4byte	0x3c43
 9200 3c3a 02       		.uleb128 0x2
 9201 3c3b 91       		.byte	0x91
 9202 3c3c 70       		.sleb128 -16
 9203 3c3d 00       		.byte	0
 9204 3c3e 07       		.uleb128 0x7
 9205 3c3f 063C0000 		.4byte	0x3c06
 9206 3c43 07       		.uleb128 0x7
 9207 3c44 E2370000 		.4byte	0x37e2
 9208 3c48 38       		.uleb128 0x38
 9209 3c49 04       		.byte	0x4
 9210 3c4a D4300000 		.4byte	0x30d4
 9211 3c4e 55       		.uleb128 0x55
 9212 3c4f B8300000 		.4byte	0x30b8
 9213 3c53 00000000 		.4byte	.LFB253
 9214 3c57 30000000 		.4byte	.LFE253-.LFB253
 9215 3c5b 01       		.uleb128 0x1
 9216 3c5c 9C       		.byte	0x9c
 9217 3c5d 7E3C0000 		.4byte	0x3c7e
 9218 3c61 56       		.uleb128 0x56
 9219 3c62 70756200 		.ascii	"pub\000"
 9220 3c66 09       		.byte	0x9
 9221 3c67 66       		.byte	0x66
 9222 3c68 7E3C0000 		.4byte	0x3c7e
 9223 3c6c 02       		.uleb128 0x2
 9224 3c6d 91       		.byte	0x91
 9225 3c6e 74       		.sleb128 -12
 9226 3c6f 53       		.uleb128 0x53
 9227 3c70 E2160000 		.4byte	.LASF277
 9228 3c74 09       		.byte	0x9
 9229 3c75 66       		.byte	0x66
 9230 3c76 C3000000 		.4byte	0xc3
 9231 3c7a 02       		.uleb128 0x2
ARM GAS  /tmp/ccyYK6L9.s 			page 163


 9232 3c7b 91       		.byte	0x91
 9233 3c7c 70       		.sleb128 -16
 9234 3c7d 00       		.byte	0
 9235 3c7e 07       		.uleb128 0x7
 9236 3c7f 483C0000 		.4byte	0x3c48
 9237 3c83 54       		.uleb128 0x54
 9238 3c84 0E300000 		.4byte	0x300e
 9239 3c88 00000000 		.4byte	.LFB266
 9240 3c8c 28000000 		.4byte	.LFE266-.LFB266
 9241 3c90 01       		.uleb128 0x1
 9242 3c91 9C       		.byte	0x9c
 9243 3c92 9A3C0000 		.4byte	0x3c9a
 9244 3c96 B53C0000 		.4byte	0x3cb5
 9245 3c9a 50       		.uleb128 0x50
 9246 3c9b C91E0000 		.4byte	.LASF550
 9247 3c9f 1A380000 		.4byte	0x381a
 9248 3ca3 02       		.uleb128 0x2
 9249 3ca4 91       		.byte	0x91
 9250 3ca5 74       		.sleb128 -12
 9251 3ca6 53       		.uleb128 0x53
 9252 3ca7 BC360000 		.4byte	.LASF559
 9253 3cab 0A       		.byte	0xa
 9254 3cac 31       		.byte	0x31
 9255 3cad B53C0000 		.4byte	0x3cb5
 9256 3cb1 02       		.uleb128 0x2
 9257 3cb2 91       		.byte	0x91
 9258 3cb3 70       		.sleb128 -16
 9259 3cb4 00       		.byte	0
 9260 3cb5 07       		.uleb128 0x7
 9261 3cb6 E2370000 		.4byte	0x37e2
 9262 3cba 52       		.uleb128 0x52
 9263 3cbb 092B0000 		.4byte	0x2b09
 9264 3cbf 83       		.byte	0x83
 9265 3cc0 00000000 		.4byte	.LFB333
 9266 3cc4 0E000000 		.4byte	.LFE333-.LFB333
 9267 3cc8 01       		.uleb128 0x1
 9268 3cc9 9C       		.byte	0x9c
 9269 3cca D23C0000 		.4byte	0x3cd2
 9270 3cce DF3C0000 		.4byte	0x3cdf
 9271 3cd2 50       		.uleb128 0x50
 9272 3cd3 C91E0000 		.4byte	.LASF550
 9273 3cd7 DF3C0000 		.4byte	0x3cdf
 9274 3cdb 02       		.uleb128 0x2
 9275 3cdc 91       		.byte	0x91
 9276 3cdd 7C       		.sleb128 -4
 9277 3cde 00       		.byte	0
 9278 3cdf 07       		.uleb128 0x7
 9279 3ce0 ED370000 		.4byte	0x37ed
 9280 3ce4 4F       		.uleb128 0x4f
 9281 3ce5 452B0000 		.4byte	0x2b45
 9282 3ce9 91       		.byte	0x91
 9283 3cea 00000000 		.4byte	.LFB335
 9284 3cee 1A000000 		.4byte	.LFE335-.LFB335
 9285 3cf2 01       		.uleb128 0x1
 9286 3cf3 9C       		.byte	0x9c
 9287 3cf4 FC3C0000 		.4byte	0x3cfc
 9288 3cf8 093D0000 		.4byte	0x3d09
ARM GAS  /tmp/ccyYK6L9.s 			page 164


 9289 3cfc 50       		.uleb128 0x50
 9290 3cfd C91E0000 		.4byte	.LASF550
 9291 3d01 DF3C0000 		.4byte	0x3cdf
 9292 3d05 02       		.uleb128 0x2
 9293 3d06 91       		.byte	0x91
 9294 3d07 74       		.sleb128 -12
 9295 3d08 00       		.byte	0
 9296 3d09 57       		.uleb128 0x57
 9297 3d0a DF2E0000 		.4byte	0x2edf
 9298 3d0e 4A01     		.2byte	0x14a
 9299 3d10 00000000 		.4byte	.LFB358
 9300 3d14 1E000000 		.4byte	.LFE358-.LFB358
 9301 3d18 01       		.uleb128 0x1
 9302 3d19 9C       		.byte	0x9c
 9303 3d1a 223D0000 		.4byte	0x3d22
 9304 3d1e 4D3D0000 		.4byte	0x3d4d
 9305 3d22 50       		.uleb128 0x50
 9306 3d23 C91E0000 		.4byte	.LASF550
 9307 3d27 DD370000 		.4byte	0x37dd
 9308 3d2b 02       		.uleb128 0x2
 9309 3d2c 91       		.byte	0x91
 9310 3d2d 74       		.sleb128 -12
 9311 3d2e 58       		.uleb128 0x58
 9312 3d2f 57130000 		.4byte	.LASF560
 9313 3d33 0B       		.byte	0xb
 9314 3d34 4A01     		.2byte	0x14a
 9315 3d36 37350000 		.4byte	0x3537
 9316 3d3a 02       		.uleb128 0x2
 9317 3d3b 91       		.byte	0x91
 9318 3d3c 70       		.sleb128 -16
 9319 3d3d 58       		.uleb128 0x58
 9320 3d3e C6470000 		.4byte	.LASF561
 9321 3d42 0B       		.byte	0xb
 9322 3d43 4A01     		.2byte	0x14a
 9323 3d45 2C000000 		.4byte	0x2c
 9324 3d49 02       		.uleb128 0x2
 9325 3d4a 91       		.byte	0x91
 9326 3d4b 6C       		.sleb128 -20
 9327 3d4c 00       		.byte	0
 9328 3d4d 59       		.uleb128 0x59
 9329 3d4e DF2F0000 		.4byte	0x2fdf
 9330 3d52 5101     		.2byte	0x151
 9331 3d54 00000000 		.4byte	.LFB359
 9332 3d58 34000000 		.4byte	.LFE359-.LFB359
 9333 3d5c 01       		.uleb128 0x1
 9334 3d5d 9C       		.byte	0x9c
 9335 3d5e 813D0000 		.4byte	0x3d81
 9336 3d62 58       		.uleb128 0x58
 9337 3d63 BC360000 		.4byte	.LASF559
 9338 3d67 0B       		.byte	0xb
 9339 3d68 5101     		.2byte	0x151
 9340 3d6a 813D0000 		.4byte	0x3d81
 9341 3d6e 02       		.uleb128 0x2
 9342 3d6f 91       		.byte	0x91
 9343 3d70 74       		.sleb128 -12
 9344 3d71 58       		.uleb128 0x58
 9345 3d72 E2160000 		.4byte	.LASF277
ARM GAS  /tmp/ccyYK6L9.s 			page 165


 9346 3d76 0B       		.byte	0xb
 9347 3d77 5101     		.2byte	0x151
 9348 3d79 C3000000 		.4byte	0xc3
 9349 3d7d 02       		.uleb128 0x2
 9350 3d7e 91       		.byte	0x91
 9351 3d7f 70       		.sleb128 -16
 9352 3d80 00       		.byte	0
 9353 3d81 07       		.uleb128 0x7
 9354 3d82 87370000 		.4byte	0x3787
 9355 3d86 51       		.uleb128 0x51
 9356 3d87 640B0000 		.4byte	0xb64
 9357 3d8b 07       		.byte	0x7
 9358 3d8c 09       		.byte	0x9
 9359 3d8d 02       		.byte	0x2
 9360 3d8e 963D0000 		.4byte	0x3d96
 9361 3d92 A93D0000 		.4byte	0x3da9
 9362 3d96 46       		.uleb128 0x46
 9363 3d97 C91E0000 		.4byte	.LASF550
 9364 3d9b E33A0000 		.4byte	0x3ae3
 9365 3d9f 46       		.uleb128 0x46
 9366 3da0 81440000 		.4byte	.LASF551
 9367 3da4 A93D0000 		.4byte	0x3da9
 9368 3da8 00       		.byte	0
 9369 3da9 07       		.uleb128 0x7
 9370 3daa 25000000 		.4byte	0x25
 9371 3dae 4E       		.uleb128 0x4e
 9372 3daf 863D0000 		.4byte	0x3d86
 9373 3db3 0D180000 		.4byte	.LASF562
 9374 3db7 00000000 		.4byte	.LFB463
 9375 3dbb 20000000 		.4byte	.LFE463-.LFB463
 9376 3dbf 01       		.uleb128 0x1
 9377 3dc0 9C       		.byte	0x9c
 9378 3dc1 C93D0000 		.4byte	0x3dc9
 9379 3dc5 D23D0000 		.4byte	0x3dd2
 9380 3dc9 48       		.uleb128 0x48
 9381 3dca 963D0000 		.4byte	0x3d96
 9382 3dce 02       		.uleb128 0x2
 9383 3dcf 91       		.byte	0x91
 9384 3dd0 74       		.sleb128 -12
 9385 3dd1 00       		.byte	0
 9386 3dd2 54       		.uleb128 0x54
 9387 3dd3 C91B0000 		.4byte	0x1bc9
 9388 3dd7 00000000 		.4byte	.LFB681
 9389 3ddb 98000000 		.4byte	.LFE681-.LFB681
 9390 3ddf 01       		.uleb128 0x1
 9391 3de0 9C       		.byte	0x9c
 9392 3de1 E93D0000 		.4byte	0x3de9
 9393 3de5 383E0000 		.4byte	0x3e38
 9394 3de9 50       		.uleb128 0x50
 9395 3dea C91E0000 		.4byte	.LASF550
 9396 3dee CC360000 		.4byte	0x36cc
 9397 3df2 02       		.uleb128 0x2
 9398 3df3 91       		.byte	0x91
 9399 3df4 6C       		.sleb128 -20
 9400 3df5 53       		.uleb128 0x53
 9401 3df6 BC360000 		.4byte	.LASF559
 9402 3dfa 0C       		.byte	0xc
ARM GAS  /tmp/ccyYK6L9.s 			page 166


 9403 3dfb 0E       		.byte	0xe
 9404 3dfc 383E0000 		.4byte	0x3e38
 9405 3e00 02       		.uleb128 0x2
 9406 3e01 91       		.byte	0x91
 9407 3e02 68       		.sleb128 -24
 9408 3e03 53       		.uleb128 0x53
 9409 3e04 26420000 		.4byte	.LASF563
 9410 3e08 0C       		.byte	0xc
 9411 3e09 0E       		.byte	0xe
 9412 3e0a FA340000 		.4byte	0x34fa
 9413 3e0e 02       		.uleb128 0x2
 9414 3e0f 91       		.byte	0x91
 9415 3e10 64       		.sleb128 -28
 9416 3e11 4A       		.uleb128 0x4a
 9417 3e12 0A000000 		.4byte	.LBB14
 9418 3e16 80000000 		.4byte	.LBE14-.LBB14
 9419 3e1a 5A       		.uleb128 0x5a
 9420 3e1b 0F350000 		.4byte	.LASF475
 9421 3e1f 0C       		.byte	0xc
 9422 3e20 10       		.byte	0x10
 9423 3e21 2A300000 		.4byte	0x302a
 9424 3e25 02       		.uleb128 0x2
 9425 3e26 91       		.byte	0x91
 9426 3e27 70       		.sleb128 -16
 9427 3e28 5A       		.uleb128 0x5a
 9428 3e29 7A100000 		.4byte	.LASF564
 9429 3e2d 0C       		.byte	0xc
 9430 3e2e 13       		.byte	0x13
 9431 3e2f CC350000 		.4byte	0x35cc
 9432 3e33 02       		.uleb128 0x2
 9433 3e34 91       		.byte	0x91
 9434 3e35 74       		.sleb128 -12
 9435 3e36 00       		.byte	0
 9436 3e37 00       		.byte	0
 9437 3e38 07       		.uleb128 0x7
 9438 3e39 E2370000 		.4byte	0x37e2
 9439 3e3d 54       		.uleb128 0x54
 9440 3e3e F11B0000 		.4byte	0x1bf1
 9441 3e42 98000000 		.4byte	.LFB682
 9442 3e46 48010000 		.4byte	.LFE682-.LFB682
 9443 3e4a 01       		.uleb128 0x1
 9444 3e4b 9C       		.byte	0x9c
 9445 3e4c 543E0000 		.4byte	0x3e54
 9446 3e50 CD3E0000 		.4byte	0x3ecd
 9447 3e54 50       		.uleb128 0x50
 9448 3e55 C91E0000 		.4byte	.LASF550
 9449 3e59 CC360000 		.4byte	0x36cc
 9450 3e5d 02       		.uleb128 0x2
 9451 3e5e 91       		.byte	0x91
 9452 3e5f 5C       		.sleb128 -36
 9453 3e60 53       		.uleb128 0x53
 9454 3e61 BC360000 		.4byte	.LASF559
 9455 3e65 0C       		.byte	0xc
 9456 3e66 23       		.byte	0x23
 9457 3e67 CD3E0000 		.4byte	0x3ecd
 9458 3e6b 02       		.uleb128 0x2
 9459 3e6c 91       		.byte	0x91
ARM GAS  /tmp/ccyYK6L9.s 			page 167


 9460 3e6d 58       		.sleb128 -40
 9461 3e6e 53       		.uleb128 0x53
 9462 3e6f 542A0000 		.4byte	.LASF565
 9463 3e73 0C       		.byte	0xc
 9464 3e74 23       		.byte	0x23
 9465 3e75 2C000000 		.4byte	0x2c
 9466 3e79 02       		.uleb128 0x2
 9467 3e7a 91       		.byte	0x91
 9468 3e7b 54       		.sleb128 -44
 9469 3e7c 53       		.uleb128 0x53
 9470 3e7d 26420000 		.4byte	.LASF563
 9471 3e81 0C       		.byte	0xc
 9472 3e82 24       		.byte	0x24
 9473 3e83 F4340000 		.4byte	0x34f4
 9474 3e87 02       		.uleb128 0x2
 9475 3e88 91       		.byte	0x91
 9476 3e89 50       		.sleb128 -48
 9477 3e8a 4A       		.uleb128 0x4a
 9478 3e8b A4000000 		.4byte	.LBB15
 9479 3e8f 30010000 		.4byte	.LBE15-.LBB15
 9480 3e93 5A       		.uleb128 0x5a
 9481 3e94 0F350000 		.4byte	.LASF475
 9482 3e98 0C       		.byte	0xc
 9483 3e99 26       		.byte	0x26
 9484 3e9a 2A300000 		.4byte	0x302a
 9485 3e9e 02       		.uleb128 0x2
 9486 3e9f 91       		.byte	0x91
 9487 3ea0 60       		.sleb128 -32
 9488 3ea1 5A       		.uleb128 0x5a
 9489 3ea2 5F080000 		.4byte	.LASF566
 9490 3ea6 0C       		.byte	0xc
 9491 3ea7 29       		.byte	0x29
 9492 3ea8 3D360000 		.4byte	0x363d
 9493 3eac 02       		.uleb128 0x2
 9494 3ead 91       		.byte	0x91
 9495 3eae 6C       		.sleb128 -20
 9496 3eaf 5A       		.uleb128 0x5a
 9497 3eb0 6D460000 		.4byte	.LASF567
 9498 3eb4 0C       		.byte	0xc
 9499 3eb5 31       		.byte	0x31
 9500 3eb6 37350000 		.4byte	0x3537
 9501 3eba 02       		.uleb128 0x2
 9502 3ebb 91       		.byte	0x91
 9503 3ebc 64       		.sleb128 -28
 9504 3ebd 5A       		.uleb128 0x5a
 9505 3ebe 7E210000 		.4byte	.LASF568
 9506 3ec2 0C       		.byte	0xc
 9507 3ec3 32       		.byte	0x32
 9508 3ec4 43350000 		.4byte	0x3543
 9509 3ec8 02       		.uleb128 0x2
 9510 3ec9 91       		.byte	0x91
 9511 3eca 68       		.sleb128 -24
 9512 3ecb 00       		.byte	0
 9513 3ecc 00       		.byte	0
 9514 3ecd 07       		.uleb128 0x7
 9515 3ece E2370000 		.4byte	0x37e2
 9516 3ed2 54       		.uleb128 0x54
ARM GAS  /tmp/ccyYK6L9.s 			page 168


 9517 3ed3 1E1C0000 		.4byte	0x1c1e
 9518 3ed7 E0010000 		.4byte	.LFB683
 9519 3edb 1E000000 		.4byte	.LFE683-.LFB683
 9520 3edf 01       		.uleb128 0x1
 9521 3ee0 9C       		.byte	0x9c
 9522 3ee1 E93E0000 		.4byte	0x3ee9
 9523 3ee5 123F0000 		.4byte	0x3f12
 9524 3ee9 50       		.uleb128 0x50
 9525 3eea C91E0000 		.4byte	.LASF550
 9526 3eee CC360000 		.4byte	0x36cc
 9527 3ef2 02       		.uleb128 0x2
 9528 3ef3 91       		.byte	0x91
 9529 3ef4 74       		.sleb128 -12
 9530 3ef5 53       		.uleb128 0x53
 9531 3ef6 BC360000 		.4byte	.LASF559
 9532 3efa 0C       		.byte	0xc
 9533 3efb 4D       		.byte	0x4d
 9534 3efc 123F0000 		.4byte	0x3f12
 9535 3f00 02       		.uleb128 0x2
 9536 3f01 91       		.byte	0x91
 9537 3f02 70       		.sleb128 -16
 9538 3f03 53       		.uleb128 0x53
 9539 3f04 26420000 		.4byte	.LASF563
 9540 3f08 0C       		.byte	0xc
 9541 3f09 4D       		.byte	0x4d
 9542 3f0a FA340000 		.4byte	0x34fa
 9543 3f0e 02       		.uleb128 0x2
 9544 3f0f 91       		.byte	0x91
 9545 3f10 6C       		.sleb128 -20
 9546 3f11 00       		.byte	0
 9547 3f12 07       		.uleb128 0x7
 9548 3f13 E2370000 		.4byte	0x37e2
 9549 3f17 54       		.uleb128 0x54
 9550 3f18 461C0000 		.4byte	0x1c46
 9551 3f1c 00020000 		.4byte	.LFB684
 9552 3f20 22000000 		.4byte	.LFE684-.LFB684
 9553 3f24 01       		.uleb128 0x1
 9554 3f25 9C       		.byte	0x9c
 9555 3f26 2E3F0000 		.4byte	0x3f2e
 9556 3f2a 653F0000 		.4byte	0x3f65
 9557 3f2e 50       		.uleb128 0x50
 9558 3f2f C91E0000 		.4byte	.LASF550
 9559 3f33 CC360000 		.4byte	0x36cc
 9560 3f37 02       		.uleb128 0x2
 9561 3f38 91       		.byte	0x91
 9562 3f39 74       		.sleb128 -12
 9563 3f3a 53       		.uleb128 0x53
 9564 3f3b BC360000 		.4byte	.LASF559
 9565 3f3f 0C       		.byte	0xc
 9566 3f40 53       		.byte	0x53
 9567 3f41 653F0000 		.4byte	0x3f65
 9568 3f45 02       		.uleb128 0x2
 9569 3f46 91       		.byte	0x91
 9570 3f47 70       		.sleb128 -16
 9571 3f48 53       		.uleb128 0x53
 9572 3f49 542A0000 		.4byte	.LASF565
 9573 3f4d 0C       		.byte	0xc
ARM GAS  /tmp/ccyYK6L9.s 			page 169


 9574 3f4e 53       		.byte	0x53
 9575 3f4f 2C000000 		.4byte	0x2c
 9576 3f53 02       		.uleb128 0x2
 9577 3f54 91       		.byte	0x91
 9578 3f55 6C       		.sleb128 -20
 9579 3f56 53       		.uleb128 0x53
 9580 3f57 26420000 		.4byte	.LASF563
 9581 3f5b 0C       		.byte	0xc
 9582 3f5c 54       		.byte	0x54
 9583 3f5d F4340000 		.4byte	0x34f4
 9584 3f61 02       		.uleb128 0x2
 9585 3f62 91       		.byte	0x91
 9586 3f63 68       		.sleb128 -24
 9587 3f64 00       		.byte	0
 9588 3f65 07       		.uleb128 0x7
 9589 3f66 E2370000 		.4byte	0x37e2
 9590 3f6a 54       		.uleb128 0x54
 9591 3f6b 731C0000 		.4byte	0x1c73
 9592 3f6f 24020000 		.4byte	.LFB685
 9593 3f73 64000000 		.4byte	.LFE685-.LFB685
 9594 3f77 01       		.uleb128 0x1
 9595 3f78 9C       		.byte	0x9c
 9596 3f79 813F0000 		.4byte	0x3f81
 9597 3f7d C63F0000 		.4byte	0x3fc6
 9598 3f81 50       		.uleb128 0x50
 9599 3f82 C91E0000 		.4byte	.LASF550
 9600 3f86 CC360000 		.4byte	0x36cc
 9601 3f8a 02       		.uleb128 0x2
 9602 3f8b 91       		.byte	0x91
 9603 3f8c 74       		.sleb128 -12
 9604 3f8d 56       		.uleb128 0x56
 9605 3f8e 70756200 		.ascii	"pub\000"
 9606 3f92 0C       		.byte	0xc
 9607 3f93 5A       		.byte	0x5a
 9608 3f94 C63F0000 		.4byte	0x3fc6
 9609 3f98 02       		.uleb128 0x2
 9610 3f99 91       		.byte	0x91
 9611 3f9a 70       		.sleb128 -16
 9612 3f9b 53       		.uleb128 0x53
 9613 3f9c E2160000 		.4byte	.LASF277
 9614 3fa0 0C       		.byte	0xc
 9615 3fa1 5A       		.byte	0x5a
 9616 3fa2 C3000000 		.4byte	0xc3
 9617 3fa6 02       		.uleb128 0x2
 9618 3fa7 91       		.byte	0x91
 9619 3fa8 6C       		.sleb128 -20
 9620 3fa9 53       		.uleb128 0x53
 9621 3faa B4490000 		.4byte	.LASF406
 9622 3fae 0C       		.byte	0xc
 9623 3faf 5B       		.byte	0x5b
 9624 3fb0 CB3F0000 		.4byte	0x3fcb
 9625 3fb4 02       		.uleb128 0x2
 9626 3fb5 91       		.byte	0x91
 9627 3fb6 68       		.sleb128 -24
 9628 3fb7 53       		.uleb128 0x53
 9629 3fb8 E6250000 		.4byte	.LASF569
 9630 3fbc 0C       		.byte	0xc
ARM GAS  /tmp/ccyYK6L9.s 			page 170


 9631 3fbd 5B       		.byte	0x5b
 9632 3fbe 2C000000 		.4byte	0x2c
 9633 3fc2 02       		.uleb128 0x2
 9634 3fc3 91       		.byte	0x91
 9635 3fc4 00       		.sleb128 0
 9636 3fc5 00       		.byte	0
 9637 3fc6 07       		.uleb128 0x7
 9638 3fc7 F9370000 		.4byte	0x37f9
 9639 3fcb 07       		.uleb128 0x7
 9640 3fcc 31350000 		.4byte	0x3531
 9641 3fd0 54       		.uleb128 0x54
 9642 3fd1 A51C0000 		.4byte	0x1ca5
 9643 3fd5 88020000 		.4byte	.LFB686
 9644 3fd9 68000000 		.4byte	.LFE686-.LFB686
 9645 3fdd 01       		.uleb128 0x1
 9646 3fde 9C       		.byte	0x9c
 9647 3fdf E73F0000 		.4byte	0x3fe7
 9648 3fe3 3A400000 		.4byte	0x403a
 9649 3fe7 50       		.uleb128 0x50
 9650 3fe8 C91E0000 		.4byte	.LASF550
 9651 3fec CC360000 		.4byte	0x36cc
 9652 3ff0 02       		.uleb128 0x2
 9653 3ff1 91       		.byte	0x91
 9654 3ff2 74       		.sleb128 -12
 9655 3ff3 56       		.uleb128 0x56
 9656 3ff4 73756200 		.ascii	"sub\000"
 9657 3ff8 0C       		.byte	0xc
 9658 3ff9 69       		.byte	0x69
 9659 3ffa 3A400000 		.4byte	0x403a
 9660 3ffe 02       		.uleb128 0x2
 9661 3fff 91       		.byte	0x91
 9662 4000 70       		.sleb128 -16
 9663 4001 53       		.uleb128 0x53
 9664 4002 E2160000 		.4byte	.LASF277
 9665 4006 0C       		.byte	0xc
 9666 4007 69       		.byte	0x69
 9667 4008 C3000000 		.4byte	0xc3
 9668 400c 02       		.uleb128 0x2
 9669 400d 91       		.byte	0x91
 9670 400e 6C       		.sleb128 -20
 9671 400f 53       		.uleb128 0x53
 9672 4010 210F0000 		.4byte	.LASF570
 9673 4014 0C       		.byte	0xc
 9674 4015 6A       		.byte	0x6a
 9675 4016 37350000 		.4byte	0x3537
 9676 401a 02       		.uleb128 0x2
 9677 401b 91       		.byte	0x91
 9678 401c 68       		.sleb128 -24
 9679 401d 53       		.uleb128 0x53
 9680 401e D9030000 		.4byte	.LASF571
 9681 4022 0C       		.byte	0xc
 9682 4023 6A       		.byte	0x6a
 9683 4024 2C000000 		.4byte	0x2c
 9684 4028 02       		.uleb128 0x2
 9685 4029 91       		.byte	0x91
 9686 402a 00       		.sleb128 0
 9687 402b 53       		.uleb128 0x53
ARM GAS  /tmp/ccyYK6L9.s 			page 171


 9688 402c E6250000 		.4byte	.LASF569
 9689 4030 0C       		.byte	0xc
 9690 4031 6B       		.byte	0x6b
 9691 4032 2C000000 		.4byte	0x2c
 9692 4036 02       		.uleb128 0x2
 9693 4037 91       		.byte	0x91
 9694 4038 04       		.sleb128 4
 9695 4039 00       		.byte	0
 9696 403a 07       		.uleb128 0x7
 9697 403b 05380000 		.4byte	0x3805
 9698 403f 54       		.uleb128 0x54
 9699 4040 9D1B0000 		.4byte	0x1b9d
 9700 4044 F0020000 		.4byte	.LFB687
 9701 4048 1A000000 		.4byte	.LFE687-.LFB687
 9702 404c 01       		.uleb128 0x1
 9703 404d 9C       		.byte	0x9c
 9704 404e 56400000 		.4byte	0x4056
 9705 4052 7F400000 		.4byte	0x407f
 9706 4056 50       		.uleb128 0x50
 9707 4057 C91E0000 		.4byte	.LASF550
 9708 405b CC360000 		.4byte	0x36cc
 9709 405f 02       		.uleb128 0x2
 9710 4060 91       		.byte	0x91
 9711 4061 74       		.sleb128 -12
 9712 4062 53       		.uleb128 0x53
 9713 4063 BC360000 		.4byte	.LASF559
 9714 4067 0C       		.byte	0xc
 9715 4068 7A       		.byte	0x7a
 9716 4069 7F400000 		.4byte	0x407f
 9717 406d 02       		.uleb128 0x2
 9718 406e 91       		.byte	0x91
 9719 406f 70       		.sleb128 -16
 9720 4070 53       		.uleb128 0x53
 9721 4071 26420000 		.4byte	.LASF563
 9722 4075 0C       		.byte	0xc
 9723 4076 7A       		.byte	0x7a
 9724 4077 F4340000 		.4byte	0x34f4
 9725 407b 02       		.uleb128 0x2
 9726 407c 91       		.byte	0x91
 9727 407d 6C       		.sleb128 -20
 9728 407e 00       		.byte	0
 9729 407f 07       		.uleb128 0x7
 9730 4080 87370000 		.4byte	0x3787
 9731 4084 51       		.uleb128 0x51
 9732 4085 41100000 		.4byte	0x1041
 9733 4089 0D       		.byte	0xd
 9734 408a 0F       		.byte	0xf
 9735 408b 02       		.byte	0x2
 9736 408c 94400000 		.4byte	0x4094
 9737 4090 A7400000 		.4byte	0x40a7
 9738 4094 46       		.uleb128 0x46
 9739 4095 C91E0000 		.4byte	.LASF550
 9740 4099 A7400000 		.4byte	0x40a7
 9741 409d 46       		.uleb128 0x46
 9742 409e 81440000 		.4byte	.LASF551
 9743 40a2 AC400000 		.4byte	0x40ac
 9744 40a6 00       		.byte	0
ARM GAS  /tmp/ccyYK6L9.s 			page 172


 9745 40a7 07       		.uleb128 0x7
 9746 40a8 C0350000 		.4byte	0x35c0
 9747 40ac 07       		.uleb128 0x7
 9748 40ad 25000000 		.4byte	0x25
 9749 40b1 4E       		.uleb128 0x4e
 9750 40b2 84400000 		.4byte	0x4084
 9751 40b6 B50D0000 		.4byte	.LASF572
 9752 40ba 00000000 		.4byte	.LFB690
 9753 40be 16000000 		.4byte	.LFE690-.LFB690
 9754 40c2 01       		.uleb128 0x1
 9755 40c3 9C       		.byte	0x9c
 9756 40c4 CC400000 		.4byte	0x40cc
 9757 40c8 D5400000 		.4byte	0x40d5
 9758 40cc 48       		.uleb128 0x48
 9759 40cd 94400000 		.4byte	0x4094
 9760 40d1 02       		.uleb128 0x2
 9761 40d2 91       		.byte	0x91
 9762 40d3 74       		.sleb128 -12
 9763 40d4 00       		.byte	0
 9764 40d5 51       		.uleb128 0x51
 9765 40d6 75150000 		.4byte	0x1575
 9766 40da 0D       		.byte	0xd
 9767 40db 0F       		.byte	0xf
 9768 40dc 02       		.byte	0x2
 9769 40dd E5400000 		.4byte	0x40e5
 9770 40e1 F8400000 		.4byte	0x40f8
 9771 40e5 46       		.uleb128 0x46
 9772 40e6 C91E0000 		.4byte	.LASF550
 9773 40ea F8400000 		.4byte	0x40f8
 9774 40ee 46       		.uleb128 0x46
 9775 40ef 81440000 		.4byte	.LASF551
 9776 40f3 FD400000 		.4byte	0x40fd
 9777 40f7 00       		.byte	0
 9778 40f8 07       		.uleb128 0x7
 9779 40f9 31360000 		.4byte	0x3631
 9780 40fd 07       		.uleb128 0x7
 9781 40fe 25000000 		.4byte	0x25
 9782 4102 4E       		.uleb128 0x4e
 9783 4103 D5400000 		.4byte	0x40d5
 9784 4107 FF350000 		.4byte	.LASF573
 9785 410b 00000000 		.4byte	.LFB693
 9786 410f 16000000 		.4byte	.LFE693-.LFB693
 9787 4113 01       		.uleb128 0x1
 9788 4114 9C       		.byte	0x9c
 9789 4115 1D410000 		.4byte	0x411d
 9790 4119 26410000 		.4byte	0x4126
 9791 411d 48       		.uleb128 0x48
 9792 411e E5400000 		.4byte	0x40e5
 9793 4122 02       		.uleb128 0x2
 9794 4123 91       		.byte	0x91
 9795 4124 74       		.sleb128 -12
 9796 4125 00       		.byte	0
 9797 4126 45       		.uleb128 0x45
 9798 4127 411D0000 		.4byte	0x1d41
 9799 412b 00       		.byte	0
 9800 412c 34410000 		.4byte	0x4134
 9801 4130 49410000 		.4byte	0x4149
ARM GAS  /tmp/ccyYK6L9.s 			page 173


 9802 4134 46       		.uleb128 0x46
 9803 4135 C91E0000 		.4byte	.LASF550
 9804 4139 CC360000 		.4byte	0x36cc
 9805 413d 5B       		.uleb128 0x5b
 9806 413e E2160000 		.4byte	.LASF277
 9807 4142 0C       		.byte	0xc
 9808 4143 83       		.byte	0x83
 9809 4144 C3000000 		.4byte	0xc3
 9810 4148 00       		.byte	0
 9811 4149 4E       		.uleb128 0x4e
 9812 414a 26410000 		.4byte	0x4126
 9813 414e 67060000 		.4byte	.LASF574
 9814 4152 0C030000 		.4byte	.LFB695
 9815 4156 7C000000 		.4byte	.LFE695-.LFB695
 9816 415a 01       		.uleb128 0x1
 9817 415b 9C       		.byte	0x9c
 9818 415c 64410000 		.4byte	0x4164
 9819 4160 75410000 		.4byte	0x4175
 9820 4164 48       		.uleb128 0x48
 9821 4165 34410000 		.4byte	0x4134
 9822 4169 02       		.uleb128 0x2
 9823 416a 91       		.byte	0x91
 9824 416b 74       		.sleb128 -12
 9825 416c 48       		.uleb128 0x48
 9826 416d 3D410000 		.4byte	0x413d
 9827 4171 02       		.uleb128 0x2
 9828 4172 91       		.byte	0x91
 9829 4173 70       		.sleb128 -16
 9830 4174 00       		.byte	0
 9831 4175 45       		.uleb128 0x45
 9832 4176 601D0000 		.4byte	0x1d60
 9833 417a 00       		.byte	0
 9834 417b 83410000 		.4byte	0x4183
 9835 417f 96410000 		.4byte	0x4196
 9836 4183 46       		.uleb128 0x46
 9837 4184 C91E0000 		.4byte	.LASF550
 9838 4188 CC360000 		.4byte	0x36cc
 9839 418c 46       		.uleb128 0x46
 9840 418d 81440000 		.4byte	.LASF551
 9841 4191 96410000 		.4byte	0x4196
 9842 4195 00       		.byte	0
 9843 4196 07       		.uleb128 0x7
 9844 4197 25000000 		.4byte	0x25
 9845 419b 4E       		.uleb128 0x4e
 9846 419c 75410000 		.4byte	0x4175
 9847 41a0 9C2A0000 		.4byte	.LASF575
 9848 41a4 88030000 		.4byte	.LFB698
 9849 41a8 54000000 		.4byte	.LFE698-.LFB698
 9850 41ac 01       		.uleb128 0x1
 9851 41ad 9C       		.byte	0x9c
 9852 41ae B6410000 		.4byte	0x41b6
 9853 41b2 BF410000 		.4byte	0x41bf
 9854 41b6 48       		.uleb128 0x48
 9855 41b7 83410000 		.4byte	0x4183
 9856 41bb 02       		.uleb128 0x2
 9857 41bc 91       		.byte	0x91
 9858 41bd 74       		.sleb128 -12
ARM GAS  /tmp/ccyYK6L9.s 			page 174


 9859 41be 00       		.byte	0
 9860 41bf 4E       		.uleb128 0x4e
 9861 41c0 75410000 		.4byte	0x4175
 9862 41c4 951E0000 		.4byte	.LASF576
 9863 41c8 DC030000 		.4byte	.LFB700
 9864 41cc 1C000000 		.4byte	.LFE700-.LFB700
 9865 41d0 01       		.uleb128 0x1
 9866 41d1 9C       		.byte	0x9c
 9867 41d2 DA410000 		.4byte	0x41da
 9868 41d6 E3410000 		.4byte	0x41e3
 9869 41da 48       		.uleb128 0x48
 9870 41db 83410000 		.4byte	0x4183
 9871 41df 02       		.uleb128 0x2
 9872 41e0 91       		.byte	0x91
 9873 41e1 74       		.sleb128 -12
 9874 41e2 00       		.byte	0
 9875 41e3 5C       		.uleb128 0x5c
 9876 41e4 61110000 		.4byte	0x1161
 9877 41e8 00000000 		.4byte	.LFB720
 9878 41ec 18000000 		.4byte	.LFE720-.LFB720
 9879 41f0 01       		.uleb128 0x1
 9880 41f1 9C       		.byte	0x9c
 9881 41f2 FA410000 		.4byte	0x41fa
 9882 41f6 07420000 		.4byte	0x4207
 9883 41fa 50       		.uleb128 0x50
 9884 41fb C91E0000 		.4byte	.LASF550
 9885 41ff 07420000 		.4byte	0x4207
 9886 4203 02       		.uleb128 0x2
 9887 4204 91       		.byte	0x91
 9888 4205 7C       		.sleb128 -4
 9889 4206 00       		.byte	0
 9890 4207 07       		.uleb128 0x7
 9891 4208 2B360000 		.4byte	0x362b
 9892 420c 45       		.uleb128 0x45
 9893 420d 48300000 		.4byte	0x3048
 9894 4211 02       		.byte	0x2
 9895 4212 1A420000 		.4byte	0x421a
 9896 4216 2F420000 		.4byte	0x422f
 9897 421a 46       		.uleb128 0x46
 9898 421b C91E0000 		.4byte	.LASF550
 9899 421f 2F420000 		.4byte	0x422f
 9900 4223 5B       		.uleb128 0x5b
 9901 4224 0F350000 		.4byte	.LASF475
 9902 4228 0E       		.byte	0xe
 9903 4229 14       		.byte	0x14
 9904 422a 34420000 		.4byte	0x4234
 9905 422e 00       		.byte	0
 9906 422f 07       		.uleb128 0x7
 9907 4230 53380000 		.4byte	0x3853
 9908 4234 07       		.uleb128 0x7
 9909 4235 4D380000 		.4byte	0x384d
 9910 4239 4E       		.uleb128 0x4e
 9911 423a 0C420000 		.4byte	0x420c
 9912 423e CE2B0000 		.4byte	.LASF577
 9913 4242 00000000 		.4byte	.LFB724
 9914 4246 28000000 		.4byte	.LFE724-.LFB724
 9915 424a 01       		.uleb128 0x1
ARM GAS  /tmp/ccyYK6L9.s 			page 175


 9916 424b 9C       		.byte	0x9c
 9917 424c 54420000 		.4byte	0x4254
 9918 4250 65420000 		.4byte	0x4265
 9919 4254 48       		.uleb128 0x48
 9920 4255 1A420000 		.4byte	0x421a
 9921 4259 02       		.uleb128 0x2
 9922 425a 91       		.byte	0x91
 9923 425b 74       		.sleb128 -12
 9924 425c 48       		.uleb128 0x48
 9925 425d 23420000 		.4byte	0x4223
 9926 4261 02       		.uleb128 0x2
 9927 4262 91       		.byte	0x91
 9928 4263 70       		.sleb128 -16
 9929 4264 00       		.byte	0
 9930 4265 45       		.uleb128 0x45
 9931 4266 67300000 		.4byte	0x3067
 9932 426a 02       		.byte	0x2
 9933 426b 73420000 		.4byte	0x4273
 9934 426f 86420000 		.4byte	0x4286
 9935 4273 46       		.uleb128 0x46
 9936 4274 C91E0000 		.4byte	.LASF550
 9937 4278 2F420000 		.4byte	0x422f
 9938 427c 46       		.uleb128 0x46
 9939 427d 81440000 		.4byte	.LASF551
 9940 4281 86420000 		.4byte	0x4286
 9941 4285 00       		.byte	0
 9942 4286 07       		.uleb128 0x7
 9943 4287 25000000 		.4byte	0x25
 9944 428b 4E       		.uleb128 0x4e
 9945 428c 65420000 		.4byte	0x4265
 9946 4290 B2250000 		.4byte	.LASF578
 9947 4294 00000000 		.4byte	.LFB727
 9948 4298 20000000 		.4byte	.LFE727-.LFB727
 9949 429c 01       		.uleb128 0x1
 9950 429d 9C       		.byte	0x9c
 9951 429e A6420000 		.4byte	0x42a6
 9952 42a2 AF420000 		.4byte	0x42af
 9953 42a6 48       		.uleb128 0x48
 9954 42a7 73420000 		.4byte	0x4273
 9955 42ab 02       		.uleb128 0x2
 9956 42ac 91       		.byte	0x91
 9957 42ad 74       		.sleb128 -12
 9958 42ae 00       		.byte	0
 9959 42af 06       		.uleb128 0x6
 9960 42b0 04       		.byte	0x4
 9961 42b1 B5420000 		.4byte	0x42b5
 9962 42b5 41       		.uleb128 0x41
 9963 42b6 22310000 		.4byte	0x3122
 9964 42ba C9420000 		.4byte	0x42c9
 9965 42be 0B       		.uleb128 0xb
 9966 42bf 483C0000 		.4byte	0x3c48
 9967 42c3 0B       		.uleb128 0xb
 9968 42c4 C3000000 		.4byte	0xc3
 9969 42c8 00       		.byte	0
 9970 42c9 54       		.uleb128 0x54
 9971 42ca 5E100000 		.4byte	0x105e
 9972 42ce 00000000 		.4byte	.LFB729
ARM GAS  /tmp/ccyYK6L9.s 			page 176


 9973 42d2 1E000000 		.4byte	.LFE729-.LFB729
 9974 42d6 01       		.uleb128 0x1
 9975 42d7 9C       		.byte	0x9c
 9976 42d8 F2420000 		.4byte	0x42f2
 9977 42dc 1D430000 		.4byte	0x431d
 9978 42e0 22       		.uleb128 0x22
 9979 42e1 440E0000 		.4byte	.LASF149
 9980 42e5 AF420000 		.4byte	0x42af
 9981 42e9 22       		.uleb128 0x22
 9982 42ea 29310000 		.4byte	.LASF207
 9983 42ee BC000000 		.4byte	0xbc
 9984 42f2 50       		.uleb128 0x50
 9985 42f3 C91E0000 		.4byte	.LASF550
 9986 42f7 1D430000 		.4byte	0x431d
 9987 42fb 02       		.uleb128 0x2
 9988 42fc 91       		.byte	0x91
 9989 42fd 74       		.sleb128 -12
 9990 42fe 58       		.uleb128 0x58
 9991 42ff CE060000 		.4byte	.LASF579
 9992 4303 0D       		.byte	0xd
 9993 4304 DB01     		.2byte	0x1db
 9994 4306 AF420000 		.4byte	0x42af
 9995 430a 02       		.uleb128 0x2
 9996 430b 91       		.byte	0x91
 9997 430c 70       		.sleb128 -16
 9998 430d 58       		.uleb128 0x58
 9999 430e 754A0000 		.4byte	.LASF580
 10000 4312 0D       		.byte	0xd
 10001 4313 DB01     		.2byte	0x1db
 10002 4315 C3000000 		.4byte	0xc3
 10003 4319 02       		.uleb128 0x2
 10004 431a 91       		.byte	0x91
 10005 431b 6C       		.sleb128 -20
 10006 431c 00       		.byte	0
 10007 431d 07       		.uleb128 0x7
 10008 431e BA350000 		.4byte	0x35ba
 10009 4322 54       		.uleb128 0x54
 10010 4323 870E0000 		.4byte	0xe87
 10011 4327 00000000 		.4byte	.LFB730
 10012 432b 1E000000 		.4byte	.LFE730-.LFB730
 10013 432f 01       		.uleb128 0x1
 10014 4330 9C       		.byte	0x9c
 10015 4331 39430000 		.4byte	0x4339
 10016 4335 55430000 		.4byte	0x4355
 10017 4339 50       		.uleb128 0x50
 10018 433a C91E0000 		.4byte	.LASF550
 10019 433e A7400000 		.4byte	0x40a7
 10020 4342 02       		.uleb128 0x2
 10021 4343 91       		.byte	0x91
 10022 4344 74       		.sleb128 -12
 10023 4345 58       		.uleb128 0x58
 10024 4346 30170000 		.4byte	.LASF183
 10025 434a 0D       		.byte	0xd
 10026 434b 7602     		.2byte	0x276
 10027 434d 55430000 		.4byte	0x4355
 10028 4351 02       		.uleb128 0x2
 10029 4352 91       		.byte	0x91
ARM GAS  /tmp/ccyYK6L9.s 			page 177


 10030 4353 70       		.sleb128 -16
 10031 4354 00       		.byte	0
 10032 4355 07       		.uleb128 0x7
 10033 4356 C6350000 		.4byte	0x35c6
 10034 435a 06       		.uleb128 0x6
 10035 435b 04       		.byte	0x4
 10036 435c 60430000 		.4byte	0x4360
 10037 4360 41       		.uleb128 0x41
 10038 4361 22310000 		.4byte	0x3122
 10039 4365 74430000 		.4byte	0x4374
 10040 4369 0B       		.uleb128 0xb
 10041 436a 74430000 		.4byte	0x4374
 10042 436e 0B       		.uleb128 0xb
 10043 436f C3000000 		.4byte	0xc3
 10044 4373 00       		.byte	0
 10045 4374 38       		.uleb128 0x38
 10046 4375 04       		.byte	0x4
 10047 4376 D9300000 		.4byte	0x30d9
 10048 437a 54       		.uleb128 0x54
 10049 437b 92150000 		.4byte	0x1592
 10050 437f 00000000 		.4byte	.LFB731
 10051 4383 1E000000 		.4byte	.LFE731-.LFB731
 10052 4387 01       		.uleb128 0x1
 10053 4388 9C       		.byte	0x9c
 10054 4389 A3430000 		.4byte	0x43a3
 10055 438d CE430000 		.4byte	0x43ce
 10056 4391 22       		.uleb128 0x22
 10057 4392 440E0000 		.4byte	.LASF149
 10058 4396 5A430000 		.4byte	0x435a
 10059 439a 22       		.uleb128 0x22
 10060 439b 29310000 		.4byte	.LASF207
 10061 439f BC000000 		.4byte	0xbc
 10062 43a3 50       		.uleb128 0x50
 10063 43a4 C91E0000 		.4byte	.LASF550
 10064 43a8 07420000 		.4byte	0x4207
 10065 43ac 02       		.uleb128 0x2
 10066 43ad 91       		.byte	0x91
 10067 43ae 74       		.sleb128 -12
 10068 43af 58       		.uleb128 0x58
 10069 43b0 CE060000 		.4byte	.LASF579
 10070 43b4 0D       		.byte	0xd
 10071 43b5 DB01     		.2byte	0x1db
 10072 43b7 5A430000 		.4byte	0x435a
 10073 43bb 02       		.uleb128 0x2
 10074 43bc 91       		.byte	0x91
 10075 43bd 70       		.sleb128 -16
 10076 43be 58       		.uleb128 0x58
 10077 43bf 754A0000 		.4byte	.LASF580
 10078 43c3 0D       		.byte	0xd
 10079 43c4 DB01     		.2byte	0x1db
 10080 43c6 C3000000 		.4byte	0xc3
 10081 43ca 02       		.uleb128 0x2
 10082 43cb 91       		.byte	0x91
 10083 43cc 6C       		.sleb128 -20
 10084 43cd 00       		.byte	0
 10085 43ce 54       		.uleb128 0x54
 10086 43cf BB130000 		.4byte	0x13bb
ARM GAS  /tmp/ccyYK6L9.s 			page 178


 10087 43d3 00000000 		.4byte	.LFB732
 10088 43d7 1E000000 		.4byte	.LFE732-.LFB732
 10089 43db 01       		.uleb128 0x1
 10090 43dc 9C       		.byte	0x9c
 10091 43dd E5430000 		.4byte	0x43e5
 10092 43e1 01440000 		.4byte	0x4401
 10093 43e5 50       		.uleb128 0x50
 10094 43e6 C91E0000 		.4byte	.LASF550
 10095 43ea F8400000 		.4byte	0x40f8
 10096 43ee 02       		.uleb128 0x2
 10097 43ef 91       		.byte	0x91
 10098 43f0 74       		.sleb128 -12
 10099 43f1 58       		.uleb128 0x58
 10100 43f2 30170000 		.4byte	.LASF183
 10101 43f6 0D       		.byte	0xd
 10102 43f7 7602     		.2byte	0x276
 10103 43f9 01440000 		.4byte	0x4401
 10104 43fd 02       		.uleb128 0x2
 10105 43fe 91       		.byte	0x91
 10106 43ff 70       		.sleb128 -16
 10107 4400 00       		.byte	0
 10108 4401 07       		.uleb128 0x7
 10109 4402 37360000 		.4byte	0x3637
 10110 4406 45       		.uleb128 0x45
 10111 4407 26100000 		.4byte	0x1026
 10112 440b 02       		.byte	0x2
 10113 440c 14440000 		.4byte	0x4414
 10114 4410 1E440000 		.4byte	0x441e
 10115 4414 46       		.uleb128 0x46
 10116 4415 C91E0000 		.4byte	.LASF550
 10117 4419 A7400000 		.4byte	0x40a7
 10118 441d 00       		.byte	0
 10119 441e 4E       		.uleb128 0x4e
 10120 441f 06440000 		.4byte	0x4406
 10121 4423 CD360000 		.4byte	.LASF581
 10122 4427 00000000 		.4byte	.LFB734
 10123 442b 1C000000 		.4byte	.LFE734-.LFB734
 10124 442f 01       		.uleb128 0x1
 10125 4430 9C       		.byte	0x9c
 10126 4431 39440000 		.4byte	0x4439
 10127 4435 42440000 		.4byte	0x4442
 10128 4439 48       		.uleb128 0x48
 10129 443a 14440000 		.4byte	0x4414
 10130 443e 02       		.uleb128 0x2
 10131 443f 91       		.byte	0x91
 10132 4440 74       		.sleb128 -12
 10133 4441 00       		.byte	0
 10134 4442 45       		.uleb128 0x45
 10135 4443 5A150000 		.4byte	0x155a
 10136 4447 02       		.byte	0x2
 10137 4448 50440000 		.4byte	0x4450
 10138 444c 5A440000 		.4byte	0x445a
 10139 4450 46       		.uleb128 0x46
 10140 4451 C91E0000 		.4byte	.LASF550
 10141 4455 F8400000 		.4byte	0x40f8
 10142 4459 00       		.byte	0
 10143 445a 4E       		.uleb128 0x4e
ARM GAS  /tmp/ccyYK6L9.s 			page 179


 10144 445b 42440000 		.4byte	0x4442
 10145 445f A8110000 		.4byte	.LASF582
 10146 4463 00000000 		.4byte	.LFB737
 10147 4467 1C000000 		.4byte	.LFE737-.LFB737
 10148 446b 01       		.uleb128 0x1
 10149 446c 9C       		.byte	0x9c
 10150 446d 75440000 		.4byte	0x4475
 10151 4471 7E440000 		.4byte	0x447e
 10152 4475 48       		.uleb128 0x48
 10153 4476 50440000 		.4byte	0x4450
 10154 447a 02       		.uleb128 0x2
 10155 447b 91       		.byte	0x91
 10156 447c 74       		.sleb128 -12
 10157 447d 00       		.byte	0
 10158 447e 45       		.uleb128 0x45
 10159 447f 1D160000 		.4byte	0x161d
 10160 4483 02       		.byte	0x2
 10161 4484 8C440000 		.4byte	0x448c
 10162 4488 A1440000 		.4byte	0x44a1
 10163 448c 46       		.uleb128 0x46
 10164 448d C91E0000 		.4byte	.LASF550
 10165 4491 A1440000 		.4byte	0x44a1
 10166 4495 5B       		.uleb128 0x5b
 10167 4496 4E3B0000 		.4byte	.LASF583
 10168 449a 0D       		.byte	0xd
 10169 449b 15       		.byte	0x15
 10170 449c A6440000 		.4byte	0x44a6
 10171 44a0 00       		.byte	0
 10172 44a1 07       		.uleb128 0x7
 10173 44a2 5B360000 		.4byte	0x365b
 10174 44a6 07       		.uleb128 0x7
 10175 44a7 D1360000 		.4byte	0x36d1
 10176 44ab 47       		.uleb128 0x47
 10177 44ac 7E440000 		.4byte	0x447e
 10178 44b0 532E0000 		.4byte	.LASF584
 10179 44b4 00000000 		.4byte	.LFB740
 10180 44b8 1A000000 		.4byte	.LFE740-.LFB740
 10181 44bc 01       		.uleb128 0x1
 10182 44bd 9C       		.byte	0x9c
 10183 44be C6440000 		.4byte	0x44c6
 10184 44c2 D7440000 		.4byte	0x44d7
 10185 44c6 48       		.uleb128 0x48
 10186 44c7 8C440000 		.4byte	0x448c
 10187 44cb 02       		.uleb128 0x2
 10188 44cc 91       		.byte	0x91
 10189 44cd 7C       		.sleb128 -4
 10190 44ce 48       		.uleb128 0x48
 10191 44cf 95440000 		.4byte	0x4495
 10192 44d3 02       		.uleb128 0x2
 10193 44d4 91       		.byte	0x91
 10194 44d5 78       		.sleb128 -8
 10195 44d6 00       		.byte	0
 10196 44d7 54       		.uleb128 0x54
 10197 44d8 370F0000 		.4byte	0xf37
 10198 44dc 00000000 		.4byte	.LFB742
 10199 44e0 60000000 		.4byte	.LFE742-.LFB742
 10200 44e4 01       		.uleb128 0x1
ARM GAS  /tmp/ccyYK6L9.s 			page 180


 10201 44e5 9C       		.byte	0x9c
 10202 44e6 EE440000 		.4byte	0x44ee
 10203 44ea 32450000 		.4byte	0x4532
 10204 44ee 50       		.uleb128 0x50
 10205 44ef C91E0000 		.4byte	.LASF550
 10206 44f3 1D430000 		.4byte	0x431d
 10207 44f7 02       		.uleb128 0x2
 10208 44f8 91       		.byte	0x91
 10209 44f9 6C       		.sleb128 -20
 10210 44fa 58       		.uleb128 0x58
 10211 44fb CE060000 		.4byte	.LASF579
 10212 44ff 0D       		.byte	0xd
 10213 4500 BC02     		.2byte	0x2bc
 10214 4502 FD0B0000 		.4byte	0xbfd
 10215 4506 02       		.uleb128 0x2
 10216 4507 91       		.byte	0x91
 10217 4508 68       		.sleb128 -24
 10218 4509 58       		.uleb128 0x58
 10219 450a 754A0000 		.4byte	.LASF580
 10220 450e 0D       		.byte	0xd
 10221 450f BD02     		.2byte	0x2bd
 10222 4511 11350000 		.4byte	0x3511
 10223 4515 02       		.uleb128 0x2
 10224 4516 91       		.byte	0x91
 10225 4517 64       		.sleb128 -28
 10226 4518 4A       		.uleb128 0x4a
 10227 4519 1A000000 		.4byte	.LBB26
 10228 451d 34000000 		.4byte	.LBE26-.LBB26
 10229 4521 5D       		.uleb128 0x5d
 10230 4522 55370000 		.4byte	.LASF585
 10231 4526 0D       		.byte	0xd
 10232 4527 C202     		.2byte	0x2c2
 10233 4529 B4350000 		.4byte	0x35b4
 10234 452d 02       		.uleb128 0x2
 10235 452e 91       		.byte	0x91
 10236 452f 74       		.sleb128 -12
 10237 4530 00       		.byte	0
 10238 4531 00       		.byte	0
 10239 4532 54       		.uleb128 0x54
 10240 4533 8B0C0000 		.4byte	0xc8b
 10241 4537 00000000 		.4byte	.LFB743
 10242 453b 64000000 		.4byte	.LFE743-.LFB743
 10243 453f 01       		.uleb128 0x1
 10244 4540 9C       		.byte	0x9c
 10245 4541 49450000 		.4byte	0x4549
 10246 4545 7E450000 		.4byte	0x457e
 10247 4549 50       		.uleb128 0x50
 10248 454a C91E0000 		.4byte	.LASF550
 10249 454e A7400000 		.4byte	0x40a7
 10250 4552 02       		.uleb128 0x2
 10251 4553 91       		.byte	0x91
 10252 4554 6C       		.sleb128 -20
 10253 4555 58       		.uleb128 0x58
 10254 4556 30170000 		.4byte	.LASF183
 10255 455a 0D       		.byte	0xd
 10256 455b 9F01     		.2byte	0x19f
 10257 455d 7E450000 		.4byte	0x457e
ARM GAS  /tmp/ccyYK6L9.s 			page 181


 10258 4561 02       		.uleb128 0x2
 10259 4562 91       		.byte	0x91
 10260 4563 68       		.sleb128 -24
 10261 4564 4A       		.uleb128 0x4a
 10262 4565 08000000 		.4byte	.LBB27
 10263 4569 52000000 		.4byte	.LBE27-.LBB27
 10264 456d 5D       		.uleb128 0x5d
 10265 456e D90F0000 		.4byte	.LASF326
 10266 4572 0D       		.byte	0xd
 10267 4573 A001     		.2byte	0x1a0
 10268 4575 79350000 		.4byte	0x3579
 10269 4579 02       		.uleb128 0x2
 10270 457a 91       		.byte	0x91
 10271 457b 74       		.sleb128 -12
 10272 457c 00       		.byte	0
 10273 457d 00       		.byte	0
 10274 457e 07       		.uleb128 0x7
 10275 457f C6350000 		.4byte	0x35c6
 10276 4583 54       		.uleb128 0x54
 10277 4584 6B140000 		.4byte	0x146b
 10278 4588 00000000 		.4byte	.LFB744
 10279 458c 60000000 		.4byte	.LFE744-.LFB744
 10280 4590 01       		.uleb128 0x1
 10281 4591 9C       		.byte	0x9c
 10282 4592 9A450000 		.4byte	0x459a
 10283 4596 DE450000 		.4byte	0x45de
 10284 459a 50       		.uleb128 0x50
 10285 459b C91E0000 		.4byte	.LASF550
 10286 459f 07420000 		.4byte	0x4207
 10287 45a3 02       		.uleb128 0x2
 10288 45a4 91       		.byte	0x91
 10289 45a5 6C       		.sleb128 -20
 10290 45a6 58       		.uleb128 0x58
 10291 45a7 CE060000 		.4byte	.LASF579
 10292 45ab 0D       		.byte	0xd
 10293 45ac BC02     		.2byte	0x2bc
 10294 45ae 31110000 		.4byte	0x1131
 10295 45b2 02       		.uleb128 0x2
 10296 45b3 91       		.byte	0x91
 10297 45b4 68       		.sleb128 -24
 10298 45b5 58       		.uleb128 0x58
 10299 45b6 754A0000 		.4byte	.LASF580
 10300 45ba 0D       		.byte	0xd
 10301 45bb BD02     		.2byte	0x2bd
 10302 45bd 11350000 		.4byte	0x3511
 10303 45c1 02       		.uleb128 0x2
 10304 45c2 91       		.byte	0x91
 10305 45c3 64       		.sleb128 -28
 10306 45c4 4A       		.uleb128 0x4a
 10307 45c5 1A000000 		.4byte	.LBB29
 10308 45c9 34000000 		.4byte	.LBE29-.LBB29
 10309 45cd 5D       		.uleb128 0x5d
 10310 45ce 55370000 		.4byte	.LASF585
 10311 45d2 0D       		.byte	0xd
 10312 45d3 C202     		.2byte	0x2c2
 10313 45d5 25360000 		.4byte	0x3625
 10314 45d9 02       		.uleb128 0x2
ARM GAS  /tmp/ccyYK6L9.s 			page 182


 10315 45da 91       		.byte	0x91
 10316 45db 74       		.sleb128 -12
 10317 45dc 00       		.byte	0
 10318 45dd 00       		.byte	0
 10319 45de 54       		.uleb128 0x54
 10320 45df BF110000 		.4byte	0x11bf
 10321 45e3 00000000 		.4byte	.LFB745
 10322 45e7 64000000 		.4byte	.LFE745-.LFB745
 10323 45eb 01       		.uleb128 0x1
 10324 45ec 9C       		.byte	0x9c
 10325 45ed F5450000 		.4byte	0x45f5
 10326 45f1 2A460000 		.4byte	0x462a
 10327 45f5 50       		.uleb128 0x50
 10328 45f6 C91E0000 		.4byte	.LASF550
 10329 45fa F8400000 		.4byte	0x40f8
 10330 45fe 02       		.uleb128 0x2
 10331 45ff 91       		.byte	0x91
 10332 4600 6C       		.sleb128 -20
 10333 4601 58       		.uleb128 0x58
 10334 4602 30170000 		.4byte	.LASF183
 10335 4606 0D       		.byte	0xd
 10336 4607 9F01     		.2byte	0x19f
 10337 4609 2A460000 		.4byte	0x462a
 10338 460d 02       		.uleb128 0x2
 10339 460e 91       		.byte	0x91
 10340 460f 68       		.sleb128 -24
 10341 4610 4A       		.uleb128 0x4a
 10342 4611 08000000 		.4byte	.LBB30
 10343 4615 52000000 		.4byte	.LBE30-.LBB30
 10344 4619 5D       		.uleb128 0x5d
 10345 461a D90F0000 		.4byte	.LASF326
 10346 461e 0D       		.byte	0xd
 10347 461f A001     		.2byte	0x1a0
 10348 4621 EA350000 		.4byte	0x35ea
 10349 4625 02       		.uleb128 0x2
 10350 4626 91       		.byte	0x91
 10351 4627 74       		.sleb128 -12
 10352 4628 00       		.byte	0
 10353 4629 00       		.byte	0
 10354 462a 07       		.uleb128 0x7
 10355 462b 37360000 		.4byte	0x3637
 10356 462f 5C       		.uleb128 0x5c
 10357 4630 AB0C0000 		.4byte	0xcab
 10358 4634 00000000 		.4byte	.LFB746
 10359 4638 54000000 		.4byte	.LFE746-.LFB746
 10360 463c 01       		.uleb128 0x1
 10361 463d 9C       		.byte	0x9c
 10362 463e 46460000 		.4byte	0x4646
 10363 4642 8A460000 		.4byte	0x468a
 10364 4646 50       		.uleb128 0x50
 10365 4647 C91E0000 		.4byte	.LASF550
 10366 464b A7400000 		.4byte	0x40a7
 10367 464f 02       		.uleb128 0x2
 10368 4650 91       		.byte	0x91
 10369 4651 74       		.sleb128 -12
 10370 4652 58       		.uleb128 0x58
 10371 4653 30170000 		.4byte	.LASF183
ARM GAS  /tmp/ccyYK6L9.s 			page 183


 10372 4657 0D       		.byte	0xd
 10373 4658 0E02     		.2byte	0x20e
 10374 465a 8A460000 		.4byte	0x468a
 10375 465e 02       		.uleb128 0x2
 10376 465f 91       		.byte	0x91
 10377 4660 70       		.sleb128 -16
 10378 4661 4A       		.uleb128 0x4a
 10379 4662 06000000 		.4byte	.LBB32
 10380 4666 46000000 		.4byte	.LBE32-.LBB32
 10381 466a 5D       		.uleb128 0x5d
 10382 466b D90F0000 		.4byte	.LASF326
 10383 466f 0D       		.byte	0xd
 10384 4670 1002     		.2byte	0x210
 10385 4672 79350000 		.4byte	0x3579
 10386 4676 02       		.uleb128 0x2
 10387 4677 91       		.byte	0x91
 10388 4678 7C       		.sleb128 -4
 10389 4679 5D       		.uleb128 0x5d
 10390 467a 63300000 		.4byte	.LASF586
 10391 467e 0D       		.byte	0xd
 10392 467f 1002     		.2byte	0x210
 10393 4681 79350000 		.4byte	0x3579
 10394 4685 02       		.uleb128 0x2
 10395 4686 91       		.byte	0x91
 10396 4687 78       		.sleb128 -8
 10397 4688 00       		.byte	0
 10398 4689 00       		.byte	0
 10399 468a 07       		.uleb128 0x7
 10400 468b C6350000 		.4byte	0x35c6
 10401 468f 5C       		.uleb128 0x5c
 10402 4690 2D0C0000 		.4byte	0xc2d
 10403 4694 00000000 		.4byte	.LFB747
 10404 4698 18000000 		.4byte	.LFE747-.LFB747
 10405 469c 01       		.uleb128 0x1
 10406 469d 9C       		.byte	0x9c
 10407 469e A6460000 		.4byte	0x46a6
 10408 46a2 B3460000 		.4byte	0x46b3
 10409 46a6 50       		.uleb128 0x50
 10410 46a7 C91E0000 		.4byte	.LASF550
 10411 46ab 1D430000 		.4byte	0x431d
 10412 46af 02       		.uleb128 0x2
 10413 46b0 91       		.byte	0x91
 10414 46b1 7C       		.sleb128 -4
 10415 46b2 00       		.byte	0
 10416 46b3 5C       		.uleb128 0x5c
 10417 46b4 DF110000 		.4byte	0x11df
 10418 46b8 00000000 		.4byte	.LFB748
 10419 46bc 54000000 		.4byte	.LFE748-.LFB748
 10420 46c0 01       		.uleb128 0x1
 10421 46c1 9C       		.byte	0x9c
 10422 46c2 CA460000 		.4byte	0x46ca
 10423 46c6 0E470000 		.4byte	0x470e
 10424 46ca 50       		.uleb128 0x50
 10425 46cb C91E0000 		.4byte	.LASF550
 10426 46cf F8400000 		.4byte	0x40f8
 10427 46d3 02       		.uleb128 0x2
 10428 46d4 91       		.byte	0x91
ARM GAS  /tmp/ccyYK6L9.s 			page 184


 10429 46d5 74       		.sleb128 -12
 10430 46d6 58       		.uleb128 0x58
 10431 46d7 30170000 		.4byte	.LASF183
 10432 46db 0D       		.byte	0xd
 10433 46dc 0E02     		.2byte	0x20e
 10434 46de 0E470000 		.4byte	0x470e
 10435 46e2 02       		.uleb128 0x2
 10436 46e3 91       		.byte	0x91
 10437 46e4 70       		.sleb128 -16
 10438 46e5 4A       		.uleb128 0x4a
 10439 46e6 06000000 		.4byte	.LBB34
 10440 46ea 46000000 		.4byte	.LBE34-.LBB34
 10441 46ee 5D       		.uleb128 0x5d
 10442 46ef D90F0000 		.4byte	.LASF326
 10443 46f3 0D       		.byte	0xd
 10444 46f4 1002     		.2byte	0x210
 10445 46f6 EA350000 		.4byte	0x35ea
 10446 46fa 02       		.uleb128 0x2
 10447 46fb 91       		.byte	0x91
 10448 46fc 7C       		.sleb128 -4
 10449 46fd 5D       		.uleb128 0x5d
 10450 46fe 63300000 		.4byte	.LASF586
 10451 4702 0D       		.byte	0xd
 10452 4703 1002     		.2byte	0x210
 10453 4705 EA350000 		.4byte	0x35ea
 10454 4709 02       		.uleb128 0x2
 10455 470a 91       		.byte	0x91
 10456 470b 78       		.sleb128 -8
 10457 470c 00       		.byte	0
 10458 470d 00       		.byte	0
 10459 470e 07       		.uleb128 0x7
 10460 470f 37360000 		.4byte	0x3637
 10461 4713 5E       		.uleb128 0x5e
 10462 4714 3D0D0000 		.4byte	.LASF587
 10463 4718 1C       		.byte	0x1c
 10464 4719 6F       		.byte	0x6f
 10465 471a 1A340000 		.4byte	0x341a
 10466 471e 5F       		.uleb128 0x5f
 10467 471f 50000000 		.4byte	0x50
 10468 4723 29470000 		.4byte	0x4729
 10469 4727 60       		.uleb128 0x60
 10470 4728 00       		.byte	0
 10471 4729 5E       		.uleb128 0x5e
 10472 472a 81170000 		.4byte	.LASF588
 10473 472e 20       		.byte	0x20
 10474 472f 0A       		.byte	0xa
 10475 4730 1E470000 		.4byte	0x471e
 10476 4734 5E       		.uleb128 0x5e
 10477 4735 02490000 		.4byte	.LASF589
 10478 4739 20       		.byte	0x20
 10479 473a 0B       		.byte	0xb
 10480 473b 1E470000 		.4byte	0x471e
 10481 473f 5E       		.uleb128 0x5e
 10482 4740 C5260000 		.4byte	.LASF590
 10483 4744 20       		.byte	0x20
 10484 4745 0D       		.byte	0xd
 10485 4746 1E470000 		.4byte	0x471e
ARM GAS  /tmp/ccyYK6L9.s 			page 185


 10486 474a 5E       		.uleb128 0x5e
 10487 474b 9C110000 		.4byte	.LASF591
 10488 474f 20       		.byte	0x20
 10489 4750 0E       		.byte	0xe
 10490 4751 1E470000 		.4byte	0x471e
 10491 4755 61       		.uleb128 0x61
 10492 4756 943E0000 		.4byte	.LASF592
 10493 475a 21       		.byte	0x21
 10494 475b 9806     		.2byte	0x698
 10495 475d 25380000 		.4byte	0x3825
 10496 4761 00       		.byte	0
 10497              		.section	.debug_abbrev,"",%progbits
 10498              	.Ldebug_abbrev0:
 10499 0000 01       		.uleb128 0x1
 10500 0001 11       		.uleb128 0x11
 10501 0002 01       		.byte	0x1
 10502 0003 25       		.uleb128 0x25
 10503 0004 0E       		.uleb128 0xe
 10504 0005 13       		.uleb128 0x13
 10505 0006 0B       		.uleb128 0xb
 10506 0007 03       		.uleb128 0x3
 10507 0008 0E       		.uleb128 0xe
 10508 0009 1B       		.uleb128 0x1b
 10509 000a 0E       		.uleb128 0xe
 10510 000b 55       		.uleb128 0x55
 10511 000c 17       		.uleb128 0x17
 10512 000d 11       		.uleb128 0x11
 10513 000e 01       		.uleb128 0x1
 10514 000f 10       		.uleb128 0x10
 10515 0010 17       		.uleb128 0x17
 10516 0011 00       		.byte	0
 10517 0012 00       		.byte	0
 10518 0013 02       		.uleb128 0x2
 10519 0014 24       		.uleb128 0x24
 10520 0015 00       		.byte	0
 10521 0016 0B       		.uleb128 0xb
 10522 0017 0B       		.uleb128 0xb
 10523 0018 3E       		.uleb128 0x3e
 10524 0019 0B       		.uleb128 0xb
 10525 001a 03       		.uleb128 0x3
 10526 001b 08       		.uleb128 0x8
 10527 001c 00       		.byte	0
 10528 001d 00       		.byte	0
 10529 001e 03       		.uleb128 0x3
 10530 001f 16       		.uleb128 0x16
 10531 0020 00       		.byte	0
 10532 0021 03       		.uleb128 0x3
 10533 0022 0E       		.uleb128 0xe
 10534 0023 3A       		.uleb128 0x3a
 10535 0024 0B       		.uleb128 0xb
 10536 0025 3B       		.uleb128 0x3b
 10537 0026 0B       		.uleb128 0xb
 10538 0027 49       		.uleb128 0x49
 10539 0028 13       		.uleb128 0x13
 10540 0029 00       		.byte	0
 10541 002a 00       		.byte	0
 10542 002b 04       		.uleb128 0x4
ARM GAS  /tmp/ccyYK6L9.s 			page 186


 10543 002c 24       		.uleb128 0x24
 10544 002d 00       		.byte	0
 10545 002e 0B       		.uleb128 0xb
 10546 002f 0B       		.uleb128 0xb
 10547 0030 3E       		.uleb128 0x3e
 10548 0031 0B       		.uleb128 0xb
 10549 0032 03       		.uleb128 0x3
 10550 0033 0E       		.uleb128 0xe
 10551 0034 00       		.byte	0
 10552 0035 00       		.byte	0
 10553 0036 05       		.uleb128 0x5
 10554 0037 0F       		.uleb128 0xf
 10555 0038 00       		.byte	0
 10556 0039 0B       		.uleb128 0xb
 10557 003a 0B       		.uleb128 0xb
 10558 003b 00       		.byte	0
 10559 003c 00       		.byte	0
 10560 003d 06       		.uleb128 0x6
 10561 003e 0F       		.uleb128 0xf
 10562 003f 00       		.byte	0
 10563 0040 0B       		.uleb128 0xb
 10564 0041 0B       		.uleb128 0xb
 10565 0042 49       		.uleb128 0x49
 10566 0043 13       		.uleb128 0x13
 10567 0044 00       		.byte	0
 10568 0045 00       		.byte	0
 10569 0046 07       		.uleb128 0x7
 10570 0047 26       		.uleb128 0x26
 10571 0048 00       		.byte	0
 10572 0049 49       		.uleb128 0x49
 10573 004a 13       		.uleb128 0x13
 10574 004b 00       		.byte	0
 10575 004c 00       		.byte	0
 10576 004d 08       		.uleb128 0x8
 10577 004e 39       		.uleb128 0x39
 10578 004f 01       		.byte	0x1
 10579 0050 03       		.uleb128 0x3
 10580 0051 08       		.uleb128 0x8
 10581 0052 3A       		.uleb128 0x3a
 10582 0053 0B       		.uleb128 0xb
 10583 0054 3B       		.uleb128 0x3b
 10584 0055 0B       		.uleb128 0xb
 10585 0056 01       		.uleb128 0x1
 10586 0057 13       		.uleb128 0x13
 10587 0058 00       		.byte	0
 10588 0059 00       		.byte	0
 10589 005a 09       		.uleb128 0x9
 10590 005b 08       		.uleb128 0x8
 10591 005c 00       		.byte	0
 10592 005d 3A       		.uleb128 0x3a
 10593 005e 0B       		.uleb128 0xb
 10594 005f 3B       		.uleb128 0x3b
 10595 0060 0B       		.uleb128 0xb
 10596 0061 18       		.uleb128 0x18
 10597 0062 13       		.uleb128 0x13
 10598 0063 00       		.byte	0
 10599 0064 00       		.byte	0
ARM GAS  /tmp/ccyYK6L9.s 			page 187


 10600 0065 0A       		.uleb128 0xa
 10601 0066 2E       		.uleb128 0x2e
 10602 0067 01       		.byte	0x1
 10603 0068 3F       		.uleb128 0x3f
 10604 0069 19       		.uleb128 0x19
 10605 006a 03       		.uleb128 0x3
 10606 006b 0E       		.uleb128 0xe
 10607 006c 3A       		.uleb128 0x3a
 10608 006d 0B       		.uleb128 0xb
 10609 006e 3B       		.uleb128 0x3b
 10610 006f 0B       		.uleb128 0xb
 10611 0070 49       		.uleb128 0x49
 10612 0071 13       		.uleb128 0x13
 10613 0072 3C       		.uleb128 0x3c
 10614 0073 19       		.uleb128 0x19
 10615 0074 01       		.uleb128 0x1
 10616 0075 13       		.uleb128 0x13
 10617 0076 00       		.byte	0
 10618 0077 00       		.byte	0
 10619 0078 0B       		.uleb128 0xb
 10620 0079 05       		.uleb128 0x5
 10621 007a 00       		.byte	0
 10622 007b 49       		.uleb128 0x49
 10623 007c 13       		.uleb128 0x13
 10624 007d 00       		.byte	0
 10625 007e 00       		.byte	0
 10626 007f 0C       		.uleb128 0xc
 10627 0080 02       		.uleb128 0x2
 10628 0081 01       		.byte	0x1
 10629 0082 03       		.uleb128 0x3
 10630 0083 0E       		.uleb128 0xe
 10631 0084 0B       		.uleb128 0xb
 10632 0085 0B       		.uleb128 0xb
 10633 0086 3A       		.uleb128 0x3a
 10634 0087 0B       		.uleb128 0xb
 10635 0088 3B       		.uleb128 0x3b
 10636 0089 0B       		.uleb128 0xb
 10637 008a 01       		.uleb128 0x1
 10638 008b 13       		.uleb128 0x13
 10639 008c 00       		.byte	0
 10640 008d 00       		.byte	0
 10641 008e 0D       		.uleb128 0xd
 10642 008f 2E       		.uleb128 0x2e
 10643 0090 01       		.byte	0x1
 10644 0091 3F       		.uleb128 0x3f
 10645 0092 19       		.uleb128 0x19
 10646 0093 03       		.uleb128 0x3
 10647 0094 0E       		.uleb128 0xe
 10648 0095 3A       		.uleb128 0x3a
 10649 0096 0B       		.uleb128 0xb
 10650 0097 3B       		.uleb128 0x3b
 10651 0098 0B       		.uleb128 0xb
 10652 0099 49       		.uleb128 0x49
 10653 009a 13       		.uleb128 0x13
 10654 009b 3C       		.uleb128 0x3c
 10655 009c 19       		.uleb128 0x19
 10656 009d 64       		.uleb128 0x64
ARM GAS  /tmp/ccyYK6L9.s 			page 188


 10657 009e 13       		.uleb128 0x13
 10658 009f 01       		.uleb128 0x1
 10659 00a0 13       		.uleb128 0x13
 10660 00a1 00       		.byte	0
 10661 00a2 00       		.byte	0
 10662 00a3 0E       		.uleb128 0xe
 10663 00a4 05       		.uleb128 0x5
 10664 00a5 00       		.byte	0
 10665 00a6 49       		.uleb128 0x49
 10666 00a7 13       		.uleb128 0x13
 10667 00a8 34       		.uleb128 0x34
 10668 00a9 19       		.uleb128 0x19
 10669 00aa 00       		.byte	0
 10670 00ab 00       		.byte	0
 10671 00ac 0F       		.uleb128 0xf
 10672 00ad 2E       		.uleb128 0x2e
 10673 00ae 01       		.byte	0x1
 10674 00af 3F       		.uleb128 0x3f
 10675 00b0 19       		.uleb128 0x19
 10676 00b1 03       		.uleb128 0x3
 10677 00b2 0E       		.uleb128 0xe
 10678 00b3 3A       		.uleb128 0x3a
 10679 00b4 0B       		.uleb128 0xb
 10680 00b5 3B       		.uleb128 0x3b
 10681 00b6 0B       		.uleb128 0xb
 10682 00b7 49       		.uleb128 0x49
 10683 00b8 13       		.uleb128 0x13
 10684 00b9 32       		.uleb128 0x32
 10685 00ba 0B       		.uleb128 0xb
 10686 00bb 3C       		.uleb128 0x3c
 10687 00bc 19       		.uleb128 0x19
 10688 00bd 64       		.uleb128 0x64
 10689 00be 13       		.uleb128 0x13
 10690 00bf 01       		.uleb128 0x1
 10691 00c0 13       		.uleb128 0x13
 10692 00c1 00       		.byte	0
 10693 00c2 00       		.byte	0
 10694 00c3 10       		.uleb128 0x10
 10695 00c4 2E       		.uleb128 0x2e
 10696 00c5 01       		.byte	0x1
 10697 00c6 3F       		.uleb128 0x3f
 10698 00c7 19       		.uleb128 0x19
 10699 00c8 03       		.uleb128 0x3
 10700 00c9 0E       		.uleb128 0xe
 10701 00ca 3A       		.uleb128 0x3a
 10702 00cb 0B       		.uleb128 0xb
 10703 00cc 3B       		.uleb128 0x3b
 10704 00cd 0B       		.uleb128 0xb
 10705 00ce 49       		.uleb128 0x49
 10706 00cf 13       		.uleb128 0x13
 10707 00d0 32       		.uleb128 0x32
 10708 00d1 0B       		.uleb128 0xb
 10709 00d2 3C       		.uleb128 0x3c
 10710 00d3 19       		.uleb128 0x19
 10711 00d4 64       		.uleb128 0x64
 10712 00d5 13       		.uleb128 0x13
 10713 00d6 00       		.byte	0
ARM GAS  /tmp/ccyYK6L9.s 			page 189


 10714 00d7 00       		.byte	0
 10715 00d8 11       		.uleb128 0x11
 10716 00d9 1C       		.uleb128 0x1c
 10717 00da 00       		.byte	0
 10718 00db 49       		.uleb128 0x49
 10719 00dc 13       		.uleb128 0x13
 10720 00dd 38       		.uleb128 0x38
 10721 00de 0B       		.uleb128 0xb
 10722 00df 00       		.byte	0
 10723 00e0 00       		.byte	0
 10724 00e1 12       		.uleb128 0x12
 10725 00e2 2E       		.uleb128 0x2e
 10726 00e3 00       		.byte	0
 10727 00e4 3F       		.uleb128 0x3f
 10728 00e5 19       		.uleb128 0x19
 10729 00e6 03       		.uleb128 0x3
 10730 00e7 0E       		.uleb128 0xe
 10731 00e8 3A       		.uleb128 0x3a
 10732 00e9 0B       		.uleb128 0xb
 10733 00ea 3B       		.uleb128 0x3b
 10734 00eb 0B       		.uleb128 0xb
 10735 00ec 6E       		.uleb128 0x6e
 10736 00ed 0E       		.uleb128 0xe
 10737 00ee 32       		.uleb128 0x32
 10738 00ef 0B       		.uleb128 0xb
 10739 00f0 3C       		.uleb128 0x3c
 10740 00f1 19       		.uleb128 0x19
 10741 00f2 00       		.byte	0
 10742 00f3 00       		.byte	0
 10743 00f4 13       		.uleb128 0x13
 10744 00f5 16       		.uleb128 0x16
 10745 00f6 00       		.byte	0
 10746 00f7 03       		.uleb128 0x3
 10747 00f8 0E       		.uleb128 0xe
 10748 00f9 3A       		.uleb128 0x3a
 10749 00fa 0B       		.uleb128 0xb
 10750 00fb 3B       		.uleb128 0x3b
 10751 00fc 0B       		.uleb128 0xb
 10752 00fd 49       		.uleb128 0x49
 10753 00fe 13       		.uleb128 0x13
 10754 00ff 32       		.uleb128 0x32
 10755 0100 0B       		.uleb128 0xb
 10756 0101 00       		.byte	0
 10757 0102 00       		.byte	0
 10758 0103 14       		.uleb128 0x14
 10759 0104 0D       		.uleb128 0xd
 10760 0105 00       		.byte	0
 10761 0106 03       		.uleb128 0x3
 10762 0107 08       		.uleb128 0x8
 10763 0108 3A       		.uleb128 0x3a
 10764 0109 0B       		.uleb128 0xb
 10765 010a 3B       		.uleb128 0x3b
 10766 010b 0B       		.uleb128 0xb
 10767 010c 49       		.uleb128 0x49
 10768 010d 13       		.uleb128 0x13
 10769 010e 38       		.uleb128 0x38
 10770 010f 0B       		.uleb128 0xb
ARM GAS  /tmp/ccyYK6L9.s 			page 190


 10771 0110 32       		.uleb128 0x32
 10772 0111 0B       		.uleb128 0xb
 10773 0112 00       		.byte	0
 10774 0113 00       		.byte	0
 10775 0114 15       		.uleb128 0x15
 10776 0115 0D       		.uleb128 0xd
 10777 0116 00       		.byte	0
 10778 0117 03       		.uleb128 0x3
 10779 0118 0E       		.uleb128 0xe
 10780 0119 3A       		.uleb128 0x3a
 10781 011a 0B       		.uleb128 0xb
 10782 011b 3B       		.uleb128 0x3b
 10783 011c 0B       		.uleb128 0xb
 10784 011d 49       		.uleb128 0x49
 10785 011e 13       		.uleb128 0x13
 10786 011f 3F       		.uleb128 0x3f
 10787 0120 19       		.uleb128 0x19
 10788 0121 32       		.uleb128 0x32
 10789 0122 0B       		.uleb128 0xb
 10790 0123 3C       		.uleb128 0x3c
 10791 0124 19       		.uleb128 0x19
 10792 0125 00       		.byte	0
 10793 0126 00       		.byte	0
 10794 0127 16       		.uleb128 0x16
 10795 0128 2E       		.uleb128 0x2e
 10796 0129 01       		.byte	0x1
 10797 012a 3F       		.uleb128 0x3f
 10798 012b 19       		.uleb128 0x19
 10799 012c 03       		.uleb128 0x3
 10800 012d 0E       		.uleb128 0xe
 10801 012e 3A       		.uleb128 0x3a
 10802 012f 0B       		.uleb128 0xb
 10803 0130 3B       		.uleb128 0x3b
 10804 0131 0B       		.uleb128 0xb
 10805 0132 6E       		.uleb128 0x6e
 10806 0133 0E       		.uleb128 0xe
 10807 0134 49       		.uleb128 0x49
 10808 0135 13       		.uleb128 0x13
 10809 0136 32       		.uleb128 0x32
 10810 0137 0B       		.uleb128 0xb
 10811 0138 3C       		.uleb128 0x3c
 10812 0139 19       		.uleb128 0x19
 10813 013a 64       		.uleb128 0x64
 10814 013b 13       		.uleb128 0x13
 10815 013c 01       		.uleb128 0x1
 10816 013d 13       		.uleb128 0x13
 10817 013e 00       		.byte	0
 10818 013f 00       		.byte	0
 10819 0140 17       		.uleb128 0x17
 10820 0141 2E       		.uleb128 0x2e
 10821 0142 01       		.byte	0x1
 10822 0143 3F       		.uleb128 0x3f
 10823 0144 19       		.uleb128 0x19
 10824 0145 03       		.uleb128 0x3
 10825 0146 0E       		.uleb128 0xe
 10826 0147 3A       		.uleb128 0x3a
 10827 0148 0B       		.uleb128 0xb
ARM GAS  /tmp/ccyYK6L9.s 			page 191


 10828 0149 3B       		.uleb128 0x3b
 10829 014a 0B       		.uleb128 0xb
 10830 014b 49       		.uleb128 0x49
 10831 014c 13       		.uleb128 0x13
 10832 014d 32       		.uleb128 0x32
 10833 014e 0B       		.uleb128 0xb
 10834 014f 3C       		.uleb128 0x3c
 10835 0150 19       		.uleb128 0x19
 10836 0151 63       		.uleb128 0x63
 10837 0152 19       		.uleb128 0x19
 10838 0153 64       		.uleb128 0x64
 10839 0154 13       		.uleb128 0x13
 10840 0155 01       		.uleb128 0x1
 10841 0156 13       		.uleb128 0x13
 10842 0157 00       		.byte	0
 10843 0158 00       		.byte	0
 10844 0159 18       		.uleb128 0x18
 10845 015a 2E       		.uleb128 0x2e
 10846 015b 01       		.byte	0x1
 10847 015c 3F       		.uleb128 0x3f
 10848 015d 19       		.uleb128 0x19
 10849 015e 03       		.uleb128 0x3
 10850 015f 08       		.uleb128 0x8
 10851 0160 3A       		.uleb128 0x3a
 10852 0161 0B       		.uleb128 0xb
 10853 0162 3B       		.uleb128 0x3b
 10854 0163 0B       		.uleb128 0xb
 10855 0164 6E       		.uleb128 0x6e
 10856 0165 0E       		.uleb128 0xe
 10857 0166 49       		.uleb128 0x49
 10858 0167 13       		.uleb128 0x13
 10859 0168 32       		.uleb128 0x32
 10860 0169 0B       		.uleb128 0xb
 10861 016a 3C       		.uleb128 0x3c
 10862 016b 19       		.uleb128 0x19
 10863 016c 01       		.uleb128 0x1
 10864 016d 13       		.uleb128 0x13
 10865 016e 00       		.byte	0
 10866 016f 00       		.byte	0
 10867 0170 19       		.uleb128 0x19
 10868 0171 2E       		.uleb128 0x2e
 10869 0172 00       		.byte	0
 10870 0173 3F       		.uleb128 0x3f
 10871 0174 19       		.uleb128 0x19
 10872 0175 03       		.uleb128 0x3
 10873 0176 08       		.uleb128 0x8
 10874 0177 3A       		.uleb128 0x3a
 10875 0178 0B       		.uleb128 0xb
 10876 0179 3B       		.uleb128 0x3b
 10877 017a 0B       		.uleb128 0xb
 10878 017b 6E       		.uleb128 0x6e
 10879 017c 0E       		.uleb128 0xe
 10880 017d 49       		.uleb128 0x49
 10881 017e 13       		.uleb128 0x13
 10882 017f 32       		.uleb128 0x32
 10883 0180 0B       		.uleb128 0xb
 10884 0181 3C       		.uleb128 0x3c
ARM GAS  /tmp/ccyYK6L9.s 			page 192


 10885 0182 19       		.uleb128 0x19
 10886 0183 00       		.byte	0
 10887 0184 00       		.byte	0
 10888 0185 1A       		.uleb128 0x1a
 10889 0186 13       		.uleb128 0x13
 10890 0187 01       		.byte	0x1
 10891 0188 03       		.uleb128 0x3
 10892 0189 0E       		.uleb128 0xe
 10893 018a 0B       		.uleb128 0xb
 10894 018b 0B       		.uleb128 0xb
 10895 018c 3A       		.uleb128 0x3a
 10896 018d 0B       		.uleb128 0xb
 10897 018e 3B       		.uleb128 0x3b
 10898 018f 0B       		.uleb128 0xb
 10899 0190 32       		.uleb128 0x32
 10900 0191 0B       		.uleb128 0xb
 10901 0192 01       		.uleb128 0x1
 10902 0193 13       		.uleb128 0x13
 10903 0194 00       		.byte	0
 10904 0195 00       		.byte	0
 10905 0196 1B       		.uleb128 0x1b
 10906 0197 0D       		.uleb128 0xd
 10907 0198 00       		.byte	0
 10908 0199 03       		.uleb128 0x3
 10909 019a 0E       		.uleb128 0xe
 10910 019b 3A       		.uleb128 0x3a
 10911 019c 0B       		.uleb128 0xb
 10912 019d 3B       		.uleb128 0x3b
 10913 019e 0B       		.uleb128 0xb
 10914 019f 49       		.uleb128 0x49
 10915 01a0 13       		.uleb128 0x13
 10916 01a1 38       		.uleb128 0x38
 10917 01a2 0B       		.uleb128 0xb
 10918 01a3 00       		.byte	0
 10919 01a4 00       		.byte	0
 10920 01a5 1C       		.uleb128 0x1c
 10921 01a6 2E       		.uleb128 0x2e
 10922 01a7 01       		.byte	0x1
 10923 01a8 3F       		.uleb128 0x3f
 10924 01a9 19       		.uleb128 0x19
 10925 01aa 03       		.uleb128 0x3
 10926 01ab 0E       		.uleb128 0xe
 10927 01ac 3A       		.uleb128 0x3a
 10928 01ad 0B       		.uleb128 0xb
 10929 01ae 3B       		.uleb128 0x3b
 10930 01af 0B       		.uleb128 0xb
 10931 01b0 6E       		.uleb128 0x6e
 10932 01b1 0E       		.uleb128 0xe
 10933 01b2 49       		.uleb128 0x49
 10934 01b3 13       		.uleb128 0x13
 10935 01b4 3C       		.uleb128 0x3c
 10936 01b5 19       		.uleb128 0x19
 10937 01b6 64       		.uleb128 0x64
 10938 01b7 13       		.uleb128 0x13
 10939 01b8 01       		.uleb128 0x1
 10940 01b9 13       		.uleb128 0x13
 10941 01ba 00       		.byte	0
ARM GAS  /tmp/ccyYK6L9.s 			page 193


 10942 01bb 00       		.byte	0
 10943 01bc 1D       		.uleb128 0x1d
 10944 01bd 2E       		.uleb128 0x2e
 10945 01be 01       		.byte	0x1
 10946 01bf 3F       		.uleb128 0x3f
 10947 01c0 19       		.uleb128 0x19
 10948 01c1 03       		.uleb128 0x3
 10949 01c2 0E       		.uleb128 0xe
 10950 01c3 3A       		.uleb128 0x3a
 10951 01c4 0B       		.uleb128 0xb
 10952 01c5 3B       		.uleb128 0x3b
 10953 01c6 0B       		.uleb128 0xb
 10954 01c7 49       		.uleb128 0x49
 10955 01c8 13       		.uleb128 0x13
 10956 01c9 3C       		.uleb128 0x3c
 10957 01ca 19       		.uleb128 0x19
 10958 01cb 64       		.uleb128 0x64
 10959 01cc 13       		.uleb128 0x13
 10960 01cd 00       		.byte	0
 10961 01ce 00       		.byte	0
 10962 01cf 1E       		.uleb128 0x1e
 10963 01d0 2E       		.uleb128 0x2e
 10964 01d1 01       		.byte	0x1
 10965 01d2 3F       		.uleb128 0x3f
 10966 01d3 19       		.uleb128 0x19
 10967 01d4 03       		.uleb128 0x3
 10968 01d5 0E       		.uleb128 0xe
 10969 01d6 3A       		.uleb128 0x3a
 10970 01d7 0B       		.uleb128 0xb
 10971 01d8 3B       		.uleb128 0x3b
 10972 01d9 0B       		.uleb128 0xb
 10973 01da 6E       		.uleb128 0x6e
 10974 01db 0E       		.uleb128 0xe
 10975 01dc 32       		.uleb128 0x32
 10976 01dd 0B       		.uleb128 0xb
 10977 01de 3C       		.uleb128 0x3c
 10978 01df 19       		.uleb128 0x19
 10979 01e0 64       		.uleb128 0x64
 10980 01e1 13       		.uleb128 0x13
 10981 01e2 01       		.uleb128 0x1
 10982 01e3 13       		.uleb128 0x13
 10983 01e4 00       		.byte	0
 10984 01e5 00       		.byte	0
 10985 01e6 1F       		.uleb128 0x1f
 10986 01e7 2E       		.uleb128 0x2e
 10987 01e8 01       		.byte	0x1
 10988 01e9 3F       		.uleb128 0x3f
 10989 01ea 19       		.uleb128 0x19
 10990 01eb 03       		.uleb128 0x3
 10991 01ec 0E       		.uleb128 0xe
 10992 01ed 3A       		.uleb128 0x3a
 10993 01ee 0B       		.uleb128 0xb
 10994 01ef 3B       		.uleb128 0x3b
 10995 01f0 0B       		.uleb128 0xb
 10996 01f1 6E       		.uleb128 0x6e
 10997 01f2 0E       		.uleb128 0xe
 10998 01f3 32       		.uleb128 0x32
ARM GAS  /tmp/ccyYK6L9.s 			page 194


 10999 01f4 0B       		.uleb128 0xb
 11000 01f5 3C       		.uleb128 0x3c
 11001 01f6 19       		.uleb128 0x19
 11002 01f7 01       		.uleb128 0x1
 11003 01f8 13       		.uleb128 0x13
 11004 01f9 00       		.byte	0
 11005 01fa 00       		.byte	0
 11006 01fb 20       		.uleb128 0x20
 11007 01fc 2E       		.uleb128 0x2e
 11008 01fd 01       		.byte	0x1
 11009 01fe 3F       		.uleb128 0x3f
 11010 01ff 19       		.uleb128 0x19
 11011 0200 03       		.uleb128 0x3
 11012 0201 0E       		.uleb128 0xe
 11013 0202 3A       		.uleb128 0x3a
 11014 0203 0B       		.uleb128 0xb
 11015 0204 3B       		.uleb128 0x3b
 11016 0205 0B       		.uleb128 0xb
 11017 0206 6E       		.uleb128 0x6e
 11018 0207 0E       		.uleb128 0xe
 11019 0208 49       		.uleb128 0x49
 11020 0209 13       		.uleb128 0x13
 11021 020a 32       		.uleb128 0x32
 11022 020b 0B       		.uleb128 0xb
 11023 020c 3C       		.uleb128 0x3c
 11024 020d 19       		.uleb128 0x19
 11025 020e 01       		.uleb128 0x1
 11026 020f 13       		.uleb128 0x13
 11027 0210 00       		.byte	0
 11028 0211 00       		.byte	0
 11029 0212 21       		.uleb128 0x21
 11030 0213 2E       		.uleb128 0x2e
 11031 0214 01       		.byte	0x1
 11032 0215 3F       		.uleb128 0x3f
 11033 0216 19       		.uleb128 0x19
 11034 0217 03       		.uleb128 0x3
 11035 0218 0E       		.uleb128 0xe
 11036 0219 3A       		.uleb128 0x3a
 11037 021a 0B       		.uleb128 0xb
 11038 021b 3B       		.uleb128 0x3b
 11039 021c 0B       		.uleb128 0xb
 11040 021d 6E       		.uleb128 0x6e
 11041 021e 0E       		.uleb128 0xe
 11042 021f 49       		.uleb128 0x49
 11043 0220 13       		.uleb128 0x13
 11044 0221 32       		.uleb128 0x32
 11045 0222 0B       		.uleb128 0xb
 11046 0223 3C       		.uleb128 0x3c
 11047 0224 19       		.uleb128 0x19
 11048 0225 00       		.byte	0
 11049 0226 00       		.byte	0
 11050 0227 22       		.uleb128 0x22
 11051 0228 2F       		.uleb128 0x2f
 11052 0229 00       		.byte	0
 11053 022a 03       		.uleb128 0x3
 11054 022b 0E       		.uleb128 0xe
 11055 022c 49       		.uleb128 0x49
ARM GAS  /tmp/ccyYK6L9.s 			page 195


 11056 022d 13       		.uleb128 0x13
 11057 022e 00       		.byte	0
 11058 022f 00       		.byte	0
 11059 0230 23       		.uleb128 0x23
 11060 0231 2E       		.uleb128 0x2e
 11061 0232 01       		.byte	0x1
 11062 0233 3F       		.uleb128 0x3f
 11063 0234 19       		.uleb128 0x19
 11064 0235 03       		.uleb128 0x3
 11065 0236 0E       		.uleb128 0xe
 11066 0237 49       		.uleb128 0x49
 11067 0238 13       		.uleb128 0x13
 11068 0239 34       		.uleb128 0x34
 11069 023a 19       		.uleb128 0x19
 11070 023b 32       		.uleb128 0x32
 11071 023c 0B       		.uleb128 0xb
 11072 023d 3C       		.uleb128 0x3c
 11073 023e 19       		.uleb128 0x19
 11074 023f 64       		.uleb128 0x64
 11075 0240 13       		.uleb128 0x13
 11076 0241 00       		.byte	0
 11077 0242 00       		.byte	0
 11078 0243 24       		.uleb128 0x24
 11079 0244 0D       		.uleb128 0xd
 11080 0245 00       		.byte	0
 11081 0246 03       		.uleb128 0x3
 11082 0247 0E       		.uleb128 0xe
 11083 0248 3A       		.uleb128 0x3a
 11084 0249 0B       		.uleb128 0xb
 11085 024a 3B       		.uleb128 0x3b
 11086 024b 05       		.uleb128 0x5
 11087 024c 49       		.uleb128 0x49
 11088 024d 13       		.uleb128 0x13
 11089 024e 38       		.uleb128 0x38
 11090 024f 0B       		.uleb128 0xb
 11091 0250 00       		.byte	0
 11092 0251 00       		.byte	0
 11093 0252 25       		.uleb128 0x25
 11094 0253 02       		.uleb128 0x2
 11095 0254 00       		.byte	0
 11096 0255 03       		.uleb128 0x3
 11097 0256 0E       		.uleb128 0xe
 11098 0257 3C       		.uleb128 0x3c
 11099 0258 19       		.uleb128 0x19
 11100 0259 00       		.byte	0
 11101 025a 00       		.byte	0
 11102 025b 26       		.uleb128 0x26
 11103 025c 16       		.uleb128 0x16
 11104 025d 00       		.byte	0
 11105 025e 03       		.uleb128 0x3
 11106 025f 0E       		.uleb128 0xe
 11107 0260 3A       		.uleb128 0x3a
 11108 0261 0B       		.uleb128 0xb
 11109 0262 3B       		.uleb128 0x3b
 11110 0263 05       		.uleb128 0x5
 11111 0264 49       		.uleb128 0x49
 11112 0265 13       		.uleb128 0x13
ARM GAS  /tmp/ccyYK6L9.s 			page 196


 11113 0266 00       		.byte	0
 11114 0267 00       		.byte	0
 11115 0268 27       		.uleb128 0x27
 11116 0269 2E       		.uleb128 0x2e
 11117 026a 01       		.byte	0x1
 11118 026b 3F       		.uleb128 0x3f
 11119 026c 19       		.uleb128 0x19
 11120 026d 03       		.uleb128 0x3
 11121 026e 0E       		.uleb128 0xe
 11122 026f 3A       		.uleb128 0x3a
 11123 0270 0B       		.uleb128 0xb
 11124 0271 3B       		.uleb128 0x3b
 11125 0272 05       		.uleb128 0x5
 11126 0273 6E       		.uleb128 0x6e
 11127 0274 0E       		.uleb128 0xe
 11128 0275 49       		.uleb128 0x49
 11129 0276 13       		.uleb128 0x13
 11130 0277 32       		.uleb128 0x32
 11131 0278 0B       		.uleb128 0xb
 11132 0279 3C       		.uleb128 0x3c
 11133 027a 19       		.uleb128 0x19
 11134 027b 64       		.uleb128 0x64
 11135 027c 13       		.uleb128 0x13
 11136 027d 01       		.uleb128 0x1
 11137 027e 13       		.uleb128 0x13
 11138 027f 00       		.byte	0
 11139 0280 00       		.byte	0
 11140 0281 28       		.uleb128 0x28
 11141 0282 2E       		.uleb128 0x2e
 11142 0283 01       		.byte	0x1
 11143 0284 3F       		.uleb128 0x3f
 11144 0285 19       		.uleb128 0x19
 11145 0286 03       		.uleb128 0x3
 11146 0287 0E       		.uleb128 0xe
 11147 0288 3A       		.uleb128 0x3a
 11148 0289 0B       		.uleb128 0xb
 11149 028a 3B       		.uleb128 0x3b
 11150 028b 05       		.uleb128 0x5
 11151 028c 6E       		.uleb128 0x6e
 11152 028d 0E       		.uleb128 0xe
 11153 028e 32       		.uleb128 0x32
 11154 028f 0B       		.uleb128 0xb
 11155 0290 3C       		.uleb128 0x3c
 11156 0291 19       		.uleb128 0x19
 11157 0292 64       		.uleb128 0x64
 11158 0293 13       		.uleb128 0x13
 11159 0294 01       		.uleb128 0x1
 11160 0295 13       		.uleb128 0x13
 11161 0296 00       		.byte	0
 11162 0297 00       		.byte	0
 11163 0298 29       		.uleb128 0x29
 11164 0299 2E       		.uleb128 0x2e
 11165 029a 01       		.byte	0x1
 11166 029b 3F       		.uleb128 0x3f
 11167 029c 19       		.uleb128 0x19
 11168 029d 03       		.uleb128 0x3
 11169 029e 08       		.uleb128 0x8
ARM GAS  /tmp/ccyYK6L9.s 			page 197


 11170 029f 3A       		.uleb128 0x3a
 11171 02a0 0B       		.uleb128 0xb
 11172 02a1 3B       		.uleb128 0x3b
 11173 02a2 05       		.uleb128 0x5
 11174 02a3 6E       		.uleb128 0x6e
 11175 02a4 0E       		.uleb128 0xe
 11176 02a5 49       		.uleb128 0x49
 11177 02a6 13       		.uleb128 0x13
 11178 02a7 32       		.uleb128 0x32
 11179 02a8 0B       		.uleb128 0xb
 11180 02a9 3C       		.uleb128 0x3c
 11181 02aa 19       		.uleb128 0x19
 11182 02ab 64       		.uleb128 0x64
 11183 02ac 13       		.uleb128 0x13
 11184 02ad 01       		.uleb128 0x1
 11185 02ae 13       		.uleb128 0x13
 11186 02af 00       		.byte	0
 11187 02b0 00       		.byte	0
 11188 02b1 2A       		.uleb128 0x2a
 11189 02b2 2E       		.uleb128 0x2e
 11190 02b3 01       		.byte	0x1
 11191 02b4 3F       		.uleb128 0x3f
 11192 02b5 19       		.uleb128 0x19
 11193 02b6 03       		.uleb128 0x3
 11194 02b7 0E       		.uleb128 0xe
 11195 02b8 3A       		.uleb128 0x3a
 11196 02b9 0B       		.uleb128 0xb
 11197 02ba 3B       		.uleb128 0x3b
 11198 02bb 05       		.uleb128 0x5
 11199 02bc 49       		.uleb128 0x49
 11200 02bd 13       		.uleb128 0x13
 11201 02be 32       		.uleb128 0x32
 11202 02bf 0B       		.uleb128 0xb
 11203 02c0 3C       		.uleb128 0x3c
 11204 02c1 19       		.uleb128 0x19
 11205 02c2 64       		.uleb128 0x64
 11206 02c3 13       		.uleb128 0x13
 11207 02c4 01       		.uleb128 0x1
 11208 02c5 13       		.uleb128 0x13
 11209 02c6 00       		.byte	0
 11210 02c7 00       		.byte	0
 11211 02c8 2B       		.uleb128 0x2b
 11212 02c9 2E       		.uleb128 0x2e
 11213 02ca 01       		.byte	0x1
 11214 02cb 3F       		.uleb128 0x3f
 11215 02cc 19       		.uleb128 0x19
 11216 02cd 03       		.uleb128 0x3
 11217 02ce 0E       		.uleb128 0xe
 11218 02cf 49       		.uleb128 0x49
 11219 02d0 13       		.uleb128 0x13
 11220 02d1 34       		.uleb128 0x34
 11221 02d2 19       		.uleb128 0x19
 11222 02d3 32       		.uleb128 0x32
 11223 02d4 0B       		.uleb128 0xb
 11224 02d5 3C       		.uleb128 0x3c
 11225 02d6 19       		.uleb128 0x19
 11226 02d7 64       		.uleb128 0x64
ARM GAS  /tmp/ccyYK6L9.s 			page 198


 11227 02d8 13       		.uleb128 0x13
 11228 02d9 01       		.uleb128 0x1
 11229 02da 13       		.uleb128 0x13
 11230 02db 00       		.byte	0
 11231 02dc 00       		.byte	0
 11232 02dd 2C       		.uleb128 0x2c
 11233 02de 02       		.uleb128 0x2
 11234 02df 01       		.byte	0x1
 11235 02e0 03       		.uleb128 0x3
 11236 02e1 0E       		.uleb128 0xe
 11237 02e2 0B       		.uleb128 0xb
 11238 02e3 0B       		.uleb128 0xb
 11239 02e4 3A       		.uleb128 0x3a
 11240 02e5 0B       		.uleb128 0xb
 11241 02e6 3B       		.uleb128 0x3b
 11242 02e7 0B       		.uleb128 0xb
 11243 02e8 1D       		.uleb128 0x1d
 11244 02e9 13       		.uleb128 0x13
 11245 02ea 01       		.uleb128 0x1
 11246 02eb 13       		.uleb128 0x13
 11247 02ec 00       		.byte	0
 11248 02ed 00       		.byte	0
 11249 02ee 2D       		.uleb128 0x2d
 11250 02ef 0D       		.uleb128 0xd
 11251 02f0 00       		.byte	0
 11252 02f1 03       		.uleb128 0x3
 11253 02f2 0E       		.uleb128 0xe
 11254 02f3 49       		.uleb128 0x49
 11255 02f4 13       		.uleb128 0x13
 11256 02f5 38       		.uleb128 0x38
 11257 02f6 0B       		.uleb128 0xb
 11258 02f7 34       		.uleb128 0x34
 11259 02f8 19       		.uleb128 0x19
 11260 02f9 32       		.uleb128 0x32
 11261 02fa 0B       		.uleb128 0xb
 11262 02fb 00       		.byte	0
 11263 02fc 00       		.byte	0
 11264 02fd 2E       		.uleb128 0x2e
 11265 02fe 0D       		.uleb128 0xd
 11266 02ff 00       		.byte	0
 11267 0300 03       		.uleb128 0x3
 11268 0301 0E       		.uleb128 0xe
 11269 0302 3A       		.uleb128 0x3a
 11270 0303 0B       		.uleb128 0xb
 11271 0304 3B       		.uleb128 0x3b
 11272 0305 0B       		.uleb128 0xb
 11273 0306 49       		.uleb128 0x49
 11274 0307 13       		.uleb128 0x13
 11275 0308 38       		.uleb128 0x38
 11276 0309 0B       		.uleb128 0xb
 11277 030a 32       		.uleb128 0x32
 11278 030b 0B       		.uleb128 0xb
 11279 030c 00       		.byte	0
 11280 030d 00       		.byte	0
 11281 030e 2F       		.uleb128 0x2f
 11282 030f 2E       		.uleb128 0x2e
 11283 0310 01       		.byte	0x1
ARM GAS  /tmp/ccyYK6L9.s 			page 199


 11284 0311 3F       		.uleb128 0x3f
 11285 0312 19       		.uleb128 0x19
 11286 0313 03       		.uleb128 0x3
 11287 0314 0E       		.uleb128 0xe
 11288 0315 3A       		.uleb128 0x3a
 11289 0316 0B       		.uleb128 0xb
 11290 0317 3B       		.uleb128 0x3b
 11291 0318 0B       		.uleb128 0xb
 11292 0319 6E       		.uleb128 0x6e
 11293 031a 0E       		.uleb128 0xe
 11294 031b 4C       		.uleb128 0x4c
 11295 031c 0B       		.uleb128 0xb
 11296 031d 4D       		.uleb128 0x4d
 11297 031e 18       		.uleb128 0x18
 11298 031f 1D       		.uleb128 0x1d
 11299 0320 13       		.uleb128 0x13
 11300 0321 32       		.uleb128 0x32
 11301 0322 0B       		.uleb128 0xb
 11302 0323 3C       		.uleb128 0x3c
 11303 0324 19       		.uleb128 0x19
 11304 0325 64       		.uleb128 0x64
 11305 0326 13       		.uleb128 0x13
 11306 0327 01       		.uleb128 0x1
 11307 0328 13       		.uleb128 0x13
 11308 0329 00       		.byte	0
 11309 032a 00       		.byte	0
 11310 032b 30       		.uleb128 0x30
 11311 032c 2E       		.uleb128 0x2e
 11312 032d 01       		.byte	0x1
 11313 032e 3F       		.uleb128 0x3f
 11314 032f 19       		.uleb128 0x19
 11315 0330 03       		.uleb128 0x3
 11316 0331 0E       		.uleb128 0xe
 11317 0332 3A       		.uleb128 0x3a
 11318 0333 0B       		.uleb128 0xb
 11319 0334 3B       		.uleb128 0x3b
 11320 0335 0B       		.uleb128 0xb
 11321 0336 6E       		.uleb128 0x6e
 11322 0337 0E       		.uleb128 0xe
 11323 0338 49       		.uleb128 0x49
 11324 0339 13       		.uleb128 0x13
 11325 033a 4C       		.uleb128 0x4c
 11326 033b 0B       		.uleb128 0xb
 11327 033c 4D       		.uleb128 0x4d
 11328 033d 18       		.uleb128 0x18
 11329 033e 1D       		.uleb128 0x1d
 11330 033f 13       		.uleb128 0x13
 11331 0340 32       		.uleb128 0x32
 11332 0341 0B       		.uleb128 0xb
 11333 0342 3C       		.uleb128 0x3c
 11334 0343 19       		.uleb128 0x19
 11335 0344 64       		.uleb128 0x64
 11336 0345 13       		.uleb128 0x13
 11337 0346 01       		.uleb128 0x1
 11338 0347 13       		.uleb128 0x13
 11339 0348 00       		.byte	0
 11340 0349 00       		.byte	0
ARM GAS  /tmp/ccyYK6L9.s 			page 200


 11341 034a 31       		.uleb128 0x31
 11342 034b 2E       		.uleb128 0x2e
 11343 034c 01       		.byte	0x1
 11344 034d 3F       		.uleb128 0x3f
 11345 034e 19       		.uleb128 0x19
 11346 034f 03       		.uleb128 0x3
 11347 0350 0E       		.uleb128 0xe
 11348 0351 3A       		.uleb128 0x3a
 11349 0352 0B       		.uleb128 0xb
 11350 0353 3B       		.uleb128 0x3b
 11351 0354 0B       		.uleb128 0xb
 11352 0355 49       		.uleb128 0x49
 11353 0356 13       		.uleb128 0x13
 11354 0357 4C       		.uleb128 0x4c
 11355 0358 0B       		.uleb128 0xb
 11356 0359 1D       		.uleb128 0x1d
 11357 035a 13       		.uleb128 0x13
 11358 035b 32       		.uleb128 0x32
 11359 035c 0B       		.uleb128 0xb
 11360 035d 3C       		.uleb128 0x3c
 11361 035e 19       		.uleb128 0x19
 11362 035f 64       		.uleb128 0x64
 11363 0360 13       		.uleb128 0x13
 11364 0361 01       		.uleb128 0x1
 11365 0362 13       		.uleb128 0x13
 11366 0363 00       		.byte	0
 11367 0364 00       		.byte	0
 11368 0365 32       		.uleb128 0x32
 11369 0366 13       		.uleb128 0x13
 11370 0367 00       		.byte	0
 11371 0368 03       		.uleb128 0x3
 11372 0369 0E       		.uleb128 0xe
 11373 036a 3C       		.uleb128 0x3c
 11374 036b 19       		.uleb128 0x19
 11375 036c 00       		.byte	0
 11376 036d 00       		.byte	0
 11377 036e 33       		.uleb128 0x33
 11378 036f 02       		.uleb128 0x2
 11379 0370 01       		.byte	0x1
 11380 0371 03       		.uleb128 0x3
 11381 0372 0E       		.uleb128 0xe
 11382 0373 0B       		.uleb128 0xb
 11383 0374 0B       		.uleb128 0xb
 11384 0375 3A       		.uleb128 0x3a
 11385 0376 0B       		.uleb128 0xb
 11386 0377 3B       		.uleb128 0x3b
 11387 0378 0B       		.uleb128 0xb
 11388 0379 32       		.uleb128 0x32
 11389 037a 0B       		.uleb128 0xb
 11390 037b 01       		.uleb128 0x1
 11391 037c 13       		.uleb128 0x13
 11392 037d 00       		.byte	0
 11393 037e 00       		.byte	0
 11394 037f 34       		.uleb128 0x34
 11395 0380 2E       		.uleb128 0x2e
 11396 0381 01       		.byte	0x1
 11397 0382 3F       		.uleb128 0x3f
ARM GAS  /tmp/ccyYK6L9.s 			page 201


 11398 0383 19       		.uleb128 0x19
 11399 0384 03       		.uleb128 0x3
 11400 0385 0E       		.uleb128 0xe
 11401 0386 3A       		.uleb128 0x3a
 11402 0387 0B       		.uleb128 0xb
 11403 0388 3B       		.uleb128 0x3b
 11404 0389 0B       		.uleb128 0xb
 11405 038a 6E       		.uleb128 0x6e
 11406 038b 0E       		.uleb128 0xe
 11407 038c 49       		.uleb128 0x49
 11408 038d 13       		.uleb128 0x13
 11409 038e 32       		.uleb128 0x32
 11410 038f 0B       		.uleb128 0xb
 11411 0390 3C       		.uleb128 0x3c
 11412 0391 19       		.uleb128 0x19
 11413 0392 64       		.uleb128 0x64
 11414 0393 13       		.uleb128 0x13
 11415 0394 00       		.byte	0
 11416 0395 00       		.byte	0
 11417 0396 35       		.uleb128 0x35
 11418 0397 2E       		.uleb128 0x2e
 11419 0398 01       		.byte	0x1
 11420 0399 3F       		.uleb128 0x3f
 11421 039a 19       		.uleb128 0x19
 11422 039b 03       		.uleb128 0x3
 11423 039c 0E       		.uleb128 0xe
 11424 039d 3A       		.uleb128 0x3a
 11425 039e 0B       		.uleb128 0xb
 11426 039f 3B       		.uleb128 0x3b
 11427 03a0 0B       		.uleb128 0xb
 11428 03a1 6E       		.uleb128 0x6e
 11429 03a2 0E       		.uleb128 0xe
 11430 03a3 3C       		.uleb128 0x3c
 11431 03a4 19       		.uleb128 0x19
 11432 03a5 64       		.uleb128 0x64
 11433 03a6 13       		.uleb128 0x13
 11434 03a7 01       		.uleb128 0x1
 11435 03a8 13       		.uleb128 0x13
 11436 03a9 00       		.byte	0
 11437 03aa 00       		.byte	0
 11438 03ab 36       		.uleb128 0x36
 11439 03ac 02       		.uleb128 0x2
 11440 03ad 01       		.byte	0x1
 11441 03ae 03       		.uleb128 0x3
 11442 03af 0E       		.uleb128 0xe
 11443 03b0 3C       		.uleb128 0x3c
 11444 03b1 19       		.uleb128 0x19
 11445 03b2 01       		.uleb128 0x1
 11446 03b3 13       		.uleb128 0x13
 11447 03b4 00       		.byte	0
 11448 03b5 00       		.byte	0
 11449 03b6 37       		.uleb128 0x37
 11450 03b7 2E       		.uleb128 0x2e
 11451 03b8 01       		.byte	0x1
 11452 03b9 3F       		.uleb128 0x3f
 11453 03ba 19       		.uleb128 0x19
 11454 03bb 03       		.uleb128 0x3
ARM GAS  /tmp/ccyYK6L9.s 			page 202


 11455 03bc 0E       		.uleb128 0xe
 11456 03bd 3A       		.uleb128 0x3a
 11457 03be 0B       		.uleb128 0xb
 11458 03bf 3B       		.uleb128 0x3b
 11459 03c0 0B       		.uleb128 0xb
 11460 03c1 6E       		.uleb128 0x6e
 11461 03c2 0E       		.uleb128 0xe
 11462 03c3 32       		.uleb128 0x32
 11463 03c4 0B       		.uleb128 0xb
 11464 03c5 3C       		.uleb128 0x3c
 11465 03c6 19       		.uleb128 0x19
 11466 03c7 64       		.uleb128 0x64
 11467 03c8 13       		.uleb128 0x13
 11468 03c9 00       		.byte	0
 11469 03ca 00       		.byte	0
 11470 03cb 38       		.uleb128 0x38
 11471 03cc 10       		.uleb128 0x10
 11472 03cd 00       		.byte	0
 11473 03ce 0B       		.uleb128 0xb
 11474 03cf 0B       		.uleb128 0xb
 11475 03d0 49       		.uleb128 0x49
 11476 03d1 13       		.uleb128 0x13
 11477 03d2 00       		.byte	0
 11478 03d3 00       		.byte	0
 11479 03d4 39       		.uleb128 0x39
 11480 03d5 13       		.uleb128 0x13
 11481 03d6 01       		.byte	0x1
 11482 03d7 03       		.uleb128 0x3
 11483 03d8 0E       		.uleb128 0xe
 11484 03d9 0B       		.uleb128 0xb
 11485 03da 0B       		.uleb128 0xb
 11486 03db 3A       		.uleb128 0x3a
 11487 03dc 0B       		.uleb128 0xb
 11488 03dd 3B       		.uleb128 0x3b
 11489 03de 0B       		.uleb128 0xb
 11490 03df 01       		.uleb128 0x1
 11491 03e0 13       		.uleb128 0x13
 11492 03e1 00       		.byte	0
 11493 03e2 00       		.byte	0
 11494 03e3 3A       		.uleb128 0x3a
 11495 03e4 17       		.uleb128 0x17
 11496 03e5 01       		.byte	0x1
 11497 03e6 0B       		.uleb128 0xb
 11498 03e7 0B       		.uleb128 0xb
 11499 03e8 3A       		.uleb128 0x3a
 11500 03e9 0B       		.uleb128 0xb
 11501 03ea 3B       		.uleb128 0x3b
 11502 03eb 0B       		.uleb128 0xb
 11503 03ec 01       		.uleb128 0x1
 11504 03ed 13       		.uleb128 0x13
 11505 03ee 00       		.byte	0
 11506 03ef 00       		.byte	0
 11507 03f0 3B       		.uleb128 0x3b
 11508 03f1 0D       		.uleb128 0xd
 11509 03f2 00       		.byte	0
 11510 03f3 03       		.uleb128 0x3
 11511 03f4 0E       		.uleb128 0xe
ARM GAS  /tmp/ccyYK6L9.s 			page 203


 11512 03f5 3A       		.uleb128 0x3a
 11513 03f6 0B       		.uleb128 0xb
 11514 03f7 3B       		.uleb128 0x3b
 11515 03f8 0B       		.uleb128 0xb
 11516 03f9 49       		.uleb128 0x49
 11517 03fa 13       		.uleb128 0x13
 11518 03fb 00       		.byte	0
 11519 03fc 00       		.byte	0
 11520 03fd 3C       		.uleb128 0x3c
 11521 03fe 0D       		.uleb128 0xd
 11522 03ff 00       		.byte	0
 11523 0400 03       		.uleb128 0x3
 11524 0401 08       		.uleb128 0x8
 11525 0402 3A       		.uleb128 0x3a
 11526 0403 0B       		.uleb128 0xb
 11527 0404 3B       		.uleb128 0x3b
 11528 0405 0B       		.uleb128 0xb
 11529 0406 49       		.uleb128 0x49
 11530 0407 13       		.uleb128 0x13
 11531 0408 38       		.uleb128 0x38
 11532 0409 0B       		.uleb128 0xb
 11533 040a 00       		.byte	0
 11534 040b 00       		.byte	0
 11535 040c 3D       		.uleb128 0x3d
 11536 040d 13       		.uleb128 0x13
 11537 040e 01       		.byte	0x1
 11538 040f 0B       		.uleb128 0xb
 11539 0410 0B       		.uleb128 0xb
 11540 0411 3A       		.uleb128 0x3a
 11541 0412 0B       		.uleb128 0xb
 11542 0413 3B       		.uleb128 0x3b
 11543 0414 0B       		.uleb128 0xb
 11544 0415 6E       		.uleb128 0x6e
 11545 0416 0E       		.uleb128 0xe
 11546 0417 01       		.uleb128 0x1
 11547 0418 13       		.uleb128 0x13
 11548 0419 00       		.byte	0
 11549 041a 00       		.byte	0
 11550 041b 3E       		.uleb128 0x3e
 11551 041c 13       		.uleb128 0x13
 11552 041d 01       		.byte	0x1
 11553 041e 03       		.uleb128 0x3
 11554 041f 0E       		.uleb128 0xe
 11555 0420 0B       		.uleb128 0xb
 11556 0421 0B       		.uleb128 0xb
 11557 0422 3A       		.uleb128 0x3a
 11558 0423 0B       		.uleb128 0xb
 11559 0424 3B       		.uleb128 0x3b
 11560 0425 05       		.uleb128 0x5
 11561 0426 01       		.uleb128 0x1
 11562 0427 13       		.uleb128 0x13
 11563 0428 00       		.byte	0
 11564 0429 00       		.byte	0
 11565 042a 3F       		.uleb128 0x3f
 11566 042b 0D       		.uleb128 0xd
 11567 042c 00       		.byte	0
 11568 042d 03       		.uleb128 0x3
ARM GAS  /tmp/ccyYK6L9.s 			page 204


 11569 042e 08       		.uleb128 0x8
 11570 042f 3A       		.uleb128 0x3a
 11571 0430 0B       		.uleb128 0xb
 11572 0431 3B       		.uleb128 0x3b
 11573 0432 05       		.uleb128 0x5
 11574 0433 49       		.uleb128 0x49
 11575 0434 13       		.uleb128 0x13
 11576 0435 38       		.uleb128 0x38
 11577 0436 0B       		.uleb128 0xb
 11578 0437 00       		.byte	0
 11579 0438 00       		.byte	0
 11580 0439 40       		.uleb128 0x40
 11581 043a 35       		.uleb128 0x35
 11582 043b 00       		.byte	0
 11583 043c 49       		.uleb128 0x49
 11584 043d 13       		.uleb128 0x13
 11585 043e 00       		.byte	0
 11586 043f 00       		.byte	0
 11587 0440 41       		.uleb128 0x41
 11588 0441 15       		.uleb128 0x15
 11589 0442 01       		.byte	0x1
 11590 0443 49       		.uleb128 0x49
 11591 0444 13       		.uleb128 0x13
 11592 0445 01       		.uleb128 0x1
 11593 0446 13       		.uleb128 0x13
 11594 0447 00       		.byte	0
 11595 0448 00       		.byte	0
 11596 0449 42       		.uleb128 0x42
 11597 044a 26       		.uleb128 0x26
 11598 044b 00       		.byte	0
 11599 044c 00       		.byte	0
 11600 044d 00       		.byte	0
 11601 044e 43       		.uleb128 0x43
 11602 044f 18       		.uleb128 0x18
 11603 0450 00       		.byte	0
 11604 0451 00       		.byte	0
 11605 0452 00       		.byte	0
 11606 0453 44       		.uleb128 0x44
 11607 0454 0F       		.uleb128 0xf
 11608 0455 00       		.byte	0
 11609 0456 0B       		.uleb128 0xb
 11610 0457 0B       		.uleb128 0xb
 11611 0458 03       		.uleb128 0x3
 11612 0459 0E       		.uleb128 0xe
 11613 045a 49       		.uleb128 0x49
 11614 045b 13       		.uleb128 0x13
 11615 045c 00       		.byte	0
 11616 045d 00       		.byte	0
 11617 045e 45       		.uleb128 0x45
 11618 045f 2E       		.uleb128 0x2e
 11619 0460 01       		.byte	0x1
 11620 0461 47       		.uleb128 0x47
 11621 0462 13       		.uleb128 0x13
 11622 0463 20       		.uleb128 0x20
 11623 0464 0B       		.uleb128 0xb
 11624 0465 64       		.uleb128 0x64
 11625 0466 13       		.uleb128 0x13
ARM GAS  /tmp/ccyYK6L9.s 			page 205


 11626 0467 01       		.uleb128 0x1
 11627 0468 13       		.uleb128 0x13
 11628 0469 00       		.byte	0
 11629 046a 00       		.byte	0
 11630 046b 46       		.uleb128 0x46
 11631 046c 05       		.uleb128 0x5
 11632 046d 00       		.byte	0
 11633 046e 03       		.uleb128 0x3
 11634 046f 0E       		.uleb128 0xe
 11635 0470 49       		.uleb128 0x49
 11636 0471 13       		.uleb128 0x13
 11637 0472 34       		.uleb128 0x34
 11638 0473 19       		.uleb128 0x19
 11639 0474 00       		.byte	0
 11640 0475 00       		.byte	0
 11641 0476 47       		.uleb128 0x47
 11642 0477 2E       		.uleb128 0x2e
 11643 0478 01       		.byte	0x1
 11644 0479 31       		.uleb128 0x31
 11645 047a 13       		.uleb128 0x13
 11646 047b 6E       		.uleb128 0x6e
 11647 047c 0E       		.uleb128 0xe
 11648 047d 11       		.uleb128 0x11
 11649 047e 01       		.uleb128 0x1
 11650 047f 12       		.uleb128 0x12
 11651 0480 06       		.uleb128 0x6
 11652 0481 40       		.uleb128 0x40
 11653 0482 18       		.uleb128 0x18
 11654 0483 64       		.uleb128 0x64
 11655 0484 13       		.uleb128 0x13
 11656 0485 9742     		.uleb128 0x2117
 11657 0487 19       		.uleb128 0x19
 11658 0488 01       		.uleb128 0x1
 11659 0489 13       		.uleb128 0x13
 11660 048a 00       		.byte	0
 11661 048b 00       		.byte	0
 11662 048c 48       		.uleb128 0x48
 11663 048d 05       		.uleb128 0x5
 11664 048e 00       		.byte	0
 11665 048f 31       		.uleb128 0x31
 11666 0490 13       		.uleb128 0x13
 11667 0491 02       		.uleb128 0x2
 11668 0492 18       		.uleb128 0x18
 11669 0493 00       		.byte	0
 11670 0494 00       		.byte	0
 11671 0495 49       		.uleb128 0x49
 11672 0496 2E       		.uleb128 0x2e
 11673 0497 01       		.byte	0x1
 11674 0498 47       		.uleb128 0x47
 11675 0499 13       		.uleb128 0x13
 11676 049a 3B       		.uleb128 0x3b
 11677 049b 0B       		.uleb128 0xb
 11678 049c 11       		.uleb128 0x11
 11679 049d 01       		.uleb128 0x1
 11680 049e 12       		.uleb128 0x12
 11681 049f 06       		.uleb128 0x6
 11682 04a0 40       		.uleb128 0x40
ARM GAS  /tmp/ccyYK6L9.s 			page 206


 11683 04a1 18       		.uleb128 0x18
 11684 04a2 9642     		.uleb128 0x2116
 11685 04a4 19       		.uleb128 0x19
 11686 04a5 01       		.uleb128 0x1
 11687 04a6 13       		.uleb128 0x13
 11688 04a7 00       		.byte	0
 11689 04a8 00       		.byte	0
 11690 04a9 4A       		.uleb128 0x4a
 11691 04aa 0B       		.uleb128 0xb
 11692 04ab 01       		.byte	0x1
 11693 04ac 11       		.uleb128 0x11
 11694 04ad 01       		.uleb128 0x1
 11695 04ae 12       		.uleb128 0x12
 11696 04af 06       		.uleb128 0x6
 11697 04b0 00       		.byte	0
 11698 04b1 00       		.byte	0
 11699 04b2 4B       		.uleb128 0x4b
 11700 04b3 34       		.uleb128 0x34
 11701 04b4 00       		.byte	0
 11702 04b5 03       		.uleb128 0x3
 11703 04b6 08       		.uleb128 0x8
 11704 04b7 3A       		.uleb128 0x3a
 11705 04b8 0B       		.uleb128 0xb
 11706 04b9 3B       		.uleb128 0x3b
 11707 04ba 0B       		.uleb128 0xb
 11708 04bb 49       		.uleb128 0x49
 11709 04bc 13       		.uleb128 0x13
 11710 04bd 02       		.uleb128 0x2
 11711 04be 18       		.uleb128 0x18
 11712 04bf 00       		.byte	0
 11713 04c0 00       		.byte	0
 11714 04c1 4C       		.uleb128 0x4c
 11715 04c2 2E       		.uleb128 0x2e
 11716 04c3 00       		.byte	0
 11717 04c4 47       		.uleb128 0x47
 11718 04c5 13       		.uleb128 0x13
 11719 04c6 3B       		.uleb128 0x3b
 11720 04c7 0B       		.uleb128 0xb
 11721 04c8 11       		.uleb128 0x11
 11722 04c9 01       		.uleb128 0x1
 11723 04ca 12       		.uleb128 0x12
 11724 04cb 06       		.uleb128 0x6
 11725 04cc 40       		.uleb128 0x40
 11726 04cd 18       		.uleb128 0x18
 11727 04ce 9642     		.uleb128 0x2116
 11728 04d0 19       		.uleb128 0x19
 11729 04d1 00       		.byte	0
 11730 04d2 00       		.byte	0
 11731 04d3 4D       		.uleb128 0x4d
 11732 04d4 2E       		.uleb128 0x2e
 11733 04d5 01       		.byte	0x1
 11734 04d6 47       		.uleb128 0x47
 11735 04d7 13       		.uleb128 0x13
 11736 04d8 3B       		.uleb128 0x3b
 11737 04d9 0B       		.uleb128 0xb
 11738 04da 20       		.uleb128 0x20
 11739 04db 0B       		.uleb128 0xb
ARM GAS  /tmp/ccyYK6L9.s 			page 207


 11740 04dc 64       		.uleb128 0x64
 11741 04dd 13       		.uleb128 0x13
 11742 04de 01       		.uleb128 0x1
 11743 04df 13       		.uleb128 0x13
 11744 04e0 00       		.byte	0
 11745 04e1 00       		.byte	0
 11746 04e2 4E       		.uleb128 0x4e
 11747 04e3 2E       		.uleb128 0x2e
 11748 04e4 01       		.byte	0x1
 11749 04e5 31       		.uleb128 0x31
 11750 04e6 13       		.uleb128 0x13
 11751 04e7 6E       		.uleb128 0x6e
 11752 04e8 0E       		.uleb128 0xe
 11753 04e9 11       		.uleb128 0x11
 11754 04ea 01       		.uleb128 0x1
 11755 04eb 12       		.uleb128 0x12
 11756 04ec 06       		.uleb128 0x6
 11757 04ed 40       		.uleb128 0x40
 11758 04ee 18       		.uleb128 0x18
 11759 04ef 64       		.uleb128 0x64
 11760 04f0 13       		.uleb128 0x13
 11761 04f1 9642     		.uleb128 0x2116
 11762 04f3 19       		.uleb128 0x19
 11763 04f4 01       		.uleb128 0x1
 11764 04f5 13       		.uleb128 0x13
 11765 04f6 00       		.byte	0
 11766 04f7 00       		.byte	0
 11767 04f8 4F       		.uleb128 0x4f
 11768 04f9 2E       		.uleb128 0x2e
 11769 04fa 01       		.byte	0x1
 11770 04fb 47       		.uleb128 0x47
 11771 04fc 13       		.uleb128 0x13
 11772 04fd 3B       		.uleb128 0x3b
 11773 04fe 0B       		.uleb128 0xb
 11774 04ff 11       		.uleb128 0x11
 11775 0500 01       		.uleb128 0x1
 11776 0501 12       		.uleb128 0x12
 11777 0502 06       		.uleb128 0x6
 11778 0503 40       		.uleb128 0x40
 11779 0504 18       		.uleb128 0x18
 11780 0505 64       		.uleb128 0x64
 11781 0506 13       		.uleb128 0x13
 11782 0507 9642     		.uleb128 0x2116
 11783 0509 19       		.uleb128 0x19
 11784 050a 01       		.uleb128 0x1
 11785 050b 13       		.uleb128 0x13
 11786 050c 00       		.byte	0
 11787 050d 00       		.byte	0
 11788 050e 50       		.uleb128 0x50
 11789 050f 05       		.uleb128 0x5
 11790 0510 00       		.byte	0
 11791 0511 03       		.uleb128 0x3
 11792 0512 0E       		.uleb128 0xe
 11793 0513 49       		.uleb128 0x49
 11794 0514 13       		.uleb128 0x13
 11795 0515 34       		.uleb128 0x34
 11796 0516 19       		.uleb128 0x19
ARM GAS  /tmp/ccyYK6L9.s 			page 208


 11797 0517 02       		.uleb128 0x2
 11798 0518 18       		.uleb128 0x18
 11799 0519 00       		.byte	0
 11800 051a 00       		.byte	0
 11801 051b 51       		.uleb128 0x51
 11802 051c 2E       		.uleb128 0x2e
 11803 051d 01       		.byte	0x1
 11804 051e 47       		.uleb128 0x47
 11805 051f 13       		.uleb128 0x13
 11806 0520 3A       		.uleb128 0x3a
 11807 0521 0B       		.uleb128 0xb
 11808 0522 3B       		.uleb128 0x3b
 11809 0523 0B       		.uleb128 0xb
 11810 0524 20       		.uleb128 0x20
 11811 0525 0B       		.uleb128 0xb
 11812 0526 64       		.uleb128 0x64
 11813 0527 13       		.uleb128 0x13
 11814 0528 01       		.uleb128 0x1
 11815 0529 13       		.uleb128 0x13
 11816 052a 00       		.byte	0
 11817 052b 00       		.byte	0
 11818 052c 52       		.uleb128 0x52
 11819 052d 2E       		.uleb128 0x2e
 11820 052e 01       		.byte	0x1
 11821 052f 47       		.uleb128 0x47
 11822 0530 13       		.uleb128 0x13
 11823 0531 3B       		.uleb128 0x3b
 11824 0532 0B       		.uleb128 0xb
 11825 0533 11       		.uleb128 0x11
 11826 0534 01       		.uleb128 0x1
 11827 0535 12       		.uleb128 0x12
 11828 0536 06       		.uleb128 0x6
 11829 0537 40       		.uleb128 0x40
 11830 0538 18       		.uleb128 0x18
 11831 0539 64       		.uleb128 0x64
 11832 053a 13       		.uleb128 0x13
 11833 053b 9742     		.uleb128 0x2117
 11834 053d 19       		.uleb128 0x19
 11835 053e 01       		.uleb128 0x1
 11836 053f 13       		.uleb128 0x13
 11837 0540 00       		.byte	0
 11838 0541 00       		.byte	0
 11839 0542 53       		.uleb128 0x53
 11840 0543 05       		.uleb128 0x5
 11841 0544 00       		.byte	0
 11842 0545 03       		.uleb128 0x3
 11843 0546 0E       		.uleb128 0xe
 11844 0547 3A       		.uleb128 0x3a
 11845 0548 0B       		.uleb128 0xb
 11846 0549 3B       		.uleb128 0x3b
 11847 054a 0B       		.uleb128 0xb
 11848 054b 49       		.uleb128 0x49
 11849 054c 13       		.uleb128 0x13
 11850 054d 02       		.uleb128 0x2
 11851 054e 18       		.uleb128 0x18
 11852 054f 00       		.byte	0
 11853 0550 00       		.byte	0
ARM GAS  /tmp/ccyYK6L9.s 			page 209


 11854 0551 54       		.uleb128 0x54
 11855 0552 2E       		.uleb128 0x2e
 11856 0553 01       		.byte	0x1
 11857 0554 47       		.uleb128 0x47
 11858 0555 13       		.uleb128 0x13
 11859 0556 11       		.uleb128 0x11
 11860 0557 01       		.uleb128 0x1
 11861 0558 12       		.uleb128 0x12
 11862 0559 06       		.uleb128 0x6
 11863 055a 40       		.uleb128 0x40
 11864 055b 18       		.uleb128 0x18
 11865 055c 64       		.uleb128 0x64
 11866 055d 13       		.uleb128 0x13
 11867 055e 9642     		.uleb128 0x2116
 11868 0560 19       		.uleb128 0x19
 11869 0561 01       		.uleb128 0x1
 11870 0562 13       		.uleb128 0x13
 11871 0563 00       		.byte	0
 11872 0564 00       		.byte	0
 11873 0565 55       		.uleb128 0x55
 11874 0566 2E       		.uleb128 0x2e
 11875 0567 01       		.byte	0x1
 11876 0568 47       		.uleb128 0x47
 11877 0569 13       		.uleb128 0x13
 11878 056a 11       		.uleb128 0x11
 11879 056b 01       		.uleb128 0x1
 11880 056c 12       		.uleb128 0x12
 11881 056d 06       		.uleb128 0x6
 11882 056e 40       		.uleb128 0x40
 11883 056f 18       		.uleb128 0x18
 11884 0570 9642     		.uleb128 0x2116
 11885 0572 19       		.uleb128 0x19
 11886 0573 01       		.uleb128 0x1
 11887 0574 13       		.uleb128 0x13
 11888 0575 00       		.byte	0
 11889 0576 00       		.byte	0
 11890 0577 56       		.uleb128 0x56
 11891 0578 05       		.uleb128 0x5
 11892 0579 00       		.byte	0
 11893 057a 03       		.uleb128 0x3
 11894 057b 08       		.uleb128 0x8
 11895 057c 3A       		.uleb128 0x3a
 11896 057d 0B       		.uleb128 0xb
 11897 057e 3B       		.uleb128 0x3b
 11898 057f 0B       		.uleb128 0xb
 11899 0580 49       		.uleb128 0x49
 11900 0581 13       		.uleb128 0x13
 11901 0582 02       		.uleb128 0x2
 11902 0583 18       		.uleb128 0x18
 11903 0584 00       		.byte	0
 11904 0585 00       		.byte	0
 11905 0586 57       		.uleb128 0x57
 11906 0587 2E       		.uleb128 0x2e
 11907 0588 01       		.byte	0x1
 11908 0589 47       		.uleb128 0x47
 11909 058a 13       		.uleb128 0x13
 11910 058b 3B       		.uleb128 0x3b
ARM GAS  /tmp/ccyYK6L9.s 			page 210


 11911 058c 05       		.uleb128 0x5
 11912 058d 11       		.uleb128 0x11
 11913 058e 01       		.uleb128 0x1
 11914 058f 12       		.uleb128 0x12
 11915 0590 06       		.uleb128 0x6
 11916 0591 40       		.uleb128 0x40
 11917 0592 18       		.uleb128 0x18
 11918 0593 64       		.uleb128 0x64
 11919 0594 13       		.uleb128 0x13
 11920 0595 9642     		.uleb128 0x2116
 11921 0597 19       		.uleb128 0x19
 11922 0598 01       		.uleb128 0x1
 11923 0599 13       		.uleb128 0x13
 11924 059a 00       		.byte	0
 11925 059b 00       		.byte	0
 11926 059c 58       		.uleb128 0x58
 11927 059d 05       		.uleb128 0x5
 11928 059e 00       		.byte	0
 11929 059f 03       		.uleb128 0x3
 11930 05a0 0E       		.uleb128 0xe
 11931 05a1 3A       		.uleb128 0x3a
 11932 05a2 0B       		.uleb128 0xb
 11933 05a3 3B       		.uleb128 0x3b
 11934 05a4 05       		.uleb128 0x5
 11935 05a5 49       		.uleb128 0x49
 11936 05a6 13       		.uleb128 0x13
 11937 05a7 02       		.uleb128 0x2
 11938 05a8 18       		.uleb128 0x18
 11939 05a9 00       		.byte	0
 11940 05aa 00       		.byte	0
 11941 05ab 59       		.uleb128 0x59
 11942 05ac 2E       		.uleb128 0x2e
 11943 05ad 01       		.byte	0x1
 11944 05ae 47       		.uleb128 0x47
 11945 05af 13       		.uleb128 0x13
 11946 05b0 3B       		.uleb128 0x3b
 11947 05b1 05       		.uleb128 0x5
 11948 05b2 11       		.uleb128 0x11
 11949 05b3 01       		.uleb128 0x1
 11950 05b4 12       		.uleb128 0x12
 11951 05b5 06       		.uleb128 0x6
 11952 05b6 40       		.uleb128 0x40
 11953 05b7 18       		.uleb128 0x18
 11954 05b8 9642     		.uleb128 0x2116
 11955 05ba 19       		.uleb128 0x19
 11956 05bb 01       		.uleb128 0x1
 11957 05bc 13       		.uleb128 0x13
 11958 05bd 00       		.byte	0
 11959 05be 00       		.byte	0
 11960 05bf 5A       		.uleb128 0x5a
 11961 05c0 34       		.uleb128 0x34
 11962 05c1 00       		.byte	0
 11963 05c2 03       		.uleb128 0x3
 11964 05c3 0E       		.uleb128 0xe
 11965 05c4 3A       		.uleb128 0x3a
 11966 05c5 0B       		.uleb128 0xb
 11967 05c6 3B       		.uleb128 0x3b
ARM GAS  /tmp/ccyYK6L9.s 			page 211


 11968 05c7 0B       		.uleb128 0xb
 11969 05c8 49       		.uleb128 0x49
 11970 05c9 13       		.uleb128 0x13
 11971 05ca 02       		.uleb128 0x2
 11972 05cb 18       		.uleb128 0x18
 11973 05cc 00       		.byte	0
 11974 05cd 00       		.byte	0
 11975 05ce 5B       		.uleb128 0x5b
 11976 05cf 05       		.uleb128 0x5
 11977 05d0 00       		.byte	0
 11978 05d1 03       		.uleb128 0x3
 11979 05d2 0E       		.uleb128 0xe
 11980 05d3 3A       		.uleb128 0x3a
 11981 05d4 0B       		.uleb128 0xb
 11982 05d5 3B       		.uleb128 0x3b
 11983 05d6 0B       		.uleb128 0xb
 11984 05d7 49       		.uleb128 0x49
 11985 05d8 13       		.uleb128 0x13
 11986 05d9 00       		.byte	0
 11987 05da 00       		.byte	0
 11988 05db 5C       		.uleb128 0x5c
 11989 05dc 2E       		.uleb128 0x2e
 11990 05dd 01       		.byte	0x1
 11991 05de 47       		.uleb128 0x47
 11992 05df 13       		.uleb128 0x13
 11993 05e0 11       		.uleb128 0x11
 11994 05e1 01       		.uleb128 0x1
 11995 05e2 12       		.uleb128 0x12
 11996 05e3 06       		.uleb128 0x6
 11997 05e4 40       		.uleb128 0x40
 11998 05e5 18       		.uleb128 0x18
 11999 05e6 64       		.uleb128 0x64
 12000 05e7 13       		.uleb128 0x13
 12001 05e8 9742     		.uleb128 0x2117
 12002 05ea 19       		.uleb128 0x19
 12003 05eb 01       		.uleb128 0x1
 12004 05ec 13       		.uleb128 0x13
 12005 05ed 00       		.byte	0
 12006 05ee 00       		.byte	0
 12007 05ef 5D       		.uleb128 0x5d
 12008 05f0 34       		.uleb128 0x34
 12009 05f1 00       		.byte	0
 12010 05f2 03       		.uleb128 0x3
 12011 05f3 0E       		.uleb128 0xe
 12012 05f4 3A       		.uleb128 0x3a
 12013 05f5 0B       		.uleb128 0xb
 12014 05f6 3B       		.uleb128 0x3b
 12015 05f7 05       		.uleb128 0x5
 12016 05f8 49       		.uleb128 0x49
 12017 05f9 13       		.uleb128 0x13
 12018 05fa 02       		.uleb128 0x2
 12019 05fb 18       		.uleb128 0x18
 12020 05fc 00       		.byte	0
 12021 05fd 00       		.byte	0
 12022 05fe 5E       		.uleb128 0x5e
 12023 05ff 34       		.uleb128 0x34
 12024 0600 00       		.byte	0
ARM GAS  /tmp/ccyYK6L9.s 			page 212


 12025 0601 03       		.uleb128 0x3
 12026 0602 0E       		.uleb128 0xe
 12027 0603 3A       		.uleb128 0x3a
 12028 0604 0B       		.uleb128 0xb
 12029 0605 3B       		.uleb128 0x3b
 12030 0606 0B       		.uleb128 0xb
 12031 0607 49       		.uleb128 0x49
 12032 0608 13       		.uleb128 0x13
 12033 0609 3F       		.uleb128 0x3f
 12034 060a 19       		.uleb128 0x19
 12035 060b 3C       		.uleb128 0x3c
 12036 060c 19       		.uleb128 0x19
 12037 060d 00       		.byte	0
 12038 060e 00       		.byte	0
 12039 060f 5F       		.uleb128 0x5f
 12040 0610 01       		.uleb128 0x1
 12041 0611 01       		.byte	0x1
 12042 0612 49       		.uleb128 0x49
 12043 0613 13       		.uleb128 0x13
 12044 0614 01       		.uleb128 0x1
 12045 0615 13       		.uleb128 0x13
 12046 0616 00       		.byte	0
 12047 0617 00       		.byte	0
 12048 0618 60       		.uleb128 0x60
 12049 0619 21       		.uleb128 0x21
 12050 061a 00       		.byte	0
 12051 061b 00       		.byte	0
 12052 061c 00       		.byte	0
 12053 061d 61       		.uleb128 0x61
 12054 061e 34       		.uleb128 0x34
 12055 061f 00       		.byte	0
 12056 0620 03       		.uleb128 0x3
 12057 0621 0E       		.uleb128 0xe
 12058 0622 3A       		.uleb128 0x3a
 12059 0623 0B       		.uleb128 0xb
 12060 0624 3B       		.uleb128 0x3b
 12061 0625 05       		.uleb128 0x5
 12062 0626 49       		.uleb128 0x49
 12063 0627 13       		.uleb128 0x13
 12064 0628 3F       		.uleb128 0x3f
 12065 0629 19       		.uleb128 0x19
 12066 062a 3C       		.uleb128 0x3c
 12067 062b 19       		.uleb128 0x19
 12068 062c 00       		.byte	0
 12069 062d 00       		.byte	0
 12070 062e 00       		.byte	0
 12071              		.section	.debug_aranges,"",%progbits
 12072 0000 84010000 		.4byte	0x184
 12073 0004 0200     		.2byte	0x2
 12074 0006 00000000 		.4byte	.Ldebug_info0
 12075 000a 04       		.byte	0x4
 12076 000b 00       		.byte	0
 12077 000c 0000     		.2byte	0
 12078 000e 0000     		.2byte	0
 12079 0010 00000000 		.4byte	.Ltext0
 12080 0014 F8030000 		.4byte	.Letext0-.Ltext0
 12081 0018 00000000 		.4byte	.LFB6
ARM GAS  /tmp/ccyYK6L9.s 			page 213


 12082 001c 0C000000 		.4byte	.LFE6-.LFB6
 12083 0020 00000000 		.4byte	.LFB9
 12084 0024 0C000000 		.4byte	.LFE9-.LFB9
 12085 0028 00000000 		.4byte	.LFB18
 12086 002c 0E000000 		.4byte	.LFE18-.LFB18
 12087 0030 00000000 		.4byte	.LFB19
 12088 0034 0E000000 		.4byte	.LFE19-.LFB19
 12089 0038 00000000 		.4byte	.LFB26
 12090 003c 08000000 		.4byte	.LFE26-.LFB26
 12091 0040 00000000 		.4byte	.LFB27
 12092 0044 08000000 		.4byte	.LFE27-.LFB27
 12093 0048 00000000 		.4byte	.LFB144
 12094 004c 12000000 		.4byte	.LFE144-.LFB144
 12095 0050 00000000 		.4byte	.LFB180
 12096 0054 20000000 		.4byte	.LFE180-.LFB180
 12097 0058 00000000 		.4byte	.LFB182
 12098 005c 14000000 		.4byte	.LFE182-.LFB182
 12099 0060 00000000 		.4byte	.LFB185
 12100 0064 14000000 		.4byte	.LFE185-.LFB185
 12101 0068 00000000 		.4byte	.LFB186
 12102 006c 10000000 		.4byte	.LFE186-.LFB186
 12103 0070 00000000 		.4byte	.LFB189
 12104 0074 1C000000 		.4byte	.LFE189-.LFB189
 12105 0078 00000000 		.4byte	.LFB197
 12106 007c 16000000 		.4byte	.LFE197-.LFB197
 12107 0080 00000000 		.4byte	.LFB198
 12108 0084 16000000 		.4byte	.LFE198-.LFB198
 12109 0088 00000000 		.4byte	.LFB201
 12110 008c 16000000 		.4byte	.LFE201-.LFB201
 12111 0090 00000000 		.4byte	.LFB203
 12112 0094 20000000 		.4byte	.LFE203-.LFB203
 12113 0098 00000000 		.4byte	.LFB227
 12114 009c 0E000000 		.4byte	.LFE227-.LFB227
 12115 00a0 00000000 		.4byte	.LFB233
 12116 00a4 1C000000 		.4byte	.LFE233-.LFB233
 12117 00a8 00000000 		.4byte	.LFB248
 12118 00ac 28000000 		.4byte	.LFE248-.LFB248
 12119 00b0 00000000 		.4byte	.LFB253
 12120 00b4 30000000 		.4byte	.LFE253-.LFB253
 12121 00b8 00000000 		.4byte	.LFB266
 12122 00bc 28000000 		.4byte	.LFE266-.LFB266
 12123 00c0 00000000 		.4byte	.LFB333
 12124 00c4 0E000000 		.4byte	.LFE333-.LFB333
 12125 00c8 00000000 		.4byte	.LFB335
 12126 00cc 1A000000 		.4byte	.LFE335-.LFB335
 12127 00d0 00000000 		.4byte	.LFB358
 12128 00d4 1E000000 		.4byte	.LFE358-.LFB358
 12129 00d8 00000000 		.4byte	.LFB359
 12130 00dc 34000000 		.4byte	.LFE359-.LFB359
 12131 00e0 00000000 		.4byte	.LFB463
 12132 00e4 20000000 		.4byte	.LFE463-.LFB463
 12133 00e8 00000000 		.4byte	.LFB690
 12134 00ec 16000000 		.4byte	.LFE690-.LFB690
 12135 00f0 00000000 		.4byte	.LFB693
 12136 00f4 16000000 		.4byte	.LFE693-.LFB693
 12137 00f8 00000000 		.4byte	.LFB720
 12138 00fc 18000000 		.4byte	.LFE720-.LFB720
ARM GAS  /tmp/ccyYK6L9.s 			page 214


 12139 0100 00000000 		.4byte	.LFB724
 12140 0104 28000000 		.4byte	.LFE724-.LFB724
 12141 0108 00000000 		.4byte	.LFB727
 12142 010c 20000000 		.4byte	.LFE727-.LFB727
 12143 0110 00000000 		.4byte	.LFB729
 12144 0114 1E000000 		.4byte	.LFE729-.LFB729
 12145 0118 00000000 		.4byte	.LFB730
 12146 011c 1E000000 		.4byte	.LFE730-.LFB730
 12147 0120 00000000 		.4byte	.LFB731
 12148 0124 1E000000 		.4byte	.LFE731-.LFB731
 12149 0128 00000000 		.4byte	.LFB732
 12150 012c 1E000000 		.4byte	.LFE732-.LFB732
 12151 0130 00000000 		.4byte	.LFB734
 12152 0134 1C000000 		.4byte	.LFE734-.LFB734
 12153 0138 00000000 		.4byte	.LFB737
 12154 013c 1C000000 		.4byte	.LFE737-.LFB737
 12155 0140 00000000 		.4byte	.LFB740
 12156 0144 1A000000 		.4byte	.LFE740-.LFB740
 12157 0148 00000000 		.4byte	.LFB742
 12158 014c 60000000 		.4byte	.LFE742-.LFB742
 12159 0150 00000000 		.4byte	.LFB743
 12160 0154 64000000 		.4byte	.LFE743-.LFB743
 12161 0158 00000000 		.4byte	.LFB744
 12162 015c 60000000 		.4byte	.LFE744-.LFB744
 12163 0160 00000000 		.4byte	.LFB745
 12164 0164 64000000 		.4byte	.LFE745-.LFB745
 12165 0168 00000000 		.4byte	.LFB746
 12166 016c 54000000 		.4byte	.LFE746-.LFB746
 12167 0170 00000000 		.4byte	.LFB747
 12168 0174 18000000 		.4byte	.LFE747-.LFB747
 12169 0178 00000000 		.4byte	.LFB748
 12170 017c 54000000 		.4byte	.LFE748-.LFB748
 12171 0180 00000000 		.4byte	0
 12172 0184 00000000 		.4byte	0
 12173              		.section	.debug_ranges,"",%progbits
 12174              	.Ldebug_ranges0:
 12175 0000 00000000 		.4byte	.Ltext0
 12176 0004 F8030000 		.4byte	.Letext0
 12177 0008 00000000 		.4byte	.LFB6
 12178 000c 0C000000 		.4byte	.LFE6
 12179 0010 00000000 		.4byte	.LFB9
 12180 0014 0C000000 		.4byte	.LFE9
 12181 0018 00000000 		.4byte	.LFB18
 12182 001c 0E000000 		.4byte	.LFE18
 12183 0020 00000000 		.4byte	.LFB19
 12184 0024 0E000000 		.4byte	.LFE19
 12185 0028 00000000 		.4byte	.LFB26
 12186 002c 08000000 		.4byte	.LFE26
 12187 0030 00000000 		.4byte	.LFB27
 12188 0034 08000000 		.4byte	.LFE27
 12189 0038 00000000 		.4byte	.LFB144
 12190 003c 12000000 		.4byte	.LFE144
 12191 0040 00000000 		.4byte	.LFB180
 12192 0044 20000000 		.4byte	.LFE180
 12193 0048 00000000 		.4byte	.LFB182
 12194 004c 14000000 		.4byte	.LFE182
 12195 0050 00000000 		.4byte	.LFB185
ARM GAS  /tmp/ccyYK6L9.s 			page 215


 12196 0054 14000000 		.4byte	.LFE185
 12197 0058 00000000 		.4byte	.LFB186
 12198 005c 10000000 		.4byte	.LFE186
 12199 0060 00000000 		.4byte	.LFB189
 12200 0064 1C000000 		.4byte	.LFE189
 12201 0068 00000000 		.4byte	.LFB197
 12202 006c 16000000 		.4byte	.LFE197
 12203 0070 00000000 		.4byte	.LFB198
 12204 0074 16000000 		.4byte	.LFE198
 12205 0078 00000000 		.4byte	.LFB201
 12206 007c 16000000 		.4byte	.LFE201
 12207 0080 00000000 		.4byte	.LFB203
 12208 0084 20000000 		.4byte	.LFE203
 12209 0088 00000000 		.4byte	.LFB227
 12210 008c 0E000000 		.4byte	.LFE227
 12211 0090 00000000 		.4byte	.LFB233
 12212 0094 1C000000 		.4byte	.LFE233
 12213 0098 00000000 		.4byte	.LFB248
 12214 009c 28000000 		.4byte	.LFE248
 12215 00a0 00000000 		.4byte	.LFB253
 12216 00a4 30000000 		.4byte	.LFE253
 12217 00a8 00000000 		.4byte	.LFB266
 12218 00ac 28000000 		.4byte	.LFE266
 12219 00b0 00000000 		.4byte	.LFB333
 12220 00b4 0E000000 		.4byte	.LFE333
 12221 00b8 00000000 		.4byte	.LFB335
 12222 00bc 1A000000 		.4byte	.LFE335
 12223 00c0 00000000 		.4byte	.LFB358
 12224 00c4 1E000000 		.4byte	.LFE358
 12225 00c8 00000000 		.4byte	.LFB359
 12226 00cc 34000000 		.4byte	.LFE359
 12227 00d0 00000000 		.4byte	.LFB463
 12228 00d4 20000000 		.4byte	.LFE463
 12229 00d8 00000000 		.4byte	.LFB690
 12230 00dc 16000000 		.4byte	.LFE690
 12231 00e0 00000000 		.4byte	.LFB693
 12232 00e4 16000000 		.4byte	.LFE693
 12233 00e8 00000000 		.4byte	.LFB720
 12234 00ec 18000000 		.4byte	.LFE720
 12235 00f0 00000000 		.4byte	.LFB724
 12236 00f4 28000000 		.4byte	.LFE724
 12237 00f8 00000000 		.4byte	.LFB727
 12238 00fc 20000000 		.4byte	.LFE727
 12239 0100 00000000 		.4byte	.LFB729
 12240 0104 1E000000 		.4byte	.LFE729
 12241 0108 00000000 		.4byte	.LFB730
 12242 010c 1E000000 		.4byte	.LFE730
 12243 0110 00000000 		.4byte	.LFB731
 12244 0114 1E000000 		.4byte	.LFE731
 12245 0118 00000000 		.4byte	.LFB732
 12246 011c 1E000000 		.4byte	.LFE732
 12247 0120 00000000 		.4byte	.LFB734
 12248 0124 1C000000 		.4byte	.LFE734
 12249 0128 00000000 		.4byte	.LFB737
 12250 012c 1C000000 		.4byte	.LFE737
 12251 0130 00000000 		.4byte	.LFB740
 12252 0134 1A000000 		.4byte	.LFE740
ARM GAS  /tmp/ccyYK6L9.s 			page 216


 12253 0138 00000000 		.4byte	.LFB742
 12254 013c 60000000 		.4byte	.LFE742
 12255 0140 00000000 		.4byte	.LFB743
 12256 0144 64000000 		.4byte	.LFE743
 12257 0148 00000000 		.4byte	.LFB744
 12258 014c 60000000 		.4byte	.LFE744
 12259 0150 00000000 		.4byte	.LFB745
 12260 0154 64000000 		.4byte	.LFE745
 12261 0158 00000000 		.4byte	.LFB746
 12262 015c 54000000 		.4byte	.LFE746
 12263 0160 00000000 		.4byte	.LFB747
 12264 0164 18000000 		.4byte	.LFE747
 12265 0168 00000000 		.4byte	.LFB748
 12266 016c 54000000 		.4byte	.LFE748
 12267 0170 00000000 		.4byte	0
 12268 0174 00000000 		.4byte	0
 12269              		.section	.debug_line,"",%progbits
 12270              	.Ldebug_line0:
 12271 0000 84090000 		.section	.debug_str,"MS",%progbits,1
 12271      02005904 
 12271      00000201 
 12271      FB0E0D00 
 12271      01010101 
 12272              	.LASF466:
 12273 0000 5F5A4E33 		.ascii	"_ZN3r2p5Topic9subscribeERNS_15LocalSubscriberEj\000"
 12273      72327035 
 12273      546F7069 
 12273      63397375 
 12273      62736372 
 12274              	.LASF345:
 12275 0030 5F5A4E33 		.ascii	"_ZN3r2p10StaticListINS_15LocalSubscriberEE16link_ta"
 12275      72327031 
 12275      30537461 
 12275      7469634C 
 12275      69737449 
 12276 0063 696C5F75 		.ascii	"il_unsafeERNS2_4LinkE\000"
 12276      6E736166 
 12276      6545524E 
 12276      53325F34 
 12276      4C696E6B 
 12277              	.LASF309:
 12278 0079 416C6C6F 		.ascii	"Allocator\000"
 12278      6361746F 
 12278      7200
 12279              	.LASF421:
 12280 0083 5F5A4E4B 		.ascii	"_ZNK3r2p5Topic13is_forwardingEv\000"
 12280      33723270 
 12280      35546F70 
 12280      69633133 
 12280      69735F66 
 12281              	.LASF521:
 12282 00a3 705F6D70 		.ascii	"p_mpool\000"
 12282      6F6F6C00 
 12283              	.LASF528:
 12284 00ab 696E7463 		.ascii	"intctx\000"
 12284      747800
 12285              	.LASF392:
ARM GAS  /tmp/ccyYK6L9.s 			page 217


 12286 00b2 5F5A4E4B 		.ascii	"_ZNK3r2p10StaticListINS_5TopicEE5countEv\000"
 12286      33723270 
 12286      31305374 
 12286      61746963 
 12286      4C697374 
 12287              	.LASF287:
 12288 00db 5F5A4E4B 		.ascii	"_ZNK3r2p9Transport14get_publishersEv\000"
 12288      33723270 
 12288      39547261 
 12288      6E73706F 
 12288      72743134 
 12289              	.LASF359:
 12290 0100 5F5A4E4B 		.ascii	"_ZNK3r2p10StaticListINS_15LocalSubscriberEE5countEv"
 12290      33723270 
 12290      31305374 
 12290      61746963 
 12290      4C697374 
 12291 0133 00       		.ascii	"\000"
 12292              	.LASF495:
 12293 0134 6D73675F 		.ascii	"msg_t\000"
 12293      7400
 12294              	.LASF158:
 12295 013a 5F5A4E33 		.ascii	"_ZN3r2p10StaticListINS_15RemotePublisherEE11link_un"
 12295      72327031 
 12295      30537461 
 12295      7469634C 
 12295      69737449 
 12296 016d 73616665 		.ascii	"safeERNS2_4LinkE\000"
 12296      45524E53 
 12296      325F344C 
 12296      696E6B45 
 12296      00
 12297              	.LASF349:
 12298 017e 5F5A4E4B 		.ascii	"_ZNK3r2p10StaticListINS_15LocalSubscriberEE17find_f"
 12298      33723270 
 12298      31305374 
 12298      61746963 
 12298      4C697374 
 12299 01b1 69727374 		.ascii	"irst_unsafeEPFbRKS1_E\000"
 12299      5F756E73 
 12299      61666545 
 12299      50466252 
 12299      4B53315F 
 12300              	.LASF102:
 12301 01c7 5F5A4E33 		.ascii	"_ZN3r2p7Message16get_payload_sizeEj\000"
 12301      72327037 
 12301      4D657373 
 12301      61676531 
 12301      36676574 
 12302              	.LASF244:
 12303 01eb 53746174 		.ascii	"StaticList<r2p::Transport>\000"
 12303      69634C69 
 12303      73743C72 
 12303      32703A3A 
 12303      5472616E 
 12304              	.LASF208:
 12305 0206 52656D6F 		.ascii	"RemotePublisher\000"
ARM GAS  /tmp/ccyYK6L9.s 			page 218


 12305      74655075 
 12305      626C6973 
 12305      68657200 
 12306              	.LASF465:
 12307 0216 5F5A4E33 		.ascii	"_ZN3r2p5Topic9advertiseERNS_15RemotePublisherERKNS_"
 12307      72327035 
 12307      546F7069 
 12307      63396164 
 12307      76657274 
 12308 0249 3454696D 		.ascii	"4TimeE\000"
 12308      654500
 12309              	.LASF3:
 12310 0250 5F5F7569 		.ascii	"__uint8_t\000"
 12310      6E74385F 
 12310      7400
 12311              	.LASF93:
 12312 025a 5F5A4E33 		.ascii	"_ZN3r2p7Message12reset_unsafeEv\000"
 12312      72327037 
 12312      4D657373 
 12312      61676531 
 12312      32726573 
 12313              	.LASF481:
 12314 027a 6E6F7469 		.ascii	"notify_advertised\000"
 12314      66795F61 
 12314      64766572 
 12314      74697365 
 12314      6400
 12315              	.LASF200:
 12316 028c 5F5A4E4B 		.ascii	"_ZNK3r2p10StaticListINS_15RemotePublisherEE3endEv\000"
 12316      33723270 
 12316      31305374 
 12316      61746963 
 12316      4C697374 
 12317              	.LASF263:
 12318 02be 5F5A4E4B 		.ascii	"_ZNK3r2p10StaticListINS_9TransportEE5countEv\000"
 12318      33723270 
 12318      31305374 
 12318      61746963 
 12318      4C697374 
 12319              	.LASF301:
 12320 02eb 5F5A4E33 		.ascii	"_ZN3r2p9Transport9subscribeERNS_16RemoteSubscriberE"
 12320      72327039 
 12320      5472616E 
 12320      73706F72 
 12320      74397375 
 12321 031e 504B6350 		.ascii	"PKcPNS_7MessageEjj\000"
 12321      4E535F37 
 12321      4D657373 
 12321      61676545 
 12321      6A6A00
 12322              	.LASF541:
 12323 0331 6D656D67 		.ascii	"memgetfunc_t\000"
 12323      65746675 
 12323      6E635F74 
 12323      00
 12324              	.LASF391:
 12325 033e 5F5A4E4B 		.ascii	"_ZNK3r2p10StaticListINS_5TopicEE8is_emptyEv\000"
ARM GAS  /tmp/ccyYK6L9.s 			page 219


 12325      33723270 
 12325      31305374 
 12325      61746963 
 12325      4C697374 
 12326              	.LASF307:
 12327 036a 5F5A4E33 		.ascii	"_ZN3r2p9Transport8has_nameERKS0_PKc\000"
 12327      72327039 
 12327      5472616E 
 12327      73706F72 
 12327      74386861 
 12328              	.LASF384:
 12329 038e 5F5A4E33 		.ascii	"_ZN3r2p10StaticListINS_5TopicEE12begin_unsafeEv\000"
 12329      72327031 
 12329      30537461 
 12329      7469634C 
 12329      69737449 
 12330              	.LASF460:
 12331 03be 666F7277 		.ascii	"forward_copy\000"
 12331      6172645F 
 12331      636F7079 
 12331      00
 12332              	.LASF509:
 12333 03cb 705F6E61 		.ascii	"p_name\000"
 12333      6D6500
 12334              	.LASF540:
 12335 03d2 6D5F6E65 		.ascii	"m_next\000"
 12335      787400
 12336              	.LASF571:
 12337 03d9 6D736770 		.ascii	"msgpool_buflen\000"
 12337      6F6F6C5F 
 12337      6275666C 
 12337      656E00
 12338              	.LASF88:
 12339 03e8 5F5A4E33 		.ascii	"_ZN3r2p22TimestampedMsgPtrQueue5EntryaSERKS1_\000"
 12339      72327032 
 12339      3254696D 
 12339      65737461 
 12339      6D706564 
 12340              	.LASF39:
 12341 0416 746F5F73 		.ascii	"to_s_raw\000"
 12341      5F726177 
 12341      00
 12342              	.LASF67:
 12343 041f 6765745F 		.ascii	"get_count_unsafe\000"
 12343      636F756E 
 12343      745F756E 
 12343      73616665 
 12343      00
 12344              	.LASF486:
 12345 0430 75696E74 		.ascii	"uint16_t\000"
 12345      31365F74 
 12345      00
 12346              	.LASF99:
 12347 0439 6765745F 		.ascii	"get_msg_from_raw_data\000"
 12347      6D73675F 
 12347      66726F6D 
 12347      5F726177 
ARM GAS  /tmp/ccyYK6L9.s 			page 220


 12347      5F646174 
 12348              	.LASF218:
 12349 044f 5F5A4E4B 		.ascii	"_ZNK3r2p10StaticListINS_16RemoteSubscriberEE17find_"
 12349      33723270 
 12349      31305374 
 12349      61746963 
 12349      4C697374 
 12350 0482 66697273 		.ascii	"first_unsafeEPFbRKS1_E\000"
 12350      745F756E 
 12350      73616665 
 12350      45504662 
 12350      524B5331 
 12351              	.LASF558:
 12352 0499 5F5A4E33 		.ascii	"_ZN3r2p5MutexC2Ev\000"
 12352      72327035 
 12352      4D757465 
 12352      78433245 
 12352      7600
 12353              	.LASF395:
 12354 04ab 5F5A4E4B 		.ascii	"_ZNK3r2p10StaticListINS_5TopicEE8index_ofERKS1_\000"
 12354      33723270 
 12354      31305374 
 12354      61746963 
 12354      4C697374 
 12355              	.LASF108:
 12356 04db 6C656E67 		.ascii	"length\000"
 12356      746800
 12357              	.LASF184:
 12358 04e2 5F5A4E33 		.ascii	"_ZN3r2p10StaticListINS_15RemotePublisherEE4linkERNS"
 12358      72327031 
 12358      30537461 
 12358      7469634C 
 12358      69737449 
 12359 0515 325F344C 		.ascii	"2_4LinkE\000"
 12359      696E6B45 
 12359      00
 12360              	.LASF44:
 12361 051e 5F5A4E4B 		.ascii	"_ZNK3r2p4Time5to_usEv\000"
 12361      33723270 
 12361      3454696D 
 12361      6535746F 
 12361      5F757345 
 12362              	.LASF168:
 12363 0534 5F5A4E4B 		.ascii	"_ZNK3r2p10StaticListINS_15RemotePublisherEE17find_f"
 12363      33723270 
 12363      31305374 
 12363      61746963 
 12363      4C697374 
 12364 0567 69727374 		.ascii	"irst_unsafeEPFbRKS1_PKvES6_\000"
 12364      5F756E73 
 12364      61666545 
 12364      50466252 
 12364      4B53315F 
 12365              	.LASF126:
 12366 0583 5F5A4E33 		.ascii	"_ZN3r2p6Mutex_14acquire_unsafeEv\000"
 12366      72327036 
 12366      4D757465 
ARM GAS  /tmp/ccyYK6L9.s 			page 221


 12366      785F3134 
 12366      61637175 
 12367              	.LASF270:
 12368 05a4 5F5A4E33 		.ascii	"_ZN3r2p10StaticListINS_9TransportEE5beginEv\000"
 12368      72327031 
 12368      30537461 
 12368      7469634C 
 12368      69737449 
 12369              	.LASF507:
 12370 05d0 705F6E65 		.ascii	"p_newer\000"
 12370      77657200 
 12371              	.LASF250:
 12372 05d8 5F5A4E33 		.ascii	"_ZN3r2p10StaticListINS_9TransportEE13unlink_unsafeE"
 12372      72327031 
 12372      30537461 
 12372      7469634C 
 12372      69737449 
 12373 060b 524E5332 		.ascii	"RNS2_4LinkE\000"
 12373      5F344C69 
 12373      6E6B4500 
 12374              	.LASF424:
 12375 0617 6861735F 		.ascii	"has_remote_publishers\000"
 12375      72656D6F 
 12375      74655F70 
 12375      75626C69 
 12375      73686572 
 12376              	.LASF221:
 12377 062d 5F5A4E33 		.ascii	"_ZN3r2p10StaticListINS_16RemoteSubscriberEE10end_un"
 12377      72327031 
 12377      30537461 
 12377      7469634C 
 12377      69737449 
 12378 0660 73616665 		.ascii	"safeEv\000"
 12378      457600
 12379              	.LASF574:
 12380 0667 5F5A4E33 		.ascii	"_ZN3r2p9TransportC2EPKc\000"
 12380      72327039 
 12380      5472616E 
 12380      73706F72 
 12380      74433245 
 12381              	.LASF459:
 12382 067f 5F5A4E33 		.ascii	"_ZN3r2p5Topic14notify_remotesERNS_7MessageERKNS_4Ti"
 12382      72327035 
 12382      546F7069 
 12382      6331346E 
 12382      6F746966 
 12383 06b2 6D654500 		.ascii	"meE\000"
 12384              	.LASF462:
 12385 06b6 65787465 		.ascii	"extend_pool\000"
 12385      6E645F70 
 12385      6F6F6C00 
 12386              	.LASF525:
 12387 06c2 54687265 		.ascii	"ThreadsList\000"
 12387      6164734C 
 12387      69737400 
 12388              	.LASF579:
 12389 06ce 6D617463 		.ascii	"match_func\000"
ARM GAS  /tmp/ccyYK6L9.s 			page 222


 12389      685F6675 
 12389      6E6300
 12390              	.LASF254:
 12391 06d9 5F5A4E4B 		.ascii	"_ZNK3r2p10StaticListINS_9TransportEE17find_first_un"
 12391      33723270 
 12391      31305374 
 12391      61746963 
 12391      4C697374 
 12392 070c 73616665 		.ascii	"safeEPFbRKS1_PKvES6_\000"
 12392      45504662 
 12392      524B5331 
 12392      5F504B76 
 12392      4553365F 
 12393              	.LASF83:
 12394 0721 52656663 		.ascii	"RefcountType\000"
 12394      6F756E74 
 12394      54797065 
 12394      00
 12395              	.LASF223:
 12396 072e 5F5A4E4B 		.ascii	"_ZNK3r2p10StaticListINS_16RemoteSubscriberEE12begin"
 12396      33723270 
 12396      31305374 
 12396      61746963 
 12396      4C697374 
 12397 0761 5F756E73 		.ascii	"_unsafeEv\000"
 12397      61666545 
 12397      7600
 12398              	.LASF214:
 12399 076b 5F5A4E33 		.ascii	"_ZN3r2p10StaticListINS_16RemoteSubscriberEE16link_t"
 12399      72327031 
 12399      30537461 
 12399      7469634C 
 12399      69737449 
 12400 079e 61696C5F 		.ascii	"ail_unsafeERNS2_4LinkE\000"
 12400      756E7361 
 12400      66654552 
 12400      4E53325F 
 12400      344C696E 
 12401              	.LASF95:
 12402 07b5 5F5A4E33 		.ascii	"_ZN3r2p7Message7releaseEv\000"
 12402      72327037 
 12402      4D657373 
 12402      61676537 
 12402      72656C65 
 12403              	.LASF490:
 12404 07cf 626F6F6C 		.ascii	"bool\000"
 12404      00
 12405              	.LASF474:
 12406 07d4 53636F70 		.ascii	"ScopedLock<r2p::Mutex>\000"
 12406      65644C6F 
 12406      636B3C72 
 12406      32703A3A 
 12406      4D757465 
 12407              	.LASF464:
 12408 07eb 5F5A4E33 		.ascii	"_ZN3r2p5Topic9advertiseERNS_14LocalPublisherERKNS_4"
 12408      72327035 
 12408      546F7069 
ARM GAS  /tmp/ccyYK6L9.s 			page 223


 12408      63396164 
 12408      76657274 
 12409 081e 54696D65 		.ascii	"TimeE\000"
 12409      4500
 12410              	.LASF17:
 12411 0824 73747263 		.ascii	"strcoll\000"
 12411      6F6C6C00 
 12412              	.LASF80:
 12413 082c 5F5A4E33 		.ascii	"_ZN3r2p22TimestampedMsgPtrQueue5fetchERNS0_5EntryE\000"
 12413      72327032 
 12413      3254696D 
 12413      65737461 
 12413      6D706564 
 12414              	.LASF566:
 12415 085f 73756270 		.ascii	"subp\000"
 12415      00
 12416              	.LASF487:
 12417 0864 696E7433 		.ascii	"int32_t\000"
 12417      325F7400 
 12418              	.LASF448:
 12419 086c 666F7277 		.ascii	"forward_copy_unsafe\000"
 12419      6172645F 
 12419      636F7079 
 12419      5F756E73 
 12419      61666500 
 12420              	.LASF497:
 12421 0880 73797374 		.ascii	"systime_t\000"
 12421      696D655F 
 12421      7400
 12422              	.LASF198:
 12423 088a 5F5A4E4B 		.ascii	"_ZNK3r2p10StaticListINS_15RemotePublisherEE5beginEv"
 12423      33723270 
 12423      31305374 
 12423      61746963 
 12423      4C697374 
 12424 08bd 00       		.ascii	"\000"
 12425              	.LASF85:
 12426 08be 6765745F 		.ascii	"get_raw_data\000"
 12426      7261775F 
 12426      64617461 
 12426      00
 12427              	.LASF350:
 12428 08cb 5F5A4E4B 		.ascii	"_ZNK3r2p10StaticListINS_15LocalSubscriberEE17find_f"
 12428      33723270 
 12428      31305374 
 12428      61746963 
 12428      4C697374 
 12429 08fe 69727374 		.ascii	"irst_unsafeEPFbRKS1_PKvES6_\000"
 12429      5F756E73 
 12429      61666545 
 12429      50466252 
 12429      4B53315F 
 12430              	.LASF275:
 12431 091a 5F5A4E4B 		.ascii	"_ZNK3r2p10StaticListINS_9TransportEE7restartERNS2_1"
 12431      33723270 
 12431      31305374 
 12431      61746963 
ARM GAS  /tmp/ccyYK6L9.s 			page 224


 12431      4C697374 
 12432 094d 33436F6E 		.ascii	"3ConstIteratorE\000"
 12432      73744974 
 12432      65726174 
 12432      6F724500 
 12433              	.LASF132:
 12434 095d 7E4D7574 		.ascii	"~Mutex_\000"
 12434      65785F00 
 12435              	.LASF174:
 12436 0965 5F5A4E33 		.ascii	"_ZN3r2p10StaticListINS_15RemotePublisherEE14restart"
 12436      72327031 
 12436      30537461 
 12436      7469634C 
 12436      69737449 
 12437 0998 5F756E73 		.ascii	"_unsafeERNS2_14IteratorUnsafeE\000"
 12437      61666545 
 12437      524E5332 
 12437      5F313449 
 12437      74657261 
 12438              	.LASF593:
 12439 09b7 474E5520 		.ascii	"GNU C++ 4.9.3 20141119 (release) [ARM/embedded-4_9-"
 12439      432B2B20 
 12439      342E392E 
 12439      33203230 
 12439      31343131 
 12440 09ea 6272616E 		.ascii	"branch revision 218278] -mcpu=cortex-m4 -mno-thumb-"
 12440      63682072 
 12440      65766973 
 12440      696F6E20 
 12440      32313832 
 12441 0a1d 696E7465 		.ascii	"interwork -mthumb -ggdb -O0 -fomit-frame-pointer -f"
 12441      72776F72 
 12441      6B202D6D 
 12441      7468756D 
 12441      62202D67 
 12442 0a50 6E6F2D72 		.ascii	"no-rtti -fno-exceptions -fno-threadsafe-statics\000"
 12442      74746920 
 12442      2D666E6F 
 12442      2D657863 
 12442      65707469 
 12443              	.LASF113:
 12444 0a80 5F5A4E33 		.ascii	"_ZN3r2p10ArrayQueueINS_22TimestampedMsgPtrQueue5Ent"
 12444      72327031 
 12444      30417272 
 12444      61795175 
 12444      65756549 
 12445 0ab3 72794545 		.ascii	"ryEE12fetch_unsafeERS2_\000"
 12445      31326665 
 12445      7463685F 
 12445      756E7361 
 12445      66654552 
 12446              	.LASF513:
 12447 0acb 705F7265 		.ascii	"p_refs\000"
 12447      667300
 12448              	.LASF153:
 12449 0ad2 5F5A4E4B 		.ascii	"_ZNK3r2p10StaticListINS_15RemotePublisherEE15is_emp"
 12449      33723270 
ARM GAS  /tmp/ccyYK6L9.s 			page 225


 12449      31305374 
 12449      61746963 
 12449      4C697374 
 12450 0b05 74795F75 		.ascii	"ty_unsafeEv\000"
 12450      6E736166 
 12450      65457600 
 12451              	.LASF396:
 12452 0b11 5F5A4E4B 		.ascii	"_ZNK3r2p10StaticListINS_5TopicEE8containsERKS1_\000"
 12452      33723270 
 12452      31305374 
 12452      61746963 
 12452      4C697374 
 12453              	.LASF86:
 12454 0b41 5F5A4E4B 		.ascii	"_ZNK3r2p7Message12get_raw_dataEv\000"
 12454      33723270 
 12454      374D6573 
 12454      73616765 
 12454      31326765 
 12455              	.LASF258:
 12456 0b62 5F5A4E4B 		.ascii	"_ZNK3r2p10StaticListINS_9TransportEE12begin_unsafeE"
 12456      33723270 
 12456      31305374 
 12456      61746963 
 12456      4C697374 
 12457 0b95 7600     		.ascii	"v\000"
 12458              	.LASF431:
 12459 0b97 5F5A4E4B 		.ascii	"_ZNK3r2p5Topic22has_remote_subscribersEv\000"
 12459      33723270 
 12459      35546F70 
 12459      69633232 
 12459      6861735F 
 12460              	.LASF409:
 12461 0bc0 6E756D5F 		.ascii	"num_remote_publishers\000"
 12461      72656D6F 
 12461      74655F70 
 12461      75626C69 
 12461      73686572 
 12462              	.LASF557:
 12463 0bd6 5F5A4E33 		.ascii	"_ZN3r2p6Mutex_D2Ev\000"
 12463      72327036 
 12463      4D757465 
 12463      785F4432 
 12463      457600
 12464              	.LASF169:
 12465 0be9 62656769 		.ascii	"begin_unsafe\000"
 12465      6E5F756E 
 12465      73616665 
 12465      00
 12466              	.LASF433:
 12467 0bf6 5F5A4E4B 		.ascii	"_ZNK3r2p5Topic15has_subscribersEv\000"
 12467      33723270 
 12467      35546F70 
 12467      69633135 
 12467      6861735F 
 12468              	.LASF320:
 12469 0c18 66726565 		.ascii	"free\000"
 12469      00
ARM GAS  /tmp/ccyYK6L9.s 			page 226


 12470              	.LASF202:
 12471 0c1d 53746174 		.ascii	"StaticList\000"
 12471      69634C69 
 12471      737400
 12472              	.LASF416:
 12473 0c28 5F5A4E4B 		.ascii	"_ZNK3r2p5Topic13get_type_sizeEv\000"
 12473      33723270 
 12473      35546F70 
 12473      69633133 
 12473      6765745F 
 12474              	.LASF362:
 12475 0c48 5F5A4E4B 		.ascii	"_ZNK3r2p10StaticListINS_15LocalSubscriberEE8index_o"
 12475      33723270 
 12475      31305374 
 12475      61746963 
 12475      4C697374 
 12476 0c7b 6645524B 		.ascii	"fERKS1_\000"
 12476      53315F00 
 12477              	.LASF515:
 12478 0c83 705F7761 		.ascii	"p_waiting\000"
 12478      6974696E 
 12478      6700
 12479              	.LASF442:
 12480 0c8d 5F5A4E33 		.ascii	"_ZN3r2p5Topic14release_unsafeERNS_7MessageE\000"
 12480      72327035 
 12480      546F7069 
 12480      63313472 
 12480      656C6561 
 12481              	.LASF358:
 12482 0cb9 5F5A4E4B 		.ascii	"_ZNK3r2p10StaticListINS_15LocalSubscriberEE8is_empt"
 12482      33723270 
 12482      31305374 
 12482      61746963 
 12482      4C697374 
 12483 0cec 79457600 		.ascii	"yEv\000"
 12484              	.LASF389:
 12485 0cf0 5F5A4E4B 		.ascii	"_ZNK3r2p10StaticListINS_5TopicEE14restart_unsafeERN"
 12485      33723270 
 12485      31305374 
 12485      61746963 
 12485      4C697374 
 12486 0d23 53325F31 		.ascii	"S2_19ConstIteratorUnsafeE\000"
 12486      39436F6E 
 12486      73744974 
 12486      65726174 
 12486      6F72556E 
 12487              	.LASF587:
 12488 0d3d 726C6973 		.ascii	"rlist\000"
 12488      7400
 12489              	.LASF56:
 12490 0d43 5F5A4E33 		.ascii	"_ZN3r2p4TimemIERKS0_\000"
 12490      72327034 
 12490      54696D65 
 12490      6D494552 
 12490      4B53305F 
 12491              	.LASF245:
 12492 0d58 5F5A4E4B 		.ascii	"_ZNK3r2p10StaticListINS_9TransportEE15get_head_unsa"
ARM GAS  /tmp/ccyYK6L9.s 			page 227


 12492      33723270 
 12492      31305374 
 12492      61746963 
 12492      4C697374 
 12493 0d8b 66654576 		.ascii	"feEv\000"
 12493      00
 12494              	.LASF597:
 12495 0d90 66696C6C 		.ascii	"fill_raw_params\000"
 12495      5F726177 
 12495      5F706172 
 12495      616D7300 
 12496              	.LASF45:
 12497 0da0 746F5F6D 		.ascii	"to_ms\000"
 12497      7300
 12498              	.LASF471:
 12499 0da6 4C6F6361 		.ascii	"LocalPublisher\000"
 12499      6C507562 
 12499      6C697368 
 12499      657200
 12500              	.LASF572:
 12501 0db5 5F5A4E33 		.ascii	"_ZN3r2p10StaticListINS_15RemotePublisherEED2Ev\000"
 12501      72327031 
 12501      30537461 
 12501      7469634C 
 12501      69737449 
 12502              	.LASF317:
 12503 0de4 5F5A4E33 		.ascii	"_ZN3r2p11MemoryPool_11free_unsafeEPv\000"
 12503      72327031 
 12503      314D656D 
 12503      6F727950 
 12503      6F6F6C5F 
 12504              	.LASF554:
 12505 0e09 5F5A4E33 		.ascii	"_ZN3r2p4TimeC2Ev\000"
 12505      72327034 
 12505      54696D65 
 12505      43324576 
 12505      00
 12506              	.LASF196:
 12507 0e1a 72657374 		.ascii	"restart\000"
 12507      61727400 
 12508              	.LASF41:
 12509 0e22 746F5F6D 		.ascii	"to_m_raw\000"
 12509      5F726177 
 12509      00
 12510              	.LASF494:
 12511 0e2b 74707269 		.ascii	"tprio_t\000"
 12511      6F5F7400 
 12512              	.LASF60:
 12513 0e33 5F5A4E33 		.ascii	"_ZN3r2p4Time1mEl\000"
 12513      72327034 
 12513      54696D65 
 12513      316D456C 
 12513      00
 12514              	.LASF149:
 12515 0e44 4D617463 		.ascii	"Matches\000"
 12515      68657300 
 12516              	.LASF333:
ARM GAS  /tmp/ccyYK6L9.s 			page 228


 12517 0e4c 5F5A4E33 		.ascii	"_ZN3r2p10StaticListINS_15LocalSubscriberEE13ConstIt"
 12517      72327031 
 12517      30537461 
 12517      7469634C 
 12517      69737449 
 12518 0e7f 65726174 		.ascii	"eratorppEv\000"
 12518      6F727070 
 12518      457600
 12519              	.LASF155:
 12520 0e8a 5F5A4E4B 		.ascii	"_ZNK3r2p10StaticListINS_15RemotePublisherEE12count_"
 12520      33723270 
 12520      31305374 
 12520      61746963 
 12520      4C697374 
 12521 0ebd 756E7361 		.ascii	"unsafeEv\000"
 12521      66654576 
 12521      00
 12522              	.LASF453:
 12523 0ec6 5F5A4E33 		.ascii	"_ZN3r2p5Topic5allocEv\000"
 12523      72327035 
 12523      546F7069 
 12523      6335616C 
 12523      6C6F6345 
 12524              	.LASF110:
 12525 0edc 68656164 		.ascii	"headp\000"
 12525      7000
 12526              	.LASF331:
 12527 0ee2 5F5A4E4B 		.ascii	"_ZNK3r2p10StaticListINS_15LocalSubscriberEE13ConstI"
 12527      33723270 
 12527      31305374 
 12527      61746963 
 12527      4C697374 
 12528 0f15 74657261 		.ascii	"teratordeEv\000"
 12528      746F7264 
 12528      65457600 
 12529              	.LASF570:
 12530 0f21 6D736770 		.ascii	"msgpool_buf\000"
 12530      6F6F6C5F 
 12530      62756600 
 12531              	.LASF185:
 12532 0f2d 756E6C69 		.ascii	"unlink\000"
 12532      6E6B00
 12533              	.LASF330:
 12534 0f34 6F706572 		.ascii	"operator*\000"
 12534      61746F72 
 12534      2A00
 12535              	.LASF26:
 12536 0f3e 5F5A4E33 		.ascii	"_ZN3r2p8SysLock_7acquireEv\000"
 12536      72327038 
 12536      5379734C 
 12536      6F636B5F 
 12536      37616371 
 12537              	.LASF285:
 12538 0f59 5F5A4E4B 		.ascii	"_ZNK3r2p9Transport8get_nameEv\000"
 12538      33723270 
 12538      39547261 
 12538      6E73706F 
ARM GAS  /tmp/ccyYK6L9.s 			page 229


 12538      72743867 
 12539              	.LASF51:
 12540 0f77 6F706572 		.ascii	"operator=\000"
 12540      61746F72 
 12540      3D00
 12541              	.LASF6:
 12542 0f81 5F5F7569 		.ascii	"__uint16_t\000"
 12542      6E743136 
 12542      5F7400
 12543              	.LASF517:
 12544 0f8c 705F6D73 		.ascii	"p_msg\000"
 12544      6700
 12545              	.LASF386:
 12546 0f92 5F5A4E33 		.ascii	"_ZN3r2p10StaticListINS_5TopicEE14restart_unsafeERNS"
 12546      72327031 
 12546      30537461 
 12546      7469634C 
 12546      69737449 
 12547 0fc5 325F3134 		.ascii	"2_14IteratorUnsafeE\000"
 12547      49746572 
 12547      61746F72 
 12547      556E7361 
 12547      66654500 
 12548              	.LASF326:
 12549 0fd9 63757270 		.ascii	"curp\000"
 12549      00
 12550              	.LASF500:
 12551 0fde 65786974 		.ascii	"exitcode\000"
 12551      636F6465 
 12551      00
 12552              	.LASF46:
 12553 0fe7 5F5A4E4B 		.ascii	"_ZNK3r2p4Time5to_msEv\000"
 12553      33723270 
 12553      3454696D 
 12553      6535746F 
 12553      5F6D7345 
 12554              	.LASF235:
 12555 0ffd 5F5A4E33 		.ascii	"_ZN3r2p10StaticListINS_16RemoteSubscriberEE5beginEv"
 12555      72327031 
 12555      30537461 
 12555      7469634C 
 12555      69737449 
 12556 1030 00       		.ascii	"\000"
 12557              	.LASF159:
 12558 1031 5F5A4E33 		.ascii	"_ZN3r2p10StaticListINS_15RemotePublisherEE16link_ta"
 12558      72327031 
 12558      30537461 
 12558      7469634C 
 12558      69737449 
 12559 1064 696C5F75 		.ascii	"il_unsafeERNS2_4LinkE\000"
 12559      6E736166 
 12559      6545524E 
 12559      53325F34 
 12559      4C696E6B 
 12560              	.LASF564:
 12561 107a 70756270 		.ascii	"pubp\000"
 12561      00
ARM GAS  /tmp/ccyYK6L9.s 			page 230


 12562              	.LASF236:
 12563 107f 5F5A4E33 		.ascii	"_ZN3r2p10StaticListINS_16RemoteSubscriberEE3endEv\000"
 12563      72327031 
 12563      30537461 
 12563      7469634C 
 12563      69737449 
 12564              	.LASF505:
 12565 10b1 705F7072 		.ascii	"p_prio\000"
 12565      696F00
 12566              	.LASF290:
 12567 10b8 746F7563 		.ascii	"touch_publisher\000"
 12567      685F7075 
 12567      626C6973 
 12567      68657200 
 12568              	.LASF491:
 12569 10c8 746D6F64 		.ascii	"tmode_t\000"
 12569      655F7400 
 12570              	.LASF316:
 12571 10d0 66726565 		.ascii	"free_unsafe\000"
 12571      5F756E73 
 12571      61666500 
 12572              	.LASF527:
 12573 10dc 73746B61 		.ascii	"stkalign_t\000"
 12573      6C69676E 
 12573      5F7400
 12574              	.LASF230:
 12575 10e7 5F5A4E33 		.ascii	"_ZN3r2p10StaticListINS_16RemoteSubscriberEE6unlinkE"
 12575      72327031 
 12575      30537461 
 12575      7469634C 
 12575      69737449 
 12576 111a 524E5332 		.ascii	"RNS2_4LinkE\000"
 12576      5F344C69 
 12576      6E6B4500 
 12577              	.LASF365:
 12578 1126 5F5A4E4B 		.ascii	"_ZNK3r2p10StaticListINS_15LocalSubscriberEE10find_f"
 12578      33723270 
 12578      31305374 
 12578      61746963 
 12578      4C697374 
 12579 1159 69727374 		.ascii	"irstEPFbRKS1_PKvES6_\000"
 12579      45504662 
 12579      524B5331 
 12579      5F504B76 
 12579      4553365F 
 12580              	.LASF4:
 12581 116e 756E7369 		.ascii	"unsigned char\000"
 12581      676E6564 
 12581      20636861 
 12581      7200
 12582              	.LASF324:
 12583 117c 5F5A4E33 		.ascii	"_ZN3r2p11MemoryPool_8get_implEv\000"
 12583      72327031 
 12583      314D656D 
 12583      6F727950 
 12583      6F6F6C5F 
 12584              	.LASF591:
ARM GAS  /tmp/ccyYK6L9.s 			page 231


 12585 119c 5F5F7261 		.ascii	"__ram_end__\000"
 12585      6D5F656E 
 12585      645F5F00 
 12586              	.LASF582:
 12587 11a8 5F5A4E33 		.ascii	"_ZN3r2p10StaticListINS_16RemoteSubscriberEEC2Ev\000"
 12587      72327031 
 12587      30537461 
 12587      7469634C 
 12587      69737449 
 12588              	.LASF120:
 12589 11d8 736B6970 		.ascii	"skip\000"
 12589      00
 12590              	.LASF27:
 12591 11dd 5F5A4E33 		.ascii	"_ZN3r2p8SysLock_7releaseEv\000"
 12591      72327038 
 12591      5379734C 
 12591      6F636B5F 
 12591      3772656C 
 12592              	.LASF89:
 12593 11f8 5F5A4E33 		.ascii	"_ZN3r2p7Message14acquire_unsafeEv\000"
 12593      72327037 
 12593      4D657373 
 12593      61676531 
 12593      34616371 
 12594              	.LASF369:
 12595 121a 5F5A4E4B 		.ascii	"_ZNK3r2p10StaticListINS_15LocalSubscriberEE5beginEv"
 12595      33723270 
 12595      31305374 
 12595      61746963 
 12595      4C697374 
 12596 124d 00       		.ascii	"\000"
 12597              	.LASF237:
 12598 124e 5F5A4E33 		.ascii	"_ZN3r2p10StaticListINS_16RemoteSubscriberEE7restart"
 12598      72327031 
 12598      30537461 
 12598      7469634C 
 12598      69737449 
 12599 1281 45524E53 		.ascii	"ERNS2_8IteratorE\000"
 12599      325F3849 
 12599      74657261 
 12599      746F7245 
 12599      00
 12600              	.LASF293:
 12601 1292 5F5A4E33 		.ascii	"_ZN3r2p9Transport16touch_subscriberERNS_5TopicEjPh\000"
 12601      72327039 
 12601      5472616E 
 12601      73706F72 
 12601      74313674 
 12602              	.LASF137:
 12603 12c5 5F5A4E33 		.ascii	"_ZN3r2p5Mutex7acquireEv\000"
 12603      72327035 
 12603      4D757465 
 12603      78376163 
 12603      71756972 
 12604              	.LASF204:
 12605 12dd 66696E64 		.ascii	"find_first<bool (*)(const r2p::BasePublisher&, char"
 12605      5F666972 
ARM GAS  /tmp/ccyYK6L9.s 			page 232


 12605      73743C62 
 12605      6F6F6C20 
 12605      282A2928 
 12606 1310 20636F6E 		.ascii	" const*), char>\000"
 12606      73742A29 
 12606      2C206368 
 12606      61723E00 
 12607              	.LASF181:
 12608 1320 5F5A4E4B 		.ascii	"_ZNK3r2p10StaticListINS_15RemotePublisherEE8is_empt"
 12608      33723270 
 12608      31305374 
 12608      61746963 
 12608      4C697374 
 12609 1353 79457600 		.ascii	"yEv\000"
 12610              	.LASF560:
 12611 1357 61727261 		.ascii	"array\000"
 12611      7900
 12612              	.LASF536:
 12613 135d 725F6375 		.ascii	"r_current\000"
 12613      7272656E 
 12613      7400
 12614              	.LASF387:
 12615 1367 5F5A4E4B 		.ascii	"_ZNK3r2p10StaticListINS_5TopicEE12begin_unsafeEv\000"
 12615      33723270 
 12615      31305374 
 12615      61746963 
 12615      4C697374 
 12616              	.LASF143:
 12617 1398 6974656D 		.ascii	"itemp\000"
 12617      7000
 12618              	.LASF303:
 12619 139e 63726561 		.ascii	"create_subscriber\000"
 12619      74655F73 
 12619      75627363 
 12619      72696265 
 12619      7200
 12620              	.LASF273:
 12621 13b0 5F5A4E4B 		.ascii	"_ZNK3r2p10StaticListINS_9TransportEE5beginEv\000"
 12621      33723270 
 12621      31305374 
 12621      61746963 
 12621      4C697374 
 12622              	.LASF489:
 12623 13dd 75696E74 		.ascii	"uint64_t\000"
 12623      36345F74 
 12623      00
 12624              	.LASF418:
 12625 13e6 6765745F 		.ascii	"get_max_queue_length\000"
 12625      6D61785F 
 12625      71756575 
 12625      655F6C65 
 12625      6E677468 
 12626              	.LASF405:
 12627 13fb 546F7069 		.ascii	"Topic\000"
 12627      6300
 12628              	.LASF498:
 12629 1401 54687265 		.ascii	"Thread\000"
ARM GAS  /tmp/ccyYK6L9.s 			page 233


 12629      616400
 12630              	.LASF50:
 12631 1408 5F5A4E4B 		.ascii	"_ZNK3r2p4Time4to_mEv\000"
 12631      33723270 
 12631      3454696D 
 12631      6534746F 
 12631      5F6D4576 
 12632              	.LASF458:
 12633 141d 6E6F7469 		.ascii	"notify_remotes\000"
 12633      66795F72 
 12633      656D6F74 
 12633      657300
 12634              	.LASF251:
 12635 142c 5F5A4E4B 		.ascii	"_ZNK3r2p10StaticListINS_9TransportEE15index_of_unsa"
 12635      33723270 
 12635      31305374 
 12635      61746963 
 12635      4C697374 
 12636 145f 66654552 		.ascii	"feERKS1_\000"
 12636      4B53315F 
 12636      00
 12637              	.LASF212:
 12638 1468 5F5A4E4B 		.ascii	"_ZNK3r2p10StaticListINS_16RemoteSubscriberEE12count"
 12638      33723270 
 12638      31305374 
 12638      61746963 
 12638      4C697374 
 12639 149b 5F756E73 		.ascii	"_unsafeEv\000"
 12639      61666545 
 12639      7600
 12640              	.LASF213:
 12641 14a5 5F5A4E33 		.ascii	"_ZN3r2p10StaticListINS_16RemoteSubscriberEE11link_u"
 12641      72327031 
 12641      30537461 
 12641      7469634C 
 12641      69737449 
 12642 14d8 6E736166 		.ascii	"nsafeERNS2_4LinkE\000"
 12642      6545524E 
 12642      53325F34 
 12642      4C696E6B 
 12642      4500
 12643              	.LASF279:
 12644 14ea 73756273 		.ascii	"subscribers\000"
 12644      63726962 
 12644      65727300 
 12645              	.LASF292:
 12646 14f6 746F7563 		.ascii	"touch_subscriber\000"
 12646      685F7375 
 12646      62736372 
 12646      69626572 
 12646      00
 12647              	.LASF276:
 12648 1507 5F767074 		.ascii	"_vptr.Transport\000"
 12648      722E5472 
 12648      616E7370 
 12648      6F727400 
 12649              	.LASF127:
ARM GAS  /tmp/ccyYK6L9.s 			page 234


 12650 1517 5F5A4E33 		.ascii	"_ZN3r2p6Mutex_14release_unsafeEv\000"
 12650      72327036 
 12650      4D757465 
 12650      785F3134 
 12650      72656C65 
 12651              	.LASF43:
 12652 1538 746F5F75 		.ascii	"to_us\000"
 12652      7300
 12653              	.LASF66:
 12654 153e 696D706C 		.ascii	"impl\000"
 12654      00
 12655              	.LASF472:
 12656 1543 6E6F7469 		.ascii	"notify_subscribed\000"
 12656      66795F73 
 12656      75627363 
 12656      72696265 
 12656      6400
 12657              	.LASF313:
 12658 1555 5F5A4E4B 		.ascii	"_ZNK3r2p11MemoryPool_13get_allocatorEv\000"
 12658      33723270 
 12658      31314D65 
 12658      6D6F7279 
 12658      506F6F6C 
 12659              	.LASF344:
 12660 157c 5F5A4E33 		.ascii	"_ZN3r2p10StaticListINS_15LocalSubscriberEE11link_un"
 12660      72327031 
 12660      30537461 
 12660      7469634C 
 12660      69737449 
 12661 15af 73616665 		.ascii	"safeERNS2_4LinkE\000"
 12661      45524E53 
 12661      325F344C 
 12661      696E6B45 
 12661      00
 12662              	.LASF62:
 12663 15c0 54696D65 		.ascii	"TimestampedMsgPtrQueue\000"
 12663      7374616D 
 12663      7065644D 
 12663      73675074 
 12663      72517565 
 12664              	.LASF138:
 12665 15d7 5F5A4E33 		.ascii	"_ZN3r2p5Mutex7releaseEv\000"
 12665      72327035 
 12665      4D757465 
 12665      78377265 
 12665      6C656173 
 12666              	.LASF319:
 12667 15ef 5F5A4E33 		.ascii	"_ZN3r2p11MemoryPool_5allocEv\000"
 12667      72327031 
 12667      314D656D 
 12667      6F727950 
 12667      6F6F6C5F 
 12668              	.LASF133:
 12669 160c 4D757465 		.ascii	"Mutex\000"
 12669      7800
 12670              	.LASF195:
 12671 1612 5F5A4E33 		.ascii	"_ZN3r2p10StaticListINS_15RemotePublisherEE5beginEv\000"
ARM GAS  /tmp/ccyYK6L9.s 			page 235


 12671      72327031 
 12671      30537461 
 12671      7469634C 
 12671      69737449 
 12672              	.LASF252:
 12673 1645 5F5A4E4B 		.ascii	"_ZNK3r2p10StaticListINS_9TransportEE15contains_unsa"
 12673      33723270 
 12673      31305374 
 12673      61746963 
 12673      4C697374 
 12674 1678 66654552 		.ascii	"feERKS1_\000"
 12674      4B53315F 
 12674      00
 12675              	.LASF356:
 12676 1681 5F5A4E4B 		.ascii	"_ZNK3r2p10StaticListINS_15LocalSubscriberEE14restar"
 12676      33723270 
 12676      31305374 
 12676      61746963 
 12676      4C697374 
 12677 16b4 745F756E 		.ascii	"t_unsafeERNS2_19ConstIteratorUnsafeE\000"
 12677      73616665 
 12677      45524E53 
 12677      325F3139 
 12677      436F6E73 
 12678              	.LASF33:
 12679 16d9 494E4649 		.ascii	"INFINITE\000"
 12679      4E495445 
 12679      00
 12680              	.LASF277:
 12681 16e2 6E616D65 		.ascii	"namep\000"
 12681      7000
 12682              	.LASF224:
 12683 16e8 5F5A4E4B 		.ascii	"_ZNK3r2p10StaticListINS_16RemoteSubscriberEE10end_u"
 12683      33723270 
 12683      31305374 
 12683      61746963 
 12683      4C697374 
 12684 171b 6E736166 		.ascii	"nsafeEv\000"
 12684      65457600 
 12685              	.LASF154:
 12686 1723 636F756E 		.ascii	"count_unsafe\000"
 12686      745F756E 
 12686      73616665 
 12686      00
 12687              	.LASF183:
 12688 1730 6C696E6B 		.ascii	"link\000"
 12688      00
 12689              	.LASF291:
 12690 1735 5F5A4E33 		.ascii	"_ZN3r2p9Transport15touch_publisherERNS_5TopicEPKh\000"
 12690      72327039 
 12690      5472616E 
 12690      73706F72 
 12690      74313574 
 12691              	.LASF38:
 12692 1767 5F5A4E4B 		.ascii	"_ZNK3r2p4Time9to_ms_rawEv\000"
 12692      33723270 
 12692      3454696D 
ARM GAS  /tmp/ccyYK6L9.s 			page 236


 12692      6539746F 
 12692      5F6D735F 
 12693              	.LASF588:
 12694 1781 5F5F7072 		.ascii	"__program_start__\000"
 12694      6F677261 
 12694      6D5F7374 
 12694      6172745F 
 12694      5F00
 12695              	.LASF247:
 12696 1793 5F5A4E4B 		.ascii	"_ZNK3r2p10StaticListINS_9TransportEE12count_unsafeE"
 12696      33723270 
 12696      31305374 
 12696      61746963 
 12696      4C697374 
 12697 17c6 7600     		.ascii	"v\000"
 12698              	.LASF82:
 12699 17c8 54797065 		.ascii	"Type\000"
 12699      00
 12700              	.LASF210:
 12701 17cd 5F5A4E4B 		.ascii	"_ZNK3r2p10StaticListINS_16RemoteSubscriberEE15get_h"
 12701      33723270 
 12701      31305374 
 12701      61746963 
 12701      4C697374 
 12702 1800 6561645F 		.ascii	"ead_unsafeEv\000"
 12702      756E7361 
 12702      66654576 
 12702      00
 12703              	.LASF562:
 12704 180d 5F5A4E33 		.ascii	"_ZN3r2p5MutexD2Ev\000"
 12704      72327035 
 12704      4D757465 
 12704      78443245 
 12704      7600
 12705              	.LASF516:
 12706 181f 705F6D73 		.ascii	"p_msgqueue\000"
 12706      67717565 
 12706      756500
 12707              	.LASF144:
 12708 182a 49746572 		.ascii	"IteratorUnsafe\000"
 12708      61746F72 
 12708      556E7361 
 12708      666500
 12709              	.LASF24:
 12710 1839 61637175 		.ascii	"acquire\000"
 12710      69726500 
 12711              	.LASF393:
 12712 1841 5F5A4E33 		.ascii	"_ZN3r2p10StaticListINS_5TopicEE4linkERNS2_4LinkE\000"
 12712      72327031 
 12712      30537461 
 12712      7469634C 
 12712      69737449 
 12713              	.LASF100:
 12714 1872 5F5A4E33 		.ascii	"_ZN3r2p7Message21get_msg_from_raw_dataEPKh\000"
 12714      72327037 
 12714      4D657373 
 12714      61676532 
ARM GAS  /tmp/ccyYK6L9.s 			page 237


 12714      31676574 
 12715              	.LASF2:
 12716 189d 73697A65 		.ascii	"size_t\000"
 12716      5F7400
 12717              	.LASF105:
 12718 18a4 5F5A4E33 		.ascii	"_ZN3r2p7Message13get_type_sizeEj\000"
 12718      72327037 
 12718      4D657373 
 12718      61676531 
 12718      33676574 
 12719              	.LASF261:
 12720 18c5 5F5A4E4B 		.ascii	"_ZNK3r2p10StaticListINS_9TransportEE8get_headEv\000"
 12720      33723270 
 12720      31305374 
 12720      61746963 
 12720      4C697374 
 12721              	.LASF379:
 12722 18f5 5F5A4E33 		.ascii	"_ZN3r2p10StaticListINS_5TopicEE13unlink_unsafeERNS2"
 12722      72327031 
 12722      30537461 
 12722      7469634C 
 12722      69737449 
 12723 1928 5F344C69 		.ascii	"_4LinkE\000"
 12723      6E6B4500 
 12724              	.LASF32:
 12725 1930 494D4D45 		.ascii	"IMMEDIATE\000"
 12725      44494154 
 12725      4500
 12726              	.LASF522:
 12727 193a 54687265 		.ascii	"ThreadsQueue\000"
 12727      61647351 
 12727      75657565 
 12727      00
 12728              	.LASF485:
 12729 1947 75696E74 		.ascii	"uint8_t\000"
 12729      385F7400 
 12730              	.LASF553:
 12731 194f 5F5A4E33 		.ascii	"_ZN3r2p10UncopyableD2Ev\000"
 12731      72327031 
 12731      30556E63 
 12731      6F707961 
 12731      626C6544 
 12732              	.LASF535:
 12733 1967 725F6F6C 		.ascii	"r_older\000"
 12733      64657200 
 12734              	.LASF504:
 12735 196f 705F7072 		.ascii	"p_prev\000"
 12735      657600
 12736              	.LASF470:
 12737 1976 5F5A4E33 		.ascii	"_ZN3r2p5Topic8has_nameERKS0_PKc\000"
 12737      72327035 
 12737      546F7069 
 12737      63386861 
 12737      735F6E61 
 12738              	.LASF206:
 12739 1996 4974656D 		.ascii	"Item\000"
 12739      00
ARM GAS  /tmp/ccyYK6L9.s 			page 238


 12740              	.LASF111:
 12741 199b 7461696C 		.ascii	"tailp\000"
 12741      7000
 12742              	.LASF274:
 12743 19a1 5F5A4E4B 		.ascii	"_ZNK3r2p10StaticListINS_9TransportEE3endEv\000"
 12743      33723270 
 12743      31305374 
 12743      61746963 
 12743      4C697374 
 12744              	.LASF420:
 12745 19cc 69735F66 		.ascii	"is_forwarding\000"
 12745      6F727761 
 12745      7264696E 
 12745      6700
 12746              	.LASF246:
 12747 19da 5F5A4E4B 		.ascii	"_ZNK3r2p10StaticListINS_9TransportEE15is_empty_unsa"
 12747      33723270 
 12747      31305374 
 12747      61746963 
 12747      4C697374 
 12748 1a0d 66654576 		.ascii	"feEv\000"
 12748      00
 12749              	.LASF400:
 12750 1a12 5F5A4E33 		.ascii	"_ZN3r2p10StaticListINS_5TopicEE3endEv\000"
 12750      72327031 
 12750      30537461 
 12750      7469634C 
 12750      69737449 
 12751              	.LASF226:
 12752 1a38 5F5A4E4B 		.ascii	"_ZNK3r2p10StaticListINS_16RemoteSubscriberEE8get_he"
 12752      33723270 
 12752      31305374 
 12752      61746963 
 12752      4C697374 
 12753 1a6b 61644576 		.ascii	"adEv\000"
 12753      00
 12754              	.LASF407:
 12755 1a70 6D73675F 		.ascii	"msg_pool\000"
 12755      706F6F6C 
 12755      00
 12756              	.LASF432:
 12757 1a79 6861735F 		.ascii	"has_subscribers\000"
 12757      73756273 
 12757      63726962 
 12757      65727300 
 12758              	.LASF79:
 12759 1a89 66657463 		.ascii	"fetch\000"
 12759      6800
 12760              	.LASF189:
 12761 1a8f 636F6E74 		.ascii	"contains\000"
 12761      61696E73 
 12761      00
 12762              	.LASF289:
 12763 1a98 5F5A4E4B 		.ascii	"_ZNK3r2p9Transport15get_subscribersEv\000"
 12763      33723270 
 12763      39547261 
 12763      6E73706F 
ARM GAS  /tmp/ccyYK6L9.s 			page 239


 12763      72743135 
 12764              	.LASF170:
 12765 1abe 5F5A4E33 		.ascii	"_ZN3r2p10StaticListINS_15RemotePublisherEE12begin_u"
 12765      72327031 
 12765      30537461 
 12765      7469634C 
 12765      69737449 
 12766 1af1 6E736166 		.ascii	"nsafeEv\000"
 12766      65457600 
 12767              	.LASF305:
 12768 1af9 5F5A4E4B 		.ascii	"_ZNK3r2p9Transport17create_subscriberERNS_5TopicEPN"
 12768      33723270 
 12768      39547261 
 12768      6E73706F 
 12768      72743137 
 12769 1b2c 535F3232 		.ascii	"S_22TimestampedMsgPtrQueue5EntryEj\000"
 12769      54696D65 
 12769      7374616D 
 12769      7065644D 
 12769      73675074 
 12770              	.LASF125:
 12771 1b4f 5F5A4E33 		.ascii	"_ZN3r2p6Mutex_10initializeEv\000"
 12771      72327036 
 12771      4D757465 
 12771      785F3130 
 12771      696E6974 
 12772              	.LASF130:
 12773 1b6c 6765745F 		.ascii	"get_impl\000"
 12773      696D706C 
 12773      00
 12774              	.LASF115:
 12775 1b75 5F5A4E33 		.ascii	"_ZN3r2p10ArrayQueueINS_22TimestampedMsgPtrQueue5Ent"
 12775      72327031 
 12775      30417272 
 12775      61795175 
 12775      65756549 
 12776 1ba8 72794545 		.ascii	"ryEE11skip_unsafeEv\000"
 12776      3131736B 
 12776      69705F75 
 12776      6E736166 
 12776      65457600 
 12777              	.LASF321:
 12778 1bbc 5F5A4E33 		.ascii	"_ZN3r2p11MemoryPool_4freeEPv\000"
 12778      72327031 
 12778      314D656D 
 12778      6F727950 
 12778      6F6F6C5F 
 12779              	.LASF172:
 12780 1bd9 5F5A4E33 		.ascii	"_ZN3r2p10StaticListINS_15RemotePublisherEE10end_uns"
 12780      72327031 
 12780      30537461 
 12780      7469634C 
 12780      69737449 
 12781 1c0c 61666545 		.ascii	"afeEv\000"
 12781      7600
 12782              	.LASF327:
 12783 1c12 5F5A4E33 		.ascii	"_ZN3r2p10StaticListINS_15LocalSubscriberEE13ConstIt"
ARM GAS  /tmp/ccyYK6L9.s 			page 240


 12783      72327031 
 12783      30537461 
 12783      7469634C 
 12783      69737449 
 12784 1c45 65726174 		.ascii	"eratoraSERKS3_\000"
 12784      6F726153 
 12784      45524B53 
 12784      335F00
 12785              	.LASF192:
 12786 1c54 5F5A4E4B 		.ascii	"_ZNK3r2p10StaticListINS_15RemotePublisherEE10find_f"
 12786      33723270 
 12786      31305374 
 12786      61746963 
 12786      4C697374 
 12787 1c87 69727374 		.ascii	"irstEPFbRKS1_E\000"
 12787      45504662 
 12787      524B5331 
 12787      5F4500
 12788              	.LASF533:
 12789 1c96 725F6374 		.ascii	"r_ctx\000"
 12789      7800
 12790              	.LASF35:
 12791 1c9c 746F5F75 		.ascii	"to_us_raw\000"
 12791      735F7261 
 12791      7700
 12792              	.LASF499:
 12793 1ca6 7264796D 		.ascii	"rdymsg\000"
 12793      736700
 12794              	.LASF340:
 12795 1cad 5F5A4E4B 		.ascii	"_ZNK3r2p10StaticListINS_15LocalSubscriberEE13ConstI"
 12795      33723270 
 12795      31305374 
 12795      61746963 
 12795      4C697374 
 12796 1ce0 74657261 		.ascii	"terator8is_validEv\000"
 12796      746F7238 
 12796      69735F76 
 12796      616C6964 
 12796      457600
 12797              	.LASF367:
 12798 1cf3 5F5A4E33 		.ascii	"_ZN3r2p10StaticListINS_15LocalSubscriberEE3endEv\000"
 12798      72327031 
 12798      30537461 
 12798      7469634C 
 12798      69737449 
 12799              	.LASF452:
 12800 1d24 5F5A4E4B 		.ascii	"_ZNK3r2p5Topic16compute_deadlineEv\000"
 12800      33723270 
 12800      35546F70 
 12800      69633136 
 12800      636F6D70 
 12801              	.LASF64:
 12802 1d47 74696D65 		.ascii	"timestamp\000"
 12802      7374616D 
 12802      7000
 12803              	.LASF90:
 12804 1d51 72656C65 		.ascii	"release_unsafe\000"
ARM GAS  /tmp/ccyYK6L9.s 			page 241


 12804      6173655F 
 12804      756E7361 
 12804      666500
 12805              	.LASF450:
 12806 1d60 636F6D70 		.ascii	"compute_deadline\000"
 12806      7574655F 
 12806      64656164 
 12806      6C696E65 
 12806      00
 12807              	.LASF84:
 12808 1d71 72656663 		.ascii	"refcount\000"
 12808      6F756E74 
 12808      00
 12809              	.LASF13:
 12810 1d7a 5F5F7569 		.ascii	"__uint64_t\000"
 12810      6E743634 
 12810      5F7400
 12811              	.LASF484:
 12812 1d85 5F5A4E33 		.ascii	"_ZN3r2p13BasePublisher9has_topicERKS0_PKc\000"
 12812      72327031 
 12812      33426173 
 12812      65507562 
 12812      6C697368 
 12813              	.LASF411:
 12814 1daf 72656D6F 		.ascii	"remote_subscribers\000"
 12814      74655F73 
 12814      75627363 
 12814      72696265 
 12814      727300
 12815              	.LASF312:
 12816 1dc2 6765745F 		.ascii	"get_allocator\000"
 12816      616C6C6F 
 12816      6361746F 
 12816      7200
 12817              	.LASF480:
 12818 1dd0 42617365 		.ascii	"BasePublisher\000"
 12818      5075626C 
 12818      69736865 
 12818      7200
 12819              	.LASF600:
 12820 1dde 436F6E73 		.ascii	"ConstLink\000"
 12820      744C696E 
 12820      6B00
 12821              	.LASF426:
 12822 1de8 6861735F 		.ascii	"has_publishers\000"
 12822      7075626C 
 12822      69736865 
 12822      727300
 12823              	.LASF104:
 12824 1df7 5F5A4E33 		.ascii	"_ZN3r2p7Message4copyERS0_RKS0_j\000"
 12824      72327037 
 12824      4D657373 
 12824      61676534 
 12824      636F7079 
 12825              	.LASF160:
 12826 1e17 756E6C69 		.ascii	"unlink_unsafe\000"
 12826      6E6B5F75 
ARM GAS  /tmp/ccyYK6L9.s 			page 242


 12826      6E736166 
 12826      6500
 12827              	.LASF175:
 12828 1e25 5F5A4E4B 		.ascii	"_ZNK3r2p10StaticListINS_15RemotePublisherEE12begin_"
 12828      33723270 
 12828      31305374 
 12828      61746963 
 12828      4C697374 
 12829 1e58 756E7361 		.ascii	"unsafeEv\000"
 12829      66654576 
 12829      00
 12830              	.LASF439:
 12831 1e61 5F5A4E4B 		.ascii	"_ZNK3r2p5Topic23compute_deadline_unsafeERKNS_4TimeE"
 12831      33723270 
 12831      35546F70 
 12831      69633233 
 12831      636F6D70 
 12832 1e94 00       		.ascii	"\000"
 12833              	.LASF576:
 12834 1e95 5F5A4E33 		.ascii	"_ZN3r2p9TransportD0Ev\000"
 12834      72327039 
 12834      5472616E 
 12834      73706F72 
 12834      74443045 
 12835              	.LASF314:
 12836 1eab 616C6C6F 		.ascii	"alloc_unsafe\000"
 12836      635F756E 
 12836      73616665 
 12836      00
 12837              	.LASF281:
 12838 1eb8 73756273 		.ascii	"subscribers_lock\000"
 12838      63726962 
 12838      6572735F 
 12838      6C6F636B 
 12838      00
 12839              	.LASF550:
 12840 1ec9 74686973 		.ascii	"this\000"
 12840      00
 12841              	.LASF503:
 12842 1ece 705F6E65 		.ascii	"p_next\000"
 12842      787400
 12843              	.LASF353:
 12844 1ed5 5F5A4E33 		.ascii	"_ZN3r2p10StaticListINS_15LocalSubscriberEE14restart"
 12844      72327031 
 12844      30537461 
 12844      7469634C 
 12844      69737449 
 12845 1f08 5F756E73 		.ascii	"_unsafeERNS2_14IteratorUnsafeE\000"
 12845      61666545 
 12845      524E5332 
 12845      5F313449 
 12845      74657261 
 12846              	.LASF410:
 12847 1f27 6C6F6361 		.ascii	"local_subscribers\000"
 12847      6C5F7375 
 12847      62736372 
 12847      69626572 
ARM GAS  /tmp/ccyYK6L9.s 			page 243


 12847      7300
 12848              	.LASF366:
 12849 1f39 5F5A4E33 		.ascii	"_ZN3r2p10StaticListINS_15LocalSubscriberEE5beginEv\000"
 12849      72327031 
 12849      30537461 
 12849      7469634C 
 12849      69737449 
 12850              	.LASF383:
 12851 1f6c 5F5A4E4B 		.ascii	"_ZNK3r2p10StaticListINS_5TopicEE17find_first_unsafe"
 12851      33723270 
 12851      31305374 
 12851      61746963 
 12851      4C697374 
 12852 1f9f 45504662 		.ascii	"EPFbRKS1_PKvES6_\000"
 12852      524B5331 
 12852      5F504B76 
 12852      4553365F 
 12852      00
 12853              	.LASF454:
 12854 1fb0 5F5A4E33 		.ascii	"_ZN3r2p5Topic7releaseERNS_7MessageE\000"
 12854      72327035 
 12854      546F7069 
 12854      63377265 
 12854      6C656173 
 12855              	.LASF385:
 12856 1fd4 5F5A4E33 		.ascii	"_ZN3r2p10StaticListINS_5TopicEE10end_unsafeEv\000"
 12856      72327031 
 12856      30537461 
 12856      7469634C 
 12856      69737449 
 12857              	.LASF378:
 12858 2002 5F5A4E33 		.ascii	"_ZN3r2p10StaticListINS_5TopicEE16link_tail_unsafeER"
 12858      72327031 
 12858      30537461 
 12858      7469634C 
 12858      69737449 
 12859 2035 4E53325F 		.ascii	"NS2_4LinkE\000"
 12859      344C696E 
 12859      6B4500
 12860              	.LASF18:
 12861 2040 73747265 		.ascii	"strerror\000"
 12861      72726F72 
 12861      00
 12862              	.LASF215:
 12863 2049 5F5A4E33 		.ascii	"_ZN3r2p10StaticListINS_16RemoteSubscriberEE13unlink"
 12863      72327031 
 12863      30537461 
 12863      7469634C 
 12863      69737449 
 12864 207c 5F756E73 		.ascii	"_unsafeERNS2_4LinkE\000"
 12864      61666545 
 12864      524E5332 
 12864      5F344C69 
 12864      6E6B4500 
 12865              	.LASF20:
 12866 2090 73747278 		.ascii	"strxfrm\000"
 12866      66726D00 
ARM GAS  /tmp/ccyYK6L9.s 			page 244


 12867              	.LASF493:
 12868 2098 74726566 		.ascii	"trefs_t\000"
 12868      735F7400 
 12869              	.LASF376:
 12870 20a0 5F5A4E4B 		.ascii	"_ZNK3r2p10StaticListINS_5TopicEE12count_unsafeEv\000"
 12870      33723270 
 12870      31305374 
 12870      61746963 
 12870      4C697374 
 12871              	.LASF136:
 12872 20d1 5F5A4E33 		.ascii	"_ZN3r2p5Mutex14release_unsafeEv\000"
 12872      72327035 
 12872      4D757465 
 12872      78313472 
 12872      656C6561 
 12873              	.LASF506:
 12874 20f1 705F6374 		.ascii	"p_ctx\000"
 12874      7800
 12875              	.LASF73:
 12876 20f7 6765745F 		.ascii	"get_length\000"
 12876      6C656E67 
 12876      746800
 12877              	.LASF91:
 12878 2102 5F5A4E33 		.ascii	"_ZN3r2p7Message14release_unsafeEv\000"
 12878      72327037 
 12878      4D657373 
 12878      61676531 
 12878      3472656C 
 12879              	.LASF325:
 12880 2124 53746174 		.ascii	"StaticList<r2p::LocalSubscriber>\000"
 12880      69634C69 
 12880      73743C72 
 12880      32703A3A 
 12880      4C6F6361 
 12881              	.LASF21:
 12882 2145 556E636F 		.ascii	"Uncopyable\000"
 12882      70796162 
 12882      6C6500
 12883              	.LASF142:
 12884 2150 6E657874 		.ascii	"nextp\000"
 12884      7000
 12885              	.LASF425:
 12886 2156 5F5A4E4B 		.ascii	"_ZNK3r2p5Topic21has_remote_publishersEv\000"
 12886      33723270 
 12886      35546F70 
 12886      69633231 
 12886      6861735F 
 12887              	.LASF568:
 12888 217e 71756575 		.ascii	"queue_bufp\000"
 12888      655F6275 
 12888      667000
 12889              	.LASF397:
 12890 2189 5F5A4E4B 		.ascii	"_ZNK3r2p10StaticListINS_5TopicEE10find_firstEPFbRKS"
 12890      33723270 
 12890      31305374 
 12890      61746963 
 12890      4C697374 
ARM GAS  /tmp/ccyYK6L9.s 			page 245


 12891 21bc 315F4500 		.ascii	"1_E\000"
 12892              	.LASF129:
 12893 21c0 5F5A4E33 		.ascii	"_ZN3r2p6Mutex_7releaseEv\000"
 12893      72327036 
 12893      4D757465 
 12893      785F3772 
 12893      656C6561 
 12894              	.LASF530:
 12895 21d9 39526561 		.ascii	"9ReadyList\000"
 12895      64794C69 
 12895      737400
 12896              	.LASF375:
 12897 21e4 5F5A4E4B 		.ascii	"_ZNK3r2p10StaticListINS_5TopicEE15is_empty_unsafeEv"
 12897      33723270 
 12897      31305374 
 12897      61746963 
 12897      4C697374 
 12898 2217 00       		.ascii	"\000"
 12899              	.LASF355:
 12900 2218 5F5A4E4B 		.ascii	"_ZNK3r2p10StaticListINS_15LocalSubscriberEE10end_un"
 12900      33723270 
 12900      31305374 
 12900      61746963 
 12900      4C697374 
 12901 224b 73616665 		.ascii	"safeEv\000"
 12901      457600
 12902              	.LASF145:
 12903 2252 436F6E73 		.ascii	"ConstIteratorUnsafe\000"
 12903      74497465 
 12903      7261746F 
 12903      72556E73 
 12903      61666500 
 12904              	.LASF94:
 12905 2266 5F5A4E33 		.ascii	"_ZN3r2p7Message7acquireEv\000"
 12905      72327037 
 12905      4D657373 
 12905      61676537 
 12905      61637175 
 12906              	.LASF304:
 12907 2280 5F5A4E4B 		.ascii	"_ZNK3r2p9Transport16create_publisherERNS_5TopicEPKh"
 12907      33723270 
 12907      39547261 
 12907      6E73706F 
 12907      72743136 
 12908 22b3 00       		.ascii	"\000"
 12909              	.LASF179:
 12910 22b4 5F5A4E4B 		.ascii	"_ZNK3r2p10StaticListINS_15RemotePublisherEE8get_hea"
 12910      33723270 
 12910      31305374 
 12910      61746963 
 12910      4C697374 
 12911 22e7 64457600 		.ascii	"dEv\000"
 12912              	.LASF70:
 12913 22eb 5F5A4E33 		.ascii	"_ZN3r2p22TimestampedMsgPtrQueue11post_unsafeERNS0_5"
 12913      72327032 
 12913      3254696D 
 12913      65737461 
ARM GAS  /tmp/ccyYK6L9.s 			page 246


 12913      6D706564 
 12914 231e 456E7472 		.ascii	"EntryE\000"
 12914      794500
 12915              	.LASF436:
 12916 2325 69735F61 		.ascii	"is_awaiting_subscriptions\000"
 12916      77616974 
 12916      696E675F 
 12916      73756273 
 12916      63726970 
 12917              	.LASF266:
 12918 233f 5F5A4E4B 		.ascii	"_ZNK3r2p10StaticListINS_9TransportEE8index_ofERKS1_"
 12918      33723270 
 12918      31305374 
 12918      61746963 
 12918      4C697374 
 12919 2372 00       		.ascii	"\000"
 12920              	.LASF546:
 12921 2373 6D705F6F 		.ascii	"mp_object_size\000"
 12921      626A6563 
 12921      745F7369 
 12921      7A6500
 12922              	.LASF352:
 12923 2382 5F5A4E33 		.ascii	"_ZN3r2p10StaticListINS_15LocalSubscriberEE10end_uns"
 12923      72327031 
 12923      30537461 
 12923      7469634C 
 12923      69737449 
 12924 23b5 61666545 		.ascii	"afeEv\000"
 12924      7600
 12925              	.LASF278:
 12926 23bb 7075626C 		.ascii	"publishers\000"
 12926      69736865 
 12926      727300
 12927              	.LASF337:
 12928 23c6 6F706572 		.ascii	"operator!=\000"
 12928      61746F72 
 12928      213D00
 12929              	.LASF171:
 12930 23d1 656E645F 		.ascii	"end_unsafe\000"
 12930      756E7361 
 12930      666500
 12931              	.LASF368:
 12932 23dc 5F5A4E33 		.ascii	"_ZN3r2p10StaticListINS_15LocalSubscriberEE7restartE"
 12932      72327031 
 12932      30537461 
 12932      7469634C 
 12932      69737449 
 12933 240f 524E5332 		.ascii	"RNS2_8IteratorE\000"
 12933      5F384974 
 12933      65726174 
 12933      6F724500 
 12934              	.LASF534:
 12935 241f 725F6E65 		.ascii	"r_newer\000"
 12935      77657200 
 12936              	.LASF240:
 12937 2427 5F5A4E4B 		.ascii	"_ZNK3r2p10StaticListINS_16RemoteSubscriberEE7restar"
 12937      33723270 
ARM GAS  /tmp/ccyYK6L9.s 			page 247


 12937      31305374 
 12937      61746963 
 12937      4C697374 
 12938 245a 7445524E 		.ascii	"tERNS2_13ConstIteratorE\000"
 12938      53325F31 
 12938      33436F6E 
 12938      73744974 
 12938      65726174 
 12939              	.LASF297:
 12940 2472 5F5A4E33 		.ascii	"_ZN3r2p9Transport12subscribe_cbERNS_5TopicEjPh\000"
 12940      72327039 
 12940      5472616E 
 12940      73706F72 
 12940      74313273 
 12941              	.LASF422:
 12942 24a1 6861735F 		.ascii	"has_local_publishers\000"
 12942      6C6F6361 
 12942      6C5F7075 
 12942      626C6973 
 12942      68657273 
 12943              	.LASF360:
 12944 24b6 5F5A4E33 		.ascii	"_ZN3r2p10StaticListINS_15LocalSubscriberEE4linkERNS"
 12944      72327031 
 12944      30537461 
 12944      7469634C 
 12944      69737449 
 12945 24e9 325F344C 		.ascii	"2_4LinkE\000"
 12945      696E6B45 
 12945      00
 12946              	.LASF92:
 12947 24f2 72657365 		.ascii	"reset_unsafe\000"
 12947      745F756E 
 12947      73616665 
 12947      00
 12948              	.LASF96:
 12949 24ff 72657365 		.ascii	"reset\000"
 12949      7400
 12950              	.LASF222:
 12951 2505 5F5A4E33 		.ascii	"_ZN3r2p10StaticListINS_16RemoteSubscriberEE14restar"
 12951      72327031 
 12951      30537461 
 12951      7469634C 
 12951      69737449 
 12952 2538 745F756E 		.ascii	"t_unsafeERNS2_14IteratorUnsafeE\000"
 12952      73616665 
 12952      45524E53 
 12952      325F3134 
 12952      49746572 
 12953              	.LASF15:
 12954 2558 73697A65 		.ascii	"sizetype\000"
 12954      74797065 
 12954      00
 12955              	.LASF68:
 12956 2561 5F5A4E4B 		.ascii	"_ZNK3r2p22TimestampedMsgPtrQueue16get_count_unsafeE"
 12956      33723270 
 12956      32325469 
 12956      6D657374 
ARM GAS  /tmp/ccyYK6L9.s 			page 248


 12956      616D7065 
 12957 2594 7600     		.ascii	"v\000"
 12958              	.LASF57:
 12959 2596 5F5A4E33 		.ascii	"_ZN3r2p4Time2usEl\000"
 12959      72327034 
 12959      54696D65 
 12959      32757345 
 12959      6C00
 12960              	.LASF75:
 12961 25a8 6765745F 		.ascii	"get_count\000"
 12961      636F756E 
 12961      7400
 12962              	.LASF578:
 12963 25b2 5F5A4E33 		.ascii	"_ZN3r2p10ScopedLockINS_5MutexEED2Ev\000"
 12963      72327031 
 12963      3053636F 
 12963      7065644C 
 12963      6F636B49 
 12964              	.LASF288:
 12965 25d6 6765745F 		.ascii	"get_subscribers\000"
 12965      73756273 
 12965      63726962 
 12965      65727300 
 12966              	.LASF569:
 12967 25e6 74797065 		.ascii	"type_size\000"
 12967      5F73697A 
 12967      6500
 12968              	.LASF205:
 12969 25f0 5F5A4E4B 		.ascii	"_ZNK3r2p10StaticListINS_15RemotePublisherEE10find_f"
 12969      33723270 
 12969      31305374 
 12969      61746963 
 12969      4C697374 
 12970 2623 69727374 		.ascii	"irstIPFbRKNS_13BasePublisherEPKcEcEEPS1_T_PKT0_\000"
 12970      49504662 
 12970      524B4E53 
 12970      5F313342 
 12970      61736550 
 12971              	.LASF97:
 12972 2653 5F5A4E33 		.ascii	"_ZN3r2p7Message5resetEv\000"
 12972      72327037 
 12972      4D657373 
 12972      61676535 
 12972      72657365 
 12973              	.LASF7:
 12974 266b 73686F72 		.ascii	"short unsigned int\000"
 12974      7420756E 
 12974      7369676E 
 12974      65642069 
 12974      6E7400
 12975              	.LASF1:
 12976 267e 7369676E 		.ascii	"signed char\000"
 12976      65642063 
 12976      68617200 
 12977              	.LASF514:
 12978 268a 705F7469 		.ascii	"p_time\000"
 12978      6D6500
ARM GAS  /tmp/ccyYK6L9.s 			page 249


 12979              	.LASF374:
 12980 2691 5F5A4E4B 		.ascii	"_ZNK3r2p10StaticListINS_5TopicEE15get_head_unsafeEv"
 12980      33723270 
 12980      31305374 
 12980      61746963 
 12980      4C697374 
 12981 26c4 00       		.ascii	"\000"
 12982              	.LASF590:
 12983 26c5 5F5F7261 		.ascii	"__ram_start__\000"
 12983      6D5F7374 
 12983      6172745F 
 12983      5F00
 12984              	.LASF483:
 12985 26d3 6861735F 		.ascii	"has_topic\000"
 12985      746F7069 
 12985      6300
 12986              	.LASF166:
 12987 26dd 66696E64 		.ascii	"find_first_unsafe\000"
 12987      5F666972 
 12987      73745F75 
 12987      6E736166 
 12987      6500
 12988              	.LASF264:
 12989 26ef 5F5A4E33 		.ascii	"_ZN3r2p10StaticListINS_9TransportEE4linkERNS2_4Link"
 12989      72327031 
 12989      30537461 
 12989      7469634C 
 12989      69737449 
 12990 2722 4500     		.ascii	"E\000"
 12991              	.LASF109:
 12992 2724 636F756E 		.ascii	"count\000"
 12992      7400
 12993              	.LASF338:
 12994 272a 5F5A4E4B 		.ascii	"_ZNK3r2p10StaticListINS_15LocalSubscriberEE13ConstI"
 12994      33723270 
 12994      31305374 
 12994      61746963 
 12994      4C697374 
 12995 275d 74657261 		.ascii	"teratorneERKS3_\000"
 12995      746F726E 
 12995      6545524B 
 12995      53335F00 
 12996              	.LASF445:
 12997 276d 5F5A4E33 		.ascii	"_ZN3r2p5Topic20notify_locals_unsafeERNS_7MessageERK"
 12997      72327035 
 12997      546F7069 
 12997      6332306E 
 12997      6F746966 
 12998 27a0 4E535F34 		.ascii	"NS_4TimeE\000"
 12998      54696D65 
 12998      4500
 12999              	.LASF260:
 13000 27aa 5F5A4E4B 		.ascii	"_ZNK3r2p10StaticListINS_9TransportEE14restart_unsaf"
 13000      33723270 
 13000      31305374 
 13000      61746963 
 13000      4C697374 
ARM GAS  /tmp/ccyYK6L9.s 			page 250


 13001 27dd 6545524E 		.ascii	"eERNS2_19ConstIteratorUnsafeE\000"
 13001      53325F31 
 13001      39436F6E 
 13001      73744974 
 13001      65726174 
 13002              	.LASF457:
 13003 27fb 5F5A4E33 		.ascii	"_ZN3r2p5Topic13notify_localsERNS_7MessageERKNS_4Tim"
 13003      72327035 
 13003      546F7069 
 13003      6331336E 
 13003      6F746966 
 13004 282e 654500   		.ascii	"eE\000"
 13005              	.LASF399:
 13006 2831 5F5A4E33 		.ascii	"_ZN3r2p10StaticListINS_5TopicEE5beginEv\000"
 13006      72327031 
 13006      30537461 
 13006      7469634C 
 13006      69737449 
 13007              	.LASF257:
 13008 2859 5F5A4E33 		.ascii	"_ZN3r2p10StaticListINS_9TransportEE14restart_unsafe"
 13008      72327031 
 13008      30537461 
 13008      7469634C 
 13008      69737449 
 13009 288c 45524E53 		.ascii	"ERNS2_14IteratorUnsafeE\000"
 13009      325F3134 
 13009      49746572 
 13009      61746F72 
 13009      556E7361 
 13010              	.LASF78:
 13011 28a4 5F5A4E33 		.ascii	"_ZN3r2p22TimestampedMsgPtrQueue4postERNS0_5EntryE\000"
 13011      72327032 
 13011      3254696D 
 13011      65737461 
 13011      6D706564 
 13012              	.LASF267:
 13013 28d6 5F5A4E4B 		.ascii	"_ZNK3r2p10StaticListINS_9TransportEE8containsERKS1_"
 13013      33723270 
 13013      31305374 
 13013      61746963 
 13013      4C697374 
 13014 2909 00       		.ascii	"\000"
 13015              	.LASF539:
 13016 290a 6D5F6F77 		.ascii	"m_owner\000"
 13016      6E657200 
 13017              	.LASF394:
 13018 2912 5F5A4E33 		.ascii	"_ZN3r2p10StaticListINS_5TopicEE6unlinkERNS2_4LinkE\000"
 13018      72327031 
 13018      30537461 
 13018      7469634C 
 13018      69737449 
 13019              	.LASF71:
 13020 2945 66657463 		.ascii	"fetch_unsafe\000"
 13020      685F756E 
 13020      73616665 
 13020      00
 13021              	.LASF382:
ARM GAS  /tmp/ccyYK6L9.s 			page 251


 13022 2952 5F5A4E4B 		.ascii	"_ZNK3r2p10StaticListINS_5TopicEE17find_first_unsafe"
 13022      33723270 
 13022      31305374 
 13022      61746963 
 13022      4C697374 
 13023 2985 45504662 		.ascii	"EPFbRKS1_E\000"
 13023      524B5331 
 13023      5F4500
 13024              	.LASF162:
 13025 2990 696E6465 		.ascii	"index_of_unsafe\000"
 13025      785F6F66 
 13025      5F756E73 
 13025      61666500 
 13026              	.LASF595:
 13027 29a0 2F686F6D 		.ascii	"/home/tino/workspace/openrobots/Middleware_v2-new/\000"
 13027      652F7469 
 13027      6E6F2F77 
 13027      6F726B73 
 13027      70616365 
 13028              	.LASF599:
 13029 29d3 7E547261 		.ascii	"~Transport\000"
 13029      6E73706F 
 13029      727400
 13030              	.LASF151:
 13031 29de 69735F65 		.ascii	"is_empty_unsafe\000"
 13031      6D707479 
 13031      5F756E73 
 13031      61666500 
 13032              	.LASF239:
 13033 29ee 5F5A4E4B 		.ascii	"_ZNK3r2p10StaticListINS_16RemoteSubscriberEE3endEv\000"
 13033      33723270 
 13033      31305374 
 13033      61746963 
 13033      4C697374 
 13034              	.LASF524:
 13035 2a21 31315468 		.ascii	"11ThreadsList\000"
 13035      72656164 
 13035      734C6973 
 13035      7400
 13036              	.LASF315:
 13037 2a2f 5F5A4E33 		.ascii	"_ZN3r2p11MemoryPool_12alloc_unsafeEv\000"
 13037      72327031 
 13037      314D656D 
 13037      6F727950 
 13037      6F6F6C5F 
 13038              	.LASF565:
 13039 2a54 71756575 		.ascii	"queue_length\000"
 13039      655F6C65 
 13039      6E677468 
 13039      00
 13040              	.LASF351:
 13041 2a61 5F5A4E33 		.ascii	"_ZN3r2p10StaticListINS_15LocalSubscriberEE12begin_u"
 13041      72327031 
 13041      30537461 
 13041      7469634C 
 13041      69737449 
 13042 2a94 6E736166 		.ascii	"nsafeEv\000"
ARM GAS  /tmp/ccyYK6L9.s 			page 252


 13042      65457600 
 13043              	.LASF575:
 13044 2a9c 5F5A4E33 		.ascii	"_ZN3r2p9TransportD2Ev\000"
 13044      72327039 
 13044      5472616E 
 13044      73706F72 
 13044      74443245 
 13045              	.LASF187:
 13046 2ab2 696E6465 		.ascii	"index_of\000"
 13046      785F6F66 
 13046      00
 13047              	.LASF52:
 13048 2abb 5F5A4E33 		.ascii	"_ZN3r2p4TimeaSERKS0_\000"
 13048      72327034 
 13048      54696D65 
 13048      61534552 
 13048      4B53305F 
 13049              	.LASF117:
 13050 2ad0 5F5A4E4B 		.ascii	"_ZNK3r2p10ArrayQueueINS_22TimestampedMsgPtrQueue5En"
 13050      33723270 
 13050      31304172 
 13050      72617951 
 13050      75657565 
 13051 2b03 74727945 		.ascii	"tryEE9get_countEv\000"
 13051      45396765 
 13051      745F636F 
 13051      756E7445 
 13051      7600
 13052              	.LASF217:
 13053 2b15 5F5A4E4B 		.ascii	"_ZNK3r2p10StaticListINS_16RemoteSubscriberEE15conta"
 13053      33723270 
 13053      31305374 
 13053      61746963 
 13053      4C697374 
 13054 2b48 696E735F 		.ascii	"ins_unsafeERKS1_\000"
 13054      756E7361 
 13054      66654552 
 13054      4B53315F 
 13054      00
 13055              	.LASF413:
 13056 2b59 5F5A4E4B 		.ascii	"_ZNK3r2p5Topic8get_nameEv\000"
 13056      33723270 
 13056      35546F70 
 13056      69633867 
 13056      65745F6E 
 13057              	.LASF440:
 13058 2b73 5F5A4E4B 		.ascii	"_ZNK3r2p5Topic23compute_deadline_unsafeEv\000"
 13058      33723270 
 13058      35546F70 
 13058      69633233 
 13058      636F6D70 
 13059              	.LASF402:
 13060 2b9d 5F5A4E4B 		.ascii	"_ZNK3r2p10StaticListINS_5TopicEE5beginEv\000"
 13060      33723270 
 13060      31305374 
 13060      61746963 
 13060      4C697374 
ARM GAS  /tmp/ccyYK6L9.s 			page 253


 13061              	.LASF545:
 13062 2bc6 6D705F6E 		.ascii	"mp_next\000"
 13062      65787400 
 13063              	.LASF577:
 13064 2bce 5F5A4E33 		.ascii	"_ZN3r2p10ScopedLockINS_5MutexEEC2ERS1_\000"
 13064      72327031 
 13064      3053636F 
 13064      7065644C 
 13064      6F636B49 
 13065              	.LASF468:
 13066 2bf5 70617463 		.ascii	"patch_pubsub_msg\000"
 13066      685F7075 
 13066      62737562 
 13066      5F6D7367 
 13066      00
 13067              	.LASF114:
 13068 2c06 736B6970 		.ascii	"skip_unsafe\000"
 13068      5F756E73 
 13068      61666500 
 13069              	.LASF479:
 13070 2c12 42617365 		.ascii	"BaseSubscriber\000"
 13070      53756273 
 13070      63726962 
 13070      657200
 13071              	.LASF284:
 13072 2c21 6765745F 		.ascii	"get_name\000"
 13072      6E616D65 
 13072      00
 13073              	.LASF98:
 13074 2c2a 636F7079 		.ascii	"copy\000"
 13074      00
 13075              	.LASF547:
 13076 2c2f 6D705F70 		.ascii	"mp_provider\000"
 13076      726F7669 
 13076      64657200 
 13077              	.LASF197:
 13078 2c3b 5F5A4E33 		.ascii	"_ZN3r2p10StaticListINS_15RemotePublisherEE7restartE"
 13078      72327031 
 13078      30537461 
 13078      7469634C 
 13078      69737449 
 13079 2c6e 524E5332 		.ascii	"RNS2_8IteratorE\000"
 13079      5F384974 
 13079      65726174 
 13079      6F724500 
 13080              	.LASF429:
 13081 2c7e 5F5A4E4B 		.ascii	"_ZNK3r2p5Topic21has_local_subscribersEv\000"
 13081      33723270 
 13081      35546F70 
 13081      69633231 
 13081      6861735F 
 13082              	.LASF42:
 13083 2ca6 5F5A4E4B 		.ascii	"_ZNK3r2p4Time8to_m_rawEv\000"
 13083      33723270 
 13083      3454696D 
 13083      6538746F 
 13083      5F6D5F72 
ARM GAS  /tmp/ccyYK6L9.s 			page 254


 13084              	.LASF9:
 13085 2cbf 6C6F6E67 		.ascii	"long int\000"
 13085      20696E74 
 13085      00
 13086              	.LASF265:
 13087 2cc8 5F5A4E33 		.ascii	"_ZN3r2p10StaticListINS_9TransportEE6unlinkERNS2_4Li"
 13087      72327031 
 13087      30537461 
 13087      7469634C 
 13087      69737449 
 13088 2cfb 6E6B4500 		.ascii	"nkE\000"
 13089              	.LASF543:
 13090 2cff 70685F6E 		.ascii	"ph_next\000"
 13090      65787400 
 13091              	.LASF538:
 13092 2d07 6D5F7175 		.ascii	"m_queue\000"
 13092      65756500 
 13093              	.LASF211:
 13094 2d0f 5F5A4E4B 		.ascii	"_ZNK3r2p10StaticListINS_16RemoteSubscriberEE15is_em"
 13094      33723270 
 13094      31305374 
 13094      61746963 
 13094      4C697374 
 13095 2d42 7074795F 		.ascii	"pty_unsafeEv\000"
 13095      756E7361 
 13095      66654576 
 13095      00
 13096              	.LASF148:
 13097 2d4f 50726564 		.ascii	"Predicate\000"
 13097      69636174 
 13097      6500
 13098              	.LASF318:
 13099 2d59 616C6C6F 		.ascii	"alloc\000"
 13099      6300
 13100              	.LASF361:
 13101 2d5f 5F5A4E33 		.ascii	"_ZN3r2p10StaticListINS_15LocalSubscriberEE6unlinkER"
 13101      72327031 
 13101      30537461 
 13101      7469634C 
 13101      69737449 
 13102 2d92 4E53325F 		.ascii	"NS2_4LinkE\000"
 13102      344C696E 
 13102      6B4500
 13103              	.LASF294:
 13104 2d9d 61647665 		.ascii	"advertise_cb\000"
 13104      72746973 
 13104      655F6362 
 13104      00
 13105              	.LASF191:
 13106 2daa 66696E64 		.ascii	"find_first\000"
 13106      5F666972 
 13106      737400
 13107              	.LASF118:
 13108 2db5 5F5A4E33 		.ascii	"_ZN3r2p10ArrayQueueINS_22TimestampedMsgPtrQueue5Ent"
 13108      72327031 
 13108      30417272 
 13108      61795175 
ARM GAS  /tmp/ccyYK6L9.s 			page 255


 13108      65756549 
 13109 2de8 72794545 		.ascii	"ryEE4postES2_\000"
 13109      34706F73 
 13109      74455332 
 13109      5F00
 13110              	.LASF140:
 13111 2df6 53746174 		.ascii	"StaticList<r2p::RemotePublisher>\000"
 13111      69634C69 
 13111      73743C72 
 13111      32703A3A 
 13111      52656D6F 
 13112              	.LASF354:
 13113 2e17 5F5A4E4B 		.ascii	"_ZNK3r2p10StaticListINS_15LocalSubscriberEE12begin_"
 13113      33723270 
 13113      31305374 
 13113      61746963 
 13113      4C697374 
 13114 2e4a 756E7361 		.ascii	"unsafeEv\000"
 13114      66654576 
 13114      00
 13115              	.LASF584:
 13116 2e53 5F5A4E33 		.ascii	"_ZN3r2p10StaticListINS_9TransportEE4LinkC2ERS1_\000"
 13116      72327031 
 13116      30537461 
 13116      7469634C 
 13116      69737449 
 13117              	.LASF428:
 13118 2e83 6861735F 		.ascii	"has_local_subscribers\000"
 13118      6C6F6361 
 13118      6C5F7375 
 13118      62736372 
 13118      69626572 
 13119              	.LASF529:
 13120 2e99 636F6E74 		.ascii	"context\000"
 13120      65787400 
 13121              	.LASF363:
 13122 2ea1 5F5A4E4B 		.ascii	"_ZNK3r2p10StaticListINS_15LocalSubscriberEE8contain"
 13122      33723270 
 13122      31305374 
 13122      61746963 
 13122      4C697374 
 13123 2ed4 7345524B 		.ascii	"sERKS1_\000"
 13123      53315F00 
 13124              	.LASF488:
 13125 2edc 75696E74 		.ascii	"uint32_t\000"
 13125      33325F74 
 13125      00
 13126              	.LASF147:
 13127 2ee5 436F6E73 		.ascii	"ConstIterator\000"
 13127      74497465 
 13127      7261746F 
 13127      7200
 13128              	.LASF65:
 13129 2ef3 456E7472 		.ascii	"Entry\000"
 13129      7900
 13130              	.LASF441:
 13131 2ef9 5F5A4E33 		.ascii	"_ZN3r2p5Topic12alloc_unsafeEv\000"
ARM GAS  /tmp/ccyYK6L9.s 			page 256


 13131      72327035 
 13131      546F7069 
 13131      63313261 
 13131      6C6C6F63 
 13132              	.LASF177:
 13133 2f17 5F5A4E4B 		.ascii	"_ZNK3r2p10StaticListINS_15RemotePublisherEE14restar"
 13133      33723270 
 13133      31305374 
 13133      61746963 
 13133      4C697374 
 13134 2f4a 745F756E 		.ascii	"t_unsafeERNS2_19ConstIteratorUnsafeE\000"
 13134      73616665 
 13134      45524E53 
 13134      325F3139 
 13134      436F6E73 
 13135              	.LASF242:
 13136 2f6f 5F5A4E4B 		.ascii	"_ZNK3r2p10StaticListINS_16RemoteSubscriberEE10find_"
 13136      33723270 
 13136      31305374 
 13136      61746963 
 13136      4C697374 
 13137 2fa2 66697273 		.ascii	"firstIPFbRKNS_14BaseSubscriberEPKcEcEEPS1_T_PKT0_\000"
 13137      74495046 
 13137      62524B4E 
 13137      535F3134 
 13137      42617365 
 13138              	.LASF341:
 13139 2fd4 5F5A4E4B 		.ascii	"_ZNK3r2p10StaticListINS_15LocalSubscriberEE15get_he"
 13139      33723270 
 13139      31305374 
 13139      61746963 
 13139      4C697374 
 13140 3007 61645F75 		.ascii	"ad_unsafeEv\000"
 13140      6E736166 
 13140      65457600 
 13141              	.LASF556:
 13142 3013 5F5A4E33 		.ascii	"_ZN3r2p6Mutex_C2Ev\000"
 13142      72327036 
 13142      4D757465 
 13142      785F4332 
 13142      457600
 13143              	.LASF203:
 13144 3026 7E537461 		.ascii	"~StaticList\000"
 13144      7469634C 
 13144      69737400 
 13145              	.LASF455:
 13146 3032 5F5A4E33 		.ascii	"_ZN3r2p5Topic4freeERNS_7MessageE\000"
 13146      72327035 
 13146      546F7069 
 13146      63346672 
 13146      65654552 
 13147              	.LASF19:
 13148 3053 73747274 		.ascii	"strtok\000"
 13148      6F6B00
 13149              	.LASF526:
 13150 305a 72656761 		.ascii	"regarm_t\000"
 13150      726D5F74 
ARM GAS  /tmp/ccyYK6L9.s 			page 257


 13150      00
 13151              	.LASF586:
 13152 3063 70726576 		.ascii	"prevp\000"
 13152      7000
 13153              	.LASF496:
 13154 3069 6576656E 		.ascii	"eventmask_t\000"
 13154      746D6173 
 13154      6B5F7400 
 13155              	.LASF36:
 13156 3075 746F5F6D 		.ascii	"to_ms_raw\000"
 13156      735F7261 
 13156      7700
 13157              	.LASF443:
 13158 307f 5F5A4E33 		.ascii	"_ZN3r2p5Topic11free_unsafeERNS_7MessageE\000"
 13158      72327035 
 13158      546F7069 
 13158      63313166 
 13158      7265655F 
 13159              	.LASF238:
 13160 30a8 5F5A4E4B 		.ascii	"_ZNK3r2p10StaticListINS_16RemoteSubscriberEE5beginE"
 13160      33723270 
 13160      31305374 
 13160      61746963 
 13160      4C697374 
 13161 30db 7600     		.ascii	"v\000"
 13162              	.LASF11:
 13163 30dd 6C6F6E67 		.ascii	"long unsigned int\000"
 13163      20756E73 
 13163      69676E65 
 13163      6420696E 
 13163      7400
 13164              	.LASF63:
 13165 30ef 6D736770 		.ascii	"msgp\000"
 13165      00
 13166              	.LASF323:
 13167 30f4 5F5A4E33 		.ascii	"_ZN3r2p11MemoryPool_6extendEPvj\000"
 13167      72327031 
 13167      314D656D 
 13167      6F727950 
 13167      6F6F6C5F 
 13168              	.LASF53:
 13169 3114 6F706572 		.ascii	"operator+=\000"
 13169      61746F72 
 13169      2B3D00
 13170              	.LASF537:
 13171 311f 52656164 		.ascii	"ReadyList\000"
 13171      794C6973 
 13171      7400
 13172              	.LASF207:
 13173 3129 46656174 		.ascii	"Features\000"
 13173      75726573 
 13173      00
 13174              	.LASF347:
 13175 3132 5F5A4E4B 		.ascii	"_ZNK3r2p10StaticListINS_15LocalSubscriberEE15index_"
 13175      33723270 
 13175      31305374 
 13175      61746963 
ARM GAS  /tmp/ccyYK6L9.s 			page 258


 13175      4C697374 
 13176 3165 6F665F75 		.ascii	"of_unsafeERKS1_\000"
 13176      6E736166 
 13176      6545524B 
 13176      53315F00 
 13177              	.LASF447:
 13178 3175 5F5A4E33 		.ascii	"_ZN3r2p5Topic21notify_remotes_unsafeERNS_7MessageER"
 13178      72327035 
 13178      546F7069 
 13178      6332316E 
 13178      6F746966 
 13179 31a8 4B4E535F 		.ascii	"KNS_4TimeE\000"
 13179      3454696D 
 13179      654500
 13180              	.LASF58:
 13181 31b3 5F5A4E33 		.ascii	"_ZN3r2p4Time2msEl\000"
 13181      72327034 
 13181      54696D65 
 13181      326D7345 
 13181      6C00
 13182              	.LASF69:
 13183 31c5 706F7374 		.ascii	"post_unsafe\000"
 13183      5F756E73 
 13183      61666500 
 13184              	.LASF283:
 13185 31d1 5472616E 		.ascii	"Transport\000"
 13185      73706F72 
 13185      7400
 13186              	.LASF339:
 13187 31db 69735F76 		.ascii	"is_valid\000"
 13187      616C6964 
 13187      00
 13188              	.LASF16:
 13189 31e4 63686172 		.ascii	"char\000"
 13189      00
 13190              	.LASF23:
 13191 31e9 5379734C 		.ascii	"SysLock_\000"
 13191      6F636B5F 
 13191      00
 13192              	.LASF398:
 13193 31f2 5F5A4E4B 		.ascii	"_ZNK3r2p10StaticListINS_5TopicEE10find_firstEPFbRKS"
 13193      33723270 
 13193      31305374 
 13193      61746963 
 13193      4C697374 
 13194 3225 315F504B 		.ascii	"1_PKvES6_\000"
 13194      76455336 
 13194      5F00
 13195              	.LASF531:
 13196 322f 725F7175 		.ascii	"r_queue\000"
 13196      65756500 
 13197              	.LASF412:
 13198 3237 6D61785F 		.ascii	"max_queue_length\000"
 13198      71756575 
 13198      655F6C65 
 13198      6E677468 
 13198      00
ARM GAS  /tmp/ccyYK6L9.s 			page 259


 13199              	.LASF332:
 13200 3248 6F706572 		.ascii	"operator++\000"
 13200      61746F72 
 13200      2B2B00
 13201              	.LASF438:
 13202 3253 636F6D70 		.ascii	"compute_deadline_unsafe\000"
 13202      7574655F 
 13202      64656164 
 13202      6C696E65 
 13202      5F756E73 
 13203              	.LASF262:
 13204 326b 5F5A4E4B 		.ascii	"_ZNK3r2p10StaticListINS_9TransportEE8is_emptyEv\000"
 13204      33723270 
 13204      31305374 
 13204      61746963 
 13204      4C697374 
 13205              	.LASF106:
 13206 329b 41727261 		.ascii	"ArrayQueue<r2p::TimestampedMsgPtrQueue::Entry>\000"
 13206      79517565 
 13206      75653C72 
 13206      32703A3A 
 13206      54696D65 
 13207              	.LASF188:
 13208 32ca 5F5A4E4B 		.ascii	"_ZNK3r2p10StaticListINS_15RemotePublisherEE8index_o"
 13208      33723270 
 13208      31305374 
 13208      61746963 
 13208      4C697374 
 13209 32fd 6645524B 		.ascii	"fERKS1_\000"
 13209      53315F00 
 13210              	.LASF348:
 13211 3305 5F5A4E4B 		.ascii	"_ZNK3r2p10StaticListINS_15LocalSubscriberEE15contai"
 13211      33723270 
 13211      31305374 
 13211      61746963 
 13211      4C697374 
 13212 3338 6E735F75 		.ascii	"ns_unsafeERKS1_\000"
 13212      6E736166 
 13212      6545524B 
 13212      53315F00 
 13213              	.LASF55:
 13214 3348 6F706572 		.ascii	"operator-=\000"
 13214      61746F72 
 13214      2D3D00
 13215              	.LASF328:
 13216 3353 6F706572 		.ascii	"operator->\000"
 13216      61746F72 
 13216      2D3E00
 13217              	.LASF167:
 13218 335e 5F5A4E4B 		.ascii	"_ZNK3r2p10StaticListINS_15RemotePublisherEE17find_f"
 13218      33723270 
 13218      31305374 
 13218      61746963 
 13218      4C697374 
 13219 3391 69727374 		.ascii	"irst_unsafeEPFbRKS1_E\000"
 13219      5F756E73 
 13219      61666545 
ARM GAS  /tmp/ccyYK6L9.s 			page 260


 13219      50466252 
 13219      4B53315F 
 13220              	.LASF255:
 13221 33a7 5F5A4E33 		.ascii	"_ZN3r2p10StaticListINS_9TransportEE12begin_unsafeEv"
 13221      72327031 
 13221      30537461 
 13221      7469634C 
 13221      69737449 
 13222 33da 00       		.ascii	"\000"
 13223              	.LASF302:
 13224 33db 63726561 		.ascii	"create_publisher\000"
 13224      74655F70 
 13224      75626C69 
 13224      73686572 
 13224      00
 13225              	.LASF427:
 13226 33ec 5F5A4E4B 		.ascii	"_ZNK3r2p5Topic14has_publishersEv\000"
 13226      33723270 
 13226      35546F70 
 13226      69633134 
 13226      6861735F 
 13227              	.LASF523:
 13228 340d 31325468 		.ascii	"12ThreadsQueue\000"
 13228      72656164 
 13228      73517565 
 13228      756500
 13229              	.LASF390:
 13230 341c 5F5A4E4B 		.ascii	"_ZNK3r2p10StaticListINS_5TopicEE8get_headEv\000"
 13230      33723270 
 13230      31305374 
 13230      61746963 
 13230      4C697374 
 13231              	.LASF334:
 13232 3448 5F5A4E33 		.ascii	"_ZN3r2p10StaticListINS_15LocalSubscriberEE13ConstIt"
 13232      72327031 
 13232      30537461 
 13232      7469634C 
 13232      69737449 
 13233 347b 65726174 		.ascii	"eratorppEi\000"
 13233      6F727070 
 13233      456900
 13234              	.LASF310:
 13235 3486 6765745F 		.ascii	"get_item_size\000"
 13235      6974656D 
 13235      5F73697A 
 13235      6500
 13236              	.LASF180:
 13237 3494 69735F65 		.ascii	"is_empty\000"
 13237      6D707479 
 13237      00
 13238              	.LASF227:
 13239 349d 5F5A4E4B 		.ascii	"_ZNK3r2p10StaticListINS_16RemoteSubscriberEE8is_emp"
 13239      33723270 
 13239      31305374 
 13239      61746963 
 13239      4C697374 
 13240 34d0 74794576 		.ascii	"tyEv\000"
ARM GAS  /tmp/ccyYK6L9.s 			page 261


 13240      00
 13241              	.LASF444:
 13242 34d5 6E6F7469 		.ascii	"notify_locals_unsafe\000"
 13242      66795F6C 
 13242      6F63616C 
 13242      735F756E 
 13242      73616665 
 13243              	.LASF29:
 13244 34ea 5F5A4E33 		.ascii	"_ZN3r2p7SysLock7acquireEv\000"
 13244      72327037 
 13244      5379734C 
 13244      6F636B37 
 13244      61637175 
 13245              	.LASF510:
 13246 3504 705F7374 		.ascii	"p_stklimit\000"
 13246      6B6C696D 
 13246      697400
 13247              	.LASF475:
 13248 350f 6C6F636B 		.ascii	"lock\000"
 13248      00
 13249              	.LASF248:
 13250 3514 5F5A4E33 		.ascii	"_ZN3r2p10StaticListINS_9TransportEE11link_unsafeERN"
 13250      72327031 
 13250      30537461 
 13250      7469634C 
 13250      69737449 
 13251 3547 53325F34 		.ascii	"S2_4LinkE\000"
 13251      4C696E6B 
 13251      4500
 13252              	.LASF74:
 13253 3551 5F5A4E4B 		.ascii	"_ZNK3r2p22TimestampedMsgPtrQueue10get_lengthEv\000"
 13253      33723270 
 13253      32325469 
 13253      6D657374 
 13253      616D7065 
 13254              	.LASF346:
 13255 3580 5F5A4E33 		.ascii	"_ZN3r2p10StaticListINS_15LocalSubscriberEE13unlink_"
 13255      72327031 
 13255      30537461 
 13255      7469634C 
 13255      69737449 
 13256 35b3 756E7361 		.ascii	"unsafeERNS2_4LinkE\000"
 13256      66654552 
 13256      4E53325F 
 13256      344C696E 
 13256      6B4500
 13257              	.LASF298:
 13258 35c6 61647665 		.ascii	"advertise\000"
 13258      72746973 
 13258      6500
 13259              	.LASF31:
 13260 35d0 54696D65 		.ascii	"Time\000"
 13260      00
 13261              	.LASF463:
 13262 35d5 5F5A4E33 		.ascii	"_ZN3r2p5Topic11extend_poolEPNS_7MessageEj\000"
 13262      72327035 
 13262      546F7069 
ARM GAS  /tmp/ccyYK6L9.s 			page 262


 13262      63313165 
 13262      7874656E 
 13263              	.LASF573:
 13264 35ff 5F5A4E33 		.ascii	"_ZN3r2p10StaticListINS_16RemoteSubscriberEED2Ev\000"
 13264      72327031 
 13264      30537461 
 13264      7469634C 
 13264      69737449 
 13265              	.LASF156:
 13266 362f 6C696E6B 		.ascii	"link_unsafe\000"
 13266      5F756E73 
 13266      61666500 
 13267              	.LASF219:
 13268 363b 5F5A4E4B 		.ascii	"_ZNK3r2p10StaticListINS_16RemoteSubscriberEE17find_"
 13268      33723270 
 13268      31305374 
 13268      61746963 
 13268      4C697374 
 13269 366e 66697273 		.ascii	"first_unsafeEPFbRKS1_PKvES6_\000"
 13269      745F756E 
 13269      73616665 
 13269      45504662 
 13269      524B5331 
 13270              	.LASF467:
 13271 368b 5F5A4E33 		.ascii	"_ZN3r2p5Topic9subscribeERNS_16RemoteSubscriberEj\000"
 13271      72327035 
 13271      546F7069 
 13271      63397375 
 13271      62736372 
 13272              	.LASF559:
 13273 36bc 746F7069 		.ascii	"topic\000"
 13273      6300
 13274              	.LASF476:
 13275 36c2 53636F70 		.ascii	"ScopedLock\000"
 13275      65644C6F 
 13275      636B00
 13276              	.LASF581:
 13277 36cd 5F5A4E33 		.ascii	"_ZN3r2p10StaticListINS_15RemotePublisherEEC2Ev\000"
 13277      72327031 
 13277      30537461 
 13277      7469634C 
 13277      69737449 
 13278              	.LASF225:
 13279 36fc 5F5A4E4B 		.ascii	"_ZNK3r2p10StaticListINS_16RemoteSubscriberEE14resta"
 13279      33723270 
 13279      31305374 
 13279      61746963 
 13279      4C697374 
 13280 372f 72745F75 		.ascii	"rt_unsafeERNS2_19ConstIteratorUnsafeE\000"
 13280      6E736166 
 13280      6545524E 
 13280      53325F31 
 13280      39436F6E 
 13281              	.LASF585:
 13282 3755 6C696E6B 		.ascii	"linkp\000"
 13282      7000
 13283              	.LASF477:
ARM GAS  /tmp/ccyYK6L9.s 			page 263


 13284 375b 7E53636F 		.ascii	"~ScopedLock\000"
 13284      7065644C 
 13284      6F636B00 
 13285              	.LASF548:
 13286 3767 4D656D6F 		.ascii	"MemoryPool\000"
 13286      7279506F 
 13286      6F6C00
 13287              	.LASF401:
 13288 3772 5F5A4E33 		.ascii	"_ZN3r2p10StaticListINS_5TopicEE7restartERNS2_8Itera"
 13288      72327031 
 13288      30537461 
 13288      7469634C 
 13288      69737449 
 13289 37a5 746F7245 		.ascii	"torE\000"
 13289      00
 13290              	.LASF81:
 13291 37aa 4D657373 		.ascii	"Message\000"
 13291      61676500 
 13292              	.LASF269:
 13293 37b2 5F5A4E4B 		.ascii	"_ZNK3r2p10StaticListINS_9TransportEE10find_firstEPF"
 13293      33723270 
 13293      31305374 
 13293      61746963 
 13293      4C697374 
 13294 37e5 62524B53 		.ascii	"bRKS1_PKvES6_\000"
 13294      315F504B 
 13294      76455336 
 13294      5F00
 13295              	.LASF501:
 13296 37f3 77746F62 		.ascii	"wtobjp\000"
 13296      6A7000
 13297              	.LASF190:
 13298 37fa 5F5A4E4B 		.ascii	"_ZNK3r2p10StaticListINS_15RemotePublisherEE8contain"
 13298      33723270 
 13298      31305374 
 13298      61746963 
 13298      4C697374 
 13299 382d 7345524B 		.ascii	"sERKS1_\000"
 13299      53315F00 
 13300              	.LASF417:
 13301 3835 5F5A4E4B 		.ascii	"_ZNK3r2p5Topic16get_payload_sizeEv\000"
 13301      33723270 
 13301      35546F70 
 13301      69633136 
 13301      6765745F 
 13302              	.LASF121:
 13303 3858 5F5A4E33 		.ascii	"_ZN3r2p10ArrayQueueINS_22TimestampedMsgPtrQueue5Ent"
 13303      72327031 
 13303      30417272 
 13303      61795175 
 13303      65756549 
 13304 388b 72794545 		.ascii	"ryEE4skipEv\000"
 13304      34736B69 
 13304      70457600 
 13305              	.LASF124:
 13306 3897 696E6974 		.ascii	"initialize\000"
 13306      69616C69 
ARM GAS  /tmp/ccyYK6L9.s 			page 264


 13306      7A6500
 13307              	.LASF520:
 13308 38a2 705F7265 		.ascii	"p_realprio\000"
 13308      616C7072 
 13308      696F00
 13309              	.LASF311:
 13310 38ad 5F5A4E4B 		.ascii	"_ZNK3r2p11MemoryPool_13get_item_sizeEv\000"
 13310      33723270 
 13310      31314D65 
 13310      6D6F7279 
 13310      506F6F6C 
 13311              	.LASF72:
 13312 38d4 5F5A4E33 		.ascii	"_ZN3r2p22TimestampedMsgPtrQueue12fetch_unsafeERNS0_"
 13312      72327032 
 13312      3254696D 
 13312      65737461 
 13312      6D706564 
 13313 3907 35456E74 		.ascii	"5EntryE\000"
 13313      72794500 
 13314              	.LASF601:
 13315 390f 5F5F7674 		.ascii	"__vtbl_ptr_type\000"
 13315      626C5F70 
 13315      74725F74 
 13315      79706500 
 13316              	.LASF59:
 13317 391f 5F5A4E33 		.ascii	"_ZN3r2p4Time1sEl\000"
 13317      72327034 
 13317      54696D65 
 13317      3173456C 
 13317      00
 13318              	.LASF25:
 13319 3930 72656C65 		.ascii	"release\000"
 13319      61736500 
 13320              	.LASF193:
 13321 3938 5F5A4E4B 		.ascii	"_ZNK3r2p10StaticListINS_15RemotePublisherEE10find_f"
 13321      33723270 
 13321      31305374 
 13321      61746963 
 13321      4C697374 
 13322 396b 69727374 		.ascii	"irstEPFbRKS1_PKvES6_\000"
 13322      45504662 
 13322      524B5331 
 13322      5F504B76 
 13322      4553365F 
 13323              	.LASF549:
 13324 3980 646F7562 		.ascii	"double\000"
 13324      6C6500
 13325              	.LASF598:
 13326 3987 5F5A4E33 		.ascii	"_ZN3r2p9Transport15fill_raw_paramsERKNS_5TopicEPh\000"
 13326      72327039 
 13326      5472616E 
 13326      73706F72 
 13326      74313566 
 13327              	.LASF234:
 13328 39b9 5F5A4E4B 		.ascii	"_ZNK3r2p10StaticListINS_16RemoteSubscriberEE10find_"
 13328      33723270 
 13328      31305374 
ARM GAS  /tmp/ccyYK6L9.s 			page 265


 13328      61746963 
 13328      4C697374 
 13329 39ec 66697273 		.ascii	"firstEPFbRKS1_PKvES6_\000"
 13329      74455046 
 13329      62524B53 
 13329      315F504B 
 13329      76455336 
 13330              	.LASF30:
 13331 3a02 5F5A4E33 		.ascii	"_ZN3r2p7SysLock7releaseEv\000"
 13331      72327037 
 13331      5379734C 
 13331      6F636B37 
 13331      72656C65 
 13332              	.LASF434:
 13333 3a1c 69735F61 		.ascii	"is_awaiting_advertisements\000"
 13333      77616974 
 13333      696E675F 
 13333      61647665 
 13333      72746973 
 13334              	.LASF259:
 13335 3a37 5F5A4E4B 		.ascii	"_ZNK3r2p10StaticListINS_9TransportEE10end_unsafeEv\000"
 13335      33723270 
 13335      31305374 
 13335      61746963 
 13335      4C697374 
 13336              	.LASF306:
 13337 3a6a 6861735F 		.ascii	"has_name\000"
 13337      6E616D65 
 13337      00
 13338              	.LASF8:
 13339 3a73 5F5F696E 		.ascii	"__int32_t\000"
 13339      7433325F 
 13339      7400
 13340              	.LASF87:
 13341 3a7d 61637175 		.ascii	"acquire_unsafe\000"
 13341      6972655F 
 13341      756E7361 
 13341      666500
 13342              	.LASF437:
 13343 3a8c 5F5A4E4B 		.ascii	"_ZNK3r2p5Topic25is_awaiting_subscriptionsEv\000"
 13343      33723270 
 13343      35546F70 
 13343      69633235 
 13343      69735F61 
 13344              	.LASF10:
 13345 3ab8 5F5F7569 		.ascii	"__uint32_t\000"
 13345      6E743332 
 13345      5F7400
 13346              	.LASF377:
 13347 3ac3 5F5A4E33 		.ascii	"_ZN3r2p10StaticListINS_5TopicEE11link_unsafeERNS2_4"
 13347      72327031 
 13347      30537461 
 13347      7469634C 
 13347      69737449 
 13348 3af6 4C696E6B 		.ascii	"LinkE\000"
 13348      4500
 13349              	.LASF249:
ARM GAS  /tmp/ccyYK6L9.s 			page 266


 13350 3afc 5F5A4E33 		.ascii	"_ZN3r2p10StaticListINS_9TransportEE16link_tail_unsa"
 13350      72327031 
 13350      30537461 
 13350      7469634C 
 13350      69737449 
 13351 3b2f 66654552 		.ascii	"feERNS2_4LinkE\000"
 13351      4E53325F 
 13351      344C696E 
 13351      6B4500
 13352              	.LASF164:
 13353 3b3e 636F6E74 		.ascii	"contains_unsafe\000"
 13353      61696E73 
 13353      5F756E73 
 13353      61666500 
 13354              	.LASF583:
 13355 3b4e 6974656D 		.ascii	"item\000"
 13355      00
 13356              	.LASF388:
 13357 3b53 5F5A4E4B 		.ascii	"_ZNK3r2p10StaticListINS_5TopicEE10end_unsafeEv\000"
 13357      33723270 
 13357      31305374 
 13357      61746963 
 13357      4C697374 
 13358              	.LASF555:
 13359 3b82 5F5A4E33 		.ascii	"_ZN3r2p22TimestampedMsgPtrQueue5EntryC2Ev\000"
 13359      72327032 
 13359      3254696D 
 13359      65737461 
 13359      6D706564 
 13360              	.LASF469:
 13361 3bac 5F5A4E4B 		.ascii	"_ZNK3r2p5Topic16patch_pubsub_msgERNS_7MessageERNS_9"
 13361      33723270 
 13361      35546F70 
 13361      69633136 
 13361      70617463 
 13362 3bdf 5472616E 		.ascii	"TransportE\000"
 13362      73706F72 
 13362      744500
 13363              	.LASF76:
 13364 3bea 5F5A4E4B 		.ascii	"_ZNK3r2p22TimestampedMsgPtrQueue9get_countEv\000"
 13364      33723270 
 13364      32325469 
 13364      6D657374 
 13364      616D7065 
 13365              	.LASF518:
 13366 3c17 705F6570 		.ascii	"p_epending\000"
 13366      656E6469 
 13366      6E6700
 13367              	.LASF116:
 13368 3c22 5F5A4E4B 		.ascii	"_ZNK3r2p10ArrayQueueINS_22TimestampedMsgPtrQueue5En"
 13368      33723270 
 13368      31304172 
 13368      72617951 
 13368      75657565 
 13369 3c55 74727945 		.ascii	"tryEE10get_lengthEv\000"
 13369      45313067 
 13369      65745F6C 
ARM GAS  /tmp/ccyYK6L9.s 			page 267


 13369      656E6774 
 13369      68457600 
 13370              	.LASF451:
 13371 3c69 5F5A4E4B 		.ascii	"_ZNK3r2p5Topic16compute_deadlineERKNS_4TimeE\000"
 13371      33723270 
 13371      35546F70 
 13371      69633136 
 13371      636F6D70 
 13372              	.LASF343:
 13373 3c96 5F5A4E4B 		.ascii	"_ZNK3r2p10StaticListINS_15LocalSubscriberEE12count_"
 13373      33723270 
 13373      31305374 
 13373      61746963 
 13373      4C697374 
 13374 3cc9 756E7361 		.ascii	"unsafeEv\000"
 13374      66654576 
 13374      00
 13375              	.LASF482:
 13376 3cd2 5F5A4E33 		.ascii	"_ZN3r2p13BasePublisher17notify_advertisedERNS_5Topi"
 13376      72327031 
 13376      33426173 
 13376      65507562 
 13376      6C697368 
 13377 3d05 634500   		.ascii	"cE\000"
 13378              	.LASF134:
 13379 3d08 5F5A4E33 		.ascii	"_ZN3r2p5Mutex10initializeEv\000"
 13379      72327035 
 13379      4D757465 
 13379      78313069 
 13379      6E697469 
 13380              	.LASF299:
 13381 3d24 5F5A4E33 		.ascii	"_ZN3r2p9Transport9advertiseERNS_15RemotePublisherEP"
 13381      72327039 
 13381      5472616E 
 13381      73706F72 
 13381      74396164 
 13382 3d57 4B63524B 		.ascii	"KcRKNS_4TimeEj\000"
 13382      4E535F34 
 13382      54696D65 
 13382      456A00
 13383              	.LASF209:
 13384 3d66 53746174 		.ascii	"StaticList<r2p::RemoteSubscriber>\000"
 13384      69634C69 
 13384      73743C72 
 13384      32703A3A 
 13384      52656D6F 
 13385              	.LASF186:
 13386 3d88 5F5A4E33 		.ascii	"_ZN3r2p10StaticListINS_15RemotePublisherEE6unlinkER"
 13386      72327031 
 13386      30537461 
 13386      7469634C 
 13386      69737449 
 13387 3dbb 4E53325F 		.ascii	"NS2_4LinkE\000"
 13387      344C696E 
 13387      6B4500
 13388              	.LASF243:
 13389 3dc6 52656D6F 		.ascii	"RemoteSubscriber\000"
ARM GAS  /tmp/ccyYK6L9.s 			page 268


 13389      74655375 
 13389      62736372 
 13389      69626572 
 13389      00
 13390              	.LASF176:
 13391 3dd7 5F5A4E4B 		.ascii	"_ZNK3r2p10StaticListINS_15RemotePublisherEE10end_un"
 13391      33723270 
 13391      31305374 
 13391      61746963 
 13391      4C697374 
 13392 3e0a 73616665 		.ascii	"safeEv\000"
 13392      457600
 13393              	.LASF157:
 13394 3e11 6C696E6B 		.ascii	"link_tail_unsafe\000"
 13394      5F746169 
 13394      6C5F756E 
 13394      73616665 
 13394      00
 13395              	.LASF271:
 13396 3e22 5F5A4E33 		.ascii	"_ZN3r2p10StaticListINS_9TransportEE3endEv\000"
 13396      72327031 
 13396      30537461 
 13396      7469634C 
 13396      69737449 
 13397              	.LASF380:
 13398 3e4c 5F5A4E4B 		.ascii	"_ZNK3r2p10StaticListINS_5TopicEE15index_of_unsafeER"
 13398      33723270 
 13398      31305374 
 13398      61746963 
 13398      4C697374 
 13399 3e7f 4B53315F 		.ascii	"KS1_\000"
 13399      00
 13400              	.LASF532:
 13401 3e84 725F7072 		.ascii	"r_prio\000"
 13401      696F00
 13402              	.LASF146:
 13403 3e8b 49746572 		.ascii	"Iterator\000"
 13403      61746F72 
 13403      00
 13404              	.LASF592:
 13405 3e94 49544D5F 		.ascii	"ITM_RxBuffer\000"
 13405      52784275 
 13405      66666572 
 13405      00
 13406              	.LASF544:
 13407 3ea1 31304D65 		.ascii	"10MemoryPool\000"
 13407      6D6F7279 
 13407      506F6F6C 
 13407      00
 13408              	.LASF14:
 13409 3eae 6C6F6E67 		.ascii	"long long unsigned int\000"
 13409      206C6F6E 
 13409      6720756E 
 13409      7369676E 
 13409      65642069 
 13410              	.LASF404:
 13411 3ec5 5F5A4E4B 		.ascii	"_ZNK3r2p10StaticListINS_5TopicEE7restartERNS2_13Con"
ARM GAS  /tmp/ccyYK6L9.s 			page 269


 13411      33723270 
 13411      31305374 
 13411      61746963 
 13411      4C697374 
 13412 3ef8 73744974 		.ascii	"stIteratorE\000"
 13412      65726174 
 13412      6F724500 
 13413              	.LASF373:
 13414 3f04 53746174 		.ascii	"StaticList<r2p::Topic>\000"
 13414      69634C69 
 13414      73743C72 
 13414      32703A3A 
 13414      546F7069 
 13415              	.LASF364:
 13416 3f1b 5F5A4E4B 		.ascii	"_ZNK3r2p10StaticListINS_15LocalSubscriberEE10find_f"
 13416      33723270 
 13416      31305374 
 13416      61746963 
 13416      4C697374 
 13417 3f4e 69727374 		.ascii	"irstEPFbRKS1_E\000"
 13417      45504662 
 13417      524B5331 
 13417      5F4500
 13418              	.LASF295:
 13419 3f5d 5F5A4E33 		.ascii	"_ZN3r2p9Transport12advertise_cbERNS_5TopicEPKh\000"
 13419      72327039 
 13419      5472616E 
 13419      73706F72 
 13419      74313261 
 13420              	.LASF322:
 13421 3f8c 65787465 		.ascii	"extend\000"
 13421      6E6400
 13422              	.LASF28:
 13423 3f93 5379734C 		.ascii	"SysLock\000"
 13423      6F636B00 
 13424              	.LASF122:
 13425 3f9b 41727261 		.ascii	"ArrayQueue\000"
 13425      79517565 
 13425      756500
 13426              	.LASF152:
 13427 3fa6 5F5A4E4B 		.ascii	"_ZNK3r2p10StaticListINS_15RemotePublisherEE15get_he"
 13427      33723270 
 13427      31305374 
 13427      61746963 
 13427      4C697374 
 13428 3fd9 61645F75 		.ascii	"ad_unsafeEv\000"
 13428      6E736166 
 13428      65457600 
 13429              	.LASF228:
 13430 3fe5 5F5A4E4B 		.ascii	"_ZNK3r2p10StaticListINS_16RemoteSubscriberEE5countE"
 13430      33723270 
 13430      31305374 
 13430      61746963 
 13430      4C697374 
 13431 4018 7600     		.ascii	"v\000"
 13432              	.LASF231:
 13433 401a 5F5A4E4B 		.ascii	"_ZNK3r2p10StaticListINS_16RemoteSubscriberEE8index_"
ARM GAS  /tmp/ccyYK6L9.s 			page 270


 13433      33723270 
 13433      31305374 
 13433      61746963 
 13433      4C697374 
 13434 404d 6F664552 		.ascii	"ofERKS1_\000"
 13434      4B53315F 
 13434      00
 13435              	.LASF220:
 13436 4056 5F5A4E33 		.ascii	"_ZN3r2p10StaticListINS_16RemoteSubscriberEE12begin_"
 13436      72327031 
 13436      30537461 
 13436      7469634C 
 13436      69737449 
 13437 4089 756E7361 		.ascii	"unsafeEv\000"
 13437      66654576 
 13437      00
 13438              	.LASF512:
 13439 4092 705F666C 		.ascii	"p_flags\000"
 13439      61677300 
 13440              	.LASF381:
 13441 409a 5F5A4E4B 		.ascii	"_ZNK3r2p10StaticListINS_5TopicEE15contains_unsafeER"
 13441      33723270 
 13441      31305374 
 13441      61746963 
 13441      4C697374 
 13442 40cd 4B53315F 		.ascii	"KS1_\000"
 13442      00
 13443              	.LASF502:
 13444 40d2 65776D61 		.ascii	"ewmask\000"
 13444      736B00
 13445              	.LASF329:
 13446 40d9 5F5A4E4B 		.ascii	"_ZNK3r2p10StaticListINS_15LocalSubscriberEE13ConstI"
 13446      33723270 
 13446      31305374 
 13446      61746963 
 13446      4C697374 
 13447 410c 74657261 		.ascii	"teratorptEv\000"
 13447      746F7270 
 13447      74457600 
 13448              	.LASF256:
 13449 4118 5F5A4E33 		.ascii	"_ZN3r2p10StaticListINS_9TransportEE10end_unsafeEv\000"
 13449      72327031 
 13449      30537461 
 13449      7469634C 
 13449      69737449 
 13450              	.LASF216:
 13451 414a 5F5A4E4B 		.ascii	"_ZNK3r2p10StaticListINS_16RemoteSubscriberEE15index"
 13451      33723270 
 13451      31305374 
 13451      61746963 
 13451      4C697374 
 13452 417d 5F6F665F 		.ascii	"_of_unsafeERKS1_\000"
 13452      756E7361 
 13452      66654552 
 13452      4B53315F 
 13452      00
 13453              	.LASF282:
ARM GAS  /tmp/ccyYK6L9.s 			page 271


 13454 418e 62795F6D 		.ascii	"by_middleware\000"
 13454      6964646C 
 13454      65776172 
 13454      6500
 13455              	.LASF296:
 13456 419c 73756273 		.ascii	"subscribe_cb\000"
 13456      63726962 
 13456      655F6362 
 13456      00
 13457              	.LASF519:
 13458 41a9 705F6D74 		.ascii	"p_mtxlist\000"
 13458      786C6973 
 13458      7400
 13459              	.LASF48:
 13460 41b3 5F5A4E4B 		.ascii	"_ZNK3r2p4Time4to_sEv\000"
 13460      33723270 
 13460      3454696D 
 13460      6534746F 
 13460      5F734576 
 13461              	.LASF492:
 13462 41c8 74737461 		.ascii	"tstate_t\000"
 13462      74655F74 
 13462      00
 13463              	.LASF54:
 13464 41d1 5F5A4E33 		.ascii	"_ZN3r2p4TimepLERKS0_\000"
 13464      72327034 
 13464      54696D65 
 13464      704C4552 
 13464      4B53305F 
 13465              	.LASF128:
 13466 41e6 5F5A4E33 		.ascii	"_ZN3r2p6Mutex_7acquireEv\000"
 13466      72327036 
 13466      4D757465 
 13466      785F3761 
 13466      63717569 
 13467              	.LASF419:
 13468 41ff 5F5A4E4B 		.ascii	"_ZNK3r2p5Topic20get_max_queue_lengthEv\000"
 13468      33723270 
 13468      35546F70 
 13468      69633230 
 13468      6765745F 
 13469              	.LASF563:
 13470 4226 7261775F 		.ascii	"raw_params\000"
 13470      70617261 
 13470      6D7300
 13471              	.LASF139:
 13472 4231 7E4D7574 		.ascii	"~Mutex\000"
 13472      657800
 13473              	.LASF552:
 13474 4238 5F5A4E33 		.ascii	"_ZN3r2p10UncopyableC2Ev\000"
 13474      72327031 
 13474      30556E63 
 13474      6F707961 
 13474      626C6543 
 13475              	.LASF182:
 13476 4250 5F5A4E4B 		.ascii	"_ZNK3r2p10StaticListINS_15RemotePublisherEE5countEv"
 13476      33723270 
ARM GAS  /tmp/ccyYK6L9.s 			page 272


 13476      31305374 
 13476      61746963 
 13476      4C697374 
 13477 4283 00       		.ascii	"\000"
 13478              	.LASF163:
 13479 4284 5F5A4E4B 		.ascii	"_ZNK3r2p10StaticListINS_15RemotePublisherEE15index_"
 13479      33723270 
 13479      31305374 
 13479      61746963 
 13479      4C697374 
 13480 42b7 6F665F75 		.ascii	"of_unsafeERKS1_\000"
 13480      6E736166 
 13480      6545524B 
 13480      53315F00 
 13481              	.LASF103:
 13482 42c7 6765745F 		.ascii	"get_type_size\000"
 13482      74797065 
 13482      5F73697A 
 13482      6500
 13483              	.LASF131:
 13484 42d5 5F5A4E33 		.ascii	"_ZN3r2p6Mutex_8get_implEv\000"
 13484      72327036 
 13484      4D757465 
 13484      785F3867 
 13484      65745F69 
 13485              	.LASF478:
 13486 42ef 4C6F636B 		.ascii	"Lockable\000"
 13486      61626C65 
 13486      00
 13487              	.LASF371:
 13488 42f8 5F5A4E4B 		.ascii	"_ZNK3r2p10StaticListINS_15LocalSubscriberEE7restart"
 13488      33723270 
 13488      31305374 
 13488      61746963 
 13488      4C697374 
 13489 432b 45524E53 		.ascii	"ERNS2_13ConstIteratorE\000"
 13489      325F3133 
 13489      436F6E73 
 13489      74497465 
 13489      7261746F 
 13490              	.LASF415:
 13491 4342 5F5A4E4B 		.ascii	"_ZNK3r2p5Topic19get_publish_timeoutEv\000"
 13491      33723270 
 13491      35546F70 
 13491      69633139 
 13491      6765745F 
 13492              	.LASF241:
 13493 4368 66696E64 		.ascii	"find_first<bool (*)(const r2p::BaseSubscriber&, cha"
 13493      5F666972 
 13493      73743C62 
 13493      6F6F6C20 
 13493      282A2928 
 13494 439b 7220636F 		.ascii	"r const*), char>\000"
 13494      6E73742A 
 13494      292C2063 
 13494      6861723E 
 13494      00
ARM GAS  /tmp/ccyYK6L9.s 			page 273


 13495              	.LASF40:
 13496 43ac 5F5A4E4B 		.ascii	"_ZNK3r2p4Time8to_s_rawEv\000"
 13496      33723270 
 13496      3454696D 
 13496      6538746F 
 13496      5F735F72 
 13497              	.LASF435:
 13498 43c5 5F5A4E4B 		.ascii	"_ZNK3r2p5Topic26is_awaiting_advertisementsEv\000"
 13498      33723270 
 13498      35546F70 
 13498      69633236 
 13498      69735F61 
 13499              	.LASF229:
 13500 43f2 5F5A4E33 		.ascii	"_ZN3r2p10StaticListINS_16RemoteSubscriberEE4linkERN"
 13500      72327031 
 13500      30537461 
 13500      7469634C 
 13500      69737449 
 13501 4425 53325F34 		.ascii	"S2_4LinkE\000"
 13501      4C696E6B 
 13501      4500
 13502              	.LASF423:
 13503 442f 5F5A4E4B 		.ascii	"_ZNK3r2p5Topic20has_local_publishersEv\000"
 13503      33723270 
 13503      35546F70 
 13503      69633230 
 13503      6861735F 
 13504              	.LASF594:
 13505 4456 2F6F7074 		.ascii	"/opt/R2P/core/Middleware/src/Transport.cpp\000"
 13505      2F523250 
 13505      2F636F72 
 13505      652F4D69 
 13505      64646C65 
 13506              	.LASF551:
 13507 4481 5F5F696E 		.ascii	"__in_chrg\000"
 13507      5F636872 
 13507      6700
 13508              	.LASF233:
 13509 448b 5F5A4E4B 		.ascii	"_ZNK3r2p10StaticListINS_16RemoteSubscriberEE10find_"
 13509      33723270 
 13509      31305374 
 13509      61746963 
 13509      4C697374 
 13510 44be 66697273 		.ascii	"firstEPFbRKS1_E\000"
 13510      74455046 
 13510      62524B53 
 13510      315F4500 
 13511              	.LASF141:
 13512 44ce 4C696E6B 		.ascii	"Link\000"
 13512      00
 13513              	.LASF403:
 13514 44d3 5F5A4E4B 		.ascii	"_ZNK3r2p10StaticListINS_5TopicEE3endEv\000"
 13514      33723270 
 13514      31305374 
 13514      61746963 
 13514      4C697374 
 13515              	.LASF178:
ARM GAS  /tmp/ccyYK6L9.s 			page 274


 13516 44fa 6765745F 		.ascii	"get_head\000"
 13516      68656164 
 13516      00
 13517              	.LASF308:
 13518 4503 4D656D6F 		.ascii	"MemoryPool_\000"
 13518      7279506F 
 13518      6F6C5F00 
 13519              	.LASF165:
 13520 450f 5F5A4E4B 		.ascii	"_ZNK3r2p10StaticListINS_15RemotePublisherEE15contai"
 13520      33723270 
 13520      31305374 
 13520      61746963 
 13520      4C697374 
 13521 4542 6E735F75 		.ascii	"ns_unsafeERKS1_\000"
 13521      6E736166 
 13521      6545524B 
 13521      53315F00 
 13522              	.LASF12:
 13523 4552 6C6F6E67 		.ascii	"long long int\000"
 13523      206C6F6E 
 13523      6720696E 
 13523      7400
 13524              	.LASF414:
 13525 4560 6765745F 		.ascii	"get_publish_timeout\000"
 13525      7075626C 
 13525      6973685F 
 13525      74696D65 
 13525      6F757400 
 13526              	.LASF112:
 13527 4574 5F5A4E33 		.ascii	"_ZN3r2p10ArrayQueueINS_22TimestampedMsgPtrQueue5Ent"
 13527      72327031 
 13527      30417272 
 13527      61795175 
 13527      65756549 
 13528 45a7 72794545 		.ascii	"ryEE11post_unsafeES2_\000"
 13528      3131706F 
 13528      73745F75 
 13528      6E736166 
 13528      65455332 
 13529              	.LASF336:
 13530 45bd 5F5A4E4B 		.ascii	"_ZNK3r2p10StaticListINS_15LocalSubscriberEE13ConstI"
 13530      33723270 
 13530      31305374 
 13530      61746963 
 13530      4C697374 
 13531 45f0 74657261 		.ascii	"teratoreqERKS3_\000"
 13531      746F7265 
 13531      7145524B 
 13531      53335F00 
 13532              	.LASF201:
 13533 4600 5F5A4E4B 		.ascii	"_ZNK3r2p10StaticListINS_15RemotePublisherEE7restart"
 13533      33723270 
 13533      31305374 
 13533      61746963 
 13533      4C697374 
 13534 4633 45524E53 		.ascii	"ERNS2_13ConstIteratorE\000"
 13534      325F3133 
ARM GAS  /tmp/ccyYK6L9.s 			page 275


 13534      436F6E73 
 13534      74497465 
 13534      7261746F 
 13535              	.LASF408:
 13536 464a 6E756D5F 		.ascii	"num_local_publishers\000"
 13536      6C6F6361 
 13536      6C5F7075 
 13536      626C6973 
 13536      68657273 
 13537              	.LASF456:
 13538 465f 6E6F7469 		.ascii	"notify_locals\000"
 13538      66795F6C 
 13538      6F63616C 
 13538      7300
 13539              	.LASF567:
 13540 466d 6D736770 		.ascii	"msgpool_bufp\000"
 13540      6F6F6C5F 
 13540      62756670 
 13540      00
 13541              	.LASF199:
 13542 467a 5F5A4E33 		.ascii	"_ZN3r2p10StaticListINS_15RemotePublisherEE3endEv\000"
 13542      72327031 
 13542      30537461 
 13542      7469634C 
 13542      69737449 
 13543              	.LASF232:
 13544 46ab 5F5A4E4B 		.ascii	"_ZNK3r2p10StaticListINS_16RemoteSubscriberEE8contai"
 13544      33723270 
 13544      31305374 
 13544      61746963 
 13544      4C697374 
 13545 46de 6E734552 		.ascii	"nsERKS1_\000"
 13545      4B53315F 
 13545      00
 13546              	.LASF77:
 13547 46e7 706F7374 		.ascii	"post\000"
 13547      00
 13548              	.LASF123:
 13549 46ec 4D757465 		.ascii	"Mutex_\000"
 13549      785F00
 13550              	.LASF449:
 13551 46f3 5F5A4E33 		.ascii	"_ZN3r2p5Topic19forward_copy_unsafeERKNS_7MessageERK"
 13551      72327035 
 13551      546F7069 
 13551      63313966 
 13551      6F727761 
 13552 4726 4E535F34 		.ascii	"NS_4TimeE\000"
 13552      54696D65 
 13552      4500
 13553              	.LASF342:
 13554 4730 5F5A4E4B 		.ascii	"_ZNK3r2p10StaticListINS_15LocalSubscriberEE15is_emp"
 13554      33723270 
 13554      31305374 
 13554      61746963 
 13554      4C697374 
 13555 4763 74795F75 		.ascii	"ty_unsafeEv\000"
 13555      6E736166 
ARM GAS  /tmp/ccyYK6L9.s 			page 276


 13555      65457600 
 13556              	.LASF508:
 13557 476f 705F6F6C 		.ascii	"p_older\000"
 13557      64657200 
 13558              	.LASF272:
 13559 4777 5F5A4E33 		.ascii	"_ZN3r2p10StaticListINS_9TransportEE7restartERNS2_8I"
 13559      72327031 
 13559      30537461 
 13559      7469634C 
 13559      69737449 
 13560 47aa 74657261 		.ascii	"teratorE\000"
 13560      746F7245 
 13560      00
 13561              	.LASF596:
 13562 47b3 5F5A4E33 		.ascii	"_ZN3r2p4Time3nowEv\000"
 13562      72327034 
 13562      54696D65 
 13562      336E6F77 
 13562      457600
 13563              	.LASF561:
 13564 47c6 61727261 		.ascii	"arraylen\000"
 13564      796C656E 
 13564      00
 13565              	.LASF61:
 13566 47cf 5F5A4E33 		.ascii	"_ZN3r2p4Time2hzEd\000"
 13566      72327034 
 13566      54696D65 
 13566      32687A45 
 13566      6400
 13567              	.LASF542:
 13568 47e1 706F6F6C 		.ascii	"pool_header\000"
 13568      5F686561 
 13568      64657200 
 13569              	.LASF286:
 13570 47ed 6765745F 		.ascii	"get_publishers\000"
 13570      7075626C 
 13570      69736865 
 13570      727300
 13571              	.LASF101:
 13572 47fc 6765745F 		.ascii	"get_payload_size\000"
 13572      7061796C 
 13572      6F61645F 
 13572      73697A65 
 13572      00
 13573              	.LASF446:
 13574 480d 6E6F7469 		.ascii	"notify_remotes_unsafe\000"
 13574      66795F72 
 13574      656D6F74 
 13574      65735F75 
 13574      6E736166 
 13575              	.LASF430:
 13576 4823 6861735F 		.ascii	"has_remote_subscribers\000"
 13576      72656D6F 
 13576      74655F73 
 13576      75627363 
 13576      72696265 
 13577              	.LASF37:
ARM GAS  /tmp/ccyYK6L9.s 			page 277


 13578 483a 5F5A4E4B 		.ascii	"_ZNK3r2p4Time9to_us_rawEv\000"
 13578      33723270 
 13578      3454696D 
 13578      6539746F 
 13578      5F75735F 
 13579              	.LASF300:
 13580 4854 73756273 		.ascii	"subscribe\000"
 13580      63726962 
 13580      6500
 13581              	.LASF461:
 13582 485e 5F5A4E33 		.ascii	"_ZN3r2p5Topic12forward_copyERKNS_7MessageERKNS_4Tim"
 13582      72327035 
 13582      546F7069 
 13582      63313266 
 13582      6F727761 
 13583 4891 654500   		.ascii	"eE\000"
 13584              	.LASF473:
 13585 4894 5F5A4E33 		.ascii	"_ZN3r2p14BaseSubscriber17notify_subscribedERNS_5Top"
 13585      72327031 
 13585      34426173 
 13585      65537562 
 13585      73637269 
 13586 48c7 69634500 		.ascii	"icE\000"
 13587              	.LASF357:
 13588 48cb 5F5A4E4B 		.ascii	"_ZNK3r2p10StaticListINS_15LocalSubscriberEE8get_hea"
 13588      33723270 
 13588      31305374 
 13588      61746963 
 13588      4C697374 
 13589 48fe 64457600 		.ascii	"dEv\000"
 13590              	.LASF589:
 13591 4902 5F5F7072 		.ascii	"__program_end__\000"
 13591      6F677261 
 13591      6D5F656E 
 13591      645F5F00 
 13592              	.LASF253:
 13593 4912 5F5A4E4B 		.ascii	"_ZNK3r2p10StaticListINS_9TransportEE17find_first_un"
 13593      33723270 
 13593      31305374 
 13593      61746963 
 13593      4C697374 
 13594 4945 73616665 		.ascii	"safeEPFbRKS1_E\000"
 13594      45504662 
 13594      524B5331 
 13594      5F4500
 13595              	.LASF49:
 13596 4954 746F5F6D 		.ascii	"to_m\000"
 13596      00
 13597              	.LASF372:
 13598 4959 4C6F6361 		.ascii	"LocalSubscriber\000"
 13598      6C537562 
 13598      73637269 
 13598      62657200 
 13599              	.LASF47:
 13600 4969 746F5F73 		.ascii	"to_s\000"
 13600      00
 13601              	.LASF335:
ARM GAS  /tmp/ccyYK6L9.s 			page 278


 13602 496e 6F706572 		.ascii	"operator==\000"
 13602      61746F72 
 13602      3D3D00
 13603              	.LASF268:
 13604 4979 5F5A4E4B 		.ascii	"_ZNK3r2p10StaticListINS_9TransportEE10find_firstEPF"
 13604      33723270 
 13604      31305374 
 13604      61746963 
 13604      4C697374 
 13605 49ac 62524B53 		.ascii	"bRKS1_E\000"
 13605      315F4500 
 13606              	.LASF406:
 13607 49b4 7075626C 		.ascii	"publish_timeout\000"
 13607      6973685F 
 13607      74696D65 
 13607      6F757400 
 13608              	.LASF0:
 13609 49c4 756E7369 		.ascii	"unsigned int\000"
 13609      676E6564 
 13609      20696E74 
 13609      00
 13610              	.LASF161:
 13611 49d1 5F5A4E33 		.ascii	"_ZN3r2p10StaticListINS_15RemotePublisherEE13unlink_"
 13611      72327031 
 13611      30537461 
 13611      7469634C 
 13611      69737449 
 13612 4a04 756E7361 		.ascii	"unsafeERNS2_4LinkE\000"
 13612      66654552 
 13612      4E53325F 
 13612      344C696E 
 13612      6B4500
 13613              	.LASF22:
 13614 4a17 7E556E63 		.ascii	"~Uncopyable\000"
 13614      6F707961 
 13614      626C6500 
 13615              	.LASF280:
 13616 4a23 7075626C 		.ascii	"publishers_lock\000"
 13616      69736865 
 13616      72735F6C 
 13616      6F636B00 
 13617              	.LASF370:
 13618 4a33 5F5A4E4B 		.ascii	"_ZNK3r2p10StaticListINS_15LocalSubscriberEE3endEv\000"
 13618      33723270 
 13618      31305374 
 13618      61746963 
 13618      4C697374 
 13619              	.LASF5:
 13620 4a65 73686F72 		.ascii	"short int\000"
 13620      7420696E 
 13620      7400
 13621              	.LASF194:
 13622 4a6f 62656769 		.ascii	"begin\000"
 13622      6E00
 13623              	.LASF580:
 13624 4a75 66656174 		.ascii	"featuresp\000"
 13624      75726573 
ARM GAS  /tmp/ccyYK6L9.s 			page 279


 13624      7000
 13625              	.LASF107:
 13626 4a7f 61727261 		.ascii	"arrayp\000"
 13626      797000
 13627              	.LASF150:
 13628 4a86 6765745F 		.ascii	"get_head_unsafe\000"
 13628      68656164 
 13628      5F756E73 
 13628      61666500 
 13629              	.LASF135:
 13630 4a96 5F5A4E33 		.ascii	"_ZN3r2p5Mutex14acquire_unsafeEv\000"
 13630      72327035 
 13630      4D757465 
 13630      78313461 
 13630      63717569 
 13631              	.LASF34:
 13632 4ab6 494E4649 		.ascii	"INFINITEN\000"
 13632      4E495445 
 13632      4E00
 13633              	.LASF173:
 13634 4ac0 72657374 		.ascii	"restart_unsafe\000"
 13634      6172745F 
 13634      756E7361 
 13634      666500
 13635              	.LASF511:
 13636 4acf 705F7374 		.ascii	"p_state\000"
 13636      61746500 
 13637              	.LASF119:
 13638 4ad7 5F5A4E33 		.ascii	"_ZN3r2p10ArrayQueueINS_22TimestampedMsgPtrQueue5Ent"
 13638      72327031 
 13638      30417272 
 13638      61795175 
 13638      65756549 
 13639 4b0a 72794545 		.ascii	"ryEE5fetchERS2_\000"
 13639      35666574 
 13639      63684552 
 13639      53325F00 
 13640              		.ident	"GCC: (GNU Tools for ARM Embedded Processors) 4.9.3 20141119 (release) [ARM/embedded-4_9-br
ARM GAS  /tmp/ccyYK6L9.s 			page 280


DEFINED SYMBOLS
                            *ABS*:00000000 Transport.cpp
     /tmp/ccyYK6L9.s:19     .text._ZN3r2p10UncopyableC2Ev:00000000 $t
     /tmp/ccyYK6L9.s:24     .text._ZN3r2p10UncopyableC2Ev:00000000 _ZN3r2p10UncopyableC2Ev
     /tmp/ccyYK6L9.s:24     .text._ZN3r2p10UncopyableC2Ev:00000000 _ZN3r2p10UncopyableC1Ev
     /tmp/ccyYK6L9.s:48     .text._ZN3r2p10UncopyableD2Ev:00000000 $t
     /tmp/ccyYK6L9.s:53     .text._ZN3r2p10UncopyableD2Ev:00000000 _ZN3r2p10UncopyableD2Ev
     /tmp/ccyYK6L9.s:53     .text._ZN3r2p10UncopyableD2Ev:00000000 _ZN3r2p10UncopyableD1Ev
     /tmp/ccyYK6L9.s:76     .text._ZN3r2p8SysLock_7acquireEv:00000000 $t
     /tmp/ccyYK6L9.s:81     .text._ZN3r2p8SysLock_7acquireEv:00000000 _ZN3r2p8SysLock_7acquireEv
     /tmp/ccyYK6L9.s:111    .text._ZN3r2p8SysLock_7releaseEv:00000000 $t
     /tmp/ccyYK6L9.s:116    .text._ZN3r2p8SysLock_7releaseEv:00000000 _ZN3r2p8SysLock_7releaseEv
     /tmp/ccyYK6L9.s:145    .text._ZN3r2p7SysLock7acquireEv:00000000 $t
     /tmp/ccyYK6L9.s:150    .text._ZN3r2p7SysLock7acquireEv:00000000 _ZN3r2p7SysLock7acquireEv
     /tmp/ccyYK6L9.s:169    .text._ZN3r2p7SysLock7releaseEv:00000000 $t
     /tmp/ccyYK6L9.s:174    .text._ZN3r2p7SysLock7releaseEv:00000000 _ZN3r2p7SysLock7releaseEv
     /tmp/ccyYK6L9.s:192    .text._ZN3r2p4TimeC2Ev:00000000 $t
     /tmp/ccyYK6L9.s:197    .text._ZN3r2p4TimeC2Ev:00000000 _ZN3r2p4TimeC2Ev
     /tmp/ccyYK6L9.s:197    .text._ZN3r2p4TimeC2Ev:00000000 _ZN3r2p4TimeC1Ev
     /tmp/ccyYK6L9.s:226    .text._ZN3r2p22TimestampedMsgPtrQueue5EntryC2Ev:00000000 $t
     /tmp/ccyYK6L9.s:231    .text._ZN3r2p22TimestampedMsgPtrQueue5EntryC2Ev:00000000 _ZN3r2p22TimestampedMsgPtrQueue5EntryC2Ev
     /tmp/ccyYK6L9.s:231    .text._ZN3r2p22TimestampedMsgPtrQueue5EntryC2Ev:00000000 _ZN3r2p22TimestampedMsgPtrQueue5EntryC1Ev
     /tmp/ccyYK6L9.s:267    .text._ZN3r2p6Mutex_10initializeEv:00000000 $t
     /tmp/ccyYK6L9.s:272    .text._ZN3r2p6Mutex_10initializeEv:00000000 _ZN3r2p6Mutex_10initializeEv
     /tmp/ccyYK6L9.s:298    .text._ZN3r2p6Mutex_7acquireEv:00000000 $t
     /tmp/ccyYK6L9.s:303    .text._ZN3r2p6Mutex_7acquireEv:00000000 _ZN3r2p6Mutex_7acquireEv
     /tmp/ccyYK6L9.s:328    .text._ZN3r2p6Mutex_7releaseEv:00000000 $t
     /tmp/ccyYK6L9.s:333    .text._ZN3r2p6Mutex_7releaseEv:00000000 _ZN3r2p6Mutex_7releaseEv
     /tmp/ccyYK6L9.s:356    .text._ZN3r2p6Mutex_C2Ev:00000000 $t
     /tmp/ccyYK6L9.s:361    .text._ZN3r2p6Mutex_C2Ev:00000000 _ZN3r2p6Mutex_C2Ev
     /tmp/ccyYK6L9.s:361    .text._ZN3r2p6Mutex_C2Ev:00000000 _ZN3r2p6Mutex_C1Ev
     /tmp/ccyYK6L9.s:394    .text._ZN3r2p5Mutex7acquireEv:00000000 $t
     /tmp/ccyYK6L9.s:399    .text._ZN3r2p5Mutex7acquireEv:00000000 _ZN3r2p5Mutex7acquireEv
     /tmp/ccyYK6L9.s:426    .text._ZN3r2p5Mutex7releaseEv:00000000 $t
     /tmp/ccyYK6L9.s:431    .text._ZN3r2p5Mutex7releaseEv:00000000 _ZN3r2p5Mutex7releaseEv
     /tmp/ccyYK6L9.s:457    .text._ZN3r2p6Mutex_D2Ev:00000000 $t
     /tmp/ccyYK6L9.s:462    .text._ZN3r2p6Mutex_D2Ev:00000000 _ZN3r2p6Mutex_D2Ev
     /tmp/ccyYK6L9.s:462    .text._ZN3r2p6Mutex_D2Ev:00000000 _ZN3r2p6Mutex_D1Ev
     /tmp/ccyYK6L9.s:491    .text._ZN3r2p5MutexC2Ev:00000000 $t
     /tmp/ccyYK6L9.s:496    .text._ZN3r2p5MutexC2Ev:00000000 _ZN3r2p5MutexC2Ev
     /tmp/ccyYK6L9.s:496    .text._ZN3r2p5MutexC2Ev:00000000 _ZN3r2p5MutexC1Ev
     /tmp/ccyYK6L9.s:530    .text._ZNK3r2p11MemoryPool_13get_item_sizeEv:00000000 $t
     /tmp/ccyYK6L9.s:535    .text._ZNK3r2p11MemoryPool_13get_item_sizeEv:00000000 _ZNK3r2p11MemoryPool_13get_item_sizeEv
     /tmp/ccyYK6L9.s:559    .text._ZN3r2p11MemoryPool_6extendEPvj:00000000 $t
     /tmp/ccyYK6L9.s:564    .text._ZN3r2p11MemoryPool_6extendEPvj:00000000 _ZN3r2p11MemoryPool_6extendEPvj
     /tmp/ccyYK6L9.s:593    .rodata:00000000 $d
     /tmp/ccyYK6L9.s:597    .text._ZN3r2p13BasePublisher17notify_advertisedERNS_5TopicE:00000000 $t
     /tmp/ccyYK6L9.s:602    .text._ZN3r2p13BasePublisher17notify_advertisedERNS_5TopicE:00000000 _ZN3r2p13BasePublisher17notify_advertisedERNS_5TopicE
     /tmp/ccyYK6L9.s:637    .text._ZN3r2p13BasePublisher17notify_advertisedERNS_5TopicE:00000024 $d
     /tmp/ccyYK6L9.s:642    .text._ZN3r2p13BasePublisher9has_topicERKS0_PKc:00000000 $t
     /tmp/ccyYK6L9.s:647    .text._ZN3r2p13BasePublisher9has_topicERKS0_PKc:00000000 _ZN3r2p13BasePublisher9has_topicERKS0_PKc
     /tmp/ccyYK6L9.s:838    .text._ZN3r2p5Topic8has_nameERKS0_PKc:00000000 _ZN3r2p5Topic8has_nameERKS0_PKc
     /tmp/ccyYK6L9.s:691    .text._ZN3r2p14BaseSubscriber17notify_subscribedERNS_5TopicE:00000000 $t
     /tmp/ccyYK6L9.s:696    .text._ZN3r2p14BaseSubscriber17notify_subscribedERNS_5TopicE:00000000 _ZN3r2p14BaseSubscriber17notify_subscribedERNS_5TopicE
     /tmp/ccyYK6L9.s:731    .text._ZN3r2p14BaseSubscriber17notify_subscribedERNS_5TopicE:00000024 $d
     /tmp/ccyYK6L9.s:736    .text._ZNK3r2p5Topic8get_nameEv:00000000 $t
     /tmp/ccyYK6L9.s:741    .text._ZNK3r2p5Topic8get_nameEv:00000000 _ZNK3r2p5Topic8get_nameEv
ARM GAS  /tmp/ccyYK6L9.s 			page 281


     /tmp/ccyYK6L9.s:765    .text._ZNK3r2p5Topic13get_type_sizeEv:00000000 $t
     /tmp/ccyYK6L9.s:770    .text._ZNK3r2p5Topic13get_type_sizeEv:00000000 _ZNK3r2p5Topic13get_type_sizeEv
     /tmp/ccyYK6L9.s:798    .text._ZN3r2p5Topic11extend_poolEPNS_7MessageEj:00000000 $t
     /tmp/ccyYK6L9.s:803    .text._ZN3r2p5Topic11extend_poolEPNS_7MessageEj:00000000 _ZN3r2p5Topic11extend_poolEPNS_7MessageEj
     /tmp/ccyYK6L9.s:833    .text._ZN3r2p5Topic8has_nameERKS0_PKc:00000000 $t
     /tmp/ccyYK6L9.s:884    .text._ZN3r2p5MutexD2Ev:00000000 $t
     /tmp/ccyYK6L9.s:889    .text._ZN3r2p5MutexD2Ev:00000000 _ZN3r2p5MutexD2Ev
     /tmp/ccyYK6L9.s:889    .text._ZN3r2p5MutexD2Ev:00000000 _ZN3r2p5MutexD1Ev
     /tmp/ccyYK6L9.s:922    .text:00000000 $t
     /tmp/ccyYK6L9.s:927    .text:00000000 _ZN3r2p9Transport15touch_publisherERNS_5TopicEPKh
     /tmp/ccyYK6L9.s:1780   .text._ZN3r2p10ScopedLockINS_5MutexEEC2ERS1_:00000000 _ZN3r2p10ScopedLockINS_5MutexEEC1ERS1_
     /tmp/ccyYK6L9.s:1864   .text._ZNK3r2p10StaticListINS_15RemotePublisherEE10find_firstIPFbRKNS_13BasePublisherEPKcEcEEPS1_T_PKT0_:00000000 _ZNK3r2p10StaticListINS_15RemotePublisherEE10find_firstIPFbRKNS_13BasePublisherEPKcEcEEPS1_T_PKT0_
     /tmp/ccyYK6L9.s:1899   .text._ZN3r2p10StaticListINS_15RemotePublisherEE4linkERNS2_4LinkE:00000000 _ZN3r2p10StaticListINS_15RemotePublisherEE4linkERNS2_4LinkE
     /tmp/ccyYK6L9.s:1825   .text._ZN3r2p10ScopedLockINS_5MutexEED2Ev:00000000 _ZN3r2p10ScopedLockINS_5MutexEED1Ev
     /tmp/ccyYK6L9.s:1024   .text:00000090 $d
     /tmp/ccyYK6L9.s:1029   .text:00000098 $t
     /tmp/ccyYK6L9.s:1034   .text:00000098 _ZN3r2p9Transport16touch_subscriberERNS_5TopicEjPh
     /tmp/ccyYK6L9.s:1934   .text._ZNK3r2p10StaticListINS_16RemoteSubscriberEE10find_firstIPFbRKNS_14BaseSubscriberEPKcEcEEPS1_T_PKT0_:00000000 _ZNK3r2p10StaticListINS_16RemoteSubscriberEE10find_firstIPFbRKNS_14BaseSubscriberEPKcEcEEPS1_T_PKT0_
     /tmp/ccyYK6L9.s:1969   .text._ZN3r2p10StaticListINS_16RemoteSubscriberEE4linkERNS2_4LinkE:00000000 _ZN3r2p10StaticListINS_16RemoteSubscriberEE4linkERNS2_4LinkE
     /tmp/ccyYK6L9.s:1240   .text:000001dc $d
     /tmp/ccyYK6L9.s:1244   .text:000001e0 $t
     /tmp/ccyYK6L9.s:1249   .text:000001e0 _ZN3r2p9Transport12advertise_cbERNS_5TopicEPKh
     /tmp/ccyYK6L9.s:1283   .text:00000200 _ZN3r2p9Transport12subscribe_cbERNS_5TopicEjPh
     /tmp/ccyYK6L9.s:1319   .text:00000224 _ZN3r2p9Transport9advertiseERNS_15RemotePublisherEPKcRKNS_4TimeEj
     /tmp/ccyYK6L9.s:1384   .text:00000284 $d
     /tmp/ccyYK6L9.s:1388   .text:00000288 $t
     /tmp/ccyYK6L9.s:1393   .text:00000288 _ZN3r2p9Transport9subscribeERNS_16RemoteSubscriberEPKcPNS_7MessageEjj
     /tmp/ccyYK6L9.s:1460   .text:000002ec $d
     /tmp/ccyYK6L9.s:1464   .text:000002f0 $t
     /tmp/ccyYK6L9.s:1469   .text:000002f0 _ZN3r2p9Transport15fill_raw_paramsERKNS_5TopicEPh
     /tmp/ccyYK6L9.s:1497   .text._ZN3r2p10StaticListINS_15RemotePublisherEED2Ev:00000000 $t
     /tmp/ccyYK6L9.s:1502   .text._ZN3r2p10StaticListINS_15RemotePublisherEED2Ev:00000000 _ZN3r2p10StaticListINS_15RemotePublisherEED2Ev
     /tmp/ccyYK6L9.s:1502   .text._ZN3r2p10StaticListINS_15RemotePublisherEED2Ev:00000000 _ZN3r2p10StaticListINS_15RemotePublisherEED1Ev
     /tmp/ccyYK6L9.s:1532   .text._ZN3r2p10StaticListINS_16RemoteSubscriberEED2Ev:00000000 $t
     /tmp/ccyYK6L9.s:1537   .text._ZN3r2p10StaticListINS_16RemoteSubscriberEED2Ev:00000000 _ZN3r2p10StaticListINS_16RemoteSubscriberEED2Ev
     /tmp/ccyYK6L9.s:1537   .text._ZN3r2p10StaticListINS_16RemoteSubscriberEED2Ev:00000000 _ZN3r2p10StaticListINS_16RemoteSubscriberEED1Ev
     /tmp/ccyYK6L9.s:1571   .text:0000030c _ZN3r2p9TransportC2EPKc
     /tmp/ccyYK6L9.s:2004   .text._ZN3r2p10StaticListINS_15RemotePublisherEEC2Ev:00000000 _ZN3r2p10StaticListINS_15RemotePublisherEEC1Ev
     /tmp/ccyYK6L9.s:2041   .text._ZN3r2p10StaticListINS_16RemoteSubscriberEEC2Ev:00000000 _ZN3r2p10StaticListINS_16RemoteSubscriberEEC1Ev
     /tmp/ccyYK6L9.s:2078   .text._ZN3r2p10StaticListINS_9TransportEE4LinkC2ERS1_:00000000 _ZN3r2p10StaticListINS_9TransportEE4LinkC1ERS1_
     /tmp/ccyYK6L9.s:1639   .text:00000380 $d
     /tmp/ccyYK6L9.s:2657   .rodata:00000010 _ZTVN3r2p9TransportE
     /tmp/ccyYK6L9.s:1571   .text:0000030c _ZN3r2p9TransportC1EPKc
     /tmp/ccyYK6L9.s:1646   .text:00000388 $t
     /tmp/ccyYK6L9.s:1651   .text:00000388 _ZN3r2p9TransportD2Ev
     /tmp/ccyYK6L9.s:1704   .text:000003d8 $d
     /tmp/ccyYK6L9.s:1651   .text:00000388 _ZN3r2p9TransportD1Ev
     /tmp/ccyYK6L9.s:1710   .text:000003dc $t
     /tmp/ccyYK6L9.s:1715   .text:000003dc _ZN3r2p9TransportD0Ev
     /tmp/ccyYK6L9.s:1742   .text._ZNK3r2p10StaticListINS_16RemoteSubscriberEE15is_empty_unsafeEv:00000000 $t
     /tmp/ccyYK6L9.s:1747   .text._ZNK3r2p10StaticListINS_16RemoteSubscriberEE15is_empty_unsafeEv:00000000 _ZNK3r2p10StaticListINS_16RemoteSubscriberEE15is_empty_unsafeEv
     /tmp/ccyYK6L9.s:1775   .text._ZN3r2p10ScopedLockINS_5MutexEEC2ERS1_:00000000 $t
     /tmp/ccyYK6L9.s:1780   .text._ZN3r2p10ScopedLockINS_5MutexEEC2ERS1_:00000000 _ZN3r2p10ScopedLockINS_5MutexEEC2ERS1_
     /tmp/ccyYK6L9.s:1820   .text._ZN3r2p10ScopedLockINS_5MutexEED2Ev:00000000 $t
     /tmp/ccyYK6L9.s:1825   .text._ZN3r2p10ScopedLockINS_5MutexEED2Ev:00000000 _ZN3r2p10ScopedLockINS_5MutexEED2Ev
     /tmp/ccyYK6L9.s:1859   .text._ZNK3r2p10StaticListINS_15RemotePublisherEE10find_firstIPFbRKNS_13BasePublisherEPKcEcEEPS1_T_PKT0_:00000000 $t
     /tmp/ccyYK6L9.s:2115   .text._ZNK3r2p10StaticListINS_15RemotePublisherEE10find_firstEPFbRKS1_PKvES6_:00000000 _ZNK3r2p10StaticListINS_15RemotePublisherEE10find_firstEPFbRKS1_PKvES6_
ARM GAS  /tmp/ccyYK6L9.s 			page 282


     /tmp/ccyYK6L9.s:1894   .text._ZN3r2p10StaticListINS_15RemotePublisherEE4linkERNS2_4LinkE:00000000 $t
     /tmp/ccyYK6L9.s:2201   .text._ZN3r2p10StaticListINS_15RemotePublisherEE16link_tail_unsafeERNS2_4LinkE:00000000 _ZN3r2p10StaticListINS_15RemotePublisherEE16link_tail_unsafeERNS2_4LinkE
     /tmp/ccyYK6L9.s:1929   .text._ZNK3r2p10StaticListINS_16RemoteSubscriberEE10find_firstIPFbRKNS_14BaseSubscriberEPKcEcEEPS1_T_PKT0_:00000000 $t
     /tmp/ccyYK6L9.s:2288   .text._ZNK3r2p10StaticListINS_16RemoteSubscriberEE10find_firstEPFbRKS1_PKvES6_:00000000 _ZNK3r2p10StaticListINS_16RemoteSubscriberEE10find_firstEPFbRKS1_PKvES6_
     /tmp/ccyYK6L9.s:1964   .text._ZN3r2p10StaticListINS_16RemoteSubscriberEE4linkERNS2_4LinkE:00000000 $t
     /tmp/ccyYK6L9.s:2374   .text._ZN3r2p10StaticListINS_16RemoteSubscriberEE16link_tail_unsafeERNS2_4LinkE:00000000 _ZN3r2p10StaticListINS_16RemoteSubscriberEE16link_tail_unsafeERNS2_4LinkE
     /tmp/ccyYK6L9.s:1999   .text._ZN3r2p10StaticListINS_15RemotePublisherEEC2Ev:00000000 $t
     /tmp/ccyYK6L9.s:2004   .text._ZN3r2p10StaticListINS_15RemotePublisherEEC2Ev:00000000 _ZN3r2p10StaticListINS_15RemotePublisherEEC2Ev
     /tmp/ccyYK6L9.s:2036   .text._ZN3r2p10StaticListINS_16RemoteSubscriberEEC2Ev:00000000 $t
     /tmp/ccyYK6L9.s:2041   .text._ZN3r2p10StaticListINS_16RemoteSubscriberEEC2Ev:00000000 _ZN3r2p10StaticListINS_16RemoteSubscriberEEC2Ev
     /tmp/ccyYK6L9.s:2073   .text._ZN3r2p10StaticListINS_9TransportEE4LinkC2ERS1_:00000000 $t
     /tmp/ccyYK6L9.s:2078   .text._ZN3r2p10StaticListINS_9TransportEE4LinkC2ERS1_:00000000 _ZN3r2p10StaticListINS_9TransportEE4LinkC2ERS1_
     /tmp/ccyYK6L9.s:2110   .text._ZNK3r2p10StaticListINS_15RemotePublisherEE10find_firstEPFbRKS1_PKvES6_:00000000 $t
     /tmp/ccyYK6L9.s:2191   .text._ZNK3r2p10StaticListINS_15RemotePublisherEE10find_firstEPFbRKS1_PKvES6_:0000005c $d
     /tmp/ccyYK6L9.s:2196   .text._ZN3r2p10StaticListINS_15RemotePublisherEE16link_tail_unsafeERNS2_4LinkE:00000000 $t
     /tmp/ccyYK6L9.s:2461   .text._ZN3r2p10StaticListINS_15RemotePublisherEE13unlink_unsafeERNS2_4LinkE:00000000 _ZN3r2p10StaticListINS_15RemotePublisherEE13unlink_unsafeERNS2_4LinkE
     /tmp/ccyYK6L9.s:2543   .text._ZNK3r2p10StaticListINS_15RemotePublisherEE15is_empty_unsafeEv:00000000 _ZNK3r2p10StaticListINS_15RemotePublisherEE15is_empty_unsafeEv
     /tmp/ccyYK6L9.s:2278   .text._ZN3r2p10StaticListINS_15RemotePublisherEE16link_tail_unsafeERNS2_4LinkE:00000060 $d
     /tmp/ccyYK6L9.s:2283   .text._ZNK3r2p10StaticListINS_16RemoteSubscriberEE10find_firstEPFbRKS1_PKvES6_:00000000 $t
     /tmp/ccyYK6L9.s:2364   .text._ZNK3r2p10StaticListINS_16RemoteSubscriberEE10find_firstEPFbRKS1_PKvES6_:0000005c $d
     /tmp/ccyYK6L9.s:2369   .text._ZN3r2p10StaticListINS_16RemoteSubscriberEE16link_tail_unsafeERNS2_4LinkE:00000000 $t
     /tmp/ccyYK6L9.s:2576   .text._ZN3r2p10StaticListINS_16RemoteSubscriberEE13unlink_unsafeERNS2_4LinkE:00000000 _ZN3r2p10StaticListINS_16RemoteSubscriberEE13unlink_unsafeERNS2_4LinkE
     /tmp/ccyYK6L9.s:2451   .text._ZN3r2p10StaticListINS_16RemoteSubscriberEE16link_tail_unsafeERNS2_4LinkE:00000060 $d
     /tmp/ccyYK6L9.s:2456   .text._ZN3r2p10StaticListINS_15RemotePublisherEE13unlink_unsafeERNS2_4LinkE:00000000 $t
     /tmp/ccyYK6L9.s:2538   .text._ZNK3r2p10StaticListINS_15RemotePublisherEE15is_empty_unsafeEv:00000000 $t
     /tmp/ccyYK6L9.s:2571   .text._ZN3r2p10StaticListINS_16RemoteSubscriberEE13unlink_unsafeERNS2_4LinkE:00000000 $t
                     .debug_frame:00000010 $d
                           .group:00000000 _ZN3r2p10UncopyableC5Ev
                           .group:00000000 _ZN3r2p10UncopyableD5Ev
                           .group:00000000 _ZN3r2p4TimeC5Ev
                           .group:00000000 _ZN3r2p22TimestampedMsgPtrQueue5EntryC5Ev
                           .group:00000000 _ZN3r2p6Mutex_C5Ev
                           .group:00000000 _ZN3r2p6Mutex_D5Ev
                           .group:00000000 _ZN3r2p5MutexC5Ev
                           .group:00000000 _ZN3r2p5MutexD5Ev
                           .group:00000000 _ZN3r2p10StaticListINS_15RemotePublisherEED5Ev
                           .group:00000000 _ZN3r2p10StaticListINS_16RemoteSubscriberEED5Ev
                           .group:00000000 _ZN3r2p10ScopedLockINS_5MutexEEC5ERS1_
                           .group:00000000 _ZN3r2p10ScopedLockINS_5MutexEED5Ev
                           .group:00000000 _ZN3r2p10StaticListINS_15RemotePublisherEEC5Ev
                           .group:00000000 _ZN3r2p10StaticListINS_16RemoteSubscriberEEC5Ev
                           .group:00000000 _ZN3r2p10StaticListINS_9TransportEE4LinkC5ERS1_

UNDEFINED SYMBOLS
dbg_check_lock
dbg_check_unlock
chMtxInit
chMtxLock
chMtxUnlock
chPoolLoadArray
chDbgPanic
strncmp
_ZN3r2p5Topic9advertiseERNS_15RemotePublisherERKNS_4TimeE
_ZN3r2p4Time8INFINITEE
_Znaj
_ZN3r2p5Topic9subscribeERNS_16RemoteSubscriberEj
_ZdaPv
ARM GAS  /tmp/ccyYK6L9.s 			page 283


_ZN3r2p14BaseSubscriber9has_topicERKS0_PKc
_ZN3r2p10Middleware9advertiseERNS_15RemotePublisherEPKcRKNS_4TimeEj
_ZN3r2p10Middleware8instanceE
_ZN3r2p10Middleware9subscribeERNS_16RemoteSubscriberEPKcPNS_7MessageEjj
memset
_ZN3r2p13is_identifierEPKcj
_ZdlPv
__cxa_pure_virtual
