ARM GAS  /tmp/ccyYK6L9.s 			page 1


   1              		.syntax unified
   2              		.cpu cortex-m4
   3              		.fpu softvfp
   4              		.eabi_attribute 20, 1
   5              		.eabi_attribute 21, 1
   6              		.eabi_attribute 23, 3
   7              		.eabi_attribute 24, 1
   8              		.eabi_attribute 25, 1
   9              		.eabi_attribute 26, 1
  10              		.eabi_attribute 30, 6
  11              		.eabi_attribute 34, 1
  12              		.eabi_attribute 18, 4
  13              		.thumb
  14              		.file	"Transport.cpp"
  15              		.text
  16              	.Ltext0:
  17              		.cfi_sections	.debug_frame
  18              		.section	.text._ZN3r2p10UncopyableC2Ev,"axG",%progbits,_ZN3r2p10UncopyableC5Ev,comdat
  19              		.align	2
  20              		.weak	_ZN3r2p10UncopyableC2Ev
  21              		.thumb
  22              		.thumb_func
  23              		.type	_ZN3r2p10UncopyableC2Ev, %function
  24              	_ZN3r2p10UncopyableC2Ev:
  25              	.LFB6:
  26              		.file 1 "/opt/R2P/core/Middleware/include/r2p/Uncopyable.hpp"
  27              		.loc 1 20 0
  28              		.cfi_startproc
  29              		@ args = 0, pretend = 0, frame = 8
  30              		@ frame_needed = 0, uses_anonymous_args = 0
  31              		@ link register save eliminated.
  32 0000 82B0     		sub	sp, sp, #8
  33              		.cfi_def_cfa_offset 8
  34 0002 0190     		str	r0, [sp, #4]
  35              		.loc 1 20 0
  36 0004 019B     		ldr	r3, [sp, #4]
  37 0006 1846     		mov	r0, r3
  38 0008 02B0     		add	sp, sp, #8
  39              		.cfi_def_cfa_offset 0
  40              		@ sp needed
  41 000a 7047     		bx	lr
  42              		.cfi_endproc
  43              	.LFE6:
  44              		.size	_ZN3r2p10UncopyableC2Ev, .-_ZN3r2p10UncopyableC2Ev
  45              		.weak	_ZN3r2p10UncopyableC1Ev
  46              		.thumb_set _ZN3r2p10UncopyableC1Ev,_ZN3r2p10UncopyableC2Ev
  47              		.section	.text._ZN3r2p10UncopyableD2Ev,"axG",%progbits,_ZN3r2p10UncopyableD5Ev,comdat
  48              		.align	2
  49              		.weak	_ZN3r2p10UncopyableD2Ev
  50              		.thumb
  51              		.thumb_func
  52              		.type	_ZN3r2p10UncopyableD2Ev, %function
  53              	_ZN3r2p10UncopyableD2Ev:
  54              	.LFB9:
  55              		.loc 1 21 0
  56              		.cfi_startproc
  57              		@ args = 0, pretend = 0, frame = 8
ARM GAS  /tmp/ccyYK6L9.s 			page 2


  58              		@ frame_needed = 0, uses_anonymous_args = 0
  59              		@ link register save eliminated.
  60 0000 82B0     		sub	sp, sp, #8
  61              		.cfi_def_cfa_offset 8
  62 0002 0190     		str	r0, [sp, #4]
  63              		.loc 1 21 0
  64 0004 019B     		ldr	r3, [sp, #4]
  65 0006 1846     		mov	r0, r3
  66 0008 02B0     		add	sp, sp, #8
  67              		.cfi_def_cfa_offset 0
  68              		@ sp needed
  69 000a 7047     		bx	lr
  70              		.cfi_endproc
  71              	.LFE9:
  72              		.size	_ZN3r2p10UncopyableD2Ev, .-_ZN3r2p10UncopyableD2Ev
  73              		.weak	_ZN3r2p10UncopyableD1Ev
  74              		.thumb_set _ZN3r2p10UncopyableD1Ev,_ZN3r2p10UncopyableD2Ev
  75              		.section	.text._ZN3r2p8SysLock_7acquireEv,"axG",%progbits,_ZN3r2p8SysLock_7acquireEv,comdat
  76              		.align	2
  77              		.weak	_ZN3r2p8SysLock_7acquireEv
  78              		.thumb
  79              		.thumb_func
  80              		.type	_ZN3r2p8SysLock_7acquireEv, %function
  81              	_ZN3r2p8SysLock_7acquireEv:
  82              	.LFB18:
  83              		.file 2 "/opt/R2P/core/Middleware/port/chibios/include/r2p/impl/SysLock_.hpp"
  84              		.loc 2 20 0
  85              		.cfi_startproc
  86              		@ args = 0, pretend = 0, frame = 0
  87              		@ frame_needed = 0, uses_anonymous_args = 0
  88 0000 08B5     		push	{r3, lr}
  89              		.cfi_def_cfa_offset 8
  90              		.cfi_offset 3, -8
  91              		.cfi_offset 14, -4
  92              	.LBB2:
  93              	.LBB3:
  94              	.LBB4:
  95              		.loc 2 22 0
  96 0002 2023     		movs	r3, #32
  97              	@ 22 "/opt/R2P/core/Middleware/port/chibios/include/r2p/impl/SysLock_.hpp" 1
  98 0004 83F31188 		msr     BASEPRI, r3
  99              	@ 0 "" 2
 100              		.thumb
 101              	.LBE4:
 102 0008 FFF7FEFF 		bl	dbg_check_lock
 103              	.LBE3:
 104              	.LBE2:
 105              		.loc 2 23 0
 106 000c 08BD     		pop	{r3, pc}
 107              		.cfi_endproc
 108              	.LFE18:
 109              		.size	_ZN3r2p8SysLock_7acquireEv, .-_ZN3r2p8SysLock_7acquireEv
 110 000e 00BF     		.section	.text._ZN3r2p8SysLock_7releaseEv,"axG",%progbits,_ZN3r2p8SysLock_7releaseEv,comdat
 111              		.align	2
 112              		.weak	_ZN3r2p8SysLock_7releaseEv
 113              		.thumb
 114              		.thumb_func
ARM GAS  /tmp/ccyYK6L9.s 			page 3


 115              		.type	_ZN3r2p8SysLock_7releaseEv, %function
 116              	_ZN3r2p8SysLock_7releaseEv:
 117              	.LFB19:
 118              		.loc 2 27 0
 119              		.cfi_startproc
 120              		@ args = 0, pretend = 0, frame = 0
 121              		@ frame_needed = 0, uses_anonymous_args = 0
 122 0000 08B5     		push	{r3, lr}
 123              		.cfi_def_cfa_offset 8
 124              		.cfi_offset 3, -8
 125              		.cfi_offset 14, -4
 126              	.LBB5:
 127              	.LBB6:
 128              		.loc 2 29 0
 129 0002 FFF7FEFF 		bl	dbg_check_unlock
 130              	.LBB7:
 131 0006 0023     		movs	r3, #0
 132              	@ 29 "/opt/R2P/core/Middleware/port/chibios/include/r2p/impl/SysLock_.hpp" 1
 133 0008 83F31188 		msr     BASEPRI, r3
 134              	@ 0 "" 2
 135              		.thumb
 136              	.LBE7:
 137              	.LBE6:
 138              	.LBE5:
 139              		.loc 2 30 0
 140 000c 08BD     		pop	{r3, pc}
 141              		.cfi_endproc
 142              	.LFE19:
 143              		.size	_ZN3r2p8SysLock_7releaseEv, .-_ZN3r2p8SysLock_7releaseEv
 144 000e 00BF     		.section	.text._ZN3r2p7SysLock7acquireEv,"axG",%progbits,_ZN3r2p7SysLock7acquireEv,comdat
 145              		.align	2
 146              		.weak	_ZN3r2p7SysLock7acquireEv
 147              		.thumb
 148              		.thumb_func
 149              		.type	_ZN3r2p7SysLock7acquireEv, %function
 150              	_ZN3r2p7SysLock7acquireEv:
 151              	.LFB26:
 152              		.file 3 "/opt/R2P/core/Middleware/include/r2p/SysLock.hpp"
 153              		.loc 3 27 0
 154              		.cfi_startproc
 155              		@ args = 0, pretend = 0, frame = 0
 156              		@ frame_needed = 0, uses_anonymous_args = 0
 157 0000 08B5     		push	{r3, lr}
 158              		.cfi_def_cfa_offset 8
 159              		.cfi_offset 3, -8
 160              		.cfi_offset 14, -4
 161              		.loc 3 29 0
 162 0002 FFF7FEFF 		bl	_ZN3r2p8SysLock_7acquireEv
 163              		.loc 3 30 0
 164 0006 08BD     		pop	{r3, pc}
 165              		.cfi_endproc
 166              	.LFE26:
 167              		.size	_ZN3r2p7SysLock7acquireEv, .-_ZN3r2p7SysLock7acquireEv
 168              		.section	.text._ZN3r2p7SysLock7releaseEv,"axG",%progbits,_ZN3r2p7SysLock7releaseEv,comdat
 169              		.align	2
 170              		.weak	_ZN3r2p7SysLock7releaseEv
 171              		.thumb
ARM GAS  /tmp/ccyYK6L9.s 			page 4


 172              		.thumb_func
 173              		.type	_ZN3r2p7SysLock7releaseEv, %function
 174              	_ZN3r2p7SysLock7releaseEv:
 175              	.LFB27:
 176              		.loc 3 34 0
 177              		.cfi_startproc
 178              		@ args = 0, pretend = 0, frame = 0
 179              		@ frame_needed = 0, uses_anonymous_args = 0
 180 0000 08B5     		push	{r3, lr}
 181              		.cfi_def_cfa_offset 8
 182              		.cfi_offset 3, -8
 183              		.cfi_offset 14, -4
 184              		.loc 3 36 0
 185 0002 FFF7FEFF 		bl	_ZN3r2p8SysLock_7releaseEv
 186              		.loc 3 37 0
 187 0006 08BD     		pop	{r3, pc}
 188              		.cfi_endproc
 189              	.LFE27:
 190              		.size	_ZN3r2p7SysLock7releaseEv, .-_ZN3r2p7SysLock7releaseEv
 191              		.section	.text._ZN3r2p4TimeC2Ev,"axG",%progbits,_ZN3r2p4TimeC5Ev,comdat
 192              		.align	2
 193              		.weak	_ZN3r2p4TimeC2Ev
 194              		.thumb
 195              		.thumb_func
 196              		.type	_ZN3r2p4TimeC2Ev, %function
 197              	_ZN3r2p4TimeC2Ev:
 198              	.LFB144:
 199              		.file 4 "/opt/R2P/core/Middleware/include/r2p/Time.hpp"
 200              		.loc 4 155 0
 201              		.cfi_startproc
 202              		@ args = 0, pretend = 0, frame = 8
 203              		@ frame_needed = 0, uses_anonymous_args = 0
 204              		@ link register save eliminated.
 205 0000 82B0     		sub	sp, sp, #8
 206              		.cfi_def_cfa_offset 8
 207 0002 0190     		str	r0, [sp, #4]
 208              	.LBB8:
 209              		.loc 4 155 0
 210 0004 019B     		ldr	r3, [sp, #4]
 211 0006 0022     		movs	r2, #0
 212 0008 1A60     		str	r2, [r3]
 213              	.LBE8:
 214 000a 019B     		ldr	r3, [sp, #4]
 215 000c 1846     		mov	r0, r3
 216 000e 02B0     		add	sp, sp, #8
 217              		.cfi_def_cfa_offset 0
 218              		@ sp needed
 219 0010 7047     		bx	lr
 220              		.cfi_endproc
 221              	.LFE144:
 222              		.size	_ZN3r2p4TimeC2Ev, .-_ZN3r2p4TimeC2Ev
 223              		.weak	_ZN3r2p4TimeC1Ev
 224              		.thumb_set _ZN3r2p4TimeC1Ev,_ZN3r2p4TimeC2Ev
 225 0012 00BF     		.section	.text._ZN3r2p22TimestampedMsgPtrQueue5EntryC2Ev,"axG",%progbits,_ZN3r2p22TimestampedMsgPt
 226              		.align	2
 227              		.weak	_ZN3r2p22TimestampedMsgPtrQueue5EntryC2Ev
 228              		.thumb
ARM GAS  /tmp/ccyYK6L9.s 			page 5


 229              		.thumb_func
 230              		.type	_ZN3r2p22TimestampedMsgPtrQueue5EntryC2Ev, %function
 231              	_ZN3r2p22TimestampedMsgPtrQueue5EntryC2Ev:
 232              	.LFB180:
 233              		.file 5 "/opt/R2P/core/Middleware/include/r2p/TimestampedMsgPtrQueue.hpp"
 234              		.loc 5 106 0
 235              		.cfi_startproc
 236              		@ args = 0, pretend = 0, frame = 8
 237              		@ frame_needed = 0, uses_anonymous_args = 0
 238 0000 00B5     		push	{lr}
 239              		.cfi_def_cfa_offset 4
 240              		.cfi_offset 14, -4
 241 0002 83B0     		sub	sp, sp, #12
 242              		.cfi_def_cfa_offset 16
 243 0004 0190     		str	r0, [sp, #4]
 244              	.LBB9:
 245              		.loc 5 108 0
 246 0006 019B     		ldr	r3, [sp, #4]
 247 0008 0022     		movs	r2, #0
 248 000a 1A60     		str	r2, [r3]
 249 000c 019B     		ldr	r3, [sp, #4]
 250 000e 0433     		adds	r3, r3, #4
 251 0010 1846     		mov	r0, r3
 252 0012 FFF7FEFF 		bl	_ZN3r2p4TimeC1Ev
 253              	.LBE9:
 254              		.loc 5 109 0
 255 0016 019B     		ldr	r3, [sp, #4]
 256 0018 1846     		mov	r0, r3
 257 001a 03B0     		add	sp, sp, #12
 258              		.cfi_def_cfa_offset 4
 259              		@ sp needed
 260 001c 5DF804FB 		ldr	pc, [sp], #4
 261              		.cfi_endproc
 262              	.LFE180:
 263              		.size	_ZN3r2p22TimestampedMsgPtrQueue5EntryC2Ev, .-_ZN3r2p22TimestampedMsgPtrQueue5EntryC2Ev
 264              		.weak	_ZN3r2p22TimestampedMsgPtrQueue5EntryC1Ev
 265              		.thumb_set _ZN3r2p22TimestampedMsgPtrQueue5EntryC1Ev,_ZN3r2p22TimestampedMsgPtrQueue5EntryC2Ev
 266              		.section	.text._ZN3r2p6Mutex_10initializeEv,"axG",%progbits,_ZN3r2p6Mutex_10initializeEv,comdat
 267              		.align	2
 268              		.weak	_ZN3r2p6Mutex_10initializeEv
 269              		.thumb
 270              		.thumb_func
 271              		.type	_ZN3r2p6Mutex_10initializeEv, %function
 272              	_ZN3r2p6Mutex_10initializeEv:
 273              	.LFB182:
 274              		.file 6 "/opt/R2P/core/Middleware/port/chibios/include/r2p/impl/Mutex_.hpp"
 275              		.loc 6 31 0
 276              		.cfi_startproc
 277              		@ args = 0, pretend = 0, frame = 8
 278              		@ frame_needed = 0, uses_anonymous_args = 0
 279 0000 00B5     		push	{lr}
 280              		.cfi_def_cfa_offset 4
 281              		.cfi_offset 14, -4
 282 0002 83B0     		sub	sp, sp, #12
 283              		.cfi_def_cfa_offset 16
 284 0004 0190     		str	r0, [sp, #4]
 285              		.loc 6 33 0
ARM GAS  /tmp/ccyYK6L9.s 			page 6


 286 0006 019B     		ldr	r3, [sp, #4]
 287 0008 1846     		mov	r0, r3
 288 000a FFF7FEFF 		bl	chMtxInit
 289              		.loc 6 34 0
 290 000e 03B0     		add	sp, sp, #12
 291              		.cfi_def_cfa_offset 4
 292              		@ sp needed
 293 0010 5DF804FB 		ldr	pc, [sp], #4
 294              		.cfi_endproc
 295              	.LFE182:
 296              		.size	_ZN3r2p6Mutex_10initializeEv, .-_ZN3r2p6Mutex_10initializeEv
 297              		.section	.text._ZN3r2p6Mutex_7acquireEv,"axG",%progbits,_ZN3r2p6Mutex_7acquireEv,comdat
 298              		.align	2
 299              		.weak	_ZN3r2p6Mutex_7acquireEv
 300              		.thumb
 301              		.thumb_func
 302              		.type	_ZN3r2p6Mutex_7acquireEv, %function
 303              	_ZN3r2p6Mutex_7acquireEv:
 304              	.LFB185:
 305              		.loc 6 52 0
 306              		.cfi_startproc
 307              		@ args = 0, pretend = 0, frame = 8
 308              		@ frame_needed = 0, uses_anonymous_args = 0
 309 0000 00B5     		push	{lr}
 310              		.cfi_def_cfa_offset 4
 311              		.cfi_offset 14, -4
 312 0002 83B0     		sub	sp, sp, #12
 313              		.cfi_def_cfa_offset 16
 314 0004 0190     		str	r0, [sp, #4]
 315              		.loc 6 54 0
 316 0006 019B     		ldr	r3, [sp, #4]
 317 0008 1846     		mov	r0, r3
 318 000a FFF7FEFF 		bl	chMtxLock
 319              		.loc 6 55 0
 320 000e 03B0     		add	sp, sp, #12
 321              		.cfi_def_cfa_offset 4
 322              		@ sp needed
 323 0010 5DF804FB 		ldr	pc, [sp], #4
 324              		.cfi_endproc
 325              	.LFE185:
 326              		.size	_ZN3r2p6Mutex_7acquireEv, .-_ZN3r2p6Mutex_7acquireEv
 327              		.section	.text._ZN3r2p6Mutex_7releaseEv,"axG",%progbits,_ZN3r2p6Mutex_7releaseEv,comdat
 328              		.align	2
 329              		.weak	_ZN3r2p6Mutex_7releaseEv
 330              		.thumb
 331              		.thumb_func
 332              		.type	_ZN3r2p6Mutex_7releaseEv, %function
 333              	_ZN3r2p6Mutex_7releaseEv:
 334              	.LFB186:
 335              		.loc 6 59 0
 336              		.cfi_startproc
 337              		@ args = 0, pretend = 0, frame = 8
 338              		@ frame_needed = 0, uses_anonymous_args = 0
 339 0000 00B5     		push	{lr}
 340              		.cfi_def_cfa_offset 4
 341              		.cfi_offset 14, -4
 342 0002 83B0     		sub	sp, sp, #12
ARM GAS  /tmp/ccyYK6L9.s 			page 7


 343              		.cfi_def_cfa_offset 16
 344 0004 0190     		str	r0, [sp, #4]
 345              		.loc 6 61 0
 346 0006 FFF7FEFF 		bl	chMtxUnlock
 347              		.loc 6 62 0
 348 000a 03B0     		add	sp, sp, #12
 349              		.cfi_def_cfa_offset 4
 350              		@ sp needed
 351 000c 5DF804FB 		ldr	pc, [sp], #4
 352              		.cfi_endproc
 353              	.LFE186:
 354              		.size	_ZN3r2p6Mutex_7releaseEv, .-_ZN3r2p6Mutex_7releaseEv
 355              		.section	.text._ZN3r2p6Mutex_C2Ev,"axG",%progbits,_ZN3r2p6Mutex_C5Ev,comdat
 356              		.align	2
 357              		.weak	_ZN3r2p6Mutex_C2Ev
 358              		.thumb
 359              		.thumb_func
 360              		.type	_ZN3r2p6Mutex_C2Ev, %function
 361              	_ZN3r2p6Mutex_C2Ev:
 362              	.LFB189:
 363              		.loc 6 73 0
 364              		.cfi_startproc
 365              		@ args = 0, pretend = 0, frame = 8
 366              		@ frame_needed = 0, uses_anonymous_args = 0
 367 0000 00B5     		push	{lr}
 368              		.cfi_def_cfa_offset 4
 369              		.cfi_offset 14, -4
 370 0002 83B0     		sub	sp, sp, #12
 371              		.cfi_def_cfa_offset 16
 372 0004 0190     		str	r0, [sp, #4]
 373              	.LBB10:
 374              		.loc 6 73 0
 375 0006 0198     		ldr	r0, [sp, #4]
 376 0008 FFF7FEFF 		bl	_ZN3r2p10UncopyableC2Ev
 377              		.loc 6 75 0
 378 000c 0198     		ldr	r0, [sp, #4]
 379 000e FFF7FEFF 		bl	_ZN3r2p6Mutex_10initializeEv
 380              	.LBE10:
 381              		.loc 6 76 0
 382 0012 019B     		ldr	r3, [sp, #4]
 383 0014 1846     		mov	r0, r3
 384 0016 03B0     		add	sp, sp, #12
 385              		.cfi_def_cfa_offset 4
 386              		@ sp needed
 387 0018 5DF804FB 		ldr	pc, [sp], #4
 388              		.cfi_endproc
 389              	.LFE189:
 390              		.size	_ZN3r2p6Mutex_C2Ev, .-_ZN3r2p6Mutex_C2Ev
 391              		.weak	_ZN3r2p6Mutex_C1Ev
 392              		.thumb_set _ZN3r2p6Mutex_C1Ev,_ZN3r2p6Mutex_C2Ev
 393              		.section	.text._ZN3r2p5Mutex7acquireEv,"axG",%progbits,_ZN3r2p5Mutex7acquireEv,comdat
 394              		.align	2
 395              		.weak	_ZN3r2p5Mutex7acquireEv
 396              		.thumb
 397              		.thumb_func
 398              		.type	_ZN3r2p5Mutex7acquireEv, %function
 399              	_ZN3r2p5Mutex7acquireEv:
ARM GAS  /tmp/ccyYK6L9.s 			page 8


 400              	.LFB197:
 401              		.file 7 "/opt/R2P/core/Middleware/include/r2p/Mutex.hpp"
 402              		.loc 7 48 0
 403              		.cfi_startproc
 404              		@ args = 0, pretend = 0, frame = 8
 405              		@ frame_needed = 0, uses_anonymous_args = 0
 406 0000 00B5     		push	{lr}
 407              		.cfi_def_cfa_offset 4
 408              		.cfi_offset 14, -4
 409 0002 83B0     		sub	sp, sp, #12
 410              		.cfi_def_cfa_offset 16
 411 0004 0190     		str	r0, [sp, #4]
 412              		.loc 7 49 0
 413 0006 019B     		ldr	r3, [sp, #4]
 414 0008 0433     		adds	r3, r3, #4
 415 000a 1846     		mov	r0, r3
 416 000c FFF7FEFF 		bl	_ZN3r2p6Mutex_7acquireEv
 417              		.loc 7 50 0
 418 0010 03B0     		add	sp, sp, #12
 419              		.cfi_def_cfa_offset 4
 420              		@ sp needed
 421 0012 5DF804FB 		ldr	pc, [sp], #4
 422              		.cfi_endproc
 423              	.LFE197:
 424              		.size	_ZN3r2p5Mutex7acquireEv, .-_ZN3r2p5Mutex7acquireEv
 425 0016 00BF     		.section	.text._ZN3r2p5Mutex7releaseEv,"axG",%progbits,_ZN3r2p5Mutex7releaseEv,comdat
 426              		.align	2
 427              		.weak	_ZN3r2p5Mutex7releaseEv
 428              		.thumb
 429              		.thumb_func
 430              		.type	_ZN3r2p5Mutex7releaseEv, %function
 431              	_ZN3r2p5Mutex7releaseEv:
 432              	.LFB198:
 433              		.loc 7 54 0
 434              		.cfi_startproc
 435              		@ args = 0, pretend = 0, frame = 8
 436              		@ frame_needed = 0, uses_anonymous_args = 0
 437 0000 00B5     		push	{lr}
 438              		.cfi_def_cfa_offset 4
 439              		.cfi_offset 14, -4
 440 0002 83B0     		sub	sp, sp, #12
 441              		.cfi_def_cfa_offset 16
 442 0004 0190     		str	r0, [sp, #4]
 443              		.loc 7 55 0
 444 0006 019B     		ldr	r3, [sp, #4]
 445 0008 0433     		adds	r3, r3, #4
 446 000a 1846     		mov	r0, r3
 447 000c FFF7FEFF 		bl	_ZN3r2p6Mutex_7releaseEv
 448              		.loc 7 56 0
 449 0010 03B0     		add	sp, sp, #12
 450              		.cfi_def_cfa_offset 4
 451              		@ sp needed
 452 0012 5DF804FB 		ldr	pc, [sp], #4
 453              		.cfi_endproc
 454              	.LFE198:
 455              		.size	_ZN3r2p5Mutex7releaseEv, .-_ZN3r2p5Mutex7releaseEv
 456 0016 00BF     		.section	.text._ZN3r2p6Mutex_D2Ev,"axG",%progbits,_ZN3r2p6Mutex_D5Ev,comdat
ARM GAS  /tmp/ccyYK6L9.s 			page 9


 457              		.align	2
 458              		.weak	_ZN3r2p6Mutex_D2Ev
 459              		.thumb
 460              		.thumb_func
 461              		.type	_ZN3r2p6Mutex_D2Ev, %function
 462              	_ZN3r2p6Mutex_D2Ev:
 463              	.LFB201:
 464              		.loc 6 9 0
 465              		.cfi_startproc
 466              		@ args = 0, pretend = 0, frame = 8
 467              		@ frame_needed = 0, uses_anonymous_args = 0
 468 0000 00B5     		push	{lr}
 469              		.cfi_def_cfa_offset 4
 470              		.cfi_offset 14, -4
 471 0002 83B0     		sub	sp, sp, #12
 472              		.cfi_def_cfa_offset 16
 473 0004 0190     		str	r0, [sp, #4]
 474              	.LBB11:
 475              		.loc 6 9 0
 476 0006 0198     		ldr	r0, [sp, #4]
 477 0008 FFF7FEFF 		bl	_ZN3r2p10UncopyableD2Ev
 478              	.LBE11:
 479 000c 019B     		ldr	r3, [sp, #4]
 480 000e 1846     		mov	r0, r3
 481 0010 03B0     		add	sp, sp, #12
 482              		.cfi_def_cfa_offset 4
 483              		@ sp needed
 484 0012 5DF804FB 		ldr	pc, [sp], #4
 485              		.cfi_endproc
 486              	.LFE201:
 487              		.size	_ZN3r2p6Mutex_D2Ev, .-_ZN3r2p6Mutex_D2Ev
 488              		.weak	_ZN3r2p6Mutex_D1Ev
 489              		.thumb_set _ZN3r2p6Mutex_D1Ev,_ZN3r2p6Mutex_D2Ev
 490 0016 00BF     		.section	.text._ZN3r2p5MutexC2Ev,"axG",%progbits,_ZN3r2p5MutexC5Ev,comdat
 491              		.align	2
 492              		.weak	_ZN3r2p5MutexC2Ev
 493              		.thumb
 494              		.thumb_func
 495              		.type	_ZN3r2p5MutexC2Ev, %function
 496              	_ZN3r2p5MutexC2Ev:
 497              	.LFB203:
 498              		.loc 7 60 0
 499              		.cfi_startproc
 500              		@ args = 0, pretend = 0, frame = 8
 501              		@ frame_needed = 0, uses_anonymous_args = 0
 502 0000 00B5     		push	{lr}
 503              		.cfi_def_cfa_offset 4
 504              		.cfi_offset 14, -4
 505 0002 83B0     		sub	sp, sp, #12
 506              		.cfi_def_cfa_offset 16
 507 0004 0190     		str	r0, [sp, #4]
 508              	.LBB12:
 509              		.loc 7 62 0
 510 0006 0198     		ldr	r0, [sp, #4]
 511 0008 FFF7FEFF 		bl	_ZN3r2p10UncopyableC2Ev
 512 000c 019B     		ldr	r3, [sp, #4]
 513 000e 0433     		adds	r3, r3, #4
ARM GAS  /tmp/ccyYK6L9.s 			page 10


 514 0010 1846     		mov	r0, r3
 515 0012 FFF7FEFF 		bl	_ZN3r2p6Mutex_C1Ev
 516              	.LBE12:
 517              		.loc 7 63 0
 518 0016 019B     		ldr	r3, [sp, #4]
 519 0018 1846     		mov	r0, r3
 520 001a 03B0     		add	sp, sp, #12
 521              		.cfi_def_cfa_offset 4
 522              		@ sp needed
 523 001c 5DF804FB 		ldr	pc, [sp], #4
 524              		.cfi_endproc
 525              	.LFE203:
 526              		.size	_ZN3r2p5MutexC2Ev, .-_ZN3r2p5MutexC2Ev
 527              		.weak	_ZN3r2p5MutexC1Ev
 528              		.thumb_set _ZN3r2p5MutexC1Ev,_ZN3r2p5MutexC2Ev
 529              		.section	.text._ZNK3r2p11MemoryPool_13get_item_sizeEv,"axG",%progbits,_ZNK3r2p11MemoryPool_13get_i
 530              		.align	2
 531              		.weak	_ZNK3r2p11MemoryPool_13get_item_sizeEv
 532              		.thumb
 533              		.thumb_func
 534              		.type	_ZNK3r2p11MemoryPool_13get_item_sizeEv, %function
 535              	_ZNK3r2p11MemoryPool_13get_item_sizeEv:
 536              	.LFB227:
 537              		.file 8 "/opt/R2P/core/Middleware/port/chibios/include/r2p/impl/MemoryPool_.hpp"
 538              		.loc 8 39 0
 539              		.cfi_startproc
 540              		@ args = 0, pretend = 0, frame = 8
 541              		@ frame_needed = 0, uses_anonymous_args = 0
 542              		@ link register save eliminated.
 543 0000 82B0     		sub	sp, sp, #8
 544              		.cfi_def_cfa_offset 8
 545 0002 0190     		str	r0, [sp, #4]
 546              		.loc 8 41 0
 547 0004 019B     		ldr	r3, [sp, #4]
 548 0006 5B68     		ldr	r3, [r3, #4]
 549              		.loc 8 42 0
 550 0008 1846     		mov	r0, r3
 551 000a 02B0     		add	sp, sp, #8
 552              		.cfi_def_cfa_offset 0
 553              		@ sp needed
 554 000c 7047     		bx	lr
 555              		.cfi_endproc
 556              	.LFE227:
 557              		.size	_ZNK3r2p11MemoryPool_13get_item_sizeEv, .-_ZNK3r2p11MemoryPool_13get_item_sizeEv
 558 000e 00BF     		.section	.text._ZN3r2p11MemoryPool_6extendEPvj,"axG",%progbits,_ZN3r2p11MemoryPool_6extendEPvj,com
 559              		.align	2
 560              		.weak	_ZN3r2p11MemoryPool_6extendEPvj
 561              		.thumb
 562              		.thumb_func
 563              		.type	_ZN3r2p11MemoryPool_6extendEPvj, %function
 564              	_ZN3r2p11MemoryPool_6extendEPvj:
 565              	.LFB233:
 566              		.loc 8 85 0
 567              		.cfi_startproc
 568              		@ args = 0, pretend = 0, frame = 16
 569              		@ frame_needed = 0, uses_anonymous_args = 0
 570 0000 00B5     		push	{lr}
ARM GAS  /tmp/ccyYK6L9.s 			page 11


 571              		.cfi_def_cfa_offset 4
 572              		.cfi_offset 14, -4
 573 0002 85B0     		sub	sp, sp, #20
 574              		.cfi_def_cfa_offset 24
 575 0004 0390     		str	r0, [sp, #12]
 576 0006 0291     		str	r1, [sp, #8]
 577 0008 0192     		str	r2, [sp, #4]
 578              		.loc 8 87 0
 579 000a 039B     		ldr	r3, [sp, #12]
 580 000c 1846     		mov	r0, r3
 581 000e 0299     		ldr	r1, [sp, #8]
 582 0010 019A     		ldr	r2, [sp, #4]
 583 0012 FFF7FEFF 		bl	chPoolLoadArray
 584              		.loc 8 88 0
 585 0016 05B0     		add	sp, sp, #20
 586              		.cfi_def_cfa_offset 4
 587              		@ sp needed
 588 0018 5DF804FB 		ldr	pc, [sp], #4
 589              		.cfi_endproc
 590              	.LFE233:
 591              		.size	_ZN3r2p11MemoryPool_6extendEPvj, .-_ZN3r2p11MemoryPool_6extendEPvj
 592              		.section	.rodata
 593              		.align	2
 594              	.LC0:
 595 0000 5232505F 		.ascii	"R2P_ASSERT()\000"
 595      41535345 
 595      52542829 
 595      00
 596              		.section	.text._ZN3r2p13BasePublisher17notify_advertisedERNS_5TopicE,"axG",%progbits,_ZN3r2p13Base
 597              		.align	2
 598              		.weak	_ZN3r2p13BasePublisher17notify_advertisedERNS_5TopicE
 599              		.thumb
 600              		.thumb_func
 601              		.type	_ZN3r2p13BasePublisher17notify_advertisedERNS_5TopicE, %function
 602              	_ZN3r2p13BasePublisher17notify_advertisedERNS_5TopicE:
 603              	.LFB248:
 604              		.file 9 "/opt/R2P/core/Middleware/include/r2p/BasePublisher.hpp"
 605              		.loc 9 55 0
 606              		.cfi_startproc
 607              		@ args = 0, pretend = 0, frame = 8
 608              		@ frame_needed = 0, uses_anonymous_args = 0
 609 0000 00B5     		push	{lr}
 610              		.cfi_def_cfa_offset 4
 611              		.cfi_offset 14, -4
 612 0002 83B0     		sub	sp, sp, #12
 613              		.cfi_def_cfa_offset 16
 614 0004 0190     		str	r0, [sp, #4]
 615 0006 0091     		str	r1, [sp]
 616              		.loc 9 57 0
 617 0008 019B     		ldr	r3, [sp, #4]
 618 000a 5B68     		ldr	r3, [r3, #4]
 619 000c 002B     		cmp	r3, #0
 620 000e 02D0     		beq	.L35
 621              		.loc 9 57 0 is_stmt 0 discriminator 1
 622 0010 0448     		ldr	r0, .L36
 623 0012 FFF7FEFF 		bl	chDbgPanic
 624              	.L35:
ARM GAS  /tmp/ccyYK6L9.s 			page 12


 625              		.loc 9 59 0 is_stmt 1
 626 0016 019B     		ldr	r3, [sp, #4]
 627 0018 009A     		ldr	r2, [sp]
 628 001a 5A60     		str	r2, [r3, #4]
 629              		.loc 9 60 0
 630 001c 03B0     		add	sp, sp, #12
 631              		.cfi_def_cfa_offset 4
 632              		@ sp needed
 633 001e 5DF804FB 		ldr	pc, [sp], #4
 634              	.L37:
 635 0022 00BF     		.align	2
 636              	.L36:
 637 0024 00000000 		.word	.LC0
 638              		.cfi_endproc
 639              	.LFE248:
 640              		.size	_ZN3r2p13BasePublisher17notify_advertisedERNS_5TopicE, .-_ZN3r2p13BasePublisher17notify_adve
 641              		.section	.text._ZN3r2p13BasePublisher9has_topicERKS0_PKc,"axG",%progbits,_ZN3r2p13BasePublisher9ha
 642              		.align	2
 643              		.weak	_ZN3r2p13BasePublisher9has_topicERKS0_PKc
 644              		.thumb
 645              		.thumb_func
 646              		.type	_ZN3r2p13BasePublisher9has_topicERKS0_PKc, %function
 647              	_ZN3r2p13BasePublisher9has_topicERKS0_PKc:
 648              	.LFB253:
 649              		.loc 9 102 0
 650              		.cfi_startproc
 651              		@ args = 0, pretend = 0, frame = 8
 652              		@ frame_needed = 0, uses_anonymous_args = 0
 653 0000 00B5     		push	{lr}
 654              		.cfi_def_cfa_offset 4
 655              		.cfi_offset 14, -4
 656 0002 83B0     		sub	sp, sp, #12
 657              		.cfi_def_cfa_offset 16
 658 0004 0190     		str	r0, [sp, #4]
 659 0006 0091     		str	r1, [sp]
 660              		.loc 9 104 0
 661 0008 019B     		ldr	r3, [sp, #4]
 662 000a 5B68     		ldr	r3, [r3, #4]
 663 000c 002B     		cmp	r3, #0
 664 000e 0AD0     		beq	.L39
 665              		.loc 9 104 0 is_stmt 0 discriminator 1
 666 0010 019B     		ldr	r3, [sp, #4]
 667 0012 5B68     		ldr	r3, [r3, #4]
 668 0014 1846     		mov	r0, r3
 669 0016 0099     		ldr	r1, [sp]
 670 0018 FFF7FEFF 		bl	_ZN3r2p5Topic8has_nameERKS0_PKc
 671 001c 0346     		mov	r3, r0
 672 001e 002B     		cmp	r3, #0
 673 0020 01D0     		beq	.L39
 674              		.loc 9 104 0 discriminator 3
 675 0022 0123     		movs	r3, #1
 676 0024 00E0     		b	.L40
 677              	.L39:
 678              		.loc 9 104 0 discriminator 4
 679 0026 0023     		movs	r3, #0
 680              	.L40:
 681              		.loc 9 105 0 is_stmt 1 discriminator 6
ARM GAS  /tmp/ccyYK6L9.s 			page 13


 682 0028 1846     		mov	r0, r3
 683 002a 03B0     		add	sp, sp, #12
 684              		.cfi_def_cfa_offset 4
 685              		@ sp needed
 686 002c 5DF804FB 		ldr	pc, [sp], #4
 687              		.cfi_endproc
 688              	.LFE253:
 689              		.size	_ZN3r2p13BasePublisher9has_topicERKS0_PKc, .-_ZN3r2p13BasePublisher9has_topicERKS0_PKc
 690              		.section	.text._ZN3r2p14BaseSubscriber17notify_subscribedERNS_5TopicE,"axG",%progbits,_ZN3r2p14Bas
 691              		.align	2
 692              		.weak	_ZN3r2p14BaseSubscriber17notify_subscribedERNS_5TopicE
 693              		.thumb
 694              		.thumb_func
 695              		.type	_ZN3r2p14BaseSubscriber17notify_subscribedERNS_5TopicE, %function
 696              	_ZN3r2p14BaseSubscriber17notify_subscribedERNS_5TopicE:
 697              	.LFB266:
 698              		.file 10 "/opt/R2P/core/Middleware/include/r2p/BaseSubscriber.hpp"
 699              		.loc 10 49 0
 700              		.cfi_startproc
 701              		@ args = 0, pretend = 0, frame = 8
 702              		@ frame_needed = 0, uses_anonymous_args = 0
 703 0000 00B5     		push	{lr}
 704              		.cfi_def_cfa_offset 4
 705              		.cfi_offset 14, -4
 706 0002 83B0     		sub	sp, sp, #12
 707              		.cfi_def_cfa_offset 16
 708 0004 0190     		str	r0, [sp, #4]
 709 0006 0091     		str	r1, [sp]
 710              		.loc 10 51 0
 711 0008 019B     		ldr	r3, [sp, #4]
 712 000a 5B68     		ldr	r3, [r3, #4]
 713 000c 002B     		cmp	r3, #0
 714 000e 02D0     		beq	.L43
 715              		.loc 10 51 0 is_stmt 0 discriminator 1
 716 0010 0448     		ldr	r0, .L44
 717 0012 FFF7FEFF 		bl	chDbgPanic
 718              	.L43:
 719              		.loc 10 53 0 is_stmt 1
 720 0016 019B     		ldr	r3, [sp, #4]
 721 0018 009A     		ldr	r2, [sp]
 722 001a 5A60     		str	r2, [r3, #4]
 723              		.loc 10 54 0
 724 001c 03B0     		add	sp, sp, #12
 725              		.cfi_def_cfa_offset 4
 726              		@ sp needed
 727 001e 5DF804FB 		ldr	pc, [sp], #4
 728              	.L45:
 729 0022 00BF     		.align	2
 730              	.L44:
 731 0024 00000000 		.word	.LC0
 732              		.cfi_endproc
 733              	.LFE266:
 734              		.size	_ZN3r2p14BaseSubscriber17notify_subscribedERNS_5TopicE, .-_ZN3r2p14BaseSubscriber17notify_su
 735              		.section	.text._ZNK3r2p5Topic8get_nameEv,"axG",%progbits,_ZNK3r2p5Topic8get_nameEv,comdat
 736              		.align	2
 737              		.weak	_ZNK3r2p5Topic8get_nameEv
 738              		.thumb
ARM GAS  /tmp/ccyYK6L9.s 			page 14


 739              		.thumb_func
 740              		.type	_ZNK3r2p5Topic8get_nameEv, %function
 741              	_ZNK3r2p5Topic8get_nameEv:
 742              	.LFB333:
 743              		.file 11 "/opt/R2P/core/Middleware/include/r2p/Topic.hpp"
 744              		.loc 11 131 0
 745              		.cfi_startproc
 746              		@ args = 0, pretend = 0, frame = 8
 747              		@ frame_needed = 0, uses_anonymous_args = 0
 748              		@ link register save eliminated.
 749 0000 82B0     		sub	sp, sp, #8
 750              		.cfi_def_cfa_offset 8
 751 0002 0190     		str	r0, [sp, #4]
 752              		.loc 11 133 0
 753 0004 019B     		ldr	r3, [sp, #4]
 754 0006 1B68     		ldr	r3, [r3]
 755              		.loc 11 134 0
 756 0008 1846     		mov	r0, r3
 757 000a 02B0     		add	sp, sp, #8
 758              		.cfi_def_cfa_offset 0
 759              		@ sp needed
 760 000c 7047     		bx	lr
 761              		.cfi_endproc
 762              	.LFE333:
 763              		.size	_ZNK3r2p5Topic8get_nameEv, .-_ZNK3r2p5Topic8get_nameEv
 764 000e 00BF     		.section	.text._ZNK3r2p5Topic13get_type_sizeEv,"axG",%progbits,_ZNK3r2p5Topic13get_type_sizeEv,com
 765              		.align	2
 766              		.weak	_ZNK3r2p5Topic13get_type_sizeEv
 767              		.thumb
 768              		.thumb_func
 769              		.type	_ZNK3r2p5Topic13get_type_sizeEv, %function
 770              	_ZNK3r2p5Topic13get_type_sizeEv:
 771              	.LFB335:
 772              		.loc 11 145 0
 773              		.cfi_startproc
 774              		@ args = 0, pretend = 0, frame = 8
 775              		@ frame_needed = 0, uses_anonymous_args = 0
 776 0000 00B5     		push	{lr}
 777              		.cfi_def_cfa_offset 4
 778              		.cfi_offset 14, -4
 779 0002 83B0     		sub	sp, sp, #12
 780              		.cfi_def_cfa_offset 16
 781 0004 0190     		str	r0, [sp, #4]
 782              		.loc 11 147 0
 783 0006 019B     		ldr	r3, [sp, #4]
 784 0008 0833     		adds	r3, r3, #8
 785 000a 1846     		mov	r0, r3
 786 000c FFF7FEFF 		bl	_ZNK3r2p11MemoryPool_13get_item_sizeEv
 787 0010 0346     		mov	r3, r0
 788              		.loc 11 148 0
 789 0012 1846     		mov	r0, r3
 790 0014 03B0     		add	sp, sp, #12
 791              		.cfi_def_cfa_offset 4
 792              		@ sp needed
 793 0016 5DF804FB 		ldr	pc, [sp], #4
 794              		.cfi_endproc
 795              	.LFE335:
ARM GAS  /tmp/ccyYK6L9.s 			page 15


 796              		.size	_ZNK3r2p5Topic13get_type_sizeEv, .-_ZNK3r2p5Topic13get_type_sizeEv
 797 001a 00BF     		.section	.text._ZN3r2p5Topic11extend_poolEPNS_7MessageEj,"axG",%progbits,_ZN3r2p5Topic11extend_poo
 798              		.align	2
 799              		.weak	_ZN3r2p5Topic11extend_poolEPNS_7MessageEj
 800              		.thumb
 801              		.thumb_func
 802              		.type	_ZN3r2p5Topic11extend_poolEPNS_7MessageEj, %function
 803              	_ZN3r2p5Topic11extend_poolEPNS_7MessageEj:
 804              	.LFB358:
 805              		.loc 11 330 0
 806              		.cfi_startproc
 807              		@ args = 0, pretend = 0, frame = 16
 808              		@ frame_needed = 0, uses_anonymous_args = 0
 809 0000 00B5     		push	{lr}
 810              		.cfi_def_cfa_offset 4
 811              		.cfi_offset 14, -4
 812 0002 85B0     		sub	sp, sp, #20
 813              		.cfi_def_cfa_offset 24
 814 0004 0390     		str	r0, [sp, #12]
 815 0006 0291     		str	r1, [sp, #8]
 816 0008 0192     		str	r2, [sp, #4]
 817              		.loc 11 332 0
 818 000a 039B     		ldr	r3, [sp, #12]
 819 000c 0833     		adds	r3, r3, #8
 820 000e 1846     		mov	r0, r3
 821 0010 0299     		ldr	r1, [sp, #8]
 822 0012 019A     		ldr	r2, [sp, #4]
 823 0014 FFF7FEFF 		bl	_ZN3r2p11MemoryPool_6extendEPvj
 824              		.loc 11 333 0
 825 0018 05B0     		add	sp, sp, #20
 826              		.cfi_def_cfa_offset 4
 827              		@ sp needed
 828 001a 5DF804FB 		ldr	pc, [sp], #4
 829              		.cfi_endproc
 830              	.LFE358:
 831              		.size	_ZN3r2p5Topic11extend_poolEPNS_7MessageEj, .-_ZN3r2p5Topic11extend_poolEPNS_7MessageEj
 832 001e 00BF     		.section	.text._ZN3r2p5Topic8has_nameERKS0_PKc,"axG",%progbits,_ZN3r2p5Topic8has_nameERKS0_PKc,com
 833              		.align	2
 834              		.weak	_ZN3r2p5Topic8has_nameERKS0_PKc
 835              		.thumb
 836              		.thumb_func
 837              		.type	_ZN3r2p5Topic8has_nameERKS0_PKc, %function
 838              	_ZN3r2p5Topic8has_nameERKS0_PKc:
 839              	.LFB359:
 840              		.loc 11 337 0
 841              		.cfi_startproc
 842              		@ args = 0, pretend = 0, frame = 8
 843              		@ frame_needed = 0, uses_anonymous_args = 0
 844 0000 00B5     		push	{lr}
 845              		.cfi_def_cfa_offset 4
 846              		.cfi_offset 14, -4
 847 0002 83B0     		sub	sp, sp, #12
 848              		.cfi_def_cfa_offset 16
 849 0004 0190     		str	r0, [sp, #4]
 850 0006 0091     		str	r1, [sp]
 851              		.loc 11 339 0
 852 0008 009B     		ldr	r3, [sp]
ARM GAS  /tmp/ccyYK6L9.s 			page 16


 853 000a 002B     		cmp	r3, #0
 854 000c 0DD0     		beq	.L52
 855              		.loc 11 340 0 discriminator 1
 856 000e 0198     		ldr	r0, [sp, #4]
 857 0010 FFF7FEFF 		bl	_ZNK3r2p5Topic8get_nameEv
 858 0014 0346     		mov	r3, r0
 859 0016 1846     		mov	r0, r3
 860 0018 0099     		ldr	r1, [sp]
 861 001a 1022     		movs	r2, #16
 862 001c FFF7FEFF 		bl	strncmp
 863 0020 0346     		mov	r3, r0
 864              		.loc 11 339 0 discriminator 1
 865 0022 002B     		cmp	r3, #0
 866 0024 01D1     		bne	.L52
 867              		.loc 11 339 0 is_stmt 0 discriminator 3
 868 0026 0123     		movs	r3, #1
 869 0028 00E0     		b	.L53
 870              	.L52:
 871              		.loc 11 339 0 discriminator 4
 872 002a 0023     		movs	r3, #0
 873              	.L53:
 874              		.loc 11 341 0 is_stmt 1
 875 002c 1846     		mov	r0, r3
 876 002e 03B0     		add	sp, sp, #12
 877              		.cfi_def_cfa_offset 4
 878              		@ sp needed
 879 0030 5DF804FB 		ldr	pc, [sp], #4
 880              		.cfi_endproc
 881              	.LFE359:
 882              		.size	_ZN3r2p5Topic8has_nameERKS0_PKc, .-_ZN3r2p5Topic8has_nameERKS0_PKc
 883              		.section	.text._ZN3r2p5MutexD2Ev,"axG",%progbits,_ZN3r2p5MutexD5Ev,comdat
 884              		.align	2
 885              		.weak	_ZN3r2p5MutexD2Ev
 886              		.thumb
 887              		.thumb_func
 888              		.type	_ZN3r2p5MutexD2Ev, %function
 889              	_ZN3r2p5MutexD2Ev:
 890              	.LFB463:
 891              		.loc 7 9 0
 892              		.cfi_startproc
 893              		@ args = 0, pretend = 0, frame = 8
 894              		@ frame_needed = 0, uses_anonymous_args = 0
 895 0000 00B5     		push	{lr}
 896              		.cfi_def_cfa_offset 4
 897              		.cfi_offset 14, -4
 898 0002 83B0     		sub	sp, sp, #12
 899              		.cfi_def_cfa_offset 16
 900 0004 0190     		str	r0, [sp, #4]
 901              	.LBB13:
 902              		.loc 7 9 0
 903 0006 019B     		ldr	r3, [sp, #4]
 904 0008 0433     		adds	r3, r3, #4
 905 000a 1846     		mov	r0, r3
 906 000c FFF7FEFF 		bl	_ZN3r2p6Mutex_D1Ev
 907 0010 0198     		ldr	r0, [sp, #4]
 908 0012 FFF7FEFF 		bl	_ZN3r2p10UncopyableD2Ev
 909              	.LBE13:
ARM GAS  /tmp/ccyYK6L9.s 			page 17


 910 0016 019B     		ldr	r3, [sp, #4]
 911 0018 1846     		mov	r0, r3
 912 001a 03B0     		add	sp, sp, #12
 913              		.cfi_def_cfa_offset 4
 914              		@ sp needed
 915 001c 5DF804FB 		ldr	pc, [sp], #4
 916              		.cfi_endproc
 917              	.LFE463:
 918              		.size	_ZN3r2p5MutexD2Ev, .-_ZN3r2p5MutexD2Ev
 919              		.weak	_ZN3r2p5MutexD1Ev
 920              		.thumb_set _ZN3r2p5MutexD1Ev,_ZN3r2p5MutexD2Ev
 921              		.text
 922              		.align	2
 923              		.global	_ZN3r2p9Transport15touch_publisherERNS_5TopicEPKh
 924              		.thumb
 925              		.thumb_func
 926              		.type	_ZN3r2p9Transport15touch_publisherERNS_5TopicEPKh, %function
 927              	_ZN3r2p9Transport15touch_publisherERNS_5TopicEPKh:
 928              	.LFB681:
 929              		.file 12 "/opt/R2P/core/Middleware/src/Transport.cpp"
 930              		.loc 12 14 0
 931              		.cfi_startproc
 932              		@ args = 0, pretend = 0, frame = 24
 933              		@ frame_needed = 0, uses_anonymous_args = 0
 934 0000 10B5     		push	{r4, lr}
 935              		.cfi_def_cfa_offset 8
 936              		.cfi_offset 4, -8
 937              		.cfi_offset 14, -4
 938 0002 86B0     		sub	sp, sp, #24
 939              		.cfi_def_cfa_offset 32
 940 0004 0390     		str	r0, [sp, #12]
 941 0006 0291     		str	r1, [sp, #8]
 942 0008 0192     		str	r2, [sp, #4]
 943              	.LBB14:
 944              		.loc 12 16 0
 945 000a 039B     		ldr	r3, [sp, #12]
 946 000c 1033     		adds	r3, r3, #16
 947 000e 04AA     		add	r2, sp, #16
 948 0010 1046     		mov	r0, r2
 949 0012 1946     		mov	r1, r3
 950 0014 FFF7FEFF 		bl	_ZN3r2p10ScopedLockINS_5MutexEEC1ERS1_
 951              		.loc 12 20 0
 952 0018 039B     		ldr	r3, [sp, #12]
 953 001a 03F10804 		add	r4, r3, #8
 954 001e 0298     		ldr	r0, [sp, #8]
 955 0020 FFF7FEFF 		bl	_ZNK3r2p5Topic8get_nameEv
 956 0024 0346     		mov	r3, r0
 957 0026 2046     		mov	r0, r4
 958 0028 1949     		ldr	r1, .L63
 959 002a 1A46     		mov	r2, r3
 960 002c FFF7FEFF 		bl	_ZNK3r2p10StaticListINS_15RemotePublisherEE10find_firstIPFbRKNS_13BasePublisherEPKcEcEEPS1_T_PK
 961 0030 0590     		str	r0, [sp, #20]
 962              		.loc 12 21 0
 963 0032 059B     		ldr	r3, [sp, #20]
 964 0034 002B     		cmp	r3, #0
 965 0036 01D0     		beq	.L59
 966              		.loc 12 21 0 is_stmt 0 discriminator 1
ARM GAS  /tmp/ccyYK6L9.s 			page 18


 967 0038 0124     		movs	r4, #1
 968 003a 21E0     		b	.L60
 969              	.L59:
 970              		.loc 12 24 0 is_stmt 1
 971 003c 039B     		ldr	r3, [sp, #12]
 972 003e 1B68     		ldr	r3, [r3]
 973 0040 0433     		adds	r3, r3, #4
 974 0042 1B68     		ldr	r3, [r3]
 975 0044 0398     		ldr	r0, [sp, #12]
 976 0046 0299     		ldr	r1, [sp, #8]
 977 0048 019A     		ldr	r2, [sp, #4]
 978 004a 9847     		blx	r3
 979 004c 0590     		str	r0, [sp, #20]
 980              		.loc 12 25 0
 981 004e 059B     		ldr	r3, [sp, #20]
 982 0050 002B     		cmp	r3, #0
 983 0052 01D1     		bne	.L61
 984              		.loc 12 25 0 is_stmt 0 discriminator 1
 985 0054 0024     		movs	r4, #0
 986 0056 13E0     		b	.L60
 987              	.L61:
 988              		.loc 12 27 0 is_stmt 1
 989 0058 059B     		ldr	r3, [sp, #20]
 990 005a 1846     		mov	r0, r3
 991 005c 0299     		ldr	r1, [sp, #8]
 992 005e FFF7FEFF 		bl	_ZN3r2p13BasePublisher17notify_advertisedERNS_5TopicE
 993              		.loc 12 28 0
 994 0062 0298     		ldr	r0, [sp, #8]
 995 0064 0599     		ldr	r1, [sp, #20]
 996 0066 0B4A     		ldr	r2, .L63+4
 997 0068 FFF7FEFF 		bl	_ZN3r2p5Topic9advertiseERNS_15RemotePublisherERKNS_4TimeE
 998              		.loc 12 29 0
 999 006c 039B     		ldr	r3, [sp, #12]
 1000 006e 03F10802 		add	r2, r3, #8
 1001 0072 059B     		ldr	r3, [sp, #20]
 1002 0074 0C33     		adds	r3, r3, #12
 1003 0076 1046     		mov	r0, r2
 1004 0078 1946     		mov	r1, r3
 1005 007a FFF7FEFF 		bl	_ZN3r2p10StaticListINS_15RemotePublisherEE4linkERNS2_4LinkE
 1006              		.loc 12 31 0
 1007 007e 0124     		movs	r4, #1
 1008              	.L60:
 1009              		.loc 12 31 0 is_stmt 0 discriminator 1
 1010 0080 04AB     		add	r3, sp, #16
 1011 0082 1846     		mov	r0, r3
 1012 0084 FFF7FEFF 		bl	_ZN3r2p10ScopedLockINS_5MutexEED1Ev
 1013 0088 2346     		mov	r3, r4
 1014              	.LBE14:
 1015              		.loc 12 32 0 is_stmt 1 discriminator 1
 1016 008a 1846     		mov	r0, r3
 1017 008c 06B0     		add	sp, sp, #24
 1018              		.cfi_def_cfa_offset 8
 1019              		@ sp needed
 1020 008e 10BD     		pop	{r4, pc}
 1021              	.L64:
 1022              		.align	2
 1023              	.L63:
ARM GAS  /tmp/ccyYK6L9.s 			page 19


 1024 0090 00000000 		.word	_ZN3r2p13BasePublisher9has_topicERKS0_PKc
 1025 0094 00000000 		.word	_ZN3r2p4Time8INFINITEE
 1026              		.cfi_endproc
 1027              	.LFE681:
 1028              		.size	_ZN3r2p9Transport15touch_publisherERNS_5TopicEPKh, .-_ZN3r2p9Transport15touch_publisherERNS_
 1029              		.align	2
 1030              		.global	_ZN3r2p9Transport16touch_subscriberERNS_5TopicEjPh
 1031              		.thumb
 1032              		.thumb_func
 1033              		.type	_ZN3r2p9Transport16touch_subscriberERNS_5TopicEjPh, %function
 1034              	_ZN3r2p9Transport16touch_subscriberERNS_5TopicEjPh:
 1035              	.LFB682:
 1036              		.loc 12 36 0
 1037              		.cfi_startproc
 1038              		@ args = 0, pretend = 0, frame = 32
 1039              		@ frame_needed = 0, uses_anonymous_args = 0
 1040 0098 70B5     		push	{r4, r5, r6, lr}
 1041              		.cfi_def_cfa_offset 16
 1042              		.cfi_offset 4, -16
 1043              		.cfi_offset 5, -12
 1044              		.cfi_offset 6, -8
 1045              		.cfi_offset 14, -4
 1046 009a 88B0     		sub	sp, sp, #32
 1047              		.cfi_def_cfa_offset 48
 1048 009c 0390     		str	r0, [sp, #12]
 1049 009e 0291     		str	r1, [sp, #8]
 1050 00a0 0192     		str	r2, [sp, #4]
 1051 00a2 0093     		str	r3, [sp]
 1052              	.LBB15:
 1053              		.loc 12 38 0
 1054 00a4 039B     		ldr	r3, [sp, #12]
 1055 00a6 2433     		adds	r3, r3, #36
 1056 00a8 04AA     		add	r2, sp, #16
 1057 00aa 1046     		mov	r0, r2
 1058 00ac 1946     		mov	r1, r3
 1059 00ae FFF7FEFF 		bl	_ZN3r2p10ScopedLockINS_5MutexEEC1ERS1_
 1060              		.loc 12 42 0
 1061 00b2 039B     		ldr	r3, [sp, #12]
 1062 00b4 03F10C04 		add	r4, r3, #12
 1063 00b8 0298     		ldr	r0, [sp, #8]
 1064 00ba FFF7FEFF 		bl	_ZNK3r2p5Topic8get_nameEv
 1065 00be 0346     		mov	r3, r0
 1066 00c0 2046     		mov	r0, r4
 1067 00c2 4649     		ldr	r1, .L77
 1068 00c4 1A46     		mov	r2, r3
 1069 00c6 FFF7FEFF 		bl	_ZNK3r2p10StaticListINS_16RemoteSubscriberEE10find_firstIPFbRKNS_14BaseSubscriberEPKcEcEEPS1_T_
 1070 00ca 0790     		str	r0, [sp, #28]
 1071              		.loc 12 43 0
 1072 00cc 079B     		ldr	r3, [sp, #28]
 1073 00ce 002B     		cmp	r3, #0
 1074 00d0 08D0     		beq	.L66
 1075              		.loc 12 44 0
 1076 00d2 039B     		ldr	r3, [sp, #12]
 1077 00d4 1B68     		ldr	r3, [r3]
 1078 00d6 1B68     		ldr	r3, [r3]
 1079 00d8 0398     		ldr	r0, [sp, #12]
 1080 00da 0299     		ldr	r1, [sp, #8]
ARM GAS  /tmp/ccyYK6L9.s 			page 20


 1081 00dc 009A     		ldr	r2, [sp]
 1082 00de 9847     		blx	r3
 1083              		.loc 12 45 0
 1084 00e0 0124     		movs	r4, #1
 1085 00e2 72E0     		b	.L67
 1086              	.L66:
 1087              		.loc 12 49 0
 1088 00e4 0023     		movs	r3, #0
 1089 00e6 0593     		str	r3, [sp, #20]
 1090              		.loc 12 50 0
 1091 00e8 0023     		movs	r3, #0
 1092 00ea 0693     		str	r3, [sp, #24]
 1093              		.loc 12 53 0
 1094 00ec 0298     		ldr	r0, [sp, #8]
 1095 00ee FFF7FEFF 		bl	_ZNK3r2p5Topic13get_type_sizeEv
 1096 00f2 0246     		mov	r2, r0
 1097 00f4 019B     		ldr	r3, [sp, #4]
 1098 00f6 03FB02F3 		mul	r3, r3, r2
 1099              		.loc 12 54 0
 1100 00fa 1846     		mov	r0, r3
 1101 00fc FFF7FEFF 		bl	_Znaj
 1102 0100 0590     		str	r0, [sp, #20]
 1103              		.loc 12 55 0
 1104 0102 059B     		ldr	r3, [sp, #20]
 1105 0104 002B     		cmp	r3, #0
 1106 0106 4AD0     		beq	.L68
 1107              		.loc 12 56 0
 1108 0108 019C     		ldr	r4, [sp, #4]
 1109 010a B4F17E6F 		cmp	r4, #266338304
 1110 010e 01D8     		bhi	.L69
 1111              		.loc 12 56 0 is_stmt 0 discriminator 1
 1112 0110 E300     		lsls	r3, r4, #3
 1113 0112 01E0     		b	.L70
 1114              	.L69:
 1115              		.loc 12 56 0 discriminator 2
 1116 0114 4FF0FF33 		mov	r3, #-1
 1117              	.L70:
 1118              		.loc 12 56 0 discriminator 4
 1119 0118 1846     		mov	r0, r3
 1120 011a FFF7FEFF 		bl	_Znaj
 1121 011e 0646     		mov	r6, r0
 1122 0120 3246     		mov	r2, r6
 1123 0122 631E     		subs	r3, r4, #1
 1124 0124 1C46     		mov	r4, r3
 1125 0126 1546     		mov	r5, r2
 1126 0128 04E0     		b	.L71
 1127              	.L72:
 1128              		.loc 12 56 0 discriminator 7
 1129 012a 2846     		mov	r0, r5
 1130 012c FFF7FEFF 		bl	_ZN3r2p22TimestampedMsgPtrQueue5EntryC1Ev
 1131 0130 0835     		adds	r5, r5, #8
 1132 0132 013C     		subs	r4, r4, #1
 1133              	.L71:
 1134              		.loc 12 56 0 discriminator 5
 1135 0134 B4F1FF3F 		cmp	r4, #-1
 1136 0138 F7D1     		bne	.L72
 1137              		.loc 12 56 0 discriminator 8
ARM GAS  /tmp/ccyYK6L9.s 			page 21


 1138 013a 0696     		str	r6, [sp, #24]
 1139              		.loc 12 57 0 is_stmt 1 discriminator 8
 1140 013c 069B     		ldr	r3, [sp, #24]
 1141 013e 002B     		cmp	r3, #0
 1142 0140 2DD0     		beq	.L68
 1143              		.loc 12 58 0
 1144 0142 039B     		ldr	r3, [sp, #12]
 1145 0144 1B68     		ldr	r3, [r3]
 1146 0146 0833     		adds	r3, r3, #8
 1147 0148 1C68     		ldr	r4, [r3]
 1148 014a 0398     		ldr	r0, [sp, #12]
 1149 014c 0299     		ldr	r1, [sp, #8]
 1150 014e 069A     		ldr	r2, [sp, #24]
 1151 0150 019B     		ldr	r3, [sp, #4]
 1152 0152 A047     		blx	r4
 1153 0154 0790     		str	r0, [sp, #28]
 1154              		.loc 12 59 0
 1155 0156 079B     		ldr	r3, [sp, #28]
 1156 0158 002B     		cmp	r3, #0
 1157 015a 20D0     		beq	.L68
 1158              		.loc 12 60 0
 1159 015c 0298     		ldr	r0, [sp, #8]
 1160 015e 0599     		ldr	r1, [sp, #20]
 1161 0160 019A     		ldr	r2, [sp, #4]
 1162 0162 FFF7FEFF 		bl	_ZN3r2p5Topic11extend_poolEPNS_7MessageEj
 1163              		.loc 12 61 0
 1164 0166 079B     		ldr	r3, [sp, #28]
 1165 0168 1846     		mov	r0, r3
 1166 016a 0299     		ldr	r1, [sp, #8]
 1167 016c FFF7FEFF 		bl	_ZN3r2p14BaseSubscriber17notify_subscribedERNS_5TopicE
 1168              		.loc 12 62 0
 1169 0170 0298     		ldr	r0, [sp, #8]
 1170 0172 0799     		ldr	r1, [sp, #28]
 1171 0174 019A     		ldr	r2, [sp, #4]
 1172 0176 FFF7FEFF 		bl	_ZN3r2p5Topic9subscribeERNS_16RemoteSubscriberEj
 1173              		.loc 12 63 0
 1174 017a 039B     		ldr	r3, [sp, #12]
 1175 017c 03F10C02 		add	r2, r3, #12
 1176 0180 079B     		ldr	r3, [sp, #28]
 1177 0182 0C33     		adds	r3, r3, #12
 1178 0184 1046     		mov	r0, r2
 1179 0186 1946     		mov	r1, r3
 1180 0188 FFF7FEFF 		bl	_ZN3r2p10StaticListINS_16RemoteSubscriberEE4linkERNS2_4LinkE
 1181              		.loc 12 64 0
 1182 018c 039B     		ldr	r3, [sp, #12]
 1183 018e 1B68     		ldr	r3, [r3]
 1184 0190 1B68     		ldr	r3, [r3]
 1185 0192 0398     		ldr	r0, [sp, #12]
 1186 0194 0299     		ldr	r1, [sp, #8]
 1187 0196 009A     		ldr	r2, [sp]
 1188 0198 9847     		blx	r3
 1189              		.loc 12 65 0
 1190 019a 0124     		movs	r4, #1
 1191 019c 15E0     		b	.L67
 1192              	.L68:
 1193              		.loc 12 69 0
 1194 019e 059B     		ldr	r3, [sp, #20]
ARM GAS  /tmp/ccyYK6L9.s 			page 22


 1195 01a0 002B     		cmp	r3, #0
 1196 01a2 05D0     		beq	.L73
 1197              		.loc 12 69 0 is_stmt 0 discriminator 1
 1198 01a4 069B     		ldr	r3, [sp, #24]
 1199 01a6 002B     		cmp	r3, #0
 1200 01a8 02D0     		beq	.L73
 1201              		.loc 12 69 0 discriminator 2
 1202 01aa 079B     		ldr	r3, [sp, #28]
 1203 01ac 002B     		cmp	r3, #0
 1204 01ae 0BD1     		bne	.L74
 1205              	.L73:
 1206              		.loc 12 70 0 is_stmt 1
 1207 01b0 069B     		ldr	r3, [sp, #24]
 1208 01b2 002B     		cmp	r3, #0
 1209 01b4 02D0     		beq	.L75
 1210              		.loc 12 70 0 is_stmt 0 discriminator 1
 1211 01b6 0698     		ldr	r0, [sp, #24]
 1212 01b8 FFF7FEFF 		bl	_ZdaPv
 1213              	.L75:
 1214              		.loc 12 71 0 is_stmt 1
 1215 01bc 059B     		ldr	r3, [sp, #20]
 1216 01be 002B     		cmp	r3, #0
 1217 01c0 02D0     		beq	.L74
 1218              		.loc 12 71 0 is_stmt 0 discriminator 1
 1219 01c2 0598     		ldr	r0, [sp, #20]
 1220 01c4 FFF7FEFF 		bl	_ZdaPv
 1221              	.L74:
 1222              		.loc 12 73 0 is_stmt 1
 1223 01c8 0024     		movs	r4, #0
 1224              	.L67:
 1225              		.loc 12 73 0 is_stmt 0 discriminator 1
 1226 01ca 04AB     		add	r3, sp, #16
 1227 01cc 1846     		mov	r0, r3
 1228 01ce FFF7FEFF 		bl	_ZN3r2p10ScopedLockINS_5MutexEED1Ev
 1229 01d2 2346     		mov	r3, r4
 1230              	.LBE15:
 1231              		.loc 12 74 0 is_stmt 1 discriminator 1
 1232 01d4 1846     		mov	r0, r3
 1233 01d6 08B0     		add	sp, sp, #32
 1234              		.cfi_def_cfa_offset 16
 1235              		@ sp needed
 1236 01d8 70BD     		pop	{r4, r5, r6, pc}
 1237              	.L78:
 1238 01da 00BF     		.align	2
 1239              	.L77:
 1240 01dc 00000000 		.word	_ZN3r2p14BaseSubscriber9has_topicERKS0_PKc
 1241              		.cfi_endproc
 1242              	.LFE682:
 1243              		.size	_ZN3r2p9Transport16touch_subscriberERNS_5TopicEjPh, .-_ZN3r2p9Transport16touch_subscriberERN
 1244              		.align	2
 1245              		.global	_ZN3r2p9Transport12advertise_cbERNS_5TopicEPKh
 1246              		.thumb
 1247              		.thumb_func
 1248              		.type	_ZN3r2p9Transport12advertise_cbERNS_5TopicEPKh, %function
 1249              	_ZN3r2p9Transport12advertise_cbERNS_5TopicEPKh:
 1250              	.LFB683:
 1251              		.loc 12 77 0
ARM GAS  /tmp/ccyYK6L9.s 			page 23


 1252              		.cfi_startproc
 1253              		@ args = 0, pretend = 0, frame = 16
 1254              		@ frame_needed = 0, uses_anonymous_args = 0
 1255 01e0 00B5     		push	{lr}
 1256              		.cfi_def_cfa_offset 4
 1257              		.cfi_offset 14, -4
 1258 01e2 85B0     		sub	sp, sp, #20
 1259              		.cfi_def_cfa_offset 24
 1260 01e4 0390     		str	r0, [sp, #12]
 1261 01e6 0291     		str	r1, [sp, #8]
 1262 01e8 0192     		str	r2, [sp, #4]
 1263              		.loc 12 79 0
 1264 01ea 0398     		ldr	r0, [sp, #12]
 1265 01ec 0299     		ldr	r1, [sp, #8]
 1266 01ee 019A     		ldr	r2, [sp, #4]
 1267 01f0 FFF7FEFF 		bl	_ZN3r2p9Transport15touch_publisherERNS_5TopicEPKh
 1268 01f4 0346     		mov	r3, r0
 1269              		.loc 12 80 0
 1270 01f6 1846     		mov	r0, r3
 1271 01f8 05B0     		add	sp, sp, #20
 1272              		.cfi_def_cfa_offset 4
 1273              		@ sp needed
 1274 01fa 5DF804FB 		ldr	pc, [sp], #4
 1275              		.cfi_endproc
 1276              	.LFE683:
 1277              		.size	_ZN3r2p9Transport12advertise_cbERNS_5TopicEPKh, .-_ZN3r2p9Transport12advertise_cbERNS_5Topic
 1278 01fe 00BF     		.align	2
 1279              		.global	_ZN3r2p9Transport12subscribe_cbERNS_5TopicEjPh
 1280              		.thumb
 1281              		.thumb_func
 1282              		.type	_ZN3r2p9Transport12subscribe_cbERNS_5TopicEjPh, %function
 1283              	_ZN3r2p9Transport12subscribe_cbERNS_5TopicEjPh:
 1284              	.LFB684:
 1285              		.loc 12 84 0
 1286              		.cfi_startproc
 1287              		@ args = 0, pretend = 0, frame = 16
 1288              		@ frame_needed = 0, uses_anonymous_args = 0
 1289 0200 00B5     		push	{lr}
 1290              		.cfi_def_cfa_offset 4
 1291              		.cfi_offset 14, -4
 1292 0202 85B0     		sub	sp, sp, #20
 1293              		.cfi_def_cfa_offset 24
 1294 0204 0390     		str	r0, [sp, #12]
 1295 0206 0291     		str	r1, [sp, #8]
 1296 0208 0192     		str	r2, [sp, #4]
 1297 020a 0093     		str	r3, [sp]
 1298              		.loc 12 86 0
 1299 020c 0398     		ldr	r0, [sp, #12]
 1300 020e 0299     		ldr	r1, [sp, #8]
 1301 0210 019A     		ldr	r2, [sp, #4]
 1302 0212 009B     		ldr	r3, [sp]
 1303 0214 FFF7FEFF 		bl	_ZN3r2p9Transport16touch_subscriberERNS_5TopicEjPh
 1304 0218 0346     		mov	r3, r0
 1305              		.loc 12 87 0
 1306 021a 1846     		mov	r0, r3
 1307 021c 05B0     		add	sp, sp, #20
 1308              		.cfi_def_cfa_offset 4
ARM GAS  /tmp/ccyYK6L9.s 			page 24


 1309              		@ sp needed
 1310 021e 5DF804FB 		ldr	pc, [sp], #4
 1311              		.cfi_endproc
 1312              	.LFE684:
 1313              		.size	_ZN3r2p9Transport12subscribe_cbERNS_5TopicEjPh, .-_ZN3r2p9Transport12subscribe_cbERNS_5Topic
 1314 0222 00BF     		.align	2
 1315              		.global	_ZN3r2p9Transport9advertiseERNS_15RemotePublisherEPKcRKNS_4TimeEj
 1316              		.thumb
 1317              		.thumb_func
 1318              		.type	_ZN3r2p9Transport9advertiseERNS_15RemotePublisherEPKcRKNS_4TimeEj, %function
 1319              	_ZN3r2p9Transport9advertiseERNS_15RemotePublisherEPKcRKNS_4TimeEj:
 1320              	.LFB685:
 1321              		.loc 12 91 0
 1322              		.cfi_startproc
 1323              		@ args = 4, pretend = 0, frame = 16
 1324              		@ frame_needed = 0, uses_anonymous_args = 0
 1325 0224 00B5     		push	{lr}
 1326              		.cfi_def_cfa_offset 4
 1327              		.cfi_offset 14, -4
 1328 0226 87B0     		sub	sp, sp, #28
 1329              		.cfi_def_cfa_offset 32
 1330 0228 0590     		str	r0, [sp, #20]
 1331 022a 0491     		str	r1, [sp, #16]
 1332 022c 0392     		str	r2, [sp, #12]
 1333 022e 0293     		str	r3, [sp, #8]
 1334              		.loc 12 93 0
 1335 0230 059B     		ldr	r3, [sp, #20]
 1336 0232 1033     		adds	r3, r3, #16
 1337 0234 1846     		mov	r0, r3
 1338 0236 FFF7FEFF 		bl	_ZN3r2p5Mutex7acquireEv
 1339              		.loc 12 94 0
 1340 023a 089B     		ldr	r3, [sp, #32]
 1341 023c 0093     		str	r3, [sp]
 1342 023e 1148     		ldr	r0, .L86
 1343 0240 0499     		ldr	r1, [sp, #16]
 1344 0242 039A     		ldr	r2, [sp, #12]
 1345 0244 029B     		ldr	r3, [sp, #8]
 1346 0246 FFF7FEFF 		bl	_ZN3r2p10Middleware9advertiseERNS_15RemotePublisherEPKcRKNS_4TimeEj
 1347 024a 0346     		mov	r3, r0
 1348 024c 002B     		cmp	r3, #0
 1349 024e 0FD0     		beq	.L84
 1350              		.loc 12 95 0
 1351 0250 059B     		ldr	r3, [sp, #20]
 1352 0252 03F10802 		add	r2, r3, #8
 1353 0256 049B     		ldr	r3, [sp, #16]
 1354 0258 0C33     		adds	r3, r3, #12
 1355 025a 1046     		mov	r0, r2
 1356 025c 1946     		mov	r1, r3
 1357 025e FFF7FEFF 		bl	_ZN3r2p10StaticListINS_15RemotePublisherEE4linkERNS2_4LinkE
 1358              		.loc 12 96 0
 1359 0262 059B     		ldr	r3, [sp, #20]
 1360 0264 1033     		adds	r3, r3, #16
 1361 0266 1846     		mov	r0, r3
 1362 0268 FFF7FEFF 		bl	_ZN3r2p5Mutex7releaseEv
 1363              		.loc 12 97 0
 1364 026c 0123     		movs	r3, #1
 1365 026e 05E0     		b	.L85
ARM GAS  /tmp/ccyYK6L9.s 			page 25


 1366              	.L84:
 1367              		.loc 12 99 0
 1368 0270 059B     		ldr	r3, [sp, #20]
 1369 0272 1033     		adds	r3, r3, #16
 1370 0274 1846     		mov	r0, r3
 1371 0276 FFF7FEFF 		bl	_ZN3r2p5Mutex7releaseEv
 1372              		.loc 12 100 0
 1373 027a 0023     		movs	r3, #0
 1374              	.L85:
 1375              		.loc 12 102 0
 1376 027c 1846     		mov	r0, r3
 1377 027e 07B0     		add	sp, sp, #28
 1378              		.cfi_def_cfa_offset 4
 1379              		@ sp needed
 1380 0280 5DF804FB 		ldr	pc, [sp], #4
 1381              	.L87:
 1382              		.align	2
 1383              	.L86:
 1384 0284 00000000 		.word	_ZN3r2p10Middleware8instanceE
 1385              		.cfi_endproc
 1386              	.LFE685:
 1387              		.size	_ZN3r2p9Transport9advertiseERNS_15RemotePublisherEPKcRKNS_4TimeEj, .-_ZN3r2p9Transport9adver
 1388              		.align	2
 1389              		.global	_ZN3r2p9Transport9subscribeERNS_16RemoteSubscriberEPKcPNS_7MessageEjj
 1390              		.thumb
 1391              		.thumb_func
 1392              		.type	_ZN3r2p9Transport9subscribeERNS_16RemoteSubscriberEPKcPNS_7MessageEjj, %function
 1393              	_ZN3r2p9Transport9subscribeERNS_16RemoteSubscriberEPKcPNS_7MessageEjj:
 1394              	.LFB686:
 1395              		.loc 12 107 0
 1396              		.cfi_startproc
 1397              		@ args = 8, pretend = 0, frame = 16
 1398              		@ frame_needed = 0, uses_anonymous_args = 0
 1399 0288 00B5     		push	{lr}
 1400              		.cfi_def_cfa_offset 4
 1401              		.cfi_offset 14, -4
 1402 028a 87B0     		sub	sp, sp, #28
 1403              		.cfi_def_cfa_offset 32
 1404 028c 0590     		str	r0, [sp, #20]
 1405 028e 0491     		str	r1, [sp, #16]
 1406 0290 0392     		str	r2, [sp, #12]
 1407 0292 0293     		str	r3, [sp, #8]
 1408              		.loc 12 109 0
 1409 0294 059B     		ldr	r3, [sp, #20]
 1410 0296 2433     		adds	r3, r3, #36
 1411 0298 1846     		mov	r0, r3
 1412 029a FFF7FEFF 		bl	_ZN3r2p5Mutex7acquireEv
 1413              		.loc 12 110 0
 1414 029e 089B     		ldr	r3, [sp, #32]
 1415 02a0 0093     		str	r3, [sp]
 1416 02a2 099B     		ldr	r3, [sp, #36]
 1417 02a4 0193     		str	r3, [sp, #4]
 1418 02a6 1148     		ldr	r0, .L91
 1419 02a8 0499     		ldr	r1, [sp, #16]
 1420 02aa 039A     		ldr	r2, [sp, #12]
 1421 02ac 029B     		ldr	r3, [sp, #8]
 1422 02ae FFF7FEFF 		bl	_ZN3r2p10Middleware9subscribeERNS_16RemoteSubscriberEPKcPNS_7MessageEjj
ARM GAS  /tmp/ccyYK6L9.s 			page 26


 1423 02b2 0346     		mov	r3, r0
 1424 02b4 002B     		cmp	r3, #0
 1425 02b6 0FD0     		beq	.L89
 1426              		.loc 12 112 0
 1427 02b8 059B     		ldr	r3, [sp, #20]
 1428 02ba 03F10C02 		add	r2, r3, #12
 1429 02be 049B     		ldr	r3, [sp, #16]
 1430 02c0 0C33     		adds	r3, r3, #12
 1431 02c2 1046     		mov	r0, r2
 1432 02c4 1946     		mov	r1, r3
 1433 02c6 FFF7FEFF 		bl	_ZN3r2p10StaticListINS_16RemoteSubscriberEE4linkERNS2_4LinkE
 1434              		.loc 12 113 0
 1435 02ca 059B     		ldr	r3, [sp, #20]
 1436 02cc 2433     		adds	r3, r3, #36
 1437 02ce 1846     		mov	r0, r3
 1438 02d0 FFF7FEFF 		bl	_ZN3r2p5Mutex7releaseEv
 1439              		.loc 12 114 0
 1440 02d4 0123     		movs	r3, #1
 1441 02d6 05E0     		b	.L90
 1442              	.L89:
 1443              		.loc 12 116 0
 1444 02d8 059B     		ldr	r3, [sp, #20]
 1445 02da 2433     		adds	r3, r3, #36
 1446 02dc 1846     		mov	r0, r3
 1447 02de FFF7FEFF 		bl	_ZN3r2p5Mutex7releaseEv
 1448              		.loc 12 117 0
 1449 02e2 0023     		movs	r3, #0
 1450              	.L90:
 1451              		.loc 12 119 0
 1452 02e4 1846     		mov	r0, r3
 1453 02e6 07B0     		add	sp, sp, #28
 1454              		.cfi_def_cfa_offset 4
 1455              		@ sp needed
 1456 02e8 5DF804FB 		ldr	pc, [sp], #4
 1457              	.L92:
 1458              		.align	2
 1459              	.L91:
 1460 02ec 00000000 		.word	_ZN3r2p10Middleware8instanceE
 1461              		.cfi_endproc
 1462              	.LFE686:
 1463              		.size	_ZN3r2p9Transport9subscribeERNS_16RemoteSubscriberEPKcPNS_7MessageEjj, .-_ZN3r2p9Transport9s
 1464              		.align	2
 1465              		.global	_ZN3r2p9Transport15fill_raw_paramsERKNS_5TopicEPh
 1466              		.thumb
 1467              		.thumb_func
 1468              		.type	_ZN3r2p9Transport15fill_raw_paramsERKNS_5TopicEPh, %function
 1469              	_ZN3r2p9Transport15fill_raw_paramsERKNS_5TopicEPh:
 1470              	.LFB687:
 1471              		.loc 12 122 0
 1472              		.cfi_startproc
 1473              		@ args = 0, pretend = 0, frame = 16
 1474              		@ frame_needed = 0, uses_anonymous_args = 0
 1475 02f0 00B5     		push	{lr}
 1476              		.cfi_def_cfa_offset 4
 1477              		.cfi_offset 14, -4
 1478 02f2 85B0     		sub	sp, sp, #20
 1479              		.cfi_def_cfa_offset 24
ARM GAS  /tmp/ccyYK6L9.s 			page 27


 1480 02f4 0390     		str	r0, [sp, #12]
 1481 02f6 0291     		str	r1, [sp, #8]
 1482 02f8 0192     		str	r2, [sp, #4]
 1483              		.loc 12 127 0
 1484 02fa 0198     		ldr	r0, [sp, #4]
 1485 02fc CC21     		movs	r1, #204
 1486 02fe 0A22     		movs	r2, #10
 1487 0300 FFF7FEFF 		bl	memset
 1488              		.loc 12 128 0
 1489 0304 05B0     		add	sp, sp, #20
 1490              		.cfi_def_cfa_offset 4
 1491              		@ sp needed
 1492 0306 5DF804FB 		ldr	pc, [sp], #4
 1493              		.cfi_endproc
 1494              	.LFE687:
 1495              		.size	_ZN3r2p9Transport15fill_raw_paramsERKNS_5TopicEPh, .-_ZN3r2p9Transport15fill_raw_paramsERKNS
 1496              		.section	.text._ZN3r2p10StaticListINS_15RemotePublisherEED2Ev,"axG",%progbits,_ZN3r2p10StaticListI
 1497              		.align	2
 1498              		.weak	_ZN3r2p10StaticListINS_15RemotePublisherEED2Ev
 1499              		.thumb
 1500              		.thumb_func
 1501              		.type	_ZN3r2p10StaticListINS_15RemotePublisherEED2Ev, %function
 1502              	_ZN3r2p10StaticListINS_15RemotePublisherEED2Ev:
 1503              	.LFB690:
 1504              		.file 13 "/opt/R2P/core/Middleware/include/r2p/StaticList.hpp"
 1505              		.loc 13 15 0
 1506              		.cfi_startproc
 1507              		@ args = 0, pretend = 0, frame = 8
 1508              		@ frame_needed = 0, uses_anonymous_args = 0
 1509 0000 00B5     		push	{lr}
 1510              		.cfi_def_cfa_offset 4
 1511              		.cfi_offset 14, -4
 1512 0002 83B0     		sub	sp, sp, #12
 1513              		.cfi_def_cfa_offset 16
 1514 0004 0190     		str	r0, [sp, #4]
 1515              	.LBB16:
 1516              		.loc 13 15 0
 1517 0006 0198     		ldr	r0, [sp, #4]
 1518 0008 FFF7FEFF 		bl	_ZN3r2p10UncopyableD2Ev
 1519              	.LBE16:
 1520 000c 019B     		ldr	r3, [sp, #4]
 1521 000e 1846     		mov	r0, r3
 1522 0010 03B0     		add	sp, sp, #12
 1523              		.cfi_def_cfa_offset 4
 1524              		@ sp needed
 1525 0012 5DF804FB 		ldr	pc, [sp], #4
 1526              		.cfi_endproc
 1527              	.LFE690:
 1528              		.size	_ZN3r2p10StaticListINS_15RemotePublisherEED2Ev, .-_ZN3r2p10StaticListINS_15RemotePublisherEE
 1529              		.weak	_ZN3r2p10StaticListINS_15RemotePublisherEED1Ev
 1530              		.thumb_set _ZN3r2p10StaticListINS_15RemotePublisherEED1Ev,_ZN3r2p10StaticListINS_15RemotePublisher
 1531 0016 00BF     		.section	.text._ZN3r2p10StaticListINS_16RemoteSubscriberEED2Ev,"axG",%progbits,_ZN3r2p10StaticList
 1532              		.align	2
 1533              		.weak	_ZN3r2p10StaticListINS_16RemoteSubscriberEED2Ev
 1534              		.thumb
 1535              		.thumb_func
 1536              		.type	_ZN3r2p10StaticListINS_16RemoteSubscriberEED2Ev, %function
ARM GAS  /tmp/ccyYK6L9.s 			page 28


 1537              	_ZN3r2p10StaticListINS_16RemoteSubscriberEED2Ev:
 1538              	.LFB693:
 1539              		.loc 13 15 0
 1540              		.cfi_startproc
 1541              		@ args = 0, pretend = 0, frame = 8
 1542              		@ frame_needed = 0, uses_anonymous_args = 0
 1543 0000 00B5     		push	{lr}
 1544              		.cfi_def_cfa_offset 4
 1545              		.cfi_offset 14, -4
 1546 0002 83B0     		sub	sp, sp, #12
 1547              		.cfi_def_cfa_offset 16
 1548 0004 0190     		str	r0, [sp, #4]
 1549              	.LBB17:
 1550              		.loc 13 15 0
 1551 0006 0198     		ldr	r0, [sp, #4]
 1552 0008 FFF7FEFF 		bl	_ZN3r2p10UncopyableD2Ev
 1553              	.LBE17:
 1554 000c 019B     		ldr	r3, [sp, #4]
 1555 000e 1846     		mov	r0, r3
 1556 0010 03B0     		add	sp, sp, #12
 1557              		.cfi_def_cfa_offset 4
 1558              		@ sp needed
 1559 0012 5DF804FB 		ldr	pc, [sp], #4
 1560              		.cfi_endproc
 1561              	.LFE693:
 1562              		.size	_ZN3r2p10StaticListINS_16RemoteSubscriberEED2Ev, .-_ZN3r2p10StaticListINS_16RemoteSubscriber
 1563              		.weak	_ZN3r2p10StaticListINS_16RemoteSubscriberEED1Ev
 1564              		.thumb_set _ZN3r2p10StaticListINS_16RemoteSubscriberEED1Ev,_ZN3r2p10StaticListINS_16RemoteSubscrib
 1565 0016 00BF     		.text
 1566 030a 00BF     		.align	2
 1567              		.global	_ZN3r2p9TransportC2EPKc
 1568              		.thumb
 1569              		.thumb_func
 1570              		.type	_ZN3r2p9TransportC2EPKc, %function
 1571              	_ZN3r2p9TransportC2EPKc:
 1572              	.LFB695:
 1573              		.loc 12 131 0
 1574              		.cfi_startproc
 1575              		@ args = 0, pretend = 0, frame = 8
 1576              		@ frame_needed = 0, uses_anonymous_args = 0
 1577 030c 00B5     		push	{lr}
 1578              		.cfi_def_cfa_offset 4
 1579              		.cfi_offset 14, -4
 1580 030e 83B0     		sub	sp, sp, #12
 1581              		.cfi_def_cfa_offset 16
 1582 0310 0190     		str	r0, [sp, #4]
 1583 0312 0091     		str	r1, [sp]
 1584              	.LBB18:
 1585              		.loc 12 134 0
 1586 0314 0198     		ldr	r0, [sp, #4]
 1587 0316 FFF7FEFF 		bl	_ZN3r2p10UncopyableC2Ev
 1588 031a 019B     		ldr	r3, [sp, #4]
 1589 031c 184A     		ldr	r2, .L103
 1590 031e 1A60     		str	r2, [r3]
 1591 0320 019B     		ldr	r3, [sp, #4]
 1592 0322 009A     		ldr	r2, [sp]
 1593 0324 5A60     		str	r2, [r3, #4]
ARM GAS  /tmp/ccyYK6L9.s 			page 29


 1594 0326 019B     		ldr	r3, [sp, #4]
 1595 0328 0833     		adds	r3, r3, #8
 1596 032a 1846     		mov	r0, r3
 1597 032c FFF7FEFF 		bl	_ZN3r2p10StaticListINS_15RemotePublisherEEC1Ev
 1598 0330 019B     		ldr	r3, [sp, #4]
 1599 0332 0C33     		adds	r3, r3, #12
 1600 0334 1846     		mov	r0, r3
 1601 0336 FFF7FEFF 		bl	_ZN3r2p10StaticListINS_16RemoteSubscriberEEC1Ev
 1602 033a 019B     		ldr	r3, [sp, #4]
 1603 033c 1033     		adds	r3, r3, #16
 1604 033e 1846     		mov	r0, r3
 1605 0340 FFF7FEFF 		bl	_ZN3r2p5MutexC1Ev
 1606 0344 019B     		ldr	r3, [sp, #4]
 1607 0346 2433     		adds	r3, r3, #36
 1608 0348 1846     		mov	r0, r3
 1609 034a FFF7FEFF 		bl	_ZN3r2p5MutexC1Ev
 1610 034e 019B     		ldr	r3, [sp, #4]
 1611 0350 3833     		adds	r3, r3, #56
 1612 0352 1846     		mov	r0, r3
 1613 0354 0199     		ldr	r1, [sp, #4]
 1614 0356 FFF7FEFF 		bl	_ZN3r2p10StaticListINS_9TransportEE4LinkC1ERS1_
 1615              		.loc 12 136 0
 1616 035a 0098     		ldr	r0, [sp]
 1617 035c 0821     		movs	r1, #8
 1618 035e FFF7FEFF 		bl	_ZN3r2p13is_identifierEPKcj
 1619 0362 0346     		mov	r3, r0
 1620 0364 83F00103 		eor	r3, r3, #1
 1621 0368 DBB2     		uxtb	r3, r3
 1622 036a 002B     		cmp	r3, #0
 1623 036c 02D0     		beq	.L101
 1624              		.loc 12 136 0 is_stmt 0 discriminator 1
 1625 036e 0548     		ldr	r0, .L103+4
 1626 0370 FFF7FEFF 		bl	chDbgPanic
 1627              	.L101:
 1628              	.LBE18:
 1629              		.loc 12 137 0 is_stmt 1
 1630 0374 019B     		ldr	r3, [sp, #4]
 1631 0376 1846     		mov	r0, r3
 1632 0378 03B0     		add	sp, sp, #12
 1633              		.cfi_def_cfa_offset 4
 1634              		@ sp needed
 1635 037a 5DF804FB 		ldr	pc, [sp], #4
 1636              	.L104:
 1637 037e 00BF     		.align	2
 1638              	.L103:
 1639 0380 08000000 		.word	_ZTVN3r2p9TransportE+8
 1640 0384 00000000 		.word	.LC0
 1641              		.cfi_endproc
 1642              	.LFE695:
 1643              		.size	_ZN3r2p9TransportC2EPKc, .-_ZN3r2p9TransportC2EPKc
 1644              		.global	_ZN3r2p9TransportC1EPKc
 1645              		.thumb_set _ZN3r2p9TransportC1EPKc,_ZN3r2p9TransportC2EPKc
 1646              		.align	2
 1647              		.global	_ZN3r2p9TransportD2Ev
 1648              		.thumb
 1649              		.thumb_func
 1650              		.type	_ZN3r2p9TransportD2Ev, %function
ARM GAS  /tmp/ccyYK6L9.s 			page 30


 1651              	_ZN3r2p9TransportD2Ev:
 1652              	.LFB698:
 1653              		.loc 12 140 0
 1654              		.cfi_startproc
 1655              		@ args = 0, pretend = 0, frame = 8
 1656              		@ frame_needed = 0, uses_anonymous_args = 0
 1657 0388 00B5     		push	{lr}
 1658              		.cfi_def_cfa_offset 4
 1659              		.cfi_offset 14, -4
 1660 038a 83B0     		sub	sp, sp, #12
 1661              		.cfi_def_cfa_offset 16
 1662 038c 0190     		str	r0, [sp, #4]
 1663              	.LBB19:
 1664              		.loc 12 140 0
 1665 038e 019B     		ldr	r3, [sp, #4]
 1666 0390 114A     		ldr	r2, .L109
 1667 0392 1A60     		str	r2, [r3]
 1668 0394 019B     		ldr	r3, [sp, #4]
 1669 0396 2433     		adds	r3, r3, #36
 1670 0398 1846     		mov	r0, r3
 1671 039a FFF7FEFF 		bl	_ZN3r2p5MutexD1Ev
 1672 039e 019B     		ldr	r3, [sp, #4]
 1673 03a0 1033     		adds	r3, r3, #16
 1674 03a2 1846     		mov	r0, r3
 1675 03a4 FFF7FEFF 		bl	_ZN3r2p5MutexD1Ev
 1676 03a8 019B     		ldr	r3, [sp, #4]
 1677 03aa 0C33     		adds	r3, r3, #12
 1678 03ac 1846     		mov	r0, r3
 1679 03ae FFF7FEFF 		bl	_ZN3r2p10StaticListINS_16RemoteSubscriberEED1Ev
 1680 03b2 019B     		ldr	r3, [sp, #4]
 1681 03b4 0833     		adds	r3, r3, #8
 1682 03b6 1846     		mov	r0, r3
 1683 03b8 FFF7FEFF 		bl	_ZN3r2p10StaticListINS_15RemotePublisherEED1Ev
 1684 03bc 0198     		ldr	r0, [sp, #4]
 1685 03be FFF7FEFF 		bl	_ZN3r2p10UncopyableD2Ev
 1686              	.LBE19:
 1687 03c2 0023     		movs	r3, #0
 1688 03c4 002B     		cmp	r3, #0
 1689 03c6 02D0     		beq	.L107
 1690              		.loc 12 140 0 is_stmt 0 discriminator 2
 1691 03c8 0198     		ldr	r0, [sp, #4]
 1692 03ca FFF7FEFF 		bl	_ZdlPv
 1693              	.L107:
 1694              		.loc 12 140 0 discriminator 4
 1695 03ce 019B     		ldr	r3, [sp, #4]
 1696 03d0 1846     		mov	r0, r3
 1697 03d2 03B0     		add	sp, sp, #12
 1698              		.cfi_def_cfa_offset 4
 1699              		@ sp needed
 1700 03d4 5DF804FB 		ldr	pc, [sp], #4
 1701              	.L110:
 1702              		.align	2
 1703              	.L109:
 1704 03d8 08000000 		.word	_ZTVN3r2p9TransportE+8
 1705              		.cfi_endproc
 1706              	.LFE698:
 1707              		.size	_ZN3r2p9TransportD2Ev, .-_ZN3r2p9TransportD2Ev
ARM GAS  /tmp/ccyYK6L9.s 			page 31


 1708              		.global	_ZN3r2p9TransportD1Ev
 1709              		.thumb_set _ZN3r2p9TransportD1Ev,_ZN3r2p9TransportD2Ev
 1710              		.align	2
 1711              		.global	_ZN3r2p9TransportD0Ev
 1712              		.thumb
 1713              		.thumb_func
 1714              		.type	_ZN3r2p9TransportD0Ev, %function
 1715              	_ZN3r2p9TransportD0Ev:
 1716              	.LFB700:
 1717              		.loc 12 140 0 is_stmt 1
 1718              		.cfi_startproc
 1719              		@ args = 0, pretend = 0, frame = 8
 1720              		@ frame_needed = 0, uses_anonymous_args = 0
 1721 03dc 00B5     		push	{lr}
 1722              		.cfi_def_cfa_offset 4
 1723              		.cfi_offset 14, -4
 1724 03de 83B0     		sub	sp, sp, #12
 1725              		.cfi_def_cfa_offset 16
 1726 03e0 0190     		str	r0, [sp, #4]
 1727              		.loc 12 140 0
 1728 03e2 0198     		ldr	r0, [sp, #4]
 1729 03e4 FFF7FEFF 		bl	_ZN3r2p9TransportD2Ev
 1730 03e8 0198     		ldr	r0, [sp, #4]
 1731 03ea FFF7FEFF 		bl	_ZdlPv
 1732 03ee 019B     		ldr	r3, [sp, #4]
 1733 03f0 1846     		mov	r0, r3
 1734 03f2 03B0     		add	sp, sp, #12
 1735              		.cfi_def_cfa_offset 4
 1736              		@ sp needed
 1737 03f4 5DF804FB 		ldr	pc, [sp], #4
 1738              		.cfi_endproc
 1739              	.LFE700:
 1740              		.size	_ZN3r2p9TransportD0Ev, .-_ZN3r2p9TransportD0Ev
 1741              		.section	.text._ZNK3r2p10StaticListINS_16RemoteSubscriberEE15is_empty_unsafeEv,"axG",%progbits,_ZN
 1742              		.align	2
 1743              		.weak	_ZNK3r2p10StaticListINS_16RemoteSubscriberEE15is_empty_unsafeEv
 1744              		.thumb
 1745              		.thumb_func
 1746              		.type	_ZNK3r2p10StaticListINS_16RemoteSubscriberEE15is_empty_unsafeEv, %function
 1747              	_ZNK3r2p10StaticListINS_16RemoteSubscriberEE15is_empty_unsafeEv:
 1748              	.LFB720:
 1749              		.loc 13 401 0
 1750              		.cfi_startproc
 1751              		@ args = 0, pretend = 0, frame = 8
 1752              		@ frame_needed = 0, uses_anonymous_args = 0
 1753              		@ link register save eliminated.
 1754 0000 82B0     		sub	sp, sp, #8
 1755              		.cfi_def_cfa_offset 8
 1756 0002 0190     		str	r0, [sp, #4]
 1757              		.loc 13 402 0
 1758 0004 019B     		ldr	r3, [sp, #4]
 1759 0006 1B68     		ldr	r3, [r3]
 1760 0008 002B     		cmp	r3, #0
 1761 000a 0CBF     		ite	eq
 1762 000c 0123     		moveq	r3, #1
 1763 000e 0023     		movne	r3, #0
 1764 0010 DBB2     		uxtb	r3, r3
ARM GAS  /tmp/ccyYK6L9.s 			page 32


 1765              		.loc 13 403 0
 1766 0012 1846     		mov	r0, r3
 1767 0014 02B0     		add	sp, sp, #8
 1768              		.cfi_def_cfa_offset 0
 1769              		@ sp needed
 1770 0016 7047     		bx	lr
 1771              		.cfi_endproc
 1772              	.LFE720:
 1773              		.size	_ZNK3r2p10StaticListINS_16RemoteSubscriberEE15is_empty_unsafeEv, .-_ZNK3r2p10StaticListINS_1
 1774              		.section	.text._ZN3r2p10ScopedLockINS_5MutexEEC2ERS1_,"axG",%progbits,_ZN3r2p10ScopedLockINS_5Mute
 1775              		.align	2
 1776              		.weak	_ZN3r2p10ScopedLockINS_5MutexEEC2ERS1_
 1777              		.thumb
 1778              		.thumb_func
 1779              		.type	_ZN3r2p10ScopedLockINS_5MutexEEC2ERS1_, %function
 1780              	_ZN3r2p10ScopedLockINS_5MutexEEC2ERS1_:
 1781              	.LFB724:
 1782              		.file 14 "/opt/R2P/core/Middleware/include/r2p/ScopedLock.hpp"
 1783              		.loc 14 20 0
 1784              		.cfi_startproc
 1785              		@ args = 0, pretend = 0, frame = 8
 1786              		@ frame_needed = 0, uses_anonymous_args = 0
 1787 0000 00B5     		push	{lr}
 1788              		.cfi_def_cfa_offset 4
 1789              		.cfi_offset 14, -4
 1790 0002 83B0     		sub	sp, sp, #12
 1791              		.cfi_def_cfa_offset 16
 1792 0004 0190     		str	r0, [sp, #4]
 1793 0006 0091     		str	r1, [sp]
 1794              	.LBB20:
 1795              		.loc 14 22 0
 1796 0008 0198     		ldr	r0, [sp, #4]
 1797 000a FFF7FEFF 		bl	_ZN3r2p10UncopyableC2Ev
 1798 000e 019B     		ldr	r3, [sp, #4]
 1799 0010 009A     		ldr	r2, [sp]
 1800 0012 1A60     		str	r2, [r3]
 1801              		.loc 14 24 0
 1802 0014 019B     		ldr	r3, [sp, #4]
 1803 0016 1B68     		ldr	r3, [r3]
 1804 0018 1846     		mov	r0, r3
 1805 001a FFF7FEFF 		bl	_ZN3r2p5Mutex7acquireEv
 1806              	.LBE20:
 1807              		.loc 14 25 0
 1808 001e 019B     		ldr	r3, [sp, #4]
 1809 0020 1846     		mov	r0, r3
 1810 0022 03B0     		add	sp, sp, #12
 1811              		.cfi_def_cfa_offset 4
 1812              		@ sp needed
 1813 0024 5DF804FB 		ldr	pc, [sp], #4
 1814              		.cfi_endproc
 1815              	.LFE724:
 1816              		.size	_ZN3r2p10ScopedLockINS_5MutexEEC2ERS1_, .-_ZN3r2p10ScopedLockINS_5MutexEEC2ERS1_
 1817              		.weak	_ZN3r2p10ScopedLockINS_5MutexEEC1ERS1_
 1818              		.thumb_set _ZN3r2p10ScopedLockINS_5MutexEEC1ERS1_,_ZN3r2p10ScopedLockINS_5MutexEEC2ERS1_
 1819              		.section	.text._ZN3r2p10ScopedLockINS_5MutexEED2Ev,"axG",%progbits,_ZN3r2p10ScopedLockINS_5MutexEE
 1820              		.align	2
 1821              		.weak	_ZN3r2p10ScopedLockINS_5MutexEED2Ev
ARM GAS  /tmp/ccyYK6L9.s 			page 33


 1822              		.thumb
 1823              		.thumb_func
 1824              		.type	_ZN3r2p10ScopedLockINS_5MutexEED2Ev, %function
 1825              	_ZN3r2p10ScopedLockINS_5MutexEED2Ev:
 1826              	.LFB727:
 1827              		.loc 14 29 0
 1828              		.cfi_startproc
 1829              		@ args = 0, pretend = 0, frame = 8
 1830              		@ frame_needed = 0, uses_anonymous_args = 0
 1831 0000 00B5     		push	{lr}
 1832              		.cfi_def_cfa_offset 4
 1833              		.cfi_offset 14, -4
 1834 0002 83B0     		sub	sp, sp, #12
 1835              		.cfi_def_cfa_offset 16
 1836 0004 0190     		str	r0, [sp, #4]
 1837              	.LBB21:
 1838              		.loc 14 31 0
 1839 0006 019B     		ldr	r3, [sp, #4]
 1840 0008 1B68     		ldr	r3, [r3]
 1841 000a 1846     		mov	r0, r3
 1842 000c FFF7FEFF 		bl	_ZN3r2p5Mutex7releaseEv
 1843              		.loc 14 32 0
 1844 0010 0198     		ldr	r0, [sp, #4]
 1845 0012 FFF7FEFF 		bl	_ZN3r2p10UncopyableD2Ev
 1846              	.LBE21:
 1847 0016 019B     		ldr	r3, [sp, #4]
 1848 0018 1846     		mov	r0, r3
 1849 001a 03B0     		add	sp, sp, #12
 1850              		.cfi_def_cfa_offset 4
 1851              		@ sp needed
 1852 001c 5DF804FB 		ldr	pc, [sp], #4
 1853              		.cfi_endproc
 1854              	.LFE727:
 1855              		.size	_ZN3r2p10ScopedLockINS_5MutexEED2Ev, .-_ZN3r2p10ScopedLockINS_5MutexEED2Ev
 1856              		.weak	_ZN3r2p10ScopedLockINS_5MutexEED1Ev
 1857              		.thumb_set _ZN3r2p10ScopedLockINS_5MutexEED1Ev,_ZN3r2p10ScopedLockINS_5MutexEED2Ev
 1858              		.section	.text._ZNK3r2p10StaticListINS_15RemotePublisherEE10find_firstIPFbRKNS_13BasePublisherEPKc
 1859              		.align	2
 1860              		.weak	_ZNK3r2p10StaticListINS_15RemotePublisherEE10find_firstIPFbRKNS_13BasePublisherEPKcEcEEPS1_T
 1861              		.thumb
 1862              		.thumb_func
 1863              		.type	_ZNK3r2p10StaticListINS_15RemotePublisherEE10find_firstIPFbRKNS_13BasePublisherEPKcEcEEPS1_T
 1864              	_ZNK3r2p10StaticListINS_15RemotePublisherEE10find_firstIPFbRKNS_13BasePublisherEPKcEcEEPS1_T_PKT0_:
 1865              	.LFB729:
 1866              		.loc 13 475 0
 1867              		.cfi_startproc
 1868              		@ args = 0, pretend = 0, frame = 16
 1869              		@ frame_needed = 0, uses_anonymous_args = 0
 1870 0000 00B5     		push	{lr}
 1871              		.cfi_def_cfa_offset 4
 1872              		.cfi_offset 14, -4
 1873 0002 85B0     		sub	sp, sp, #20
 1874              		.cfi_def_cfa_offset 24
 1875 0004 0390     		str	r0, [sp, #12]
 1876 0006 0291     		str	r1, [sp, #8]
 1877 0008 0192     		str	r2, [sp, #4]
 1878              		.loc 13 477 0
ARM GAS  /tmp/ccyYK6L9.s 			page 34


 1879 000a 0398     		ldr	r0, [sp, #12]
 1880 000c 0299     		ldr	r1, [sp, #8]
 1881 000e 019A     		ldr	r2, [sp, #4]
 1882 0010 FFF7FEFF 		bl	_ZNK3r2p10StaticListINS_15RemotePublisherEE10find_firstEPFbRKS1_PKvES6_
 1883 0014 0346     		mov	r3, r0
 1884              		.loc 13 478 0
 1885 0016 1846     		mov	r0, r3
 1886 0018 05B0     		add	sp, sp, #20
 1887              		.cfi_def_cfa_offset 4
 1888              		@ sp needed
 1889 001a 5DF804FB 		ldr	pc, [sp], #4
 1890              		.cfi_endproc
 1891              	.LFE729:
 1892              		.size	_ZNK3r2p10StaticListINS_15RemotePublisherEE10find_firstIPFbRKNS_13BasePublisherEPKcEcEEPS1_T
 1893 001e 00BF     		.section	.text._ZN3r2p10StaticListINS_15RemotePublisherEE4linkERNS2_4LinkE,"axG",%progbits,_ZN3r2p
 1894              		.align	2
 1895              		.weak	_ZN3r2p10StaticListINS_15RemotePublisherEE4linkERNS2_4LinkE
 1896              		.thumb
 1897              		.thumb_func
 1898              		.type	_ZN3r2p10StaticListINS_15RemotePublisherEE4linkERNS2_4LinkE, %function
 1899              	_ZN3r2p10StaticListINS_15RemotePublisherEE4linkERNS2_4LinkE:
 1900              	.LFB730:
 1901              		.loc 13 630 0
 1902              		.cfi_startproc
 1903              		@ args = 0, pretend = 0, frame = 8
 1904              		@ frame_needed = 0, uses_anonymous_args = 0
 1905 0000 00B5     		push	{lr}
 1906              		.cfi_def_cfa_offset 4
 1907              		.cfi_offset 14, -4
 1908 0002 83B0     		sub	sp, sp, #12
 1909              		.cfi_def_cfa_offset 16
 1910 0004 0190     		str	r0, [sp, #4]
 1911 0006 0091     		str	r1, [sp]
 1912              		.loc 13 632 0
 1913 0008 FFF7FEFF 		bl	_ZN3r2p7SysLock7acquireEv
 1914              		.loc 13 633 0
 1915 000c 0198     		ldr	r0, [sp, #4]
 1916 000e 0099     		ldr	r1, [sp]
 1917 0010 FFF7FEFF 		bl	_ZN3r2p10StaticListINS_15RemotePublisherEE16link_tail_unsafeERNS2_4LinkE
 1918              		.loc 13 635 0
 1919 0014 FFF7FEFF 		bl	_ZN3r2p7SysLock7releaseEv
 1920              		.loc 13 636 0
 1921 0018 03B0     		add	sp, sp, #12
 1922              		.cfi_def_cfa_offset 4
 1923              		@ sp needed
 1924 001a 5DF804FB 		ldr	pc, [sp], #4
 1925              		.cfi_endproc
 1926              	.LFE730:
 1927              		.size	_ZN3r2p10StaticListINS_15RemotePublisherEE4linkERNS2_4LinkE, .-_ZN3r2p10StaticListINS_15Remo
 1928 001e 00BF     		.section	.text._ZNK3r2p10StaticListINS_16RemoteSubscriberEE10find_firstIPFbRKNS_14BaseSubscriberEP
 1929              		.align	2
 1930              		.weak	_ZNK3r2p10StaticListINS_16RemoteSubscriberEE10find_firstIPFbRKNS_14BaseSubscriberEPKcEcEEPS1
 1931              		.thumb
 1932              		.thumb_func
 1933              		.type	_ZNK3r2p10StaticListINS_16RemoteSubscriberEE10find_firstIPFbRKNS_14BaseSubscriberEPKcEcEEPS1
 1934              	_ZNK3r2p10StaticListINS_16RemoteSubscriberEE10find_firstIPFbRKNS_14BaseSubscriberEPKcEcEEPS1_T_PKT0
 1935              	.LFB731:
ARM GAS  /tmp/ccyYK6L9.s 			page 35


 1936              		.loc 13 475 0
 1937              		.cfi_startproc
 1938              		@ args = 0, pretend = 0, frame = 16
 1939              		@ frame_needed = 0, uses_anonymous_args = 0
 1940 0000 00B5     		push	{lr}
 1941              		.cfi_def_cfa_offset 4
 1942              		.cfi_offset 14, -4
 1943 0002 85B0     		sub	sp, sp, #20
 1944              		.cfi_def_cfa_offset 24
 1945 0004 0390     		str	r0, [sp, #12]
 1946 0006 0291     		str	r1, [sp, #8]
 1947 0008 0192     		str	r2, [sp, #4]
 1948              		.loc 13 477 0
 1949 000a 0398     		ldr	r0, [sp, #12]
 1950 000c 0299     		ldr	r1, [sp, #8]
 1951 000e 019A     		ldr	r2, [sp, #4]
 1952 0010 FFF7FEFF 		bl	_ZNK3r2p10StaticListINS_16RemoteSubscriberEE10find_firstEPFbRKS1_PKvES6_
 1953 0014 0346     		mov	r3, r0
 1954              		.loc 13 478 0
 1955 0016 1846     		mov	r0, r3
 1956 0018 05B0     		add	sp, sp, #20
 1957              		.cfi_def_cfa_offset 4
 1958              		@ sp needed
 1959 001a 5DF804FB 		ldr	pc, [sp], #4
 1960              		.cfi_endproc
 1961              	.LFE731:
 1962              		.size	_ZNK3r2p10StaticListINS_16RemoteSubscriberEE10find_firstIPFbRKNS_14BaseSubscriberEPKcEcEEPS1
 1963 001e 00BF     		.section	.text._ZN3r2p10StaticListINS_16RemoteSubscriberEE4linkERNS2_4LinkE,"axG",%progbits,_ZN3r2
 1964              		.align	2
 1965              		.weak	_ZN3r2p10StaticListINS_16RemoteSubscriberEE4linkERNS2_4LinkE
 1966              		.thumb
 1967              		.thumb_func
 1968              		.type	_ZN3r2p10StaticListINS_16RemoteSubscriberEE4linkERNS2_4LinkE, %function
 1969              	_ZN3r2p10StaticListINS_16RemoteSubscriberEE4linkERNS2_4LinkE:
 1970              	.LFB732:
 1971              		.loc 13 630 0
 1972              		.cfi_startproc
 1973              		@ args = 0, pretend = 0, frame = 8
 1974              		@ frame_needed = 0, uses_anonymous_args = 0
 1975 0000 00B5     		push	{lr}
 1976              		.cfi_def_cfa_offset 4
 1977              		.cfi_offset 14, -4
 1978 0002 83B0     		sub	sp, sp, #12
 1979              		.cfi_def_cfa_offset 16
 1980 0004 0190     		str	r0, [sp, #4]
 1981 0006 0091     		str	r1, [sp]
 1982              		.loc 13 632 0
 1983 0008 FFF7FEFF 		bl	_ZN3r2p7SysLock7acquireEv
 1984              		.loc 13 633 0
 1985 000c 0198     		ldr	r0, [sp, #4]
 1986 000e 0099     		ldr	r1, [sp]
 1987 0010 FFF7FEFF 		bl	_ZN3r2p10StaticListINS_16RemoteSubscriberEE16link_tail_unsafeERNS2_4LinkE
 1988              		.loc 13 635 0
 1989 0014 FFF7FEFF 		bl	_ZN3r2p7SysLock7releaseEv
 1990              		.loc 13 636 0
 1991 0018 03B0     		add	sp, sp, #12
 1992              		.cfi_def_cfa_offset 4
ARM GAS  /tmp/ccyYK6L9.s 			page 36


 1993              		@ sp needed
 1994 001a 5DF804FB 		ldr	pc, [sp], #4
 1995              		.cfi_endproc
 1996              	.LFE732:
 1997              		.size	_ZN3r2p10StaticListINS_16RemoteSubscriberEE4linkERNS2_4LinkE, .-_ZN3r2p10StaticListINS_16Rem
 1998 001e 00BF     		.section	.text._ZN3r2p10StaticListINS_15RemotePublisherEEC2Ev,"axG",%progbits,_ZN3r2p10StaticListI
 1999              		.align	2
 2000              		.weak	_ZN3r2p10StaticListINS_15RemotePublisherEEC2Ev
 2001              		.thumb
 2002              		.thumb_func
 2003              		.type	_ZN3r2p10StaticListINS_15RemotePublisherEEC2Ev, %function
 2004              	_ZN3r2p10StaticListINS_15RemotePublisherEEC2Ev:
 2005              	.LFB734:
 2006              		.loc 13 506 0
 2007              		.cfi_startproc
 2008              		@ args = 0, pretend = 0, frame = 8
 2009              		@ frame_needed = 0, uses_anonymous_args = 0
 2010 0000 00B5     		push	{lr}
 2011              		.cfi_def_cfa_offset 4
 2012              		.cfi_offset 14, -4
 2013 0002 83B0     		sub	sp, sp, #12
 2014              		.cfi_def_cfa_offset 16
 2015 0004 0190     		str	r0, [sp, #4]
 2016              	.LBB22:
 2017              		.loc 13 506 0
 2018 0006 0198     		ldr	r0, [sp, #4]
 2019 0008 FFF7FEFF 		bl	_ZN3r2p10UncopyableC2Ev
 2020 000c 019B     		ldr	r3, [sp, #4]
 2021 000e 0022     		movs	r2, #0
 2022 0010 1A60     		str	r2, [r3]
 2023              	.LBE22:
 2024 0012 019B     		ldr	r3, [sp, #4]
 2025 0014 1846     		mov	r0, r3
 2026 0016 03B0     		add	sp, sp, #12
 2027              		.cfi_def_cfa_offset 4
 2028              		@ sp needed
 2029 0018 5DF804FB 		ldr	pc, [sp], #4
 2030              		.cfi_endproc
 2031              	.LFE734:
 2032              		.size	_ZN3r2p10StaticListINS_15RemotePublisherEEC2Ev, .-_ZN3r2p10StaticListINS_15RemotePublisherEE
 2033              		.weak	_ZN3r2p10StaticListINS_15RemotePublisherEEC1Ev
 2034              		.thumb_set _ZN3r2p10StaticListINS_15RemotePublisherEEC1Ev,_ZN3r2p10StaticListINS_15RemotePublisher
 2035              		.section	.text._ZN3r2p10StaticListINS_16RemoteSubscriberEEC2Ev,"axG",%progbits,_ZN3r2p10StaticList
 2036              		.align	2
 2037              		.weak	_ZN3r2p10StaticListINS_16RemoteSubscriberEEC2Ev
 2038              		.thumb
 2039              		.thumb_func
 2040              		.type	_ZN3r2p10StaticListINS_16RemoteSubscriberEEC2Ev, %function
 2041              	_ZN3r2p10StaticListINS_16RemoteSubscriberEEC2Ev:
 2042              	.LFB737:
 2043              		.loc 13 506 0
 2044              		.cfi_startproc
 2045              		@ args = 0, pretend = 0, frame = 8
 2046              		@ frame_needed = 0, uses_anonymous_args = 0
 2047 0000 00B5     		push	{lr}
 2048              		.cfi_def_cfa_offset 4
 2049              		.cfi_offset 14, -4
ARM GAS  /tmp/ccyYK6L9.s 			page 37


 2050 0002 83B0     		sub	sp, sp, #12
 2051              		.cfi_def_cfa_offset 16
 2052 0004 0190     		str	r0, [sp, #4]
 2053              	.LBB23:
 2054              		.loc 13 506 0
 2055 0006 0198     		ldr	r0, [sp, #4]
 2056 0008 FFF7FEFF 		bl	_ZN3r2p10UncopyableC2Ev
 2057 000c 019B     		ldr	r3, [sp, #4]
 2058 000e 0022     		movs	r2, #0
 2059 0010 1A60     		str	r2, [r3]
 2060              	.LBE23:
 2061 0012 019B     		ldr	r3, [sp, #4]
 2062 0014 1846     		mov	r0, r3
 2063 0016 03B0     		add	sp, sp, #12
 2064              		.cfi_def_cfa_offset 4
 2065              		@ sp needed
 2066 0018 5DF804FB 		ldr	pc, [sp], #4
 2067              		.cfi_endproc
 2068              	.LFE737:
 2069              		.size	_ZN3r2p10StaticListINS_16RemoteSubscriberEEC2Ev, .-_ZN3r2p10StaticListINS_16RemoteSubscriber
 2070              		.weak	_ZN3r2p10StaticListINS_16RemoteSubscriberEEC1Ev
 2071              		.thumb_set _ZN3r2p10StaticListINS_16RemoteSubscriberEEC1Ev,_ZN3r2p10StaticListINS_16RemoteSubscrib
 2072              		.section	.text._ZN3r2p10StaticListINS_9TransportEE4LinkC2ERS1_,"axG",%progbits,_ZN3r2p10StaticList
 2073              		.align	2
 2074              		.weak	_ZN3r2p10StaticListINS_9TransportEE4LinkC2ERS1_
 2075              		.thumb
 2076              		.thumb_func
 2077              		.type	_ZN3r2p10StaticListINS_9TransportEE4LinkC2ERS1_, %function
 2078              	_ZN3r2p10StaticListINS_9TransportEE4LinkC2ERS1_:
 2079              	.LFB740:
 2080              		.loc 13 21 0
 2081              		.cfi_startproc
 2082              		@ args = 0, pretend = 0, frame = 8
 2083              		@ frame_needed = 0, uses_anonymous_args = 0
 2084              		@ link register save eliminated.
 2085 0000 82B0     		sub	sp, sp, #8
 2086              		.cfi_def_cfa_offset 8
 2087 0002 0190     		str	r0, [sp, #4]
 2088 0004 0091     		str	r1, [sp]
 2089              	.LBB24:
 2090              		.loc 13 21 0
 2091 0006 019B     		ldr	r3, [sp, #4]
 2092 0008 0022     		movs	r2, #0
 2093 000a 1A60     		str	r2, [r3]
 2094 000c 019B     		ldr	r3, [sp, #4]
 2095 000e 009A     		ldr	r2, [sp]
 2096 0010 5A60     		str	r2, [r3, #4]
 2097              	.LBE24:
 2098 0012 019B     		ldr	r3, [sp, #4]
 2099 0014 1846     		mov	r0, r3
 2100 0016 02B0     		add	sp, sp, #8
 2101              		.cfi_def_cfa_offset 0
 2102              		@ sp needed
 2103 0018 7047     		bx	lr
 2104              		.cfi_endproc
 2105              	.LFE740:
 2106              		.size	_ZN3r2p10StaticListINS_9TransportEE4LinkC2ERS1_, .-_ZN3r2p10StaticListINS_9TransportEE4LinkC
ARM GAS  /tmp/ccyYK6L9.s 			page 38


 2107              		.weak	_ZN3r2p10StaticListINS_9TransportEE4LinkC1ERS1_
 2108              		.thumb_set _ZN3r2p10StaticListINS_9TransportEE4LinkC1ERS1_,_ZN3r2p10StaticListINS_9TransportEE4Lin
 2109 001a 00BF     		.section	.text._ZNK3r2p10StaticListINS_15RemotePublisherEE10find_firstEPFbRKS1_PKvES6_,"axG",%prog
 2110              		.align	2
 2111              		.weak	_ZNK3r2p10StaticListINS_15RemotePublisherEE10find_firstEPFbRKS1_PKvES6_
 2112              		.thumb
 2113              		.thumb_func
 2114              		.type	_ZNK3r2p10StaticListINS_15RemotePublisherEE10find_firstEPFbRKS1_PKvES6_, %function
 2115              	_ZNK3r2p10StaticListINS_15RemotePublisherEE10find_firstEPFbRKS1_PKvES6_:
 2116              	.LFB742:
 2117              		.loc 13 700 0
 2118              		.cfi_startproc
 2119              		@ args = 0, pretend = 0, frame = 24
 2120              		@ frame_needed = 0, uses_anonymous_args = 0
 2121 0000 00B5     		push	{lr}
 2122              		.cfi_def_cfa_offset 4
 2123              		.cfi_offset 14, -4
 2124 0002 87B0     		sub	sp, sp, #28
 2125              		.cfi_def_cfa_offset 32
 2126 0004 0390     		str	r0, [sp, #12]
 2127 0006 0291     		str	r1, [sp, #8]
 2128 0008 0192     		str	r2, [sp, #4]
 2129              	.LBB25:
 2130              		.loc 13 703 0
 2131 000a 019B     		ldr	r3, [sp, #4]
 2132 000c 002B     		cmp	r3, #0
 2133 000e 02D1     		bne	.L138
 2134              		.loc 13 703 0 is_stmt 0 discriminator 1
 2135 0010 1248     		ldr	r0, .L143
 2136 0012 FFF7FEFF 		bl	chDbgPanic
 2137              	.L138:
 2138              		.loc 13 705 0 is_stmt 1
 2139 0016 FFF7FEFF 		bl	_ZN3r2p7SysLock7acquireEv
 2140              	.LBB26:
 2141              		.loc 13 706 0
 2142 001a 039B     		ldr	r3, [sp, #12]
 2143 001c 1B68     		ldr	r3, [r3]
 2144 001e 0593     		str	r3, [sp, #20]
 2145 0020 12E0     		b	.L139
 2146              	.L142:
 2147              		.loc 13 707 0
 2148 0022 FFF7FEFF 		bl	_ZN3r2p7SysLock7releaseEv
 2149              		.loc 13 708 0
 2150 0026 059B     		ldr	r3, [sp, #20]
 2151 0028 5A68     		ldr	r2, [r3, #4]
 2152 002a 029B     		ldr	r3, [sp, #8]
 2153 002c 1046     		mov	r0, r2
 2154 002e 0199     		ldr	r1, [sp, #4]
 2155 0030 9847     		blx	r3
 2156 0032 0346     		mov	r3, r0
 2157 0034 002B     		cmp	r3, #0
 2158 0036 02D0     		beq	.L140
 2159              		.loc 13 709 0
 2160 0038 059B     		ldr	r3, [sp, #20]
 2161 003a 5B68     		ldr	r3, [r3, #4]
 2162 003c 0AE0     		b	.L141
 2163              	.L140:
ARM GAS  /tmp/ccyYK6L9.s 			page 39


 2164              		.loc 13 711 0 discriminator 2
 2165 003e FFF7FEFF 		bl	_ZN3r2p7SysLock7acquireEv
 2166              		.loc 13 706 0 discriminator 2
 2167 0042 059B     		ldr	r3, [sp, #20]
 2168 0044 1B68     		ldr	r3, [r3]
 2169 0046 0593     		str	r3, [sp, #20]
 2170              	.L139:
 2171              		.loc 13 706 0 is_stmt 0 discriminator 1
 2172 0048 059B     		ldr	r3, [sp, #20]
 2173 004a 002B     		cmp	r3, #0
 2174 004c E9D1     		bne	.L142
 2175              	.LBE26:
 2176              		.loc 13 713 0 is_stmt 1
 2177 004e FFF7FEFF 		bl	_ZN3r2p7SysLock7releaseEv
 2178              		.loc 13 714 0
 2179 0052 0023     		movs	r3, #0
 2180              	.L141:
 2181              	.LBE25:
 2182              		.loc 13 715 0
 2183 0054 1846     		mov	r0, r3
 2184 0056 07B0     		add	sp, sp, #28
 2185              		.cfi_def_cfa_offset 4
 2186              		@ sp needed
 2187 0058 5DF804FB 		ldr	pc, [sp], #4
 2188              	.L144:
 2189              		.align	2
 2190              	.L143:
 2191 005c 00000000 		.word	.LC0
 2192              		.cfi_endproc
 2193              	.LFE742:
 2194              		.size	_ZNK3r2p10StaticListINS_15RemotePublisherEE10find_firstEPFbRKS1_PKvES6_, .-_ZNK3r2p10StaticL
 2195              		.section	.text._ZN3r2p10StaticListINS_15RemotePublisherEE16link_tail_unsafeERNS2_4LinkE,"axG",%pro
 2196              		.align	2
 2197              		.weak	_ZN3r2p10StaticListINS_15RemotePublisherEE16link_tail_unsafeERNS2_4LinkE
 2198              		.thumb
 2199              		.thumb_func
 2200              		.type	_ZN3r2p10StaticListINS_15RemotePublisherEE16link_tail_unsafeERNS2_4LinkE, %function
 2201              	_ZN3r2p10StaticListINS_15RemotePublisherEE16link_tail_unsafeERNS2_4LinkE:
 2202              	.LFB743:
 2203              		.loc 13 415 0
 2204              		.cfi_startproc
 2205              		@ args = 0, pretend = 0, frame = 16
 2206              		@ frame_needed = 0, uses_anonymous_args = 0
 2207 0000 00B5     		push	{lr}
 2208              		.cfi_def_cfa_offset 4
 2209              		.cfi_offset 14, -4
 2210 0002 85B0     		sub	sp, sp, #20
 2211              		.cfi_def_cfa_offset 24
 2212 0004 0190     		str	r0, [sp, #4]
 2213 0006 0091     		str	r1, [sp]
 2214              	.LBB27:
 2215              		.loc 13 416 0
 2216 0008 019B     		ldr	r3, [sp, #4]
 2217 000a 1B68     		ldr	r3, [r3]
 2218 000c 0393     		str	r3, [sp, #12]
 2219              		.loc 13 418 0
 2220 000e 009B     		ldr	r3, [sp]
ARM GAS  /tmp/ccyYK6L9.s 			page 40


 2221 0010 1B68     		ldr	r3, [r3]
 2222 0012 002B     		cmp	r3, #0
 2223 0014 02D0     		beq	.L146
 2224              		.loc 13 418 0 is_stmt 0 discriminator 1
 2225 0016 1248     		ldr	r0, .L152
 2226 0018 FFF7FEFF 		bl	chDbgPanic
 2227              	.L146:
 2228              		.loc 13 419 0 is_stmt 1
 2229 001c 0198     		ldr	r0, [sp, #4]
 2230 001e 0099     		ldr	r1, [sp]
 2231 0020 FFF7FEFF 		bl	_ZN3r2p10StaticListINS_15RemotePublisherEE13unlink_unsafeERNS2_4LinkE
 2232 0024 0346     		mov	r3, r0
 2233 0026 002B     		cmp	r3, #0
 2234 0028 02D0     		beq	.L147
 2235              		.loc 13 419 0 is_stmt 0 discriminator 1
 2236 002a 0D48     		ldr	r0, .L152
 2237 002c FFF7FEFF 		bl	chDbgPanic
 2238              	.L147:
 2239              		.loc 13 421 0 is_stmt 1
 2240 0030 0198     		ldr	r0, [sp, #4]
 2241 0032 FFF7FEFF 		bl	_ZNK3r2p10StaticListINS_15RemotePublisherEE15is_empty_unsafeEv
 2242 0036 0346     		mov	r3, r0
 2243 0038 002B     		cmp	r3, #0
 2244 003a 03D0     		beq	.L148
 2245              		.loc 13 422 0
 2246 003c 019B     		ldr	r3, [sp, #4]
 2247 003e 009A     		ldr	r2, [sp]
 2248 0040 1A60     		str	r2, [r3]
 2249 0042 0AE0     		b	.L145
 2250              	.L148:
 2251              		.loc 13 424 0
 2252 0044 02E0     		b	.L150
 2253              	.L151:
 2254              		.loc 13 424 0 is_stmt 0 discriminator 2
 2255 0046 039B     		ldr	r3, [sp, #12]
 2256 0048 1B68     		ldr	r3, [r3]
 2257 004a 0393     		str	r3, [sp, #12]
 2258              	.L150:
 2259              		.loc 13 424 0 discriminator 1
 2260 004c 039B     		ldr	r3, [sp, #12]
 2261 004e 1B68     		ldr	r3, [r3]
 2262 0050 002B     		cmp	r3, #0
 2263 0052 F8D1     		bne	.L151
 2264              		.loc 13 425 0 is_stmt 1
 2265 0054 039B     		ldr	r3, [sp, #12]
 2266 0056 009A     		ldr	r2, [sp]
 2267 0058 1A60     		str	r2, [r3]
 2268              	.L145:
 2269              	.LBE27:
 2270              		.loc 13 427 0
 2271 005a 05B0     		add	sp, sp, #20
 2272              		.cfi_def_cfa_offset 4
 2273              		@ sp needed
 2274 005c 5DF804FB 		ldr	pc, [sp], #4
 2275              	.L153:
 2276              		.align	2
 2277              	.L152:
ARM GAS  /tmp/ccyYK6L9.s 			page 41


 2278 0060 00000000 		.word	.LC0
 2279              		.cfi_endproc
 2280              	.LFE743:
 2281              		.size	_ZN3r2p10StaticListINS_15RemotePublisherEE16link_tail_unsafeERNS2_4LinkE, .-_ZN3r2p10StaticL
 2282              		.section	.text._ZNK3r2p10StaticListINS_16RemoteSubscriberEE10find_firstEPFbRKS1_PKvES6_,"axG",%pro
 2283              		.align	2
 2284              		.weak	_ZNK3r2p10StaticListINS_16RemoteSubscriberEE10find_firstEPFbRKS1_PKvES6_
 2285              		.thumb
 2286              		.thumb_func
 2287              		.type	_ZNK3r2p10StaticListINS_16RemoteSubscriberEE10find_firstEPFbRKS1_PKvES6_, %function
 2288              	_ZNK3r2p10StaticListINS_16RemoteSubscriberEE10find_firstEPFbRKS1_PKvES6_:
 2289              	.LFB744:
 2290              		.loc 13 700 0
 2291              		.cfi_startproc
 2292              		@ args = 0, pretend = 0, frame = 24
 2293              		@ frame_needed = 0, uses_anonymous_args = 0
 2294 0000 00B5     		push	{lr}
 2295              		.cfi_def_cfa_offset 4
 2296              		.cfi_offset 14, -4
 2297 0002 87B0     		sub	sp, sp, #28
 2298              		.cfi_def_cfa_offset 32
 2299 0004 0390     		str	r0, [sp, #12]
 2300 0006 0291     		str	r1, [sp, #8]
 2301 0008 0192     		str	r2, [sp, #4]
 2302              	.LBB28:
 2303              		.loc 13 703 0
 2304 000a 019B     		ldr	r3, [sp, #4]
 2305 000c 002B     		cmp	r3, #0
 2306 000e 02D1     		bne	.L155
 2307              		.loc 13 703 0 is_stmt 0 discriminator 1
 2308 0010 1248     		ldr	r0, .L160
 2309 0012 FFF7FEFF 		bl	chDbgPanic
 2310              	.L155:
 2311              		.loc 13 705 0 is_stmt 1
 2312 0016 FFF7FEFF 		bl	_ZN3r2p7SysLock7acquireEv
 2313              	.LBB29:
 2314              		.loc 13 706 0
 2315 001a 039B     		ldr	r3, [sp, #12]
 2316 001c 1B68     		ldr	r3, [r3]
 2317 001e 0593     		str	r3, [sp, #20]
 2318 0020 12E0     		b	.L156
 2319              	.L159:
 2320              		.loc 13 707 0
 2321 0022 FFF7FEFF 		bl	_ZN3r2p7SysLock7releaseEv
 2322              		.loc 13 708 0
 2323 0026 059B     		ldr	r3, [sp, #20]
 2324 0028 5A68     		ldr	r2, [r3, #4]
 2325 002a 029B     		ldr	r3, [sp, #8]
 2326 002c 1046     		mov	r0, r2
 2327 002e 0199     		ldr	r1, [sp, #4]
 2328 0030 9847     		blx	r3
 2329 0032 0346     		mov	r3, r0
 2330 0034 002B     		cmp	r3, #0
 2331 0036 02D0     		beq	.L157
 2332              		.loc 13 709 0
 2333 0038 059B     		ldr	r3, [sp, #20]
 2334 003a 5B68     		ldr	r3, [r3, #4]
ARM GAS  /tmp/ccyYK6L9.s 			page 42


 2335 003c 0AE0     		b	.L158
 2336              	.L157:
 2337              		.loc 13 711 0 discriminator 2
 2338 003e FFF7FEFF 		bl	_ZN3r2p7SysLock7acquireEv
 2339              		.loc 13 706 0 discriminator 2
 2340 0042 059B     		ldr	r3, [sp, #20]
 2341 0044 1B68     		ldr	r3, [r3]
 2342 0046 0593     		str	r3, [sp, #20]
 2343              	.L156:
 2344              		.loc 13 706 0 is_stmt 0 discriminator 1
 2345 0048 059B     		ldr	r3, [sp, #20]
 2346 004a 002B     		cmp	r3, #0
 2347 004c E9D1     		bne	.L159
 2348              	.LBE29:
 2349              		.loc 13 713 0 is_stmt 1
 2350 004e FFF7FEFF 		bl	_ZN3r2p7SysLock7releaseEv
 2351              		.loc 13 714 0
 2352 0052 0023     		movs	r3, #0
 2353              	.L158:
 2354              	.LBE28:
 2355              		.loc 13 715 0
 2356 0054 1846     		mov	r0, r3
 2357 0056 07B0     		add	sp, sp, #28
 2358              		.cfi_def_cfa_offset 4
 2359              		@ sp needed
 2360 0058 5DF804FB 		ldr	pc, [sp], #4
 2361              	.L161:
 2362              		.align	2
 2363              	.L160:
 2364 005c 00000000 		.word	.LC0
 2365              		.cfi_endproc
 2366              	.LFE744:
 2367              		.size	_ZNK3r2p10StaticListINS_16RemoteSubscriberEE10find_firstEPFbRKS1_PKvES6_, .-_ZNK3r2p10Static
 2368              		.section	.text._ZN3r2p10StaticListINS_16RemoteSubscriberEE16link_tail_unsafeERNS2_4LinkE,"axG",%pr
 2369              		.align	2
 2370              		.weak	_ZN3r2p10StaticListINS_16RemoteSubscriberEE16link_tail_unsafeERNS2_4LinkE
 2371              		.thumb
 2372              		.thumb_func
 2373              		.type	_ZN3r2p10StaticListINS_16RemoteSubscriberEE16link_tail_unsafeERNS2_4LinkE, %function
 2374              	_ZN3r2p10StaticListINS_16RemoteSubscriberEE16link_tail_unsafeERNS2_4LinkE:
 2375              	.LFB745:
 2376              		.loc 13 415 0
 2377              		.cfi_startproc
 2378              		@ args = 0, pretend = 0, frame = 16
 2379              		@ frame_needed = 0, uses_anonymous_args = 0
 2380 0000 00B5     		push	{lr}
 2381              		.cfi_def_cfa_offset 4
 2382              		.cfi_offset 14, -4
 2383 0002 85B0     		sub	sp, sp, #20
 2384              		.cfi_def_cfa_offset 24
 2385 0004 0190     		str	r0, [sp, #4]
 2386 0006 0091     		str	r1, [sp]
 2387              	.LBB30:
 2388              		.loc 13 416 0
 2389 0008 019B     		ldr	r3, [sp, #4]
 2390 000a 1B68     		ldr	r3, [r3]
 2391 000c 0393     		str	r3, [sp, #12]
ARM GAS  /tmp/ccyYK6L9.s 			page 43


 2392              		.loc 13 418 0
 2393 000e 009B     		ldr	r3, [sp]
 2394 0010 1B68     		ldr	r3, [r3]
 2395 0012 002B     		cmp	r3, #0
 2396 0014 02D0     		beq	.L163
 2397              		.loc 13 418 0 is_stmt 0 discriminator 1
 2398 0016 1248     		ldr	r0, .L169
 2399 0018 FFF7FEFF 		bl	chDbgPanic
 2400              	.L163:
 2401              		.loc 13 419 0 is_stmt 1
 2402 001c 0198     		ldr	r0, [sp, #4]
 2403 001e 0099     		ldr	r1, [sp]
 2404 0020 FFF7FEFF 		bl	_ZN3r2p10StaticListINS_16RemoteSubscriberEE13unlink_unsafeERNS2_4LinkE
 2405 0024 0346     		mov	r3, r0
 2406 0026 002B     		cmp	r3, #0
 2407 0028 02D0     		beq	.L164
 2408              		.loc 13 419 0 is_stmt 0 discriminator 1
 2409 002a 0D48     		ldr	r0, .L169
 2410 002c FFF7FEFF 		bl	chDbgPanic
 2411              	.L164:
 2412              		.loc 13 421 0 is_stmt 1
 2413 0030 0198     		ldr	r0, [sp, #4]
 2414 0032 FFF7FEFF 		bl	_ZNK3r2p10StaticListINS_16RemoteSubscriberEE15is_empty_unsafeEv
 2415 0036 0346     		mov	r3, r0
 2416 0038 002B     		cmp	r3, #0
 2417 003a 03D0     		beq	.L165
 2418              		.loc 13 422 0
 2419 003c 019B     		ldr	r3, [sp, #4]
 2420 003e 009A     		ldr	r2, [sp]
 2421 0040 1A60     		str	r2, [r3]
 2422 0042 0AE0     		b	.L162
 2423              	.L165:
 2424              		.loc 13 424 0
 2425 0044 02E0     		b	.L167
 2426              	.L168:
 2427              		.loc 13 424 0 is_stmt 0 discriminator 2
 2428 0046 039B     		ldr	r3, [sp, #12]
 2429 0048 1B68     		ldr	r3, [r3]
 2430 004a 0393     		str	r3, [sp, #12]
 2431              	.L167:
 2432              		.loc 13 424 0 discriminator 1
 2433 004c 039B     		ldr	r3, [sp, #12]
 2434 004e 1B68     		ldr	r3, [r3]
 2435 0050 002B     		cmp	r3, #0
 2436 0052 F8D1     		bne	.L168
 2437              		.loc 13 425 0 is_stmt 1
 2438 0054 039B     		ldr	r3, [sp, #12]
 2439 0056 009A     		ldr	r2, [sp]
 2440 0058 1A60     		str	r2, [r3]
 2441              	.L162:
 2442              	.LBE30:
 2443              		.loc 13 427 0
 2444 005a 05B0     		add	sp, sp, #20
 2445              		.cfi_def_cfa_offset 4
 2446              		@ sp needed
 2447 005c 5DF804FB 		ldr	pc, [sp], #4
 2448              	.L170:
ARM GAS  /tmp/ccyYK6L9.s 			page 44


 2449              		.align	2
 2450              	.L169:
 2451 0060 00000000 		.word	.LC0
 2452              		.cfi_endproc
 2453              	.LFE745:
 2454              		.size	_ZN3r2p10StaticListINS_16RemoteSubscriberEE16link_tail_unsafeERNS2_4LinkE, .-_ZN3r2p10Static
 2455              		.section	.text._ZN3r2p10StaticListINS_15RemotePublisherEE13unlink_unsafeERNS2_4LinkE,"axG",%progbi
 2456              		.align	2
 2457              		.weak	_ZN3r2p10StaticListINS_15RemotePublisherEE13unlink_unsafeERNS2_4LinkE
 2458              		.thumb
 2459              		.thumb_func
 2460              		.type	_ZN3r2p10StaticListINS_15RemotePublisherEE13unlink_unsafeERNS2_4LinkE, %function
 2461              	_ZN3r2p10StaticListINS_15RemotePublisherEE13unlink_unsafeERNS2_4LinkE:
 2462              	.LFB746:
 2463              		.loc 13 526 0
 2464              		.cfi_startproc
 2465              		@ args = 0, pretend = 0, frame = 16
 2466              		@ frame_needed = 0, uses_anonymous_args = 0
 2467              		@ link register save eliminated.
 2468 0000 84B0     		sub	sp, sp, #16
 2469              		.cfi_def_cfa_offset 16
 2470 0002 0190     		str	r0, [sp, #4]
 2471 0004 0091     		str	r1, [sp]
 2472              	.LBB31:
 2473              	.LBB32:
 2474              		.loc 13 528 0
 2475 0006 019B     		ldr	r3, [sp, #4]
 2476 0008 1B68     		ldr	r3, [r3]
 2477 000a 0393     		str	r3, [sp, #12]
 2478 000c 0023     		movs	r3, #0
 2479 000e 0293     		str	r3, [sp, #8]
 2480 0010 19E0     		b	.L172
 2481              	.L177:
 2482              		.loc 13 531 0
 2483 0012 039A     		ldr	r2, [sp, #12]
 2484 0014 009B     		ldr	r3, [sp]
 2485 0016 9A42     		cmp	r2, r3
 2486 0018 10D1     		bne	.L173
 2487              		.loc 13 532 0
 2488 001a 029B     		ldr	r3, [sp, #8]
 2489 001c 002B     		cmp	r3, #0
 2490 001e 04D0     		beq	.L174
 2491              		.loc 13 532 0 is_stmt 0 discriminator 1
 2492 0020 039B     		ldr	r3, [sp, #12]
 2493 0022 1A68     		ldr	r2, [r3]
 2494 0024 029B     		ldr	r3, [sp, #8]
 2495 0026 1A60     		str	r2, [r3]
 2496 0028 03E0     		b	.L175
 2497              	.L174:
 2498              		.loc 13 533 0 is_stmt 1
 2499 002a 039B     		ldr	r3, [sp, #12]
 2500 002c 1A68     		ldr	r2, [r3]
 2501 002e 019B     		ldr	r3, [sp, #4]
 2502 0030 1A60     		str	r2, [r3]
 2503              	.L175:
 2504              		.loc 13 534 0
 2505 0032 039B     		ldr	r3, [sp, #12]
ARM GAS  /tmp/ccyYK6L9.s 			page 45


 2506 0034 0022     		movs	r2, #0
 2507 0036 1A60     		str	r2, [r3]
 2508              		.loc 13 535 0
 2509 0038 0123     		movs	r3, #1
 2510 003a 08E0     		b	.L176
 2511              	.L173:
 2512              		.loc 13 528 0 discriminator 2
 2513 003c 039B     		ldr	r3, [sp, #12]
 2514 003e 0293     		str	r3, [sp, #8]
 2515 0040 039B     		ldr	r3, [sp, #12]
 2516 0042 1B68     		ldr	r3, [r3]
 2517 0044 0393     		str	r3, [sp, #12]
 2518              	.L172:
 2519              		.loc 13 528 0 is_stmt 0 discriminator 1
 2520 0046 039B     		ldr	r3, [sp, #12]
 2521 0048 002B     		cmp	r3, #0
 2522 004a E2D1     		bne	.L177
 2523              	.LBE32:
 2524              		.loc 13 538 0 is_stmt 1
 2525 004c 0023     		movs	r3, #0
 2526              	.L176:
 2527              	.LBE31:
 2528              		.loc 13 539 0
 2529 004e 1846     		mov	r0, r3
 2530 0050 04B0     		add	sp, sp, #16
 2531              		.cfi_def_cfa_offset 0
 2532              		@ sp needed
 2533 0052 7047     		bx	lr
 2534              		.cfi_endproc
 2535              	.LFE746:
 2536              		.size	_ZN3r2p10StaticListINS_15RemotePublisherEE13unlink_unsafeERNS2_4LinkE, .-_ZN3r2p10StaticList
 2537              		.section	.text._ZNK3r2p10StaticListINS_15RemotePublisherEE15is_empty_unsafeEv,"axG",%progbits,_ZNK
 2538              		.align	2
 2539              		.weak	_ZNK3r2p10StaticListINS_15RemotePublisherEE15is_empty_unsafeEv
 2540              		.thumb
 2541              		.thumb_func
 2542              		.type	_ZNK3r2p10StaticListINS_15RemotePublisherEE15is_empty_unsafeEv, %function
 2543              	_ZNK3r2p10StaticListINS_15RemotePublisherEE15is_empty_unsafeEv:
 2544              	.LFB747:
 2545              		.loc 13 401 0
 2546              		.cfi_startproc
 2547              		@ args = 0, pretend = 0, frame = 8
 2548              		@ frame_needed = 0, uses_anonymous_args = 0
 2549              		@ link register save eliminated.
 2550 0000 82B0     		sub	sp, sp, #8
 2551              		.cfi_def_cfa_offset 8
 2552 0002 0190     		str	r0, [sp, #4]
 2553              		.loc 13 402 0
 2554 0004 019B     		ldr	r3, [sp, #4]
 2555 0006 1B68     		ldr	r3, [r3]
 2556 0008 002B     		cmp	r3, #0
 2557 000a 0CBF     		ite	eq
 2558 000c 0123     		moveq	r3, #1
 2559 000e 0023     		movne	r3, #0
 2560 0010 DBB2     		uxtb	r3, r3
 2561              		.loc 13 403 0
 2562 0012 1846     		mov	r0, r3
ARM GAS  /tmp/ccyYK6L9.s 			page 46


 2563 0014 02B0     		add	sp, sp, #8
 2564              		.cfi_def_cfa_offset 0
 2565              		@ sp needed
 2566 0016 7047     		bx	lr
 2567              		.cfi_endproc
 2568              	.LFE747:
 2569              		.size	_ZNK3r2p10StaticListINS_15RemotePublisherEE15is_empty_unsafeEv, .-_ZNK3r2p10StaticListINS_15
 2570              		.section	.text._ZN3r2p10StaticListINS_16RemoteSubscriberEE13unlink_unsafeERNS2_4LinkE,"axG",%progb
 2571              		.align	2
 2572              		.weak	_ZN3r2p10StaticListINS_16RemoteSubscriberEE13unlink_unsafeERNS2_4LinkE
 2573              		.thumb
 2574              		.thumb_func
 2575              		.type	_ZN3r2p10StaticListINS_16RemoteSubscriberEE13unlink_unsafeERNS2_4LinkE, %function
 2576              	_ZN3r2p10StaticListINS_16RemoteSubscriberEE13unlink_unsafeERNS2_4LinkE:
 2577              	.LFB748:
 2578              		.loc 13 526 0
 2579              		.cfi_startproc
 2580              		@ args = 0, pretend = 0, frame = 16
 2581              		@ frame_needed = 0, uses_anonymous_args = 0
 2582              		@ link register save eliminated.
 2583 0000 84B0     		sub	sp, sp, #16
 2584              		.cfi_def_cfa_offset 16
 2585 0002 0190     		str	r0, [sp, #4]
 2586 0004 0091     		str	r1, [sp]
 2587              	.LBB33:
 2588              	.LBB34:
 2589              		.loc 13 528 0
 2590 0006 019B     		ldr	r3, [sp, #4]
 2591 0008 1B68     		ldr	r3, [r3]
 2592 000a 0393     		str	r3, [sp, #12]
 2593 000c 0023     		movs	r3, #0
 2594 000e 0293     		str	r3, [sp, #8]
 2595 0010 19E0     		b	.L181
 2596              	.L186:
 2597              		.loc 13 531 0
 2598 0012 039A     		ldr	r2, [sp, #12]
 2599 0014 009B     		ldr	r3, [sp]
 2600 0016 9A42     		cmp	r2, r3
 2601 0018 10D1     		bne	.L182
 2602              		.loc 13 532 0
 2603 001a 029B     		ldr	r3, [sp, #8]
 2604 001c 002B     		cmp	r3, #0
 2605 001e 04D0     		beq	.L183
 2606              		.loc 13 532 0 is_stmt 0 discriminator 1
 2607 0020 039B     		ldr	r3, [sp, #12]
 2608 0022 1A68     		ldr	r2, [r3]
 2609 0024 029B     		ldr	r3, [sp, #8]
 2610 0026 1A60     		str	r2, [r3]
 2611 0028 03E0     		b	.L184
 2612              	.L183:
 2613              		.loc 13 533 0 is_stmt 1
 2614 002a 039B     		ldr	r3, [sp, #12]
 2615 002c 1A68     		ldr	r2, [r3]
 2616 002e 019B     		ldr	r3, [sp, #4]
 2617 0030 1A60     		str	r2, [r3]
 2618              	.L184:
 2619              		.loc 13 534 0
ARM GAS  /tmp/ccyYK6L9.s 			page 47


 2620 0032 039B     		ldr	r3, [sp, #12]
 2621 0034 0022     		movs	r2, #0
 2622 0036 1A60     		str	r2, [r3]
 2623              		.loc 13 535 0
 2624 0038 0123     		movs	r3, #1
 2625 003a 08E0     		b	.L185
 2626              	.L182:
 2627              		.loc 13 528 0 discriminator 2
 2628 003c 039B     		ldr	r3, [sp, #12]
 2629 003e 0293     		str	r3, [sp, #8]
 2630 0040 039B     		ldr	r3, [sp, #12]
 2631 0042 1B68     		ldr	r3, [r3]
 2632 0044 0393     		str	r3, [sp, #12]
 2633              	.L181:
 2634              		.loc 13 528 0 is_stmt 0 discriminator 1
 2635 0046 039B     		ldr	r3, [sp, #12]
 2636 0048 002B     		cmp	r3, #0
 2637 004a E2D1     		bne	.L186
 2638              	.LBE34:
 2639              		.loc 13 538 0 is_stmt 1
 2640 004c 0023     		movs	r3, #0
 2641              	.L185:
 2642              	.LBE33:
 2643              		.loc 13 539 0
 2644 004e 1846     		mov	r0, r3
 2645 0050 04B0     		add	sp, sp, #16
 2646              		.cfi_def_cfa_offset 0
 2647              		@ sp needed
 2648 0052 7047     		bx	lr
 2649              		.cfi_endproc
 2650              	.LFE748:
 2651              		.size	_ZN3r2p10StaticListINS_16RemoteSubscriberEE13unlink_unsafeERNS2_4LinkE, .-_ZN3r2p10StaticLis
 2652              		.global	_ZTVN3r2p9TransportE
 2653              		.section	.rodata
 2654 000d 000000   		.align	3
 2655              		.type	_ZTVN3r2p9TransportE, %object
 2656              		.size	_ZTVN3r2p9TransportE, 28
 2657              	_ZTVN3r2p9TransportE:
 2658 0010 00000000 		.word	0
 2659 0014 00000000 		.word	0
 2660 0018 00000000 		.word	_ZN3r2p9Transport15fill_raw_paramsERKNS_5TopicEPh
 2661 001c 00000000 		.word	__cxa_pure_virtual
 2662 0020 00000000 		.word	__cxa_pure_virtual
 2663 0024 00000000 		.word	__cxa_pure_virtual
 2664 0028 00000000 		.word	__cxa_pure_virtual
 2665 002c 00000000 		.text
 2666              	.Letext0:
 2667              		.file 15 "/opt/R2P/tools/gcc-arm-none-eabi-4_9-2014q4/lib/gcc/arm-none-eabi/4.9.3/include/stddef.h
 2668              		.file 16 "/opt/R2P/tools/gcc-arm-none-eabi-4_9-2014q4/arm-none-eabi/include/machine/_default_types
 2669              		.file 17 "/opt/R2P/tools/gcc-arm-none-eabi-4_9-2014q4/arm-none-eabi/include/c++/4.9.3/cstring"
 2670              		.file 18 "/opt/R2P/tools/gcc-arm-none-eabi-4_9-2014q4/arm-none-eabi/include/string.h"
 2671              		.file 19 "<built-in>"
 2672              		.file 20 "/opt/R2P/core/Middleware/include/r2p/Message.hpp"
 2673              		.file 21 "/opt/R2P/core/Middleware/include/r2p/ArrayQueue.hpp"
 2674              		.file 22 "/opt/R2P/core/Middleware/include/r2p/Transport.hpp"
 2675              		.file 23 "/opt/R2P/tools/gcc-arm-none-eabi-4_9-2014q4/arm-none-eabi/include/stdint.h"
 2676              		.file 24 "/opt/R2P/core/ChibiOS_2.6.5/os/ports/GCC/ARMCMx/chtypes.h"
ARM GAS  /tmp/ccyYK6L9.s 			page 48


 2677              		.file 25 "/opt/R2P/core/ChibiOS_2.6.5/os/kernel/include/chlists.h"
 2678              		.file 26 "/opt/R2P/core/ChibiOS_2.6.5/os/kernel/include/chthreads.h"
 2679              		.file 27 "/opt/R2P/core/ChibiOS_2.6.5/os/ports/GCC/ARMCMx/chcore_v7m.h"
 2680              		.file 28 "/opt/R2P/core/ChibiOS_2.6.5/os/kernel/include/chschd.h"
 2681              		.file 29 "/opt/R2P/core/ChibiOS_2.6.5/os/kernel/include/chmtx.h"
 2682              		.file 30 "/opt/R2P/core/ChibiOS_2.6.5/os/kernel/include/chmemcore.h"
 2683              		.file 31 "/opt/R2P/core/ChibiOS_2.6.5/os/kernel/include/chmempools.h"
 2684              		.file 32 "/opt/R2P/core/Middleware/port/chibios/include/r2p/impl/Flasher_.hpp"
 2685              		.file 33 "/opt/R2P/core/ChibiOS_2.6.5/os/ports/common/ARMCMx/CMSIS/include/core_cm4.h"