ARM GAS  /tmp/cceJrrFk.s 			page 1


   1              		.syntax unified
   2              		.cpu cortex-m4
   3              		.fpu softvfp
   4              		.eabi_attribute 20, 1
   5              		.eabi_attribute 21, 1
   6              		.eabi_attribute 23, 3
   7              		.eabi_attribute 24, 1
   8              		.eabi_attribute 25, 1
   9              		.eabi_attribute 26, 1
  10              		.eabi_attribute 30, 6
  11              		.eabi_attribute 34, 1
  12              		.eabi_attribute 18, 4
  13              		.thumb
  14              		.file	"usb.c"
  15              		.text
  16              	.Ltext0:
  17              		.cfi_sections	.debug_frame
  18              		.section	.rodata
  19              		.align	2
  20              		.type	zero_status, %object
  21              		.size	zero_status, 2
  22              	zero_status:
  23 0000 0000     		.space	2
  24 0002 0000     		.align	2
  25              		.type	active_status, %object
  26              		.size	active_status, 2
  27              	active_status:
  28 0004 0000     		.space	2
  29 0006 0000     		.align	2
  30              		.type	halted_status, %object
  31              		.size	halted_status, 2
  32              	halted_status:
  33 0008 01       		.byte	1
  34 0009 00       		.byte	0
  35              		.text
  36              		.align	2
  37              		.thumb
  38              		.thumb_func
  39              		.type	set_address, %function
  40              	set_address:
  41              	.LFB118:
  42              		.file 1 "/opt/R2P/core/ChibiOS_2.6.5/os/hal/src/usb.c"
  43              		.loc 1 69 0
  44              		.cfi_startproc
  45              		@ args = 0, pretend = 0, frame = 8
  46              		@ frame_needed = 0, uses_anonymous_args = 0
  47 0000 00B5     		push	{lr}
  48              		.cfi_def_cfa_offset 4
  49              		.cfi_offset 14, -4
  50 0002 83B0     		sub	sp, sp, #12
  51              		.cfi_def_cfa_offset 16
  52 0004 0190     		str	r0, [sp, #4]
  53              		.loc 1 71 0
  54 0006 019B     		ldr	r3, [sp, #4]
  55 0008 93F87620 		ldrb	r2, [r3, #118]	@ zero_extendqisi2
  56 000c 019B     		ldr	r3, [sp, #4]
  57 000e 83F87E20 		strb	r2, [r3, #126]
ARM GAS  /tmp/cceJrrFk.s 			page 2


  58              		.loc 1 72 0
  59 0012 0198     		ldr	r0, [sp, #4]
  60 0014 FFF7FEFF 		bl	usb_lld_set_address
  61              		.loc 1 73 0
  62 0018 019B     		ldr	r3, [sp, #4]
  63 001a 5B68     		ldr	r3, [r3, #4]
  64 001c 1B68     		ldr	r3, [r3]
  65 001e 002B     		cmp	r3, #0
  66 0020 05D0     		beq	.L2
  67              		.loc 1 73 0 is_stmt 0 discriminator 1
  68 0022 019B     		ldr	r3, [sp, #4]
  69 0024 5B68     		ldr	r3, [r3, #4]
  70 0026 1B68     		ldr	r3, [r3]
  71 0028 0198     		ldr	r0, [sp, #4]
  72 002a 0121     		movs	r1, #1
  73 002c 9847     		blx	r3
  74              	.L2:
  75              		.loc 1 74 0 is_stmt 1
  76 002e 019B     		ldr	r3, [sp, #4]
  77 0030 0322     		movs	r2, #3
  78 0032 1A70     		strb	r2, [r3]
  79              		.loc 1 75 0
  80 0034 03B0     		add	sp, sp, #12
  81              		.cfi_def_cfa_offset 4
  82              		@ sp needed
  83 0036 5DF804FB 		ldr	pc, [sp], #4
  84              		.cfi_endproc
  85              	.LFE118:
  86              		.size	set_address, .-set_address
  87 003a 00BF     		.align	2
  88              		.thumb
  89              		.thumb_func
  90              		.type	default_handler, %function
  91              	default_handler:
  92              	.LFB119:
  93              		.loc 1 89 0
  94              		.cfi_startproc
  95              		@ args = 0, pretend = 0, frame = 16
  96              		@ frame_needed = 0, uses_anonymous_args = 0
  97 003c 10B5     		push	{r4, lr}
  98              		.cfi_def_cfa_offset 8
  99              		.cfi_offset 4, -8
 100              		.cfi_offset 14, -4
 101 003e 84B0     		sub	sp, sp, #16
 102              		.cfi_def_cfa_offset 24
 103 0040 0190     		str	r0, [sp, #4]
 104              		.loc 1 93 0
 105 0042 019B     		ldr	r3, [sp, #4]
 106 0044 93F87430 		ldrb	r3, [r3, #116]	@ zero_extendqisi2
 107 0048 03F07F02 		and	r2, r3, #127
 108              		.loc 1 95 0
 109 004c 019B     		ldr	r3, [sp, #4]
 110 004e 93F87530 		ldrb	r3, [r3, #117]	@ zero_extendqisi2
 111 0052 1B02     		lsls	r3, r3, #8
 112              		.loc 1 94 0
 113 0054 1343     		orrs	r3, r3, r2
 114              		.loc 1 93 0
ARM GAS  /tmp/cceJrrFk.s 			page 3


 115 0056 B3F5407F 		cmp	r3, #768
 116 005a 59D0     		beq	.L5
 117 005c B3F5407F 		cmp	r3, #768
 118 0060 12DC     		bgt	.L6
 119 0062 022B     		cmp	r3, #2
 120 0064 00F0E480 		beq	.L7
 121 0068 022B     		cmp	r3, #2
 122 006a 05DC     		bgt	.L8
 123 006c 002B     		cmp	r3, #0
 124 006e 27D0     		beq	.L9
 125 0070 012B     		cmp	r3, #1
 126 0072 00F0D280 		beq	.L10
 127 0076 9CE1     		b	.L4
 128              	.L8:
 129 0078 B3F5807F 		cmp	r3, #256
 130 007c 2DD0     		beq	.L11
 131 007e B3F5817F 		cmp	r3, #258
 132 0082 00F02C81 		beq	.L12
 133 0086 94E1     		b	.L4
 134              	.L6:
 135 0088 B3F5C06F 		cmp	r3, #1536
 136 008c 66D0     		beq	.L13
 137 008e B3F5C06F 		cmp	r3, #1536
 138 0092 08DC     		bgt	.L14
 139 0094 40F20232 		movw	r2, #770
 140 0098 9342     		cmp	r3, r2
 141 009a 00F05581 		beq	.L15
 142 009e B3F5A06F 		cmp	r3, #1280
 143 00a2 50D0     		beq	.L16
 144 00a4 85E1     		b	.L4
 145              	.L14:
 146 00a6 B3F5106F 		cmp	r3, #2304
 147 00aa 00F08E80 		beq	.L17
 148 00ae 40F60242 		movw	r2, #3074
 149 00b2 9342     		cmp	r3, r2
 150 00b4 00F0B180 		beq	.L10
 151 00b8 B3F5006F 		cmp	r3, #2048
 152 00bc 78D0     		beq	.L18
 153 00be 78E1     		b	.L4
 154              	.L9:
 155              		.loc 1 98 0
 156 00c0 019B     		ldr	r3, [sp, #4]
 157 00c2 03F17C02 		add	r2, r3, #124
 158 00c6 019B     		ldr	r3, [sp, #4]
 159 00c8 9A66     		str	r2, [r3, #104]
 160 00ca 019B     		ldr	r3, [sp, #4]
 161 00cc 0222     		movs	r2, #2
 162 00ce DA66     		str	r2, [r3, #108]
 163 00d0 019B     		ldr	r3, [sp, #4]
 164 00d2 0022     		movs	r2, #0
 165 00d4 1A67     		str	r2, [r3, #112]
 166              		.loc 1 99 0
 167 00d6 0123     		movs	r3, #1
 168 00d8 6CE1     		b	.L19
 169              	.L11:
 170              		.loc 1 103 0
 171 00da 019B     		ldr	r3, [sp, #4]
ARM GAS  /tmp/cceJrrFk.s 			page 4


 172 00dc 93F87630 		ldrb	r3, [r3, #118]	@ zero_extendqisi2
 173 00e0 012B     		cmp	r3, #1
 174 00e2 13D1     		bne	.L20
 175              		.loc 1 104 0
 176 00e4 019B     		ldr	r3, [sp, #4]
 177 00e6 B3F87C30 		ldrh	r3, [r3, #124]
 178 00ea 23F00203 		bic	r3, r3, #2
 179 00ee 9AB2     		uxth	r2, r3
 180 00f0 019B     		ldr	r3, [sp, #4]
 181 00f2 A3F87C20 		strh	r2, [r3, #124]	@ movhi
 182              		.loc 1 105 0
 183 00f6 019B     		ldr	r3, [sp, #4]
 184 00f8 0022     		movs	r2, #0
 185 00fa 9A66     		str	r2, [r3, #104]
 186 00fc 019B     		ldr	r3, [sp, #4]
 187 00fe 0022     		movs	r2, #0
 188 0100 DA66     		str	r2, [r3, #108]
 189 0102 019B     		ldr	r3, [sp, #4]
 190 0104 0022     		movs	r2, #0
 191 0106 1A67     		str	r2, [r3, #112]
 192              		.loc 1 106 0
 193 0108 0123     		movs	r3, #1
 194 010a 53E1     		b	.L19
 195              	.L20:
 196              		.loc 1 108 0
 197 010c 0023     		movs	r3, #0
 198 010e 51E1     		b	.L19
 199              	.L5:
 200              		.loc 1 112 0
 201 0110 019B     		ldr	r3, [sp, #4]
 202 0112 93F87630 		ldrb	r3, [r3, #118]	@ zero_extendqisi2
 203 0116 012B     		cmp	r3, #1
 204 0118 13D1     		bne	.L21
 205              		.loc 1 113 0
 206 011a 019B     		ldr	r3, [sp, #4]
 207 011c B3F87C30 		ldrh	r3, [r3, #124]
 208 0120 43F00203 		orr	r3, r3, #2
 209 0124 9AB2     		uxth	r2, r3
 210 0126 019B     		ldr	r3, [sp, #4]
 211 0128 A3F87C20 		strh	r2, [r3, #124]	@ movhi
 212              		.loc 1 114 0
 213 012c 019B     		ldr	r3, [sp, #4]
 214 012e 0022     		movs	r2, #0
 215 0130 9A66     		str	r2, [r3, #104]
 216 0132 019B     		ldr	r3, [sp, #4]
 217 0134 0022     		movs	r2, #0
 218 0136 DA66     		str	r2, [r3, #108]
 219 0138 019B     		ldr	r3, [sp, #4]
 220 013a 0022     		movs	r2, #0
 221 013c 1A67     		str	r2, [r3, #112]
 222              		.loc 1 115 0
 223 013e 0123     		movs	r3, #1
 224 0140 38E1     		b	.L19
 225              	.L21:
 226              		.loc 1 117 0
 227 0142 0023     		movs	r3, #0
 228 0144 36E1     		b	.L19
ARM GAS  /tmp/cceJrrFk.s 			page 5


 229              	.L16:
 230              		.loc 1 128 0
 231 0146 019B     		ldr	r3, [sp, #4]
 232 0148 0022     		movs	r2, #0
 233 014a 9A66     		str	r2, [r3, #104]
 234 014c 019B     		ldr	r3, [sp, #4]
 235 014e 0022     		movs	r2, #0
 236 0150 DA66     		str	r2, [r3, #108]
 237 0152 019B     		ldr	r3, [sp, #4]
 238 0154 994A     		ldr	r2, .L41
 239 0156 1A67     		str	r2, [r3, #112]
 240              		.loc 1 130 0
 241 0158 0123     		movs	r3, #1
 242 015a 2BE1     		b	.L19
 243              	.L13:
 244              		.loc 1 133 0
 245 015c 019B     		ldr	r3, [sp, #4]
 246 015e 5B68     		ldr	r3, [r3, #4]
 247 0160 5C68     		ldr	r4, [r3, #4]
 248 0162 019B     		ldr	r3, [sp, #4]
 249 0164 93F87710 		ldrb	r1, [r3, #119]	@ zero_extendqisi2
 250 0168 019B     		ldr	r3, [sp, #4]
 251 016a 93F87620 		ldrb	r2, [r3, #118]	@ zero_extendqisi2
 252              		.loc 1 135 0
 253 016e 019B     		ldr	r3, [sp, #4]
 254 0170 93F87830 		ldrb	r3, [r3, #120]	@ zero_extendqisi2
 255              		.loc 1 133 0
 256 0174 98B2     		uxth	r0, r3
 257              		.loc 1 135 0
 258 0176 019B     		ldr	r3, [sp, #4]
 259 0178 93F87930 		ldrb	r3, [r3, #121]	@ zero_extendqisi2
 260 017c 1B02     		lsls	r3, r3, #8
 261              		.loc 1 133 0
 262 017e 9BB2     		uxth	r3, r3
 263 0180 0343     		orrs	r3, r3, r0
 264 0182 9BB2     		uxth	r3, r3
 265 0184 9BB2     		uxth	r3, r3
 266 0186 0198     		ldr	r0, [sp, #4]
 267 0188 A047     		blx	r4
 268 018a 0390     		str	r0, [sp, #12]
 269              		.loc 1 136 0
 270 018c 039B     		ldr	r3, [sp, #12]
 271 018e 002B     		cmp	r3, #0
 272 0190 01D1     		bne	.L22
 273              		.loc 1 137 0
 274 0192 0023     		movs	r3, #0
 275 0194 0EE1     		b	.L19
 276              	.L22:
 277              		.loc 1 138 0
 278 0196 039B     		ldr	r3, [sp, #12]
 279 0198 5A68     		ldr	r2, [r3, #4]
 280 019a 019B     		ldr	r3, [sp, #4]
 281 019c 9A66     		str	r2, [r3, #104]
 282 019e 039B     		ldr	r3, [sp, #12]
 283 01a0 1A68     		ldr	r2, [r3]
 284 01a2 019B     		ldr	r3, [sp, #4]
 285 01a4 DA66     		str	r2, [r3, #108]
ARM GAS  /tmp/cceJrrFk.s 			page 6


 286 01a6 019B     		ldr	r3, [sp, #4]
 287 01a8 0022     		movs	r2, #0
 288 01aa 1A67     		str	r2, [r3, #112]
 289              		.loc 1 139 0
 290 01ac 0123     		movs	r3, #1
 291 01ae 01E1     		b	.L19
 292              	.L18:
 293              		.loc 1 142 0
 294 01b0 019B     		ldr	r3, [sp, #4]
 295 01b2 03F17F02 		add	r2, r3, #127
 296 01b6 019B     		ldr	r3, [sp, #4]
 297 01b8 9A66     		str	r2, [r3, #104]
 298 01ba 019B     		ldr	r3, [sp, #4]
 299 01bc 0122     		movs	r2, #1
 300 01be DA66     		str	r2, [r3, #108]
 301 01c0 019B     		ldr	r3, [sp, #4]
 302 01c2 0022     		movs	r2, #0
 303 01c4 1A67     		str	r2, [r3, #112]
 304              		.loc 1 143 0
 305 01c6 0123     		movs	r3, #1
 306 01c8 F4E0     		b	.L19
 307              	.L17:
 308              		.loc 1 146 0
 309 01ca 019B     		ldr	r3, [sp, #4]
 310 01cc 93F87620 		ldrb	r2, [r3, #118]	@ zero_extendqisi2
 311 01d0 019B     		ldr	r3, [sp, #4]
 312 01d2 83F87F20 		strb	r2, [r3, #127]
 313              		.loc 1 147 0
 314 01d6 019B     		ldr	r3, [sp, #4]
 315 01d8 93F87F30 		ldrb	r3, [r3, #127]	@ zero_extendqisi2
 316 01dc 002B     		cmp	r3, #0
 317 01de 03D1     		bne	.L23
 318              		.loc 1 148 0
 319 01e0 019B     		ldr	r3, [sp, #4]
 320 01e2 0322     		movs	r2, #3
 321 01e4 1A70     		strb	r2, [r3]
 322 01e6 02E0     		b	.L24
 323              	.L23:
 324              		.loc 1 150 0
 325 01e8 019B     		ldr	r3, [sp, #4]
 326 01ea 0422     		movs	r2, #4
 327 01ec 1A70     		strb	r2, [r3]
 328              	.L24:
 329              		.loc 1 151 0
 330 01ee 019B     		ldr	r3, [sp, #4]
 331 01f0 5B68     		ldr	r3, [r3, #4]
 332 01f2 1B68     		ldr	r3, [r3]
 333 01f4 002B     		cmp	r3, #0
 334 01f6 05D0     		beq	.L25
 335              		.loc 1 151 0 is_stmt 0 discriminator 1
 336 01f8 019B     		ldr	r3, [sp, #4]
 337 01fa 5B68     		ldr	r3, [r3, #4]
 338 01fc 1B68     		ldr	r3, [r3]
 339 01fe 0198     		ldr	r0, [sp, #4]
 340 0200 0221     		movs	r1, #2
 341 0202 9847     		blx	r3
 342              	.L25:
ARM GAS  /tmp/cceJrrFk.s 			page 7


 343              		.loc 1 152 0 is_stmt 1
 344 0204 019B     		ldr	r3, [sp, #4]
 345 0206 0022     		movs	r2, #0
 346 0208 9A66     		str	r2, [r3, #104]
 347 020a 019B     		ldr	r3, [sp, #4]
 348 020c 0022     		movs	r2, #0
 349 020e DA66     		str	r2, [r3, #108]
 350 0210 019B     		ldr	r3, [sp, #4]
 351 0212 0022     		movs	r2, #0
 352 0214 1A67     		str	r2, [r3, #112]
 353              		.loc 1 153 0
 354 0216 0123     		movs	r3, #1
 355 0218 CCE0     		b	.L19
 356              	.L10:
 357              		.loc 1 158 0
 358 021a 019B     		ldr	r3, [sp, #4]
 359 021c 684A     		ldr	r2, .L41+4
 360 021e 9A66     		str	r2, [r3, #104]
 361 0220 019B     		ldr	r3, [sp, #4]
 362 0222 0222     		movs	r2, #2
 363 0224 DA66     		str	r2, [r3, #108]
 364 0226 019B     		ldr	r3, [sp, #4]
 365 0228 0022     		movs	r2, #0
 366 022a 1A67     		str	r2, [r3, #112]
 367              		.loc 1 159 0
 368 022c 0123     		movs	r3, #1
 369 022e C1E0     		b	.L19
 370              	.L7:
 371              		.loc 1 162 0
 372 0230 019B     		ldr	r3, [sp, #4]
 373 0232 93F87830 		ldrb	r3, [r3, #120]	@ zero_extendqisi2
 374 0236 DBB2     		uxtb	r3, r3
 375 0238 5BB2     		sxtb	r3, r3
 376 023a 002B     		cmp	r3, #0
 377 023c 27DA     		bge	.L26
 378              		.loc 1 163 0
 379 023e 019B     		ldr	r3, [sp, #4]
 380 0240 93F87830 		ldrb	r3, [r3, #120]	@ zero_extendqisi2
 381 0244 03F00F03 		and	r3, r3, #15
 382 0248 DBB2     		uxtb	r3, r3
 383 024a 0198     		ldr	r0, [sp, #4]
 384 024c 1946     		mov	r1, r3
 385 024e FFF7FEFF 		bl	usb_lld_get_status_in
 386 0252 0346     		mov	r3, r0
 387 0254 012B     		cmp	r3, #1
 388 0256 02D0     		beq	.L28
 389 0258 022B     		cmp	r3, #2
 390 025a 0BD0     		beq	.L29
 391 025c 15E0     		b	.L39
 392              	.L28:
 393              		.loc 1 165 0
 394 025e 019B     		ldr	r3, [sp, #4]
 395 0260 584A     		ldr	r2, .L41+8
 396 0262 9A66     		str	r2, [r3, #104]
 397 0264 019B     		ldr	r3, [sp, #4]
 398 0266 0222     		movs	r2, #2
 399 0268 DA66     		str	r2, [r3, #108]
ARM GAS  /tmp/cceJrrFk.s 			page 8


 400 026a 019B     		ldr	r3, [sp, #4]
 401 026c 0022     		movs	r2, #0
 402 026e 1A67     		str	r2, [r3, #112]
 403              		.loc 1 166 0
 404 0270 0123     		movs	r3, #1
 405 0272 9FE0     		b	.L19
 406              	.L29:
 407              		.loc 1 168 0
 408 0274 019B     		ldr	r3, [sp, #4]
 409 0276 544A     		ldr	r2, .L41+12
 410 0278 9A66     		str	r2, [r3, #104]
 411 027a 019B     		ldr	r3, [sp, #4]
 412 027c 0222     		movs	r2, #2
 413 027e DA66     		str	r2, [r3, #108]
 414 0280 019B     		ldr	r3, [sp, #4]
 415 0282 0022     		movs	r2, #0
 416 0284 1A67     		str	r2, [r3, #112]
 417              		.loc 1 169 0
 418 0286 0123     		movs	r3, #1
 419 0288 94E0     		b	.L19
 420              	.L39:
 421              		.loc 1 171 0
 422 028a 0023     		movs	r3, #0
 423 028c 92E0     		b	.L19
 424              	.L26:
 425              		.loc 1 175 0
 426 028e 019B     		ldr	r3, [sp, #4]
 427 0290 93F87830 		ldrb	r3, [r3, #120]	@ zero_extendqisi2
 428 0294 03F00F03 		and	r3, r3, #15
 429 0298 DBB2     		uxtb	r3, r3
 430 029a 0198     		ldr	r0, [sp, #4]
 431 029c 1946     		mov	r1, r3
 432 029e FFF7FEFF 		bl	usb_lld_get_status_out
 433 02a2 0346     		mov	r3, r0
 434 02a4 012B     		cmp	r3, #1
 435 02a6 02D0     		beq	.L31
 436 02a8 022B     		cmp	r3, #2
 437 02aa 0BD0     		beq	.L32
 438 02ac 15E0     		b	.L40
 439              	.L31:
 440              		.loc 1 177 0
 441 02ae 019B     		ldr	r3, [sp, #4]
 442 02b0 444A     		ldr	r2, .L41+8
 443 02b2 9A66     		str	r2, [r3, #104]
 444 02b4 019B     		ldr	r3, [sp, #4]
 445 02b6 0222     		movs	r2, #2
 446 02b8 DA66     		str	r2, [r3, #108]
 447 02ba 019B     		ldr	r3, [sp, #4]
 448 02bc 0022     		movs	r2, #0
 449 02be 1A67     		str	r2, [r3, #112]
 450              		.loc 1 178 0
 451 02c0 0123     		movs	r3, #1
 452 02c2 77E0     		b	.L19
 453              	.L32:
 454              		.loc 1 180 0
 455 02c4 019B     		ldr	r3, [sp, #4]
 456 02c6 404A     		ldr	r2, .L41+12
ARM GAS  /tmp/cceJrrFk.s 			page 9


 457 02c8 9A66     		str	r2, [r3, #104]
 458 02ca 019B     		ldr	r3, [sp, #4]
 459 02cc 0222     		movs	r2, #2
 460 02ce DA66     		str	r2, [r3, #108]
 461 02d0 019B     		ldr	r3, [sp, #4]
 462 02d2 0022     		movs	r2, #0
 463 02d4 1A67     		str	r2, [r3, #112]
 464              		.loc 1 181 0
 465 02d6 0123     		movs	r3, #1
 466 02d8 6CE0     		b	.L19
 467              	.L40:
 468              		.loc 1 183 0
 469 02da 0023     		movs	r3, #0
 470 02dc 6AE0     		b	.L19
 471              	.L12:
 472              		.loc 1 188 0
 473 02de 019B     		ldr	r3, [sp, #4]
 474 02e0 93F87630 		ldrb	r3, [r3, #118]	@ zero_extendqisi2
 475 02e4 002B     		cmp	r3, #0
 476 02e6 01D0     		beq	.L33
 477              		.loc 1 189 0
 478 02e8 0023     		movs	r3, #0
 479 02ea 63E0     		b	.L19
 480              	.L33:
 481              		.loc 1 191 0
 482 02ec 019B     		ldr	r3, [sp, #4]
 483 02ee 93F87830 		ldrb	r3, [r3, #120]	@ zero_extendqisi2
 484 02f2 03F00F03 		and	r3, r3, #15
 485 02f6 002B     		cmp	r3, #0
 486 02f8 1BDD     		ble	.L34
 487              		.loc 1 192 0
 488 02fa 019B     		ldr	r3, [sp, #4]
 489 02fc 93F87830 		ldrb	r3, [r3, #120]	@ zero_extendqisi2
 490 0300 DBB2     		uxtb	r3, r3
 491 0302 5BB2     		sxtb	r3, r3
 492 0304 002B     		cmp	r3, #0
 493 0306 0ADA     		bge	.L35
 494              		.loc 1 193 0
 495 0308 019B     		ldr	r3, [sp, #4]
 496 030a 93F87830 		ldrb	r3, [r3, #120]	@ zero_extendqisi2
 497 030e 03F00F03 		and	r3, r3, #15
 498 0312 DBB2     		uxtb	r3, r3
 499 0314 0198     		ldr	r0, [sp, #4]
 500 0316 1946     		mov	r1, r3
 501 0318 FFF7FEFF 		bl	usb_lld_clear_in
 502 031c 09E0     		b	.L34
 503              	.L35:
 504              		.loc 1 195 0
 505 031e 019B     		ldr	r3, [sp, #4]
 506 0320 93F87830 		ldrb	r3, [r3, #120]	@ zero_extendqisi2
 507 0324 03F00F03 		and	r3, r3, #15
 508 0328 DBB2     		uxtb	r3, r3
 509 032a 0198     		ldr	r0, [sp, #4]
 510 032c 1946     		mov	r1, r3
 511 032e FFF7FEFF 		bl	usb_lld_clear_out
 512              	.L34:
 513              		.loc 1 197 0
ARM GAS  /tmp/cceJrrFk.s 			page 10


 514 0332 019B     		ldr	r3, [sp, #4]
 515 0334 0022     		movs	r2, #0
 516 0336 9A66     		str	r2, [r3, #104]
 517 0338 019B     		ldr	r3, [sp, #4]
 518 033a 0022     		movs	r2, #0
 519 033c DA66     		str	r2, [r3, #108]
 520 033e 019B     		ldr	r3, [sp, #4]
 521 0340 0022     		movs	r2, #0
 522 0342 1A67     		str	r2, [r3, #112]
 523              		.loc 1 198 0
 524 0344 0123     		movs	r3, #1
 525 0346 35E0     		b	.L19
 526              	.L15:
 527              		.loc 1 201 0
 528 0348 019B     		ldr	r3, [sp, #4]
 529 034a 93F87630 		ldrb	r3, [r3, #118]	@ zero_extendqisi2
 530 034e 002B     		cmp	r3, #0
 531 0350 01D0     		beq	.L36
 532              		.loc 1 202 0
 533 0352 0023     		movs	r3, #0
 534 0354 2EE0     		b	.L19
 535              	.L36:
 536              		.loc 1 204 0
 537 0356 019B     		ldr	r3, [sp, #4]
 538 0358 93F87830 		ldrb	r3, [r3, #120]	@ zero_extendqisi2
 539 035c 03F00F03 		and	r3, r3, #15
 540 0360 002B     		cmp	r3, #0
 541 0362 1BDD     		ble	.L37
 542              		.loc 1 205 0
 543 0364 019B     		ldr	r3, [sp, #4]
 544 0366 93F87830 		ldrb	r3, [r3, #120]	@ zero_extendqisi2
 545 036a DBB2     		uxtb	r3, r3
 546 036c 5BB2     		sxtb	r3, r3
 547 036e 002B     		cmp	r3, #0
 548 0370 0ADA     		bge	.L38
 549              		.loc 1 206 0
 550 0372 019B     		ldr	r3, [sp, #4]
 551 0374 93F87830 		ldrb	r3, [r3, #120]	@ zero_extendqisi2
 552 0378 03F00F03 		and	r3, r3, #15
 553 037c DBB2     		uxtb	r3, r3
 554 037e 0198     		ldr	r0, [sp, #4]
 555 0380 1946     		mov	r1, r3
 556 0382 FFF7FEFF 		bl	usb_lld_stall_in
 557 0386 09E0     		b	.L37
 558              	.L38:
 559              		.loc 1 208 0
 560 0388 019B     		ldr	r3, [sp, #4]
 561 038a 93F87830 		ldrb	r3, [r3, #120]	@ zero_extendqisi2
 562 038e 03F00F03 		and	r3, r3, #15
 563 0392 DBB2     		uxtb	r3, r3
 564 0394 0198     		ldr	r0, [sp, #4]
 565 0396 1946     		mov	r1, r3
 566 0398 FFF7FEFF 		bl	usb_lld_stall_out
 567              	.L37:
 568              		.loc 1 210 0
 569 039c 019B     		ldr	r3, [sp, #4]
 570 039e 0022     		movs	r2, #0
ARM GAS  /tmp/cceJrrFk.s 			page 11


 571 03a0 9A66     		str	r2, [r3, #104]
 572 03a2 019B     		ldr	r3, [sp, #4]
 573 03a4 0022     		movs	r2, #0
 574 03a6 DA66     		str	r2, [r3, #108]
 575 03a8 019B     		ldr	r3, [sp, #4]
 576 03aa 0022     		movs	r2, #0
 577 03ac 1A67     		str	r2, [r3, #112]
 578              		.loc 1 211 0
 579 03ae 0123     		movs	r3, #1
 580 03b0 00E0     		b	.L19
 581              	.L4:
 582              		.loc 1 220 0
 583 03b2 0023     		movs	r3, #0
 584              	.L19:
 585              		.loc 1 222 0
 586 03b4 1846     		mov	r0, r3
 587 03b6 04B0     		add	sp, sp, #16
 588              		.cfi_def_cfa_offset 8
 589              		@ sp needed
 590 03b8 10BD     		pop	{r4, pc}
 591              	.L42:
 592 03ba 00BF     		.align	2
 593              	.L41:
 594 03bc 00000000 		.word	set_address
 595 03c0 00000000 		.word	zero_status
 596 03c4 08000000 		.word	halted_status
 597 03c8 04000000 		.word	active_status
 598              		.cfi_endproc
 599              	.LFE119:
 600              		.size	default_handler, .-default_handler
 601              		.align	2
 602              		.global	usbInit
 603              		.thumb
 604              		.thumb_func
 605              		.type	usbInit, %function
 606              	usbInit:
 607              	.LFB120:
 608              		.loc 1 235 0
 609              		.cfi_startproc
 610              		@ args = 0, pretend = 0, frame = 0
 611              		@ frame_needed = 0, uses_anonymous_args = 0
 612 03cc 08B5     		push	{r3, lr}
 613              		.cfi_def_cfa_offset 8
 614              		.cfi_offset 3, -8
 615              		.cfi_offset 14, -4
 616              		.loc 1 237 0
 617 03ce FFF7FEFF 		bl	usb_lld_init
 618              		.loc 1 238 0
 619 03d2 08BD     		pop	{r3, pc}
 620              		.cfi_endproc
 621              	.LFE120:
 622              		.size	usbInit, .-usbInit
 623              		.align	2
 624              		.global	usbObjectInit
 625              		.thumb
 626              		.thumb_func
 627              		.type	usbObjectInit, %function
ARM GAS  /tmp/cceJrrFk.s 			page 12


 628              	usbObjectInit:
 629              	.LFB121:
 630              		.loc 1 247 0
 631              		.cfi_startproc
 632              		@ args = 0, pretend = 0, frame = 16
 633              		@ frame_needed = 0, uses_anonymous_args = 0
 634              		@ link register save eliminated.
 635 03d4 84B0     		sub	sp, sp, #16
 636              		.cfi_def_cfa_offset 16
 637 03d6 0190     		str	r0, [sp, #4]
 638              		.loc 1 250 0
 639 03d8 019B     		ldr	r3, [sp, #4]
 640 03da 0122     		movs	r2, #1
 641 03dc 1A70     		strb	r2, [r3]
 642              		.loc 1 251 0
 643 03de 019B     		ldr	r3, [sp, #4]
 644 03e0 0022     		movs	r2, #0
 645 03e2 5A60     		str	r2, [r3, #4]
 646              		.loc 1 252 0
 647 03e4 0023     		movs	r3, #0
 648 03e6 0393     		str	r3, [sp, #12]
 649 03e8 0FE0     		b	.L45
 650              	.L46:
 651              		.loc 1 253 0 discriminator 3
 652 03ea 019A     		ldr	r2, [sp, #4]
 653 03ec 039B     		ldr	r3, [sp, #12]
 654 03ee 0A33     		adds	r3, r3, #10
 655 03f0 9B00     		lsls	r3, r3, #2
 656 03f2 1344     		add	r3, r3, r2
 657 03f4 0022     		movs	r2, #0
 658 03f6 5A60     		str	r2, [r3, #4]
 659              		.loc 1 254 0 discriminator 3
 660 03f8 019B     		ldr	r3, [sp, #4]
 661 03fa 039A     		ldr	r2, [sp, #12]
 662 03fc 1232     		adds	r2, r2, #18
 663 03fe 0021     		movs	r1, #0
 664 0400 43F82210 		str	r1, [r3, r2, lsl #2]
 665              		.loc 1 252 0 discriminator 3
 666 0404 039B     		ldr	r3, [sp, #12]
 667 0406 0133     		adds	r3, r3, #1
 668 0408 0393     		str	r3, [sp, #12]
 669              	.L45:
 670              		.loc 1 252 0 is_stmt 0 discriminator 1
 671 040a 039B     		ldr	r3, [sp, #12]
 672 040c 062B     		cmp	r3, #6
 673 040e ECD9     		bls	.L46
 674              		.loc 1 256 0 is_stmt 1
 675 0410 019B     		ldr	r3, [sp, #4]
 676 0412 0022     		movs	r2, #0
 677 0414 1A81     		strh	r2, [r3, #8]	@ movhi
 678              		.loc 1 257 0
 679 0416 019B     		ldr	r3, [sp, #4]
 680 0418 0022     		movs	r2, #0
 681 041a 5A81     		strh	r2, [r3, #10]	@ movhi
 682              		.loc 1 258 0
 683 041c 04B0     		add	sp, sp, #16
 684              		.cfi_def_cfa_offset 0
ARM GAS  /tmp/cceJrrFk.s 			page 13


 685              		@ sp needed
 686 041e 7047     		bx	lr
 687              		.cfi_endproc
 688              	.LFE121:
 689              		.size	usbObjectInit, .-usbObjectInit
 690              		.section	.rodata
 691 000a 0000     		.align	2
 692              	.LC0:
 693 000c 22757362 		.ascii	"\"usbStart\"()\000"
 693      53746172 
 693      74222829 
 693      00
 694 0019 000000   		.align	2
 695              	.LC1:
 696 001c 75736253 		.ascii	"usbStart(), #1\000"
 696      74617274 
 696      28292C20 
 696      233100
 697              		.text
 698              		.align	2
 699              		.global	usbStart
 700              		.thumb
 701              		.thumb_func
 702              		.type	usbStart, %function
 703              	usbStart:
 704              	.LFB122:
 705              		.loc 1 268 0
 706              		.cfi_startproc
 707              		@ args = 0, pretend = 0, frame = 16
 708              		@ frame_needed = 0, uses_anonymous_args = 0
 709 0420 00B5     		push	{lr}
 710              		.cfi_def_cfa_offset 4
 711              		.cfi_offset 14, -4
 712 0422 85B0     		sub	sp, sp, #20
 713              		.cfi_def_cfa_offset 24
 714 0424 0190     		str	r0, [sp, #4]
 715 0426 0091     		str	r1, [sp]
 716              		.loc 1 271 0
 717 0428 019B     		ldr	r3, [sp, #4]
 718 042a 002B     		cmp	r3, #0
 719 042c 02D0     		beq	.L48
 720              		.loc 1 271 0 is_stmt 0 discriminator 2
 721 042e 009B     		ldr	r3, [sp]
 722 0430 002B     		cmp	r3, #0
 723 0432 02D1     		bne	.L49
 724              	.L48:
 725              		.loc 1 271 0 discriminator 3
 726 0434 1948     		ldr	r0, .L53
 727 0436 FFF7FEFF 		bl	chDbgPanic
 728              	.L49:
 729              	.LBB2:
 730              		.loc 1 273 0 is_stmt 1
 731 043a 2023     		movs	r3, #32
 732              	@ 273 "/opt/R2P/core/ChibiOS_2.6.5/os/hal/src/usb.c" 1
 733 043c 83F31188 		msr     BASEPRI, r3
 734              	@ 0 "" 2
 735              		.thumb
ARM GAS  /tmp/cceJrrFk.s 			page 14


 736              	.LBE2:
 737 0440 FFF7FEFF 		bl	dbg_check_lock
 738              		.loc 1 274 0
 739 0444 019B     		ldr	r3, [sp, #4]
 740 0446 1B78     		ldrb	r3, [r3]	@ zero_extendqisi2
 741 0448 012B     		cmp	r3, #1
 742 044a 06D0     		beq	.L50
 743              		.loc 1 274 0 is_stmt 0 discriminator 1
 744 044c 019B     		ldr	r3, [sp, #4]
 745 044e 1B78     		ldrb	r3, [r3]	@ zero_extendqisi2
 746 0450 022B     		cmp	r3, #2
 747 0452 02D0     		beq	.L50
 748              		.loc 1 274 0 discriminator 2
 749 0454 1248     		ldr	r0, .L53+4
 750 0456 FFF7FEFF 		bl	chDbgPanic
 751              	.L50:
 752              		.loc 1 276 0 is_stmt 1
 753 045a 019B     		ldr	r3, [sp, #4]
 754 045c 009A     		ldr	r2, [sp]
 755 045e 5A60     		str	r2, [r3, #4]
 756              		.loc 1 277 0
 757 0460 0023     		movs	r3, #0
 758 0462 0393     		str	r3, [sp, #12]
 759 0464 09E0     		b	.L51
 760              	.L52:
 761              		.loc 1 278 0 discriminator 3
 762 0466 019A     		ldr	r2, [sp, #4]
 763 0468 039B     		ldr	r3, [sp, #12]
 764 046a 0233     		adds	r3, r3, #2
 765 046c 9B00     		lsls	r3, r3, #2
 766 046e 1344     		add	r3, r3, r2
 767 0470 0022     		movs	r2, #0
 768 0472 5A60     		str	r2, [r3, #4]
 769              		.loc 1 277 0 discriminator 3
 770 0474 039B     		ldr	r3, [sp, #12]
 771 0476 0133     		adds	r3, r3, #1
 772 0478 0393     		str	r3, [sp, #12]
 773              	.L51:
 774              		.loc 1 277 0 is_stmt 0 discriminator 1
 775 047a 039B     		ldr	r3, [sp, #12]
 776 047c 072B     		cmp	r3, #7
 777 047e F2D9     		bls	.L52
 778              		.loc 1 279 0 is_stmt 1
 779 0480 0198     		ldr	r0, [sp, #4]
 780 0482 FFF7FEFF 		bl	usb_lld_start
 781              		.loc 1 280 0
 782 0486 019B     		ldr	r3, [sp, #4]
 783 0488 0222     		movs	r2, #2
 784 048a 1A70     		strb	r2, [r3]
 785              		.loc 1 281 0
 786 048c FFF7FEFF 		bl	dbg_check_unlock
 787              	.LBB3:
 788 0490 0023     		movs	r3, #0
 789              	@ 281 "/opt/R2P/core/ChibiOS_2.6.5/os/hal/src/usb.c" 1
 790 0492 83F31188 		msr     BASEPRI, r3
 791              	@ 0 "" 2
 792              		.thumb
ARM GAS  /tmp/cceJrrFk.s 			page 15


 793              	.LBE3:
 794              		.loc 1 282 0
 795 0496 05B0     		add	sp, sp, #20
 796              		.cfi_def_cfa_offset 4
 797              		@ sp needed
 798 0498 5DF804FB 		ldr	pc, [sp], #4
 799              	.L54:
 800              		.align	2
 801              	.L53:
 802 049c 0C000000 		.word	.LC0
 803 04a0 1C000000 		.word	.LC1
 804              		.cfi_endproc
 805              	.LFE122:
 806              		.size	usbStart, .-usbStart
 807              		.section	.rodata
 808 002b 00       		.align	2
 809              	.LC2:
 810 002c 22757362 		.ascii	"\"usbStop\"()\000"
 810      53746F70 
 810      22282900 
 811              		.align	2
 812              	.LC3:
 813 0038 75736253 		.ascii	"usbStop(), #1\000"
 813      746F7028 
 813      292C2023 
 813      3100
 814              		.text
 815              		.align	2
 816              		.global	usbStop
 817              		.thumb
 818              		.thumb_func
 819              		.type	usbStop, %function
 820              	usbStop:
 821              	.LFB123:
 822              		.loc 1 291 0
 823              		.cfi_startproc
 824              		@ args = 0, pretend = 0, frame = 8
 825              		@ frame_needed = 0, uses_anonymous_args = 0
 826 04a4 00B5     		push	{lr}
 827              		.cfi_def_cfa_offset 4
 828              		.cfi_offset 14, -4
 829 04a6 83B0     		sub	sp, sp, #12
 830              		.cfi_def_cfa_offset 16
 831 04a8 0190     		str	r0, [sp, #4]
 832              		.loc 1 293 0
 833 04aa 019B     		ldr	r3, [sp, #4]
 834 04ac 002B     		cmp	r3, #0
 835 04ae 02D1     		bne	.L56
 836              		.loc 1 293 0 is_stmt 0 discriminator 1
 837 04b0 1448     		ldr	r0, .L58
 838 04b2 FFF7FEFF 		bl	chDbgPanic
 839              	.L56:
 840              	.LBB4:
 841              		.loc 1 295 0 is_stmt 1
 842 04b6 2023     		movs	r3, #32
 843              	@ 295 "/opt/R2P/core/ChibiOS_2.6.5/os/hal/src/usb.c" 1
 844 04b8 83F31188 		msr     BASEPRI, r3
ARM GAS  /tmp/cceJrrFk.s 			page 16


 845              	@ 0 "" 2
 846              		.thumb
 847              	.LBE4:
 848 04bc FFF7FEFF 		bl	dbg_check_lock
 849              		.loc 1 296 0
 850 04c0 019B     		ldr	r3, [sp, #4]
 851 04c2 1B78     		ldrb	r3, [r3]	@ zero_extendqisi2
 852 04c4 012B     		cmp	r3, #1
 853 04c6 0ED0     		beq	.L57
 854              		.loc 1 296 0 is_stmt 0 discriminator 1
 855 04c8 019B     		ldr	r3, [sp, #4]
 856 04ca 1B78     		ldrb	r3, [r3]	@ zero_extendqisi2
 857 04cc 022B     		cmp	r3, #2
 858 04ce 0AD0     		beq	.L57
 859              		.loc 1 296 0 discriminator 2
 860 04d0 019B     		ldr	r3, [sp, #4]
 861 04d2 1B78     		ldrb	r3, [r3]	@ zero_extendqisi2
 862 04d4 032B     		cmp	r3, #3
 863 04d6 06D0     		beq	.L57
 864              		.loc 1 296 0 discriminator 3
 865 04d8 019B     		ldr	r3, [sp, #4]
 866 04da 1B78     		ldrb	r3, [r3]	@ zero_extendqisi2
 867 04dc 042B     		cmp	r3, #4
 868 04de 02D0     		beq	.L57
 869              		.loc 1 296 0 discriminator 4
 870 04e0 0948     		ldr	r0, .L58+4
 871 04e2 FFF7FEFF 		bl	chDbgPanic
 872              	.L57:
 873              		.loc 1 299 0 is_stmt 1
 874 04e6 0198     		ldr	r0, [sp, #4]
 875 04e8 FFF7FEFF 		bl	usb_lld_stop
 876              		.loc 1 300 0
 877 04ec 019B     		ldr	r3, [sp, #4]
 878 04ee 0122     		movs	r2, #1
 879 04f0 1A70     		strb	r2, [r3]
 880              		.loc 1 301 0
 881 04f2 FFF7FEFF 		bl	dbg_check_unlock
 882              	.LBB5:
 883 04f6 0023     		movs	r3, #0
 884              	@ 301 "/opt/R2P/core/ChibiOS_2.6.5/os/hal/src/usb.c" 1
 885 04f8 83F31188 		msr     BASEPRI, r3
 886              	@ 0 "" 2
 887              		.thumb
 888              	.LBE5:
 889              		.loc 1 302 0
 890 04fc 03B0     		add	sp, sp, #12
 891              		.cfi_def_cfa_offset 4
 892              		@ sp needed
 893 04fe 5DF804FB 		ldr	pc, [sp], #4
 894              	.L59:
 895 0502 00BF     		.align	2
 896              	.L58:
 897 0504 2C000000 		.word	.LC2
 898 0508 38000000 		.word	.LC3
 899              		.cfi_endproc
 900              	.LFE123:
 901              		.size	usbStop, .-usbStop
ARM GAS  /tmp/cceJrrFk.s 			page 17


 902              		.section	.rodata
 903 0046 0000     		.align	2
 904              	.LC4:
 905 0048 22757362 		.ascii	"\"usbInitEndpointI\"()\000"
 905      496E6974 
 905      456E6470 
 905      6F696E74 
 905      49222829 
 906 005d 000000   		.align	2
 907              	.LC5:
 908 0060 75736245 		.ascii	"usbEnableEndpointI(), #1\000"
 908      6E61626C 
 908      65456E64 
 908      706F696E 
 908      74492829 
 909 0079 000000   		.align	2
 910              	.LC6:
 911 007c 75736245 		.ascii	"usbEnableEndpointI(), #2\000"
 911      6E61626C 
 911      65456E64 
 911      706F696E 
 911      74492829 
 912              		.text
 913              		.align	2
 914              		.global	usbInitEndpointI
 915              		.thumb
 916              		.thumb_func
 917              		.type	usbInitEndpointI, %function
 918              	usbInitEndpointI:
 919              	.LFB124:
 920              		.loc 1 318 0
 921              		.cfi_startproc
 922              		@ args = 0, pretend = 0, frame = 16
 923              		@ frame_needed = 0, uses_anonymous_args = 0
 924 050c 00B5     		push	{lr}
 925              		.cfi_def_cfa_offset 4
 926              		.cfi_offset 14, -4
 927 050e 85B0     		sub	sp, sp, #20
 928              		.cfi_def_cfa_offset 24
 929 0510 0390     		str	r0, [sp, #12]
 930 0512 0B46     		mov	r3, r1
 931 0514 0192     		str	r2, [sp, #4]
 932 0516 8DF80B30 		strb	r3, [sp, #11]
 933              		.loc 1 320 0
 934 051a FFF7FEFF 		bl	chDbgCheckClassI
 935              		.loc 1 321 0
 936 051e 039B     		ldr	r3, [sp, #12]
 937 0520 002B     		cmp	r3, #0
 938 0522 02D0     		beq	.L61
 939              		.loc 1 321 0 is_stmt 0 discriminator 2
 940 0524 019B     		ldr	r3, [sp, #4]
 941 0526 002B     		cmp	r3, #0
 942 0528 02D1     		bne	.L62
 943              	.L61:
 944              		.loc 1 321 0 discriminator 3
 945 052a 1E48     		ldr	r0, .L67
 946 052c FFF7FEFF 		bl	chDbgPanic
ARM GAS  /tmp/cceJrrFk.s 			page 18


 947              	.L62:
 948              		.loc 1 322 0 is_stmt 1
 949 0530 039B     		ldr	r3, [sp, #12]
 950 0532 1B78     		ldrb	r3, [r3]	@ zero_extendqisi2
 951 0534 042B     		cmp	r3, #4
 952 0536 02D0     		beq	.L63
 953              		.loc 1 322 0 is_stmt 0 discriminator 1
 954 0538 1B48     		ldr	r0, .L67+4
 955 053a FFF7FEFF 		bl	chDbgPanic
 956              	.L63:
 957              		.loc 1 324 0 is_stmt 1
 958 053e 9DF80B30 		ldrb	r3, [sp, #11]	@ zero_extendqisi2
 959 0542 039A     		ldr	r2, [sp, #12]
 960 0544 0233     		adds	r3, r3, #2
 961 0546 9B00     		lsls	r3, r3, #2
 962 0548 1344     		add	r3, r3, r2
 963 054a 5B68     		ldr	r3, [r3, #4]
 964 054c 002B     		cmp	r3, #0
 965 054e 02D0     		beq	.L64
 966              		.loc 1 324 0 is_stmt 0 discriminator 1
 967 0550 1648     		ldr	r0, .L67+8
 968 0552 FFF7FEFF 		bl	chDbgPanic
 969              	.L64:
 970              		.loc 1 328 0 is_stmt 1
 971 0556 019B     		ldr	r3, [sp, #4]
 972 0558 5B69     		ldr	r3, [r3, #20]
 973 055a 002B     		cmp	r3, #0
 974 055c 06D0     		beq	.L65
 975              		.loc 1 329 0
 976 055e 019B     		ldr	r3, [sp, #4]
 977 0560 5B69     		ldr	r3, [r3, #20]
 978 0562 1846     		mov	r0, r3
 979 0564 0021     		movs	r1, #0
 980 0566 1022     		movs	r2, #16
 981 0568 FFF7FEFF 		bl	memset
 982              	.L65:
 983              		.loc 1 330 0
 984 056c 019B     		ldr	r3, [sp, #4]
 985 056e 9B69     		ldr	r3, [r3, #24]
 986 0570 002B     		cmp	r3, #0
 987 0572 06D0     		beq	.L66
 988              		.loc 1 331 0
 989 0574 019B     		ldr	r3, [sp, #4]
 990 0576 9B69     		ldr	r3, [r3, #24]
 991 0578 1846     		mov	r0, r3
 992 057a 0021     		movs	r1, #0
 993 057c 1422     		movs	r2, #20
 994 057e FFF7FEFF 		bl	memset
 995              	.L66:
 996              		.loc 1 333 0
 997 0582 9DF80B30 		ldrb	r3, [sp, #11]	@ zero_extendqisi2
 998 0586 039A     		ldr	r2, [sp, #12]
 999 0588 0233     		adds	r3, r3, #2
 1000 058a 9B00     		lsls	r3, r3, #2
 1001 058c 1344     		add	r3, r3, r2
 1002 058e 019A     		ldr	r2, [sp, #4]
 1003 0590 5A60     		str	r2, [r3, #4]
ARM GAS  /tmp/cceJrrFk.s 			page 19


 1004              		.loc 1 336 0
 1005 0592 9DF80B30 		ldrb	r3, [sp, #11]	@ zero_extendqisi2
 1006 0596 0398     		ldr	r0, [sp, #12]
 1007 0598 1946     		mov	r1, r3
 1008 059a FFF7FEFF 		bl	usb_lld_init_endpoint
 1009              		.loc 1 337 0
 1010 059e 05B0     		add	sp, sp, #20
 1011              		.cfi_def_cfa_offset 4
 1012              		@ sp needed
 1013 05a0 5DF804FB 		ldr	pc, [sp], #4
 1014              	.L68:
 1015              		.align	2
 1016              	.L67:
 1017 05a4 48000000 		.word	.LC4
 1018 05a8 60000000 		.word	.LC5
 1019 05ac 7C000000 		.word	.LC6
 1020              		.cfi_endproc
 1021              	.LFE124:
 1022              		.size	usbInitEndpointI, .-usbInitEndpointI
 1023              		.section	.rodata
 1024 0095 000000   		.align	2
 1025              	.LC7:
 1026 0098 22757362 		.ascii	"\"usbDisableEndpointsI\"()\000"
 1026      44697361 
 1026      626C6545 
 1026      6E64706F 
 1026      696E7473 
 1027 00b1 000000   		.align	2
 1028              	.LC8:
 1029 00b4 75736244 		.ascii	"usbDisableEndpointsI(), #1\000"
 1029      69736162 
 1029      6C65456E 
 1029      64706F69 
 1029      6E747349 
 1030              		.text
 1031              		.align	2
 1032              		.global	usbDisableEndpointsI
 1033              		.thumb
 1034              		.thumb_func
 1035              		.type	usbDisableEndpointsI, %function
 1036              	usbDisableEndpointsI:
 1037              	.LFB125:
 1038              		.loc 1 350 0
 1039              		.cfi_startproc
 1040              		@ args = 0, pretend = 0, frame = 16
 1041              		@ frame_needed = 0, uses_anonymous_args = 0
 1042 05b0 00B5     		push	{lr}
 1043              		.cfi_def_cfa_offset 4
 1044              		.cfi_offset 14, -4
 1045 05b2 85B0     		sub	sp, sp, #20
 1046              		.cfi_def_cfa_offset 24
 1047 05b4 0190     		str	r0, [sp, #4]
 1048              		.loc 1 353 0
 1049 05b6 FFF7FEFF 		bl	chDbgCheckClassI
 1050              		.loc 1 354 0
 1051 05ba 019B     		ldr	r3, [sp, #4]
 1052 05bc 002B     		cmp	r3, #0
ARM GAS  /tmp/cceJrrFk.s 			page 20


 1053 05be 02D1     		bne	.L70
 1054              		.loc 1 354 0 is_stmt 0 discriminator 1
 1055 05c0 1648     		ldr	r0, .L74
 1056 05c2 FFF7FEFF 		bl	chDbgPanic
 1057              	.L70:
 1058              		.loc 1 355 0 is_stmt 1
 1059 05c6 019B     		ldr	r3, [sp, #4]
 1060 05c8 1B78     		ldrb	r3, [r3]	@ zero_extendqisi2
 1061 05ca 032B     		cmp	r3, #3
 1062 05cc 02D0     		beq	.L71
 1063              		.loc 1 355 0 is_stmt 0 discriminator 1
 1064 05ce 1448     		ldr	r0, .L74+4
 1065 05d0 FFF7FEFF 		bl	chDbgPanic
 1066              	.L71:
 1067              		.loc 1 358 0 is_stmt 1
 1068 05d4 019B     		ldr	r3, [sp, #4]
 1069 05d6 1B89     		ldrh	r3, [r3, #8]
 1070 05d8 23F00103 		bic	r3, r3, #1
 1071 05dc 9AB2     		uxth	r2, r3
 1072 05de 019B     		ldr	r3, [sp, #4]
 1073 05e0 1A81     		strh	r2, [r3, #8]	@ movhi
 1074              		.loc 1 359 0
 1075 05e2 019B     		ldr	r3, [sp, #4]
 1076 05e4 5B89     		ldrh	r3, [r3, #10]
 1077 05e6 23F00103 		bic	r3, r3, #1
 1078 05ea 9AB2     		uxth	r2, r3
 1079 05ec 019B     		ldr	r3, [sp, #4]
 1080 05ee 5A81     		strh	r2, [r3, #10]	@ movhi
 1081              		.loc 1 360 0
 1082 05f0 0123     		movs	r3, #1
 1083 05f2 0393     		str	r3, [sp, #12]
 1084 05f4 09E0     		b	.L72
 1085              	.L73:
 1086              		.loc 1 361 0 discriminator 3
 1087 05f6 019A     		ldr	r2, [sp, #4]
 1088 05f8 039B     		ldr	r3, [sp, #12]
 1089 05fa 0233     		adds	r3, r3, #2
 1090 05fc 9B00     		lsls	r3, r3, #2
 1091 05fe 1344     		add	r3, r3, r2
 1092 0600 0022     		movs	r2, #0
 1093 0602 5A60     		str	r2, [r3, #4]
 1094              		.loc 1 360 0 discriminator 3
 1095 0604 039B     		ldr	r3, [sp, #12]
 1096 0606 0133     		adds	r3, r3, #1
 1097 0608 0393     		str	r3, [sp, #12]
 1098              	.L72:
 1099              		.loc 1 360 0 is_stmt 0 discriminator 1
 1100 060a 039B     		ldr	r3, [sp, #12]
 1101 060c 072B     		cmp	r3, #7
 1102 060e F2D9     		bls	.L73
 1103              		.loc 1 364 0 is_stmt 1
 1104 0610 0198     		ldr	r0, [sp, #4]
 1105 0612 FFF7FEFF 		bl	usb_lld_disable_endpoints
 1106              		.loc 1 365 0
 1107 0616 05B0     		add	sp, sp, #20
 1108              		.cfi_def_cfa_offset 4
 1109              		@ sp needed
ARM GAS  /tmp/cceJrrFk.s 			page 21


 1110 0618 5DF804FB 		ldr	pc, [sp], #4
 1111              	.L75:
 1112              		.align	2
 1113              	.L74:
 1114 061c 98000000 		.word	.LC7
 1115 0620 B4000000 		.word	.LC8
 1116              		.cfi_endproc
 1117              	.LFE125:
 1118              		.size	usbDisableEndpointsI, .-usbDisableEndpointsI
 1119              		.align	2
 1120              		.global	usbPrepareReceive
 1121              		.thumb
 1122              		.thumb_func
 1123              		.type	usbPrepareReceive, %function
 1124              	usbPrepareReceive:
 1125              	.LFB126:
 1126              		.loc 1 379 0
 1127              		.cfi_startproc
 1128              		@ args = 0, pretend = 0, frame = 24
 1129              		@ frame_needed = 0, uses_anonymous_args = 0
 1130 0624 00B5     		push	{lr}
 1131              		.cfi_def_cfa_offset 4
 1132              		.cfi_offset 14, -4
 1133 0626 87B0     		sub	sp, sp, #28
 1134              		.cfi_def_cfa_offset 32
 1135 0628 0390     		str	r0, [sp, #12]
 1136 062a 0192     		str	r2, [sp, #4]
 1137 062c 0093     		str	r3, [sp]
 1138 062e 0B46     		mov	r3, r1
 1139 0630 8DF80B30 		strb	r3, [sp, #11]
 1140              		.loc 1 380 0
 1141 0634 9DF80B30 		ldrb	r3, [sp, #11]	@ zero_extendqisi2
 1142 0638 039A     		ldr	r2, [sp, #12]
 1143 063a 0233     		adds	r3, r3, #2
 1144 063c 9B00     		lsls	r3, r3, #2
 1145 063e 1344     		add	r3, r3, r2
 1146 0640 5B68     		ldr	r3, [r3, #4]
 1147 0642 9B69     		ldr	r3, [r3, #24]
 1148 0644 0593     		str	r3, [sp, #20]
 1149              		.loc 1 382 0
 1150 0646 059B     		ldr	r3, [sp, #20]
 1151 0648 0022     		movs	r2, #0
 1152 064a 1A70     		strb	r2, [r3]
 1153              		.loc 1 383 0
 1154 064c 059B     		ldr	r3, [sp, #20]
 1155 064e 019A     		ldr	r2, [sp, #4]
 1156 0650 DA60     		str	r2, [r3, #12]
 1157              		.loc 1 384 0
 1158 0652 059B     		ldr	r3, [sp, #20]
 1159 0654 009A     		ldr	r2, [sp]
 1160 0656 5A60     		str	r2, [r3, #4]
 1161              		.loc 1 385 0
 1162 0658 059B     		ldr	r3, [sp, #20]
 1163 065a 0022     		movs	r2, #0
 1164 065c 9A60     		str	r2, [r3, #8]
 1165              		.loc 1 387 0
 1166 065e 9DF80B30 		ldrb	r3, [sp, #11]	@ zero_extendqisi2
ARM GAS  /tmp/cceJrrFk.s 			page 22


 1167 0662 0398     		ldr	r0, [sp, #12]
 1168 0664 1946     		mov	r1, r3
 1169 0666 FFF7FEFF 		bl	usb_lld_prepare_receive
 1170              		.loc 1 388 0
 1171 066a 07B0     		add	sp, sp, #28
 1172              		.cfi_def_cfa_offset 4
 1173              		@ sp needed
 1174 066c 5DF804FB 		ldr	pc, [sp], #4
 1175              		.cfi_endproc
 1176              	.LFE126:
 1177              		.size	usbPrepareReceive, .-usbPrepareReceive
 1178              		.align	2
 1179              		.global	usbPrepareTransmit
 1180              		.thumb
 1181              		.thumb_func
 1182              		.type	usbPrepareTransmit, %function
 1183              	usbPrepareTransmit:
 1184              	.LFB127:
 1185              		.loc 1 405 0
 1186              		.cfi_startproc
 1187              		@ args = 0, pretend = 0, frame = 24
 1188              		@ frame_needed = 0, uses_anonymous_args = 0
 1189 0670 00B5     		push	{lr}
 1190              		.cfi_def_cfa_offset 4
 1191              		.cfi_offset 14, -4
 1192 0672 87B0     		sub	sp, sp, #28
 1193              		.cfi_def_cfa_offset 32
 1194 0674 0390     		str	r0, [sp, #12]
 1195 0676 0192     		str	r2, [sp, #4]
 1196 0678 0093     		str	r3, [sp]
 1197 067a 0B46     		mov	r3, r1
 1198 067c 8DF80B30 		strb	r3, [sp, #11]
 1199              		.loc 1 406 0
 1200 0680 9DF80B30 		ldrb	r3, [sp, #11]	@ zero_extendqisi2
 1201 0684 039A     		ldr	r2, [sp, #12]
 1202 0686 0233     		adds	r3, r3, #2
 1203 0688 9B00     		lsls	r3, r3, #2
 1204 068a 1344     		add	r3, r3, r2
 1205 068c 5B68     		ldr	r3, [r3, #4]
 1206 068e 5B69     		ldr	r3, [r3, #20]
 1207 0690 0593     		str	r3, [sp, #20]
 1208              		.loc 1 408 0
 1209 0692 059B     		ldr	r3, [sp, #20]
 1210 0694 0022     		movs	r2, #0
 1211 0696 1A70     		strb	r2, [r3]
 1212              		.loc 1 409 0
 1213 0698 059B     		ldr	r3, [sp, #20]
 1214 069a 019A     		ldr	r2, [sp, #4]
 1215 069c DA60     		str	r2, [r3, #12]
 1216              		.loc 1 410 0
 1217 069e 059B     		ldr	r3, [sp, #20]
 1218 06a0 009A     		ldr	r2, [sp]
 1219 06a2 5A60     		str	r2, [r3, #4]
 1220              		.loc 1 411 0
 1221 06a4 059B     		ldr	r3, [sp, #20]
 1222 06a6 0022     		movs	r2, #0
 1223 06a8 9A60     		str	r2, [r3, #8]
ARM GAS  /tmp/cceJrrFk.s 			page 23


 1224              		.loc 1 413 0
 1225 06aa 9DF80B30 		ldrb	r3, [sp, #11]	@ zero_extendqisi2
 1226 06ae 0398     		ldr	r0, [sp, #12]
 1227 06b0 1946     		mov	r1, r3
 1228 06b2 FFF7FEFF 		bl	usb_lld_prepare_transmit
 1229              		.loc 1 414 0
 1230 06b6 07B0     		add	sp, sp, #28
 1231              		.cfi_def_cfa_offset 4
 1232              		@ sp needed
 1233 06b8 5DF804FB 		ldr	pc, [sp], #4
 1234              		.cfi_endproc
 1235              	.LFE127:
 1236              		.size	usbPrepareTransmit, .-usbPrepareTransmit
 1237              		.align	2
 1238              		.global	usbPrepareQueuedReceive
 1239              		.thumb
 1240              		.thumb_func
 1241              		.type	usbPrepareQueuedReceive, %function
 1242              	usbPrepareQueuedReceive:
 1243              	.LFB128:
 1244              		.loc 1 434 0
 1245              		.cfi_startproc
 1246              		@ args = 0, pretend = 0, frame = 24
 1247              		@ frame_needed = 0, uses_anonymous_args = 0
 1248 06bc 00B5     		push	{lr}
 1249              		.cfi_def_cfa_offset 4
 1250              		.cfi_offset 14, -4
 1251 06be 87B0     		sub	sp, sp, #28
 1252              		.cfi_def_cfa_offset 32
 1253 06c0 0390     		str	r0, [sp, #12]
 1254 06c2 0192     		str	r2, [sp, #4]
 1255 06c4 0093     		str	r3, [sp]
 1256 06c6 0B46     		mov	r3, r1
 1257 06c8 8DF80B30 		strb	r3, [sp, #11]
 1258              		.loc 1 435 0
 1259 06cc 9DF80B30 		ldrb	r3, [sp, #11]	@ zero_extendqisi2
 1260 06d0 039A     		ldr	r2, [sp, #12]
 1261 06d2 0233     		adds	r3, r3, #2
 1262 06d4 9B00     		lsls	r3, r3, #2
 1263 06d6 1344     		add	r3, r3, r2
 1264 06d8 5B68     		ldr	r3, [r3, #4]
 1265 06da 9B69     		ldr	r3, [r3, #24]
 1266 06dc 0593     		str	r3, [sp, #20]
 1267              		.loc 1 437 0
 1268 06de 059B     		ldr	r3, [sp, #20]
 1269 06e0 0122     		movs	r2, #1
 1270 06e2 1A70     		strb	r2, [r3]
 1271              		.loc 1 438 0
 1272 06e4 059B     		ldr	r3, [sp, #20]
 1273 06e6 019A     		ldr	r2, [sp, #4]
 1274 06e8 DA60     		str	r2, [r3, #12]
 1275              		.loc 1 439 0
 1276 06ea 059B     		ldr	r3, [sp, #20]
 1277 06ec 009A     		ldr	r2, [sp]
 1278 06ee 5A60     		str	r2, [r3, #4]
 1279              		.loc 1 440 0
 1280 06f0 059B     		ldr	r3, [sp, #20]
ARM GAS  /tmp/cceJrrFk.s 			page 24


 1281 06f2 0022     		movs	r2, #0
 1282 06f4 9A60     		str	r2, [r3, #8]
 1283              		.loc 1 442 0
 1284 06f6 9DF80B30 		ldrb	r3, [sp, #11]	@ zero_extendqisi2
 1285 06fa 0398     		ldr	r0, [sp, #12]
 1286 06fc 1946     		mov	r1, r3
 1287 06fe FFF7FEFF 		bl	usb_lld_prepare_receive
 1288              		.loc 1 443 0
 1289 0702 07B0     		add	sp, sp, #28
 1290              		.cfi_def_cfa_offset 4
 1291              		@ sp needed
 1292 0704 5DF804FB 		ldr	pc, [sp], #4
 1293              		.cfi_endproc
 1294              	.LFE128:
 1295              		.size	usbPrepareQueuedReceive, .-usbPrepareQueuedReceive
 1296              		.align	2
 1297              		.global	usbPrepareQueuedTransmit
 1298              		.thumb
 1299              		.thumb_func
 1300              		.type	usbPrepareQueuedTransmit, %function
 1301              	usbPrepareQueuedTransmit:
 1302              	.LFB129:
 1303              		.loc 1 460 0
 1304              		.cfi_startproc
 1305              		@ args = 0, pretend = 0, frame = 24
 1306              		@ frame_needed = 0, uses_anonymous_args = 0
 1307 0708 00B5     		push	{lr}
 1308              		.cfi_def_cfa_offset 4
 1309              		.cfi_offset 14, -4
 1310 070a 87B0     		sub	sp, sp, #28
 1311              		.cfi_def_cfa_offset 32
 1312 070c 0390     		str	r0, [sp, #12]
 1313 070e 0192     		str	r2, [sp, #4]
 1314 0710 0093     		str	r3, [sp]
 1315 0712 0B46     		mov	r3, r1
 1316 0714 8DF80B30 		strb	r3, [sp, #11]
 1317              		.loc 1 461 0
 1318 0718 9DF80B30 		ldrb	r3, [sp, #11]	@ zero_extendqisi2
 1319 071c 039A     		ldr	r2, [sp, #12]
 1320 071e 0233     		adds	r3, r3, #2
 1321 0720 9B00     		lsls	r3, r3, #2
 1322 0722 1344     		add	r3, r3, r2
 1323 0724 5B68     		ldr	r3, [r3, #4]
 1324 0726 5B69     		ldr	r3, [r3, #20]
 1325 0728 0593     		str	r3, [sp, #20]
 1326              		.loc 1 463 0
 1327 072a 059B     		ldr	r3, [sp, #20]
 1328 072c 0122     		movs	r2, #1
 1329 072e 1A70     		strb	r2, [r3]
 1330              		.loc 1 464 0
 1331 0730 059B     		ldr	r3, [sp, #20]
 1332 0732 019A     		ldr	r2, [sp, #4]
 1333 0734 DA60     		str	r2, [r3, #12]
 1334              		.loc 1 465 0
 1335 0736 059B     		ldr	r3, [sp, #20]
 1336 0738 009A     		ldr	r2, [sp]
 1337 073a 5A60     		str	r2, [r3, #4]
ARM GAS  /tmp/cceJrrFk.s 			page 25


 1338              		.loc 1 466 0
 1339 073c 059B     		ldr	r3, [sp, #20]
 1340 073e 0022     		movs	r2, #0
 1341 0740 9A60     		str	r2, [r3, #8]
 1342              		.loc 1 468 0
 1343 0742 9DF80B30 		ldrb	r3, [sp, #11]	@ zero_extendqisi2
 1344 0746 0398     		ldr	r0, [sp, #12]
 1345 0748 1946     		mov	r1, r3
 1346 074a FFF7FEFF 		bl	usb_lld_prepare_transmit
 1347              		.loc 1 469 0
 1348 074e 07B0     		add	sp, sp, #28
 1349              		.cfi_def_cfa_offset 4
 1350              		@ sp needed
 1351 0750 5DF804FB 		ldr	pc, [sp], #4
 1352              		.cfi_endproc
 1353              	.LFE129:
 1354              		.size	usbPrepareQueuedTransmit, .-usbPrepareQueuedTransmit
 1355              		.section	.rodata
 1356 00cf 00       		.align	2
 1357              	.LC9:
 1358 00d0 22757362 		.ascii	"\"usbStartReceiveI\"()\000"
 1358      53746172 
 1358      74526563 
 1358      65697665 
 1358      49222829 
 1359              		.text
 1360              		.align	2
 1361              		.global	usbStartReceiveI
 1362              		.thumb
 1363              		.thumb_func
 1364              		.type	usbStartReceiveI, %function
 1365              	usbStartReceiveI:
 1366              	.LFB130:
 1367              		.loc 1 485 0
 1368              		.cfi_startproc
 1369              		@ args = 0, pretend = 0, frame = 8
 1370              		@ frame_needed = 0, uses_anonymous_args = 0
 1371 0754 00B5     		push	{lr}
 1372              		.cfi_def_cfa_offset 4
 1373              		.cfi_offset 14, -4
 1374 0756 83B0     		sub	sp, sp, #12
 1375              		.cfi_def_cfa_offset 16
 1376 0758 0190     		str	r0, [sp, #4]
 1377 075a 0B46     		mov	r3, r1
 1378 075c 8DF80330 		strb	r3, [sp, #3]
 1379              		.loc 1 487 0
 1380 0760 FFF7FEFF 		bl	chDbgCheckClassI
 1381              		.loc 1 488 0
 1382 0764 019B     		ldr	r3, [sp, #4]
 1383 0766 002B     		cmp	r3, #0
 1384 0768 02D1     		bne	.L81
 1385              		.loc 1 488 0 is_stmt 0 discriminator 1
 1386 076a 1548     		ldr	r0, .L84
 1387 076c FFF7FEFF 		bl	chDbgPanic
 1388              	.L81:
 1389              		.loc 1 490 0 is_stmt 1
 1390 0770 019B     		ldr	r3, [sp, #4]
ARM GAS  /tmp/cceJrrFk.s 			page 26


 1391 0772 5B89     		ldrh	r3, [r3, #10]
 1392 0774 1A46     		mov	r2, r3
 1393 0776 9DF80330 		ldrb	r3, [sp, #3]	@ zero_extendqisi2
 1394 077a 42FA03F3 		asr	r3, r2, r3
 1395 077e 03F00103 		and	r3, r3, #1
 1396 0782 002B     		cmp	r3, #0
 1397 0784 01D0     		beq	.L82
 1398              		.loc 1 491 0
 1399 0786 0123     		movs	r3, #1
 1400 0788 15E0     		b	.L83
 1401              	.L82:
 1402              		.loc 1 493 0
 1403 078a 019B     		ldr	r3, [sp, #4]
 1404 078c 5B89     		ldrh	r3, [r3, #10]
 1405 078e 99B2     		uxth	r1, r3
 1406 0790 9DF80330 		ldrb	r3, [sp, #3]	@ zero_extendqisi2
 1407 0794 0122     		movs	r2, #1
 1408 0796 02FA03F3 		lsl	r3, r2, r3
 1409 079a 9BB2     		uxth	r3, r3
 1410 079c 0A46     		mov	r2, r1	@ movhi
 1411 079e 1343     		orrs	r3, r3, r2
 1412 07a0 9BB2     		uxth	r3, r3
 1413 07a2 9AB2     		uxth	r2, r3
 1414 07a4 019B     		ldr	r3, [sp, #4]
 1415 07a6 5A81     		strh	r2, [r3, #10]	@ movhi
 1416              		.loc 1 494 0
 1417 07a8 9DF80330 		ldrb	r3, [sp, #3]	@ zero_extendqisi2
 1418 07ac 0198     		ldr	r0, [sp, #4]
 1419 07ae 1946     		mov	r1, r3
 1420 07b0 FFF7FEFF 		bl	usb_lld_start_out
 1421              		.loc 1 495 0
 1422 07b4 0023     		movs	r3, #0
 1423              	.L83:
 1424              		.loc 1 496 0
 1425 07b6 1846     		mov	r0, r3
 1426 07b8 03B0     		add	sp, sp, #12
 1427              		.cfi_def_cfa_offset 4
 1428              		@ sp needed
 1429 07ba 5DF804FB 		ldr	pc, [sp], #4
 1430              	.L85:
 1431 07be 00BF     		.align	2
 1432              	.L84:
 1433 07c0 D0000000 		.word	.LC9
 1434              		.cfi_endproc
 1435              	.LFE130:
 1436              		.size	usbStartReceiveI, .-usbStartReceiveI
 1437              		.section	.rodata
 1438 00e5 000000   		.align	2
 1439              	.LC10:
 1440 00e8 22757362 		.ascii	"\"usbStartTransmitI\"()\000"
 1440      53746172 
 1440      74547261 
 1440      6E736D69 
 1440      74492228 
 1441              		.text
 1442              		.align	2
 1443              		.global	usbStartTransmitI
ARM GAS  /tmp/cceJrrFk.s 			page 27


 1444              		.thumb
 1445              		.thumb_func
 1446              		.type	usbStartTransmitI, %function
 1447              	usbStartTransmitI:
 1448              	.LFB131:
 1449              		.loc 1 512 0
 1450              		.cfi_startproc
 1451              		@ args = 0, pretend = 0, frame = 8
 1452              		@ frame_needed = 0, uses_anonymous_args = 0
 1453 07c4 00B5     		push	{lr}
 1454              		.cfi_def_cfa_offset 4
 1455              		.cfi_offset 14, -4
 1456 07c6 83B0     		sub	sp, sp, #12
 1457              		.cfi_def_cfa_offset 16
 1458 07c8 0190     		str	r0, [sp, #4]
 1459 07ca 0B46     		mov	r3, r1
 1460 07cc 8DF80330 		strb	r3, [sp, #3]
 1461              		.loc 1 514 0
 1462 07d0 FFF7FEFF 		bl	chDbgCheckClassI
 1463              		.loc 1 515 0
 1464 07d4 019B     		ldr	r3, [sp, #4]
 1465 07d6 002B     		cmp	r3, #0
 1466 07d8 02D1     		bne	.L87
 1467              		.loc 1 515 0 is_stmt 0 discriminator 1
 1468 07da 1548     		ldr	r0, .L90
 1469 07dc FFF7FEFF 		bl	chDbgPanic
 1470              	.L87:
 1471              		.loc 1 517 0 is_stmt 1
 1472 07e0 019B     		ldr	r3, [sp, #4]
 1473 07e2 1B89     		ldrh	r3, [r3, #8]
 1474 07e4 1A46     		mov	r2, r3
 1475 07e6 9DF80330 		ldrb	r3, [sp, #3]	@ zero_extendqisi2
 1476 07ea 42FA03F3 		asr	r3, r2, r3
 1477 07ee 03F00103 		and	r3, r3, #1
 1478 07f2 002B     		cmp	r3, #0
 1479 07f4 01D0     		beq	.L88
 1480              		.loc 1 518 0
 1481 07f6 0123     		movs	r3, #1
 1482 07f8 15E0     		b	.L89
 1483              	.L88:
 1484              		.loc 1 520 0
 1485 07fa 019B     		ldr	r3, [sp, #4]
 1486 07fc 1B89     		ldrh	r3, [r3, #8]
 1487 07fe 99B2     		uxth	r1, r3
 1488 0800 9DF80330 		ldrb	r3, [sp, #3]	@ zero_extendqisi2
 1489 0804 0122     		movs	r2, #1
 1490 0806 02FA03F3 		lsl	r3, r2, r3
 1491 080a 9BB2     		uxth	r3, r3
 1492 080c 0A46     		mov	r2, r1	@ movhi
 1493 080e 1343     		orrs	r3, r3, r2
 1494 0810 9BB2     		uxth	r3, r3
 1495 0812 9AB2     		uxth	r2, r3
 1496 0814 019B     		ldr	r3, [sp, #4]
 1497 0816 1A81     		strh	r2, [r3, #8]	@ movhi
 1498              		.loc 1 521 0
 1499 0818 9DF80330 		ldrb	r3, [sp, #3]	@ zero_extendqisi2
 1500 081c 0198     		ldr	r0, [sp, #4]
ARM GAS  /tmp/cceJrrFk.s 			page 28


 1501 081e 1946     		mov	r1, r3
 1502 0820 FFF7FEFF 		bl	usb_lld_start_in
 1503              		.loc 1 522 0
 1504 0824 0023     		movs	r3, #0
 1505              	.L89:
 1506              		.loc 1 523 0
 1507 0826 1846     		mov	r0, r3
 1508 0828 03B0     		add	sp, sp, #12
 1509              		.cfi_def_cfa_offset 4
 1510              		@ sp needed
 1511 082a 5DF804FB 		ldr	pc, [sp], #4
 1512              	.L91:
 1513 082e 00BF     		.align	2
 1514              	.L90:
 1515 0830 E8000000 		.word	.LC10
 1516              		.cfi_endproc
 1517              	.LFE131:
 1518              		.size	usbStartTransmitI, .-usbStartTransmitI
 1519              		.section	.rodata
 1520 00fe 0000     		.align	2
 1521              	.LC11:
 1522 0100 22757362 		.ascii	"\"usbStallReceiveI\"()\000"
 1522      5374616C 
 1522      6C526563 
 1522      65697665 
 1522      49222829 
 1523              		.text
 1524              		.align	2
 1525              		.global	usbStallReceiveI
 1526              		.thumb
 1527              		.thumb_func
 1528              		.type	usbStallReceiveI, %function
 1529              	usbStallReceiveI:
 1530              	.LFB132:
 1531              		.loc 1 537 0
 1532              		.cfi_startproc
 1533              		@ args = 0, pretend = 0, frame = 8
 1534              		@ frame_needed = 0, uses_anonymous_args = 0
 1535 0834 00B5     		push	{lr}
 1536              		.cfi_def_cfa_offset 4
 1537              		.cfi_offset 14, -4
 1538 0836 83B0     		sub	sp, sp, #12
 1539              		.cfi_def_cfa_offset 16
 1540 0838 0190     		str	r0, [sp, #4]
 1541 083a 0B46     		mov	r3, r1
 1542 083c 8DF80330 		strb	r3, [sp, #3]
 1543              		.loc 1 539 0
 1544 0840 FFF7FEFF 		bl	chDbgCheckClassI
 1545              		.loc 1 540 0
 1546 0844 019B     		ldr	r3, [sp, #4]
 1547 0846 002B     		cmp	r3, #0
 1548 0848 02D1     		bne	.L93
 1549              		.loc 1 540 0 is_stmt 0 discriminator 1
 1550 084a 0D48     		ldr	r0, .L96
 1551 084c FFF7FEFF 		bl	chDbgPanic
 1552              	.L93:
 1553              		.loc 1 542 0 is_stmt 1
ARM GAS  /tmp/cceJrrFk.s 			page 29


 1554 0850 019B     		ldr	r3, [sp, #4]
 1555 0852 5B89     		ldrh	r3, [r3, #10]
 1556 0854 1A46     		mov	r2, r3
 1557 0856 9DF80330 		ldrb	r3, [sp, #3]	@ zero_extendqisi2
 1558 085a 42FA03F3 		asr	r3, r2, r3
 1559 085e 03F00103 		and	r3, r3, #1
 1560 0862 002B     		cmp	r3, #0
 1561 0864 01D0     		beq	.L94
 1562              		.loc 1 543 0
 1563 0866 0123     		movs	r3, #1
 1564 0868 06E0     		b	.L95
 1565              	.L94:
 1566              		.loc 1 545 0
 1567 086a 9DF80330 		ldrb	r3, [sp, #3]	@ zero_extendqisi2
 1568 086e 0198     		ldr	r0, [sp, #4]
 1569 0870 1946     		mov	r1, r3
 1570 0872 FFF7FEFF 		bl	usb_lld_stall_out
 1571              		.loc 1 546 0
 1572 0876 0023     		movs	r3, #0
 1573              	.L95:
 1574              		.loc 1 547 0
 1575 0878 1846     		mov	r0, r3
 1576 087a 03B0     		add	sp, sp, #12
 1577              		.cfi_def_cfa_offset 4
 1578              		@ sp needed
 1579 087c 5DF804FB 		ldr	pc, [sp], #4
 1580              	.L97:
 1581              		.align	2
 1582              	.L96:
 1583 0880 00010000 		.word	.LC11
 1584              		.cfi_endproc
 1585              	.LFE132:
 1586              		.size	usbStallReceiveI, .-usbStallReceiveI
 1587              		.section	.rodata
 1588 0115 000000   		.align	2
 1589              	.LC12:
 1590 0118 22757362 		.ascii	"\"usbStallTransmitI\"()\000"
 1590      5374616C 
 1590      6C547261 
 1590      6E736D69 
 1590      74492228 
 1591 012e 0000     		.text
 1592              		.align	2
 1593              		.global	usbStallTransmitI
 1594              		.thumb
 1595              		.thumb_func
 1596              		.type	usbStallTransmitI, %function
 1597              	usbStallTransmitI:
 1598              	.LFB133:
 1599              		.loc 1 561 0
 1600              		.cfi_startproc
 1601              		@ args = 0, pretend = 0, frame = 8
 1602              		@ frame_needed = 0, uses_anonymous_args = 0
 1603 0884 00B5     		push	{lr}
 1604              		.cfi_def_cfa_offset 4
 1605              		.cfi_offset 14, -4
 1606 0886 83B0     		sub	sp, sp, #12
ARM GAS  /tmp/cceJrrFk.s 			page 30


 1607              		.cfi_def_cfa_offset 16
 1608 0888 0190     		str	r0, [sp, #4]
 1609 088a 0B46     		mov	r3, r1
 1610 088c 8DF80330 		strb	r3, [sp, #3]
 1611              		.loc 1 563 0
 1612 0890 FFF7FEFF 		bl	chDbgCheckClassI
 1613              		.loc 1 564 0
 1614 0894 019B     		ldr	r3, [sp, #4]
 1615 0896 002B     		cmp	r3, #0
 1616 0898 02D1     		bne	.L99
 1617              		.loc 1 564 0 is_stmt 0 discriminator 1
 1618 089a 0D48     		ldr	r0, .L102
 1619 089c FFF7FEFF 		bl	chDbgPanic
 1620              	.L99:
 1621              		.loc 1 566 0 is_stmt 1
 1622 08a0 019B     		ldr	r3, [sp, #4]
 1623 08a2 1B89     		ldrh	r3, [r3, #8]
 1624 08a4 1A46     		mov	r2, r3
 1625 08a6 9DF80330 		ldrb	r3, [sp, #3]	@ zero_extendqisi2
 1626 08aa 42FA03F3 		asr	r3, r2, r3
 1627 08ae 03F00103 		and	r3, r3, #1
 1628 08b2 002B     		cmp	r3, #0
 1629 08b4 01D0     		beq	.L100
 1630              		.loc 1 567 0
 1631 08b6 0123     		movs	r3, #1
 1632 08b8 06E0     		b	.L101
 1633              	.L100:
 1634              		.loc 1 569 0
 1635 08ba 9DF80330 		ldrb	r3, [sp, #3]	@ zero_extendqisi2
 1636 08be 0198     		ldr	r0, [sp, #4]
 1637 08c0 1946     		mov	r1, r3
 1638 08c2 FFF7FEFF 		bl	usb_lld_stall_in
 1639              		.loc 1 570 0
 1640 08c6 0023     		movs	r3, #0
 1641              	.L101:
 1642              		.loc 1 571 0
 1643 08c8 1846     		mov	r0, r3
 1644 08ca 03B0     		add	sp, sp, #12
 1645              		.cfi_def_cfa_offset 4
 1646              		@ sp needed
 1647 08cc 5DF804FB 		ldr	pc, [sp], #4
 1648              	.L103:
 1649              		.align	2
 1650              	.L102:
 1651 08d0 18010000 		.word	.LC12
 1652              		.cfi_endproc
 1653              	.LFE133:
 1654              		.size	usbStallTransmitI, .-usbStallTransmitI
 1655              		.align	2
 1656              		.global	_usb_reset
 1657              		.thumb
 1658              		.thumb_func
 1659              		.type	_usb_reset, %function
 1660              	_usb_reset:
 1661              	.LFB134:
 1662              		.loc 1 582 0
 1663              		.cfi_startproc
ARM GAS  /tmp/cceJrrFk.s 			page 31


 1664              		@ args = 0, pretend = 0, frame = 16
 1665              		@ frame_needed = 0, uses_anonymous_args = 0
 1666 08d4 00B5     		push	{lr}
 1667              		.cfi_def_cfa_offset 4
 1668              		.cfi_offset 14, -4
 1669 08d6 85B0     		sub	sp, sp, #20
 1670              		.cfi_def_cfa_offset 24
 1671 08d8 0190     		str	r0, [sp, #4]
 1672              		.loc 1 585 0
 1673 08da 019B     		ldr	r3, [sp, #4]
 1674 08dc 0222     		movs	r2, #2
 1675 08de 1A70     		strb	r2, [r3]
 1676              		.loc 1 586 0
 1677 08e0 019B     		ldr	r3, [sp, #4]
 1678 08e2 0022     		movs	r2, #0
 1679 08e4 A3F87C20 		strh	r2, [r3, #124]	@ movhi
 1680              		.loc 1 587 0
 1681 08e8 019B     		ldr	r3, [sp, #4]
 1682 08ea 0022     		movs	r2, #0
 1683 08ec 83F87E20 		strb	r2, [r3, #126]
 1684              		.loc 1 588 0
 1685 08f0 019B     		ldr	r3, [sp, #4]
 1686 08f2 0022     		movs	r2, #0
 1687 08f4 83F87F20 		strb	r2, [r3, #127]
 1688              		.loc 1 589 0
 1689 08f8 019B     		ldr	r3, [sp, #4]
 1690 08fa 0022     		movs	r2, #0
 1691 08fc 1A81     		strh	r2, [r3, #8]	@ movhi
 1692              		.loc 1 590 0
 1693 08fe 019B     		ldr	r3, [sp, #4]
 1694 0900 0022     		movs	r2, #0
 1695 0902 5A81     		strh	r2, [r3, #10]	@ movhi
 1696              		.loc 1 593 0
 1697 0904 0023     		movs	r3, #0
 1698 0906 0393     		str	r3, [sp, #12]
 1699 0908 09E0     		b	.L105
 1700              	.L106:
 1701              		.loc 1 594 0 discriminator 3
 1702 090a 019A     		ldr	r2, [sp, #4]
 1703 090c 039B     		ldr	r3, [sp, #12]
 1704 090e 0233     		adds	r3, r3, #2
 1705 0910 9B00     		lsls	r3, r3, #2
 1706 0912 1344     		add	r3, r3, r2
 1707 0914 0022     		movs	r2, #0
 1708 0916 5A60     		str	r2, [r3, #4]
 1709              		.loc 1 593 0 discriminator 3
 1710 0918 039B     		ldr	r3, [sp, #12]
 1711 091a 0133     		adds	r3, r3, #1
 1712 091c 0393     		str	r3, [sp, #12]
 1713              	.L105:
 1714              		.loc 1 593 0 is_stmt 0 discriminator 1
 1715 091e 039B     		ldr	r3, [sp, #12]
 1716 0920 072B     		cmp	r3, #7
 1717 0922 F2D9     		bls	.L106
 1718              		.loc 1 597 0 is_stmt 1
 1719 0924 019B     		ldr	r3, [sp, #4]
 1720 0926 0022     		movs	r2, #0
ARM GAS  /tmp/cceJrrFk.s 			page 32


 1721 0928 83F86420 		strb	r2, [r3, #100]
 1722              		.loc 1 600 0
 1723 092c 0198     		ldr	r0, [sp, #4]
 1724 092e FFF7FEFF 		bl	usb_lld_reset
 1725              		.loc 1 601 0
 1726 0932 05B0     		add	sp, sp, #20
 1727              		.cfi_def_cfa_offset 4
 1728              		@ sp needed
 1729 0934 5DF804FB 		ldr	pc, [sp], #4
 1730              		.cfi_endproc
 1731              	.LFE134:
 1732              		.size	_usb_reset, .-_usb_reset
 1733              		.align	2
 1734              		.global	_usb_ep0setup
 1735              		.thumb
 1736              		.thumb_func
 1737              		.type	_usb_ep0setup, %function
 1738              	_usb_ep0setup:
 1739              	.LFB135:
 1740              		.loc 1 613 0
 1741              		.cfi_startproc
 1742              		@ args = 0, pretend = 0, frame = 16
 1743              		@ frame_needed = 0, uses_anonymous_args = 0
 1744 0938 00B5     		push	{lr}
 1745              		.cfi_def_cfa_offset 4
 1746              		.cfi_offset 14, -4
 1747 093a 85B0     		sub	sp, sp, #20
 1748              		.cfi_def_cfa_offset 24
 1749 093c 0190     		str	r0, [sp, #4]
 1750 093e 0B46     		mov	r3, r1
 1751 0940 8DF80330 		strb	r3, [sp, #3]
 1752              		.loc 1 616 0
 1753 0944 019B     		ldr	r3, [sp, #4]
 1754 0946 0022     		movs	r2, #0
 1755 0948 83F86420 		strb	r2, [r3, #100]
 1756              		.loc 1 617 0
 1757 094c 019B     		ldr	r3, [sp, #4]
 1758 094e 7433     		adds	r3, r3, #116
 1759 0950 9DF80320 		ldrb	r2, [sp, #3]	@ zero_extendqisi2
 1760 0954 0198     		ldr	r0, [sp, #4]
 1761 0956 1146     		mov	r1, r2
 1762 0958 1A46     		mov	r2, r3
 1763 095a FFF7FEFF 		bl	usb_lld_read_setup
 1764              		.loc 1 621 0
 1765 095e 019B     		ldr	r3, [sp, #4]
 1766 0960 5B68     		ldr	r3, [r3, #4]
 1767 0962 9B68     		ldr	r3, [r3, #8]
 1768 0964 002B     		cmp	r3, #0
 1769 0966 0AD0     		beq	.L108
 1770              		.loc 1 622 0 discriminator 1
 1771 0968 019B     		ldr	r3, [sp, #4]
 1772 096a 5B68     		ldr	r3, [r3, #4]
 1773 096c 9B68     		ldr	r3, [r3, #8]
 1774 096e 0198     		ldr	r0, [sp, #4]
 1775 0970 9847     		blx	r3
 1776 0972 0346     		mov	r3, r0
 1777 0974 83F00103 		eor	r3, r3, #1
ARM GAS  /tmp/cceJrrFk.s 			page 33


 1778 0978 DBB2     		uxtb	r3, r3
 1779              		.loc 1 621 0 discriminator 1
 1780 097a 002B     		cmp	r3, #0
 1781 097c 27D0     		beq	.L109
 1782              	.L108:
 1783              		.loc 1 625 0
 1784 097e 019B     		ldr	r3, [sp, #4]
 1785 0980 93F87430 		ldrb	r3, [r3, #116]	@ zero_extendqisi2
 1786 0984 03F06003 		and	r3, r3, #96
 1787 0988 002B     		cmp	r3, #0
 1788 098a 08D1     		bne	.L110
 1789              		.loc 1 626 0 discriminator 1
 1790 098c 0198     		ldr	r0, [sp, #4]
 1791 098e FFF755FB 		bl	default_handler
 1792 0992 0346     		mov	r3, r0
 1793 0994 83F00103 		eor	r3, r3, #1
 1794 0998 DBB2     		uxtb	r3, r3
 1795              		.loc 1 625 0 discriminator 1
 1796 099a 002B     		cmp	r3, #0
 1797 099c 17D0     		beq	.L109
 1798              	.L110:
 1799              		.loc 1 630 0
 1800 099e 0198     		ldr	r0, [sp, #4]
 1801 09a0 0021     		movs	r1, #0
 1802 09a2 FFF7FEFF 		bl	usb_lld_stall_in
 1803              		.loc 1 631 0
 1804 09a6 0198     		ldr	r0, [sp, #4]
 1805 09a8 0021     		movs	r1, #0
 1806 09aa FFF7FEFF 		bl	usb_lld_stall_out
 1807              		.loc 1 632 0
 1808 09ae 019B     		ldr	r3, [sp, #4]
 1809 09b0 5B68     		ldr	r3, [r3, #4]
 1810 09b2 1B68     		ldr	r3, [r3]
 1811 09b4 002B     		cmp	r3, #0
 1812 09b6 05D0     		beq	.L111
 1813              		.loc 1 632 0 is_stmt 0 discriminator 1
 1814 09b8 019B     		ldr	r3, [sp, #4]
 1815 09ba 5B68     		ldr	r3, [r3, #4]
 1816 09bc 1B68     		ldr	r3, [r3]
 1817 09be 0198     		ldr	r0, [sp, #4]
 1818 09c0 0521     		movs	r1, #5
 1819 09c2 9847     		blx	r3
 1820              	.L111:
 1821              		.loc 1 633 0 is_stmt 1
 1822 09c4 019B     		ldr	r3, [sp, #4]
 1823 09c6 0622     		movs	r2, #6
 1824 09c8 83F86420 		strb	r2, [r3, #100]
 1825              		.loc 1 634 0
 1826 09cc 87E0     		b	.L107
 1827              	.L109:
 1828              		.loc 1 646 0
 1829 09ce 019B     		ldr	r3, [sp, #4]
 1830 09d0 93F87A30 		ldrb	r3, [r3, #122]	@ zero_extendqisi2
 1831 09d4 1A46     		mov	r2, r3
 1832 09d6 019B     		ldr	r3, [sp, #4]
 1833 09d8 93F87B30 		ldrb	r3, [r3, #123]	@ zero_extendqisi2
 1834 09dc 1B02     		lsls	r3, r3, #8
ARM GAS  /tmp/cceJrrFk.s 			page 34


 1835 09de 1343     		orrs	r3, r3, r2
 1836 09e0 0393     		str	r3, [sp, #12]
 1837              		.loc 1 648 0
 1838 09e2 019B     		ldr	r3, [sp, #4]
 1839 09e4 DA6E     		ldr	r2, [r3, #108]
 1840 09e6 039B     		ldr	r3, [sp, #12]
 1841 09e8 9A42     		cmp	r2, r3
 1842 09ea 02D9     		bls	.L113
 1843              		.loc 1 649 0
 1844 09ec 019B     		ldr	r3, [sp, #4]
 1845 09ee 039A     		ldr	r2, [sp, #12]
 1846 09f0 DA66     		str	r2, [r3, #108]
 1847              	.L113:
 1848              		.loc 1 650 0
 1849 09f2 019B     		ldr	r3, [sp, #4]
 1850 09f4 93F87430 		ldrb	r3, [r3, #116]	@ zero_extendqisi2
 1851 09f8 DBB2     		uxtb	r3, r3
 1852 09fa 5BB2     		sxtb	r3, r3
 1853 09fc 002B     		cmp	r3, #0
 1854 09fe 37DA     		bge	.L114
 1855              		.loc 1 652 0
 1856 0a00 019B     		ldr	r3, [sp, #4]
 1857 0a02 DB6E     		ldr	r3, [r3, #108]
 1858 0a04 002B     		cmp	r3, #0
 1859 0a06 1AD0     		beq	.L115
 1860              		.loc 1 654 0
 1861 0a08 019B     		ldr	r3, [sp, #4]
 1862 0a0a 0122     		movs	r2, #1
 1863 0a0c 83F86420 		strb	r2, [r3, #100]
 1864              		.loc 1 655 0
 1865 0a10 019B     		ldr	r3, [sp, #4]
 1866 0a12 9A6E     		ldr	r2, [r3, #104]
 1867 0a14 019B     		ldr	r3, [sp, #4]
 1868 0a16 DB6E     		ldr	r3, [r3, #108]
 1869 0a18 0198     		ldr	r0, [sp, #4]
 1870 0a1a 0021     		movs	r1, #0
 1871 0a1c FFF7FEFF 		bl	usbPrepareTransmit
 1872              	.LBB6:
 1873              		.loc 1 656 0
 1874 0a20 2023     		movs	r3, #32
 1875              	@ 656 "/opt/R2P/core/ChibiOS_2.6.5/os/hal/src/usb.c" 1
 1876 0a22 83F31188 		msr     BASEPRI, r3
 1877              	@ 0 "" 2
 1878              		.thumb
 1879              	.LBE6:
 1880 0a26 FFF7FEFF 		bl	dbg_check_lock_from_isr
 1881              		.loc 1 657 0
 1882 0a2a 0198     		ldr	r0, [sp, #4]
 1883 0a2c 0021     		movs	r1, #0
 1884 0a2e FFF7FEFF 		bl	usbStartTransmitI
 1885              		.loc 1 658 0
 1886 0a32 FFF7FEFF 		bl	dbg_check_unlock_from_isr
 1887              	.LBB7:
 1888 0a36 0023     		movs	r3, #0
 1889              	@ 658 "/opt/R2P/core/ChibiOS_2.6.5/os/hal/src/usb.c" 1
 1890 0a38 83F31188 		msr     BASEPRI, r3
 1891              	@ 0 "" 2
ARM GAS  /tmp/cceJrrFk.s 			page 35


 1892              		.thumb
 1893              	.LBE7:
 1894 0a3c 4FE0     		b	.L107
 1895              	.L115:
 1896              		.loc 1 663 0
 1897 0a3e 019B     		ldr	r3, [sp, #4]
 1898 0a40 0322     		movs	r2, #3
 1899 0a42 83F86420 		strb	r2, [r3, #100]
 1900              		.loc 1 665 0
 1901 0a46 0198     		ldr	r0, [sp, #4]
 1902 0a48 0021     		movs	r1, #0
 1903 0a4a 0022     		movs	r2, #0
 1904 0a4c 0023     		movs	r3, #0
 1905 0a4e FFF7FEFF 		bl	usbPrepareReceive
 1906              	.LBB8:
 1907              		.loc 1 666 0
 1908 0a52 2023     		movs	r3, #32
 1909              	@ 666 "/opt/R2P/core/ChibiOS_2.6.5/os/hal/src/usb.c" 1
 1910 0a54 83F31188 		msr     BASEPRI, r3
 1911              	@ 0 "" 2
 1912              		.thumb
 1913              	.LBE8:
 1914 0a58 FFF7FEFF 		bl	dbg_check_lock_from_isr
 1915              		.loc 1 667 0
 1916 0a5c 0198     		ldr	r0, [sp, #4]
 1917 0a5e 0021     		movs	r1, #0
 1918 0a60 FFF7FEFF 		bl	usbStartReceiveI
 1919              		.loc 1 668 0
 1920 0a64 FFF7FEFF 		bl	dbg_check_unlock_from_isr
 1921              	.LBB9:
 1922 0a68 0023     		movs	r3, #0
 1923              	@ 668 "/opt/R2P/core/ChibiOS_2.6.5/os/hal/src/usb.c" 1
 1924 0a6a 83F31188 		msr     BASEPRI, r3
 1925              	@ 0 "" 2
 1926              		.thumb
 1927 0a6e 36E0     		b	.L107
 1928              	.L114:
 1929              	.LBE9:
 1930              		.loc 1 676 0
 1931 0a70 019B     		ldr	r3, [sp, #4]
 1932 0a72 DB6E     		ldr	r3, [r3, #108]
 1933 0a74 002B     		cmp	r3, #0
 1934 0a76 1AD0     		beq	.L117
 1935              		.loc 1 678 0
 1936 0a78 019B     		ldr	r3, [sp, #4]
 1937 0a7a 0422     		movs	r2, #4
 1938 0a7c 83F86420 		strb	r2, [r3, #100]
 1939              		.loc 1 679 0
 1940 0a80 019B     		ldr	r3, [sp, #4]
 1941 0a82 9A6E     		ldr	r2, [r3, #104]
 1942 0a84 019B     		ldr	r3, [sp, #4]
 1943 0a86 DB6E     		ldr	r3, [r3, #108]
 1944 0a88 0198     		ldr	r0, [sp, #4]
 1945 0a8a 0021     		movs	r1, #0
 1946 0a8c FFF7FEFF 		bl	usbPrepareReceive
 1947              	.LBB10:
 1948              		.loc 1 680 0
ARM GAS  /tmp/cceJrrFk.s 			page 36


 1949 0a90 2023     		movs	r3, #32
 1950              	@ 680 "/opt/R2P/core/ChibiOS_2.6.5/os/hal/src/usb.c" 1
 1951 0a92 83F31188 		msr     BASEPRI, r3
 1952              	@ 0 "" 2
 1953              		.thumb
 1954              	.LBE10:
 1955 0a96 FFF7FEFF 		bl	dbg_check_lock_from_isr
 1956              		.loc 1 681 0
 1957 0a9a 0198     		ldr	r0, [sp, #4]
 1958 0a9c 0021     		movs	r1, #0
 1959 0a9e FFF7FEFF 		bl	usbStartReceiveI
 1960              		.loc 1 682 0
 1961 0aa2 FFF7FEFF 		bl	dbg_check_unlock_from_isr
 1962              	.LBB11:
 1963 0aa6 0023     		movs	r3, #0
 1964              	@ 682 "/opt/R2P/core/ChibiOS_2.6.5/os/hal/src/usb.c" 1
 1965 0aa8 83F31188 		msr     BASEPRI, r3
 1966              	@ 0 "" 2
 1967              		.thumb
 1968              	.LBE11:
 1969 0aac 17E0     		b	.L107
 1970              	.L117:
 1971              		.loc 1 687 0
 1972 0aae 019B     		ldr	r3, [sp, #4]
 1973 0ab0 0522     		movs	r2, #5
 1974 0ab2 83F86420 		strb	r2, [r3, #100]
 1975              		.loc 1 689 0
 1976 0ab6 0198     		ldr	r0, [sp, #4]
 1977 0ab8 0021     		movs	r1, #0
 1978 0aba 0022     		movs	r2, #0
 1979 0abc 0023     		movs	r3, #0
 1980 0abe FFF7FEFF 		bl	usbPrepareTransmit
 1981              	.LBB12:
 1982              		.loc 1 690 0
 1983 0ac2 2023     		movs	r3, #32
 1984              	@ 690 "/opt/R2P/core/ChibiOS_2.6.5/os/hal/src/usb.c" 1
 1985 0ac4 83F31188 		msr     BASEPRI, r3
 1986              	@ 0 "" 2
 1987              		.thumb
 1988              	.LBE12:
 1989 0ac8 FFF7FEFF 		bl	dbg_check_lock_from_isr
 1990              		.loc 1 691 0
 1991 0acc 0198     		ldr	r0, [sp, #4]
 1992 0ace 0021     		movs	r1, #0
 1993 0ad0 FFF7FEFF 		bl	usbStartTransmitI
 1994              		.loc 1 692 0
 1995 0ad4 FFF7FEFF 		bl	dbg_check_unlock_from_isr
 1996              	.LBB13:
 1997 0ad8 0023     		movs	r3, #0
 1998              	@ 692 "/opt/R2P/core/ChibiOS_2.6.5/os/hal/src/usb.c" 1
 1999 0ada 83F31188 		msr     BASEPRI, r3
 2000              	@ 0 "" 2
 2001              		.thumb
 2002              	.L107:
 2003              	.LBE13:
 2004              		.loc 1 698 0
 2005 0ade 05B0     		add	sp, sp, #20
ARM GAS  /tmp/cceJrrFk.s 			page 37


 2006              		.cfi_def_cfa_offset 4
 2007              		@ sp needed
 2008 0ae0 5DF804FB 		ldr	pc, [sp], #4
 2009              		.cfi_endproc
 2010              	.LFE135:
 2011              		.size	_usb_ep0setup, .-_usb_ep0setup
 2012              		.align	2
 2013              		.global	_usb_ep0in
 2014              		.thumb
 2015              		.thumb_func
 2016              		.type	_usb_ep0in, %function
 2017              	_usb_ep0in:
 2018              	.LFB136:
 2019              		.loc 1 710 0
 2020              		.cfi_startproc
 2021              		@ args = 0, pretend = 0, frame = 16
 2022              		@ frame_needed = 0, uses_anonymous_args = 0
 2023 0ae4 00B5     		push	{lr}
 2024              		.cfi_def_cfa_offset 4
 2025              		.cfi_offset 14, -4
 2026 0ae6 85B0     		sub	sp, sp, #20
 2027              		.cfi_def_cfa_offset 24
 2028 0ae8 0190     		str	r0, [sp, #4]
 2029 0aea 0B46     		mov	r3, r1
 2030 0aec 8DF80330 		strb	r3, [sp, #3]
 2031              		.loc 1 714 0
 2032 0af0 019B     		ldr	r3, [sp, #4]
 2033 0af2 93F86430 		ldrb	r3, [r3, #100]	@ zero_extendqisi2
 2034 0af6 022B     		cmp	r3, #2
 2035 0af8 37D0     		beq	.L120
 2036 0afa 052B     		cmp	r3, #5
 2037 0afc 4ED0     		beq	.L121
 2038 0afe 012B     		cmp	r3, #1
 2039 0b00 59D1     		bne	.L126
 2040              		.loc 1 716 0
 2041 0b02 019B     		ldr	r3, [sp, #4]
 2042 0b04 93F87A30 		ldrb	r3, [r3, #122]	@ zero_extendqisi2
 2043 0b08 1A46     		mov	r2, r3
 2044 0b0a 019B     		ldr	r3, [sp, #4]
 2045 0b0c 93F87B30 		ldrb	r3, [r3, #123]	@ zero_extendqisi2
 2046 0b10 1B02     		lsls	r3, r3, #8
 2047 0b12 1343     		orrs	r3, r3, r2
 2048 0b14 0393     		str	r3, [sp, #12]
 2049              		.loc 1 720 0
 2050 0b16 019B     		ldr	r3, [sp, #4]
 2051 0b18 DA6E     		ldr	r2, [r3, #108]
 2052 0b1a 039B     		ldr	r3, [sp, #12]
 2053 0b1c 9A42     		cmp	r2, r3
 2054 0b1e 24D2     		bcs	.L120
 2055              		.loc 1 720 0 is_stmt 0 discriminator 1
 2056 0b20 019B     		ldr	r3, [sp, #4]
 2057 0b22 DB6E     		ldr	r3, [r3, #108]
 2058 0b24 019A     		ldr	r2, [sp, #4]
 2059 0b26 D268     		ldr	r2, [r2, #12]
 2060 0b28 128A     		ldrh	r2, [r2, #16]
 2061 0b2a B3FBF2F1 		udiv	r1, r3, r2
 2062 0b2e 02FB01F2 		mul	r2, r2, r1
ARM GAS  /tmp/cceJrrFk.s 			page 38


 2063 0b32 9B1A     		subs	r3, r3, r2
 2064 0b34 002B     		cmp	r3, #0
 2065 0b36 18D1     		bne	.L120
 2066              		.loc 1 721 0 is_stmt 1
 2067 0b38 0198     		ldr	r0, [sp, #4]
 2068 0b3a 0021     		movs	r1, #0
 2069 0b3c 0022     		movs	r2, #0
 2070 0b3e 0023     		movs	r3, #0
 2071 0b40 FFF7FEFF 		bl	usbPrepareTransmit
 2072              	.LBB14:
 2073              		.loc 1 722 0
 2074 0b44 2023     		movs	r3, #32
 2075              	@ 722 "/opt/R2P/core/ChibiOS_2.6.5/os/hal/src/usb.c" 1
 2076 0b46 83F31188 		msr     BASEPRI, r3
 2077              	@ 0 "" 2
 2078              		.thumb
 2079              	.LBE14:
 2080 0b4a FFF7FEFF 		bl	dbg_check_lock_from_isr
 2081              		.loc 1 723 0
 2082 0b4e 0198     		ldr	r0, [sp, #4]
 2083 0b50 0021     		movs	r1, #0
 2084 0b52 FFF7FEFF 		bl	usbStartTransmitI
 2085              		.loc 1 724 0
 2086 0b56 FFF7FEFF 		bl	dbg_check_unlock_from_isr
 2087              	.LBB15:
 2088 0b5a 0023     		movs	r3, #0
 2089              	@ 724 "/opt/R2P/core/ChibiOS_2.6.5/os/hal/src/usb.c" 1
 2090 0b5c 83F31188 		msr     BASEPRI, r3
 2091              	@ 0 "" 2
 2092              		.thumb
 2093              	.LBE15:
 2094              		.loc 1 725 0
 2095 0b60 019B     		ldr	r3, [sp, #4]
 2096 0b62 0222     		movs	r2, #2
 2097 0b64 83F86420 		strb	r2, [r3, #100]
 2098              		.loc 1 726 0
 2099 0b68 3CE0     		b	.L118
 2100              	.L120:
 2101              		.loc 1 731 0
 2102 0b6a 019B     		ldr	r3, [sp, #4]
 2103 0b6c 0322     		movs	r2, #3
 2104 0b6e 83F86420 		strb	r2, [r3, #100]
 2105              		.loc 1 733 0
 2106 0b72 0198     		ldr	r0, [sp, #4]
 2107 0b74 0021     		movs	r1, #0
 2108 0b76 0022     		movs	r2, #0
 2109 0b78 0023     		movs	r3, #0
 2110 0b7a FFF7FEFF 		bl	usbPrepareReceive
 2111              	.LBB16:
 2112              		.loc 1 734 0
 2113 0b7e 2023     		movs	r3, #32
 2114              	@ 734 "/opt/R2P/core/ChibiOS_2.6.5/os/hal/src/usb.c" 1
 2115 0b80 83F31188 		msr     BASEPRI, r3
 2116              	@ 0 "" 2
 2117              		.thumb
 2118              	.LBE16:
 2119 0b84 FFF7FEFF 		bl	dbg_check_lock_from_isr
ARM GAS  /tmp/cceJrrFk.s 			page 39


 2120              		.loc 1 735 0
 2121 0b88 0198     		ldr	r0, [sp, #4]
 2122 0b8a 0021     		movs	r1, #0
 2123 0b8c FFF7FEFF 		bl	usbStartReceiveI
 2124              		.loc 1 736 0
 2125 0b90 FFF7FEFF 		bl	dbg_check_unlock_from_isr
 2126              	.LBB17:
 2127 0b94 0023     		movs	r3, #0
 2128              	@ 736 "/opt/R2P/core/ChibiOS_2.6.5/os/hal/src/usb.c" 1
 2129 0b96 83F31188 		msr     BASEPRI, r3
 2130              	@ 0 "" 2
 2131              		.thumb
 2132              	.LBE17:
 2133              		.loc 1 740 0
 2134 0b9a 23E0     		b	.L118
 2135              	.L121:
 2136              		.loc 1 743 0
 2137 0b9c 019B     		ldr	r3, [sp, #4]
 2138 0b9e 1B6F     		ldr	r3, [r3, #112]
 2139 0ba0 002B     		cmp	r3, #0
 2140 0ba2 03D0     		beq	.L124
 2141              		.loc 1 744 0
 2142 0ba4 019B     		ldr	r3, [sp, #4]
 2143 0ba6 1B6F     		ldr	r3, [r3, #112]
 2144 0ba8 0198     		ldr	r0, [sp, #4]
 2145 0baa 9847     		blx	r3
 2146              	.L124:
 2147              		.loc 1 745 0
 2148 0bac 019B     		ldr	r3, [sp, #4]
 2149 0bae 0022     		movs	r2, #0
 2150 0bb0 83F86420 		strb	r2, [r3, #100]
 2151              		.loc 1 746 0
 2152 0bb4 16E0     		b	.L118
 2153              	.L126:
 2154              		.loc 1 753 0
 2155 0bb6 0198     		ldr	r0, [sp, #4]
 2156 0bb8 0021     		movs	r1, #0
 2157 0bba FFF7FEFF 		bl	usb_lld_stall_in
 2158              		.loc 1 754 0
 2159 0bbe 0198     		ldr	r0, [sp, #4]
 2160 0bc0 0021     		movs	r1, #0
 2161 0bc2 FFF7FEFF 		bl	usb_lld_stall_out
 2162              		.loc 1 755 0
 2163 0bc6 019B     		ldr	r3, [sp, #4]
 2164 0bc8 5B68     		ldr	r3, [r3, #4]
 2165 0bca 1B68     		ldr	r3, [r3]
 2166 0bcc 002B     		cmp	r3, #0
 2167 0bce 05D0     		beq	.L125
 2168              		.loc 1 755 0 is_stmt 0 discriminator 1
 2169 0bd0 019B     		ldr	r3, [sp, #4]
 2170 0bd2 5B68     		ldr	r3, [r3, #4]
 2171 0bd4 1B68     		ldr	r3, [r3]
 2172 0bd6 0198     		ldr	r0, [sp, #4]
 2173 0bd8 0521     		movs	r1, #5
 2174 0bda 9847     		blx	r3
 2175              	.L125:
 2176              		.loc 1 756 0 is_stmt 1
ARM GAS  /tmp/cceJrrFk.s 			page 40


 2177 0bdc 019B     		ldr	r3, [sp, #4]
 2178 0bde 0622     		movs	r2, #6
 2179 0be0 83F86420 		strb	r2, [r3, #100]
 2180              	.L118:
 2181              		.loc 1 757 0
 2182 0be4 05B0     		add	sp, sp, #20
 2183              		.cfi_def_cfa_offset 4
 2184              		@ sp needed
 2185 0be6 5DF804FB 		ldr	pc, [sp], #4
 2186              		.cfi_endproc
 2187              	.LFE136:
 2188              		.size	_usb_ep0in, .-_usb_ep0in
 2189 0bea 00BF     		.align	2
 2190              		.global	_usb_ep0out
 2191              		.thumb
 2192              		.thumb_func
 2193              		.type	_usb_ep0out, %function
 2194              	_usb_ep0out:
 2195              	.LFB137:
 2196              		.loc 1 769 0
 2197              		.cfi_startproc
 2198              		@ args = 0, pretend = 0, frame = 8
 2199              		@ frame_needed = 0, uses_anonymous_args = 0
 2200 0bec 00B5     		push	{lr}
 2201              		.cfi_def_cfa_offset 4
 2202              		.cfi_offset 14, -4
 2203 0bee 83B0     		sub	sp, sp, #12
 2204              		.cfi_def_cfa_offset 16
 2205 0bf0 0190     		str	r0, [sp, #4]
 2206 0bf2 0B46     		mov	r3, r1
 2207 0bf4 8DF80330 		strb	r3, [sp, #3]
 2208              		.loc 1 772 0
 2209 0bf8 019B     		ldr	r3, [sp, #4]
 2210 0bfa 93F86430 		ldrb	r3, [r3, #100]	@ zero_extendqisi2
 2211 0bfe 032B     		cmp	r3, #3
 2212 0c00 1AD0     		beq	.L129
 2213 0c02 042B     		cmp	r3, #4
 2214 0c04 2CD1     		bne	.L128
 2215              		.loc 1 775 0
 2216 0c06 019B     		ldr	r3, [sp, #4]
 2217 0c08 0522     		movs	r2, #5
 2218 0c0a 83F86420 		strb	r2, [r3, #100]
 2219              		.loc 1 777 0
 2220 0c0e 0198     		ldr	r0, [sp, #4]
 2221 0c10 0021     		movs	r1, #0
 2222 0c12 0022     		movs	r2, #0
 2223 0c14 0023     		movs	r3, #0
 2224 0c16 FFF7FEFF 		bl	usbPrepareTransmit
 2225              	.LBB18:
 2226              		.loc 1 778 0
 2227 0c1a 2023     		movs	r3, #32
 2228              	@ 778 "/opt/R2P/core/ChibiOS_2.6.5/os/hal/src/usb.c" 1
 2229 0c1c 83F31188 		msr     BASEPRI, r3
 2230              	@ 0 "" 2
 2231              		.thumb
 2232              	.LBE18:
 2233 0c20 FFF7FEFF 		bl	dbg_check_lock_from_isr
ARM GAS  /tmp/cceJrrFk.s 			page 41


 2234              		.loc 1 779 0
 2235 0c24 0198     		ldr	r0, [sp, #4]
 2236 0c26 0021     		movs	r1, #0
 2237 0c28 FFF7FEFF 		bl	usbStartTransmitI
 2238              		.loc 1 780 0
 2239 0c2c FFF7FEFF 		bl	dbg_check_unlock_from_isr
 2240              	.LBB19:
 2241 0c30 0023     		movs	r3, #0
 2242              	@ 780 "/opt/R2P/core/ChibiOS_2.6.5/os/hal/src/usb.c" 1
 2243 0c32 83F31188 		msr     BASEPRI, r3
 2244              	@ 0 "" 2
 2245              		.thumb
 2246              	.LBE19:
 2247              		.loc 1 784 0
 2248 0c36 2AE0     		b	.L127
 2249              	.L129:
 2250              		.loc 1 789 0
 2251 0c38 019B     		ldr	r3, [sp, #4]
 2252 0c3a DB68     		ldr	r3, [r3, #12]
 2253 0c3c 9B69     		ldr	r3, [r3, #24]
 2254 0c3e 9B68     		ldr	r3, [r3, #8]
 2255 0c40 002B     		cmp	r3, #0
 2256 0c42 00D0     		beq	.L132
 2257              		.loc 1 790 0
 2258 0c44 0CE0     		b	.L128
 2259              	.L132:
 2260              		.loc 1 792 0
 2261 0c46 019B     		ldr	r3, [sp, #4]
 2262 0c48 1B6F     		ldr	r3, [r3, #112]
 2263 0c4a 002B     		cmp	r3, #0
 2264 0c4c 03D0     		beq	.L133
 2265              		.loc 1 793 0
 2266 0c4e 019B     		ldr	r3, [sp, #4]
 2267 0c50 1B6F     		ldr	r3, [r3, #112]
 2268 0c52 0198     		ldr	r0, [sp, #4]
 2269 0c54 9847     		blx	r3
 2270              	.L133:
 2271              		.loc 1 794 0
 2272 0c56 019B     		ldr	r3, [sp, #4]
 2273 0c58 0022     		movs	r2, #0
 2274 0c5a 83F86420 		strb	r2, [r3, #100]
 2275              		.loc 1 795 0
 2276 0c5e 16E0     		b	.L127
 2277              	.L128:
 2278              		.loc 1 802 0
 2279 0c60 0198     		ldr	r0, [sp, #4]
 2280 0c62 0021     		movs	r1, #0
 2281 0c64 FFF7FEFF 		bl	usb_lld_stall_in
 2282              		.loc 1 803 0
 2283 0c68 0198     		ldr	r0, [sp, #4]
 2284 0c6a 0021     		movs	r1, #0
 2285 0c6c FFF7FEFF 		bl	usb_lld_stall_out
 2286              		.loc 1 804 0
 2287 0c70 019B     		ldr	r3, [sp, #4]
 2288 0c72 5B68     		ldr	r3, [r3, #4]
 2289 0c74 1B68     		ldr	r3, [r3]
 2290 0c76 002B     		cmp	r3, #0
ARM GAS  /tmp/cceJrrFk.s 			page 42


 2291 0c78 05D0     		beq	.L134
 2292              		.loc 1 804 0 is_stmt 0 discriminator 1
 2293 0c7a 019B     		ldr	r3, [sp, #4]
 2294 0c7c 5B68     		ldr	r3, [r3, #4]
 2295 0c7e 1B68     		ldr	r3, [r3]
 2296 0c80 0198     		ldr	r0, [sp, #4]
 2297 0c82 0521     		movs	r1, #5
 2298 0c84 9847     		blx	r3
 2299              	.L134:
 2300              		.loc 1 805 0 is_stmt 1
 2301 0c86 019B     		ldr	r3, [sp, #4]
 2302 0c88 0622     		movs	r2, #6
 2303 0c8a 83F86420 		strb	r2, [r3, #100]
 2304              	.L127:
 2305              		.loc 1 806 0
 2306 0c8e 03B0     		add	sp, sp, #12
 2307              		.cfi_def_cfa_offset 4
 2308              		@ sp needed
 2309 0c90 5DF804FB 		ldr	pc, [sp], #4
 2310              		.cfi_endproc
 2311              	.LFE137:
 2312              		.size	_usb_ep0out, .-_usb_ep0out
 2313              	.Letext0:
 2314              		.file 2 "/opt/R2P/tools/gcc-arm-none-eabi-4_9-2014q4/lib/gcc/arm-none-eabi/4.9.3/include/stddef.h"
 2315              		.file 3 "/opt/R2P/tools/gcc-arm-none-eabi-4_9-2014q4/arm-none-eabi/include/machine/_default_types.
 2316              		.file 4 "/opt/R2P/tools/gcc-arm-none-eabi-4_9-2014q4/arm-none-eabi/include/stdint.h"
 2317              		.file 5 "/opt/R2P/core/ChibiOS_2.6.5/os/ports/GCC/ARMCMx/chtypes.h"
 2318              		.file 6 "/opt/R2P/core/ChibiOS_2.6.5/os/kernel/include/chlists.h"
 2319              		.file 7 "/opt/R2P/core/ChibiOS_2.6.5/os/kernel/include/chthreads.h"
 2320              		.file 8 "/opt/R2P/core/ChibiOS_2.6.5/os/ports/GCC/ARMCMx/chcore_v7m.h"
 2321              		.file 9 "/opt/R2P/core/ChibiOS_2.6.5/os/kernel/include/chmtx.h"
 2322              		.file 10 "/opt/R2P/core/ChibiOS_2.6.5/os/kernel/include/chqueues.h"
 2323              		.file 11 "/opt/R2P/core/ChibiOS_2.6.5/os/hal/include/usb.h"
 2324              		.file 12 "/opt/R2P/core/ChibiOS_2.6.5/os/hal/platforms/STM32/USBv1/usb_lld.h"
 2325              		.file 13 "/opt/R2P/core/ChibiOS_2.6.5/os/ports/common/ARMCMx/CMSIS/include/core_cm4.h"