ARM GAS  /tmp/cceJrrFk.s 			page 1


   1              		.syntax unified
   2              		.cpu cortex-m4
   3              		.fpu softvfp
   4              		.eabi_attribute 20, 1
   5              		.eabi_attribute 21, 1
   6              		.eabi_attribute 23, 3
   7              		.eabi_attribute 24, 1
   8              		.eabi_attribute 25, 1
   9              		.eabi_attribute 26, 1
  10              		.eabi_attribute 30, 6
  11              		.eabi_attribute 34, 1
  12              		.eabi_attribute 18, 4
  13              		.thumb
  14              		.file	"usb.c"
  15              		.text
  16              	.Ltext0:
  17              		.cfi_sections	.debug_frame
  18              		.section	.rodata
  19              		.align	2
  20              		.type	zero_status, %object
  21              		.size	zero_status, 2
  22              	zero_status:
  23 0000 0000     		.space	2
  24 0002 0000     		.align	2
  25              		.type	active_status, %object
  26              		.size	active_status, 2
  27              	active_status:
  28 0004 0000     		.space	2
  29 0006 0000     		.align	2
  30              		.type	halted_status, %object
  31              		.size	halted_status, 2
  32              	halted_status:
  33 0008 01       		.byte	1
  34 0009 00       		.byte	0
  35              		.text
  36              		.align	2
  37              		.thumb
  38              		.thumb_func
  39              		.type	set_address, %function
  40              	set_address:
  41              	.LFB118:
  42              		.file 1 "/opt/R2P/core/ChibiOS_2.6.5/os/hal/src/usb.c"
  43              		.loc 1 69 0
  44              		.cfi_startproc
  45              		@ args = 0, pretend = 0, frame = 8
  46              		@ frame_needed = 0, uses_anonymous_args = 0
  47 0000 00B5     		push	{lr}
  48              		.cfi_def_cfa_offset 4
  49              		.cfi_offset 14, -4
  50 0002 83B0     		sub	sp, sp, #12
  51              		.cfi_def_cfa_offset 16
  52 0004 0190     		str	r0, [sp, #4]
  53              		.loc 1 71 0
  54 0006 019B     		ldr	r3, [sp, #4]
  55 0008 93F87620 		ldrb	r2, [r3, #118]	@ zero_extendqisi2
  56 000c 019B     		ldr	r3, [sp, #4]
  57 000e 83F87E20 		strb	r2, [r3, #126]
ARM GAS  /tmp/cceJrrFk.s 			page 2


  58              		.loc 1 72 0
  59 0012 0198     		ldr	r0, [sp, #4]
  60 0014 FFF7FEFF 		bl	usb_lld_set_address
  61              		.loc 1 73 0
  62 0018 019B     		ldr	r3, [sp, #4]
  63 001a 5B68     		ldr	r3, [r3, #4]
  64 001c 1B68     		ldr	r3, [r3]
  65 001e 002B     		cmp	r3, #0
  66 0020 05D0     		beq	.L2
  67              		.loc 1 73 0 is_stmt 0 discriminator 1
  68 0022 019B     		ldr	r3, [sp, #4]
  69 0024 5B68     		ldr	r3, [r3, #4]
  70 0026 1B68     		ldr	r3, [r3]
  71 0028 0198     		ldr	r0, [sp, #4]
  72 002a 0121     		movs	r1, #1
  73 002c 9847     		blx	r3
  74              	.L2:
  75              		.loc 1 74 0 is_stmt 1
  76 002e 019B     		ldr	r3, [sp, #4]
  77 0030 0322     		movs	r2, #3
  78 0032 1A70     		strb	r2, [r3]
  79              		.loc 1 75 0
  80 0034 03B0     		add	sp, sp, #12
  81              		.cfi_def_cfa_offset 4
  82              		@ sp needed
  83 0036 5DF804FB 		ldr	pc, [sp], #4
  84              		.cfi_endproc
  85              	.LFE118:
  86              		.size	set_address, .-set_address
  87 003a 00BF     		.align	2
  88              		.thumb
  89              		.thumb_func
  90              		.type	default_handler, %function
  91              	default_handler:
  92              	.LFB119:
  93              		.loc 1 89 0
  94              		.cfi_startproc
  95              		@ args = 0, pretend = 0, frame = 16
  96              		@ frame_needed = 0, uses_anonymous_args = 0
  97 003c 10B5     		push	{r4, lr}
  98              		.cfi_def_cfa_offset 8
  99              		.cfi_offset 4, -8
 100              		.cfi_offset 14, -4
 101 003e 84B0     		sub	sp, sp, #16
 102              		.cfi_def_cfa_offset 24
 103 0040 0190     		str	r0, [sp, #4]
 104              		.loc 1 93 0
 105 0042 019B     		ldr	r3, [sp, #4]
 106 0044 93F87430 		ldrb	r3, [r3, #116]	@ zero_extendqisi2
 107 0048 03F07F02 		and	r2, r3, #127
 108              		.loc 1 95 0
 109 004c 019B     		ldr	r3, [sp, #4]
 110 004e 93F87530 		ldrb	r3, [r3, #117]	@ zero_extendqisi2
 111 0052 1B02     		lsls	r3, r3, #8
 112              		.loc 1 94 0
 113 0054 1343     		orrs	r3, r3, r2
 114              		.loc 1 93 0
ARM GAS  /tmp/cceJrrFk.s 			page 3


 115 0056 B3F5407F 		cmp	r3, #768
 116 005a 59D0     		beq	.L5
 117 005c B3F5407F 		cmp	r3, #768
 118 0060 12DC     		bgt	.L6
 119 0062 022B     		cmp	r3, #2
 120 0064 00F0E480 		beq	.L7
 121 0068 022B     		cmp	r3, #2
 122 006a 05DC     		bgt	.L8
 123 006c 002B     		cmp	r3, #0
 124 006e 27D0     		beq	.L9
 125 0070 012B     		cmp	r3, #1
 126 0072 00F0D280 		beq	.L10
 127 0076 9CE1     		b	.L4
 128              	.L8:
 129 0078 B3F5807F 		cmp	r3, #256
 130 007c 2DD0     		beq	.L11
 131 007e B3F5817F 		cmp	r3, #258
 132 0082 00F02C81 		beq	.L12
 133 0086 94E1     		b	.L4
 134              	.L6:
 135 0088 B3F5C06F 		cmp	r3, #1536
 136 008c 66D0     		beq	.L13
 137 008e B3F5C06F 		cmp	r3, #1536
 138 0092 08DC     		bgt	.L14
 139 0094 40F20232 		movw	r2, #770
 140 0098 9342     		cmp	r3, r2
 141 009a 00F05581 		beq	.L15
 142 009e B3F5A06F 		cmp	r3, #1280
 143 00a2 50D0     		beq	.L16
 144 00a4 85E1     		b	.L4
 145              	.L14:
 146 00a6 B3F5106F 		cmp	r3, #2304
 147 00aa 00F08E80 		beq	.L17
 148 00ae 40F60242 		movw	r2, #3074
 149 00b2 9342     		cmp	r3, r2
 150 00b4 00F0B180 		beq	.L10
 151 00b8 B3F5006F 		cmp	r3, #2048
 152 00bc 78D0     		beq	.L18
 153 00be 78E1     		b	.L4
 154              	.L9:
 155              		.loc 1 98 0
 156 00c0 019B     		ldr	r3, [sp, #4]
 157 00c2 03F17C02 		add	r2, r3, #124
 158 00c6 019B     		ldr	r3, [sp, #4]
 159 00c8 9A66     		str	r2, [r3, #104]
 160 00ca 019B     		ldr	r3, [sp, #4]
 161 00cc 0222     		movs	r2, #2
 162 00ce DA66     		str	r2, [r3, #108]
 163 00d0 019B     		ldr	r3, [sp, #4]
 164 00d2 0022     		movs	r2, #0
 165 00d4 1A67     		str	r2, [r3, #112]
 166              		.loc 1 99 0
 167 00d6 0123     		movs	r3, #1
 168 00d8 6CE1     		b	.L19
 169              	.L11:
 170              		.loc 1 103 0
 171 00da 019B     		ldr	r3, [sp, #4]
ARM GAS  /tmp/cceJrrFk.s 			page 4


 172 00dc 93F87630 		ldrb	r3, [r3, #118]	@ zero_extendqisi2
 173 00e0 012B     		cmp	r3, #1
 174 00e2 13D1     		bne	.L20
 175              		.loc 1 104 0
 176 00e4 019B     		ldr	r3, [sp, #4]
 177 00e6 B3F87C30 		ldrh	r3, [r3, #124]
 178 00ea 23F00203 		bic	r3, r3, #2
 179 00ee 9AB2     		uxth	r2, r3
 180 00f0 019B     		ldr	r3, [sp, #4]
 181 00f2 A3F87C20 		strh	r2, [r3, #124]	@ movhi
 182              		.loc 1 105 0
 183 00f6 019B     		ldr	r3, [sp, #4]
 184 00f8 0022     		movs	r2, #0
 185 00fa 9A66     		str	r2, [r3, #104]
 186 00fc 019B     		ldr	r3, [sp, #4]
 187 00fe 0022     		movs	r2, #0
 188 0100 DA66     		str	r2, [r3, #108]
 189 0102 019B     		ldr	r3, [sp, #4]
 190 0104 0022     		movs	r2, #0
 191 0106 1A67     		str	r2, [r3, #112]
 192              		.loc 1 106 0
 193 0108 0123     		movs	r3, #1
 194 010a 53E1     		b	.L19
 195              	.L20:
 196              		.loc 1 108 0
 197 010c 0023     		movs	r3, #0
 198 010e 51E1     		b	.L19
 199              	.L5:
 200              		.loc 1 112 0
 201 0110 019B     		ldr	r3, [sp, #4]
 202 0112 93F87630 		ldrb	r3, [r3, #118]	@ zero_extendqisi2
 203 0116 012B     		cmp	r3, #1
 204 0118 13D1     		bne	.L21
 205              		.loc 1 113 0
 206 011a 019B     		ldr	r3, [sp, #4]
 207 011c B3F87C30 		ldrh	r3, [r3, #124]
 208 0120 43F00203 		orr	r3, r3, #2
 209 0124 9AB2     		uxth	r2, r3
 210 0126 019B     		ldr	r3, [sp, #4]
 211 0128 A3F87C20 		strh	r2, [r3, #124]	@ movhi
 212              		.loc 1 114 0
 213 012c 019B     		ldr	r3, [sp, #4]
 214 012e 0022     		movs	r2, #0
 215 0130 9A66     		str	r2, [r3, #104]
 216 0132 019B     		ldr	r3, [sp, #4]
 217 0134 0022     		movs	r2, #0
 218 0136 DA66     		str	r2, [r3, #108]
 219 0138 019B     		ldr	r3, [sp, #4]
 220 013a 0022     		movs	r2, #0
 221 013c 1A67     		str	r2, [r3, #112]
 222              		.loc 1 115 0
 223 013e 0123     		movs	r3, #1
 224 0140 38E1     		b	.L19
 225              	.L21:
 226              		.loc 1 117 0
 227 0142 0023     		movs	r3, #0
 228 0144 36E1     		b	.L19
ARM GAS  /tmp/cceJrrFk.s 			page 5


 229              	.L16:
 230              		.loc 1 128 0
 231 0146 019B     		ldr	r3, [sp, #4]
 232 0148 0022     		movs	r2, #0
 233 014a 9A66     		str	r2, [r3, #104]
 234 014c 019B     		ldr	r3, [sp, #4]
 235 014e 0022     		movs	r2, #0
 236 0150 DA66     		str	r2, [r3, #108]
 237 0152 019B     		ldr	r3, [sp, #4]
 238 0154 994A     		ldr	r2, .L41
 239 0156 1A67     		str	r2, [r3, #112]
 240              		.loc 1 130 0
 241 0158 0123     		movs	r3, #1
 242 015a 2BE1     		b	.L19
 243              	.L13:
 244              		.loc 1 133 0
 245 015c 019B     		ldr	r3, [sp, #4]
 246 015e 5B68     		ldr	r3, [r3, #4]
 247 0160 5C68     		ldr	r4, [r3, #4]
 248 0162 019B     		ldr	r3, [sp, #4]
 249 0164 93F87710 		ldrb	r1, [r3, #119]	@ zero_extendqisi2
 250 0168 019B     		ldr	r3, [sp, #4]
 251 016a 93F87620 		ldrb	r2, [r3, #118]	@ zero_extendqisi2
 252              		.loc 1 135 0
 253 016e 019B     		ldr	r3, [sp, #4]
 254 0170 93F87830 		ldrb	r3, [r3, #120]	@ zero_extendqisi2
 255              		.loc 1 133 0
 256 0174 98B2     		uxth	r0, r3
 257              		.loc 1 135 0
 258 0176 019B     		ldr	r3, [sp, #4]
 259 0178 93F87930 		ldrb	r3, [r3, #121]	@ zero_extendqisi2
 260 017c 1B02     		lsls	r3, r3, #8
 261              		.loc 1 133 0
 262 017e 9BB2     		uxth	r3, r3
 263 0180 0343     		orrs	r3, r3, r0
 264 0182 9BB2     		uxth	r3, r3
 265 0184 9BB2     		uxth	r3, r3
 266 0186 0198     		ldr	r0, [sp, #4]
 267 0188 A047     		blx	r4
 268 018a 0390     		str	r0, [sp, #12]
 269              		.loc 1 136 0
 270 018c 039B     		ldr	r3, [sp, #12]
 271 018e 002B     		cmp	r3, #0
 272 0190 01D1     		bne	.L22
 273              		.loc 1 137 0
 274 0192 0023     		movs	r3, #0
 275 0194 0EE1     		b	.L19
 276              	.L22:
 277              		.loc 1 138 0
 278 0196 039B     		ldr	r3, [sp, #12]
 279 0198 5A68     		ldr	r2, [r3, #4]
 280 019a 019B     		ldr	r3, [sp, #4]
 281 019c 9A66     		str	r2, [r3, #104]
 282 019e 039B     		ldr	r3, [sp, #12]
 283 01a0 1A68     		ldr	r2, [r3]
 284 01a2 019B     		ldr	r3, [sp, #4]
 285 01a4 DA66     		str	r2, [r3, #108]
ARM GAS  /tmp/cceJrrFk.s 			page 6


 286 01a6 019B     		ldr	r3, [sp, #4]
 287 01a8 0022     		movs	r2, #0
 288 01aa 1A67     		str	r2, [r3, #112]
 289              		.loc 1 139 0
 290 01ac 0123     		movs	r3, #1
 291 01ae 01E1     		b	.L19
 292              	.L18:
 293              		.loc 1 142 0
 294 01b0 019B     		ldr	r3, [sp, #4]
 295 01b2 03F17F02 		add	r2, r3, #127
 296 01b6 019B     		ldr	r3, [sp, #4]
 297 01b8 9A66     		str	r2, [r3, #104]
 298 01ba 019B     		ldr	r3, [sp, #4]
 299 01bc 0122     		movs	r2, #1
 300 01be DA66     		str	r2, [r3, #108]
 301 01c0 019B     		ldr	r3, [sp, #4]
 302 01c2 0022     		movs	r2, #0
 303 01c4 1A67     		str	r2, [r3, #112]
 304              		.loc 1 143 0
 305 01c6 0123     		movs	r3, #1
 306 01c8 F4E0     		b	.L19
 307              	.L17:
 308              		.loc 1 146 0
 309 01ca 019B     		ldr	r3, [sp, #4]
 310 01cc 93F87620 		ldrb	r2, [r3, #118]	@ zero_extendqisi2
 311 01d0 019B     		ldr	r3, [sp, #4]
 312 01d2 83F87F20 		strb	r2, [r3, #127]
 313              		.loc 1 147 0
 314 01d6 019B     		ldr	r3, [sp, #4]
 315 01d8 93F87F30 		ldrb	r3, [r3, #127]	@ zero_extendqisi2
 316 01dc 002B     		cmp	r3, #0
 317 01de 03D1     		bne	.L23
 318              		.loc 1 148 0
 319 01e0 019B     		ldr	r3, [sp, #4]
 320 01e2 0322     		movs	r2, #3
 321 01e4 1A70     		strb	r2, [r3]
 322 01e6 02E0     		b	.L24
 323              	.L23:
 324              		.loc 1 150 0
 325 01e8 019B     		ldr	r3, [sp, #4]
 326 01ea 0422     		movs	r2, #4
 327 01ec 1A70     		strb	r2, [r3]
 328              	.L24:
 329              		.loc 1 151 0
 330 01ee 019B     		ldr	r3, [sp, #4]
 331 01f0 5B68     		ldr	r3, [r3, #4]
 332 01f2 1B68     		ldr	r3, [r3]
 333 01f4 002B     		cmp	r3, #0
 334 01f6 05D0     		beq	.L25
 335              		.loc 1 151 0 is_stmt 0 discriminator 1
 336 01f8 019B     		ldr	r3, [sp, #4]
 337 01fa 5B68     		ldr	r3, [r3, #4]
 338 01fc 1B68     		ldr	r3, [r3]
 339 01fe 0198     		ldr	r0, [sp, #4]
 340 0200 0221     		movs	r1, #2
 341 0202 9847     		blx	r3
 342              	.L25:
ARM GAS  /tmp/cceJrrFk.s 			page 7


 343              		.loc 1 152 0 is_stmt 1
 344 0204 019B     		ldr	r3, [sp, #4]
 345 0206 0022     		movs	r2, #0
 346 0208 9A66     		str	r2, [r3, #104]
 347 020a 019B     		ldr	r3, [sp, #4]
 348 020c 0022     		movs	r2, #0
 349 020e DA66     		str	r2, [r3, #108]
 350 0210 019B     		ldr	r3, [sp, #4]
 351 0212 0022     		movs	r2, #0
 352 0214 1A67     		str	r2, [r3, #112]
 353              		.loc 1 153 0
 354 0216 0123     		movs	r3, #1
 355 0218 CCE0     		b	.L19
 356              	.L10:
 357              		.loc 1 158 0
 358 021a 019B     		ldr	r3, [sp, #4]
 359 021c 684A     		ldr	r2, .L41+4
 360 021e 9A66     		str	r2, [r3, #104]
 361 0220 019B     		ldr	r3, [sp, #4]
 362 0222 0222     		movs	r2, #2
 363 0224 DA66     		str	r2, [r3, #108]
 364 0226 019B     		ldr	r3, [sp, #4]
 365 0228 0022     		movs	r2, #0
 366 022a 1A67     		str	r2, [r3, #112]
 367              		.loc 1 159 0
 368 022c 0123     		movs	r3, #1
 369 022e C1E0     		b	.L19
 370              	.L7:
 371              		.loc 1 162 0
 372 0230 019B     		ldr	r3, [sp, #4]
 373 0232 93F87830 		ldrb	r3, [r3, #120]	@ zero_extendqisi2
 374 0236 DBB2     		uxtb	r3, r3
 375 0238 5BB2     		sxtb	r3, r3
 376 023a 002B     		cmp	r3, #0
 377 023c 27DA     		bge	.L26
 378              		.loc 1 163 0
 379 023e 019B     		ldr	r3, [sp, #4]
 380 0240 93F87830 		ldrb	r3, [r3, #120]	@ zero_extendqisi2
 381 0244 03F00F03 		and	r3, r3, #15
 382 0248 DBB2     		uxtb	r3, r3
 383 024a 0198     		ldr	r0, [sp, #4]
 384 024c 1946     		mov	r1, r3
 385 024e FFF7FEFF 		bl	usb_lld_get_status_in
 386 0252 0346     		mov	r3, r0
 387 0254 012B     		cmp	r3, #1
 388 0256 02D0     		beq	.L28
 389 0258 022B     		cmp	r3, #2
 390 025a 0BD0     		beq	.L29
 391 025c 15E0     		b	.L39
 392              	.L28:
 393              		.loc 1 165 0
 394 025e 019B     		ldr	r3, [sp, #4]
 395 0260 584A     		ldr	r2, .L41+8
 396 0262 9A66     		str	r2, [r3, #104]
 397 0264 019B     		ldr	r3, [sp, #4]
 398 0266 0222     		movs	r2, #2
 399 0268 DA66     		str	r2, [r3, #108]
ARM GAS  /tmp/cceJrrFk.s 			page 8


 400 026a 019B     		ldr	r3, [sp, #4]
 401 026c 0022     		movs	r2, #0
 402 026e 1A67     		str	r2, [r3, #112]
 403              		.loc 1 166 0
 404 0270 0123     		movs	r3, #1
 405 0272 9FE0     		b	.L19
 406              	.L29:
 407              		.loc 1 168 0
 408 0274 019B     		ldr	r3, [sp, #4]
 409 0276 544A     		ldr	r2, .L41+12
 410 0278 9A66     		str	r2, [r3, #104]
 411 027a 019B     		ldr	r3, [sp, #4]
 412 027c 0222     		movs	r2, #2
 413 027e DA66     		str	r2, [r3, #108]
 414 0280 019B     		ldr	r3, [sp, #4]
 415 0282 0022     		movs	r2, #0
 416 0284 1A67     		str	r2, [r3, #112]
 417              		.loc 1 169 0
 418 0286 0123     		movs	r3, #1
 419 0288 94E0     		b	.L19
 420              	.L39:
 421              		.loc 1 171 0
 422 028a 0023     		movs	r3, #0
 423 028c 92E0     		b	.L19
 424              	.L26:
 425              		.loc 1 175 0
 426 028e 019B     		ldr	r3, [sp, #4]
 427 0290 93F87830 		ldrb	r3, [r3, #120]	@ zero_extendqisi2
 428 0294 03F00F03 		and	r3, r3, #15
 429 0298 DBB2     		uxtb	r3, r3
 430 029a 0198     		ldr	r0, [sp, #4]
 431 029c 1946     		mov	r1, r3
 432 029e FFF7FEFF 		bl	usb_lld_get_status_out
 433 02a2 0346     		mov	r3, r0
 434 02a4 012B     		cmp	r3, #1
 435 02a6 02D0     		beq	.L31
 436 02a8 022B     		cmp	r3, #2
 437 02aa 0BD0     		beq	.L32
 438 02ac 15E0     		b	.L40
 439              	.L31:
 440              		.loc 1 177 0
 441 02ae 019B     		ldr	r3, [sp, #4]
 442 02b0 444A     		ldr	r2, .L41+8
 443 02b2 9A66     		str	r2, [r3, #104]
 444 02b4 019B     		ldr	r3, [sp, #4]
 445 02b6 0222     		movs	r2, #2
 446 02b8 DA66     		str	r2, [r3, #108]
 447 02ba 019B     		ldr	r3, [sp, #4]
 448 02bc 0022     		movs	r2, #0
 449 02be 1A67     		str	r2, [r3, #112]
 450              		.loc 1 178 0
 451 02c0 0123     		movs	r3, #1
 452 02c2 77E0     		b	.L19
 453              	.L32:
 454              		.loc 1 180 0
 455 02c4 019B     		ldr	r3, [sp, #4]
 456 02c6 404A     		ldr	r2, .L41+12
ARM GAS  /tmp/cceJrrFk.s 			page 9


 457 02c8 9A66     		str	r2, [r3, #104]
 458 02ca 019B     		ldr	r3, [sp, #4]
 459 02cc 0222     		movs	r2, #2
 460 02ce DA66     		str	r2, [r3, #108]
 461 02d0 019B     		ldr	r3, [sp, #4]
 462 02d2 0022     		movs	r2, #0
 463 02d4 1A67     		str	r2, [r3, #112]
 464              		.loc 1 181 0
 465 02d6 0123     		movs	r3, #1
 466 02d8 6CE0     		b	.L19
 467              	.L40:
 468              		.loc 1 183 0
 469 02da 0023     		movs	r3, #0
 470 02dc 6AE0     		b	.L19
 471              	.L12:
 472              		.loc 1 188 0
 473 02de 019B     		ldr	r3, [sp, #4]
 474 02e0 93F87630 		ldrb	r3, [r3, #118]	@ zero_extendqisi2
 475 02e4 002B     		cmp	r3, #0
 476 02e6 01D0     		beq	.L33
 477              		.loc 1 189 0
 478 02e8 0023     		movs	r3, #0
 479 02ea 63E0     		b	.L19
 480              	.L33:
 481              		.loc 1 191 0
 482 02ec 019B     		ldr	r3, [sp, #4]
 483 02ee 93F87830 		ldrb	r3, [r3, #120]	@ zero_extendqisi2
 484 02f2 03F00F03 		and	r3, r3, #15
 485 02f6 002B     		cmp	r3, #0
 486 02f8 1BDD     		ble	.L34
 487              		.loc 1 192 0
 488 02fa 019B     		ldr	r3, [sp, #4]
 489 02fc 93F87830 		ldrb	r3, [r3, #120]	@ zero_extendqisi2
 490 0300 DBB2     		uxtb	r3, r3
 491 0302 5BB2     		sxtb	r3, r3
 492 0304 002B     		cmp	r3, #0
 493 0306 0ADA     		bge	.L35
 494              		.loc 1 193 0
 495 0308 019B     		ldr	r3, [sp, #4]
 496 030a 93F87830 		ldrb	r3, [r3, #120]	@ zero_extendqisi2
 497 030e 03F00F03 		and	r3, r3, #15
 498 0312 DBB2     		uxtb	r3, r3
 499 0314 0198     		ldr	r0, [sp, #4]
 500 0316 1946     		mov	r1, r3
 501 0318 FFF7FEFF 		bl	usb_lld_clear_in
 502 031c 09E0     		b	.L34
 503              	.L35:
 504              		.loc 1 195 0
 505 031e 019B     		ldr	r3, [sp, #4]
 506 0320 93F87830 		ldrb	r3, [r3, #120]	@ zero_extendqisi2
 507 0324 03F00F03 		and	r3, r3, #15
 508 0328 DBB2     		uxtb	r3, r3
 509 032a 0198     		ldr	r0, [sp, #4]
 510 032c 1946     		mov	r1, r3
 511 032e FFF7FEFF 		bl	usb_lld_clear_out
 512              	.L34:
 513              		.loc 1 197 0
ARM GAS  /tmp/cceJrrFk.s 			page 10


 514 0332 019B     		ldr	r3, [sp, #4]
 515 0334 0022     		movs	r2, #0
 516 0336 9A66     		str	r2, [r3, #104]
 517 0338 019B     		ldr	r3, [sp, #4]
 518 033a 0022     		movs	r2, #0
 519 033c DA66     		str	r2, [r3, #108]
 520 033e 019B     		ldr	r3, [sp, #4]
 521 0340 0022     		movs	r2, #0
 522 0342 1A67     		str	r2, [r3, #112]
 523              		.loc 1 198 0
 524 0344 0123     		movs	r3, #1
 525 0346 35E0     		b	.L19
 526              	.L15:
 527              		.loc 1 201 0
 528 0348 019B     		ldr	r3, [sp, #4]
 529 034a 93F87630 		ldrb	r3, [r3, #118]	@ zero_extendqisi2
 530 034e 002B     		cmp	r3, #0
 531 0350 01D0     		beq	.L36
 532              		.loc 1 202 0
 533 0352 0023     		movs	r3, #0
 534 0354 2EE0     		b	.L19
 535              	.L36:
 536              		.loc 1 204 0
 537 0356 019B     		ldr	r3, [sp, #4]
 538 0358 93F87830 		ldrb	r3, [r3, #120]	@ zero_extendqisi2
 539 035c 03F00F03 		and	r3, r3, #15
 540 0360 002B     		cmp	r3, #0
 541 0362 1BDD     		ble	.L37
 542              		.loc 1 205 0
 543 0364 019B     		ldr	r3, [sp, #4]
 544 0366 93F87830 		ldrb	r3, [r3, #120]	@ zero_extendqisi2
 545 036a DBB2     		uxtb	r3, r3
 546 036c 5BB2     		sxtb	r3, r3
 547 036e 002B     		cmp	r3, #0
 548 0370 0ADA     		bge	.L38
 549              		.loc 1 206 0
 550 0372 019B     		ldr	r3, [sp, #4]
 551 0374 93F87830 		ldrb	r3, [r3, #120]	@ zero_extendqisi2
 552 0378 03F00F03 		and	r3, r3, #15
 553 037c DBB2     		uxtb	r3, r3
 554 037e 0198     		ldr	r0, [sp, #4]
 555 0380 1946     		mov	r1, r3
 556 0382 FFF7FEFF 		bl	usb_lld_stall_in
 557 0386 09E0     		b	.L37
 558              	.L38:
 559              		.loc 1 208 0
 560 0388 019B     		ldr	r3, [sp, #4]
 561 038a 93F87830 		ldrb	r3, [r3, #120]	@ zero_extendqisi2
 562 038e 03F00F03 		and	r3, r3, #15
 563 0392 DBB2     		uxtb	r3, r3
 564 0394 0198     		ldr	r0, [sp, #4]
 565 0396 1946     		mov	r1, r3
 566 0398 FFF7FEFF 		bl	usb_lld_stall_out
 567              	.L37:
 568              		.loc 1 210 0
 569 039c 019B     		ldr	r3, [sp, #4]
 570 039e 0022     		movs	r2, #0
ARM GAS  /tmp/cceJrrFk.s 			page 11


 571 03a0 9A66     		str	r2, [r3, #104]
 572 03a2 019B     		ldr	r3, [sp, #4]
 573 03a4 0022     		movs	r2, #0
 574 03a6 DA66     		str	r2, [r3, #108]
 575 03a8 019B     		ldr	r3, [sp, #4]
 576 03aa 0022     		movs	r2, #0
 577 03ac 1A67     		str	r2, [r3, #112]
 578              		.loc 1 211 0
 579 03ae 0123     		movs	r3, #1
 580 03b0 00E0     		b	.L19
 581              	.L4:
 582              		.loc 1 220 0
 583 03b2 0023     		movs	r3, #0
 584              	.L19:
 585              		.loc 1 222 0
 586 03b4 1846     		mov	r0, r3
 587 03b6 04B0     		add	sp, sp, #16
 588              		.cfi_def_cfa_offset 8
 589              		@ sp needed
 590 03b8 10BD     		pop	{r4, pc}
 591              	.L42:
 592 03ba 00BF     		.align	2
 593              	.L41:
 594 03bc 00000000 		.word	set_address
 595 03c0 00000000 		.word	zero_status
 596 03c4 08000000 		.word	halted_status
 597 03c8 04000000 		.word	active_status
 598              		.cfi_endproc
 599              	.LFE119:
 600              		.size	default_handler, .-default_handler
 601              		.align	2
 602              		.global	usbInit
 603              		.thumb
 604              		.thumb_func
 605              		.type	usbInit, %function
 606              	usbInit:
 607              	.LFB120:
 608              		.loc 1 235 0
 609              		.cfi_startproc
 610              		@ args = 0, pretend = 0, frame = 0
 611              		@ frame_needed = 0, uses_anonymous_args = 0
 612 03cc 08B5     		push	{r3, lr}
 613              		.cfi_def_cfa_offset 8
 614              		.cfi_offset 3, -8
 615              		.cfi_offset 14, -4
 616              		.loc 1 237 0
 617 03ce FFF7FEFF 		bl	usb_lld_init
 618              		.loc 1 238 0
 619 03d2 08BD     		pop	{r3, pc}
 620              		.cfi_endproc
 621              	.LFE120:
 622              		.size	usbInit, .-usbInit
 623              		.align	2
 624              		.global	usbObjectInit
 625              		.thumb
 626              		.thumb_func
 627              		.type	usbObjectInit, %function
ARM GAS  /tmp/cceJrrFk.s 			page 12


 628              	usbObjectInit:
 629              	.LFB121:
 630              		.loc 1 247 0
 631              		.cfi_startproc
 632              		@ args = 0, pretend = 0, frame = 16
 633              		@ frame_needed = 0, uses_anonymous_args = 0
 634              		@ link register save eliminated.
 635 03d4 84B0     		sub	sp, sp, #16
 636              		.cfi_def_cfa_offset 16
 637 03d6 0190     		str	r0, [sp, #4]
 638              		.loc 1 250 0
 639 03d8 019B     		ldr	r3, [sp, #4]
 640 03da 0122     		movs	r2, #1
 641 03dc 1A70     		strb	r2, [r3]
 642              		.loc 1 251 0
 643 03de 019B     		ldr	r3, [sp, #4]
 644 03e0 0022     		movs	r2, #0
 645 03e2 5A60     		str	r2, [r3, #4]
 646              		.loc 1 252 0
 647 03e4 0023     		movs	r3, #0
 648 03e6 0393     		str	r3, [sp, #12]
 649 03e8 0FE0     		b	.L45
 650              	.L46:
 651              		.loc 1 253 0 discriminator 3
 652 03ea 019A     		ldr	r2, [sp, #4]
 653 03ec 039B     		ldr	r3, [sp, #12]
 654 03ee 0A33     		adds	r3, r3, #10
 655 03f0 9B00     		lsls	r3, r3, #2
 656 03f2 1344     		add	r3, r3, r2
 657 03f4 0022     		movs	r2, #0
 658 03f6 5A60     		str	r2, [r3, #4]
 659              		.loc 1 254 0 discriminator 3
 660 03f8 019B     		ldr	r3, [sp, #4]
 661 03fa 039A     		ldr	r2, [sp, #12]
 662 03fc 1232     		adds	r2, r2, #18
 663 03fe 0021     		movs	r1, #0
 664 0400 43F82210 		str	r1, [r3, r2, lsl #2]
 665              		.loc 1 252 0 discriminator 3
 666 0404 039B     		ldr	r3, [sp, #12]
 667 0406 0133     		adds	r3, r3, #1
 668 0408 0393     		str	r3, [sp, #12]
 669              	.L45:
 670              		.loc 1 252 0 is_stmt 0 discriminator 1
 671 040a 039B     		ldr	r3, [sp, #12]
 672 040c 062B     		cmp	r3, #6
 673 040e ECD9     		bls	.L46
 674              		.loc 1 256 0 is_stmt 1
 675 0410 019B     		ldr	r3, [sp, #4]
 676 0412 0022     		movs	r2, #0
 677 0414 1A81     		strh	r2, [r3, #8]	@ movhi
 678              		.loc 1 257 0
 679 0416 019B     		ldr	r3, [sp, #4]
 680 0418 0022     		movs	r2, #0
 681 041a 5A81     		strh	r2, [r3, #10]	@ movhi
 682              		.loc 1 258 0
 683 041c 04B0     		add	sp, sp, #16
 684              		.cfi_def_cfa_offset 0
ARM GAS  /tmp/cceJrrFk.s 			page 13


 685              		@ sp needed
 686 041e 7047     		bx	lr
 687              		.cfi_endproc
 688              	.LFE121:
 689              		.size	usbObjectInit, .-usbObjectInit
 690              		.section	.rodata
 691 000a 0000     		.align	2
 692              	.LC0:
 693 000c 22757362 		.ascii	"\"usbStart\"()\000"
 693      53746172 
 693      74222829 
 693      00
 694 0019 000000   		.align	2
 695              	.LC1:
 696 001c 75736253 		.ascii	"usbStart(), #1\000"
 696      74617274 
 696      28292C20 
 696      233100
 697              		.text
 698              		.align	2
 699              		.global	usbStart
 700              		.thumb
 701              		.thumb_func
 702              		.type	usbStart, %function
 703              	usbStart:
 704              	.LFB122:
 705              		.loc 1 268 0
 706              		.cfi_startproc
 707              		@ args = 0, pretend = 0, frame = 16
 708              		@ frame_needed = 0, uses_anonymous_args = 0
 709 0420 00B5     		push	{lr}
 710              		.cfi_def_cfa_offset 4
 711              		.cfi_offset 14, -4
 712 0422 85B0     		sub	sp, sp, #20
 713              		.cfi_def_cfa_offset 24
 714 0424 0190     		str	r0, [sp, #4]
 715 0426 0091     		str	r1, [sp]
 716              		.loc 1 271 0
 717 0428 019B     		ldr	r3, [sp, #4]
 718 042a 002B     		cmp	r3, #0
 719 042c 02D0     		beq	.L48
 720              		.loc 1 271 0 is_stmt 0 discriminator 2
 721 042e 009B     		ldr	r3, [sp]
 722 0430 002B     		cmp	r3, #0
 723 0432 02D1     		bne	.L49
 724              	.L48:
 725              		.loc 1 271 0 discriminator 3
 726 0434 1948     		ldr	r0, .L53
 727 0436 FFF7FEFF 		bl	chDbgPanic
 728              	.L49:
 729              	.LBB2:
 730              		.loc 1 273 0 is_stmt 1
 731 043a 2023     		movs	r3, #32
 732              	@ 273 "/opt/R2P/core/ChibiOS_2.6.5/os/hal/src/usb.c" 1
 733 043c 83F31188 		msr     BASEPRI, r3
 734              	@ 0 "" 2
 735              		.thumb
ARM GAS  /tmp/cceJrrFk.s 			page 14


 736              	.LBE2:
 737 0440 FFF7FEFF 		bl	dbg_check_lock
 738              		.loc 1 274 0
 739 0444 019B     		ldr	r3, [sp, #4]
 740 0446 1B78     		ldrb	r3, [r3]	@ zero_extendqisi2
 741 0448 012B     		cmp	r3, #1
 742 044a 06D0     		beq	.L50
 743              		.loc 1 274 0 is_stmt 0 discriminator 1
 744 044c 019B     		ldr	r3, [sp, #4]
 745 044e 1B78     		ldrb	r3, [r3]	@ zero_extendqisi2
 746 0450 022B     		cmp	r3, #2
 747 0452 02D0     		beq	.L50
 748              		.loc 1 274 0 discriminator 2
 749 0454 1248     		ldr	r0, .L53+4
 750 0456 FFF7FEFF 		bl	chDbgPanic
 751              	.L50:
 752              		.loc 1 276 0 is_stmt 1
 753 045a 019B     		ldr	r3, [sp, #4]
 754 045c 009A     		ldr	r2, [sp]
 755 045e 5A60     		str	r2, [r3, #4]
 756              		.loc 1 277 0
 757 0460 0023     		movs	r3, #0
 758 0462 0393     		str	r3, [sp, #12]
 759 0464 09E0     		b	.L51
 760              	.L52:
 761              		.loc 1 278 0 discriminator 3
 762 0466 019A     		ldr	r2, [sp, #4]
 763 0468 039B     		ldr	r3, [sp, #12]
 764 046a 0233     		adds	r3, r3, #2
 765 046c 9B00     		lsls	r3, r3, #2
 766 046e 1344     		add	r3, r3, r2
 767 0470 0022     		movs	r2, #0
 768 0472 5A60     		str	r2, [r3, #4]
 769              		.loc 1 277 0 discriminator 3
 770 0474 039B     		ldr	r3, [sp, #12]
 771 0476 0133     		adds	r3, r3, #1
 772 0478 0393     		str	r3, [sp, #12]
 773              	.L51:
 774              		.loc 1 277 0 is_stmt 0 discriminator 1
 775 047a 039B     		ldr	r3, [sp, #12]
 776 047c 072B     		cmp	r3, #7
 777 047e F2D9     		bls	.L52
 778              		.loc 1 279 0 is_stmt 1
 779 0480 0198     		ldr	r0, [sp, #4]
 780 0482 FFF7FEFF 		bl	usb_lld_start
 781              		.loc 1 280 0
 782 0486 019B     		ldr	r3, [sp, #4]
 783 0488 0222     		movs	r2, #2
 784 048a 1A70     		strb	r2, [r3]
 785              		.loc 1 281 0
 786 048c FFF7FEFF 		bl	dbg_check_unlock
 787              	.LBB3:
 788 0490 0023     		movs	r3, #0
 789              	@ 281 "/opt/R2P/core/ChibiOS_2.6.5/os/hal/src/usb.c" 1
 790 0492 83F31188 		msr     BASEPRI, r3
 791              	@ 0 "" 2
 792              		.thumb
ARM GAS  /tmp/cceJrrFk.s 			page 15


 793              	.LBE3:
 794              		.loc 1 282 0
 795 0496 05B0     		add	sp, sp, #20
 796              		.cfi_def_cfa_offset 4
 797              		@ sp needed
 798 0498 5DF804FB 		ldr	pc, [sp], #4
 799              	.L54:
 800              		.align	2
 801              	.L53:
 802 049c 0C000000 		.word	.LC0
 803 04a0 1C000000 		.word	.LC1
 804              		.cfi_endproc
 805              	.LFE122:
 806              		.size	usbStart, .-usbStart
 807              		.section	.rodata
 808 002b 00       		.align	2
 809              	.LC2:
 810 002c 22757362 		.ascii	"\"usbStop\"()\000"
 810      53746F70 
 810      22282900 
 811              		.align	2
 812              	.LC3:
 813 0038 75736253 		.ascii	"usbStop(), #1\000"
 813      746F7028 
 813      292C2023 
 813      3100
 814              		.text
 815              		.align	2
 816              		.global	usbStop
 817              		.thumb
 818              		.thumb_func
 819              		.type	usbStop, %function
 820              	usbStop:
 821              	.LFB123:
 822              		.loc 1 291 0
 823              		.cfi_startproc
 824              		@ args = 0, pretend = 0, frame = 8
 825              		@ frame_needed = 0, uses_anonymous_args = 0
 826 04a4 00B5     		push	{lr}
 827              		.cfi_def_cfa_offset 4
 828              		.cfi_offset 14, -4
 829 04a6 83B0     		sub	sp, sp, #12
 830              		.cfi_def_cfa_offset 16
 831 04a8 0190     		str	r0, [sp, #4]
 832              		.loc 1 293 0
 833 04aa 019B     		ldr	r3, [sp, #4]
 834 04ac 002B     		cmp	r3, #0
 835 04ae 02D1     		bne	.L56
 836              		.loc 1 293 0 is_stmt 0 discriminator 1
 837 04b0 1448     		ldr	r0, .L58
 838 04b2 FFF7FEFF 		bl	chDbgPanic
 839              	.L56:
 840              	.LBB4:
 841              		.loc 1 295 0 is_stmt 1
 842 04b6 2023     		movs	r3, #32
 843              	@ 295 "/opt/R2P/core/ChibiOS_2.6.5/os/hal/src/usb.c" 1
 844 04b8 83F31188 		msr     BASEPRI, r3
ARM GAS  /tmp/cceJrrFk.s 			page 16


 845              	@ 0 "" 2
 846              		.thumb
 847              	.LBE4:
 848 04bc FFF7FEFF 		bl	dbg_check_lock
 849              		.loc 1 296 0
 850 04c0 019B     		ldr	r3, [sp, #4]
 851 04c2 1B78     		ldrb	r3, [r3]	@ zero_extendqisi2
 852 04c4 012B     		cmp	r3, #1
 853 04c6 0ED0     		beq	.L57
 854              		.loc 1 296 0 is_stmt 0 discriminator 1
 855 04c8 019B     		ldr	r3, [sp, #4]
 856 04ca 1B78     		ldrb	r3, [r3]	@ zero_extendqisi2
 857 04cc 022B     		cmp	r3, #2
 858 04ce 0AD0     		beq	.L57
 859              		.loc 1 296 0 discriminator 2
 860 04d0 019B     		ldr	r3, [sp, #4]
 861 04d2 1B78     		ldrb	r3, [r3]	@ zero_extendqisi2
 862 04d4 032B     		cmp	r3, #3
 863 04d6 06D0     		beq	.L57
 864              		.loc 1 296 0 discriminator 3
 865 04d8 019B     		ldr	r3, [sp, #4]
 866 04da 1B78     		ldrb	r3, [r3]	@ zero_extendqisi2
 867 04dc 042B     		cmp	r3, #4
 868 04de 02D0     		beq	.L57
 869              		.loc 1 296 0 discriminator 4
 870 04e0 0948     		ldr	r0, .L58+4
 871 04e2 FFF7FEFF 		bl	chDbgPanic
 872              	.L57:
 873              		.loc 1 299 0 is_stmt 1
 874 04e6 0198     		ldr	r0, [sp, #4]
 875 04e8 FFF7FEFF 		bl	usb_lld_stop
 876              		.loc 1 300 0
 877 04ec 019B     		ldr	r3, [sp, #4]
 878 04ee 0122     		movs	r2, #1
 879 04f0 1A70     		strb	r2, [r3]
 880              		.loc 1 301 0
 881 04f2 FFF7FEFF 		bl	dbg_check_unlock
 882              	.LBB5:
 883 04f6 0023     		movs	r3, #0
 884              	@ 301 "/opt/R2P/core/ChibiOS_2.6.5/os/hal/src/usb.c" 1
 885 04f8 83F31188 		msr     BASEPRI, r3
 886              	@ 0 "" 2
 887              		.thumb
 888              	.LBE5:
 889              		.loc 1 302 0
 890 04fc 03B0     		add	sp, sp, #12
 891              		.cfi_def_cfa_offset 4
 892              		@ sp needed
 893 04fe 5DF804FB 		ldr	pc, [sp], #4
 894              	.L59:
 895 0502 00BF     		.align	2
 896              	.L58:
 897 0504 2C000000 		.word	.LC2
 898 0508 38000000 		.word	.LC3
 899              		.cfi_endproc
 900              	.LFE123:
 901              		.size	usbStop, .-usbStop
ARM GAS  /tmp/cceJrrFk.s 			page 17


 902              		.section	.rodata
 903 0046 0000     		.align	2
 904              	.LC4:
 905 0048 22757362 		.ascii	"\"usbInitEndpointI\"()\000"
 905      496E6974 
 905      456E6470 
 905      6F696E74 
 905      49222829 
 906 005d 000000   		.align	2
 907              	.LC5:
 908 0060 75736245 		.ascii	"usbEnableEndpointI(), #1\000"
 908      6E61626C 
 908      65456E64 
 908      706F696E 
 908      74492829 
 909 0079 000000   		.align	2
 910              	.LC6:
 911 007c 75736245 		.ascii	"usbEnableEndpointI(), #2\000"
 911      6E61626C 
 911      65456E64 
 911      706F696E 
 911      74492829 
 912              		.text
 913              		.align	2
 914              		.global	usbInitEndpointI
 915              		.thumb
 916              		.thumb_func
 917              		.type	usbInitEndpointI, %function
 918              	usbInitEndpointI:
 919              	.LFB124:
 920              		.loc 1 318 0
 921              		.cfi_startproc
 922              		@ args = 0, pretend = 0, frame = 16
 923              		@ frame_needed = 0, uses_anonymous_args = 0
 924 050c 00B5     		push	{lr}
 925              		.cfi_def_cfa_offset 4
 926              		.cfi_offset 14, -4
 927 050e 85B0     		sub	sp, sp, #20
 928              		.cfi_def_cfa_offset 24
 929 0510 0390     		str	r0, [sp, #12]
 930 0512 0B46     		mov	r3, r1
 931 0514 0192     		str	r2, [sp, #4]
 932 0516 8DF80B30 		strb	r3, [sp, #11]
 933              		.loc 1 320 0
 934 051a FFF7FEFF 		bl	chDbgCheckClassI
 935              		.loc 1 321 0
 936 051e 039B     		ldr	r3, [sp, #12]
 937 0520 002B     		cmp	r3, #0
 938 0522 02D0     		beq	.L61
 939              		.loc 1 321 0 is_stmt 0 discriminator 2
 940 0524 019B     		ldr	r3, [sp, #4]
 941 0526 002B     		cmp	r3, #0
 942 0528 02D1     		bne	.L62
 943              	.L61:
 944              		.loc 1 321 0 discriminator 3
 945 052a 1E48     		ldr	r0, .L67
 946 052c FFF7FEFF 		bl	chDbgPanic
ARM GAS  /tmp/cceJrrFk.s 			page 18


 947              	.L62:
 948              		.loc 1 322 0 is_stmt 1
 949 0530 039B     		ldr	r3, [sp, #12]
 950 0532 1B78     		ldrb	r3, [r3]	@ zero_extendqisi2
 951 0534 042B     		cmp	r3, #4
 952 0536 02D0     		beq	.L63
 953              		.loc 1 322 0 is_stmt 0 discriminator 1
 954 0538 1B48     		ldr	r0, .L67+4
 955 053a FFF7FEFF 		bl	chDbgPanic
 956              	.L63:
 957              		.loc 1 324 0 is_stmt 1
 958 053e 9DF80B30 		ldrb	r3, [sp, #11]	@ zero_extendqisi2
 959 0542 039A     		ldr	r2, [sp, #12]
 960 0544 0233     		adds	r3, r3, #2
 961 0546 9B00     		lsls	r3, r3, #2
 962 0548 1344     		add	r3, r3, r2
 963 054a 5B68     		ldr	r3, [r3, #4]
 964 054c 002B     		cmp	r3, #0
 965 054e 02D0     		beq	.L64
 966              		.loc 1 324 0 is_stmt 0 discriminator 1
 967 0550 1648     		ldr	r0, .L67+8
 968 0552 FFF7FEFF 		bl	chDbgPanic
 969              	.L64:
 970              		.loc 1 328 0 is_stmt 1
 971 0556 019B     		ldr	r3, [sp, #4]
 972 0558 5B69     		ldr	r3, [r3, #20]
 973 055a 002B     		cmp	r3, #0
 974 055c 06D0     		beq	.L65
 975              		.loc 1 329 0
 976 055e 019B     		ldr	r3, [sp, #4]
 977 0560 5B69     		ldr	r3, [r3, #20]
 978 0562 1846     		mov	r0, r3
 979 0564 0021     		movs	r1, #0
 980 0566 1022     		movs	r2, #16
 981 0568 FFF7FEFF 		bl	memset
 982              	.L65:
 983              		.loc 1 330 0
 984 056c 019B     		ldr	r3, [sp, #4]
 985 056e 9B69     		ldr	r3, [r3, #24]
 986 0570 002B     		cmp	r3, #0
 987 0572 06D0     		beq	.L66
 988              		.loc 1 331 0
 989 0574 019B     		ldr	r3, [sp, #4]
 990 0576 9B69     		ldr	r3, [r3, #24]
 991 0578 1846     		mov	r0, r3
 992 057a 0021     		movs	r1, #0
 993 057c 1422     		movs	r2, #20
 994 057e FFF7FEFF 		bl	memset
 995              	.L66:
 996              		.loc 1 333 0
 997 0582 9DF80B30 		ldrb	r3, [sp, #11]	@ zero_extendqisi2
 998 0586 039A     		ldr	r2, [sp, #12]
 999 0588 0233     		adds	r3, r3, #2
 1000 058a 9B00     		lsls	r3, r3, #2
 1001 058c 1344     		add	r3, r3, r2
 1002 058e 019A     		ldr	r2, [sp, #4]
 1003 0590 5A60     		str	r2, [r3, #4]
ARM GAS  /tmp/cceJrrFk.s 			page 19


 1004              		.loc 1 336 0
 1005 0592 9DF80B30 		ldrb	r3, [sp, #11]	@ zero_extendqisi2
 1006 0596 0398     		ldr	r0, [sp, #12]
 1007 0598 1946     		mov	r1, r3
 1008 059a FFF7FEFF 		bl	usb_lld_init_endpoint
 1009              		.loc 1 337 0
 1010 059e 05B0     		add	sp, sp, #20
 1011              		.cfi_def_cfa_offset 4
 1012              		@ sp needed
 1013 05a0 5DF804FB 		ldr	pc, [sp], #4
 1014              	.L68:
 1015              		.align	2
 1016              	.L67:
 1017 05a4 48000000 		.word	.LC4
 1018 05a8 60000000 		.word	.LC5
 1019 05ac 7C000000 		.word	.LC6
 1020              		.cfi_endproc
 1021              	.LFE124:
 1022              		.size	usbInitEndpointI, .-usbInitEndpointI
 1023              		.section	.rodata
 1024 0095 000000   		.align	2
 1025              	.LC7:
 1026 0098 22757362 		.ascii	"\"usbDisableEndpointsI\"()\000"
 1026      44697361 
 1026      626C6545 
 1026      6E64706F 
 1026      696E7473 
 1027 00b1 000000   		.align	2
 1028              	.LC8:
 1029 00b4 75736244 		.ascii	"usbDisableEndpointsI(), #1\000"
 1029      69736162 
 1029      6C65456E 
 1029      64706F69 
 1029      6E747349 
 1030              		.text
 1031              		.align	2
 1032              		.global	usbDisableEndpointsI
 1033              		.thumb
 1034              		.thumb_func
 1035              		.type	usbDisableEndpointsI, %function
 1036              	usbDisableEndpointsI:
 1037              	.LFB125:
 1038              		.loc 1 350 0
 1039              		.cfi_startproc
 1040              		@ args = 0, pretend = 0, frame = 16
 1041              		@ frame_needed = 0, uses_anonymous_args = 0
 1042 05b0 00B5     		push	{lr}
 1043              		.cfi_def_cfa_offset 4
 1044              		.cfi_offset 14, -4
 1045 05b2 85B0     		sub	sp, sp, #20
 1046              		.cfi_def_cfa_offset 24
 1047 05b4 0190     		str	r0, [sp, #4]
 1048              		.loc 1 353 0
 1049 05b6 FFF7FEFF 		bl	chDbgCheckClassI
 1050              		.loc 1 354 0
 1051 05ba 019B     		ldr	r3, [sp, #4]
 1052 05bc 002B     		cmp	r3, #0
ARM GAS  /tmp/cceJrrFk.s 			page 20


 1053 05be 02D1     		bne	.L70
 1054              		.loc 1 354 0 is_stmt 0 discriminator 1
 1055 05c0 1648     		ldr	r0, .L74
 1056 05c2 FFF7FEFF 		bl	chDbgPanic
 1057              	.L70:
 1058              		.loc 1 355 0 is_stmt 1
 1059 05c6 019B     		ldr	r3, [sp, #4]
 1060 05c8 1B78     		ldrb	r3, [r3]	@ zero_extendqisi2
 1061 05ca 032B     		cmp	r3, #3
 1062 05cc 02D0     		beq	.L71
 1063              		.loc 1 355 0 is_stmt 0 discriminator 1
 1064 05ce 1448     		ldr	r0, .L74+4
 1065 05d0 FFF7FEFF 		bl	chDbgPanic
 1066              	.L71:
 1067              		.loc 1 358 0 is_stmt 1
 1068 05d4 019B     		ldr	r3, [sp, #4]
 1069 05d6 1B89     		ldrh	r3, [r3, #8]
 1070 05d8 23F00103 		bic	r3, r3, #1
 1071 05dc 9AB2     		uxth	r2, r3
 1072 05de 019B     		ldr	r3, [sp, #4]
 1073 05e0 1A81     		strh	r2, [r3, #8]	@ movhi
 1074              		.loc 1 359 0
 1075 05e2 019B     		ldr	r3, [sp, #4]
 1076 05e4 5B89     		ldrh	r3, [r3, #10]
 1077 05e6 23F00103 		bic	r3, r3, #1
 1078 05ea 9AB2     		uxth	r2, r3
 1079 05ec 019B     		ldr	r3, [sp, #4]
 1080 05ee 5A81     		strh	r2, [r3, #10]	@ movhi
 1081              		.loc 1 360 0
 1082 05f0 0123     		movs	r3, #1
 1083 05f2 0393     		str	r3, [sp, #12]
 1084 05f4 09E0     		b	.L72
 1085              	.L73:
 1086              		.loc 1 361 0 discriminator 3
 1087 05f6 019A     		ldr	r2, [sp, #4]
 1088 05f8 039B     		ldr	r3, [sp, #12]
 1089 05fa 0233     		adds	r3, r3, #2
 1090 05fc 9B00     		lsls	r3, r3, #2
 1091 05fe 1344     		add	r3, r3, r2
 1092 0600 0022     		movs	r2, #0
 1093 0602 5A60     		str	r2, [r3, #4]
 1094              		.loc 1 360 0 discriminator 3
 1095 0604 039B     		ldr	r3, [sp, #12]
 1096 0606 0133     		adds	r3, r3, #1
 1097 0608 0393     		str	r3, [sp, #12]
 1098              	.L72:
 1099              		.loc 1 360 0 is_stmt 0 discriminator 1
 1100 060a 039B     		ldr	r3, [sp, #12]
 1101 060c 072B     		cmp	r3, #7
 1102 060e F2D9     		bls	.L73
 1103              		.loc 1 364 0 is_stmt 1
 1104 0610 0198     		ldr	r0, [sp, #4]
 1105 0612 FFF7FEFF 		bl	usb_lld_disable_endpoints
 1106              		.loc 1 365 0
 1107 0616 05B0     		add	sp, sp, #20
 1108              		.cfi_def_cfa_offset 4
 1109              		@ sp needed
ARM GAS  /tmp/cceJrrFk.s 			page 21


 1110 0618 5DF804FB 		ldr	pc, [sp], #4
 1111              	.L75:
 1112              		.align	2
 1113              	.L74:
 1114 061c 98000000 		.word	.LC7
 1115 0620 B4000000 		.word	.LC8
 1116              		.cfi_endproc
 1117              	.LFE125:
 1118              		.size	usbDisableEndpointsI, .-usbDisableEndpointsI
 1119              		.align	2
 1120              		.global	usbPrepareReceive
 1121              		.thumb
 1122              		.thumb_func
 1123              		.type	usbPrepareReceive, %function
 1124              	usbPrepareReceive:
 1125              	.LFB126:
 1126              		.loc 1 379 0
 1127              		.cfi_startproc
 1128              		@ args = 0, pretend = 0, frame = 24
 1129              		@ frame_needed = 0, uses_anonymous_args = 0
 1130 0624 00B5     		push	{lr}
 1131              		.cfi_def_cfa_offset 4
 1132              		.cfi_offset 14, -4
 1133 0626 87B0     		sub	sp, sp, #28
 1134              		.cfi_def_cfa_offset 32
 1135 0628 0390     		str	r0, [sp, #12]
 1136 062a 0192     		str	r2, [sp, #4]
 1137 062c 0093     		str	r3, [sp]
 1138 062e 0B46     		mov	r3, r1
 1139 0630 8DF80B30 		strb	r3, [sp, #11]
 1140              		.loc 1 380 0
 1141 0634 9DF80B30 		ldrb	r3, [sp, #11]	@ zero_extendqisi2
 1142 0638 039A     		ldr	r2, [sp, #12]
 1143 063a 0233     		adds	r3, r3, #2
 1144 063c 9B00     		lsls	r3, r3, #2
 1145 063e 1344     		add	r3, r3, r2
 1146 0640 5B68     		ldr	r3, [r3, #4]
 1147 0642 9B69     		ldr	r3, [r3, #24]
 1148 0644 0593     		str	r3, [sp, #20]
 1149              		.loc 1 382 0
 1150 0646 059B     		ldr	r3, [sp, #20]
 1151 0648 0022     		movs	r2, #0
 1152 064a 1A70     		strb	r2, [r3]
 1153              		.loc 1 383 0
 1154 064c 059B     		ldr	r3, [sp, #20]
 1155 064e 019A     		ldr	r2, [sp, #4]
 1156 0650 DA60     		str	r2, [r3, #12]
 1157              		.loc 1 384 0
 1158 0652 059B     		ldr	r3, [sp, #20]
 1159 0654 009A     		ldr	r2, [sp]
 1160 0656 5A60     		str	r2, [r3, #4]
 1161              		.loc 1 385 0
 1162 0658 059B     		ldr	r3, [sp, #20]
 1163 065a 0022     		movs	r2, #0
 1164 065c 9A60     		str	r2, [r3, #8]
 1165              		.loc 1 387 0
 1166 065e 9DF80B30 		ldrb	r3, [sp, #11]	@ zero_extendqisi2
ARM GAS  /tmp/cceJrrFk.s 			page 22


 1167 0662 0398     		ldr	r0, [sp, #12]
 1168 0664 1946     		mov	r1, r3
 1169 0666 FFF7FEFF 		bl	usb_lld_prepare_receive
 1170              		.loc 1 388 0
 1171 066a 07B0     		add	sp, sp, #28
 1172              		.cfi_def_cfa_offset 4
 1173              		@ sp needed
 1174 066c 5DF804FB 		ldr	pc, [sp], #4
 1175              		.cfi_endproc
 1176              	.LFE126:
 1177              		.size	usbPrepareReceive, .-usbPrepareReceive
 1178              		.align	2
 1179              		.global	usbPrepareTransmit
 1180              		.thumb
 1181              		.thumb_func
 1182              		.type	usbPrepareTransmit, %function
 1183              	usbPrepareTransmit:
 1184              	.LFB127:
 1185              		.loc 1 405 0
 1186              		.cfi_startproc
 1187              		@ args = 0, pretend = 0, frame = 24
 1188              		@ frame_needed = 0, uses_anonymous_args = 0
 1189 0670 00B5     		push	{lr}
 1190              		.cfi_def_cfa_offset 4
 1191              		.cfi_offset 14, -4
 1192 0672 87B0     		sub	sp, sp, #28
 1193              		.cfi_def_cfa_offset 32
 1194 0674 0390     		str	r0, [sp, #12]
 1195 0676 0192     		str	r2, [sp, #4]
 1196 0678 0093     		str	r3, [sp]
 1197 067a 0B46     		mov	r3, r1
 1198 067c 8DF80B30 		strb	r3, [sp, #11]
 1199              		.loc 1 406 0
 1200 0680 9DF80B30 		ldrb	r3, [sp, #11]	@ zero_extendqisi2
 1201 0684 039A     		ldr	r2, [sp, #12]
 1202 0686 0233     		adds	r3, r3, #2
 1203 0688 9B00     		lsls	r3, r3, #2
 1204 068a 1344     		add	r3, r3, r2
 1205 068c 5B68     		ldr	r3, [r3, #4]
 1206 068e 5B69     		ldr	r3, [r3, #20]
 1207 0690 0593     		str	r3, [sp, #20]
 1208              		.loc 1 408 0
 1209 0692 059B     		ldr	r3, [sp, #20]
 1210 0694 0022     		movs	r2, #0
 1211 0696 1A70     		strb	r2, [r3]
 1212              		.loc 1 409 0
 1213 0698 059B     		ldr	r3, [sp, #20]
 1214 069a 019A     		ldr	r2, [sp, #4]
 1215 069c DA60     		str	r2, [r3, #12]
 1216              		.loc 1 410 0
 1217 069e 059B     		ldr	r3, [sp, #20]
 1218 06a0 009A     		ldr	r2, [sp]
 1219 06a2 5A60     		str	r2, [r3, #4]
 1220              		.loc 1 411 0
 1221 06a4 059B     		ldr	r3, [sp, #20]
 1222 06a6 0022     		movs	r2, #0
 1223 06a8 9A60     		str	r2, [r3, #8]
ARM GAS  /tmp/cceJrrFk.s 			page 23


 1224              		.loc 1 413 0
 1225 06aa 9DF80B30 		ldrb	r3, [sp, #11]	@ zero_extendqisi2
 1226 06ae 0398     		ldr	r0, [sp, #12]
 1227 06b0 1946     		mov	r1, r3
 1228 06b2 FFF7FEFF 		bl	usb_lld_prepare_transmit
 1229              		.loc 1 414 0
 1230 06b6 07B0     		add	sp, sp, #28
 1231              		.cfi_def_cfa_offset 4
 1232              		@ sp needed
 1233 06b8 5DF804FB 		ldr	pc, [sp], #4
 1234              		.cfi_endproc
 1235              	.LFE127:
 1236              		.size	usbPrepareTransmit, .-usbPrepareTransmit
 1237              		.align	2
 1238              		.global	usbPrepareQueuedReceive
 1239              		.thumb
 1240              		.thumb_func
 1241              		.type	usbPrepareQueuedReceive, %function
 1242              	usbPrepareQueuedReceive:
 1243              	.LFB128:
 1244              		.loc 1 434 0
 1245              		.cfi_startproc
 1246              		@ args = 0, pretend = 0, frame = 24
 1247              		@ frame_needed = 0, uses_anonymous_args = 0
 1248 06bc 00B5     		push	{lr}
 1249              		.cfi_def_cfa_offset 4
 1250              		.cfi_offset 14, -4
 1251 06be 87B0     		sub	sp, sp, #28
 1252              		.cfi_def_cfa_offset 32
 1253 06c0 0390     		str	r0, [sp, #12]
 1254 06c2 0192     		str	r2, [sp, #4]
 1255 06c4 0093     		str	r3, [sp]
 1256 06c6 0B46     		mov	r3, r1
 1257 06c8 8DF80B30 		strb	r3, [sp, #11]
 1258              		.loc 1 435 0
 1259 06cc 9DF80B30 		ldrb	r3, [sp, #11]	@ zero_extendqisi2
 1260 06d0 039A     		ldr	r2, [sp, #12]
 1261 06d2 0233     		adds	r3, r3, #2
 1262 06d4 9B00     		lsls	r3, r3, #2
 1263 06d6 1344     		add	r3, r3, r2
 1264 06d8 5B68     		ldr	r3, [r3, #4]
 1265 06da 9B69     		ldr	r3, [r3, #24]
 1266 06dc 0593     		str	r3, [sp, #20]
 1267              		.loc 1 437 0
 1268 06de 059B     		ldr	r3, [sp, #20]
 1269 06e0 0122     		movs	r2, #1
 1270 06e2 1A70     		strb	r2, [r3]
 1271              		.loc 1 438 0
 1272 06e4 059B     		ldr	r3, [sp, #20]
 1273 06e6 019A     		ldr	r2, [sp, #4]
 1274 06e8 DA60     		str	r2, [r3, #12]
 1275              		.loc 1 439 0
 1276 06ea 059B     		ldr	r3, [sp, #20]
 1277 06ec 009A     		ldr	r2, [sp]
 1278 06ee 5A60     		str	r2, [r3, #4]
 1279              		.loc 1 440 0
 1280 06f0 059B     		ldr	r3, [sp, #20]
ARM GAS  /tmp/cceJrrFk.s 			page 24


 1281 06f2 0022     		movs	r2, #0
 1282 06f4 9A60     		str	r2, [r3, #8]
 1283              		.loc 1 442 0
 1284 06f6 9DF80B30 		ldrb	r3, [sp, #11]	@ zero_extendqisi2
 1285 06fa 0398     		ldr	r0, [sp, #12]
 1286 06fc 1946     		mov	r1, r3
 1287 06fe FFF7FEFF 		bl	usb_lld_prepare_receive
 1288              		.loc 1 443 0
 1289 0702 07B0     		add	sp, sp, #28
 1290              		.cfi_def_cfa_offset 4
 1291              		@ sp needed
 1292 0704 5DF804FB 		ldr	pc, [sp], #4
 1293              		.cfi_endproc
 1294              	.LFE128:
 1295              		.size	usbPrepareQueuedReceive, .-usbPrepareQueuedReceive
 1296              		.align	2
 1297              		.global	usbPrepareQueuedTransmit
 1298              		.thumb
 1299              		.thumb_func
 1300              		.type	usbPrepareQueuedTransmit, %function
 1301              	usbPrepareQueuedTransmit:
 1302              	.LFB129:
 1303              		.loc 1 460 0
 1304              		.cfi_startproc
 1305              		@ args = 0, pretend = 0, frame = 24
 1306              		@ frame_needed = 0, uses_anonymous_args = 0
 1307 0708 00B5     		push	{lr}
 1308              		.cfi_def_cfa_offset 4
 1309              		.cfi_offset 14, -4
 1310 070a 87B0     		sub	sp, sp, #28
 1311              		.cfi_def_cfa_offset 32
 1312 070c 0390     		str	r0, [sp, #12]
 1313 070e 0192     		str	r2, [sp, #4]
 1314 0710 0093     		str	r3, [sp]
 1315 0712 0B46     		mov	r3, r1
 1316 0714 8DF80B30 		strb	r3, [sp, #11]
 1317              		.loc 1 461 0
 1318 0718 9DF80B30 		ldrb	r3, [sp, #11]	@ zero_extendqisi2
 1319 071c 039A     		ldr	r2, [sp, #12]
 1320 071e 0233     		adds	r3, r3, #2
 1321 0720 9B00     		lsls	r3, r3, #2
 1322 0722 1344     		add	r3, r3, r2
 1323 0724 5B68     		ldr	r3, [r3, #4]
 1324 0726 5B69     		ldr	r3, [r3, #20]
 1325 0728 0593     		str	r3, [sp, #20]
 1326              		.loc 1 463 0
 1327 072a 059B     		ldr	r3, [sp, #20]
 1328 072c 0122     		movs	r2, #1
 1329 072e 1A70     		strb	r2, [r3]
 1330              		.loc 1 464 0
 1331 0730 059B     		ldr	r3, [sp, #20]
 1332 0732 019A     		ldr	r2, [sp, #4]
 1333 0734 DA60     		str	r2, [r3, #12]
 1334              		.loc 1 465 0
 1335 0736 059B     		ldr	r3, [sp, #20]
 1336 0738 009A     		ldr	r2, [sp]
 1337 073a 5A60     		str	r2, [r3, #4]
ARM GAS  /tmp/cceJrrFk.s 			page 25


 1338              		.loc 1 466 0
 1339 073c 059B     		ldr	r3, [sp, #20]
 1340 073e 0022     		movs	r2, #0
 1341 0740 9A60     		str	r2, [r3, #8]
 1342              		.loc 1 468 0
 1343 0742 9DF80B30 		ldrb	r3, [sp, #11]	@ zero_extendqisi2
 1344 0746 0398     		ldr	r0, [sp, #12]
 1345 0748 1946     		mov	r1, r3
 1346 074a FFF7FEFF 		bl	usb_lld_prepare_transmit
 1347              		.loc 1 469 0
 1348 074e 07B0     		add	sp, sp, #28
 1349              		.cfi_def_cfa_offset 4
 1350              		@ sp needed
 1351 0750 5DF804FB 		ldr	pc, [sp], #4
 1352              		.cfi_endproc
 1353              	.LFE129:
 1354              		.size	usbPrepareQueuedTransmit, .-usbPrepareQueuedTransmit
 1355              		.section	.rodata
 1356 00cf 00       		.align	2
 1357              	.LC9:
 1358 00d0 22757362 		.ascii	"\"usbStartReceiveI\"()\000"
 1358      53746172 
 1358      74526563 
 1358      65697665 
 1358      49222829 
 1359              		.text
 1360              		.align	2
 1361              		.global	usbStartReceiveI
 1362              		.thumb
 1363              		.thumb_func
 1364              		.type	usbStartReceiveI, %function
 1365              	usbStartReceiveI:
 1366              	.LFB130:
 1367              		.loc 1 485 0
 1368              		.cfi_startproc
 1369              		@ args = 0, pretend = 0, frame = 8
 1370              		@ frame_needed = 0, uses_anonymous_args = 0
 1371 0754 00B5     		push	{lr}
 1372              		.cfi_def_cfa_offset 4
 1373              		.cfi_offset 14, -4
 1374 0756 83B0     		sub	sp, sp, #12
 1375              		.cfi_def_cfa_offset 16
 1376 0758 0190     		str	r0, [sp, #4]
 1377 075a 0B46     		mov	r3, r1
 1378 075c 8DF80330 		strb	r3, [sp, #3]
 1379              		.loc 1 487 0
 1380 0760 FFF7FEFF 		bl	chDbgCheckClassI
 1381              		.loc 1 488 0
 1382 0764 019B     		ldr	r3, [sp, #4]
 1383 0766 002B     		cmp	r3, #0
 1384 0768 02D1     		bne	.L81
 1385              		.loc 1 488 0 is_stmt 0 discriminator 1
 1386 076a 1548     		ldr	r0, .L84
 1387 076c FFF7FEFF 		bl	chDbgPanic
 1388              	.L81:
 1389              		.loc 1 490 0 is_stmt 1
 1390 0770 019B     		ldr	r3, [sp, #4]
ARM GAS  /tmp/cceJrrFk.s 			page 26


 1391 0772 5B89     		ldrh	r3, [r3, #10]
 1392 0774 1A46     		mov	r2, r3
 1393 0776 9DF80330 		ldrb	r3, [sp, #3]	@ zero_extendqisi2
 1394 077a 42FA03F3 		asr	r3, r2, r3
 1395 077e 03F00103 		and	r3, r3, #1
 1396 0782 002B     		cmp	r3, #0
 1397 0784 01D0     		beq	.L82
 1398              		.loc 1 491 0
 1399 0786 0123     		movs	r3, #1
 1400 0788 15E0     		b	.L83
 1401              	.L82:
 1402              		.loc 1 493 0
 1403 078a 019B     		ldr	r3, [sp, #4]
 1404 078c 5B89     		ldrh	r3, [r3, #10]
 1405 078e 99B2     		uxth	r1, r3
 1406 0790 9DF80330 		ldrb	r3, [sp, #3]	@ zero_extendqisi2
 1407 0794 0122     		movs	r2, #1
 1408 0796 02FA03F3 		lsl	r3, r2, r3
 1409 079a 9BB2     		uxth	r3, r3
 1410 079c 0A46     		mov	r2, r1	@ movhi
 1411 079e 1343     		orrs	r3, r3, r2
 1412 07a0 9BB2     		uxth	r3, r3
 1413 07a2 9AB2     		uxth	r2, r3
 1414 07a4 019B     		ldr	r3, [sp, #4]
 1415 07a6 5A81     		strh	r2, [r3, #10]	@ movhi
 1416              		.loc 1 494 0
 1417 07a8 9DF80330 		ldrb	r3, [sp, #3]	@ zero_extendqisi2
 1418 07ac 0198     		ldr	r0, [sp, #4]
 1419 07ae 1946     		mov	r1, r3
 1420 07b0 FFF7FEFF 		bl	usb_lld_start_out
 1421              		.loc 1 495 0
 1422 07b4 0023     		movs	r3, #0
 1423              	.L83:
 1424              		.loc 1 496 0
 1425 07b6 1846     		mov	r0, r3
 1426 07b8 03B0     		add	sp, sp, #12
 1427              		.cfi_def_cfa_offset 4
 1428              		@ sp needed
 1429 07ba 5DF804FB 		ldr	pc, [sp], #4
 1430              	.L85:
 1431 07be 00BF     		.align	2
 1432              	.L84:
 1433 07c0 D0000000 		.word	.LC9
 1434              		.cfi_endproc
 1435              	.LFE130:
 1436              		.size	usbStartReceiveI, .-usbStartReceiveI
 1437              		.section	.rodata
 1438 00e5 000000   		.align	2
 1439              	.LC10:
 1440 00e8 22757362 		.ascii	"\"usbStartTransmitI\"()\000"
 1440      53746172 
 1440      74547261 
 1440      6E736D69 
 1440      74492228 
 1441              		.text
 1442              		.align	2
 1443              		.global	usbStartTransmitI
ARM GAS  /tmp/cceJrrFk.s 			page 27


 1444              		.thumb
 1445              		.thumb_func
 1446              		.type	usbStartTransmitI, %function
 1447              	usbStartTransmitI:
 1448              	.LFB131:
 1449              		.loc 1 512 0
 1450              		.cfi_startproc
 1451              		@ args = 0, pretend = 0, frame = 8
 1452              		@ frame_needed = 0, uses_anonymous_args = 0
 1453 07c4 00B5     		push	{lr}
 1454              		.cfi_def_cfa_offset 4
 1455              		.cfi_offset 14, -4
 1456 07c6 83B0     		sub	sp, sp, #12
 1457              		.cfi_def_cfa_offset 16
 1458 07c8 0190     		str	r0, [sp, #4]
 1459 07ca 0B46     		mov	r3, r1
 1460 07cc 8DF80330 		strb	r3, [sp, #3]
 1461              		.loc 1 514 0
 1462 07d0 FFF7FEFF 		bl	chDbgCheckClassI
 1463              		.loc 1 515 0
 1464 07d4 019B     		ldr	r3, [sp, #4]
 1465 07d6 002B     		cmp	r3, #0
 1466 07d8 02D1     		bne	.L87
 1467              		.loc 1 515 0 is_stmt 0 discriminator 1
 1468 07da 1548     		ldr	r0, .L90
 1469 07dc FFF7FEFF 		bl	chDbgPanic
 1470              	.L87:
 1471              		.loc 1 517 0 is_stmt 1
 1472 07e0 019B     		ldr	r3, [sp, #4]
 1473 07e2 1B89     		ldrh	r3, [r3, #8]
 1474 07e4 1A46     		mov	r2, r3
 1475 07e6 9DF80330 		ldrb	r3, [sp, #3]	@ zero_extendqisi2
 1476 07ea 42FA03F3 		asr	r3, r2, r3
 1477 07ee 03F00103 		and	r3, r3, #1
 1478 07f2 002B     		cmp	r3, #0
 1479 07f4 01D0     		beq	.L88
 1480              		.loc 1 518 0
 1481 07f6 0123     		movs	r3, #1
 1482 07f8 15E0     		b	.L89
 1483              	.L88:
 1484              		.loc 1 520 0
 1485 07fa 019B     		ldr	r3, [sp, #4]
 1486 07fc 1B89     		ldrh	r3, [r3, #8]
 1487 07fe 99B2     		uxth	r1, r3
 1488 0800 9DF80330 		ldrb	r3, [sp, #3]	@ zero_extendqisi2
 1489 0804 0122     		movs	r2, #1
 1490 0806 02FA03F3 		lsl	r3, r2, r3
 1491 080a 9BB2     		uxth	r3, r3
 1492 080c 0A46     		mov	r2, r1	@ movhi
 1493 080e 1343     		orrs	r3, r3, r2
 1494 0810 9BB2     		uxth	r3, r3
 1495 0812 9AB2     		uxth	r2, r3
 1496 0814 019B     		ldr	r3, [sp, #4]
 1497 0816 1A81     		strh	r2, [r3, #8]	@ movhi
 1498              		.loc 1 521 0
 1499 0818 9DF80330 		ldrb	r3, [sp, #3]	@ zero_extendqisi2
 1500 081c 0198     		ldr	r0, [sp, #4]
ARM GAS  /tmp/cceJrrFk.s 			page 28


 1501 081e 1946     		mov	r1, r3
 1502 0820 FFF7FEFF 		bl	usb_lld_start_in
 1503              		.loc 1 522 0
 1504 0824 0023     		movs	r3, #0
 1505              	.L89:
 1506              		.loc 1 523 0
 1507 0826 1846     		mov	r0, r3
 1508 0828 03B0     		add	sp, sp, #12
 1509              		.cfi_def_cfa_offset 4
 1510              		@ sp needed
 1511 082a 5DF804FB 		ldr	pc, [sp], #4
 1512              	.L91:
 1513 082e 00BF     		.align	2
 1514              	.L90:
 1515 0830 E8000000 		.word	.LC10
 1516              		.cfi_endproc
 1517              	.LFE131:
 1518              		.size	usbStartTransmitI, .-usbStartTransmitI
 1519              		.section	.rodata
 1520 00fe 0000     		.align	2
 1521              	.LC11:
 1522 0100 22757362 		.ascii	"\"usbStallReceiveI\"()\000"
 1522      5374616C 
 1522      6C526563 
 1522      65697665 
 1522      49222829 
 1523              		.text
 1524              		.align	2
 1525              		.global	usbStallReceiveI
 1526              		.thumb
 1527              		.thumb_func
 1528              		.type	usbStallReceiveI, %function
 1529              	usbStallReceiveI:
 1530              	.LFB132:
 1531              		.loc 1 537 0
 1532              		.cfi_startproc
 1533              		@ args = 0, pretend = 0, frame = 8
 1534              		@ frame_needed = 0, uses_anonymous_args = 0
 1535 0834 00B5     		push	{lr}
 1536              		.cfi_def_cfa_offset 4
 1537              		.cfi_offset 14, -4
 1538 0836 83B0     		sub	sp, sp, #12
 1539              		.cfi_def_cfa_offset 16
 1540 0838 0190     		str	r0, [sp, #4]
 1541 083a 0B46     		mov	r3, r1
 1542 083c 8DF80330 		strb	r3, [sp, #3]
 1543              		.loc 1 539 0
 1544 0840 FFF7FEFF 		bl	chDbgCheckClassI
 1545              		.loc 1 540 0
 1546 0844 019B     		ldr	r3, [sp, #4]
 1547 0846 002B     		cmp	r3, #0
 1548 0848 02D1     		bne	.L93
 1549              		.loc 1 540 0 is_stmt 0 discriminator 1
 1550 084a 0D48     		ldr	r0, .L96
 1551 084c FFF7FEFF 		bl	chDbgPanic
 1552              	.L93:
 1553              		.loc 1 542 0 is_stmt 1
ARM GAS  /tmp/cceJrrFk.s 			page 29


 1554 0850 019B     		ldr	r3, [sp, #4]
 1555 0852 5B89     		ldrh	r3, [r3, #10]
 1556 0854 1A46     		mov	r2, r3
 1557 0856 9DF80330 		ldrb	r3, [sp, #3]	@ zero_extendqisi2
 1558 085a 42FA03F3 		asr	r3, r2, r3
 1559 085e 03F00103 		and	r3, r3, #1
 1560 0862 002B     		cmp	r3, #0
 1561 0864 01D0     		beq	.L94
 1562              		.loc 1 543 0
 1563 0866 0123     		movs	r3, #1
 1564 0868 06E0     		b	.L95
 1565              	.L94:
 1566              		.loc 1 545 0
 1567 086a 9DF80330 		ldrb	r3, [sp, #3]	@ zero_extendqisi2
 1568 086e 0198     		ldr	r0, [sp, #4]
 1569 0870 1946     		mov	r1, r3
 1570 0872 FFF7FEFF 		bl	usb_lld_stall_out
 1571              		.loc 1 546 0
 1572 0876 0023     		movs	r3, #0
 1573              	.L95:
 1574              		.loc 1 547 0
 1575 0878 1846     		mov	r0, r3
 1576 087a 03B0     		add	sp, sp, #12
 1577              		.cfi_def_cfa_offset 4
 1578              		@ sp needed
 1579 087c 5DF804FB 		ldr	pc, [sp], #4
 1580              	.L97:
 1581              		.align	2
 1582              	.L96:
 1583 0880 00010000 		.word	.LC11
 1584              		.cfi_endproc
 1585              	.LFE132:
 1586              		.size	usbStallReceiveI, .-usbStallReceiveI
 1587              		.section	.rodata
 1588 0115 000000   		.align	2
 1589              	.LC12:
 1590 0118 22757362 		.ascii	"\"usbStallTransmitI\"()\000"
 1590      5374616C 
 1590      6C547261 
 1590      6E736D69 
 1590      74492228 
 1591 012e 0000     		.text
 1592              		.align	2
 1593              		.global	usbStallTransmitI
 1594              		.thumb
 1595              		.thumb_func
 1596              		.type	usbStallTransmitI, %function
 1597              	usbStallTransmitI:
 1598              	.LFB133:
 1599              		.loc 1 561 0
 1600              		.cfi_startproc
 1601              		@ args = 0, pretend = 0, frame = 8
 1602              		@ frame_needed = 0, uses_anonymous_args = 0
 1603 0884 00B5     		push	{lr}
 1604              		.cfi_def_cfa_offset 4
 1605              		.cfi_offset 14, -4
 1606 0886 83B0     		sub	sp, sp, #12
ARM GAS  /tmp/cceJrrFk.s 			page 30


 1607              		.cfi_def_cfa_offset 16
 1608 0888 0190     		str	r0, [sp, #4]
 1609 088a 0B46     		mov	r3, r1
 1610 088c 8DF80330 		strb	r3, [sp, #3]
 1611              		.loc 1 563 0
 1612 0890 FFF7FEFF 		bl	chDbgCheckClassI
 1613              		.loc 1 564 0
 1614 0894 019B     		ldr	r3, [sp, #4]
 1615 0896 002B     		cmp	r3, #0
 1616 0898 02D1     		bne	.L99
 1617              		.loc 1 564 0 is_stmt 0 discriminator 1
 1618 089a 0D48     		ldr	r0, .L102
 1619 089c FFF7FEFF 		bl	chDbgPanic
 1620              	.L99:
 1621              		.loc 1 566 0 is_stmt 1
 1622 08a0 019B     		ldr	r3, [sp, #4]
 1623 08a2 1B89     		ldrh	r3, [r3, #8]
 1624 08a4 1A46     		mov	r2, r3
 1625 08a6 9DF80330 		ldrb	r3, [sp, #3]	@ zero_extendqisi2
 1626 08aa 42FA03F3 		asr	r3, r2, r3
 1627 08ae 03F00103 		and	r3, r3, #1
 1628 08b2 002B     		cmp	r3, #0
 1629 08b4 01D0     		beq	.L100
 1630              		.loc 1 567 0
 1631 08b6 0123     		movs	r3, #1
 1632 08b8 06E0     		b	.L101
 1633              	.L100:
 1634              		.loc 1 569 0
 1635 08ba 9DF80330 		ldrb	r3, [sp, #3]	@ zero_extendqisi2
 1636 08be 0198     		ldr	r0, [sp, #4]
 1637 08c0 1946     		mov	r1, r3
 1638 08c2 FFF7FEFF 		bl	usb_lld_stall_in
 1639              		.loc 1 570 0
 1640 08c6 0023     		movs	r3, #0
 1641              	.L101:
 1642              		.loc 1 571 0
 1643 08c8 1846     		mov	r0, r3
 1644 08ca 03B0     		add	sp, sp, #12
 1645              		.cfi_def_cfa_offset 4
 1646              		@ sp needed
 1647 08cc 5DF804FB 		ldr	pc, [sp], #4
 1648              	.L103:
 1649              		.align	2
 1650              	.L102:
 1651 08d0 18010000 		.word	.LC12
 1652              		.cfi_endproc
 1653              	.LFE133:
 1654              		.size	usbStallTransmitI, .-usbStallTransmitI
 1655              		.align	2
 1656              		.global	_usb_reset
 1657              		.thumb
 1658              		.thumb_func
 1659              		.type	_usb_reset, %function
 1660              	_usb_reset:
 1661              	.LFB134:
 1662              		.loc 1 582 0
 1663              		.cfi_startproc
ARM GAS  /tmp/cceJrrFk.s 			page 31


 1664              		@ args = 0, pretend = 0, frame = 16
 1665              		@ frame_needed = 0, uses_anonymous_args = 0
 1666 08d4 00B5     		push	{lr}
 1667              		.cfi_def_cfa_offset 4
 1668              		.cfi_offset 14, -4
 1669 08d6 85B0     		sub	sp, sp, #20
 1670              		.cfi_def_cfa_offset 24
 1671 08d8 0190     		str	r0, [sp, #4]
 1672              		.loc 1 585 0
 1673 08da 019B     		ldr	r3, [sp, #4]
 1674 08dc 0222     		movs	r2, #2
 1675 08de 1A70     		strb	r2, [r3]
 1676              		.loc 1 586 0
 1677 08e0 019B     		ldr	r3, [sp, #4]
 1678 08e2 0022     		movs	r2, #0
 1679 08e4 A3F87C20 		strh	r2, [r3, #124]	@ movhi
 1680              		.loc 1 587 0
 1681 08e8 019B     		ldr	r3, [sp, #4]
 1682 08ea 0022     		movs	r2, #0
 1683 08ec 83F87E20 		strb	r2, [r3, #126]
 1684              		.loc 1 588 0
 1685 08f0 019B     		ldr	r3, [sp, #4]
 1686 08f2 0022     		movs	r2, #0
 1687 08f4 83F87F20 		strb	r2, [r3, #127]
 1688              		.loc 1 589 0
 1689 08f8 019B     		ldr	r3, [sp, #4]
 1690 08fa 0022     		movs	r2, #0
 1691 08fc 1A81     		strh	r2, [r3, #8]	@ movhi
 1692              		.loc 1 590 0
 1693 08fe 019B     		ldr	r3, [sp, #4]
 1694 0900 0022     		movs	r2, #0
 1695 0902 5A81     		strh	r2, [r3, #10]	@ movhi
 1696              		.loc 1 593 0
 1697 0904 0023     		movs	r3, #0
 1698 0906 0393     		str	r3, [sp, #12]
 1699 0908 09E0     		b	.L105
 1700              	.L106:
 1701              		.loc 1 594 0 discriminator 3
 1702 090a 019A     		ldr	r2, [sp, #4]
 1703 090c 039B     		ldr	r3, [sp, #12]
 1704 090e 0233     		adds	r3, r3, #2
 1705 0910 9B00     		lsls	r3, r3, #2
 1706 0912 1344     		add	r3, r3, r2
 1707 0914 0022     		movs	r2, #0
 1708 0916 5A60     		str	r2, [r3, #4]
 1709              		.loc 1 593 0 discriminator 3
 1710 0918 039B     		ldr	r3, [sp, #12]
 1711 091a 0133     		adds	r3, r3, #1
 1712 091c 0393     		str	r3, [sp, #12]
 1713              	.L105:
 1714              		.loc 1 593 0 is_stmt 0 discriminator 1
 1715 091e 039B     		ldr	r3, [sp, #12]
 1716 0920 072B     		cmp	r3, #7
 1717 0922 F2D9     		bls	.L106
 1718              		.loc 1 597 0 is_stmt 1
 1719 0924 019B     		ldr	r3, [sp, #4]
 1720 0926 0022     		movs	r2, #0
ARM GAS  /tmp/cceJrrFk.s 			page 32


 1721 0928 83F86420 		strb	r2, [r3, #100]
 1722              		.loc 1 600 0
 1723 092c 0198     		ldr	r0, [sp, #4]
 1724 092e FFF7FEFF 		bl	usb_lld_reset
 1725              		.loc 1 601 0
 1726 0932 05B0     		add	sp, sp, #20
 1727              		.cfi_def_cfa_offset 4
 1728              		@ sp needed
 1729 0934 5DF804FB 		ldr	pc, [sp], #4
 1730              		.cfi_endproc
 1731              	.LFE134:
 1732              		.size	_usb_reset, .-_usb_reset
 1733              		.align	2
 1734              		.global	_usb_ep0setup
 1735              		.thumb
 1736              		.thumb_func
 1737              		.type	_usb_ep0setup, %function
 1738              	_usb_ep0setup:
 1739              	.LFB135:
 1740              		.loc 1 613 0
 1741              		.cfi_startproc
 1742              		@ args = 0, pretend = 0, frame = 16
 1743              		@ frame_needed = 0, uses_anonymous_args = 0
 1744 0938 00B5     		push	{lr}
 1745              		.cfi_def_cfa_offset 4
 1746              		.cfi_offset 14, -4
 1747 093a 85B0     		sub	sp, sp, #20
 1748              		.cfi_def_cfa_offset 24
 1749 093c 0190     		str	r0, [sp, #4]
 1750 093e 0B46     		mov	r3, r1
 1751 0940 8DF80330 		strb	r3, [sp, #3]
 1752              		.loc 1 616 0
 1753 0944 019B     		ldr	r3, [sp, #4]
 1754 0946 0022     		movs	r2, #0
 1755 0948 83F86420 		strb	r2, [r3, #100]
 1756              		.loc 1 617 0
 1757 094c 019B     		ldr	r3, [sp, #4]
 1758 094e 7433     		adds	r3, r3, #116
 1759 0950 9DF80320 		ldrb	r2, [sp, #3]	@ zero_extendqisi2
 1760 0954 0198     		ldr	r0, [sp, #4]
 1761 0956 1146     		mov	r1, r2
 1762 0958 1A46     		mov	r2, r3
 1763 095a FFF7FEFF 		bl	usb_lld_read_setup
 1764              		.loc 1 621 0
 1765 095e 019B     		ldr	r3, [sp, #4]
 1766 0960 5B68     		ldr	r3, [r3, #4]
 1767 0962 9B68     		ldr	r3, [r3, #8]
 1768 0964 002B     		cmp	r3, #0
 1769 0966 0AD0     		beq	.L108
 1770              		.loc 1 622 0 discriminator 1
 1771 0968 019B     		ldr	r3, [sp, #4]
 1772 096a 5B68     		ldr	r3, [r3, #4]
 1773 096c 9B68     		ldr	r3, [r3, #8]
 1774 096e 0198     		ldr	r0, [sp, #4]
 1775 0970 9847     		blx	r3
 1776 0972 0346     		mov	r3, r0
 1777 0974 83F00103 		eor	r3, r3, #1
ARM GAS  /tmp/cceJrrFk.s 			page 33


 1778 0978 DBB2     		uxtb	r3, r3
 1779              		.loc 1 621 0 discriminator 1
 1780 097a 002B     		cmp	r3, #0
 1781 097c 27D0     		beq	.L109
 1782              	.L108:
 1783              		.loc 1 625 0
 1784 097e 019B     		ldr	r3, [sp, #4]
 1785 0980 93F87430 		ldrb	r3, [r3, #116]	@ zero_extendqisi2
 1786 0984 03F06003 		and	r3, r3, #96
 1787 0988 002B     		cmp	r3, #0
 1788 098a 08D1     		bne	.L110
 1789              		.loc 1 626 0 discriminator 1
 1790 098c 0198     		ldr	r0, [sp, #4]
 1791 098e FFF755FB 		bl	default_handler
 1792 0992 0346     		mov	r3, r0
 1793 0994 83F00103 		eor	r3, r3, #1
 1794 0998 DBB2     		uxtb	r3, r3
 1795              		.loc 1 625 0 discriminator 1
 1796 099a 002B     		cmp	r3, #0
 1797 099c 17D0     		beq	.L109
 1798              	.L110:
 1799              		.loc 1 630 0
 1800 099e 0198     		ldr	r0, [sp, #4]
 1801 09a0 0021     		movs	r1, #0
 1802 09a2 FFF7FEFF 		bl	usb_lld_stall_in
 1803              		.loc 1 631 0
 1804 09a6 0198     		ldr	r0, [sp, #4]
 1805 09a8 0021     		movs	r1, #0
 1806 09aa FFF7FEFF 		bl	usb_lld_stall_out
 1807              		.loc 1 632 0
 1808 09ae 019B     		ldr	r3, [sp, #4]
 1809 09b0 5B68     		ldr	r3, [r3, #4]
 1810 09b2 1B68     		ldr	r3, [r3]
 1811 09b4 002B     		cmp	r3, #0
 1812 09b6 05D0     		beq	.L111
 1813              		.loc 1 632 0 is_stmt 0 discriminator 1
 1814 09b8 019B     		ldr	r3, [sp, #4]
 1815 09ba 5B68     		ldr	r3, [r3, #4]
 1816 09bc 1B68     		ldr	r3, [r3]
 1817 09be 0198     		ldr	r0, [sp, #4]
 1818 09c0 0521     		movs	r1, #5
 1819 09c2 9847     		blx	r3
 1820              	.L111:
 1821              		.loc 1 633 0 is_stmt 1
 1822 09c4 019B     		ldr	r3, [sp, #4]
 1823 09c6 0622     		movs	r2, #6
 1824 09c8 83F86420 		strb	r2, [r3, #100]
 1825              		.loc 1 634 0
 1826 09cc 87E0     		b	.L107
 1827              	.L109:
 1828              		.loc 1 646 0
 1829 09ce 019B     		ldr	r3, [sp, #4]
 1830 09d0 93F87A30 		ldrb	r3, [r3, #122]	@ zero_extendqisi2
 1831 09d4 1A46     		mov	r2, r3
 1832 09d6 019B     		ldr	r3, [sp, #4]
 1833 09d8 93F87B30 		ldrb	r3, [r3, #123]	@ zero_extendqisi2
 1834 09dc 1B02     		lsls	r3, r3, #8
ARM GAS  /tmp/cceJrrFk.s 			page 34


 1835 09de 1343     		orrs	r3, r3, r2
 1836 09e0 0393     		str	r3, [sp, #12]
 1837              		.loc 1 648 0
 1838 09e2 019B     		ldr	r3, [sp, #4]
 1839 09e4 DA6E     		ldr	r2, [r3, #108]
 1840 09e6 039B     		ldr	r3, [sp, #12]
 1841 09e8 9A42     		cmp	r2, r3
 1842 09ea 02D9     		bls	.L113
 1843              		.loc 1 649 0
 1844 09ec 019B     		ldr	r3, [sp, #4]
 1845 09ee 039A     		ldr	r2, [sp, #12]
 1846 09f0 DA66     		str	r2, [r3, #108]
 1847              	.L113:
 1848              		.loc 1 650 0
 1849 09f2 019B     		ldr	r3, [sp, #4]
 1850 09f4 93F87430 		ldrb	r3, [r3, #116]	@ zero_extendqisi2
 1851 09f8 DBB2     		uxtb	r3, r3
 1852 09fa 5BB2     		sxtb	r3, r3
 1853 09fc 002B     		cmp	r3, #0
 1854 09fe 37DA     		bge	.L114
 1855              		.loc 1 652 0
 1856 0a00 019B     		ldr	r3, [sp, #4]
 1857 0a02 DB6E     		ldr	r3, [r3, #108]
 1858 0a04 002B     		cmp	r3, #0
 1859 0a06 1AD0     		beq	.L115
 1860              		.loc 1 654 0
 1861 0a08 019B     		ldr	r3, [sp, #4]
 1862 0a0a 0122     		movs	r2, #1
 1863 0a0c 83F86420 		strb	r2, [r3, #100]
 1864              		.loc 1 655 0
 1865 0a10 019B     		ldr	r3, [sp, #4]
 1866 0a12 9A6E     		ldr	r2, [r3, #104]
 1867 0a14 019B     		ldr	r3, [sp, #4]
 1868 0a16 DB6E     		ldr	r3, [r3, #108]
 1869 0a18 0198     		ldr	r0, [sp, #4]
 1870 0a1a 0021     		movs	r1, #0
 1871 0a1c FFF7FEFF 		bl	usbPrepareTransmit
 1872              	.LBB6:
 1873              		.loc 1 656 0
 1874 0a20 2023     		movs	r3, #32
 1875              	@ 656 "/opt/R2P/core/ChibiOS_2.6.5/os/hal/src/usb.c" 1
 1876 0a22 83F31188 		msr     BASEPRI, r3
 1877              	@ 0 "" 2
 1878              		.thumb
 1879              	.LBE6:
 1880 0a26 FFF7FEFF 		bl	dbg_check_lock_from_isr
 1881              		.loc 1 657 0
 1882 0a2a 0198     		ldr	r0, [sp, #4]
 1883 0a2c 0021     		movs	r1, #0
 1884 0a2e FFF7FEFF 		bl	usbStartTransmitI
 1885              		.loc 1 658 0
 1886 0a32 FFF7FEFF 		bl	dbg_check_unlock_from_isr
 1887              	.LBB7:
 1888 0a36 0023     		movs	r3, #0
 1889              	@ 658 "/opt/R2P/core/ChibiOS_2.6.5/os/hal/src/usb.c" 1
 1890 0a38 83F31188 		msr     BASEPRI, r3
 1891              	@ 0 "" 2
ARM GAS  /tmp/cceJrrFk.s 			page 35


 1892              		.thumb
 1893              	.LBE7:
 1894 0a3c 4FE0     		b	.L107
 1895              	.L115:
 1896              		.loc 1 663 0
 1897 0a3e 019B     		ldr	r3, [sp, #4]
 1898 0a40 0322     		movs	r2, #3
 1899 0a42 83F86420 		strb	r2, [r3, #100]
 1900              		.loc 1 665 0
 1901 0a46 0198     		ldr	r0, [sp, #4]
 1902 0a48 0021     		movs	r1, #0
 1903 0a4a 0022     		movs	r2, #0
 1904 0a4c 0023     		movs	r3, #0
 1905 0a4e FFF7FEFF 		bl	usbPrepareReceive
 1906              	.LBB8:
 1907              		.loc 1 666 0
 1908 0a52 2023     		movs	r3, #32
 1909              	@ 666 "/opt/R2P/core/ChibiOS_2.6.5/os/hal/src/usb.c" 1
 1910 0a54 83F31188 		msr     BASEPRI, r3
 1911              	@ 0 "" 2
 1912              		.thumb
 1913              	.LBE8:
 1914 0a58 FFF7FEFF 		bl	dbg_check_lock_from_isr
 1915              		.loc 1 667 0
 1916 0a5c 0198     		ldr	r0, [sp, #4]
 1917 0a5e 0021     		movs	r1, #0
 1918 0a60 FFF7FEFF 		bl	usbStartReceiveI
 1919              		.loc 1 668 0
 1920 0a64 FFF7FEFF 		bl	dbg_check_unlock_from_isr
 1921              	.LBB9:
 1922 0a68 0023     		movs	r3, #0
 1923              	@ 668 "/opt/R2P/core/ChibiOS_2.6.5/os/hal/src/usb.c" 1
 1924 0a6a 83F31188 		msr     BASEPRI, r3
 1925              	@ 0 "" 2
 1926              		.thumb
 1927 0a6e 36E0     		b	.L107
 1928              	.L114:
 1929              	.LBE9:
 1930              		.loc 1 676 0
 1931 0a70 019B     		ldr	r3, [sp, #4]
 1932 0a72 DB6E     		ldr	r3, [r3, #108]
 1933 0a74 002B     		cmp	r3, #0
 1934 0a76 1AD0     		beq	.L117
 1935              		.loc 1 678 0
 1936 0a78 019B     		ldr	r3, [sp, #4]
 1937 0a7a 0422     		movs	r2, #4
 1938 0a7c 83F86420 		strb	r2, [r3, #100]
 1939              		.loc 1 679 0
 1940 0a80 019B     		ldr	r3, [sp, #4]
 1941 0a82 9A6E     		ldr	r2, [r3, #104]
 1942 0a84 019B     		ldr	r3, [sp, #4]
 1943 0a86 DB6E     		ldr	r3, [r3, #108]
 1944 0a88 0198     		ldr	r0, [sp, #4]
 1945 0a8a 0021     		movs	r1, #0
 1946 0a8c FFF7FEFF 		bl	usbPrepareReceive
 1947              	.LBB10:
 1948              		.loc 1 680 0
ARM GAS  /tmp/cceJrrFk.s 			page 36


 1949 0a90 2023     		movs	r3, #32
 1950              	@ 680 "/opt/R2P/core/ChibiOS_2.6.5/os/hal/src/usb.c" 1
 1951 0a92 83F31188 		msr     BASEPRI, r3
 1952              	@ 0 "" 2
 1953              		.thumb
 1954              	.LBE10:
 1955 0a96 FFF7FEFF 		bl	dbg_check_lock_from_isr
 1956              		.loc 1 681 0
 1957 0a9a 0198     		ldr	r0, [sp, #4]
 1958 0a9c 0021     		movs	r1, #0
 1959 0a9e FFF7FEFF 		bl	usbStartReceiveI
 1960              		.loc 1 682 0
 1961 0aa2 FFF7FEFF 		bl	dbg_check_unlock_from_isr
 1962              	.LBB11:
 1963 0aa6 0023     		movs	r3, #0
 1964              	@ 682 "/opt/R2P/core/ChibiOS_2.6.5/os/hal/src/usb.c" 1
 1965 0aa8 83F31188 		msr     BASEPRI, r3
 1966              	@ 0 "" 2
 1967              		.thumb
 1968              	.LBE11:
 1969 0aac 17E0     		b	.L107
 1970              	.L117:
 1971              		.loc 1 687 0
 1972 0aae 019B     		ldr	r3, [sp, #4]
 1973 0ab0 0522     		movs	r2, #5
 1974 0ab2 83F86420 		strb	r2, [r3, #100]
 1975              		.loc 1 689 0
 1976 0ab6 0198     		ldr	r0, [sp, #4]
 1977 0ab8 0021     		movs	r1, #0
 1978 0aba 0022     		movs	r2, #0
 1979 0abc 0023     		movs	r3, #0
 1980 0abe FFF7FEFF 		bl	usbPrepareTransmit
 1981              	.LBB12:
 1982              		.loc 1 690 0
 1983 0ac2 2023     		movs	r3, #32
 1984              	@ 690 "/opt/R2P/core/ChibiOS_2.6.5/os/hal/src/usb.c" 1
 1985 0ac4 83F31188 		msr     BASEPRI, r3
 1986              	@ 0 "" 2
 1987              		.thumb
 1988              	.LBE12:
 1989 0ac8 FFF7FEFF 		bl	dbg_check_lock_from_isr
 1990              		.loc 1 691 0
 1991 0acc 0198     		ldr	r0, [sp, #4]
 1992 0ace 0021     		movs	r1, #0
 1993 0ad0 FFF7FEFF 		bl	usbStartTransmitI
 1994              		.loc 1 692 0
 1995 0ad4 FFF7FEFF 		bl	dbg_check_unlock_from_isr
 1996              	.LBB13:
 1997 0ad8 0023     		movs	r3, #0
 1998              	@ 692 "/opt/R2P/core/ChibiOS_2.6.5/os/hal/src/usb.c" 1
 1999 0ada 83F31188 		msr     BASEPRI, r3
 2000              	@ 0 "" 2
 2001              		.thumb
 2002              	.L107:
 2003              	.LBE13:
 2004              		.loc 1 698 0
 2005 0ade 05B0     		add	sp, sp, #20
ARM GAS  /tmp/cceJrrFk.s 			page 37


 2006              		.cfi_def_cfa_offset 4
 2007              		@ sp needed
 2008 0ae0 5DF804FB 		ldr	pc, [sp], #4
 2009              		.cfi_endproc
 2010              	.LFE135:
 2011              		.size	_usb_ep0setup, .-_usb_ep0setup
 2012              		.align	2
 2013              		.global	_usb_ep0in
 2014              		.thumb
 2015              		.thumb_func
 2016              		.type	_usb_ep0in, %function
 2017              	_usb_ep0in:
 2018              	.LFB136:
 2019              		.loc 1 710 0
 2020              		.cfi_startproc
 2021              		@ args = 0, pretend = 0, frame = 16
 2022              		@ frame_needed = 0, uses_anonymous_args = 0
 2023 0ae4 00B5     		push	{lr}
 2024              		.cfi_def_cfa_offset 4
 2025              		.cfi_offset 14, -4
 2026 0ae6 85B0     		sub	sp, sp, #20
 2027              		.cfi_def_cfa_offset 24
 2028 0ae8 0190     		str	r0, [sp, #4]
 2029 0aea 0B46     		mov	r3, r1
 2030 0aec 8DF80330 		strb	r3, [sp, #3]
 2031              		.loc 1 714 0
 2032 0af0 019B     		ldr	r3, [sp, #4]
 2033 0af2 93F86430 		ldrb	r3, [r3, #100]	@ zero_extendqisi2
 2034 0af6 022B     		cmp	r3, #2
 2035 0af8 37D0     		beq	.L120
 2036 0afa 052B     		cmp	r3, #5
 2037 0afc 4ED0     		beq	.L121
 2038 0afe 012B     		cmp	r3, #1
 2039 0b00 59D1     		bne	.L126
 2040              		.loc 1 716 0
 2041 0b02 019B     		ldr	r3, [sp, #4]
 2042 0b04 93F87A30 		ldrb	r3, [r3, #122]	@ zero_extendqisi2
 2043 0b08 1A46     		mov	r2, r3
 2044 0b0a 019B     		ldr	r3, [sp, #4]
 2045 0b0c 93F87B30 		ldrb	r3, [r3, #123]	@ zero_extendqisi2
 2046 0b10 1B02     		lsls	r3, r3, #8
 2047 0b12 1343     		orrs	r3, r3, r2
 2048 0b14 0393     		str	r3, [sp, #12]
 2049              		.loc 1 720 0
 2050 0b16 019B     		ldr	r3, [sp, #4]
 2051 0b18 DA6E     		ldr	r2, [r3, #108]
 2052 0b1a 039B     		ldr	r3, [sp, #12]
 2053 0b1c 9A42     		cmp	r2, r3
 2054 0b1e 24D2     		bcs	.L120
 2055              		.loc 1 720 0 is_stmt 0 discriminator 1
 2056 0b20 019B     		ldr	r3, [sp, #4]
 2057 0b22 DB6E     		ldr	r3, [r3, #108]
 2058 0b24 019A     		ldr	r2, [sp, #4]
 2059 0b26 D268     		ldr	r2, [r2, #12]
 2060 0b28 128A     		ldrh	r2, [r2, #16]
 2061 0b2a B3FBF2F1 		udiv	r1, r3, r2
 2062 0b2e 02FB01F2 		mul	r2, r2, r1
ARM GAS  /tmp/cceJrrFk.s 			page 38


 2063 0b32 9B1A     		subs	r3, r3, r2
 2064 0b34 002B     		cmp	r3, #0
 2065 0b36 18D1     		bne	.L120
 2066              		.loc 1 721 0 is_stmt 1
 2067 0b38 0198     		ldr	r0, [sp, #4]
 2068 0b3a 0021     		movs	r1, #0
 2069 0b3c 0022     		movs	r2, #0
 2070 0b3e 0023     		movs	r3, #0
 2071 0b40 FFF7FEFF 		bl	usbPrepareTransmit
 2072              	.LBB14:
 2073              		.loc 1 722 0
 2074 0b44 2023     		movs	r3, #32
 2075              	@ 722 "/opt/R2P/core/ChibiOS_2.6.5/os/hal/src/usb.c" 1
 2076 0b46 83F31188 		msr     BASEPRI, r3
 2077              	@ 0 "" 2
 2078              		.thumb
 2079              	.LBE14:
 2080 0b4a FFF7FEFF 		bl	dbg_check_lock_from_isr
 2081              		.loc 1 723 0
 2082 0b4e 0198     		ldr	r0, [sp, #4]
 2083 0b50 0021     		movs	r1, #0
 2084 0b52 FFF7FEFF 		bl	usbStartTransmitI
 2085              		.loc 1 724 0
 2086 0b56 FFF7FEFF 		bl	dbg_check_unlock_from_isr
 2087              	.LBB15:
 2088 0b5a 0023     		movs	r3, #0
 2089              	@ 724 "/opt/R2P/core/ChibiOS_2.6.5/os/hal/src/usb.c" 1
 2090 0b5c 83F31188 		msr     BASEPRI, r3
 2091              	@ 0 "" 2
 2092              		.thumb
 2093              	.LBE15:
 2094              		.loc 1 725 0
 2095 0b60 019B     		ldr	r3, [sp, #4]
 2096 0b62 0222     		movs	r2, #2
 2097 0b64 83F86420 		strb	r2, [r3, #100]
 2098              		.loc 1 726 0
 2099 0b68 3CE0     		b	.L118
 2100              	.L120:
 2101              		.loc 1 731 0
 2102 0b6a 019B     		ldr	r3, [sp, #4]
 2103 0b6c 0322     		movs	r2, #3
 2104 0b6e 83F86420 		strb	r2, [r3, #100]
 2105              		.loc 1 733 0
 2106 0b72 0198     		ldr	r0, [sp, #4]
 2107 0b74 0021     		movs	r1, #0
 2108 0b76 0022     		movs	r2, #0
 2109 0b78 0023     		movs	r3, #0
 2110 0b7a FFF7FEFF 		bl	usbPrepareReceive
 2111              	.LBB16:
 2112              		.loc 1 734 0
 2113 0b7e 2023     		movs	r3, #32
 2114              	@ 734 "/opt/R2P/core/ChibiOS_2.6.5/os/hal/src/usb.c" 1
 2115 0b80 83F31188 		msr     BASEPRI, r3
 2116              	@ 0 "" 2
 2117              		.thumb
 2118              	.LBE16:
 2119 0b84 FFF7FEFF 		bl	dbg_check_lock_from_isr
ARM GAS  /tmp/cceJrrFk.s 			page 39


 2120              		.loc 1 735 0
 2121 0b88 0198     		ldr	r0, [sp, #4]
 2122 0b8a 0021     		movs	r1, #0
 2123 0b8c FFF7FEFF 		bl	usbStartReceiveI
 2124              		.loc 1 736 0
 2125 0b90 FFF7FEFF 		bl	dbg_check_unlock_from_isr
 2126              	.LBB17:
 2127 0b94 0023     		movs	r3, #0
 2128              	@ 736 "/opt/R2P/core/ChibiOS_2.6.5/os/hal/src/usb.c" 1
 2129 0b96 83F31188 		msr     BASEPRI, r3
 2130              	@ 0 "" 2
 2131              		.thumb
 2132              	.LBE17:
 2133              		.loc 1 740 0
 2134 0b9a 23E0     		b	.L118
 2135              	.L121:
 2136              		.loc 1 743 0
 2137 0b9c 019B     		ldr	r3, [sp, #4]
 2138 0b9e 1B6F     		ldr	r3, [r3, #112]
 2139 0ba0 002B     		cmp	r3, #0
 2140 0ba2 03D0     		beq	.L124
 2141              		.loc 1 744 0
 2142 0ba4 019B     		ldr	r3, [sp, #4]
 2143 0ba6 1B6F     		ldr	r3, [r3, #112]
 2144 0ba8 0198     		ldr	r0, [sp, #4]
 2145 0baa 9847     		blx	r3
 2146              	.L124:
 2147              		.loc 1 745 0
 2148 0bac 019B     		ldr	r3, [sp, #4]
 2149 0bae 0022     		movs	r2, #0
 2150 0bb0 83F86420 		strb	r2, [r3, #100]
 2151              		.loc 1 746 0
 2152 0bb4 16E0     		b	.L118
 2153              	.L126:
 2154              		.loc 1 753 0
 2155 0bb6 0198     		ldr	r0, [sp, #4]
 2156 0bb8 0021     		movs	r1, #0
 2157 0bba FFF7FEFF 		bl	usb_lld_stall_in
 2158              		.loc 1 754 0
 2159 0bbe 0198     		ldr	r0, [sp, #4]
 2160 0bc0 0021     		movs	r1, #0
 2161 0bc2 FFF7FEFF 		bl	usb_lld_stall_out
 2162              		.loc 1 755 0
 2163 0bc6 019B     		ldr	r3, [sp, #4]
 2164 0bc8 5B68     		ldr	r3, [r3, #4]
 2165 0bca 1B68     		ldr	r3, [r3]
 2166 0bcc 002B     		cmp	r3, #0
 2167 0bce 05D0     		beq	.L125
 2168              		.loc 1 755 0 is_stmt 0 discriminator 1
 2169 0bd0 019B     		ldr	r3, [sp, #4]
 2170 0bd2 5B68     		ldr	r3, [r3, #4]
 2171 0bd4 1B68     		ldr	r3, [r3]
 2172 0bd6 0198     		ldr	r0, [sp, #4]
 2173 0bd8 0521     		movs	r1, #5
 2174 0bda 9847     		blx	r3
 2175              	.L125:
 2176              		.loc 1 756 0 is_stmt 1
ARM GAS  /tmp/cceJrrFk.s 			page 40


 2177 0bdc 019B     		ldr	r3, [sp, #4]
 2178 0bde 0622     		movs	r2, #6
 2179 0be0 83F86420 		strb	r2, [r3, #100]
 2180              	.L118:
 2181              		.loc 1 757 0
 2182 0be4 05B0     		add	sp, sp, #20
 2183              		.cfi_def_cfa_offset 4
 2184              		@ sp needed
 2185 0be6 5DF804FB 		ldr	pc, [sp], #4
 2186              		.cfi_endproc
 2187              	.LFE136:
 2188              		.size	_usb_ep0in, .-_usb_ep0in
 2189 0bea 00BF     		.align	2
 2190              		.global	_usb_ep0out
 2191              		.thumb
 2192              		.thumb_func
 2193              		.type	_usb_ep0out, %function
 2194              	_usb_ep0out:
 2195              	.LFB137:
 2196              		.loc 1 769 0
 2197              		.cfi_startproc
 2198              		@ args = 0, pretend = 0, frame = 8
 2199              		@ frame_needed = 0, uses_anonymous_args = 0
 2200 0bec 00B5     		push	{lr}
 2201              		.cfi_def_cfa_offset 4
 2202              		.cfi_offset 14, -4
 2203 0bee 83B0     		sub	sp, sp, #12
 2204              		.cfi_def_cfa_offset 16
 2205 0bf0 0190     		str	r0, [sp, #4]
 2206 0bf2 0B46     		mov	r3, r1
 2207 0bf4 8DF80330 		strb	r3, [sp, #3]
 2208              		.loc 1 772 0
 2209 0bf8 019B     		ldr	r3, [sp, #4]
 2210 0bfa 93F86430 		ldrb	r3, [r3, #100]	@ zero_extendqisi2
 2211 0bfe 032B     		cmp	r3, #3
 2212 0c00 1AD0     		beq	.L129
 2213 0c02 042B     		cmp	r3, #4
 2214 0c04 2CD1     		bne	.L128
 2215              		.loc 1 775 0
 2216 0c06 019B     		ldr	r3, [sp, #4]
 2217 0c08 0522     		movs	r2, #5
 2218 0c0a 83F86420 		strb	r2, [r3, #100]
 2219              		.loc 1 777 0
 2220 0c0e 0198     		ldr	r0, [sp, #4]
 2221 0c10 0021     		movs	r1, #0
 2222 0c12 0022     		movs	r2, #0
 2223 0c14 0023     		movs	r3, #0
 2224 0c16 FFF7FEFF 		bl	usbPrepareTransmit
 2225              	.LBB18:
 2226              		.loc 1 778 0
 2227 0c1a 2023     		movs	r3, #32
 2228              	@ 778 "/opt/R2P/core/ChibiOS_2.6.5/os/hal/src/usb.c" 1
 2229 0c1c 83F31188 		msr     BASEPRI, r3
 2230              	@ 0 "" 2
 2231              		.thumb
 2232              	.LBE18:
 2233 0c20 FFF7FEFF 		bl	dbg_check_lock_from_isr
ARM GAS  /tmp/cceJrrFk.s 			page 41


 2234              		.loc 1 779 0
 2235 0c24 0198     		ldr	r0, [sp, #4]
 2236 0c26 0021     		movs	r1, #0
 2237 0c28 FFF7FEFF 		bl	usbStartTransmitI
 2238              		.loc 1 780 0
 2239 0c2c FFF7FEFF 		bl	dbg_check_unlock_from_isr
 2240              	.LBB19:
 2241 0c30 0023     		movs	r3, #0
 2242              	@ 780 "/opt/R2P/core/ChibiOS_2.6.5/os/hal/src/usb.c" 1
 2243 0c32 83F31188 		msr     BASEPRI, r3
 2244              	@ 0 "" 2
 2245              		.thumb
 2246              	.LBE19:
 2247              		.loc 1 784 0
 2248 0c36 2AE0     		b	.L127
 2249              	.L129:
 2250              		.loc 1 789 0
 2251 0c38 019B     		ldr	r3, [sp, #4]
 2252 0c3a DB68     		ldr	r3, [r3, #12]
 2253 0c3c 9B69     		ldr	r3, [r3, #24]
 2254 0c3e 9B68     		ldr	r3, [r3, #8]
 2255 0c40 002B     		cmp	r3, #0
 2256 0c42 00D0     		beq	.L132
 2257              		.loc 1 790 0
 2258 0c44 0CE0     		b	.L128
 2259              	.L132:
 2260              		.loc 1 792 0
 2261 0c46 019B     		ldr	r3, [sp, #4]
 2262 0c48 1B6F     		ldr	r3, [r3, #112]
 2263 0c4a 002B     		cmp	r3, #0
 2264 0c4c 03D0     		beq	.L133
 2265              		.loc 1 793 0
 2266 0c4e 019B     		ldr	r3, [sp, #4]
 2267 0c50 1B6F     		ldr	r3, [r3, #112]
 2268 0c52 0198     		ldr	r0, [sp, #4]
 2269 0c54 9847     		blx	r3
 2270              	.L133:
 2271              		.loc 1 794 0
 2272 0c56 019B     		ldr	r3, [sp, #4]
 2273 0c58 0022     		movs	r2, #0
 2274 0c5a 83F86420 		strb	r2, [r3, #100]
 2275              		.loc 1 795 0
 2276 0c5e 16E0     		b	.L127
 2277              	.L128:
 2278              		.loc 1 802 0
 2279 0c60 0198     		ldr	r0, [sp, #4]
 2280 0c62 0021     		movs	r1, #0
 2281 0c64 FFF7FEFF 		bl	usb_lld_stall_in
 2282              		.loc 1 803 0
 2283 0c68 0198     		ldr	r0, [sp, #4]
 2284 0c6a 0021     		movs	r1, #0
 2285 0c6c FFF7FEFF 		bl	usb_lld_stall_out
 2286              		.loc 1 804 0
 2287 0c70 019B     		ldr	r3, [sp, #4]
 2288 0c72 5B68     		ldr	r3, [r3, #4]
 2289 0c74 1B68     		ldr	r3, [r3]
 2290 0c76 002B     		cmp	r3, #0
ARM GAS  /tmp/cceJrrFk.s 			page 42


 2291 0c78 05D0     		beq	.L134
 2292              		.loc 1 804 0 is_stmt 0 discriminator 1
 2293 0c7a 019B     		ldr	r3, [sp, #4]
 2294 0c7c 5B68     		ldr	r3, [r3, #4]
 2295 0c7e 1B68     		ldr	r3, [r3]
 2296 0c80 0198     		ldr	r0, [sp, #4]
 2297 0c82 0521     		movs	r1, #5
 2298 0c84 9847     		blx	r3
 2299              	.L134:
 2300              		.loc 1 805 0 is_stmt 1
 2301 0c86 019B     		ldr	r3, [sp, #4]
 2302 0c88 0622     		movs	r2, #6
 2303 0c8a 83F86420 		strb	r2, [r3, #100]
 2304              	.L127:
 2305              		.loc 1 806 0
 2306 0c8e 03B0     		add	sp, sp, #12
 2307              		.cfi_def_cfa_offset 4
 2308              		@ sp needed
 2309 0c90 5DF804FB 		ldr	pc, [sp], #4
 2310              		.cfi_endproc
 2311              	.LFE137:
 2312              		.size	_usb_ep0out, .-_usb_ep0out
 2313              	.Letext0:
 2314              		.file 2 "/opt/R2P/tools/gcc-arm-none-eabi-4_9-2014q4/lib/gcc/arm-none-eabi/4.9.3/include/stddef.h"
 2315              		.file 3 "/opt/R2P/tools/gcc-arm-none-eabi-4_9-2014q4/arm-none-eabi/include/machine/_default_types.
 2316              		.file 4 "/opt/R2P/tools/gcc-arm-none-eabi-4_9-2014q4/arm-none-eabi/include/stdint.h"
 2317              		.file 5 "/opt/R2P/core/ChibiOS_2.6.5/os/ports/GCC/ARMCMx/chtypes.h"
 2318              		.file 6 "/opt/R2P/core/ChibiOS_2.6.5/os/kernel/include/chlists.h"
 2319              		.file 7 "/opt/R2P/core/ChibiOS_2.6.5/os/kernel/include/chthreads.h"
 2320              		.file 8 "/opt/R2P/core/ChibiOS_2.6.5/os/ports/GCC/ARMCMx/chcore_v7m.h"
 2321              		.file 9 "/opt/R2P/core/ChibiOS_2.6.5/os/kernel/include/chmtx.h"
 2322              		.file 10 "/opt/R2P/core/ChibiOS_2.6.5/os/kernel/include/chqueues.h"
 2323              		.file 11 "/opt/R2P/core/ChibiOS_2.6.5/os/hal/include/usb.h"
 2324              		.file 12 "/opt/R2P/core/ChibiOS_2.6.5/os/hal/platforms/STM32/USBv1/usb_lld.h"
 2325              		.file 13 "/opt/R2P/core/ChibiOS_2.6.5/os/ports/common/ARMCMx/CMSIS/include/core_cm4.h"
 2326              		.section	.debug_info,"",%progbits
 2327              	.Ldebug_info0:
 2328 0000 BD100000 		.4byte	0x10bd
 2329 0004 0400     		.2byte	0x4
 2330 0006 00000000 		.4byte	.Ldebug_abbrev0
 2331 000a 04       		.byte	0x4
 2332 000b 01       		.uleb128 0x1
 2333 000c E5050000 		.4byte	.LASF180
 2334 0010 01       		.byte	0x1
 2335 0011 47080000 		.4byte	.LASF181
 2336 0015 00000000 		.4byte	.Ltext0
 2337 0019 940C0000 		.4byte	.Letext0-.Ltext0
 2338 001d 00000000 		.4byte	.Ldebug_line0
 2339 0021 02       		.uleb128 0x2
 2340 0022 04       		.byte	0x4
 2341 0023 05       		.byte	0x5
 2342 0024 696E7400 		.ascii	"int\000"
 2343 0028 03       		.uleb128 0x3
 2344 0029 0E000000 		.4byte	.LASF2
 2345 002d 02       		.byte	0x2
 2346 002e D4       		.byte	0xd4
 2347 002f 33000000 		.4byte	0x33
ARM GAS  /tmp/cceJrrFk.s 			page 43


 2348 0033 04       		.uleb128 0x4
 2349 0034 04       		.byte	0x4
 2350 0035 07       		.byte	0x7
 2351 0036 71020000 		.4byte	.LASF0
 2352 003a 04       		.uleb128 0x4
 2353 003b 01       		.byte	0x1
 2354 003c 06       		.byte	0x6
 2355 003d D1000000 		.4byte	.LASF1
 2356 0041 03       		.uleb128 0x3
 2357 0042 41000000 		.4byte	.LASF3
 2358 0046 03       		.byte	0x3
 2359 0047 1D       		.byte	0x1d
 2360 0048 4C000000 		.4byte	0x4c
 2361 004c 04       		.uleb128 0x4
 2362 004d 01       		.byte	0x1
 2363 004e 08       		.byte	0x8
 2364 004f F1040000 		.4byte	.LASF4
 2365 0053 04       		.uleb128 0x4
 2366 0054 02       		.byte	0x2
 2367 0055 05       		.byte	0x5
 2368 0056 1E050000 		.4byte	.LASF5
 2369 005a 03       		.uleb128 0x3
 2370 005b BE060000 		.4byte	.LASF6
 2371 005f 03       		.byte	0x3
 2372 0060 2B       		.byte	0x2b
 2373 0061 65000000 		.4byte	0x65
 2374 0065 04       		.uleb128 0x4
 2375 0066 02       		.byte	0x2
 2376 0067 07       		.byte	0x7
 2377 0068 E9020000 		.4byte	.LASF7
 2378 006c 03       		.uleb128 0x3
 2379 006d F9060000 		.4byte	.LASF8
 2380 0071 03       		.byte	0x3
 2381 0072 3F       		.byte	0x3f
 2382 0073 77000000 		.4byte	0x77
 2383 0077 04       		.uleb128 0x4
 2384 0078 04       		.byte	0x4
 2385 0079 05       		.byte	0x5
 2386 007a 53010000 		.4byte	.LASF9
 2387 007e 03       		.uleb128 0x3
 2388 007f 03070000 		.4byte	.LASF10
 2389 0083 03       		.byte	0x3
 2390 0084 41       		.byte	0x41
 2391 0085 89000000 		.4byte	0x89
 2392 0089 04       		.uleb128 0x4
 2393 008a 04       		.byte	0x4
 2394 008b 07       		.byte	0x7
 2395 008c 7A060000 		.4byte	.LASF11
 2396 0090 04       		.uleb128 0x4
 2397 0091 08       		.byte	0x8
 2398 0092 05       		.byte	0x5
 2399 0093 C3000000 		.4byte	.LASF12
 2400 0097 03       		.uleb128 0x3
 2401 0098 7A040000 		.4byte	.LASF13
 2402 009c 03       		.byte	0x3
 2403 009d 5B       		.byte	0x5b
 2404 009e A2000000 		.4byte	0xa2
ARM GAS  /tmp/cceJrrFk.s 			page 44


 2405 00a2 04       		.uleb128 0x4
 2406 00a3 08       		.byte	0x8
 2407 00a4 07       		.byte	0x7
 2408 00a5 68000000 		.4byte	.LASF14
 2409 00a9 04       		.uleb128 0x4
 2410 00aa 04       		.byte	0x4
 2411 00ab 07       		.byte	0x7
 2412 00ac D1030000 		.4byte	.LASF15
 2413 00b0 05       		.uleb128 0x5
 2414 00b1 04       		.byte	0x4
 2415 00b2 04       		.uleb128 0x4
 2416 00b3 01       		.byte	0x1
 2417 00b4 08       		.byte	0x8
 2418 00b5 95060000 		.4byte	.LASF16
 2419 00b9 06       		.uleb128 0x6
 2420 00ba 04       		.byte	0x4
 2421 00bb BF000000 		.4byte	0xbf
 2422 00bf 07       		.uleb128 0x7
 2423 00c0 B2000000 		.4byte	0xb2
 2424 00c4 03       		.uleb128 0x3
 2425 00c5 ED070000 		.4byte	.LASF17
 2426 00c9 04       		.byte	0x4
 2427 00ca 15       		.byte	0x15
 2428 00cb 41000000 		.4byte	0x41
 2429 00cf 03       		.uleb128 0x3
 2430 00d0 46030000 		.4byte	.LASF18
 2431 00d4 04       		.byte	0x4
 2432 00d5 21       		.byte	0x21
 2433 00d6 5A000000 		.4byte	0x5a
 2434 00da 03       		.uleb128 0x3
 2435 00db E9040000 		.4byte	.LASF19
 2436 00df 04       		.byte	0x4
 2437 00e0 2C       		.byte	0x2c
 2438 00e1 6C000000 		.4byte	0x6c
 2439 00e5 03       		.uleb128 0x3
 2440 00e6 91070000 		.4byte	.LASF20
 2441 00ea 04       		.byte	0x4
 2442 00eb 2D       		.byte	0x2d
 2443 00ec 7E000000 		.4byte	0x7e
 2444 00f0 03       		.uleb128 0x3
 2445 00f1 2D000000 		.4byte	.LASF21
 2446 00f5 04       		.byte	0x4
 2447 00f6 39       		.byte	0x39
 2448 00f7 97000000 		.4byte	0x97
 2449 00fb 03       		.uleb128 0x3
 2450 00fc 01010000 		.4byte	.LASF22
 2451 0100 05       		.byte	0x5
 2452 0101 2B       		.byte	0x2b
 2453 0102 06010000 		.4byte	0x106
 2454 0106 04       		.uleb128 0x4
 2455 0107 01       		.byte	0x1
 2456 0108 02       		.byte	0x2
 2457 0109 E3040000 		.4byte	.LASF23
 2458 010d 03       		.uleb128 0x3
 2459 010e 3E030000 		.4byte	.LASF24
 2460 0112 05       		.byte	0x5
 2461 0113 2C       		.byte	0x2c
ARM GAS  /tmp/cceJrrFk.s 			page 45


 2462 0114 C4000000 		.4byte	0xc4
 2463 0118 03       		.uleb128 0x3
 2464 0119 6D010000 		.4byte	.LASF25
 2465 011d 05       		.byte	0x5
 2466 011e 2D       		.byte	0x2d
 2467 011f C4000000 		.4byte	0xc4
 2468 0123 03       		.uleb128 0x3
 2469 0124 99040000 		.4byte	.LASF26
 2470 0128 05       		.byte	0x5
 2471 0129 2E       		.byte	0x2e
 2472 012a C4000000 		.4byte	0xc4
 2473 012e 03       		.uleb128 0x3
 2474 012f C4040000 		.4byte	.LASF27
 2475 0133 05       		.byte	0x5
 2476 0134 30       		.byte	0x30
 2477 0135 E5000000 		.4byte	0xe5
 2478 0139 03       		.uleb128 0x3
 2479 013a 13030000 		.4byte	.LASF28
 2480 013e 05       		.byte	0x5
 2481 013f 31       		.byte	0x31
 2482 0140 DA000000 		.4byte	0xda
 2483 0144 03       		.uleb128 0x3
 2484 0145 69030000 		.4byte	.LASF29
 2485 0149 05       		.byte	0x5
 2486 014a 33       		.byte	0x33
 2487 014b E5000000 		.4byte	0xe5
 2488 014f 03       		.uleb128 0x3
 2489 0150 E4060000 		.4byte	.LASF30
 2490 0154 05       		.byte	0x5
 2491 0155 35       		.byte	0x35
 2492 0156 E5000000 		.4byte	0xe5
 2493 015a 03       		.uleb128 0x3
 2494 015b 65050000 		.4byte	.LASF31
 2495 015f 06       		.byte	0x6
 2496 0160 2A       		.byte	0x2a
 2497 0161 65010000 		.4byte	0x165
 2498 0165 08       		.uleb128 0x8
 2499 0166 65050000 		.4byte	.LASF31
 2500 016a 4C       		.byte	0x4c
 2501 016b 07       		.byte	0x7
 2502 016c 5E       		.byte	0x5e
 2503 016d 62020000 		.4byte	0x262
 2504 0171 09       		.uleb128 0x9
 2505 0172 3F050000 		.4byte	.LASF32
 2506 0176 07       		.byte	0x7
 2507 0177 5F       		.byte	0x5f
 2508 0178 83020000 		.4byte	0x283
 2509 017c 00       		.byte	0
 2510 017d 09       		.uleb128 0x9
 2511 017e BD040000 		.4byte	.LASF33
 2512 0182 07       		.byte	0x7
 2513 0183 61       		.byte	0x61
 2514 0184 83020000 		.4byte	0x283
 2515 0188 04       		.byte	0x4
 2516 0189 09       		.uleb128 0x9
 2517 018a 93000000 		.4byte	.LASF34
 2518 018e 07       		.byte	0x7
ARM GAS  /tmp/cceJrrFk.s 			page 46


 2519 018f 63       		.byte	0x63
 2520 0190 2E010000 		.4byte	0x12e
 2521 0194 08       		.byte	0x8
 2522 0195 09       		.uleb128 0x9
 2523 0196 9E080000 		.4byte	.LASF35
 2524 019a 07       		.byte	0x7
 2525 019b 64       		.byte	0x64
 2526 019c 46030000 		.4byte	0x346
 2527 01a0 0C       		.byte	0xc
 2528 01a1 09       		.uleb128 0x9
 2529 01a2 D9010000 		.4byte	.LASF36
 2530 01a6 07       		.byte	0x7
 2531 01a7 66       		.byte	0x66
 2532 01a8 83020000 		.4byte	0x283
 2533 01ac 10       		.byte	0x10
 2534 01ad 09       		.uleb128 0x9
 2535 01ae 30050000 		.4byte	.LASF37
 2536 01b2 07       		.byte	0x7
 2537 01b3 67       		.byte	0x67
 2538 01b4 83020000 		.4byte	0x283
 2539 01b8 14       		.byte	0x14
 2540 01b9 09       		.uleb128 0x9
 2541 01ba 40080000 		.4byte	.LASF38
 2542 01be 07       		.byte	0x7
 2543 01bf 6E       		.byte	0x6e
 2544 01c0 B9000000 		.4byte	0xb9
 2545 01c4 18       		.byte	0x18
 2546 01c5 09       		.uleb128 0x9
 2547 01c6 66020000 		.4byte	.LASF39
 2548 01ca 07       		.byte	0x7
 2549 01cb 74       		.byte	0x74
 2550 01cc E3030000 		.4byte	0x3e3
 2551 01d0 1C       		.byte	0x1c
 2552 01d1 09       		.uleb128 0x9
 2553 01d2 28050000 		.4byte	.LASF40
 2554 01d6 07       		.byte	0x7
 2555 01d7 79       		.byte	0x79
 2556 01d8 18010000 		.4byte	0x118
 2557 01dc 20       		.byte	0x20
 2558 01dd 09       		.uleb128 0x9
 2559 01de 46050000 		.4byte	.LASF41
 2560 01e2 07       		.byte	0x7
 2561 01e3 7D       		.byte	0x7d
 2562 01e4 0D010000 		.4byte	0x10d
 2563 01e8 21       		.byte	0x21
 2564 01e9 09       		.uleb128 0x9
 2565 01ea A0070000 		.4byte	.LASF42
 2566 01ee 07       		.byte	0x7
 2567 01ef 82       		.byte	0x82
 2568 01f0 23010000 		.4byte	0x123
 2569 01f4 22       		.byte	0x22
 2570 01f5 09       		.uleb128 0x9
 2571 01f6 C4010000 		.4byte	.LASF43
 2572 01fa 07       		.byte	0x7
 2573 01fb 8F       		.byte	0x8f
 2574 01fc 67030000 		.4byte	0x367
 2575 0200 24       		.byte	0x24
ARM GAS  /tmp/cceJrrFk.s 			page 47


 2576 0201 0A       		.uleb128 0xa
 2577 0202 705F7500 		.ascii	"p_u\000"
 2578 0206 07       		.byte	0x7
 2579 0207 B4       		.byte	0xb4
 2580 0208 AE030000 		.4byte	0x3ae
 2581 020c 28       		.byte	0x28
 2582 020d 09       		.uleb128 0x9
 2583 020e A4080000 		.4byte	.LASF44
 2584 0212 07       		.byte	0x7
 2585 0213 B9       		.byte	0xb9
 2586 0214 A9020000 		.4byte	0x2a9
 2587 0218 2C       		.byte	0x2c
 2588 0219 09       		.uleb128 0x9
 2589 021a 9F020000 		.4byte	.LASF45
 2590 021e 07       		.byte	0x7
 2591 021f BF       		.byte	0xbf
 2592 0220 89020000 		.4byte	0x289
 2593 0224 30       		.byte	0x30
 2594 0225 09       		.uleb128 0x9
 2595 0226 89080000 		.4byte	.LASF46
 2596 022a 07       		.byte	0x7
 2597 022b C3       		.byte	0xc3
 2598 022c 39010000 		.4byte	0x139
 2599 0230 38       		.byte	0x38
 2600 0231 09       		.uleb128 0x9
 2601 0232 78050000 		.4byte	.LASF47
 2602 0236 07       		.byte	0x7
 2603 0237 C9       		.byte	0xc9
 2604 0238 44010000 		.4byte	0x144
 2605 023c 3C       		.byte	0x3c
 2606 023d 09       		.uleb128 0x9
 2607 023e 14050000 		.4byte	.LASF48
 2608 0242 07       		.byte	0x7
 2609 0243 D0       		.byte	0xd0
 2610 0244 E9030000 		.4byte	0x3e9
 2611 0248 40       		.byte	0x40
 2612 0249 09       		.uleb128 0x9
 2613 024a EE060000 		.4byte	.LASF49
 2614 024e 07       		.byte	0x7
 2615 024f D4       		.byte	0xd4
 2616 0250 2E010000 		.4byte	0x12e
 2617 0254 44       		.byte	0x44
 2618 0255 09       		.uleb128 0x9
 2619 0256 F9000000 		.4byte	.LASF50
 2620 025a 07       		.byte	0x7
 2621 025b DA       		.byte	0xda
 2622 025c B0000000 		.4byte	0xb0
 2623 0260 48       		.byte	0x48
 2624 0261 00       		.byte	0
 2625 0262 0B       		.uleb128 0xb
 2626 0263 08       		.byte	0x8
 2627 0264 06       		.byte	0x6
 2628 0265 61       		.byte	0x61
 2629 0266 83020000 		.4byte	0x283
 2630 026a 09       		.uleb128 0x9
 2631 026b 3F050000 		.4byte	.LASF32
 2632 026f 06       		.byte	0x6
ARM GAS  /tmp/cceJrrFk.s 			page 48


 2633 0270 62       		.byte	0x62
 2634 0271 83020000 		.4byte	0x283
 2635 0275 00       		.byte	0
 2636 0276 09       		.uleb128 0x9
 2637 0277 BD040000 		.4byte	.LASF33
 2638 027b 06       		.byte	0x6
 2639 027c 64       		.byte	0x64
 2640 027d 83020000 		.4byte	0x283
 2641 0281 04       		.byte	0x4
 2642 0282 00       		.byte	0
 2643 0283 06       		.uleb128 0x6
 2644 0284 04       		.byte	0x4
 2645 0285 5A010000 		.4byte	0x15a
 2646 0289 03       		.uleb128 0x3
 2647 028a 3B040000 		.4byte	.LASF51
 2648 028e 06       		.byte	0x6
 2649 028f 66       		.byte	0x66
 2650 0290 62020000 		.4byte	0x262
 2651 0294 0B       		.uleb128 0xb
 2652 0295 04       		.byte	0x4
 2653 0296 06       		.byte	0x6
 2654 0297 6B       		.byte	0x6b
 2655 0298 A9020000 		.4byte	0x2a9
 2656 029c 09       		.uleb128 0x9
 2657 029d 3F050000 		.4byte	.LASF32
 2658 02a1 06       		.byte	0x6
 2659 02a2 6D       		.byte	0x6d
 2660 02a3 83020000 		.4byte	0x283
 2661 02a7 00       		.byte	0
 2662 02a8 00       		.byte	0
 2663 02a9 03       		.uleb128 0x3
 2664 02aa 4F030000 		.4byte	.LASF52
 2665 02ae 06       		.byte	0x6
 2666 02af 70       		.byte	0x70
 2667 02b0 94020000 		.4byte	0x294
 2668 02b4 03       		.uleb128 0x3
 2669 02b5 3E020000 		.4byte	.LASF53
 2670 02b9 08       		.byte	0x8
 2671 02ba E5       		.byte	0xe5
 2672 02bb B0000000 		.4byte	0xb0
 2673 02bf 03       		.uleb128 0x3
 2674 02c0 99030000 		.4byte	.LASF54
 2675 02c4 08       		.byte	0x8
 2676 02c5 EB       		.byte	0xeb
 2677 02c6 F0000000 		.4byte	0xf0
 2678 02ca 0C       		.uleb128 0xc
 2679 02cb 6A070000 		.4byte	.LASF55
 2680 02cf 24       		.byte	0x24
 2681 02d0 08       		.byte	0x8
 2682 02d1 0C01     		.2byte	0x10c
 2683 02d3 46030000 		.4byte	0x346
 2684 02d7 0D       		.uleb128 0xd
 2685 02d8 723400   		.ascii	"r4\000"
 2686 02db 08       		.byte	0x8
 2687 02dc 1F01     		.2byte	0x11f
 2688 02de B4020000 		.4byte	0x2b4
 2689 02e2 00       		.byte	0
ARM GAS  /tmp/cceJrrFk.s 			page 49


 2690 02e3 0D       		.uleb128 0xd
 2691 02e4 723500   		.ascii	"r5\000"
 2692 02e7 08       		.byte	0x8
 2693 02e8 2001     		.2byte	0x120
 2694 02ea B4020000 		.4byte	0x2b4
 2695 02ee 04       		.byte	0x4
 2696 02ef 0D       		.uleb128 0xd
 2697 02f0 723600   		.ascii	"r6\000"
 2698 02f3 08       		.byte	0x8
 2699 02f4 2101     		.2byte	0x121
 2700 02f6 B4020000 		.4byte	0x2b4
 2701 02fa 08       		.byte	0x8
 2702 02fb 0D       		.uleb128 0xd
 2703 02fc 723700   		.ascii	"r7\000"
 2704 02ff 08       		.byte	0x8
 2705 0300 2201     		.2byte	0x122
 2706 0302 B4020000 		.4byte	0x2b4
 2707 0306 0C       		.byte	0xc
 2708 0307 0D       		.uleb128 0xd
 2709 0308 723800   		.ascii	"r8\000"
 2710 030b 08       		.byte	0x8
 2711 030c 2301     		.2byte	0x123
 2712 030e B4020000 		.4byte	0x2b4
 2713 0312 10       		.byte	0x10
 2714 0313 0D       		.uleb128 0xd
 2715 0314 723900   		.ascii	"r9\000"
 2716 0317 08       		.byte	0x8
 2717 0318 2401     		.2byte	0x124
 2718 031a B4020000 		.4byte	0x2b4
 2719 031e 14       		.byte	0x14
 2720 031f 0D       		.uleb128 0xd
 2721 0320 72313000 		.ascii	"r10\000"
 2722 0324 08       		.byte	0x8
 2723 0325 2501     		.2byte	0x125
 2724 0327 B4020000 		.4byte	0x2b4
 2725 032b 18       		.byte	0x18
 2726 032c 0D       		.uleb128 0xd
 2727 032d 72313100 		.ascii	"r11\000"
 2728 0331 08       		.byte	0x8
 2729 0332 2601     		.2byte	0x126
 2730 0334 B4020000 		.4byte	0x2b4
 2731 0338 1C       		.byte	0x1c
 2732 0339 0D       		.uleb128 0xd
 2733 033a 6C7200   		.ascii	"lr\000"
 2734 033d 08       		.byte	0x8
 2735 033e 2701     		.2byte	0x127
 2736 0340 B4020000 		.4byte	0x2b4
 2737 0344 20       		.byte	0x20
 2738 0345 00       		.byte	0
 2739 0346 0C       		.uleb128 0xc
 2740 0347 50070000 		.4byte	.LASF56
 2741 034b 04       		.byte	0x4
 2742 034c 08       		.byte	0x8
 2743 034d 3101     		.2byte	0x131
 2744 034f 61030000 		.4byte	0x361
 2745 0353 0D       		.uleb128 0xd
 2746 0354 72313300 		.ascii	"r13\000"
ARM GAS  /tmp/cceJrrFk.s 			page 50


 2747 0358 08       		.byte	0x8
 2748 0359 3201     		.2byte	0x132
 2749 035b 61030000 		.4byte	0x361
 2750 035f 00       		.byte	0
 2751 0360 00       		.byte	0
 2752 0361 06       		.uleb128 0x6
 2753 0362 04       		.byte	0x4
 2754 0363 CA020000 		.4byte	0x2ca
 2755 0367 0E       		.uleb128 0xe
 2756 0368 4F010000 		.4byte	0x14f
 2757 036c 08       		.uleb128 0x8
 2758 036d F5030000 		.4byte	.LASF57
 2759 0371 10       		.byte	0x10
 2760 0372 09       		.byte	0x9
 2761 0373 2C       		.byte	0x2c
 2762 0374 9D030000 		.4byte	0x39d
 2763 0378 09       		.uleb128 0x9
 2764 0379 08010000 		.4byte	.LASF58
 2765 037d 09       		.byte	0x9
 2766 037e 2D       		.byte	0x2d
 2767 037f 89020000 		.4byte	0x289
 2768 0383 00       		.byte	0
 2769 0384 09       		.uleb128 0x9
 2770 0385 96080000 		.4byte	.LASF59
 2771 0389 09       		.byte	0x9
 2772 038a 2F       		.byte	0x2f
 2773 038b 83020000 		.4byte	0x283
 2774 038f 08       		.byte	0x8
 2775 0390 09       		.uleb128 0x9
 2776 0391 DD060000 		.4byte	.LASF60
 2777 0395 09       		.byte	0x9
 2778 0396 31       		.byte	0x31
 2779 0397 9D030000 		.4byte	0x39d
 2780 039b 0C       		.byte	0xc
 2781 039c 00       		.byte	0
 2782 039d 06       		.uleb128 0x6
 2783 039e 04       		.byte	0x4
 2784 039f 6C030000 		.4byte	0x36c
 2785 03a3 03       		.uleb128 0x3
 2786 03a4 F5030000 		.4byte	.LASF57
 2787 03a8 09       		.byte	0x9
 2788 03a9 33       		.byte	0x33
 2789 03aa 6C030000 		.4byte	0x36c
 2790 03ae 0F       		.uleb128 0xf
 2791 03af 04       		.byte	0x4
 2792 03b0 07       		.byte	0x7
 2793 03b1 96       		.byte	0x96
 2794 03b2 E3030000 		.4byte	0x3e3
 2795 03b6 10       		.uleb128 0x10
 2796 03b7 15000000 		.4byte	.LASF61
 2797 03bb 07       		.byte	0x7
 2798 03bc 9D       		.byte	0x9d
 2799 03bd 39010000 		.4byte	0x139
 2800 03c1 10       		.uleb128 0x10
 2801 03c2 7F000000 		.4byte	.LASF62
 2802 03c6 07       		.byte	0x7
 2803 03c7 A4       		.byte	0xa4
ARM GAS  /tmp/cceJrrFk.s 			page 51


 2804 03c8 39010000 		.4byte	0x139
 2805 03cc 10       		.uleb128 0x10
 2806 03cd 39080000 		.4byte	.LASF63
 2807 03d1 07       		.byte	0x7
 2808 03d2 AB       		.byte	0xab
 2809 03d3 B0000000 		.4byte	0xb0
 2810 03d7 10       		.uleb128 0x10
 2811 03d8 38050000 		.4byte	.LASF64
 2812 03dc 07       		.byte	0x7
 2813 03dd B2       		.byte	0xb2
 2814 03de 44010000 		.4byte	0x144
 2815 03e2 00       		.byte	0
 2816 03e3 06       		.uleb128 0x6
 2817 03e4 04       		.byte	0x4
 2818 03e5 BF020000 		.4byte	0x2bf
 2819 03e9 06       		.uleb128 0x6
 2820 03ea 04       		.byte	0x4
 2821 03eb A3030000 		.4byte	0x3a3
 2822 03ef 03       		.uleb128 0x3
 2823 03f0 E1010000 		.4byte	.LASF65
 2824 03f4 0A       		.byte	0xa
 2825 03f5 37       		.byte	0x37
 2826 03f6 FA030000 		.4byte	0x3fa
 2827 03fa 08       		.uleb128 0x8
 2828 03fb E1010000 		.4byte	.LASF65
 2829 03ff 24       		.byte	0x24
 2830 0400 0A       		.byte	0xa
 2831 0401 45       		.byte	0x45
 2832 0402 67040000 		.4byte	0x467
 2833 0406 09       		.uleb128 0x9
 2834 0407 B9000000 		.4byte	.LASF66
 2835 040b 0A       		.byte	0xa
 2836 040c 46       		.byte	0x46
 2837 040d 89020000 		.4byte	0x289
 2838 0411 00       		.byte	0
 2839 0412 09       		.uleb128 0x9
 2840 0413 E5030000 		.4byte	.LASF67
 2841 0417 0A       		.byte	0xa
 2842 0418 47       		.byte	0x47
 2843 0419 28000000 		.4byte	0x28
 2844 041d 08       		.byte	0x8
 2845 041e 09       		.uleb128 0x9
 2846 041f A2010000 		.4byte	.LASF68
 2847 0423 0A       		.byte	0xa
 2848 0424 48       		.byte	0x48
 2849 0425 89040000 		.4byte	0x489
 2850 0429 0C       		.byte	0xc
 2851 042a 09       		.uleb128 0x9
 2852 042b 9A070000 		.4byte	.LASF69
 2853 042f 0A       		.byte	0xa
 2854 0430 49       		.byte	0x49
 2855 0431 89040000 		.4byte	0x489
 2856 0435 10       		.byte	0x10
 2857 0436 09       		.uleb128 0x9
 2858 0437 BC010000 		.4byte	.LASF70
 2859 043b 0A       		.byte	0xa
 2860 043c 4B       		.byte	0x4b
ARM GAS  /tmp/cceJrrFk.s 			page 52


 2861 043d 89040000 		.4byte	0x489
 2862 0441 14       		.byte	0x14
 2863 0442 09       		.uleb128 0x9
 2864 0443 CC040000 		.4byte	.LASF71
 2865 0447 0A       		.byte	0xa
 2866 0448 4C       		.byte	0x4c
 2867 0449 89040000 		.4byte	0x489
 2868 044d 18       		.byte	0x18
 2869 044e 09       		.uleb128 0x9
 2870 044f B3070000 		.4byte	.LASF72
 2871 0453 0A       		.byte	0xa
 2872 0454 4D       		.byte	0x4d
 2873 0455 67040000 		.4byte	0x467
 2874 0459 1C       		.byte	0x1c
 2875 045a 09       		.uleb128 0x9
 2876 045b 8F080000 		.4byte	.LASF73
 2877 045f 0A       		.byte	0xa
 2878 0460 4E       		.byte	0x4e
 2879 0461 B0000000 		.4byte	0xb0
 2880 0465 20       		.byte	0x20
 2881 0466 00       		.byte	0
 2882 0467 03       		.uleb128 0x3
 2883 0468 B3040000 		.4byte	.LASF74
 2884 046c 0A       		.byte	0xa
 2885 046d 3A       		.byte	0x3a
 2886 046e 72040000 		.4byte	0x472
 2887 0472 06       		.uleb128 0x6
 2888 0473 04       		.byte	0x4
 2889 0474 78040000 		.4byte	0x478
 2890 0478 11       		.uleb128 0x11
 2891 0479 83040000 		.4byte	0x483
 2892 047d 12       		.uleb128 0x12
 2893 047e 83040000 		.4byte	0x483
 2894 0482 00       		.byte	0
 2895 0483 06       		.uleb128 0x6
 2896 0484 04       		.byte	0x4
 2897 0485 EF030000 		.4byte	0x3ef
 2898 0489 06       		.uleb128 0x6
 2899 048a 04       		.byte	0x4
 2900 048b C4000000 		.4byte	0xc4
 2901 048f 03       		.uleb128 0x3
 2902 0490 47020000 		.4byte	.LASF75
 2903 0494 0A       		.byte	0xa
 2904 0495 82       		.byte	0x82
 2905 0496 EF030000 		.4byte	0x3ef
 2906 049a 03       		.uleb128 0x3
 2907 049b 6C050000 		.4byte	.LASF76
 2908 049f 0A       		.byte	0xa
 2909 04a0 F5       		.byte	0xf5
 2910 04a1 EF030000 		.4byte	0x3ef
 2911 04a5 06       		.uleb128 0x6
 2912 04a6 04       		.byte	0x4
 2913 04a7 AB040000 		.4byte	0x4ab
 2914 04ab 07       		.uleb128 0x7
 2915 04ac C4000000 		.4byte	0xc4
 2916 04b0 0E       		.uleb128 0xe
 2917 04b1 DA000000 		.4byte	0xda
ARM GAS  /tmp/cceJrrFk.s 			page 53


 2918 04b5 03       		.uleb128 0x3
 2919 04b6 E3070000 		.4byte	.LASF77
 2920 04ba 0B       		.byte	0xb
 2921 04bb E9       		.byte	0xe9
 2922 04bc C0040000 		.4byte	0x4c0
 2923 04c0 0C       		.uleb128 0xc
 2924 04c1 E3070000 		.4byte	.LASF77
 2925 04c5 84       		.byte	0x84
 2926 04c6 0C       		.byte	0xc
 2927 04c7 1B01     		.2byte	0x11b
 2928 04c9 9E050000 		.4byte	0x59e
 2929 04cd 13       		.uleb128 0x13
 2930 04ce 42010000 		.4byte	.LASF78
 2931 04d2 0C       		.byte	0xc
 2932 04d3 1F01     		.2byte	0x11f
 2933 04d5 D0050000 		.4byte	0x5d0
 2934 04d9 00       		.byte	0
 2935 04da 13       		.uleb128 0x13
 2936 04db B7060000 		.4byte	.LASF79
 2937 04df 0C       		.byte	0xc
 2938 04e0 2301     		.2byte	0x123
 2939 04e2 77090000 		.4byte	0x977
 2940 04e6 04       		.byte	0x4
 2941 04e7 13       		.uleb128 0x13
 2942 04e8 D6020000 		.4byte	.LASF80
 2943 04ec 0C       		.byte	0xc
 2944 04ed 2701     		.2byte	0x127
 2945 04ef CF000000 		.4byte	0xcf
 2946 04f3 08       		.byte	0x8
 2947 04f4 13       		.uleb128 0x13
 2948 04f5 75030000 		.4byte	.LASF81
 2949 04f9 0C       		.byte	0xc
 2950 04fa 2B01     		.2byte	0x12b
 2951 04fc CF000000 		.4byte	0xcf
 2952 0500 0A       		.byte	0xa
 2953 0501 0D       		.uleb128 0xd
 2954 0502 65706300 		.ascii	"epc\000"
 2955 0506 0C       		.byte	0xc
 2956 0507 2F01     		.2byte	0x12f
 2957 0509 82090000 		.4byte	0x982
 2958 050d 0C       		.byte	0xc
 2959 050e 13       		.uleb128 0x13
 2960 050f 2F080000 		.4byte	.LASF82
 2961 0513 0C       		.byte	0xc
 2962 0514 3601     		.2byte	0x136
 2963 0516 9D090000 		.4byte	0x99d
 2964 051a 2C       		.byte	0x2c
 2965 051b 13       		.uleb128 0x13
 2966 051c 48010000 		.4byte	.LASF83
 2967 0520 0C       		.byte	0xc
 2968 0521 3D01     		.2byte	0x13d
 2969 0523 9D090000 		.4byte	0x99d
 2970 0527 48       		.byte	0x48
 2971 0528 13       		.uleb128 0x13
 2972 0529 A7050000 		.4byte	.LASF84
 2973 052d 0C       		.byte	0xc
 2974 052e 4101     		.2byte	0x141
ARM GAS  /tmp/cceJrrFk.s 			page 54


 2975 0530 2A060000 		.4byte	0x62a
 2976 0534 64       		.byte	0x64
 2977 0535 13       		.uleb128 0x13
 2978 0536 0C050000 		.4byte	.LASF85
 2979 053a 0C       		.byte	0xc
 2980 053b 4501     		.2byte	0x145
 2981 053d 89040000 		.4byte	0x489
 2982 0541 68       		.byte	0x68
 2983 0542 13       		.uleb128 0x13
 2984 0543 DE040000 		.4byte	.LASF86
 2985 0547 0C       		.byte	0xc
 2986 0548 4901     		.2byte	0x149
 2987 054a 28000000 		.4byte	0x28
 2988 054e 6C       		.byte	0x6c
 2989 054f 13       		.uleb128 0x13
 2990 0550 23070000 		.4byte	.LASF87
 2991 0554 0C       		.byte	0xc
 2992 0555 4D01     		.2byte	0x14d
 2993 0557 A0060000 		.4byte	0x6a0
 2994 055b 70       		.byte	0x70
 2995 055c 13       		.uleb128 0x13
 2996 055d 5B040000 		.4byte	.LASF88
 2997 0561 0C       		.byte	0xc
 2998 0562 5101     		.2byte	0x151
 2999 0564 AD090000 		.4byte	0x9ad
 3000 0568 74       		.byte	0x74
 3001 0569 13       		.uleb128 0x13
 3002 056a A7070000 		.4byte	.LASF89
 3003 056e 0C       		.byte	0xc
 3004 056f 5501     		.2byte	0x155
 3005 0571 CF000000 		.4byte	0xcf
 3006 0575 7C       		.byte	0x7c
 3007 0576 13       		.uleb128 0x13
 3008 0577 FB030000 		.4byte	.LASF90
 3009 057b 0C       		.byte	0xc
 3010 057c 5901     		.2byte	0x159
 3011 057e C4000000 		.4byte	0xc4
 3012 0582 7E       		.byte	0x7e
 3013 0583 13       		.uleb128 0x13
 3014 0584 05030000 		.4byte	.LASF91
 3015 0588 0C       		.byte	0xc
 3016 0589 5D01     		.2byte	0x15d
 3017 058b C4000000 		.4byte	0xc4
 3018 058f 7F       		.byte	0x7f
 3019 0590 13       		.uleb128 0x13
 3020 0591 B6030000 		.4byte	.LASF92
 3021 0595 0C       		.byte	0xc
 3022 0596 6501     		.2byte	0x165
 3023 0598 E5000000 		.4byte	0xe5
 3024 059c 80       		.byte	0x80
 3025 059d 00       		.byte	0
 3026 059e 03       		.uleb128 0x3
 3027 059f 06000000 		.4byte	.LASF93
 3028 05a3 0B       		.byte	0xb
 3029 05a4 EE       		.byte	0xee
 3030 05a5 C4000000 		.4byte	0xc4
 3031 05a9 14       		.uleb128 0x14
ARM GAS  /tmp/cceJrrFk.s 			page 55


 3032 05aa 01       		.byte	0x1
 3033 05ab 0B       		.byte	0xb
 3034 05ac F3       		.byte	0xf3
 3035 05ad D0050000 		.4byte	0x5d0
 3036 05b1 15       		.uleb128 0x15
 3037 05b2 88000000 		.4byte	.LASF94
 3038 05b6 00       		.sleb128 0
 3039 05b7 15       		.uleb128 0x15
 3040 05b8 D4060000 		.4byte	.LASF95
 3041 05bc 01       		.sleb128 1
 3042 05bd 15       		.uleb128 0x15
 3043 05be D4040000 		.4byte	.LASF96
 3044 05c2 02       		.sleb128 2
 3045 05c3 15       		.uleb128 0x15
 3046 05c4 4E050000 		.4byte	.LASF97
 3047 05c8 03       		.sleb128 3
 3048 05c9 15       		.uleb128 0x15
 3049 05ca 7E020000 		.4byte	.LASF98
 3050 05ce 04       		.sleb128 4
 3051 05cf 00       		.byte	0
 3052 05d0 03       		.uleb128 0x3
 3053 05d1 23030000 		.4byte	.LASF99
 3054 05d5 0B       		.byte	0xb
 3055 05d6 F9       		.byte	0xf9
 3056 05d7 A9050000 		.4byte	0x5a9
 3057 05db 14       		.uleb128 0x14
 3058 05dc 01       		.byte	0x1
 3059 05dd 0B       		.byte	0xb
 3060 05de FE       		.byte	0xfe
 3061 05df F6050000 		.4byte	0x5f6
 3062 05e3 15       		.uleb128 0x15
 3063 05e4 76010000 		.4byte	.LASF100
 3064 05e8 00       		.sleb128 0
 3065 05e9 15       		.uleb128 0x15
 3066 05ea 06080000 		.4byte	.LASF101
 3067 05ee 01       		.sleb128 1
 3068 05ef 15       		.uleb128 0x15
 3069 05f0 1C000000 		.4byte	.LASF102
 3070 05f4 02       		.sleb128 2
 3071 05f5 00       		.byte	0
 3072 05f6 16       		.uleb128 0x16
 3073 05f7 01       		.byte	0x1
 3074 05f8 0B       		.byte	0xb
 3075 05f9 0701     		.2byte	0x107
 3076 05fb 2A060000 		.4byte	0x62a
 3077 05ff 15       		.uleb128 0x15
 3078 0600 3A070000 		.4byte	.LASF103
 3079 0604 00       		.sleb128 0
 3080 0605 15       		.uleb128 0x15
 3081 0606 36000000 		.4byte	.LASF104
 3082 060a 01       		.sleb128 1
 3083 060b 15       		.uleb128 0x15
 3084 060c 10010000 		.4byte	.LASF105
 3085 0610 02       		.sleb128 2
 3086 0611 15       		.uleb128 0x15
 3087 0612 CF070000 		.4byte	.LASF106
 3088 0616 03       		.sleb128 3
ARM GAS  /tmp/cceJrrFk.s 			page 56


 3089 0617 15       		.uleb128 0x15
 3090 0618 C9060000 		.4byte	.LASF107
 3091 061c 04       		.sleb128 4
 3092 061d 15       		.uleb128 0x15
 3093 061e BD030000 		.4byte	.LASF108
 3094 0622 05       		.sleb128 5
 3095 0623 15       		.uleb128 0x15
 3096 0624 34010000 		.4byte	.LASF109
 3097 0628 06       		.sleb128 6
 3098 0629 00       		.byte	0
 3099 062a 17       		.uleb128 0x17
 3100 062b EE010000 		.4byte	.LASF110
 3101 062f 0B       		.byte	0xb
 3102 0630 0F01     		.2byte	0x10f
 3103 0632 F6050000 		.4byte	0x5f6
 3104 0636 16       		.uleb128 0x16
 3105 0637 01       		.byte	0x1
 3106 0638 0B       		.byte	0xb
 3107 0639 1401     		.2byte	0x114
 3108 063b 64060000 		.4byte	0x664
 3109 063f 15       		.uleb128 0x15
 3110 0640 24010000 		.4byte	.LASF111
 3111 0644 00       		.sleb128 0
 3112 0645 15       		.uleb128 0x15
 3113 0646 A1040000 		.4byte	.LASF112
 3114 064a 01       		.sleb128 1
 3115 064b 15       		.uleb128 0x15
 3116 064c 0E070000 		.4byte	.LASF113
 3117 0650 02       		.sleb128 2
 3118 0651 15       		.uleb128 0x15
 3119 0652 95050000 		.4byte	.LASF114
 3120 0656 03       		.sleb128 3
 3121 0657 15       		.uleb128 0x15
 3122 0658 AB010000 		.4byte	.LASF115
 3123 065c 04       		.sleb128 4
 3124 065d 15       		.uleb128 0x15
 3125 065e 2C020000 		.4byte	.LASF116
 3126 0662 05       		.sleb128 5
 3127 0663 00       		.byte	0
 3128 0664 17       		.uleb128 0x17
 3129 0665 4B000000 		.4byte	.LASF117
 3130 0669 0B       		.byte	0xb
 3131 066a 1B01     		.2byte	0x11b
 3132 066c 36060000 		.4byte	0x636
 3133 0670 18       		.uleb128 0x18
 3134 0671 08       		.byte	0x8
 3135 0672 0B       		.byte	0xb
 3136 0673 2001     		.2byte	0x120
 3137 0675 94060000 		.4byte	0x694
 3138 0679 13       		.uleb128 0x13
 3139 067a 8F020000 		.4byte	.LASF118
 3140 067e 0B       		.byte	0xb
 3141 067f 2401     		.2byte	0x124
 3142 0681 28000000 		.4byte	0x28
 3143 0685 00       		.byte	0
 3144 0686 13       		.uleb128 0x13
 3145 0687 19030000 		.4byte	.LASF119
ARM GAS  /tmp/cceJrrFk.s 			page 57


 3146 068b 0B       		.byte	0xb
 3147 068c 2801     		.2byte	0x128
 3148 068e A5040000 		.4byte	0x4a5
 3149 0692 04       		.byte	0x4
 3150 0693 00       		.byte	0
 3151 0694 17       		.uleb128 0x17
 3152 0695 9A000000 		.4byte	.LASF120
 3153 0699 0B       		.byte	0xb
 3154 069a 2901     		.2byte	0x129
 3155 069c 70060000 		.4byte	0x670
 3156 06a0 17       		.uleb128 0x17
 3157 06a1 DD000000 		.4byte	.LASF121
 3158 06a5 0B       		.byte	0xb
 3159 06a6 3101     		.2byte	0x131
 3160 06a8 AC060000 		.4byte	0x6ac
 3161 06ac 06       		.uleb128 0x6
 3162 06ad 04       		.byte	0x4
 3163 06ae B2060000 		.4byte	0x6b2
 3164 06b2 11       		.uleb128 0x11
 3165 06b3 BD060000 		.4byte	0x6bd
 3166 06b7 12       		.uleb128 0x12
 3167 06b8 BD060000 		.4byte	0x6bd
 3168 06bc 00       		.byte	0
 3169 06bd 06       		.uleb128 0x6
 3170 06be 04       		.byte	0x4
 3171 06bf B5040000 		.4byte	0x4b5
 3172 06c3 17       		.uleb128 0x17
 3173 06c4 9A060000 		.4byte	.LASF122
 3174 06c8 0B       		.byte	0xb
 3175 06c9 3A01     		.2byte	0x13a
 3176 06cb CF060000 		.4byte	0x6cf
 3177 06cf 06       		.uleb128 0x6
 3178 06d0 04       		.byte	0x4
 3179 06d1 D5060000 		.4byte	0x6d5
 3180 06d5 11       		.uleb128 0x11
 3181 06d6 E5060000 		.4byte	0x6e5
 3182 06da 12       		.uleb128 0x12
 3183 06db BD060000 		.4byte	0x6bd
 3184 06df 12       		.uleb128 0x12
 3185 06e0 9E050000 		.4byte	0x59e
 3186 06e4 00       		.byte	0
 3187 06e5 17       		.uleb128 0x17
 3188 06e6 95010000 		.4byte	.LASF123
 3189 06ea 0B       		.byte	0xb
 3190 06eb 4301     		.2byte	0x143
 3191 06ed F1060000 		.4byte	0x6f1
 3192 06f1 06       		.uleb128 0x6
 3193 06f2 04       		.byte	0x4
 3194 06f3 F7060000 		.4byte	0x6f7
 3195 06f7 11       		.uleb128 0x11
 3196 06f8 07070000 		.4byte	0x707
 3197 06fc 12       		.uleb128 0x12
 3198 06fd BD060000 		.4byte	0x6bd
 3199 0701 12       		.uleb128 0x12
 3200 0702 64060000 		.4byte	0x664
 3201 0706 00       		.byte	0
 3202 0707 17       		.uleb128 0x17
ARM GAS  /tmp/cceJrrFk.s 			page 58


 3203 0708 2E030000 		.4byte	.LASF124
 3204 070c 0B       		.byte	0xb
 3205 070d 4F01     		.2byte	0x14f
 3206 070f 13070000 		.4byte	0x713
 3207 0713 06       		.uleb128 0x6
 3208 0714 04       		.byte	0x4
 3209 0715 19070000 		.4byte	0x719
 3210 0719 19       		.uleb128 0x19
 3211 071a FB000000 		.4byte	0xfb
 3212 071e 28070000 		.4byte	0x728
 3213 0722 12       		.uleb128 0x12
 3214 0723 BD060000 		.4byte	0x6bd
 3215 0727 00       		.byte	0
 3216 0728 17       		.uleb128 0x17
 3217 0729 48040000 		.4byte	.LASF125
 3218 072d 0B       		.byte	0xb
 3219 072e 5401     		.2byte	0x154
 3220 0730 34070000 		.4byte	0x734
 3221 0734 06       		.uleb128 0x6
 3222 0735 04       		.byte	0x4
 3223 0736 3A070000 		.4byte	0x73a
 3224 073a 19       		.uleb128 0x19
 3225 073b 58070000 		.4byte	0x758
 3226 073f 58070000 		.4byte	0x758
 3227 0743 12       		.uleb128 0x12
 3228 0744 BD060000 		.4byte	0x6bd
 3229 0748 12       		.uleb128 0x12
 3230 0749 C4000000 		.4byte	0xc4
 3231 074d 12       		.uleb128 0x12
 3232 074e C4000000 		.4byte	0xc4
 3233 0752 12       		.uleb128 0x12
 3234 0753 CF000000 		.4byte	0xcf
 3235 0757 00       		.byte	0
 3236 0758 06       		.uleb128 0x6
 3237 0759 04       		.byte	0x4
 3238 075a 5E070000 		.4byte	0x75e
 3239 075e 07       		.uleb128 0x7
 3240 075f 94060000 		.4byte	0x694
 3241 0763 0B       		.uleb128 0xb
 3242 0764 04       		.byte	0x4
 3243 0765 0C       		.byte	0xc
 3244 0766 84       		.byte	0x84
 3245 0767 78070000 		.4byte	0x778
 3246 076b 09       		.uleb128 0x9
 3247 076c 89020000 		.4byte	.LASF126
 3248 0770 0C       		.byte	0xc
 3249 0771 88       		.byte	0x88
 3250 0772 A5040000 		.4byte	0x4a5
 3251 0776 00       		.byte	0
 3252 0777 00       		.byte	0
 3253 0778 0B       		.uleb128 0xb
 3254 0779 04       		.byte	0x4
 3255 077a 0C       		.byte	0xc
 3256 077b 8A       		.byte	0x8a
 3257 077c 8D070000 		.4byte	0x78d
 3258 0780 09       		.uleb128 0x9
 3259 0781 97020000 		.4byte	.LASF127
ARM GAS  /tmp/cceJrrFk.s 			page 59


 3260 0785 0C       		.byte	0xc
 3261 0786 8E       		.byte	0x8e
 3262 0787 8D070000 		.4byte	0x78d
 3263 078b 00       		.byte	0
 3264 078c 00       		.byte	0
 3265 078d 06       		.uleb128 0x6
 3266 078e 04       		.byte	0x4
 3267 078f 9A040000 		.4byte	0x49a
 3268 0793 0F       		.uleb128 0xf
 3269 0794 04       		.byte	0x4
 3270 0795 0C       		.byte	0xc
 3271 0796 83       		.byte	0x83
 3272 0797 B2070000 		.4byte	0x7b2
 3273 079b 10       		.uleb128 0x10
 3274 079c EB000000 		.4byte	.LASF128
 3275 07a0 0C       		.byte	0xc
 3276 07a1 89       		.byte	0x89
 3277 07a2 63070000 		.4byte	0x763
 3278 07a6 10       		.uleb128 0x10
 3279 07a7 EF030000 		.4byte	.LASF129
 3280 07ab 0C       		.byte	0xc
 3281 07ac 8F       		.byte	0x8f
 3282 07ad 78070000 		.4byte	0x778
 3283 07b1 00       		.byte	0
 3284 07b2 0B       		.uleb128 0xb
 3285 07b3 10       		.byte	0x10
 3286 07b4 0C       		.byte	0xc
 3287 07b5 76       		.byte	0x76
 3288 07b6 EB070000 		.4byte	0x7eb
 3289 07ba 09       		.uleb128 0x9
 3290 07bb 5C010000 		.4byte	.LASF130
 3291 07bf 0C       		.byte	0xc
 3292 07c0 7A       		.byte	0x7a
 3293 07c1 FB000000 		.4byte	0xfb
 3294 07c5 00       		.byte	0
 3295 07c6 09       		.uleb128 0x9
 3296 07c7 F2000000 		.4byte	.LASF131
 3297 07cb 0C       		.byte	0xc
 3298 07cc 7E       		.byte	0x7e
 3299 07cd 28000000 		.4byte	0x28
 3300 07d1 04       		.byte	0x4
 3301 07d2 09       		.uleb128 0x9
 3302 07d3 8B070000 		.4byte	.LASF132
 3303 07d7 0C       		.byte	0xc
 3304 07d8 82       		.byte	0x82
 3305 07d9 28000000 		.4byte	0x28
 3306 07dd 08       		.byte	0x8
 3307 07de 09       		.uleb128 0x9
 3308 07df AA060000 		.4byte	.LASF133
 3309 07e3 0C       		.byte	0xc
 3310 07e4 91       		.byte	0x91
 3311 07e5 93070000 		.4byte	0x793
 3312 07e9 0C       		.byte	0xc
 3313 07ea 00       		.byte	0
 3314 07eb 03       		.uleb128 0x3
 3315 07ec BC070000 		.4byte	.LASF134
 3316 07f0 0C       		.byte	0xc
ARM GAS  /tmp/cceJrrFk.s 			page 60


 3317 07f1 92       		.byte	0x92
 3318 07f2 B2070000 		.4byte	0x7b2
 3319 07f6 0B       		.uleb128 0xb
 3320 07f7 04       		.byte	0x4
 3321 07f8 0C       		.byte	0xc
 3322 07f9 A5       		.byte	0xa5
 3323 07fa 0B080000 		.4byte	0x80b
 3324 07fe 09       		.uleb128 0x9
 3325 07ff 62000000 		.4byte	.LASF135
 3326 0803 0C       		.byte	0xc
 3327 0804 A9       		.byte	0xa9
 3328 0805 89040000 		.4byte	0x489
 3329 0809 00       		.byte	0
 3330 080a 00       		.byte	0
 3331 080b 0B       		.uleb128 0xb
 3332 080c 04       		.byte	0x4
 3333 080d 0C       		.byte	0xc
 3334 080e AB       		.byte	0xab
 3335 080f 20080000 		.4byte	0x820
 3336 0813 09       		.uleb128 0x9
 3337 0814 65010000 		.4byte	.LASF136
 3338 0818 0C       		.byte	0xc
 3339 0819 AF       		.byte	0xaf
 3340 081a 20080000 		.4byte	0x820
 3341 081e 00       		.byte	0
 3342 081f 00       		.byte	0
 3343 0820 06       		.uleb128 0x6
 3344 0821 04       		.byte	0x4
 3345 0822 8F040000 		.4byte	0x48f
 3346 0826 0F       		.uleb128 0xf
 3347 0827 04       		.byte	0x4
 3348 0828 0C       		.byte	0xc
 3349 0829 A4       		.byte	0xa4
 3350 082a 45080000 		.4byte	0x845
 3351 082e 10       		.uleb128 0x10
 3352 082f EB000000 		.4byte	.LASF128
 3353 0833 0C       		.byte	0xc
 3354 0834 AA       		.byte	0xaa
 3355 0835 F6070000 		.4byte	0x7f6
 3356 0839 10       		.uleb128 0x10
 3357 083a EF030000 		.4byte	.LASF129
 3358 083e 0C       		.byte	0xc
 3359 083f B0       		.byte	0xb0
 3360 0840 0B080000 		.4byte	0x80b
 3361 0844 00       		.byte	0
 3362 0845 0B       		.uleb128 0xb
 3363 0846 14       		.byte	0x14
 3364 0847 0C       		.byte	0xc
 3365 0848 97       		.byte	0x97
 3366 0849 8A080000 		.4byte	0x88a
 3367 084d 09       		.uleb128 0x9
 3368 084e 7F030000 		.4byte	.LASF137
 3369 0852 0C       		.byte	0xc
 3370 0853 9B       		.byte	0x9b
 3371 0854 FB000000 		.4byte	0xfb
 3372 0858 00       		.byte	0
 3373 0859 09       		.uleb128 0x9
ARM GAS  /tmp/cceJrrFk.s 			page 61


 3374 085a 18080000 		.4byte	.LASF138
 3375 085e 0C       		.byte	0xc
 3376 085f 9F       		.byte	0x9f
 3377 0860 28000000 		.4byte	0x28
 3378 0864 04       		.byte	0x4
 3379 0865 09       		.uleb128 0x9
 3380 0866 00000000 		.4byte	.LASF139
 3381 086a 0C       		.byte	0xc
 3382 086b A3       		.byte	0xa3
 3383 086c 28000000 		.4byte	0x28
 3384 0870 08       		.byte	0x8
 3385 0871 09       		.uleb128 0x9
 3386 0872 AA060000 		.4byte	.LASF133
 3387 0876 0C       		.byte	0xc
 3388 0877 B1       		.byte	0xb1
 3389 0878 26080000 		.4byte	0x826
 3390 087c 0C       		.byte	0xc
 3391 087d 09       		.uleb128 0x9
 3392 087e D3050000 		.4byte	.LASF140
 3393 0882 0C       		.byte	0xc
 3394 0883 B6       		.byte	0xb6
 3395 0884 CF000000 		.4byte	0xcf
 3396 0888 10       		.byte	0x10
 3397 0889 00       		.byte	0
 3398 088a 03       		.uleb128 0x3
 3399 088b 1B040000 		.4byte	.LASF141
 3400 088f 0C       		.byte	0xc
 3401 0890 B7       		.byte	0xb7
 3402 0891 45080000 		.4byte	0x845
 3403 0895 0B       		.uleb128 0xb
 3404 0896 24       		.byte	0x24
 3405 0897 0C       		.byte	0xc
 3406 0898 BD       		.byte	0xbd
 3407 0899 16090000 		.4byte	0x916
 3408 089d 09       		.uleb128 0x9
 3409 089e 71070000 		.4byte	.LASF142
 3410 08a2 0C       		.byte	0xc
 3411 08a3 C1       		.byte	0xc1
 3412 08a4 E5000000 		.4byte	0xe5
 3413 08a8 00       		.byte	0
 3414 08a9 09       		.uleb128 0x9
 3415 08aa 85040000 		.4byte	.LASF143
 3416 08ae 0C       		.byte	0xc
 3417 08af CC       		.byte	0xcc
 3418 08b0 C3060000 		.4byte	0x6c3
 3419 08b4 04       		.byte	0x4
 3420 08b5 09       		.uleb128 0x9
 3421 08b6 E3020000 		.4byte	.LASF144
 3422 08ba 0C       		.byte	0xc
 3423 08bb D2       		.byte	0xd2
 3424 08bc C3060000 		.4byte	0x6c3
 3425 08c0 08       		.byte	0x8
 3426 08c1 09       		.uleb128 0x9
 3427 08c2 89010000 		.4byte	.LASF145
 3428 08c6 0C       		.byte	0xc
 3429 08c7 D8       		.byte	0xd8
 3430 08c8 C3060000 		.4byte	0x6c3
ARM GAS  /tmp/cceJrrFk.s 			page 62


 3431 08cc 0C       		.byte	0xc
 3432 08cd 09       		.uleb128 0x9
 3433 08ce 8E040000 		.4byte	.LASF146
 3434 08d2 0C       		.byte	0xc
 3435 08d3 DE       		.byte	0xde
 3436 08d4 CF000000 		.4byte	0xcf
 3437 08d8 10       		.byte	0x10
 3438 08d9 09       		.uleb128 0x9
 3439 08da 56000000 		.4byte	.LASF147
 3440 08de 0C       		.byte	0xc
 3441 08df E4       		.byte	0xe4
 3442 08e0 CF000000 		.4byte	0xcf
 3443 08e4 12       		.byte	0x12
 3444 08e5 09       		.uleb128 0x9
 3445 08e6 8C060000 		.4byte	.LASF148
 3446 08ea 0C       		.byte	0xc
 3447 08eb E9       		.byte	0xe9
 3448 08ec 16090000 		.4byte	0x916
 3449 08f0 14       		.byte	0x14
 3450 08f1 09       		.uleb128 0x9
 3451 08f2 03040000 		.4byte	.LASF149
 3452 08f6 0C       		.byte	0xc
 3453 08f7 EE       		.byte	0xee
 3454 08f8 1C090000 		.4byte	0x91c
 3455 08fc 18       		.byte	0x18
 3456 08fd 09       		.uleb128 0x9
 3457 08fe 52020000 		.4byte	.LASF150
 3458 0902 0C       		.byte	0xc
 3459 0903 F4       		.byte	0xf4
 3460 0904 CF000000 		.4byte	0xcf
 3461 0908 1C       		.byte	0x1c
 3462 0909 09       		.uleb128 0x9
 3463 090a 5B050000 		.4byte	.LASF151
 3464 090e 0C       		.byte	0xc
 3465 090f FA       		.byte	0xfa
 3466 0910 89040000 		.4byte	0x489
 3467 0914 20       		.byte	0x20
 3468 0915 00       		.byte	0
 3469 0916 06       		.uleb128 0x6
 3470 0917 04       		.byte	0x4
 3471 0918 EB070000 		.4byte	0x7eb
 3472 091c 06       		.uleb128 0x6
 3473 091d 04       		.byte	0x4
 3474 091e 8A080000 		.4byte	0x88a
 3475 0922 03       		.uleb128 0x3
 3476 0923 68040000 		.4byte	.LASF152
 3477 0927 0C       		.byte	0xc
 3478 0928 FB       		.byte	0xfb
 3479 0929 95080000 		.4byte	0x895
 3480 092d 18       		.uleb128 0x18
 3481 092e 10       		.byte	0x10
 3482 092f 0C       		.byte	0xc
 3483 0930 0001     		.2byte	0x100
 3484 0932 6B090000 		.4byte	0x96b
 3485 0936 13       		.uleb128 0x13
 3486 0937 FC020000 		.4byte	.LASF153
 3487 093b 0C       		.byte	0xc
ARM GAS  /tmp/cceJrrFk.s 			page 63


 3488 093c 0501     		.2byte	0x105
 3489 093e E5060000 		.4byte	0x6e5
 3490 0942 00       		.byte	0
 3491 0943 13       		.uleb128 0x13
 3492 0944 83050000 		.4byte	.LASF154
 3493 0948 0C       		.byte	0xc
 3494 0949 0A01     		.2byte	0x10a
 3495 094b 28070000 		.4byte	0x728
 3496 094f 04       		.byte	0x4
 3497 0950 13       		.uleb128 0x13
 3498 0951 88030000 		.4byte	.LASF155
 3499 0955 0C       		.byte	0xc
 3500 0956 1001     		.2byte	0x110
 3501 0958 07070000 		.4byte	0x707
 3502 095c 08       		.byte	0x8
 3503 095d 13       		.uleb128 0x13
 3504 095e 61040000 		.4byte	.LASF156
 3505 0962 0C       		.byte	0xc
 3506 0963 1401     		.2byte	0x114
 3507 0965 A0060000 		.4byte	0x6a0
 3508 0969 0C       		.byte	0xc
 3509 096a 00       		.byte	0
 3510 096b 17       		.uleb128 0x17
 3511 096c B0050000 		.4byte	.LASF157
 3512 0970 0C       		.byte	0xc
 3513 0971 1601     		.2byte	0x116
 3514 0973 2D090000 		.4byte	0x92d
 3515 0977 06       		.uleb128 0x6
 3516 0978 04       		.byte	0x4
 3517 0979 7D090000 		.4byte	0x97d
 3518 097d 07       		.uleb128 0x7
 3519 097e 6B090000 		.4byte	0x96b
 3520 0982 1A       		.uleb128 0x1a
 3521 0983 92090000 		.4byte	0x992
 3522 0987 92090000 		.4byte	0x992
 3523 098b 1B       		.uleb128 0x1b
 3524 098c A9000000 		.4byte	0xa9
 3525 0990 07       		.byte	0x7
 3526 0991 00       		.byte	0
 3527 0992 06       		.uleb128 0x6
 3528 0993 04       		.byte	0x4
 3529 0994 98090000 		.4byte	0x998
 3530 0998 07       		.uleb128 0x7
 3531 0999 22090000 		.4byte	0x922
 3532 099d 1A       		.uleb128 0x1a
 3533 099e B0000000 		.4byte	0xb0
 3534 09a2 AD090000 		.4byte	0x9ad
 3535 09a6 1B       		.uleb128 0x1b
 3536 09a7 A9000000 		.4byte	0xa9
 3537 09ab 06       		.byte	0x6
 3538 09ac 00       		.byte	0
 3539 09ad 1A       		.uleb128 0x1a
 3540 09ae C4000000 		.4byte	0xc4
 3541 09b2 BD090000 		.4byte	0x9bd
 3542 09b6 1B       		.uleb128 0x1b
 3543 09b7 A9000000 		.4byte	0xa9
 3544 09bb 07       		.byte	0x7
ARM GAS  /tmp/cceJrrFk.s 			page 64


 3545 09bc 00       		.byte	0
 3546 09bd 1C       		.uleb128 0x1c
 3547 09be 08020000 		.4byte	.LASF182
 3548 09c2 01       		.byte	0x1
 3549 09c3 45       		.byte	0x45
 3550 09c4 00000000 		.4byte	.LFB118
 3551 09c8 3A000000 		.4byte	.LFE118-.LFB118
 3552 09cc 01       		.uleb128 0x1
 3553 09cd 9C       		.byte	0x9c
 3554 09ce E1090000 		.4byte	0x9e1
 3555 09d2 1D       		.uleb128 0x1d
 3556 09d3 90010000 		.4byte	.LASF158
 3557 09d7 01       		.byte	0x1
 3558 09d8 45       		.byte	0x45
 3559 09d9 BD060000 		.4byte	0x6bd
 3560 09dd 02       		.uleb128 0x2
 3561 09de 91       		.byte	0x91
 3562 09df 74       		.sleb128 -12
 3563 09e0 00       		.byte	0
 3564 09e1 1E       		.uleb128 0x1e
 3565 09e2 1F080000 		.4byte	.LASF183
 3566 09e6 01       		.byte	0x1
 3567 09e7 59       		.byte	0x59
 3568 09e8 FB000000 		.4byte	0xfb
 3569 09ec 3C000000 		.4byte	.LFB119
 3570 09f0 90030000 		.4byte	.LFE119-.LFB119
 3571 09f4 01       		.uleb128 0x1
 3572 09f5 9C       		.byte	0x9c
 3573 09f6 160A0000 		.4byte	0xa16
 3574 09fa 1D       		.uleb128 0x1d
 3575 09fb 90010000 		.4byte	.LASF158
 3576 09ff 01       		.byte	0x1
 3577 0a00 59       		.byte	0x59
 3578 0a01 BD060000 		.4byte	0x6bd
 3579 0a05 02       		.uleb128 0x2
 3580 0a06 91       		.byte	0x91
 3581 0a07 6C       		.sleb128 -20
 3582 0a08 1F       		.uleb128 0x1f
 3583 0a09 647000   		.ascii	"dp\000"
 3584 0a0c 01       		.byte	0x1
 3585 0a0d 5A       		.byte	0x5a
 3586 0a0e 58070000 		.4byte	0x758
 3587 0a12 02       		.uleb128 0x2
 3588 0a13 91       		.byte	0x91
 3589 0a14 74       		.sleb128 -12
 3590 0a15 00       		.byte	0
 3591 0a16 20       		.uleb128 0x20
 3592 0a17 AF060000 		.4byte	.LASF184
 3593 0a1b 01       		.byte	0x1
 3594 0a1c EB       		.byte	0xeb
 3595 0a1d CC030000 		.4byte	.LFB120
 3596 0a21 08000000 		.4byte	.LFE120-.LFB120
 3597 0a25 01       		.uleb128 0x1
 3598 0a26 9C       		.byte	0x9c
 3599 0a27 21       		.uleb128 0x21
 3600 0a28 0D040000 		.4byte	.LASF159
 3601 0a2c 01       		.byte	0x1
ARM GAS  /tmp/cceJrrFk.s 			page 65


 3602 0a2d F7       		.byte	0xf7
 3603 0a2e D4030000 		.4byte	.LFB121
 3604 0a32 4C000000 		.4byte	.LFE121-.LFB121
 3605 0a36 01       		.uleb128 0x1
 3606 0a37 9C       		.byte	0x9c
 3607 0a38 570A0000 		.4byte	0xa57
 3608 0a3c 1D       		.uleb128 0x1d
 3609 0a3d 90010000 		.4byte	.LASF158
 3610 0a41 01       		.byte	0x1
 3611 0a42 F7       		.byte	0xf7
 3612 0a43 BD060000 		.4byte	0x6bd
 3613 0a47 02       		.uleb128 0x2
 3614 0a48 91       		.byte	0x91
 3615 0a49 74       		.sleb128 -12
 3616 0a4a 1F       		.uleb128 0x1f
 3617 0a4b 6900     		.ascii	"i\000"
 3618 0a4d 01       		.byte	0x1
 3619 0a4e F8       		.byte	0xf8
 3620 0a4f 33000000 		.4byte	0x33
 3621 0a53 02       		.uleb128 0x2
 3622 0a54 91       		.byte	0x91
 3623 0a55 7C       		.sleb128 -4
 3624 0a56 00       		.byte	0
 3625 0a57 22       		.uleb128 0x22
 3626 0a58 5D020000 		.4byte	.LASF160
 3627 0a5c 01       		.byte	0x1
 3628 0a5d 0C01     		.2byte	0x10c
 3629 0a5f 20040000 		.4byte	.LFB122
 3630 0a63 84000000 		.4byte	.LFE122-.LFB122
 3631 0a67 01       		.uleb128 0x1
 3632 0a68 9C       		.byte	0x9c
 3633 0a69 CD0A0000 		.4byte	0xacd
 3634 0a6d 23       		.uleb128 0x23
 3635 0a6e 90010000 		.4byte	.LASF158
 3636 0a72 01       		.byte	0x1
 3637 0a73 0C01     		.2byte	0x10c
 3638 0a75 BD060000 		.4byte	0x6bd
 3639 0a79 02       		.uleb128 0x2
 3640 0a7a 91       		.byte	0x91
 3641 0a7b 6C       		.sleb128 -20
 3642 0a7c 23       		.uleb128 0x23
 3643 0a7d B7060000 		.4byte	.LASF79
 3644 0a81 01       		.byte	0x1
 3645 0a82 0C01     		.2byte	0x10c
 3646 0a84 77090000 		.4byte	0x977
 3647 0a88 02       		.uleb128 0x2
 3648 0a89 91       		.byte	0x91
 3649 0a8a 68       		.sleb128 -24
 3650 0a8b 24       		.uleb128 0x24
 3651 0a8c 6900     		.ascii	"i\000"
 3652 0a8e 01       		.byte	0x1
 3653 0a8f 0D01     		.2byte	0x10d
 3654 0a91 33000000 		.4byte	0x33
 3655 0a95 02       		.uleb128 0x2
 3656 0a96 91       		.byte	0x91
 3657 0a97 74       		.sleb128 -12
 3658 0a98 25       		.uleb128 0x25
ARM GAS  /tmp/cceJrrFk.s 			page 66


 3659 0a99 3A040000 		.4byte	.LBB2
 3660 0a9d 06000000 		.4byte	.LBE2-.LBB2
 3661 0aa1 B40A0000 		.4byte	0xab4
 3662 0aa5 24       		.uleb128 0x24
 3663 0aa6 746D7000 		.ascii	"tmp\000"
 3664 0aaa 01       		.byte	0x1
 3665 0aab 1101     		.2byte	0x111
 3666 0aad E5000000 		.4byte	0xe5
 3667 0ab1 01       		.uleb128 0x1
 3668 0ab2 53       		.byte	0x53
 3669 0ab3 00       		.byte	0
 3670 0ab4 26       		.uleb128 0x26
 3671 0ab5 90040000 		.4byte	.LBB3
 3672 0ab9 06000000 		.4byte	.LBE3-.LBB3
 3673 0abd 24       		.uleb128 0x24
 3674 0abe 746D7000 		.ascii	"tmp\000"
 3675 0ac2 01       		.byte	0x1
 3676 0ac3 1901     		.2byte	0x119
 3677 0ac5 E5000000 		.4byte	0xe5
 3678 0ac9 01       		.uleb128 0x1
 3679 0aca 53       		.byte	0x53
 3680 0acb 00       		.byte	0
 3681 0acc 00       		.byte	0
 3682 0acd 22       		.uleb128 0x22
 3683 0ace BB020000 		.4byte	.LASF161
 3684 0ad2 01       		.byte	0x1
 3685 0ad3 2301     		.2byte	0x123
 3686 0ad5 A4040000 		.4byte	.LFB123
 3687 0ad9 68000000 		.4byte	.LFE123-.LFB123
 3688 0add 01       		.uleb128 0x1
 3689 0ade 9C       		.byte	0x9c
 3690 0adf 270B0000 		.4byte	0xb27
 3691 0ae3 23       		.uleb128 0x23
 3692 0ae4 90010000 		.4byte	.LASF158
 3693 0ae8 01       		.byte	0x1
 3694 0ae9 2301     		.2byte	0x123
 3695 0aeb BD060000 		.4byte	0x6bd
 3696 0aef 02       		.uleb128 0x2
 3697 0af0 91       		.byte	0x91
 3698 0af1 74       		.sleb128 -12
 3699 0af2 25       		.uleb128 0x25
 3700 0af3 B6040000 		.4byte	.LBB4
 3701 0af7 06000000 		.4byte	.LBE4-.LBB4
 3702 0afb 0E0B0000 		.4byte	0xb0e
 3703 0aff 24       		.uleb128 0x24
 3704 0b00 746D7000 		.ascii	"tmp\000"
 3705 0b04 01       		.byte	0x1
 3706 0b05 2701     		.2byte	0x127
 3707 0b07 E5000000 		.4byte	0xe5
 3708 0b0b 01       		.uleb128 0x1
 3709 0b0c 53       		.byte	0x53
 3710 0b0d 00       		.byte	0
 3711 0b0e 26       		.uleb128 0x26
 3712 0b0f F6040000 		.4byte	.LBB5
 3713 0b13 06000000 		.4byte	.LBE5-.LBB5
 3714 0b17 24       		.uleb128 0x24
 3715 0b18 746D7000 		.ascii	"tmp\000"
ARM GAS  /tmp/cceJrrFk.s 			page 67


 3716 0b1c 01       		.byte	0x1
 3717 0b1d 2D01     		.2byte	0x12d
 3718 0b1f E5000000 		.4byte	0xe5
 3719 0b23 01       		.uleb128 0x1
 3720 0b24 53       		.byte	0x53
 3721 0b25 00       		.byte	0
 3722 0b26 00       		.byte	0
 3723 0b27 22       		.uleb128 0x22
 3724 0b28 F5070000 		.4byte	.LASF162
 3725 0b2c 01       		.byte	0x1
 3726 0b2d 3D01     		.2byte	0x13d
 3727 0b2f 0C050000 		.4byte	.LFB124
 3728 0b33 A4000000 		.4byte	.LFE124-.LFB124
 3729 0b37 01       		.uleb128 0x1
 3730 0b38 9C       		.byte	0x9c
 3731 0b39 6A0B0000 		.4byte	0xb6a
 3732 0b3d 23       		.uleb128 0x23
 3733 0b3e 90010000 		.4byte	.LASF158
 3734 0b42 01       		.byte	0x1
 3735 0b43 3D01     		.2byte	0x13d
 3736 0b45 BD060000 		.4byte	0x6bd
 3737 0b49 02       		.uleb128 0x2
 3738 0b4a 91       		.byte	0x91
 3739 0b4b 74       		.sleb128 -12
 3740 0b4c 27       		.uleb128 0x27
 3741 0b4d 657000   		.ascii	"ep\000"
 3742 0b50 01       		.byte	0x1
 3743 0b51 3D01     		.2byte	0x13d
 3744 0b53 9E050000 		.4byte	0x59e
 3745 0b57 02       		.uleb128 0x2
 3746 0b58 91       		.byte	0x91
 3747 0b59 73       		.sleb128 -13
 3748 0b5a 23       		.uleb128 0x23
 3749 0b5b AE070000 		.4byte	.LASF163
 3750 0b5f 01       		.byte	0x1
 3751 0b60 3E01     		.2byte	0x13e
 3752 0b62 92090000 		.4byte	0x992
 3753 0b66 02       		.uleb128 0x2
 3754 0b67 91       		.byte	0x91
 3755 0b68 6C       		.sleb128 -20
 3756 0b69 00       		.byte	0
 3757 0b6a 22       		.uleb128 0x22
 3758 0b6b 74080000 		.4byte	.LASF164
 3759 0b6f 01       		.byte	0x1
 3760 0b70 5E01     		.2byte	0x15e
 3761 0b72 B0050000 		.4byte	.LFB125
 3762 0b76 74000000 		.4byte	.LFE125-.LFB125
 3763 0b7a 01       		.uleb128 0x1
 3764 0b7b 9C       		.byte	0x9c
 3765 0b7c 9D0B0000 		.4byte	0xb9d
 3766 0b80 23       		.uleb128 0x23
 3767 0b81 90010000 		.4byte	.LASF158
 3768 0b85 01       		.byte	0x1
 3769 0b86 5E01     		.2byte	0x15e
 3770 0b88 BD060000 		.4byte	0x6bd
 3771 0b8c 02       		.uleb128 0x2
 3772 0b8d 91       		.byte	0x91
ARM GAS  /tmp/cceJrrFk.s 			page 68


 3773 0b8e 6C       		.sleb128 -20
 3774 0b8f 24       		.uleb128 0x24
 3775 0b90 6900     		.ascii	"i\000"
 3776 0b92 01       		.byte	0x1
 3777 0b93 5F01     		.2byte	0x15f
 3778 0b95 33000000 		.4byte	0x33
 3779 0b99 02       		.uleb128 0x2
 3780 0b9a 91       		.byte	0x91
 3781 0b9b 74       		.sleb128 -12
 3782 0b9c 00       		.byte	0
 3783 0b9d 22       		.uleb128 0x22
 3784 0b9e A4030000 		.4byte	.LASF165
 3785 0ba2 01       		.byte	0x1
 3786 0ba3 7B01     		.2byte	0x17b
 3787 0ba5 24060000 		.4byte	.LFB126
 3788 0ba9 4C000000 		.4byte	.LFE126-.LFB126
 3789 0bad 01       		.uleb128 0x1
 3790 0bae 9C       		.byte	0x9c
 3791 0baf FC0B0000 		.4byte	0xbfc
 3792 0bb3 23       		.uleb128 0x23
 3793 0bb4 90010000 		.4byte	.LASF158
 3794 0bb8 01       		.byte	0x1
 3795 0bb9 7B01     		.2byte	0x17b
 3796 0bbb BD060000 		.4byte	0x6bd
 3797 0bbf 02       		.uleb128 0x2
 3798 0bc0 91       		.byte	0x91
 3799 0bc1 6C       		.sleb128 -20
 3800 0bc2 27       		.uleb128 0x27
 3801 0bc3 657000   		.ascii	"ep\000"
 3802 0bc6 01       		.byte	0x1
 3803 0bc7 7B01     		.2byte	0x17b
 3804 0bc9 9E050000 		.4byte	0x59e
 3805 0bcd 02       		.uleb128 0x2
 3806 0bce 91       		.byte	0x91
 3807 0bcf 6B       		.sleb128 -21
 3808 0bd0 27       		.uleb128 0x27
 3809 0bd1 62756600 		.ascii	"buf\000"
 3810 0bd5 01       		.byte	0x1
 3811 0bd6 7B01     		.2byte	0x17b
 3812 0bd8 89040000 		.4byte	0x489
 3813 0bdc 02       		.uleb128 0x2
 3814 0bdd 91       		.byte	0x91
 3815 0bde 64       		.sleb128 -28
 3816 0bdf 27       		.uleb128 0x27
 3817 0be0 6E00     		.ascii	"n\000"
 3818 0be2 01       		.byte	0x1
 3819 0be3 7B01     		.2byte	0x17b
 3820 0be5 28000000 		.4byte	0x28
 3821 0be9 02       		.uleb128 0x2
 3822 0bea 91       		.byte	0x91
 3823 0beb 60       		.sleb128 -32
 3824 0bec 24       		.uleb128 0x24
 3825 0bed 6F737000 		.ascii	"osp\000"
 3826 0bf1 01       		.byte	0x1
 3827 0bf2 7C01     		.2byte	0x17c
 3828 0bf4 1C090000 		.4byte	0x91c
 3829 0bf8 02       		.uleb128 0x2
ARM GAS  /tmp/cceJrrFk.s 			page 69


 3830 0bf9 91       		.byte	0x91
 3831 0bfa 74       		.sleb128 -12
 3832 0bfb 00       		.byte	0
 3833 0bfc 22       		.uleb128 0x22
 3834 0bfd C3020000 		.4byte	.LASF166
 3835 0c01 01       		.byte	0x1
 3836 0c02 9401     		.2byte	0x194
 3837 0c04 70060000 		.4byte	.LFB127
 3838 0c08 4C000000 		.4byte	.LFE127-.LFB127
 3839 0c0c 01       		.uleb128 0x1
 3840 0c0d 9C       		.byte	0x9c
 3841 0c0e 5B0C0000 		.4byte	0xc5b
 3842 0c12 23       		.uleb128 0x23
 3843 0c13 90010000 		.4byte	.LASF158
 3844 0c17 01       		.byte	0x1
 3845 0c18 9401     		.2byte	0x194
 3846 0c1a BD060000 		.4byte	0x6bd
 3847 0c1e 02       		.uleb128 0x2
 3848 0c1f 91       		.byte	0x91
 3849 0c20 6C       		.sleb128 -20
 3850 0c21 27       		.uleb128 0x27
 3851 0c22 657000   		.ascii	"ep\000"
 3852 0c25 01       		.byte	0x1
 3853 0c26 9401     		.2byte	0x194
 3854 0c28 9E050000 		.4byte	0x59e
 3855 0c2c 02       		.uleb128 0x2
 3856 0c2d 91       		.byte	0x91
 3857 0c2e 6B       		.sleb128 -21
 3858 0c2f 27       		.uleb128 0x27
 3859 0c30 62756600 		.ascii	"buf\000"
 3860 0c34 01       		.byte	0x1
 3861 0c35 9501     		.2byte	0x195
 3862 0c37 A5040000 		.4byte	0x4a5
 3863 0c3b 02       		.uleb128 0x2
 3864 0c3c 91       		.byte	0x91
 3865 0c3d 64       		.sleb128 -28
 3866 0c3e 27       		.uleb128 0x27
 3867 0c3f 6E00     		.ascii	"n\000"
 3868 0c41 01       		.byte	0x1
 3869 0c42 9501     		.2byte	0x195
 3870 0c44 28000000 		.4byte	0x28
 3871 0c48 02       		.uleb128 0x2
 3872 0c49 91       		.byte	0x91
 3873 0c4a 60       		.sleb128 -32
 3874 0c4b 24       		.uleb128 0x24
 3875 0c4c 69737000 		.ascii	"isp\000"
 3876 0c50 01       		.byte	0x1
 3877 0c51 9601     		.2byte	0x196
 3878 0c53 16090000 		.4byte	0x916
 3879 0c57 02       		.uleb128 0x2
 3880 0c58 91       		.byte	0x91
 3881 0c59 74       		.sleb128 -12
 3882 0c5a 00       		.byte	0
 3883 0c5b 22       		.uleb128 0x22
 3884 0c5c 14020000 		.4byte	.LASF167
 3885 0c60 01       		.byte	0x1
 3886 0c61 B101     		.2byte	0x1b1
ARM GAS  /tmp/cceJrrFk.s 			page 70


 3887 0c63 BC060000 		.4byte	.LFB128
 3888 0c67 4C000000 		.4byte	.LFE128-.LFB128
 3889 0c6b 01       		.uleb128 0x1
 3890 0c6c 9C       		.byte	0x9c
 3891 0c6d BA0C0000 		.4byte	0xcba
 3892 0c71 23       		.uleb128 0x23
 3893 0c72 90010000 		.4byte	.LASF158
 3894 0c76 01       		.byte	0x1
 3895 0c77 B101     		.2byte	0x1b1
 3896 0c79 BD060000 		.4byte	0x6bd
 3897 0c7d 02       		.uleb128 0x2
 3898 0c7e 91       		.byte	0x91
 3899 0c7f 6C       		.sleb128 -20
 3900 0c80 27       		.uleb128 0x27
 3901 0c81 657000   		.ascii	"ep\000"
 3902 0c84 01       		.byte	0x1
 3903 0c85 B101     		.2byte	0x1b1
 3904 0c87 9E050000 		.4byte	0x59e
 3905 0c8b 02       		.uleb128 0x2
 3906 0c8c 91       		.byte	0x91
 3907 0c8d 6B       		.sleb128 -21
 3908 0c8e 27       		.uleb128 0x27
 3909 0c8f 69717000 		.ascii	"iqp\000"
 3910 0c93 01       		.byte	0x1
 3911 0c94 B201     		.2byte	0x1b2
 3912 0c96 20080000 		.4byte	0x820
 3913 0c9a 02       		.uleb128 0x2
 3914 0c9b 91       		.byte	0x91
 3915 0c9c 64       		.sleb128 -28
 3916 0c9d 27       		.uleb128 0x27
 3917 0c9e 6E00     		.ascii	"n\000"
 3918 0ca0 01       		.byte	0x1
 3919 0ca1 B201     		.2byte	0x1b2
 3920 0ca3 28000000 		.4byte	0x28
 3921 0ca7 02       		.uleb128 0x2
 3922 0ca8 91       		.byte	0x91
 3923 0ca9 60       		.sleb128 -32
 3924 0caa 24       		.uleb128 0x24
 3925 0cab 6F737000 		.ascii	"osp\000"
 3926 0caf 01       		.byte	0x1
 3927 0cb0 B301     		.2byte	0x1b3
 3928 0cb2 1C090000 		.4byte	0x91c
 3929 0cb6 02       		.uleb128 0x2
 3930 0cb7 91       		.byte	0x91
 3931 0cb8 74       		.sleb128 -12
 3932 0cb9 00       		.byte	0
 3933 0cba 22       		.uleb128 0x22
 3934 0cbb BA050000 		.4byte	.LASF168
 3935 0cbf 01       		.byte	0x1
 3936 0cc0 CB01     		.2byte	0x1cb
 3937 0cc2 08070000 		.4byte	.LFB129
 3938 0cc6 4C000000 		.4byte	.LFE129-.LFB129
 3939 0cca 01       		.uleb128 0x1
 3940 0ccb 9C       		.byte	0x9c
 3941 0ccc 190D0000 		.4byte	0xd19
 3942 0cd0 23       		.uleb128 0x23
 3943 0cd1 90010000 		.4byte	.LASF158
ARM GAS  /tmp/cceJrrFk.s 			page 71


 3944 0cd5 01       		.byte	0x1
 3945 0cd6 CB01     		.2byte	0x1cb
 3946 0cd8 BD060000 		.4byte	0x6bd
 3947 0cdc 02       		.uleb128 0x2
 3948 0cdd 91       		.byte	0x91
 3949 0cde 6C       		.sleb128 -20
 3950 0cdf 27       		.uleb128 0x27
 3951 0ce0 657000   		.ascii	"ep\000"
 3952 0ce3 01       		.byte	0x1
 3953 0ce4 CB01     		.2byte	0x1cb
 3954 0ce6 9E050000 		.4byte	0x59e
 3955 0cea 02       		.uleb128 0x2
 3956 0ceb 91       		.byte	0x91
 3957 0cec 6B       		.sleb128 -21
 3958 0ced 27       		.uleb128 0x27
 3959 0cee 6F717000 		.ascii	"oqp\000"
 3960 0cf2 01       		.byte	0x1
 3961 0cf3 CC01     		.2byte	0x1cc
 3962 0cf5 8D070000 		.4byte	0x78d
 3963 0cf9 02       		.uleb128 0x2
 3964 0cfa 91       		.byte	0x91
 3965 0cfb 64       		.sleb128 -28
 3966 0cfc 27       		.uleb128 0x27
 3967 0cfd 6E00     		.ascii	"n\000"
 3968 0cff 01       		.byte	0x1
 3969 0d00 CC01     		.2byte	0x1cc
 3970 0d02 28000000 		.4byte	0x28
 3971 0d06 02       		.uleb128 0x2
 3972 0d07 91       		.byte	0x91
 3973 0d08 60       		.sleb128 -32
 3974 0d09 24       		.uleb128 0x24
 3975 0d0a 69737000 		.ascii	"isp\000"
 3976 0d0e 01       		.byte	0x1
 3977 0d0f CD01     		.2byte	0x1cd
 3978 0d11 16090000 		.4byte	0x916
 3979 0d15 02       		.uleb128 0x2
 3980 0d16 91       		.byte	0x91
 3981 0d17 74       		.sleb128 -12
 3982 0d18 00       		.byte	0
 3983 0d19 28       		.uleb128 0x28
 3984 0d1a AA020000 		.4byte	.LASF169
 3985 0d1e 01       		.byte	0x1
 3986 0d1f E501     		.2byte	0x1e5
 3987 0d21 FB000000 		.4byte	0xfb
 3988 0d25 54070000 		.4byte	.LFB130
 3989 0d29 70000000 		.4byte	.LFE130-.LFB130
 3990 0d2d 01       		.uleb128 0x1
 3991 0d2e 9C       		.byte	0x9c
 3992 0d2f 510D0000 		.4byte	0xd51
 3993 0d33 23       		.uleb128 0x23
 3994 0d34 90010000 		.4byte	.LASF158
 3995 0d38 01       		.byte	0x1
 3996 0d39 E501     		.2byte	0x1e5
 3997 0d3b BD060000 		.4byte	0x6bd
 3998 0d3f 02       		.uleb128 0x2
 3999 0d40 91       		.byte	0x91
 4000 0d41 74       		.sleb128 -12
ARM GAS  /tmp/cceJrrFk.s 			page 72


 4001 0d42 27       		.uleb128 0x27
 4002 0d43 657000   		.ascii	"ep\000"
 4003 0d46 01       		.byte	0x1
 4004 0d47 E501     		.2byte	0x1e5
 4005 0d49 9E050000 		.4byte	0x59e
 4006 0d4d 02       		.uleb128 0x2
 4007 0d4e 91       		.byte	0x91
 4008 0d4f 73       		.sleb128 -13
 4009 0d50 00       		.byte	0
 4010 0d51 28       		.uleb128 0x28
 4011 0d52 79070000 		.4byte	.LASF170
 4012 0d56 01       		.byte	0x1
 4013 0d57 0002     		.2byte	0x200
 4014 0d59 FB000000 		.4byte	0xfb
 4015 0d5d C4070000 		.4byte	.LFB131
 4016 0d61 70000000 		.4byte	.LFE131-.LFB131
 4017 0d65 01       		.uleb128 0x1
 4018 0d66 9C       		.byte	0x9c
 4019 0d67 890D0000 		.4byte	0xd89
 4020 0d6b 23       		.uleb128 0x23
 4021 0d6c 90010000 		.4byte	.LASF158
 4022 0d70 01       		.byte	0x1
 4023 0d71 0002     		.2byte	0x200
 4024 0d73 BD060000 		.4byte	0x6bd
 4025 0d77 02       		.uleb128 0x2
 4026 0d78 91       		.byte	0x91
 4027 0d79 74       		.sleb128 -12
 4028 0d7a 27       		.uleb128 0x27
 4029 0d7b 657000   		.ascii	"ep\000"
 4030 0d7e 01       		.byte	0x1
 4031 0d7f 0002     		.2byte	0x200
 4032 0d81 9E050000 		.4byte	0x59e
 4033 0d85 02       		.uleb128 0x2
 4034 0d86 91       		.byte	0x91
 4035 0d87 73       		.sleb128 -13
 4036 0d88 00       		.byte	0
 4037 0d89 28       		.uleb128 0x28
 4038 0d8a A8000000 		.4byte	.LASF171
 4039 0d8e 01       		.byte	0x1
 4040 0d8f 1902     		.2byte	0x219
 4041 0d91 FB000000 		.4byte	0xfb
 4042 0d95 34080000 		.4byte	.LFB132
 4043 0d99 50000000 		.4byte	.LFE132-.LFB132
 4044 0d9d 01       		.uleb128 0x1
 4045 0d9e 9C       		.byte	0x9c
 4046 0d9f C10D0000 		.4byte	0xdc1
 4047 0da3 23       		.uleb128 0x23
 4048 0da4 90010000 		.4byte	.LASF158
 4049 0da8 01       		.byte	0x1
 4050 0da9 1902     		.2byte	0x219
 4051 0dab BD060000 		.4byte	0x6bd
 4052 0daf 02       		.uleb128 0x2
 4053 0db0 91       		.byte	0x91
 4054 0db1 74       		.sleb128 -12
 4055 0db2 27       		.uleb128 0x27
 4056 0db3 657000   		.ascii	"ep\000"
 4057 0db6 01       		.byte	0x1
ARM GAS  /tmp/cceJrrFk.s 			page 73


 4058 0db7 1902     		.2byte	0x219
 4059 0db9 9E050000 		.4byte	0x59e
 4060 0dbd 02       		.uleb128 0x2
 4061 0dbe 91       		.byte	0x91
 4062 0dbf 73       		.sleb128 -13
 4063 0dc0 00       		.byte	0
 4064 0dc1 28       		.uleb128 0x28
 4065 0dc2 58070000 		.4byte	.LASF172
 4066 0dc6 01       		.byte	0x1
 4067 0dc7 3102     		.2byte	0x231
 4068 0dc9 FB000000 		.4byte	0xfb
 4069 0dcd 84080000 		.4byte	.LFB133
 4070 0dd1 50000000 		.4byte	.LFE133-.LFB133
 4071 0dd5 01       		.uleb128 0x1
 4072 0dd6 9C       		.byte	0x9c
 4073 0dd7 F90D0000 		.4byte	0xdf9
 4074 0ddb 23       		.uleb128 0x23
 4075 0ddc 90010000 		.4byte	.LASF158
 4076 0de0 01       		.byte	0x1
 4077 0de1 3102     		.2byte	0x231
 4078 0de3 BD060000 		.4byte	0x6bd
 4079 0de7 02       		.uleb128 0x2
 4080 0de8 91       		.byte	0x91
 4081 0de9 74       		.sleb128 -12
 4082 0dea 27       		.uleb128 0x27
 4083 0deb 657000   		.ascii	"ep\000"
 4084 0dee 01       		.byte	0x1
 4085 0def 3102     		.2byte	0x231
 4086 0df1 9E050000 		.4byte	0x59e
 4087 0df5 02       		.uleb128 0x2
 4088 0df6 91       		.byte	0x91
 4089 0df7 73       		.sleb128 -13
 4090 0df8 00       		.byte	0
 4091 0df9 22       		.uleb128 0x22
 4092 0dfa DA030000 		.4byte	.LASF173
 4093 0dfe 01       		.byte	0x1
 4094 0dff 4602     		.2byte	0x246
 4095 0e01 D4080000 		.4byte	.LFB134
 4096 0e05 64000000 		.4byte	.LFE134-.LFB134
 4097 0e09 01       		.uleb128 0x1
 4098 0e0a 9C       		.byte	0x9c
 4099 0e0b 2C0E0000 		.4byte	0xe2c
 4100 0e0f 23       		.uleb128 0x23
 4101 0e10 90010000 		.4byte	.LASF158
 4102 0e14 01       		.byte	0x1
 4103 0e15 4602     		.2byte	0x246
 4104 0e17 BD060000 		.4byte	0x6bd
 4105 0e1b 02       		.uleb128 0x2
 4106 0e1c 91       		.byte	0x91
 4107 0e1d 6C       		.sleb128 -20
 4108 0e1e 24       		.uleb128 0x24
 4109 0e1f 6900     		.ascii	"i\000"
 4110 0e21 01       		.byte	0x1
 4111 0e22 4702     		.2byte	0x247
 4112 0e24 33000000 		.4byte	0x33
 4113 0e28 02       		.uleb128 0x2
 4114 0e29 91       		.byte	0x91
ARM GAS  /tmp/cceJrrFk.s 			page 74


 4115 0e2a 74       		.sleb128 -12
 4116 0e2b 00       		.byte	0
 4117 0e2c 22       		.uleb128 0x22
 4118 0e2d 5B030000 		.4byte	.LASF174
 4119 0e31 01       		.byte	0x1
 4120 0e32 6502     		.2byte	0x265
 4121 0e34 38090000 		.4byte	.LFB135
 4122 0e38 AC010000 		.4byte	.LFE135-.LFB135
 4123 0e3c 01       		.uleb128 0x1
 4124 0e3d 9C       		.byte	0x9c
 4125 0e3e 4B0F0000 		.4byte	0xf4b
 4126 0e42 23       		.uleb128 0x23
 4127 0e43 90010000 		.4byte	.LASF158
 4128 0e47 01       		.byte	0x1
 4129 0e48 6502     		.2byte	0x265
 4130 0e4a BD060000 		.4byte	0x6bd
 4131 0e4e 02       		.uleb128 0x2
 4132 0e4f 91       		.byte	0x91
 4133 0e50 6C       		.sleb128 -20
 4134 0e51 27       		.uleb128 0x27
 4135 0e52 657000   		.ascii	"ep\000"
 4136 0e55 01       		.byte	0x1
 4137 0e56 6502     		.2byte	0x265
 4138 0e58 9E050000 		.4byte	0x59e
 4139 0e5c 02       		.uleb128 0x2
 4140 0e5d 91       		.byte	0x91
 4141 0e5e 6B       		.sleb128 -21
 4142 0e5f 24       		.uleb128 0x24
 4143 0e60 6D617800 		.ascii	"max\000"
 4144 0e64 01       		.byte	0x1
 4145 0e65 6602     		.2byte	0x266
 4146 0e67 28000000 		.4byte	0x28
 4147 0e6b 02       		.uleb128 0x2
 4148 0e6c 91       		.byte	0x91
 4149 0e6d 74       		.sleb128 -12
 4150 0e6e 25       		.uleb128 0x25
 4151 0e6f 200A0000 		.4byte	.LBB6
 4152 0e73 06000000 		.4byte	.LBE6-.LBB6
 4153 0e77 8A0E0000 		.4byte	0xe8a
 4154 0e7b 24       		.uleb128 0x24
 4155 0e7c 746D7000 		.ascii	"tmp\000"
 4156 0e80 01       		.byte	0x1
 4157 0e81 9002     		.2byte	0x290
 4158 0e83 E5000000 		.4byte	0xe5
 4159 0e87 01       		.uleb128 0x1
 4160 0e88 53       		.byte	0x53
 4161 0e89 00       		.byte	0
 4162 0e8a 25       		.uleb128 0x25
 4163 0e8b 360A0000 		.4byte	.LBB7
 4164 0e8f 06000000 		.4byte	.LBE7-.LBB7
 4165 0e93 A60E0000 		.4byte	0xea6
 4166 0e97 24       		.uleb128 0x24
 4167 0e98 746D7000 		.ascii	"tmp\000"
 4168 0e9c 01       		.byte	0x1
 4169 0e9d 9202     		.2byte	0x292
 4170 0e9f E5000000 		.4byte	0xe5
 4171 0ea3 01       		.uleb128 0x1
ARM GAS  /tmp/cceJrrFk.s 			page 75


 4172 0ea4 53       		.byte	0x53
 4173 0ea5 00       		.byte	0
 4174 0ea6 25       		.uleb128 0x25
 4175 0ea7 520A0000 		.4byte	.LBB8
 4176 0eab 06000000 		.4byte	.LBE8-.LBB8
 4177 0eaf C20E0000 		.4byte	0xec2
 4178 0eb3 24       		.uleb128 0x24
 4179 0eb4 746D7000 		.ascii	"tmp\000"
 4180 0eb8 01       		.byte	0x1
 4181 0eb9 9A02     		.2byte	0x29a
 4182 0ebb E5000000 		.4byte	0xe5
 4183 0ebf 01       		.uleb128 0x1
 4184 0ec0 53       		.byte	0x53
 4185 0ec1 00       		.byte	0
 4186 0ec2 25       		.uleb128 0x25
 4187 0ec3 680A0000 		.4byte	.LBB9
 4188 0ec7 08000000 		.4byte	.LBE9-.LBB9
 4189 0ecb DE0E0000 		.4byte	0xede
 4190 0ecf 24       		.uleb128 0x24
 4191 0ed0 746D7000 		.ascii	"tmp\000"
 4192 0ed4 01       		.byte	0x1
 4193 0ed5 9C02     		.2byte	0x29c
 4194 0ed7 E5000000 		.4byte	0xe5
 4195 0edb 01       		.uleb128 0x1
 4196 0edc 53       		.byte	0x53
 4197 0edd 00       		.byte	0
 4198 0ede 25       		.uleb128 0x25
 4199 0edf 900A0000 		.4byte	.LBB10
 4200 0ee3 06000000 		.4byte	.LBE10-.LBB10
 4201 0ee7 FA0E0000 		.4byte	0xefa
 4202 0eeb 24       		.uleb128 0x24
 4203 0eec 746D7000 		.ascii	"tmp\000"
 4204 0ef0 01       		.byte	0x1
 4205 0ef1 A802     		.2byte	0x2a8
 4206 0ef3 E5000000 		.4byte	0xe5
 4207 0ef7 01       		.uleb128 0x1
 4208 0ef8 53       		.byte	0x53
 4209 0ef9 00       		.byte	0
 4210 0efa 25       		.uleb128 0x25
 4211 0efb A60A0000 		.4byte	.LBB11
 4212 0eff 06000000 		.4byte	.LBE11-.LBB11
 4213 0f03 160F0000 		.4byte	0xf16
 4214 0f07 24       		.uleb128 0x24
 4215 0f08 746D7000 		.ascii	"tmp\000"
 4216 0f0c 01       		.byte	0x1
 4217 0f0d AA02     		.2byte	0x2aa
 4218 0f0f E5000000 		.4byte	0xe5
 4219 0f13 01       		.uleb128 0x1
 4220 0f14 53       		.byte	0x53
 4221 0f15 00       		.byte	0
 4222 0f16 25       		.uleb128 0x25
 4223 0f17 C20A0000 		.4byte	.LBB12
 4224 0f1b 06000000 		.4byte	.LBE12-.LBB12
 4225 0f1f 320F0000 		.4byte	0xf32
 4226 0f23 24       		.uleb128 0x24
 4227 0f24 746D7000 		.ascii	"tmp\000"
 4228 0f28 01       		.byte	0x1
ARM GAS  /tmp/cceJrrFk.s 			page 76


 4229 0f29 B202     		.2byte	0x2b2
 4230 0f2b E5000000 		.4byte	0xe5
 4231 0f2f 01       		.uleb128 0x1
 4232 0f30 53       		.byte	0x53
 4233 0f31 00       		.byte	0
 4234 0f32 26       		.uleb128 0x26
 4235 0f33 D80A0000 		.4byte	.LBB13
 4236 0f37 06000000 		.4byte	.LBE13-.LBB13
 4237 0f3b 24       		.uleb128 0x24
 4238 0f3c 746D7000 		.ascii	"tmp\000"
 4239 0f40 01       		.byte	0x1
 4240 0f41 B402     		.2byte	0x2b4
 4241 0f43 E5000000 		.4byte	0xe5
 4242 0f47 01       		.uleb128 0x1
 4243 0f48 53       		.byte	0x53
 4244 0f49 00       		.byte	0
 4245 0f4a 00       		.byte	0
 4246 0f4b 22       		.uleb128 0x22
 4247 0f4c DA050000 		.4byte	.LASF175
 4248 0f50 01       		.byte	0x1
 4249 0f51 C602     		.2byte	0x2c6
 4250 0f53 E40A0000 		.4byte	.LFB136
 4251 0f57 06010000 		.4byte	.LFE136-.LFB136
 4252 0f5b 01       		.uleb128 0x1
 4253 0f5c 9C       		.byte	0x9c
 4254 0f5d FA0F0000 		.4byte	0xffa
 4255 0f61 23       		.uleb128 0x23
 4256 0f62 90010000 		.4byte	.LASF158
 4257 0f66 01       		.byte	0x1
 4258 0f67 C602     		.2byte	0x2c6
 4259 0f69 BD060000 		.4byte	0x6bd
 4260 0f6d 02       		.uleb128 0x2
 4261 0f6e 91       		.byte	0x91
 4262 0f6f 6C       		.sleb128 -20
 4263 0f70 27       		.uleb128 0x27
 4264 0f71 657000   		.ascii	"ep\000"
 4265 0f74 01       		.byte	0x1
 4266 0f75 C602     		.2byte	0x2c6
 4267 0f77 9E050000 		.4byte	0x59e
 4268 0f7b 02       		.uleb128 0x2
 4269 0f7c 91       		.byte	0x91
 4270 0f7d 6B       		.sleb128 -21
 4271 0f7e 24       		.uleb128 0x24
 4272 0f7f 6D617800 		.ascii	"max\000"
 4273 0f83 01       		.byte	0x1
 4274 0f84 C702     		.2byte	0x2c7
 4275 0f86 28000000 		.4byte	0x28
 4276 0f8a 02       		.uleb128 0x2
 4277 0f8b 91       		.byte	0x91
 4278 0f8c 74       		.sleb128 -12
 4279 0f8d 25       		.uleb128 0x25
 4280 0f8e 440B0000 		.4byte	.LBB14
 4281 0f92 06000000 		.4byte	.LBE14-.LBB14
 4282 0f96 A90F0000 		.4byte	0xfa9
 4283 0f9a 24       		.uleb128 0x24
 4284 0f9b 746D7000 		.ascii	"tmp\000"
 4285 0f9f 01       		.byte	0x1
ARM GAS  /tmp/cceJrrFk.s 			page 77


 4286 0fa0 D202     		.2byte	0x2d2
 4287 0fa2 E5000000 		.4byte	0xe5
 4288 0fa6 01       		.uleb128 0x1
 4289 0fa7 53       		.byte	0x53
 4290 0fa8 00       		.byte	0
 4291 0fa9 25       		.uleb128 0x25
 4292 0faa 5A0B0000 		.4byte	.LBB15
 4293 0fae 06000000 		.4byte	.LBE15-.LBB15
 4294 0fb2 C50F0000 		.4byte	0xfc5
 4295 0fb6 24       		.uleb128 0x24
 4296 0fb7 746D7000 		.ascii	"tmp\000"
 4297 0fbb 01       		.byte	0x1
 4298 0fbc D402     		.2byte	0x2d4
 4299 0fbe E5000000 		.4byte	0xe5
 4300 0fc2 01       		.uleb128 0x1
 4301 0fc3 53       		.byte	0x53
 4302 0fc4 00       		.byte	0
 4303 0fc5 25       		.uleb128 0x25
 4304 0fc6 7E0B0000 		.4byte	.LBB16
 4305 0fca 06000000 		.4byte	.LBE16-.LBB16
 4306 0fce E10F0000 		.4byte	0xfe1
 4307 0fd2 24       		.uleb128 0x24
 4308 0fd3 746D7000 		.ascii	"tmp\000"
 4309 0fd7 01       		.byte	0x1
 4310 0fd8 DE02     		.2byte	0x2de
 4311 0fda E5000000 		.4byte	0xe5
 4312 0fde 01       		.uleb128 0x1
 4313 0fdf 53       		.byte	0x53
 4314 0fe0 00       		.byte	0
 4315 0fe1 26       		.uleb128 0x26
 4316 0fe2 940B0000 		.4byte	.LBB17
 4317 0fe6 06000000 		.4byte	.LBE17-.LBB17
 4318 0fea 24       		.uleb128 0x24
 4319 0feb 746D7000 		.ascii	"tmp\000"
 4320 0fef 01       		.byte	0x1
 4321 0ff0 E002     		.2byte	0x2e0
 4322 0ff2 E5000000 		.4byte	0xe5
 4323 0ff6 01       		.uleb128 0x1
 4324 0ff7 53       		.byte	0x53
 4325 0ff8 00       		.byte	0
 4326 0ff9 00       		.byte	0
 4327 0ffa 22       		.uleb128 0x22
 4328 0ffb 2F040000 		.4byte	.LASF176
 4329 0fff 01       		.byte	0x1
 4330 1000 0103     		.2byte	0x301
 4331 1002 EC0B0000 		.4byte	.LFB137
 4332 1006 A8000000 		.4byte	.LFE137-.LFB137
 4333 100a 01       		.uleb128 0x1
 4334 100b 9C       		.byte	0x9c
 4335 100c 62100000 		.4byte	0x1062
 4336 1010 23       		.uleb128 0x23
 4337 1011 90010000 		.4byte	.LASF158
 4338 1015 01       		.byte	0x1
 4339 1016 0103     		.2byte	0x301
 4340 1018 BD060000 		.4byte	0x6bd
 4341 101c 02       		.uleb128 0x2
 4342 101d 91       		.byte	0x91
ARM GAS  /tmp/cceJrrFk.s 			page 78


 4343 101e 74       		.sleb128 -12
 4344 101f 27       		.uleb128 0x27
 4345 1020 657000   		.ascii	"ep\000"
 4346 1023 01       		.byte	0x1
 4347 1024 0103     		.2byte	0x301
 4348 1026 9E050000 		.4byte	0x59e
 4349 102a 02       		.uleb128 0x2
 4350 102b 91       		.byte	0x91
 4351 102c 73       		.sleb128 -13
 4352 102d 25       		.uleb128 0x25
 4353 102e 1A0C0000 		.4byte	.LBB18
 4354 1032 06000000 		.4byte	.LBE18-.LBB18
 4355 1036 49100000 		.4byte	0x1049
 4356 103a 24       		.uleb128 0x24
 4357 103b 746D7000 		.ascii	"tmp\000"
 4358 103f 01       		.byte	0x1
 4359 1040 0A03     		.2byte	0x30a
 4360 1042 E5000000 		.4byte	0xe5
 4361 1046 01       		.uleb128 0x1
 4362 1047 53       		.byte	0x53
 4363 1048 00       		.byte	0
 4364 1049 26       		.uleb128 0x26
 4365 104a 300C0000 		.4byte	.LBB19
 4366 104e 06000000 		.4byte	.LBE19-.LBB19
 4367 1052 24       		.uleb128 0x24
 4368 1053 746D7000 		.ascii	"tmp\000"
 4369 1057 01       		.byte	0x1
 4370 1058 0C03     		.2byte	0x30c
 4371 105a E5000000 		.4byte	0xe5
 4372 105e 01       		.uleb128 0x1
 4373 105f 53       		.byte	0x53
 4374 1060 00       		.byte	0
 4375 1061 00       		.byte	0
 4376 1062 1A       		.uleb128 0x1a
 4377 1063 C4000000 		.4byte	0xc4
 4378 1067 72100000 		.4byte	0x1072
 4379 106b 1B       		.uleb128 0x1b
 4380 106c A9000000 		.4byte	0xa9
 4381 1070 01       		.byte	0x1
 4382 1071 00       		.byte	0
 4383 1072 29       		.uleb128 0x29
 4384 1073 FC010000 		.4byte	.LASF177
 4385 1077 01       		.byte	0x1
 4386 1078 38       		.byte	0x38
 4387 1079 83100000 		.4byte	0x1083
 4388 107d 05       		.uleb128 0x5
 4389 107e 03       		.byte	0x3
 4390 107f 00000000 		.4byte	zero_status
 4391 1083 07       		.uleb128 0x7
 4392 1084 62100000 		.4byte	0x1062
 4393 1088 29       		.uleb128 0x29
 4394 1089 2C070000 		.4byte	.LASF178
 4395 108d 01       		.byte	0x1
 4396 108e 39       		.byte	0x39
 4397 108f 99100000 		.4byte	0x1099
 4398 1093 05       		.uleb128 0x5
 4399 1094 03       		.byte	0x3
ARM GAS  /tmp/cceJrrFk.s 			page 79


 4400 1095 04000000 		.4byte	active_status
 4401 1099 07       		.uleb128 0x7
 4402 109a 62100000 		.4byte	0x1062
 4403 109e 29       		.uleb128 0x29
 4404 109f CB010000 		.4byte	.LASF179
 4405 10a3 01       		.byte	0x1
 4406 10a4 3A       		.byte	0x3a
 4407 10a5 AF100000 		.4byte	0x10af
 4408 10a9 05       		.uleb128 0x5
 4409 10aa 03       		.byte	0x3
 4410 10ab 08000000 		.4byte	halted_status
 4411 10af 07       		.uleb128 0x7
 4412 10b0 62100000 		.4byte	0x1062
 4413 10b4 2A       		.uleb128 0x2a
 4414 10b5 FF040000 		.4byte	.LASF185
 4415 10b9 0D       		.byte	0xd
 4416 10ba 9806     		.2byte	0x698
 4417 10bc B0040000 		.4byte	0x4b0
 4418 10c0 00       		.byte	0
 4419              		.section	.debug_abbrev,"",%progbits
 4420              	.Ldebug_abbrev0:
 4421 0000 01       		.uleb128 0x1
 4422 0001 11       		.uleb128 0x11
 4423 0002 01       		.byte	0x1
 4424 0003 25       		.uleb128 0x25
 4425 0004 0E       		.uleb128 0xe
 4426 0005 13       		.uleb128 0x13
 4427 0006 0B       		.uleb128 0xb
 4428 0007 03       		.uleb128 0x3
 4429 0008 0E       		.uleb128 0xe
 4430 0009 11       		.uleb128 0x11
 4431 000a 01       		.uleb128 0x1
 4432 000b 12       		.uleb128 0x12
 4433 000c 06       		.uleb128 0x6
 4434 000d 10       		.uleb128 0x10
 4435 000e 17       		.uleb128 0x17
 4436 000f 00       		.byte	0
 4437 0010 00       		.byte	0
 4438 0011 02       		.uleb128 0x2
 4439 0012 24       		.uleb128 0x24
 4440 0013 00       		.byte	0
 4441 0014 0B       		.uleb128 0xb
 4442 0015 0B       		.uleb128 0xb
 4443 0016 3E       		.uleb128 0x3e
 4444 0017 0B       		.uleb128 0xb
 4445 0018 03       		.uleb128 0x3
 4446 0019 08       		.uleb128 0x8
 4447 001a 00       		.byte	0
 4448 001b 00       		.byte	0
 4449 001c 03       		.uleb128 0x3
 4450 001d 16       		.uleb128 0x16
 4451 001e 00       		.byte	0
 4452 001f 03       		.uleb128 0x3
 4453 0020 0E       		.uleb128 0xe
 4454 0021 3A       		.uleb128 0x3a
 4455 0022 0B       		.uleb128 0xb
 4456 0023 3B       		.uleb128 0x3b
ARM GAS  /tmp/cceJrrFk.s 			page 80


 4457 0024 0B       		.uleb128 0xb
 4458 0025 49       		.uleb128 0x49
 4459 0026 13       		.uleb128 0x13
 4460 0027 00       		.byte	0
 4461 0028 00       		.byte	0
 4462 0029 04       		.uleb128 0x4
 4463 002a 24       		.uleb128 0x24
 4464 002b 00       		.byte	0
 4465 002c 0B       		.uleb128 0xb
 4466 002d 0B       		.uleb128 0xb
 4467 002e 3E       		.uleb128 0x3e
 4468 002f 0B       		.uleb128 0xb
 4469 0030 03       		.uleb128 0x3
 4470 0031 0E       		.uleb128 0xe
 4471 0032 00       		.byte	0
 4472 0033 00       		.byte	0
 4473 0034 05       		.uleb128 0x5
 4474 0035 0F       		.uleb128 0xf
 4475 0036 00       		.byte	0
 4476 0037 0B       		.uleb128 0xb
 4477 0038 0B       		.uleb128 0xb
 4478 0039 00       		.byte	0
 4479 003a 00       		.byte	0
 4480 003b 06       		.uleb128 0x6
 4481 003c 0F       		.uleb128 0xf
 4482 003d 00       		.byte	0
 4483 003e 0B       		.uleb128 0xb
 4484 003f 0B       		.uleb128 0xb
 4485 0040 49       		.uleb128 0x49
 4486 0041 13       		.uleb128 0x13
 4487 0042 00       		.byte	0
 4488 0043 00       		.byte	0
 4489 0044 07       		.uleb128 0x7
 4490 0045 26       		.uleb128 0x26
 4491 0046 00       		.byte	0
 4492 0047 49       		.uleb128 0x49
 4493 0048 13       		.uleb128 0x13
 4494 0049 00       		.byte	0
 4495 004a 00       		.byte	0
 4496 004b 08       		.uleb128 0x8
 4497 004c 13       		.uleb128 0x13
 4498 004d 01       		.byte	0x1
 4499 004e 03       		.uleb128 0x3
 4500 004f 0E       		.uleb128 0xe
 4501 0050 0B       		.uleb128 0xb
 4502 0051 0B       		.uleb128 0xb
 4503 0052 3A       		.uleb128 0x3a
 4504 0053 0B       		.uleb128 0xb
 4505 0054 3B       		.uleb128 0x3b
 4506 0055 0B       		.uleb128 0xb
 4507 0056 01       		.uleb128 0x1
 4508 0057 13       		.uleb128 0x13
 4509 0058 00       		.byte	0
 4510 0059 00       		.byte	0
 4511 005a 09       		.uleb128 0x9
 4512 005b 0D       		.uleb128 0xd
 4513 005c 00       		.byte	0
ARM GAS  /tmp/cceJrrFk.s 			page 81


 4514 005d 03       		.uleb128 0x3
 4515 005e 0E       		.uleb128 0xe
 4516 005f 3A       		.uleb128 0x3a
 4517 0060 0B       		.uleb128 0xb
 4518 0061 3B       		.uleb128 0x3b
 4519 0062 0B       		.uleb128 0xb
 4520 0063 49       		.uleb128 0x49
 4521 0064 13       		.uleb128 0x13
 4522 0065 38       		.uleb128 0x38
 4523 0066 0B       		.uleb128 0xb
 4524 0067 00       		.byte	0
 4525 0068 00       		.byte	0
 4526 0069 0A       		.uleb128 0xa
 4527 006a 0D       		.uleb128 0xd
 4528 006b 00       		.byte	0
 4529 006c 03       		.uleb128 0x3
 4530 006d 08       		.uleb128 0x8
 4531 006e 3A       		.uleb128 0x3a
 4532 006f 0B       		.uleb128 0xb
 4533 0070 3B       		.uleb128 0x3b
 4534 0071 0B       		.uleb128 0xb
 4535 0072 49       		.uleb128 0x49
 4536 0073 13       		.uleb128 0x13
 4537 0074 38       		.uleb128 0x38
 4538 0075 0B       		.uleb128 0xb
 4539 0076 00       		.byte	0
 4540 0077 00       		.byte	0
 4541 0078 0B       		.uleb128 0xb
 4542 0079 13       		.uleb128 0x13
 4543 007a 01       		.byte	0x1
 4544 007b 0B       		.uleb128 0xb
 4545 007c 0B       		.uleb128 0xb
 4546 007d 3A       		.uleb128 0x3a
 4547 007e 0B       		.uleb128 0xb
 4548 007f 3B       		.uleb128 0x3b
 4549 0080 0B       		.uleb128 0xb
 4550 0081 01       		.uleb128 0x1
 4551 0082 13       		.uleb128 0x13
 4552 0083 00       		.byte	0
 4553 0084 00       		.byte	0
 4554 0085 0C       		.uleb128 0xc
 4555 0086 13       		.uleb128 0x13
 4556 0087 01       		.byte	0x1
 4557 0088 03       		.uleb128 0x3
 4558 0089 0E       		.uleb128 0xe
 4559 008a 0B       		.uleb128 0xb
 4560 008b 0B       		.uleb128 0xb
 4561 008c 3A       		.uleb128 0x3a
 4562 008d 0B       		.uleb128 0xb
 4563 008e 3B       		.uleb128 0x3b
 4564 008f 05       		.uleb128 0x5
 4565 0090 01       		.uleb128 0x1
 4566 0091 13       		.uleb128 0x13
 4567 0092 00       		.byte	0
 4568 0093 00       		.byte	0
 4569 0094 0D       		.uleb128 0xd
 4570 0095 0D       		.uleb128 0xd
ARM GAS  /tmp/cceJrrFk.s 			page 82


 4571 0096 00       		.byte	0
 4572 0097 03       		.uleb128 0x3
 4573 0098 08       		.uleb128 0x8
 4574 0099 3A       		.uleb128 0x3a
 4575 009a 0B       		.uleb128 0xb
 4576 009b 3B       		.uleb128 0x3b
 4577 009c 05       		.uleb128 0x5
 4578 009d 49       		.uleb128 0x49
 4579 009e 13       		.uleb128 0x13
 4580 009f 38       		.uleb128 0x38
 4581 00a0 0B       		.uleb128 0xb
 4582 00a1 00       		.byte	0
 4583 00a2 00       		.byte	0
 4584 00a3 0E       		.uleb128 0xe
 4585 00a4 35       		.uleb128 0x35
 4586 00a5 00       		.byte	0
 4587 00a6 49       		.uleb128 0x49
 4588 00a7 13       		.uleb128 0x13
 4589 00a8 00       		.byte	0
 4590 00a9 00       		.byte	0
 4591 00aa 0F       		.uleb128 0xf
 4592 00ab 17       		.uleb128 0x17
 4593 00ac 01       		.byte	0x1
 4594 00ad 0B       		.uleb128 0xb
 4595 00ae 0B       		.uleb128 0xb
 4596 00af 3A       		.uleb128 0x3a
 4597 00b0 0B       		.uleb128 0xb
 4598 00b1 3B       		.uleb128 0x3b
 4599 00b2 0B       		.uleb128 0xb
 4600 00b3 01       		.uleb128 0x1
 4601 00b4 13       		.uleb128 0x13
 4602 00b5 00       		.byte	0
 4603 00b6 00       		.byte	0
 4604 00b7 10       		.uleb128 0x10
 4605 00b8 0D       		.uleb128 0xd
 4606 00b9 00       		.byte	0
 4607 00ba 03       		.uleb128 0x3
 4608 00bb 0E       		.uleb128 0xe
 4609 00bc 3A       		.uleb128 0x3a
 4610 00bd 0B       		.uleb128 0xb
 4611 00be 3B       		.uleb128 0x3b
 4612 00bf 0B       		.uleb128 0xb
 4613 00c0 49       		.uleb128 0x49
 4614 00c1 13       		.uleb128 0x13
 4615 00c2 00       		.byte	0
 4616 00c3 00       		.byte	0
 4617 00c4 11       		.uleb128 0x11
 4618 00c5 15       		.uleb128 0x15
 4619 00c6 01       		.byte	0x1
 4620 00c7 27       		.uleb128 0x27
 4621 00c8 19       		.uleb128 0x19
 4622 00c9 01       		.uleb128 0x1
 4623 00ca 13       		.uleb128 0x13
 4624 00cb 00       		.byte	0
 4625 00cc 00       		.byte	0
 4626 00cd 12       		.uleb128 0x12
 4627 00ce 05       		.uleb128 0x5
ARM GAS  /tmp/cceJrrFk.s 			page 83


 4628 00cf 00       		.byte	0
 4629 00d0 49       		.uleb128 0x49
 4630 00d1 13       		.uleb128 0x13
 4631 00d2 00       		.byte	0
 4632 00d3 00       		.byte	0
 4633 00d4 13       		.uleb128 0x13
 4634 00d5 0D       		.uleb128 0xd
 4635 00d6 00       		.byte	0
 4636 00d7 03       		.uleb128 0x3
 4637 00d8 0E       		.uleb128 0xe
 4638 00d9 3A       		.uleb128 0x3a
 4639 00da 0B       		.uleb128 0xb
 4640 00db 3B       		.uleb128 0x3b
 4641 00dc 05       		.uleb128 0x5
 4642 00dd 49       		.uleb128 0x49
 4643 00de 13       		.uleb128 0x13
 4644 00df 38       		.uleb128 0x38
 4645 00e0 0B       		.uleb128 0xb
 4646 00e1 00       		.byte	0
 4647 00e2 00       		.byte	0
 4648 00e3 14       		.uleb128 0x14
 4649 00e4 04       		.uleb128 0x4
 4650 00e5 01       		.byte	0x1
 4651 00e6 0B       		.uleb128 0xb
 4652 00e7 0B       		.uleb128 0xb
 4653 00e8 3A       		.uleb128 0x3a
 4654 00e9 0B       		.uleb128 0xb
 4655 00ea 3B       		.uleb128 0x3b
 4656 00eb 0B       		.uleb128 0xb
 4657 00ec 01       		.uleb128 0x1
 4658 00ed 13       		.uleb128 0x13
 4659 00ee 00       		.byte	0
 4660 00ef 00       		.byte	0
 4661 00f0 15       		.uleb128 0x15
 4662 00f1 28       		.uleb128 0x28
 4663 00f2 00       		.byte	0
 4664 00f3 03       		.uleb128 0x3
 4665 00f4 0E       		.uleb128 0xe
 4666 00f5 1C       		.uleb128 0x1c
 4667 00f6 0D       		.uleb128 0xd
 4668 00f7 00       		.byte	0
 4669 00f8 00       		.byte	0
 4670 00f9 16       		.uleb128 0x16
 4671 00fa 04       		.uleb128 0x4
 4672 00fb 01       		.byte	0x1
 4673 00fc 0B       		.uleb128 0xb
 4674 00fd 0B       		.uleb128 0xb
 4675 00fe 3A       		.uleb128 0x3a
 4676 00ff 0B       		.uleb128 0xb
 4677 0100 3B       		.uleb128 0x3b
 4678 0101 05       		.uleb128 0x5
 4679 0102 01       		.uleb128 0x1
 4680 0103 13       		.uleb128 0x13
 4681 0104 00       		.byte	0
 4682 0105 00       		.byte	0
 4683 0106 17       		.uleb128 0x17
 4684 0107 16       		.uleb128 0x16
ARM GAS  /tmp/cceJrrFk.s 			page 84


 4685 0108 00       		.byte	0
 4686 0109 03       		.uleb128 0x3
 4687 010a 0E       		.uleb128 0xe
 4688 010b 3A       		.uleb128 0x3a
 4689 010c 0B       		.uleb128 0xb
 4690 010d 3B       		.uleb128 0x3b
 4691 010e 05       		.uleb128 0x5
 4692 010f 49       		.uleb128 0x49
 4693 0110 13       		.uleb128 0x13
 4694 0111 00       		.byte	0
 4695 0112 00       		.byte	0
 4696 0113 18       		.uleb128 0x18
 4697 0114 13       		.uleb128 0x13
 4698 0115 01       		.byte	0x1
 4699 0116 0B       		.uleb128 0xb
 4700 0117 0B       		.uleb128 0xb
 4701 0118 3A       		.uleb128 0x3a
 4702 0119 0B       		.uleb128 0xb
 4703 011a 3B       		.uleb128 0x3b
 4704 011b 05       		.uleb128 0x5
 4705 011c 01       		.uleb128 0x1
 4706 011d 13       		.uleb128 0x13
 4707 011e 00       		.byte	0
 4708 011f 00       		.byte	0
 4709 0120 19       		.uleb128 0x19
 4710 0121 15       		.uleb128 0x15
 4711 0122 01       		.byte	0x1
 4712 0123 27       		.uleb128 0x27
 4713 0124 19       		.uleb128 0x19
 4714 0125 49       		.uleb128 0x49
 4715 0126 13       		.uleb128 0x13
 4716 0127 01       		.uleb128 0x1
 4717 0128 13       		.uleb128 0x13
 4718 0129 00       		.byte	0
 4719 012a 00       		.byte	0
 4720 012b 1A       		.uleb128 0x1a
 4721 012c 01       		.uleb128 0x1
 4722 012d 01       		.byte	0x1
 4723 012e 49       		.uleb128 0x49
 4724 012f 13       		.uleb128 0x13
 4725 0130 01       		.uleb128 0x1
 4726 0131 13       		.uleb128 0x13
 4727 0132 00       		.byte	0
 4728 0133 00       		.byte	0
 4729 0134 1B       		.uleb128 0x1b
 4730 0135 21       		.uleb128 0x21
 4731 0136 00       		.byte	0
 4732 0137 49       		.uleb128 0x49
 4733 0138 13       		.uleb128 0x13
 4734 0139 2F       		.uleb128 0x2f
 4735 013a 0B       		.uleb128 0xb
 4736 013b 00       		.byte	0
 4737 013c 00       		.byte	0
 4738 013d 1C       		.uleb128 0x1c
 4739 013e 2E       		.uleb128 0x2e
 4740 013f 01       		.byte	0x1
 4741 0140 03       		.uleb128 0x3
ARM GAS  /tmp/cceJrrFk.s 			page 85


 4742 0141 0E       		.uleb128 0xe
 4743 0142 3A       		.uleb128 0x3a
 4744 0143 0B       		.uleb128 0xb
 4745 0144 3B       		.uleb128 0x3b
 4746 0145 0B       		.uleb128 0xb
 4747 0146 27       		.uleb128 0x27
 4748 0147 19       		.uleb128 0x19
 4749 0148 11       		.uleb128 0x11
 4750 0149 01       		.uleb128 0x1
 4751 014a 12       		.uleb128 0x12
 4752 014b 06       		.uleb128 0x6
 4753 014c 40       		.uleb128 0x40
 4754 014d 18       		.uleb128 0x18
 4755 014e 9642     		.uleb128 0x2116
 4756 0150 19       		.uleb128 0x19
 4757 0151 01       		.uleb128 0x1
 4758 0152 13       		.uleb128 0x13
 4759 0153 00       		.byte	0
 4760 0154 00       		.byte	0
 4761 0155 1D       		.uleb128 0x1d
 4762 0156 05       		.uleb128 0x5
 4763 0157 00       		.byte	0
 4764 0158 03       		.uleb128 0x3
 4765 0159 0E       		.uleb128 0xe
 4766 015a 3A       		.uleb128 0x3a
 4767 015b 0B       		.uleb128 0xb
 4768 015c 3B       		.uleb128 0x3b
 4769 015d 0B       		.uleb128 0xb
 4770 015e 49       		.uleb128 0x49
 4771 015f 13       		.uleb128 0x13
 4772 0160 02       		.uleb128 0x2
 4773 0161 18       		.uleb128 0x18
 4774 0162 00       		.byte	0
 4775 0163 00       		.byte	0
 4776 0164 1E       		.uleb128 0x1e
 4777 0165 2E       		.uleb128 0x2e
 4778 0166 01       		.byte	0x1
 4779 0167 03       		.uleb128 0x3
 4780 0168 0E       		.uleb128 0xe
 4781 0169 3A       		.uleb128 0x3a
 4782 016a 0B       		.uleb128 0xb
 4783 016b 3B       		.uleb128 0x3b
 4784 016c 0B       		.uleb128 0xb
 4785 016d 27       		.uleb128 0x27
 4786 016e 19       		.uleb128 0x19
 4787 016f 49       		.uleb128 0x49
 4788 0170 13       		.uleb128 0x13
 4789 0171 11       		.uleb128 0x11
 4790 0172 01       		.uleb128 0x1
 4791 0173 12       		.uleb128 0x12
 4792 0174 06       		.uleb128 0x6
 4793 0175 40       		.uleb128 0x40
 4794 0176 18       		.uleb128 0x18
 4795 0177 9642     		.uleb128 0x2116
 4796 0179 19       		.uleb128 0x19
 4797 017a 01       		.uleb128 0x1
 4798 017b 13       		.uleb128 0x13
ARM GAS  /tmp/cceJrrFk.s 			page 86


 4799 017c 00       		.byte	0
 4800 017d 00       		.byte	0
 4801 017e 1F       		.uleb128 0x1f
 4802 017f 34       		.uleb128 0x34
 4803 0180 00       		.byte	0
 4804 0181 03       		.uleb128 0x3
 4805 0182 08       		.uleb128 0x8
 4806 0183 3A       		.uleb128 0x3a
 4807 0184 0B       		.uleb128 0xb
 4808 0185 3B       		.uleb128 0x3b
 4809 0186 0B       		.uleb128 0xb
 4810 0187 49       		.uleb128 0x49
 4811 0188 13       		.uleb128 0x13
 4812 0189 02       		.uleb128 0x2
 4813 018a 18       		.uleb128 0x18
 4814 018b 00       		.byte	0
 4815 018c 00       		.byte	0
 4816 018d 20       		.uleb128 0x20
 4817 018e 2E       		.uleb128 0x2e
 4818 018f 00       		.byte	0
 4819 0190 3F       		.uleb128 0x3f
 4820 0191 19       		.uleb128 0x19
 4821 0192 03       		.uleb128 0x3
 4822 0193 0E       		.uleb128 0xe
 4823 0194 3A       		.uleb128 0x3a
 4824 0195 0B       		.uleb128 0xb
 4825 0196 3B       		.uleb128 0x3b
 4826 0197 0B       		.uleb128 0xb
 4827 0198 27       		.uleb128 0x27
 4828 0199 19       		.uleb128 0x19
 4829 019a 11       		.uleb128 0x11
 4830 019b 01       		.uleb128 0x1
 4831 019c 12       		.uleb128 0x12
 4832 019d 06       		.uleb128 0x6
 4833 019e 40       		.uleb128 0x40
 4834 019f 18       		.uleb128 0x18
 4835 01a0 9642     		.uleb128 0x2116
 4836 01a2 19       		.uleb128 0x19
 4837 01a3 00       		.byte	0
 4838 01a4 00       		.byte	0
 4839 01a5 21       		.uleb128 0x21
 4840 01a6 2E       		.uleb128 0x2e
 4841 01a7 01       		.byte	0x1
 4842 01a8 3F       		.uleb128 0x3f
 4843 01a9 19       		.uleb128 0x19
 4844 01aa 03       		.uleb128 0x3
 4845 01ab 0E       		.uleb128 0xe
 4846 01ac 3A       		.uleb128 0x3a
 4847 01ad 0B       		.uleb128 0xb
 4848 01ae 3B       		.uleb128 0x3b
 4849 01af 0B       		.uleb128 0xb
 4850 01b0 27       		.uleb128 0x27
 4851 01b1 19       		.uleb128 0x19
 4852 01b2 11       		.uleb128 0x11
 4853 01b3 01       		.uleb128 0x1
 4854 01b4 12       		.uleb128 0x12
 4855 01b5 06       		.uleb128 0x6
ARM GAS  /tmp/cceJrrFk.s 			page 87


 4856 01b6 40       		.uleb128 0x40
 4857 01b7 18       		.uleb128 0x18
 4858 01b8 9742     		.uleb128 0x2117
 4859 01ba 19       		.uleb128 0x19
 4860 01bb 01       		.uleb128 0x1
 4861 01bc 13       		.uleb128 0x13
 4862 01bd 00       		.byte	0
 4863 01be 00       		.byte	0
 4864 01bf 22       		.uleb128 0x22
 4865 01c0 2E       		.uleb128 0x2e
 4866 01c1 01       		.byte	0x1
 4867 01c2 3F       		.uleb128 0x3f
 4868 01c3 19       		.uleb128 0x19
 4869 01c4 03       		.uleb128 0x3
 4870 01c5 0E       		.uleb128 0xe
 4871 01c6 3A       		.uleb128 0x3a
 4872 01c7 0B       		.uleb128 0xb
 4873 01c8 3B       		.uleb128 0x3b
 4874 01c9 05       		.uleb128 0x5
 4875 01ca 27       		.uleb128 0x27
 4876 01cb 19       		.uleb128 0x19
 4877 01cc 11       		.uleb128 0x11
 4878 01cd 01       		.uleb128 0x1
 4879 01ce 12       		.uleb128 0x12
 4880 01cf 06       		.uleb128 0x6
 4881 01d0 40       		.uleb128 0x40
 4882 01d1 18       		.uleb128 0x18
 4883 01d2 9642     		.uleb128 0x2116
 4884 01d4 19       		.uleb128 0x19
 4885 01d5 01       		.uleb128 0x1
 4886 01d6 13       		.uleb128 0x13
 4887 01d7 00       		.byte	0
 4888 01d8 00       		.byte	0
 4889 01d9 23       		.uleb128 0x23
 4890 01da 05       		.uleb128 0x5
 4891 01db 00       		.byte	0
 4892 01dc 03       		.uleb128 0x3
 4893 01dd 0E       		.uleb128 0xe
 4894 01de 3A       		.uleb128 0x3a
 4895 01df 0B       		.uleb128 0xb
 4896 01e0 3B       		.uleb128 0x3b
 4897 01e1 05       		.uleb128 0x5
 4898 01e2 49       		.uleb128 0x49
 4899 01e3 13       		.uleb128 0x13
 4900 01e4 02       		.uleb128 0x2
 4901 01e5 18       		.uleb128 0x18
 4902 01e6 00       		.byte	0
 4903 01e7 00       		.byte	0
 4904 01e8 24       		.uleb128 0x24
 4905 01e9 34       		.uleb128 0x34
 4906 01ea 00       		.byte	0
 4907 01eb 03       		.uleb128 0x3
 4908 01ec 08       		.uleb128 0x8
 4909 01ed 3A       		.uleb128 0x3a
 4910 01ee 0B       		.uleb128 0xb
 4911 01ef 3B       		.uleb128 0x3b
 4912 01f0 05       		.uleb128 0x5
ARM GAS  /tmp/cceJrrFk.s 			page 88


 4913 01f1 49       		.uleb128 0x49
 4914 01f2 13       		.uleb128 0x13
 4915 01f3 02       		.uleb128 0x2
 4916 01f4 18       		.uleb128 0x18
 4917 01f5 00       		.byte	0
 4918 01f6 00       		.byte	0
 4919 01f7 25       		.uleb128 0x25
 4920 01f8 0B       		.uleb128 0xb
 4921 01f9 01       		.byte	0x1
 4922 01fa 11       		.uleb128 0x11
 4923 01fb 01       		.uleb128 0x1
 4924 01fc 12       		.uleb128 0x12
 4925 01fd 06       		.uleb128 0x6
 4926 01fe 01       		.uleb128 0x1
 4927 01ff 13       		.uleb128 0x13
 4928 0200 00       		.byte	0
 4929 0201 00       		.byte	0
 4930 0202 26       		.uleb128 0x26
 4931 0203 0B       		.uleb128 0xb
 4932 0204 01       		.byte	0x1
 4933 0205 11       		.uleb128 0x11
 4934 0206 01       		.uleb128 0x1
 4935 0207 12       		.uleb128 0x12
 4936 0208 06       		.uleb128 0x6
 4937 0209 00       		.byte	0
 4938 020a 00       		.byte	0
 4939 020b 27       		.uleb128 0x27
 4940 020c 05       		.uleb128 0x5
 4941 020d 00       		.byte	0
 4942 020e 03       		.uleb128 0x3
 4943 020f 08       		.uleb128 0x8
 4944 0210 3A       		.uleb128 0x3a
 4945 0211 0B       		.uleb128 0xb
 4946 0212 3B       		.uleb128 0x3b
 4947 0213 05       		.uleb128 0x5
 4948 0214 49       		.uleb128 0x49
 4949 0215 13       		.uleb128 0x13
 4950 0216 02       		.uleb128 0x2
 4951 0217 18       		.uleb128 0x18
 4952 0218 00       		.byte	0
 4953 0219 00       		.byte	0
 4954 021a 28       		.uleb128 0x28
 4955 021b 2E       		.uleb128 0x2e
 4956 021c 01       		.byte	0x1
 4957 021d 3F       		.uleb128 0x3f
 4958 021e 19       		.uleb128 0x19
 4959 021f 03       		.uleb128 0x3
 4960 0220 0E       		.uleb128 0xe
 4961 0221 3A       		.uleb128 0x3a
 4962 0222 0B       		.uleb128 0xb
 4963 0223 3B       		.uleb128 0x3b
 4964 0224 05       		.uleb128 0x5
 4965 0225 27       		.uleb128 0x27
 4966 0226 19       		.uleb128 0x19
 4967 0227 49       		.uleb128 0x49
 4968 0228 13       		.uleb128 0x13
 4969 0229 11       		.uleb128 0x11
ARM GAS  /tmp/cceJrrFk.s 			page 89


 4970 022a 01       		.uleb128 0x1
 4971 022b 12       		.uleb128 0x12
 4972 022c 06       		.uleb128 0x6
 4973 022d 40       		.uleb128 0x40
 4974 022e 18       		.uleb128 0x18
 4975 022f 9642     		.uleb128 0x2116
 4976 0231 19       		.uleb128 0x19
 4977 0232 01       		.uleb128 0x1
 4978 0233 13       		.uleb128 0x13
 4979 0234 00       		.byte	0
 4980 0235 00       		.byte	0
 4981 0236 29       		.uleb128 0x29
 4982 0237 34       		.uleb128 0x34
 4983 0238 00       		.byte	0
 4984 0239 03       		.uleb128 0x3
 4985 023a 0E       		.uleb128 0xe
 4986 023b 3A       		.uleb128 0x3a
 4987 023c 0B       		.uleb128 0xb
 4988 023d 3B       		.uleb128 0x3b
 4989 023e 0B       		.uleb128 0xb
 4990 023f 49       		.uleb128 0x49
 4991 0240 13       		.uleb128 0x13
 4992 0241 02       		.uleb128 0x2
 4993 0242 18       		.uleb128 0x18
 4994 0243 00       		.byte	0
 4995 0244 00       		.byte	0
 4996 0245 2A       		.uleb128 0x2a
 4997 0246 34       		.uleb128 0x34
 4998 0247 00       		.byte	0
 4999 0248 03       		.uleb128 0x3
 5000 0249 0E       		.uleb128 0xe
 5001 024a 3A       		.uleb128 0x3a
 5002 024b 0B       		.uleb128 0xb
 5003 024c 3B       		.uleb128 0x3b
 5004 024d 05       		.uleb128 0x5
 5005 024e 49       		.uleb128 0x49
 5006 024f 13       		.uleb128 0x13
 5007 0250 3F       		.uleb128 0x3f
 5008 0251 19       		.uleb128 0x19
 5009 0252 3C       		.uleb128 0x3c
 5010 0253 19       		.uleb128 0x19
 5011 0254 00       		.byte	0
 5012 0255 00       		.byte	0
 5013 0256 00       		.byte	0
 5014              		.section	.debug_aranges,"",%progbits
 5015 0000 1C000000 		.4byte	0x1c
 5016 0004 0200     		.2byte	0x2
 5017 0006 00000000 		.4byte	.Ldebug_info0
 5018 000a 04       		.byte	0x4
 5019 000b 00       		.byte	0
 5020 000c 0000     		.2byte	0
 5021 000e 0000     		.2byte	0
 5022 0010 00000000 		.4byte	.Ltext0
 5023 0014 940C0000 		.4byte	.Letext0-.Ltext0
 5024 0018 00000000 		.4byte	0
 5025 001c 00000000 		.4byte	0
 5026              		.section	.debug_line,"",%progbits
ARM GAS  /tmp/cceJrrFk.s 			page 90


 5027              	.Ldebug_line0:
 5028 0000 22050000 		.section	.debug_str,"MS",%progbits,1
 5028      0200C402 
 5028      00000201 
 5028      FB0E0D00 
 5028      01010101 
 5029              	.LASF139:
 5030 0000 7278636E 		.ascii	"rxcnt\000"
 5030      7400
 5031              	.LASF93:
 5032 0006 75736265 		.ascii	"usbep_t\000"
 5032      705F7400 
 5033              	.LASF2:
 5034 000e 73697A65 		.ascii	"size_t\000"
 5034      5F7400
 5035              	.LASF61:
 5036 0015 7264796D 		.ascii	"rdymsg\000"
 5036      736700
 5037              	.LASF102:
 5038 001c 45505F53 		.ascii	"EP_STATUS_ACTIVE\000"
 5038      54415455 
 5038      535F4143 
 5038      54495645 
 5038      00
 5039              	.LASF21:
 5040 002d 75696E74 		.ascii	"uint64_t\000"
 5040      36345F74 
 5040      00
 5041              	.LASF104:
 5042 0036 5553425F 		.ascii	"USB_EP0_TX\000"
 5042      4550305F 
 5042      545800
 5043              	.LASF3:
 5044 0041 5F5F7569 		.ascii	"__uint8_t\000"
 5044      6E74385F 
 5044      7400
 5045              	.LASF117:
 5046 004b 75736265 		.ascii	"usbevent_t\000"
 5046      76656E74 
 5046      5F7400
 5047              	.LASF147:
 5048 0056 6F75745F 		.ascii	"out_maxsize\000"
 5048      6D617873 
 5048      697A6500 
 5049              	.LASF135:
 5050 0062 72786275 		.ascii	"rxbuf\000"
 5050      6600
 5051              	.LASF14:
 5052 0068 6C6F6E67 		.ascii	"long long unsigned int\000"
 5052      206C6F6E 
 5052      6720756E 
 5052      7369676E 
 5052      65642069 
 5053              	.LASF62:
 5054 007f 65786974 		.ascii	"exitcode\000"
 5054      636F6465 
 5054      00
ARM GAS  /tmp/cceJrrFk.s 			page 91


 5055              	.LASF94:
 5056 0088 5553425F 		.ascii	"USB_UNINIT\000"
 5056      554E494E 
 5056      495400
 5057              	.LASF34:
 5058 0093 705F7072 		.ascii	"p_prio\000"
 5058      696F00
 5059              	.LASF120:
 5060 009a 55534244 		.ascii	"USBDescriptor\000"
 5060      65736372 
 5060      6970746F 
 5060      7200
 5061              	.LASF171:
 5062 00a8 75736253 		.ascii	"usbStallReceiveI\000"
 5062      74616C6C 
 5062      52656365 
 5062      69766549 
 5062      00
 5063              	.LASF66:
 5064 00b9 715F7761 		.ascii	"q_waiting\000"
 5064      6974696E 
 5064      6700
 5065              	.LASF12:
 5066 00c3 6C6F6E67 		.ascii	"long long int\000"
 5066      206C6F6E 
 5066      6720696E 
 5066      7400
 5067              	.LASF1:
 5068 00d1 7369676E 		.ascii	"signed char\000"
 5068      65642063 
 5068      68617200 
 5069              	.LASF121:
 5070 00dd 75736263 		.ascii	"usbcallback_t\000"
 5070      616C6C62 
 5070      61636B5F 
 5070      7400
 5071              	.LASF128:
 5072 00eb 6C696E65 		.ascii	"linear\000"
 5072      617200
 5073              	.LASF131:
 5074 00f2 74787369 		.ascii	"txsize\000"
 5074      7A6500
 5075              	.LASF50:
 5076 00f9 705F6D70 		.ascii	"p_mpool\000"
 5076      6F6F6C00 
 5077              	.LASF22:
 5078 0101 626F6F6C 		.ascii	"bool_t\000"
 5078      5F7400
 5079              	.LASF58:
 5080 0108 6D5F7175 		.ascii	"m_queue\000"
 5080      65756500 
 5081              	.LASF105:
 5082 0110 5553425F 		.ascii	"USB_EP0_WAITING_TX0\000"
 5082      4550305F 
 5082      57414954 
 5082      494E475F 
 5082      54583000 
ARM GAS  /tmp/cceJrrFk.s 			page 92


 5083              	.LASF111:
 5084 0124 5553425F 		.ascii	"USB_EVENT_RESET\000"
 5084      4556454E 
 5084      545F5245 
 5084      53455400 
 5085              	.LASF109:
 5086 0134 5553425F 		.ascii	"USB_EP0_ERROR\000"
 5086      4550305F 
 5086      4552524F 
 5086      5200
 5087              	.LASF78:
 5088 0142 73746174 		.ascii	"state\000"
 5088      6500
 5089              	.LASF83:
 5090 0148 6F75745F 		.ascii	"out_params\000"
 5090      70617261 
 5090      6D7300
 5091              	.LASF9:
 5092 0153 6C6F6E67 		.ascii	"long int\000"
 5092      20696E74 
 5092      00
 5093              	.LASF130:
 5094 015c 74787175 		.ascii	"txqueued\000"
 5094      65756564 
 5094      00
 5095              	.LASF136:
 5096 0165 72787175 		.ascii	"rxqueue\000"
 5096      65756500 
 5097              	.LASF25:
 5098 016d 74737461 		.ascii	"tstate_t\000"
 5098      74655F74 
 5098      00
 5099              	.LASF100:
 5100 0176 45505F53 		.ascii	"EP_STATUS_DISABLED\000"
 5100      54415455 
 5100      535F4449 
 5100      5341424C 
 5100      454400
 5101              	.LASF145:
 5102 0189 6F75745F 		.ascii	"out_cb\000"
 5102      636200
 5103              	.LASF158:
 5104 0190 75736270 		.ascii	"usbp\000"
 5104      00
 5105              	.LASF123:
 5106 0195 75736265 		.ascii	"usbeventcb_t\000"
 5106      76656E74 
 5106      63625F74 
 5106      00
 5107              	.LASF68:
 5108 01a2 715F6275 		.ascii	"q_buffer\000"
 5108      66666572 
 5108      00
 5109              	.LASF115:
 5110 01ab 5553425F 		.ascii	"USB_EVENT_WAKEUP\000"
 5110      4556454E 
 5110      545F5741 
ARM GAS  /tmp/cceJrrFk.s 			page 93


 5110      4B455550 
 5110      00
 5111              	.LASF70:
 5112 01bc 715F7772 		.ascii	"q_wrptr\000"
 5112      70747200 
 5113              	.LASF43:
 5114 01c4 705F7469 		.ascii	"p_time\000"
 5114      6D6500
 5115              	.LASF179:
 5116 01cb 68616C74 		.ascii	"halted_status\000"
 5116      65645F73 
 5116      74617475 
 5116      7300
 5117              	.LASF36:
 5118 01d9 705F6E65 		.ascii	"p_newer\000"
 5118      77657200 
 5119              	.LASF65:
 5120 01e1 47656E65 		.ascii	"GenericQueue\000"
 5120      72696351 
 5120      75657565 
 5120      00
 5121              	.LASF110:
 5122 01ee 75736265 		.ascii	"usbep0state_t\000"
 5122      70307374 
 5122      6174655F 
 5122      7400
 5123              	.LASF177:
 5124 01fc 7A65726F 		.ascii	"zero_status\000"
 5124      5F737461 
 5124      74757300 
 5125              	.LASF182:
 5126 0208 7365745F 		.ascii	"set_address\000"
 5126      61646472 
 5126      65737300 
 5127              	.LASF167:
 5128 0214 75736250 		.ascii	"usbPrepareQueuedReceive\000"
 5128      72657061 
 5128      72655175 
 5128      65756564 
 5128      52656365 
 5129              	.LASF116:
 5130 022c 5553425F 		.ascii	"USB_EVENT_STALLED\000"
 5130      4556454E 
 5130      545F5354 
 5130      414C4C45 
 5130      4400
 5131              	.LASF53:
 5132 023e 72656761 		.ascii	"regarm_t\000"
 5132      726D5F74 
 5132      00
 5133              	.LASF75:
 5134 0247 496E7075 		.ascii	"InputQueue\000"
 5134      74517565 
 5134      756500
 5135              	.LASF150:
 5136 0252 65705F62 		.ascii	"ep_buffers\000"
 5136      75666665 
ARM GAS  /tmp/cceJrrFk.s 			page 94


 5136      727300
 5137              	.LASF160:
 5138 025d 75736253 		.ascii	"usbStart\000"
 5138      74617274 
 5138      00
 5139              	.LASF39:
 5140 0266 705F7374 		.ascii	"p_stklimit\000"
 5140      6B6C696D 
 5140      697400
 5141              	.LASF0:
 5142 0271 756E7369 		.ascii	"unsigned int\000"
 5142      676E6564 
 5142      20696E74 
 5142      00
 5143              	.LASF98:
 5144 027e 5553425F 		.ascii	"USB_ACTIVE\000"
 5144      41435449 
 5144      564500
 5145              	.LASF126:
 5146 0289 74786275 		.ascii	"txbuf\000"
 5146      6600
 5147              	.LASF118:
 5148 028f 75645F73 		.ascii	"ud_size\000"
 5148      697A6500 
 5149              	.LASF127:
 5150 0297 74787175 		.ascii	"txqueue\000"
 5150      65756500 
 5151              	.LASF45:
 5152 029f 705F6D73 		.ascii	"p_msgqueue\000"
 5152      67717565 
 5152      756500
 5153              	.LASF169:
 5154 02aa 75736253 		.ascii	"usbStartReceiveI\000"
 5154      74617274 
 5154      52656365 
 5154      69766549 
 5154      00
 5155              	.LASF161:
 5156 02bb 75736253 		.ascii	"usbStop\000"
 5156      746F7000 
 5157              	.LASF166:
 5158 02c3 75736250 		.ascii	"usbPrepareTransmit\000"
 5158      72657061 
 5158      72655472 
 5158      616E736D 
 5158      697400
 5159              	.LASF80:
 5160 02d6 7472616E 		.ascii	"transmitting\000"
 5160      736D6974 
 5160      74696E67 
 5160      00
 5161              	.LASF144:
 5162 02e3 696E5F63 		.ascii	"in_cb\000"
 5162      6200
 5163              	.LASF7:
 5164 02e9 73686F72 		.ascii	"short unsigned int\000"
 5164      7420756E 
ARM GAS  /tmp/cceJrrFk.s 			page 95


 5164      7369676E 
 5164      65642069 
 5164      6E7400
 5165              	.LASF153:
 5166 02fc 6576656E 		.ascii	"event_cb\000"
 5166      745F6362 
 5166      00
 5167              	.LASF91:
 5168 0305 636F6E66 		.ascii	"configuration\000"
 5168      69677572 
 5168      6174696F 
 5168      6E00
 5169              	.LASF28:
 5170 0313 6D73675F 		.ascii	"msg_t\000"
 5170      7400
 5171              	.LASF119:
 5172 0319 75645F73 		.ascii	"ud_string\000"
 5172      7472696E 
 5172      6700
 5173              	.LASF99:
 5174 0323 75736273 		.ascii	"usbstate_t\000"
 5174      74617465 
 5174      5F7400
 5175              	.LASF124:
 5176 032e 75736272 		.ascii	"usbreqhandler_t\000"
 5176      65716861 
 5176      6E646C65 
 5176      725F7400 
 5177              	.LASF24:
 5178 033e 746D6F64 		.ascii	"tmode_t\000"
 5178      655F7400 
 5179              	.LASF18:
 5180 0346 75696E74 		.ascii	"uint16_t\000"
 5180      31365F74 
 5180      00
 5181              	.LASF52:
 5182 034f 54687265 		.ascii	"ThreadsList\000"
 5182      6164734C 
 5182      69737400 
 5183              	.LASF174:
 5184 035b 5F757362 		.ascii	"_usb_ep0setup\000"
 5184      5F657030 
 5184      73657475 
 5184      7000
 5185              	.LASF29:
 5186 0369 6576656E 		.ascii	"eventmask_t\000"
 5186      746D6173 
 5186      6B5F7400 
 5187              	.LASF81:
 5188 0375 72656365 		.ascii	"receiving\000"
 5188      6976696E 
 5188      6700
 5189              	.LASF137:
 5190 037f 72787175 		.ascii	"rxqueued\000"
 5190      65756564 
 5190      00
 5191              	.LASF155:
ARM GAS  /tmp/cceJrrFk.s 			page 96


 5192 0388 72657175 		.ascii	"requests_hook_cb\000"
 5192      65737473 
 5192      5F686F6F 
 5192      6B5F6362 
 5192      00
 5193              	.LASF54:
 5194 0399 73746B61 		.ascii	"stkalign_t\000"
 5194      6C69676E 
 5194      5F7400
 5195              	.LASF165:
 5196 03a4 75736250 		.ascii	"usbPrepareReceive\000"
 5196      72657061 
 5196      72655265 
 5196      63656976 
 5196      6500
 5197              	.LASF92:
 5198 03b6 706D6E65 		.ascii	"pmnext\000"
 5198      787400
 5199              	.LASF108:
 5200 03bd 5553425F 		.ascii	"USB_EP0_SENDING_STS\000"
 5200      4550305F 
 5200      53454E44 
 5200      494E475F 
 5200      53545300 
 5201              	.LASF15:
 5202 03d1 73697A65 		.ascii	"sizetype\000"
 5202      74797065 
 5202      00
 5203              	.LASF173:
 5204 03da 5F757362 		.ascii	"_usb_reset\000"
 5204      5F726573 
 5204      657400
 5205              	.LASF67:
 5206 03e5 715F636F 		.ascii	"q_counter\000"
 5206      756E7465 
 5206      7200
 5207              	.LASF129:
 5208 03ef 71756575 		.ascii	"queue\000"
 5208      6500
 5209              	.LASF57:
 5210 03f5 4D757465 		.ascii	"Mutex\000"
 5210      7800
 5211              	.LASF90:
 5212 03fb 61646472 		.ascii	"address\000"
 5212      65737300 
 5213              	.LASF149:
 5214 0403 6F75745F 		.ascii	"out_state\000"
 5214      73746174 
 5214      6500
 5215              	.LASF159:
 5216 040d 7573624F 		.ascii	"usbObjectInit\000"
 5216      626A6563 
 5216      74496E69 
 5216      7400
 5217              	.LASF141:
 5218 041b 5553424F 		.ascii	"USBOutEndpointState\000"
 5218      7574456E 
ARM GAS  /tmp/cceJrrFk.s 			page 97


 5218      64706F69 
 5218      6E745374 
 5218      61746500 
 5219              	.LASF176:
 5220 042f 5F757362 		.ascii	"_usb_ep0out\000"
 5220      5F657030 
 5220      6F757400 
 5221              	.LASF51:
 5222 043b 54687265 		.ascii	"ThreadsQueue\000"
 5222      61647351 
 5222      75657565 
 5222      00
 5223              	.LASF125:
 5224 0448 75736267 		.ascii	"usbgetdescriptor_t\000"
 5224      65746465 
 5224      73637269 
 5224      70746F72 
 5224      5F7400
 5225              	.LASF88:
 5226 045b 73657475 		.ascii	"setup\000"
 5226      7000
 5227              	.LASF156:
 5228 0461 736F665F 		.ascii	"sof_cb\000"
 5228      636200
 5229              	.LASF152:
 5230 0468 55534245 		.ascii	"USBEndpointConfig\000"
 5230      6E64706F 
 5230      696E7443 
 5230      6F6E6669 
 5230      6700
 5231              	.LASF13:
 5232 047a 5F5F7569 		.ascii	"__uint64_t\000"
 5232      6E743634 
 5232      5F7400
 5233              	.LASF143:
 5234 0485 73657475 		.ascii	"setup_cb\000"
 5234      705F6362 
 5234      00
 5235              	.LASF146:
 5236 048e 696E5F6D 		.ascii	"in_maxsize\000"
 5236      61787369 
 5236      7A6500
 5237              	.LASF26:
 5238 0499 74726566 		.ascii	"trefs_t\000"
 5238      735F7400 
 5239              	.LASF112:
 5240 04a1 5553425F 		.ascii	"USB_EVENT_ADDRESS\000"
 5240      4556454E 
 5240      545F4144 
 5240      44524553 
 5240      5300
 5241              	.LASF74:
 5242 04b3 716E6F74 		.ascii	"qnotify_t\000"
 5242      6966795F 
 5242      7400
 5243              	.LASF33:
 5244 04bd 705F7072 		.ascii	"p_prev\000"
ARM GAS  /tmp/cceJrrFk.s 			page 98


 5244      657600
 5245              	.LASF27:
 5246 04c4 74707269 		.ascii	"tprio_t\000"
 5246      6F5F7400 
 5247              	.LASF71:
 5248 04cc 715F7264 		.ascii	"q_rdptr\000"
 5248      70747200 
 5249              	.LASF96:
 5250 04d4 5553425F 		.ascii	"USB_READY\000"
 5250      52454144 
 5250      5900
 5251              	.LASF86:
 5252 04de 6570306E 		.ascii	"ep0n\000"
 5252      00
 5253              	.LASF23:
 5254 04e3 5F426F6F 		.ascii	"_Bool\000"
 5254      6C00
 5255              	.LASF19:
 5256 04e9 696E7433 		.ascii	"int32_t\000"
 5256      325F7400 
 5257              	.LASF4:
 5258 04f1 756E7369 		.ascii	"unsigned char\000"
 5258      676E6564 
 5258      20636861 
 5258      7200
 5259              	.LASF185:
 5260 04ff 49544D5F 		.ascii	"ITM_RxBuffer\000"
 5260      52784275 
 5260      66666572 
 5260      00
 5261              	.LASF85:
 5262 050c 6570306E 		.ascii	"ep0next\000"
 5262      65787400 
 5263              	.LASF48:
 5264 0514 705F6D74 		.ascii	"p_mtxlist\000"
 5264      786C6973 
 5264      7400
 5265              	.LASF5:
 5266 051e 73686F72 		.ascii	"short int\000"
 5266      7420696E 
 5266      7400
 5267              	.LASF40:
 5268 0528 705F7374 		.ascii	"p_state\000"
 5268      61746500 
 5269              	.LASF37:
 5270 0530 705F6F6C 		.ascii	"p_older\000"
 5270      64657200 
 5271              	.LASF64:
 5272 0538 65776D61 		.ascii	"ewmask\000"
 5272      736B00
 5273              	.LASF32:
 5274 053f 705F6E65 		.ascii	"p_next\000"
 5274      787400
 5275              	.LASF41:
 5276 0546 705F666C 		.ascii	"p_flags\000"
 5276      61677300 
 5277              	.LASF97:
ARM GAS  /tmp/cceJrrFk.s 			page 99


 5278 054e 5553425F 		.ascii	"USB_SELECTED\000"
 5278      53454C45 
 5278      43544544 
 5278      00
 5279              	.LASF151:
 5280 055b 73657475 		.ascii	"setup_buf\000"
 5280      705F6275 
 5280      6600
 5281              	.LASF31:
 5282 0565 54687265 		.ascii	"Thread\000"
 5282      616400
 5283              	.LASF76:
 5284 056c 4F757470 		.ascii	"OutputQueue\000"
 5284      75745175 
 5284      65756500 
 5285              	.LASF47:
 5286 0578 705F6570 		.ascii	"p_epending\000"
 5286      656E6469 
 5286      6E6700
 5287              	.LASF154:
 5288 0583 6765745F 		.ascii	"get_descriptor_cb\000"
 5288      64657363 
 5288      72697074 
 5288      6F725F63 
 5288      6200
 5289              	.LASF114:
 5290 0595 5553425F 		.ascii	"USB_EVENT_SUSPEND\000"
 5290      4556454E 
 5290      545F5355 
 5290      5350454E 
 5290      4400
 5291              	.LASF84:
 5292 05a7 65703073 		.ascii	"ep0state\000"
 5292      74617465 
 5292      00
 5293              	.LASF157:
 5294 05b0 55534243 		.ascii	"USBConfig\000"
 5294      6F6E6669 
 5294      6700
 5295              	.LASF168:
 5296 05ba 75736250 		.ascii	"usbPrepareQueuedTransmit\000"
 5296      72657061 
 5296      72655175 
 5296      65756564 
 5296      5472616E 
 5297              	.LASF140:
 5298 05d3 7278706B 		.ascii	"rxpkts\000"
 5298      747300
 5299              	.LASF175:
 5300 05da 5F757362 		.ascii	"_usb_ep0in\000"
 5300      5F657030 
 5300      696E00
 5301              	.LASF180:
 5302 05e5 474E5520 		.ascii	"GNU C 4.9.3 20141119 (release) [ARM/embedded-4_9-br"
 5302      4320342E 
 5302      392E3320 
 5302      32303134 
ARM GAS  /tmp/cceJrrFk.s 			page 100


 5302      31313139 
 5303 0618 616E6368 		.ascii	"anch revision 218278] -mcpu=cortex-m4 -mno-thumb-in"
 5303      20726576 
 5303      6973696F 
 5303      6E203231 
 5303      38323738 
 5304 064b 74657277 		.ascii	"terwork -mthumb -ggdb -O0 -fomit-frame-pointer\000"
 5304      6F726B20 
 5304      2D6D7468 
 5304      756D6220 
 5304      2D676764 
 5305              	.LASF11:
 5306 067a 6C6F6E67 		.ascii	"long unsigned int\000"
 5306      20756E73 
 5306      69676E65 
 5306      6420696E 
 5306      7400
 5307              	.LASF148:
 5308 068c 696E5F73 		.ascii	"in_state\000"
 5308      74617465 
 5308      00
 5309              	.LASF16:
 5310 0695 63686172 		.ascii	"char\000"
 5310      00
 5311              	.LASF122:
 5312 069a 75736265 		.ascii	"usbepcallback_t\000"
 5312      7063616C 
 5312      6C626163 
 5312      6B5F7400 
 5313              	.LASF133:
 5314 06aa 6D6F6465 		.ascii	"mode\000"
 5314      00
 5315              	.LASF184:
 5316 06af 75736249 		.ascii	"usbInit\000"
 5316      6E697400 
 5317              	.LASF79:
 5318 06b7 636F6E66 		.ascii	"config\000"
 5318      696700
 5319              	.LASF6:
 5320 06be 5F5F7569 		.ascii	"__uint16_t\000"
 5320      6E743136 
 5320      5F7400
 5321              	.LASF107:
 5322 06c9 5553425F 		.ascii	"USB_EP0_RX\000"
 5322      4550305F 
 5322      525800
 5323              	.LASF95:
 5324 06d4 5553425F 		.ascii	"USB_STOP\000"
 5324      53544F50 
 5324      00
 5325              	.LASF60:
 5326 06dd 6D5F6E65 		.ascii	"m_next\000"
 5326      787400
 5327              	.LASF30:
 5328 06e4 73797374 		.ascii	"systime_t\000"
 5328      696D655F 
 5328      7400
ARM GAS  /tmp/cceJrrFk.s 			page 101


 5329              	.LASF49:
 5330 06ee 705F7265 		.ascii	"p_realprio\000"
 5330      616C7072 
 5330      696F00
 5331              	.LASF8:
 5332 06f9 5F5F696E 		.ascii	"__int32_t\000"
 5332      7433325F 
 5332      7400
 5333              	.LASF10:
 5334 0703 5F5F7569 		.ascii	"__uint32_t\000"
 5334      6E743332 
 5334      5F7400
 5335              	.LASF113:
 5336 070e 5553425F 		.ascii	"USB_EVENT_CONFIGURED\000"
 5336      4556454E 
 5336      545F434F 
 5336      4E464947 
 5336      55524544 
 5337              	.LASF87:
 5338 0723 65703065 		.ascii	"ep0endcb\000"
 5338      6E646362 
 5338      00
 5339              	.LASF178:
 5340 072c 61637469 		.ascii	"active_status\000"
 5340      76655F73 
 5340      74617475 
 5340      7300
 5341              	.LASF103:
 5342 073a 5553425F 		.ascii	"USB_EP0_WAITING_SETUP\000"
 5342      4550305F 
 5342      57414954 
 5342      494E475F 
 5342      53455455 
 5343              	.LASF56:
 5344 0750 636F6E74 		.ascii	"context\000"
 5344      65787400 
 5345              	.LASF172:
 5346 0758 75736253 		.ascii	"usbStallTransmitI\000"
 5346      74616C6C 
 5346      5472616E 
 5346      736D6974 
 5346      4900
 5347              	.LASF55:
 5348 076a 696E7463 		.ascii	"intctx\000"
 5348      747800
 5349              	.LASF142:
 5350 0771 65705F6D 		.ascii	"ep_mode\000"
 5350      6F646500 
 5351              	.LASF170:
 5352 0779 75736253 		.ascii	"usbStartTransmitI\000"
 5352      74617274 
 5352      5472616E 
 5352      736D6974 
 5352      4900
 5353              	.LASF132:
 5354 078b 7478636E 		.ascii	"txcnt\000"
 5354      7400
ARM GAS  /tmp/cceJrrFk.s 			page 102


 5355              	.LASF20:
 5356 0791 75696E74 		.ascii	"uint32_t\000"
 5356      33325F74 
 5356      00
 5357              	.LASF69:
 5358 079a 715F746F 		.ascii	"q_top\000"
 5358      7000
 5359              	.LASF42:
 5360 07a0 705F7265 		.ascii	"p_refs\000"
 5360      667300
 5361              	.LASF89:
 5362 07a7 73746174 		.ascii	"status\000"
 5362      757300
 5363              	.LASF163:
 5364 07ae 65706370 		.ascii	"epcp\000"
 5364      00
 5365              	.LASF72:
 5366 07b3 715F6E6F 		.ascii	"q_notify\000"
 5366      74696679 
 5366      00
 5367              	.LASF134:
 5368 07bc 55534249 		.ascii	"USBInEndpointState\000"
 5368      6E456E64 
 5368      706F696E 
 5368      74537461 
 5368      746500
 5369              	.LASF106:
 5370 07cf 5553425F 		.ascii	"USB_EP0_WAITING_STS\000"
 5370      4550305F 
 5370      57414954 
 5370      494E475F 
 5370      53545300 
 5371              	.LASF77:
 5372 07e3 55534244 		.ascii	"USBDriver\000"
 5372      72697665 
 5372      7200
 5373              	.LASF17:
 5374 07ed 75696E74 		.ascii	"uint8_t\000"
 5374      385F7400 
 5375              	.LASF162:
 5376 07f5 75736249 		.ascii	"usbInitEndpointI\000"
 5376      6E697445 
 5376      6E64706F 
 5376      696E7449 
 5376      00
 5377              	.LASF101:
 5378 0806 45505F53 		.ascii	"EP_STATUS_STALLED\000"
 5378      54415455 
 5378      535F5354 
 5378      414C4C45 
 5378      4400
 5379              	.LASF138:
 5380 0818 72787369 		.ascii	"rxsize\000"
 5380      7A6500
 5381              	.LASF183:
 5382 081f 64656661 		.ascii	"default_handler\000"
 5382      756C745F 
ARM GAS  /tmp/cceJrrFk.s 			page 103


 5382      68616E64 
 5382      6C657200 
 5383              	.LASF82:
 5384 082f 696E5F70 		.ascii	"in_params\000"
 5384      6172616D 
 5384      7300
 5385              	.LASF63:
 5386 0839 77746F62 		.ascii	"wtobjp\000"
 5386      6A7000
 5387              	.LASF38:
 5388 0840 705F6E61 		.ascii	"p_name\000"
 5388      6D6500
 5389              	.LASF181:
 5390 0847 2F6F7074 		.ascii	"/opt/R2P/core/ChibiOS_2.6.5/os/hal/src/usb.c\000"
 5390      2F523250 
 5390      2F636F72 
 5390      652F4368 
 5390      6962694F 
 5391              	.LASF164:
 5392 0874 75736244 		.ascii	"usbDisableEndpointsI\000"
 5392      69736162 
 5392      6C65456E 
 5392      64706F69 
 5392      6E747349 
 5393              	.LASF46:
 5394 0889 705F6D73 		.ascii	"p_msg\000"
 5394      6700
 5395              	.LASF73:
 5396 088f 715F6C69 		.ascii	"q_link\000"
 5396      6E6B00
 5397              	.LASF59:
 5398 0896 6D5F6F77 		.ascii	"m_owner\000"
 5398      6E657200 
 5399              	.LASF35:
 5400 089e 705F6374 		.ascii	"p_ctx\000"
 5400      7800
 5401              	.LASF44:
 5402 08a4 705F7761 		.ascii	"p_waiting\000"
 5402      6974696E 
 5402      6700
 5403              		.ident	"GCC: (GNU Tools for ARM Embedded Processors) 4.9.3 20141119 (release) [ARM/embedded-4_9-br
ARM GAS  /tmp/cceJrrFk.s 			page 104


DEFINED SYMBOLS
                            *ABS*:00000000 usb.c
     /tmp/cceJrrFk.s:19     .rodata:00000000 $d
     /tmp/cceJrrFk.s:22     .rodata:00000000 zero_status
     /tmp/cceJrrFk.s:27     .rodata:00000004 active_status
     /tmp/cceJrrFk.s:32     .rodata:00000008 halted_status
     /tmp/cceJrrFk.s:36     .text:00000000 $t
     /tmp/cceJrrFk.s:40     .text:00000000 set_address
     /tmp/cceJrrFk.s:91     .text:0000003c default_handler
     /tmp/cceJrrFk.s:594    .text:000003bc $d
     /tmp/cceJrrFk.s:601    .text:000003cc $t
     /tmp/cceJrrFk.s:606    .text:000003cc usbInit
     /tmp/cceJrrFk.s:628    .text:000003d4 usbObjectInit
     /tmp/cceJrrFk.s:703    .text:00000420 usbStart
     /tmp/cceJrrFk.s:802    .text:0000049c $d
     /tmp/cceJrrFk.s:815    .text:000004a4 $t
     /tmp/cceJrrFk.s:820    .text:000004a4 usbStop
     /tmp/cceJrrFk.s:897    .text:00000504 $d
     /tmp/cceJrrFk.s:913    .text:0000050c $t
     /tmp/cceJrrFk.s:918    .text:0000050c usbInitEndpointI
     /tmp/cceJrrFk.s:1017   .text:000005a4 $d
     /tmp/cceJrrFk.s:1031   .text:000005b0 $t
     /tmp/cceJrrFk.s:1036   .text:000005b0 usbDisableEndpointsI
     /tmp/cceJrrFk.s:1114   .text:0000061c $d
     /tmp/cceJrrFk.s:1119   .text:00000624 $t
     /tmp/cceJrrFk.s:1124   .text:00000624 usbPrepareReceive
     /tmp/cceJrrFk.s:1183   .text:00000670 usbPrepareTransmit
     /tmp/cceJrrFk.s:1242   .text:000006bc usbPrepareQueuedReceive
     /tmp/cceJrrFk.s:1301   .text:00000708 usbPrepareQueuedTransmit
     /tmp/cceJrrFk.s:1365   .text:00000754 usbStartReceiveI
     /tmp/cceJrrFk.s:1433   .text:000007c0 $d
     /tmp/cceJrrFk.s:1442   .text:000007c4 $t
     /tmp/cceJrrFk.s:1447   .text:000007c4 usbStartTransmitI
     /tmp/cceJrrFk.s:1515   .text:00000830 $d
     /tmp/cceJrrFk.s:1524   .text:00000834 $t
     /tmp/cceJrrFk.s:1529   .text:00000834 usbStallReceiveI
     /tmp/cceJrrFk.s:1583   .text:00000880 $d
     /tmp/cceJrrFk.s:1592   .text:00000884 $t
     /tmp/cceJrrFk.s:1597   .text:00000884 usbStallTransmitI
     /tmp/cceJrrFk.s:1651   .text:000008d0 $d
     /tmp/cceJrrFk.s:1655   .text:000008d4 $t
     /tmp/cceJrrFk.s:1660   .text:000008d4 _usb_reset
     /tmp/cceJrrFk.s:1738   .text:00000938 _usb_ep0setup
     /tmp/cceJrrFk.s:2017   .text:00000ae4 _usb_ep0in
     /tmp/cceJrrFk.s:2194   .text:00000bec _usb_ep0out
                     .debug_frame:00000010 $d

UNDEFINED SYMBOLS
usb_lld_set_address
usb_lld_get_status_in
usb_lld_get_status_out
usb_lld_clear_in
usb_lld_clear_out
usb_lld_stall_in
usb_lld_stall_out
usb_lld_init
chDbgPanic
ARM GAS  /tmp/cceJrrFk.s 			page 105


dbg_check_lock
usb_lld_start
dbg_check_unlock
usb_lld_stop
chDbgCheckClassI
memset
usb_lld_init_endpoint
usb_lld_disable_endpoints
usb_lld_prepare_receive
usb_lld_prepare_transmit
usb_lld_start_out
usb_lld_start_in
usb_lld_reset
usb_lld_read_setup
dbg_check_lock_from_isr
dbg_check_unlock_from_isr
