ARM GAS  /tmp/ccaZEb87.s 			page 1


   1              		.syntax unified
   2              		.cpu cortex-m4
   3              		.fpu softvfp
   4              		.eabi_attribute 20, 1
   5              		.eabi_attribute 21, 1
   6              		.eabi_attribute 23, 3
   7              		.eabi_attribute 24, 1
   8              		.eabi_attribute 25, 1
   9              		.eabi_attribute 26, 1
  10              		.eabi_attribute 30, 6
  11              		.eabi_attribute 34, 1
  12              		.eabi_attribute 18, 4
  13              		.thumb
  14              		.file	"usb_lld.c"
  15              		.text
  16              	.Ltext0:
  17              		.cfi_sections	.debug_frame
  18              		.align	2
  19              		.thumb
  20              		.thumb_func
  21              		.type	fifo_remove, %function
  22              	fifo_remove:
  23              	.LFB2:
  24              		.file 1 "/opt/R2P/core/ChibiOS_2.6.5/os/kernel/include/chinline.h"
  25              		.loc 1 59 0
  26              		.cfi_startproc
  27              		@ args = 0, pretend = 0, frame = 16
  28              		@ frame_needed = 0, uses_anonymous_args = 0
  29              		@ link register save eliminated.
  30 0000 84B0     		sub	sp, sp, #16
  31              		.cfi_def_cfa_offset 16
  32 0002 0190     		str	r0, [sp, #4]
  33              		.loc 1 60 0
  34 0004 019B     		ldr	r3, [sp, #4]
  35 0006 1B68     		ldr	r3, [r3]
  36 0008 0393     		str	r3, [sp, #12]
  37              		.loc 1 62 0
  38 000a 039B     		ldr	r3, [sp, #12]
  39 000c 1A68     		ldr	r2, [r3]
  40 000e 019B     		ldr	r3, [sp, #4]
  41 0010 1A60     		str	r2, [r3]
  42 0012 019B     		ldr	r3, [sp, #4]
  43 0014 1B68     		ldr	r3, [r3]
  44 0016 019A     		ldr	r2, [sp, #4]
  45 0018 5A60     		str	r2, [r3, #4]
  46              		.loc 1 63 0
  47 001a 039B     		ldr	r3, [sp, #12]
  48              		.loc 1 64 0
  49 001c 1846     		mov	r0, r3
  50 001e 04B0     		add	sp, sp, #16
  51              		.cfi_def_cfa_offset 0
  52              		@ sp needed
  53 0020 7047     		bx	lr
  54              		.cfi_endproc
  55              	.LFE2:
  56              		.size	fifo_remove, .-fifo_remove
  57              		.comm	USBD1,132,4
ARM GAS  /tmp/ccaZEb87.s 			page 2


  58              		.bss
  59              		.align	2
  60              	ep0_state:
  61 0000 00000000 		.space	20
  61      00000000 
  61      00000000 
  61      00000000 
  61      00000000 
  62              		.align	2
  63              	ep0setup_buffer:
  64 0014 00000000 		.space	8
  64      00000000 
  65              		.section	.rodata
  66              		.align	2
  67              		.type	ep0config, %object
  68              		.size	ep0config, 36
  69              	ep0config:
  70 0000 00000000 		.word	0
  71 0004 00000000 		.word	_usb_ep0setup
  72 0008 00000000 		.word	_usb_ep0in
  73 000c 00000000 		.word	_usb_ep0out
  74 0010 4000     		.short	64
  75 0012 4000     		.short	64
  76 0014 00000000 		.word	ep0_state
  77 0018 00000000 		.word	ep0_state
  78 001c 0100     		.short	1
  79 001e 0000     		.space	2
  80 0020 14000000 		.word	ep0setup_buffer
  81              		.text
  82 0022 00BF     		.align	2
  83              		.thumb
  84              		.thumb_func
  85              		.type	usb_pm_reset, %function
  86              	usb_pm_reset:
  87              	.LFB118:
  88              		.file 2 "/opt/R2P/core/ChibiOS_2.6.5/os/hal/platforms/STM32/USBv1/usb_lld.c"
  89              		.loc 2 97 0
  90              		.cfi_startproc
  91              		@ args = 0, pretend = 0, frame = 8
  92              		@ frame_needed = 0, uses_anonymous_args = 0
  93              		@ link register save eliminated.
  94 0024 82B0     		sub	sp, sp, #8
  95              		.cfi_def_cfa_offset 8
  96 0026 0190     		str	r0, [sp, #4]
  97              		.loc 2 101 0
  98 0028 019B     		ldr	r3, [sp, #4]
  99 002a 4022     		movs	r2, #64
 100 002c C3F88020 		str	r2, [r3, #128]
 101              		.loc 2 102 0
 102 0030 02B0     		add	sp, sp, #8
 103              		.cfi_def_cfa_offset 0
 104              		@ sp needed
 105 0032 7047     		bx	lr
 106              		.cfi_endproc
 107              	.LFE118:
 108              		.size	usb_pm_reset, .-usb_pm_reset
 109              		.section	.rodata
ARM GAS  /tmp/ccaZEb87.s 			page 3


 110              		.align	2
 111              	.LC0:
 112 0024 7573625F 		.ascii	"usb_pm_alloc(), #1\000"
 112      706D5F61 
 112      6C6C6F63 
 112      28292C20 
 112      233100
 113 0037 00       		.text
 114              		.align	2
 115              		.thumb
 116              		.thumb_func
 117              		.type	usb_pm_alloc, %function
 118              	usb_pm_alloc:
 119              	.LFB119:
 120              		.loc 2 110 0
 121              		.cfi_startproc
 122              		@ args = 0, pretend = 0, frame = 16
 123              		@ frame_needed = 0, uses_anonymous_args = 0
 124 0034 00B5     		push	{lr}
 125              		.cfi_def_cfa_offset 4
 126              		.cfi_offset 14, -4
 127 0036 85B0     		sub	sp, sp, #20
 128              		.cfi_def_cfa_offset 24
 129 0038 0190     		str	r0, [sp, #4]
 130 003a 0091     		str	r1, [sp]
 131              		.loc 2 113 0
 132 003c 019B     		ldr	r3, [sp, #4]
 133 003e D3F88030 		ldr	r3, [r3, #128]
 134 0042 0393     		str	r3, [sp, #12]
 135              		.loc 2 114 0
 136 0044 019B     		ldr	r3, [sp, #4]
 137 0046 D3F88020 		ldr	r2, [r3, #128]
 138 004a 009B     		ldr	r3, [sp]
 139 004c 1A44     		add	r2, r2, r3
 140 004e 019B     		ldr	r3, [sp, #4]
 141 0050 C3F88020 		str	r2, [r3, #128]
 142              		.loc 2 115 0
 143 0054 019B     		ldr	r3, [sp, #4]
 144 0056 D3F88030 		ldr	r3, [r3, #128]
 145 005a B3F5007F 		cmp	r3, #512
 146 005e 02D9     		bls	.L5
 147              		.loc 2 115 0 is_stmt 0 discriminator 1
 148 0060 0348     		ldr	r0, .L7
 149 0062 FFF7FEFF 		bl	chDbgPanic
 150              	.L5:
 151              		.loc 2 116 0 is_stmt 1
 152 0066 039B     		ldr	r3, [sp, #12]
 153              		.loc 2 117 0
 154 0068 1846     		mov	r0, r3
 155 006a 05B0     		add	sp, sp, #20
 156              		.cfi_def_cfa_offset 4
 157              		@ sp needed
 158 006c 5DF804FB 		ldr	pc, [sp], #4
 159              	.L8:
 160              		.align	2
 161              	.L7:
 162 0070 24000000 		.word	.LC0
ARM GAS  /tmp/ccaZEb87.s 			page 4


 163              		.cfi_endproc
 164              	.LFE119:
 165              		.size	usb_pm_alloc, .-usb_pm_alloc
 166              		.align	2
 167              		.thumb
 168              		.thumb_func
 169              		.type	usb_packet_read_to_buffer, %function
 170              	usb_packet_read_to_buffer:
 171              	.LFB120:
 172              		.loc 2 130 0
 173              		.cfi_startproc
 174              		@ args = 0, pretend = 0, frame = 24
 175              		@ frame_needed = 0, uses_anonymous_args = 0
 176              		@ link register save eliminated.
 177 0074 86B0     		sub	sp, sp, #24
 178              		.cfi_def_cfa_offset 24
 179 0076 0390     		str	r0, [sp, #12]
 180 0078 0291     		str	r1, [sp, #8]
 181 007a 0192     		str	r2, [sp, #4]
 182              		.loc 2 131 0
 183 007c 039B     		ldr	r3, [sp, #12]
 184 007e 9B68     		ldr	r3, [r3, #8]
 185 0080 03F10053 		add	r3, r3, #536870912
 186 0084 03F54053 		add	r3, r3, #12288
 187 0088 5B00     		lsls	r3, r3, #1
 188 008a 0593     		str	r3, [sp, #20]
 189              		.loc 2 133 0
 190 008c 019B     		ldr	r3, [sp, #4]
 191 008e 0133     		adds	r3, r3, #1
 192 0090 5B08     		lsrs	r3, r3, #1
 193 0092 0193     		str	r3, [sp, #4]
 194              		.loc 2 134 0
 195 0094 0CE0     		b	.L10
 196              	.L11:
 197              		.loc 2 137 0
 198 0096 059B     		ldr	r3, [sp, #20]
 199 0098 1A1D     		adds	r2, r3, #4
 200 009a 0592     		str	r2, [sp, #20]
 201 009c 1B68     		ldr	r3, [r3]
 202 009e 9AB2     		uxth	r2, r3
 203 00a0 029B     		ldr	r3, [sp, #8]
 204 00a2 1A80     		strh	r2, [r3]	@ movhi
 205              		.loc 2 138 0
 206 00a4 029B     		ldr	r3, [sp, #8]
 207 00a6 0233     		adds	r3, r3, #2
 208 00a8 0293     		str	r3, [sp, #8]
 209              		.loc 2 139 0
 210 00aa 019B     		ldr	r3, [sp, #4]
 211 00ac 013B     		subs	r3, r3, #1
 212 00ae 0193     		str	r3, [sp, #4]
 213              	.L10:
 214              		.loc 2 134 0
 215 00b0 019B     		ldr	r3, [sp, #4]
 216 00b2 002B     		cmp	r3, #0
 217 00b4 EFD1     		bne	.L11
 218              		.loc 2 141 0
 219 00b6 06B0     		add	sp, sp, #24
ARM GAS  /tmp/ccaZEb87.s 			page 5


 220              		.cfi_def_cfa_offset 0
 221              		@ sp needed
 222 00b8 7047     		bx	lr
 223              		.cfi_endproc
 224              	.LFE120:
 225              		.size	usb_packet_read_to_buffer, .-usb_packet_read_to_buffer
 226 00ba 00BF     		.align	2
 227              		.thumb
 228              		.thumb_func
 229              		.type	usb_packet_read_to_queue, %function
 230              	usb_packet_read_to_queue:
 231              	.LFB121:
 232              		.loc 2 154 0
 233              		.cfi_startproc
 234              		@ args = 0, pretend = 0, frame = 32
 235              		@ frame_needed = 0, uses_anonymous_args = 0
 236 00bc 00B5     		push	{lr}
 237              		.cfi_def_cfa_offset 4
 238              		.cfi_offset 14, -4
 239 00be 89B0     		sub	sp, sp, #36
 240              		.cfi_def_cfa_offset 40
 241 00c0 0390     		str	r0, [sp, #12]
 242 00c2 0291     		str	r1, [sp, #8]
 243 00c4 0192     		str	r2, [sp, #4]
 244              		.loc 2 156 0
 245 00c6 039B     		ldr	r3, [sp, #12]
 246 00c8 9B68     		ldr	r3, [r3, #8]
 247 00ca 03F10053 		add	r3, r3, #536870912
 248 00ce 03F54053 		add	r3, r3, #12288
 249 00d2 5B00     		lsls	r3, r3, #1
 250 00d4 0693     		str	r3, [sp, #24]
 251              		.loc 2 158 0
 252 00d6 019B     		ldr	r3, [sp, #4]
 253 00d8 5B08     		lsrs	r3, r3, #1
 254 00da 0793     		str	r3, [sp, #28]
 255              		.loc 2 159 0
 256 00dc 2CE0     		b	.L13
 257              	.L16:
 258              	.LBB2:
 259              		.loc 2 162 0
 260 00de 069B     		ldr	r3, [sp, #24]
 261 00e0 1A1D     		adds	r2, r3, #4
 262 00e2 0692     		str	r2, [sp, #24]
 263 00e4 1B68     		ldr	r3, [r3]
 264 00e6 0593     		str	r3, [sp, #20]
 265              		.loc 2 163 0
 266 00e8 029B     		ldr	r3, [sp, #8]
 267 00ea 5B69     		ldr	r3, [r3, #20]
 268 00ec 591C     		adds	r1, r3, #1
 269 00ee 029A     		ldr	r2, [sp, #8]
 270 00f0 5161     		str	r1, [r2, #20]
 271 00f2 059A     		ldr	r2, [sp, #20]
 272 00f4 D2B2     		uxtb	r2, r2
 273 00f6 1A70     		strb	r2, [r3]
 274              		.loc 2 164 0
 275 00f8 029B     		ldr	r3, [sp, #8]
 276 00fa 5A69     		ldr	r2, [r3, #20]
ARM GAS  /tmp/ccaZEb87.s 			page 6


 277 00fc 029B     		ldr	r3, [sp, #8]
 278 00fe 1B69     		ldr	r3, [r3, #16]
 279 0100 9A42     		cmp	r2, r3
 280 0102 03D3     		bcc	.L14
 281              		.loc 2 165 0
 282 0104 029B     		ldr	r3, [sp, #8]
 283 0106 DA68     		ldr	r2, [r3, #12]
 284 0108 029B     		ldr	r3, [sp, #8]
 285 010a 5A61     		str	r2, [r3, #20]
 286              	.L14:
 287              		.loc 2 166 0
 288 010c 029B     		ldr	r3, [sp, #8]
 289 010e 5B69     		ldr	r3, [r3, #20]
 290 0110 591C     		adds	r1, r3, #1
 291 0112 029A     		ldr	r2, [sp, #8]
 292 0114 5161     		str	r1, [r2, #20]
 293 0116 059A     		ldr	r2, [sp, #20]
 294 0118 120A     		lsrs	r2, r2, #8
 295 011a D2B2     		uxtb	r2, r2
 296 011c 1A70     		strb	r2, [r3]
 297              		.loc 2 167 0
 298 011e 029B     		ldr	r3, [sp, #8]
 299 0120 5A69     		ldr	r2, [r3, #20]
 300 0122 029B     		ldr	r3, [sp, #8]
 301 0124 1B69     		ldr	r3, [r3, #16]
 302 0126 9A42     		cmp	r2, r3
 303 0128 03D3     		bcc	.L15
 304              		.loc 2 168 0
 305 012a 029B     		ldr	r3, [sp, #8]
 306 012c DA68     		ldr	r2, [r3, #12]
 307 012e 029B     		ldr	r3, [sp, #8]
 308 0130 5A61     		str	r2, [r3, #20]
 309              	.L15:
 310              		.loc 2 169 0
 311 0132 079B     		ldr	r3, [sp, #28]
 312 0134 013B     		subs	r3, r3, #1
 313 0136 0793     		str	r3, [sp, #28]
 314              	.L13:
 315              	.LBE2:
 316              		.loc 2 159 0
 317 0138 079B     		ldr	r3, [sp, #28]
 318 013a 002B     		cmp	r3, #0
 319 013c CFD1     		bne	.L16
 320              		.loc 2 172 0
 321 013e 019B     		ldr	r3, [sp, #4]
 322 0140 03F00103 		and	r3, r3, #1
 323 0144 002B     		cmp	r3, #0
 324 0146 12D0     		beq	.L17
 325              		.loc 2 173 0
 326 0148 029B     		ldr	r3, [sp, #8]
 327 014a 5B69     		ldr	r3, [r3, #20]
 328 014c 591C     		adds	r1, r3, #1
 329 014e 029A     		ldr	r2, [sp, #8]
 330 0150 5161     		str	r1, [r2, #20]
 331 0152 069A     		ldr	r2, [sp, #24]
 332 0154 1268     		ldr	r2, [r2]
 333 0156 D2B2     		uxtb	r2, r2
ARM GAS  /tmp/ccaZEb87.s 			page 7


 334 0158 1A70     		strb	r2, [r3]
 335              		.loc 2 174 0
 336 015a 029B     		ldr	r3, [sp, #8]
 337 015c 5A69     		ldr	r2, [r3, #20]
 338 015e 029B     		ldr	r3, [sp, #8]
 339 0160 1B69     		ldr	r3, [r3, #16]
 340 0162 9A42     		cmp	r2, r3
 341 0164 03D3     		bcc	.L17
 342              		.loc 2 175 0
 343 0166 029B     		ldr	r3, [sp, #8]
 344 0168 DA68     		ldr	r2, [r3, #12]
 345 016a 029B     		ldr	r3, [sp, #8]
 346 016c 5A61     		str	r2, [r3, #20]
 347              	.L17:
 348              	.LBB3:
 349              		.loc 2 179 0
 350 016e 2023     		movs	r3, #32
 351              	@ 179 "/opt/R2P/core/ChibiOS_2.6.5/os/hal/platforms/STM32/USBv1/usb_lld.c" 1
 352 0170 83F31188 		msr     BASEPRI, r3
 353              	@ 0 "" 2
 354              		.thumb
 355              	.LBE3:
 356 0174 FFF7FEFF 		bl	dbg_check_lock_from_isr
 357              		.loc 2 180 0
 358 0178 029B     		ldr	r3, [sp, #8]
 359 017a 9A68     		ldr	r2, [r3, #8]
 360 017c 019B     		ldr	r3, [sp, #4]
 361 017e 1A44     		add	r2, r2, r3
 362 0180 029B     		ldr	r3, [sp, #8]
 363 0182 9A60     		str	r2, [r3, #8]
 364              		.loc 2 181 0
 365 0184 0AE0     		b	.L18
 366              	.L19:
 367              		.loc 2 182 0
 368 0186 029B     		ldr	r3, [sp, #8]
 369 0188 1846     		mov	r0, r3
 370 018a FFF739FF 		bl	fifo_remove
 371 018e 0346     		mov	r3, r0
 372 0190 1846     		mov	r0, r3
 373 0192 FFF7FEFF 		bl	chSchReadyI
 374 0196 0246     		mov	r2, r0
 375 0198 0023     		movs	r3, #0
 376 019a 9362     		str	r3, [r2, #40]
 377              	.L18:
 378              		.loc 2 181 0
 379 019c 029B     		ldr	r3, [sp, #8]
 380 019e 1A68     		ldr	r2, [r3]
 381 01a0 029B     		ldr	r3, [sp, #8]
 382 01a2 9A42     		cmp	r2, r3
 383 01a4 EFD1     		bne	.L19
 384              		.loc 2 183 0
 385 01a6 FFF7FEFF 		bl	dbg_check_unlock_from_isr
 386              	.LBB4:
 387 01aa 0023     		movs	r3, #0
 388              	@ 183 "/opt/R2P/core/ChibiOS_2.6.5/os/hal/platforms/STM32/USBv1/usb_lld.c" 1
 389 01ac 83F31188 		msr     BASEPRI, r3
 390              	@ 0 "" 2
ARM GAS  /tmp/ccaZEb87.s 			page 8


 391              		.thumb
 392              	.LBE4:
 393              		.loc 2 184 0
 394 01b0 09B0     		add	sp, sp, #36
 395              		.cfi_def_cfa_offset 4
 396              		@ sp needed
 397 01b2 5DF804FB 		ldr	pc, [sp], #4
 398              		.cfi_endproc
 399              	.LFE121:
 400              		.size	usb_packet_read_to_queue, .-usb_packet_read_to_queue
 401 01b6 00BF     		.align	2
 402              		.thumb
 403              		.thumb_func
 404              		.type	usb_packet_write_from_buffer, %function
 405              	usb_packet_write_from_buffer:
 406              	.LFB122:
 407              		.loc 2 198 0
 408              		.cfi_startproc
 409              		@ args = 0, pretend = 0, frame = 24
 410              		@ frame_needed = 0, uses_anonymous_args = 0
 411              		@ link register save eliminated.
 412 01b8 86B0     		sub	sp, sp, #24
 413              		.cfi_def_cfa_offset 24
 414 01ba 0390     		str	r0, [sp, #12]
 415 01bc 0291     		str	r1, [sp, #8]
 416 01be 0192     		str	r2, [sp, #4]
 417              		.loc 2 199 0
 418 01c0 039B     		ldr	r3, [sp, #12]
 419 01c2 1B68     		ldr	r3, [r3]
 420 01c4 03F10053 		add	r3, r3, #536870912
 421 01c8 03F54053 		add	r3, r3, #12288
 422 01cc 5B00     		lsls	r3, r3, #1
 423 01ce 0593     		str	r3, [sp, #20]
 424              		.loc 2 201 0
 425 01d0 019B     		ldr	r3, [sp, #4]
 426 01d2 9AB2     		uxth	r2, r3
 427 01d4 039B     		ldr	r3, [sp, #12]
 428 01d6 9A80     		strh	r2, [r3, #4]	@ movhi
 429              		.loc 2 202 0
 430 01d8 019B     		ldr	r3, [sp, #4]
 431 01da 0133     		adds	r3, r3, #1
 432 01dc 5B08     		lsrs	r3, r3, #1
 433 01de 0193     		str	r3, [sp, #4]
 434              		.loc 2 203 0
 435 01e0 0BE0     		b	.L21
 436              	.L22:
 437              		.loc 2 206 0
 438 01e2 059B     		ldr	r3, [sp, #20]
 439 01e4 1A1D     		adds	r2, r3, #4
 440 01e6 0592     		str	r2, [sp, #20]
 441 01e8 029A     		ldr	r2, [sp, #8]
 442 01ea 1288     		ldrh	r2, [r2]
 443 01ec 1A60     		str	r2, [r3]
 444              		.loc 2 207 0
 445 01ee 029B     		ldr	r3, [sp, #8]
 446 01f0 0233     		adds	r3, r3, #2
 447 01f2 0293     		str	r3, [sp, #8]
ARM GAS  /tmp/ccaZEb87.s 			page 9


 448              		.loc 2 208 0
 449 01f4 019B     		ldr	r3, [sp, #4]
 450 01f6 013B     		subs	r3, r3, #1
 451 01f8 0193     		str	r3, [sp, #4]
 452              	.L21:
 453              		.loc 2 203 0
 454 01fa 019B     		ldr	r3, [sp, #4]
 455 01fc 002B     		cmp	r3, #0
 456 01fe F0D1     		bne	.L22
 457              		.loc 2 210 0
 458 0200 06B0     		add	sp, sp, #24
 459              		.cfi_def_cfa_offset 0
 460              		@ sp needed
 461 0202 7047     		bx	lr
 462              		.cfi_endproc
 463              	.LFE122:
 464              		.size	usb_packet_write_from_buffer, .-usb_packet_write_from_buffer
 465              		.align	2
 466              		.thumb
 467              		.thumb_func
 468              		.type	usb_packet_write_from_queue, %function
 469              	usb_packet_write_from_queue:
 470              	.LFB123:
 471              		.loc 2 223 0
 472              		.cfi_startproc
 473              		@ args = 0, pretend = 0, frame = 32
 474              		@ frame_needed = 0, uses_anonymous_args = 0
 475 0204 00B5     		push	{lr}
 476              		.cfi_def_cfa_offset 4
 477              		.cfi_offset 14, -4
 478 0206 89B0     		sub	sp, sp, #36
 479              		.cfi_def_cfa_offset 40
 480 0208 0390     		str	r0, [sp, #12]
 481 020a 0291     		str	r1, [sp, #8]
 482 020c 0192     		str	r2, [sp, #4]
 483              		.loc 2 225 0
 484 020e 039B     		ldr	r3, [sp, #12]
 485 0210 1B68     		ldr	r3, [r3]
 486 0212 03F10053 		add	r3, r3, #536870912
 487 0216 03F54053 		add	r3, r3, #12288
 488 021a 5B00     		lsls	r3, r3, #1
 489 021c 0693     		str	r3, [sp, #24]
 490              		.loc 2 227 0
 491 021e 019B     		ldr	r3, [sp, #4]
 492 0220 9AB2     		uxth	r2, r3
 493 0222 039B     		ldr	r3, [sp, #12]
 494 0224 9A80     		strh	r2, [r3, #4]	@ movhi
 495              		.loc 2 228 0
 496 0226 019B     		ldr	r3, [sp, #4]
 497 0228 5B08     		lsrs	r3, r3, #1
 498 022a 0793     		str	r3, [sp, #28]
 499              		.loc 2 229 0
 500 022c 2CE0     		b	.L24
 501              	.L27:
 502              	.LBB5:
 503              		.loc 2 232 0
 504 022e 029B     		ldr	r3, [sp, #8]
ARM GAS  /tmp/ccaZEb87.s 			page 10


 505 0230 9B69     		ldr	r3, [r3, #24]
 506 0232 591C     		adds	r1, r3, #1
 507 0234 029A     		ldr	r2, [sp, #8]
 508 0236 9161     		str	r1, [r2, #24]
 509 0238 1B78     		ldrb	r3, [r3]	@ zero_extendqisi2
 510 023a 0593     		str	r3, [sp, #20]
 511              		.loc 2 233 0
 512 023c 029B     		ldr	r3, [sp, #8]
 513 023e 9A69     		ldr	r2, [r3, #24]
 514 0240 029B     		ldr	r3, [sp, #8]
 515 0242 1B69     		ldr	r3, [r3, #16]
 516 0244 9A42     		cmp	r2, r3
 517 0246 03D3     		bcc	.L25
 518              		.loc 2 234 0
 519 0248 029B     		ldr	r3, [sp, #8]
 520 024a DA68     		ldr	r2, [r3, #12]
 521 024c 029B     		ldr	r3, [sp, #8]
 522 024e 9A61     		str	r2, [r3, #24]
 523              	.L25:
 524              		.loc 2 235 0
 525 0250 029B     		ldr	r3, [sp, #8]
 526 0252 9B69     		ldr	r3, [r3, #24]
 527 0254 591C     		adds	r1, r3, #1
 528 0256 029A     		ldr	r2, [sp, #8]
 529 0258 9161     		str	r1, [r2, #24]
 530 025a 1B78     		ldrb	r3, [r3]	@ zero_extendqisi2
 531 025c 1B02     		lsls	r3, r3, #8
 532 025e 059A     		ldr	r2, [sp, #20]
 533 0260 1343     		orrs	r3, r3, r2
 534 0262 0593     		str	r3, [sp, #20]
 535              		.loc 2 236 0
 536 0264 029B     		ldr	r3, [sp, #8]
 537 0266 9A69     		ldr	r2, [r3, #24]
 538 0268 029B     		ldr	r3, [sp, #8]
 539 026a 1B69     		ldr	r3, [r3, #16]
 540 026c 9A42     		cmp	r2, r3
 541 026e 03D3     		bcc	.L26
 542              		.loc 2 237 0
 543 0270 029B     		ldr	r3, [sp, #8]
 544 0272 DA68     		ldr	r2, [r3, #12]
 545 0274 029B     		ldr	r3, [sp, #8]
 546 0276 9A61     		str	r2, [r3, #24]
 547              	.L26:
 548              		.loc 2 238 0
 549 0278 069B     		ldr	r3, [sp, #24]
 550 027a 1A1D     		adds	r2, r3, #4
 551 027c 0692     		str	r2, [sp, #24]
 552 027e 059A     		ldr	r2, [sp, #20]
 553 0280 1A60     		str	r2, [r3]
 554              		.loc 2 239 0
 555 0282 079B     		ldr	r3, [sp, #28]
 556 0284 013B     		subs	r3, r3, #1
 557 0286 0793     		str	r3, [sp, #28]
 558              	.L24:
 559              	.LBE5:
 560              		.loc 2 229 0
 561 0288 079B     		ldr	r3, [sp, #28]
ARM GAS  /tmp/ccaZEb87.s 			page 11


 562 028a 002B     		cmp	r3, #0
 563 028c CFD1     		bne	.L27
 564              		.loc 2 243 0
 565 028e 019B     		ldr	r3, [sp, #4]
 566 0290 03F00103 		and	r3, r3, #1
 567 0294 002B     		cmp	r3, #0
 568 0296 12D0     		beq	.L28
 569              		.loc 2 244 0
 570 0298 029B     		ldr	r3, [sp, #8]
 571 029a 9B69     		ldr	r3, [r3, #24]
 572 029c 591C     		adds	r1, r3, #1
 573 029e 029A     		ldr	r2, [sp, #8]
 574 02a0 9161     		str	r1, [r2, #24]
 575 02a2 1B78     		ldrb	r3, [r3]	@ zero_extendqisi2
 576 02a4 1A46     		mov	r2, r3
 577 02a6 069B     		ldr	r3, [sp, #24]
 578 02a8 1A60     		str	r2, [r3]
 579              		.loc 2 245 0
 580 02aa 029B     		ldr	r3, [sp, #8]
 581 02ac 9A69     		ldr	r2, [r3, #24]
 582 02ae 029B     		ldr	r3, [sp, #8]
 583 02b0 1B69     		ldr	r3, [r3, #16]
 584 02b2 9A42     		cmp	r2, r3
 585 02b4 03D3     		bcc	.L28
 586              		.loc 2 246 0
 587 02b6 029B     		ldr	r3, [sp, #8]
 588 02b8 DA68     		ldr	r2, [r3, #12]
 589 02ba 029B     		ldr	r3, [sp, #8]
 590 02bc 9A61     		str	r2, [r3, #24]
 591              	.L28:
 592              	.LBB6:
 593              		.loc 2 252 0
 594 02be 2023     		movs	r3, #32
 595              	@ 252 "/opt/R2P/core/ChibiOS_2.6.5/os/hal/platforms/STM32/USBv1/usb_lld.c" 1
 596 02c0 83F31188 		msr     BASEPRI, r3
 597              	@ 0 "" 2
 598              		.thumb
 599              	.LBE6:
 600              		.loc 2 253 0
 601 02c4 114B     		ldr	r3, .L31
 602 02c6 0122     		movs	r2, #1
 603 02c8 1A60     		str	r2, [r3]
 604              		.loc 2 255 0
 605 02ca 029B     		ldr	r3, [sp, #8]
 606 02cc 9A68     		ldr	r2, [r3, #8]
 607 02ce 019B     		ldr	r3, [sp, #4]
 608 02d0 1A44     		add	r2, r2, r3
 609 02d2 029B     		ldr	r3, [sp, #8]
 610 02d4 9A60     		str	r2, [r3, #8]
 611              		.loc 2 256 0
 612 02d6 0AE0     		b	.L29
 613              	.L30:
 614              		.loc 2 257 0
 615 02d8 029B     		ldr	r3, [sp, #8]
 616 02da 1846     		mov	r0, r3
 617 02dc FFF790FE 		bl	fifo_remove
 618 02e0 0346     		mov	r3, r0
ARM GAS  /tmp/ccaZEb87.s 			page 12


 619 02e2 1846     		mov	r0, r3
 620 02e4 FFF7FEFF 		bl	chSchReadyI
 621 02e8 0246     		mov	r2, r0
 622 02ea 0023     		movs	r3, #0
 623 02ec 9362     		str	r3, [r2, #40]
 624              	.L29:
 625              		.loc 2 256 0
 626 02ee 029B     		ldr	r3, [sp, #8]
 627 02f0 1A68     		ldr	r2, [r3]
 628 02f2 029B     		ldr	r3, [sp, #8]
 629 02f4 9A42     		cmp	r2, r3
 630 02f6 EFD1     		bne	.L30
 631              		.loc 2 259 0
 632 02f8 044B     		ldr	r3, .L31
 633 02fa 0022     		movs	r2, #0
 634 02fc 1A60     		str	r2, [r3]
 635              	.LBB7:
 636              		.loc 2 260 0
 637 02fe 0023     		movs	r3, #0
 638              	@ 260 "/opt/R2P/core/ChibiOS_2.6.5/os/hal/platforms/STM32/USBv1/usb_lld.c" 1
 639 0300 83F31188 		msr     BASEPRI, r3
 640              	@ 0 "" 2
 641              		.thumb
 642              	.LBE7:
 643              		.loc 2 261 0
 644 0304 09B0     		add	sp, sp, #36
 645              		.cfi_def_cfa_offset 4
 646              		@ sp needed
 647 0306 5DF804FB 		ldr	pc, [sp], #4
 648              	.L32:
 649 030a 00BF     		.align	2
 650              	.L31:
 651 030c 00000000 		.word	dbg_lock_cnt
 652              		.cfi_endproc
 653              	.LFE123:
 654              		.size	usb_packet_write_from_queue, .-usb_packet_write_from_queue
 655              		.align	2
 656              		.global	Vector168
 657              		.thumb
 658              		.thumb_func
 659              		.type	Vector168, %function
 660              	Vector168:
 661              	.LFB124:
 662              		.loc 2 276 0
 663              		.cfi_startproc
 664              		@ args = 0, pretend = 0, frame = 0
 665              		@ frame_needed = 0, uses_anonymous_args = 0
 666 0310 08B5     		push	{r3, lr}
 667              		.cfi_def_cfa_offset 8
 668              		.cfi_offset 3, -8
 669              		.cfi_offset 14, -4
 670              		.loc 2 278 0
 671 0312 FFF7FEFF 		bl	dbg_check_enter_isr
 672              		.loc 2 280 0
 673 0316 FFF7FEFF 		bl	dbg_check_leave_isr
 674 031a FFF7FEFF 		bl	_port_irq_epilogue
 675              		.loc 2 281 0
ARM GAS  /tmp/ccaZEb87.s 			page 13


 676 031e 08BD     		pop	{r3, pc}
 677              		.cfi_endproc
 678              	.LFE124:
 679              		.size	Vector168, .-Vector168
 680              		.align	2
 681              		.global	Vector16C
 682              		.thumb
 683              		.thumb_func
 684              		.type	Vector16C, %function
 685              	Vector16C:
 686              	.LFB125:
 687              		.loc 2 291 0
 688              		.cfi_startproc
 689              		@ args = 0, pretend = 0, frame = 40
 690              		@ frame_needed = 0, uses_anonymous_args = 0
 691 0320 00B5     		push	{lr}
 692              		.cfi_def_cfa_offset 4
 693              		.cfi_offset 14, -4
 694 0322 8BB0     		sub	sp, sp, #44
 695              		.cfi_def_cfa_offset 48
 696              		.loc 2 293 0
 697 0324 9E4B     		ldr	r3, .L56
 698 0326 0793     		str	r3, [sp, #28]
 699              		.loc 2 295 0
 700 0328 FFF7FEFF 		bl	dbg_check_enter_isr
 701              		.loc 2 297 0
 702 032c 9D4B     		ldr	r3, .L56+4
 703 032e 5B6C     		ldr	r3, [r3, #68]
 704 0330 0993     		str	r3, [sp, #36]
 705              		.loc 2 300 0
 706 0332 099B     		ldr	r3, [sp, #36]
 707 0334 03F48063 		and	r3, r3, #1024
 708 0338 002B     		cmp	r3, #0
 709 033a 11D0     		beq	.L35
 710              		.loc 2 301 0
 711 033c 0798     		ldr	r0, [sp, #28]
 712 033e FFF7FEFF 		bl	_usb_reset
 713              		.loc 2 302 0
 714 0342 079B     		ldr	r3, [sp, #28]
 715 0344 5B68     		ldr	r3, [r3, #4]
 716 0346 1B68     		ldr	r3, [r3]
 717 0348 002B     		cmp	r3, #0
 718 034a 05D0     		beq	.L36
 719              		.loc 2 302 0 is_stmt 0 discriminator 1
 720 034c 079B     		ldr	r3, [sp, #28]
 721 034e 5B68     		ldr	r3, [r3, #4]
 722 0350 1B68     		ldr	r3, [r3]
 723 0352 0798     		ldr	r0, [sp, #28]
 724 0354 0021     		movs	r1, #0
 725 0356 9847     		blx	r3
 726              	.L36:
 727              		.loc 2 303 0 is_stmt 1
 728 0358 924B     		ldr	r3, .L56+4
 729 035a 6FF48062 		mvn	r2, #1024
 730 035e 5A64     		str	r2, [r3, #68]
 731              	.L35:
 732              		.loc 2 307 0
ARM GAS  /tmp/ccaZEb87.s 			page 14


 733 0360 099B     		ldr	r3, [sp, #36]
 734 0362 03F40063 		and	r3, r3, #2048
 735 0366 002B     		cmp	r3, #0
 736 0368 14D0     		beq	.L37
 737              		.loc 2 308 0
 738 036a 8E4A     		ldr	r2, .L56+4
 739 036c 8D4B     		ldr	r3, .L56+4
 740 036e 1B6C     		ldr	r3, [r3, #64]
 741 0370 43F00803 		orr	r3, r3, #8
 742 0374 1364     		str	r3, [r2, #64]
 743              		.loc 2 309 0
 744 0376 079B     		ldr	r3, [sp, #28]
 745 0378 5B68     		ldr	r3, [r3, #4]
 746 037a 1B68     		ldr	r3, [r3]
 747 037c 002B     		cmp	r3, #0
 748 037e 05D0     		beq	.L38
 749              		.loc 2 309 0 is_stmt 0 discriminator 1
 750 0380 079B     		ldr	r3, [sp, #28]
 751 0382 5B68     		ldr	r3, [r3, #4]
 752 0384 1B68     		ldr	r3, [r3]
 753 0386 0798     		ldr	r0, [sp, #28]
 754 0388 0321     		movs	r1, #3
 755 038a 9847     		blx	r3
 756              	.L38:
 757              		.loc 2 313 0 is_stmt 1
 758 038c 854B     		ldr	r3, .L56+4
 759 038e 6FF40062 		mvn	r2, #2048
 760 0392 5A64     		str	r2, [r3, #68]
 761              	.L37:
 762              		.loc 2 317 0
 763 0394 099B     		ldr	r3, [sp, #36]
 764 0396 03F48053 		and	r3, r3, #4096
 765 039a 002B     		cmp	r3, #0
 766 039c 1CD0     		beq	.L39
 767              	.LBB8:
 768              		.loc 2 318 0
 769 039e 814B     		ldr	r3, .L56+4
 770 03a0 9B6C     		ldr	r3, [r3, #72]
 771 03a2 0693     		str	r3, [sp, #24]
 772              		.loc 2 319 0
 773 03a4 069B     		ldr	r3, [sp, #24]
 774 03a6 03F40043 		and	r3, r3, #32768
 775 03aa 002B     		cmp	r3, #0
 776 03ac 10D1     		bne	.L40
 777              		.loc 2 320 0
 778 03ae 7D4A     		ldr	r2, .L56+4
 779 03b0 7C4B     		ldr	r3, .L56+4
 780 03b2 1B6C     		ldr	r3, [r3, #64]
 781 03b4 23F00803 		bic	r3, r3, #8
 782 03b8 1364     		str	r3, [r2, #64]
 783              		.loc 2 321 0
 784 03ba 079B     		ldr	r3, [sp, #28]
 785 03bc 5B68     		ldr	r3, [r3, #4]
 786 03be 1B68     		ldr	r3, [r3]
 787 03c0 002B     		cmp	r3, #0
 788 03c2 05D0     		beq	.L40
 789              		.loc 2 321 0 is_stmt 0 discriminator 1
ARM GAS  /tmp/ccaZEb87.s 			page 15


 790 03c4 079B     		ldr	r3, [sp, #28]
 791 03c6 5B68     		ldr	r3, [r3, #4]
 792 03c8 1B68     		ldr	r3, [r3]
 793 03ca 0798     		ldr	r0, [sp, #28]
 794 03cc 0421     		movs	r1, #4
 795 03ce 9847     		blx	r3
 796              	.L40:
 797              		.loc 2 330 0 is_stmt 1
 798 03d0 744B     		ldr	r3, .L56+4
 799 03d2 6FF48052 		mvn	r2, #4096
 800 03d6 5A64     		str	r2, [r3, #68]
 801              	.L39:
 802              	.LBE8:
 803              		.loc 2 334 0
 804 03d8 099B     		ldr	r3, [sp, #36]
 805 03da 03F40073 		and	r3, r3, #512
 806 03de 002B     		cmp	r3, #0
 807 03e0 0DD0     		beq	.L41
 808              		.loc 2 335 0
 809 03e2 079B     		ldr	r3, [sp, #28]
 810 03e4 5B68     		ldr	r3, [r3, #4]
 811 03e6 DB68     		ldr	r3, [r3, #12]
 812 03e8 002B     		cmp	r3, #0
 813 03ea 04D0     		beq	.L42
 814              		.loc 2 335 0 is_stmt 0 discriminator 1
 815 03ec 079B     		ldr	r3, [sp, #28]
 816 03ee 5B68     		ldr	r3, [r3, #4]
 817 03f0 DB68     		ldr	r3, [r3, #12]
 818 03f2 0798     		ldr	r0, [sp, #28]
 819 03f4 9847     		blx	r3
 820              	.L42:
 821              		.loc 2 336 0 is_stmt 1
 822 03f6 6B4B     		ldr	r3, .L56+4
 823 03f8 6FF40072 		mvn	r2, #512
 824 03fc 5A64     		str	r2, [r3, #68]
 825              	.L41:
 826              		.loc 2 340 0
 827 03fe 53E1     		b	.L43
 828              	.L55:
 829              	.LBB9:
 830              		.loc 2 343 0
 831 0400 684A     		ldr	r2, .L56+4
 832 0402 099B     		ldr	r3, [sp, #36]
 833 0404 03F00F03 		and	r3, r3, #15
 834 0408 0593     		str	r3, [sp, #20]
 835 040a 059B     		ldr	r3, [sp, #20]
 836 040c 52F82330 		ldr	r3, [r2, r3, lsl #2]
 837 0410 0493     		str	r3, [sp, #16]
 838              		.loc 2 344 0
 839 0412 079A     		ldr	r2, [sp, #28]
 840 0414 059B     		ldr	r3, [sp, #20]
 841 0416 0233     		adds	r3, r3, #2
 842 0418 9B00     		lsls	r3, r3, #2
 843 041a 1344     		add	r3, r3, r2
 844 041c 5B68     		ldr	r3, [r3, #4]
 845 041e 0393     		str	r3, [sp, #12]
 846              		.loc 2 346 0
ARM GAS  /tmp/ccaZEb87.s 			page 16


 847 0420 049B     		ldr	r3, [sp, #16]
 848 0422 03F08003 		and	r3, r3, #128
 849 0426 002B     		cmp	r3, #0
 850 0428 00F09680 		beq	.L44
 851              	.LBB10:
 852              		.loc 2 349 0
 853 042c 5D49     		ldr	r1, .L56+4
 854 042e 5D4A     		ldr	r2, .L56+4
 855 0430 059B     		ldr	r3, [sp, #20]
 856 0432 52F82330 		ldr	r3, [r2, r3, lsl #2]
 857 0436 23F4F143 		bic	r3, r3, #30848
 858 043a 23F07003 		bic	r3, r3, #112
 859 043e 059A     		ldr	r2, [sp, #20]
 860 0440 41F82230 		str	r3, [r1, r2, lsl #2]
 861              		.loc 2 351 0
 862 0444 574B     		ldr	r3, .L56+4
 863 0446 1A6D     		ldr	r2, [r3, #80]
 864 0448 059B     		ldr	r3, [sp, #20]
 865 044a DB00     		lsls	r3, r3, #3
 866 044c 1344     		add	r3, r3, r2
 867 044e 03F10053 		add	r3, r3, #536870912
 868 0452 03F54053 		add	r3, r3, #12288
 869 0456 5B00     		lsls	r3, r3, #1
 870 0458 9B88     		ldrh	r3, [r3, #4]	@ movhi
 871 045a 9BB2     		uxth	r3, r3
 872 045c 0293     		str	r3, [sp, #8]
 873              		.loc 2 352 0
 874 045e 039B     		ldr	r3, [sp, #12]
 875 0460 5B69     		ldr	r3, [r3, #20]
 876 0462 039A     		ldr	r2, [sp, #12]
 877 0464 5269     		ldr	r2, [r2, #20]
 878 0466 9168     		ldr	r1, [r2, #8]
 879 0468 029A     		ldr	r2, [sp, #8]
 880 046a 0A44     		add	r2, r2, r1
 881 046c 9A60     		str	r2, [r3, #8]
 882              		.loc 2 353 0
 883 046e 039B     		ldr	r3, [sp, #12]
 884 0470 5B69     		ldr	r3, [r3, #20]
 885 0472 5A68     		ldr	r2, [r3, #4]
 886 0474 039B     		ldr	r3, [sp, #12]
 887 0476 5B69     		ldr	r3, [r3, #20]
 888 0478 9B68     		ldr	r3, [r3, #8]
 889 047a D31A     		subs	r3, r2, r3
 890 047c 0893     		str	r3, [sp, #32]
 891              		.loc 2 354 0
 892 047e 089B     		ldr	r3, [sp, #32]
 893 0480 002B     		cmp	r3, #0
 894 0482 4DD0     		beq	.L45
 895              		.loc 2 356 0
 896 0484 039B     		ldr	r3, [sp, #12]
 897 0486 1B8A     		ldrh	r3, [r3, #16]
 898 0488 1A46     		mov	r2, r3
 899 048a 089B     		ldr	r3, [sp, #32]
 900 048c 9A42     		cmp	r2, r3
 901 048e 02D2     		bcs	.L46
 902              		.loc 2 357 0
 903 0490 039B     		ldr	r3, [sp, #12]
ARM GAS  /tmp/ccaZEb87.s 			page 17


 904 0492 1B8A     		ldrh	r3, [r3, #16]
 905 0494 0893     		str	r3, [sp, #32]
 906              	.L46:
 907              		.loc 2 359 0
 908 0496 039B     		ldr	r3, [sp, #12]
 909 0498 5B69     		ldr	r3, [r3, #20]
 910 049a 1B78     		ldrb	r3, [r3]	@ zero_extendqisi2
 911 049c 002B     		cmp	r3, #0
 912 049e 13D0     		beq	.L47
 913              		.loc 2 360 0
 914 04a0 404B     		ldr	r3, .L56+4
 915 04a2 1A6D     		ldr	r2, [r3, #80]
 916 04a4 059B     		ldr	r3, [sp, #20]
 917 04a6 DB00     		lsls	r3, r3, #3
 918 04a8 1344     		add	r3, r3, r2
 919 04aa 03F10053 		add	r3, r3, #536870912
 920 04ae 03F54053 		add	r3, r3, #12288
 921 04b2 5B00     		lsls	r3, r3, #1
 922 04b4 1A46     		mov	r2, r3
 923              		.loc 2 361 0
 924 04b6 039B     		ldr	r3, [sp, #12]
 925 04b8 5B69     		ldr	r3, [r3, #20]
 926              		.loc 2 360 0
 927 04ba DB68     		ldr	r3, [r3, #12]
 928 04bc 1046     		mov	r0, r2
 929 04be 1946     		mov	r1, r3
 930 04c0 089A     		ldr	r2, [sp, #32]
 931 04c2 FFF79FFE 		bl	usb_packet_write_from_queue
 932 04c6 1AE0     		b	.L48
 933              	.L47:
 934              		.loc 2 364 0
 935 04c8 039B     		ldr	r3, [sp, #12]
 936 04ca 5B69     		ldr	r3, [r3, #20]
 937 04cc 039A     		ldr	r2, [sp, #12]
 938 04ce 5269     		ldr	r2, [r2, #20]
 939 04d0 D168     		ldr	r1, [r2, #12]
 940 04d2 029A     		ldr	r2, [sp, #8]
 941 04d4 0A44     		add	r2, r2, r1
 942 04d6 DA60     		str	r2, [r3, #12]
 943              		.loc 2 365 0
 944 04d8 324B     		ldr	r3, .L56+4
 945 04da 1A6D     		ldr	r2, [r3, #80]
 946 04dc 059B     		ldr	r3, [sp, #20]
 947 04de DB00     		lsls	r3, r3, #3
 948 04e0 1344     		add	r3, r3, r2
 949 04e2 03F10053 		add	r3, r3, #536870912
 950 04e6 03F54053 		add	r3, r3, #12288
 951 04ea 5B00     		lsls	r3, r3, #1
 952 04ec 1A46     		mov	r2, r3
 953              		.loc 2 366 0
 954 04ee 039B     		ldr	r3, [sp, #12]
 955 04f0 5B69     		ldr	r3, [r3, #20]
 956              		.loc 2 365 0
 957 04f2 DB68     		ldr	r3, [r3, #12]
 958 04f4 1046     		mov	r0, r2
 959 04f6 1946     		mov	r1, r3
 960 04f8 089A     		ldr	r2, [sp, #32]
ARM GAS  /tmp/ccaZEb87.s 			page 18


 961 04fa FFF75DFE 		bl	usb_packet_write_from_buffer
 962              	.L48:
 963              	.LBB11:
 964              		.loc 2 369 0
 965 04fe 2023     		movs	r3, #32
 966              	@ 369 "/opt/R2P/core/ChibiOS_2.6.5/os/hal/platforms/STM32/USBv1/usb_lld.c" 1
 967 0500 83F31188 		msr     BASEPRI, r3
 968              	@ 0 "" 2
 969              		.thumb
 970              	.LBE11:
 971 0504 FFF7FEFF 		bl	dbg_check_lock_from_isr
 972              		.loc 2 370 0
 973 0508 059B     		ldr	r3, [sp, #20]
 974 050a DBB2     		uxtb	r3, r3
 975 050c 0798     		ldr	r0, [sp, #28]
 976 050e 1946     		mov	r1, r3
 977 0510 FFF7FEFF 		bl	usb_lld_start_in
 978              		.loc 2 371 0
 979 0514 FFF7FEFF 		bl	dbg_check_unlock_from_isr
 980              	.LBB12:
 981 0518 0023     		movs	r3, #0
 982              	@ 371 "/opt/R2P/core/ChibiOS_2.6.5/os/hal/platforms/STM32/USBv1/usb_lld.c" 1
 983 051a 83F31188 		msr     BASEPRI, r3
 984              	@ 0 "" 2
 985              		.thumb
 986              	.LBE12:
 987 051e 1BE0     		b	.L44
 988              	.L45:
 989              		.loc 2 375 0
 990 0520 079B     		ldr	r3, [sp, #28]
 991 0522 1B89     		ldrh	r3, [r3, #8]
 992 0524 99B2     		uxth	r1, r3
 993 0526 059B     		ldr	r3, [sp, #20]
 994 0528 0122     		movs	r2, #1
 995 052a 02FA03F3 		lsl	r3, r2, r3
 996 052e 9BB2     		uxth	r3, r3
 997 0530 DB43     		mvns	r3, r3
 998 0532 9BB2     		uxth	r3, r3
 999 0534 0A46     		mov	r2, r1	@ movhi
 1000 0536 1340     		ands	r3, r3, r2
 1001 0538 9BB2     		uxth	r3, r3
 1002 053a 9AB2     		uxth	r2, r3
 1003 053c 079B     		ldr	r3, [sp, #28]
 1004 053e 1A81     		strh	r2, [r3, #8]	@ movhi
 1005 0540 079A     		ldr	r2, [sp, #28]
 1006 0542 059B     		ldr	r3, [sp, #20]
 1007 0544 0233     		adds	r3, r3, #2
 1008 0546 9B00     		lsls	r3, r3, #2
 1009 0548 1344     		add	r3, r3, r2
 1010 054a 5B68     		ldr	r3, [r3, #4]
 1011 054c 9B68     		ldr	r3, [r3, #8]
 1012 054e 059A     		ldr	r2, [sp, #20]
 1013 0550 D2B2     		uxtb	r2, r2
 1014 0552 0798     		ldr	r0, [sp, #28]
 1015 0554 1146     		mov	r1, r2
 1016 0556 9847     		blx	r3
 1017              	.L44:
ARM GAS  /tmp/ccaZEb87.s 			page 19


 1018              	.LBE10:
 1019              		.loc 2 378 0
 1020 0558 049B     		ldr	r3, [sp, #16]
 1021 055a 03F40043 		and	r3, r3, #32768
 1022 055e 002B     		cmp	r3, #0
 1023 0560 00F09F80 		beq	.L49
 1024              		.loc 2 379 0
 1025 0564 0F49     		ldr	r1, .L56+4
 1026 0566 0F4A     		ldr	r2, .L56+4
 1027 0568 059B     		ldr	r3, [sp, #20]
 1028 056a 52F82330 		ldr	r3, [r2, r3, lsl #2]
 1029 056e 23F47843 		bic	r3, r3, #63488
 1030 0572 23F07003 		bic	r3, r3, #112
 1031 0576 059A     		ldr	r2, [sp, #20]
 1032 0578 41F82230 		str	r3, [r1, r2, lsl #2]
 1033              		.loc 2 381 0
 1034 057c 049B     		ldr	r3, [sp, #16]
 1035 057e 03F40063 		and	r3, r3, #2048
 1036 0582 002B     		cmp	r3, #0
 1037 0584 10D0     		beq	.L50
 1038              		.loc 2 384 0
 1039 0586 079A     		ldr	r2, [sp, #28]
 1040 0588 059B     		ldr	r3, [sp, #20]
 1041 058a 0233     		adds	r3, r3, #2
 1042 058c 9B00     		lsls	r3, r3, #2
 1043 058e 1344     		add	r3, r3, r2
 1044 0590 5B68     		ldr	r3, [r3, #4]
 1045 0592 5B68     		ldr	r3, [r3, #4]
 1046 0594 059A     		ldr	r2, [sp, #20]
 1047 0596 D2B2     		uxtb	r2, r2
 1048 0598 0798     		ldr	r0, [sp, #28]
 1049 059a 1146     		mov	r1, r2
 1050 059c 9847     		blx	r3
 1051 059e 80E0     		b	.L49
 1052              	.L57:
 1053              		.align	2
 1054              	.L56:
 1055 05a0 00000000 		.word	USBD1
 1056 05a4 005C0040 		.word	1073765376
 1057              	.L50:
 1058              	.LBB13:
 1059              		.loc 2 387 0
 1060 05a8 464B     		ldr	r3, .L58
 1061 05aa 1A6D     		ldr	r2, [r3, #80]
 1062 05ac 059B     		ldr	r3, [sp, #20]
 1063 05ae DB00     		lsls	r3, r3, #3
 1064 05b0 1344     		add	r3, r3, r2
 1065 05b2 03F10053 		add	r3, r3, #536870912
 1066 05b6 03F54053 		add	r3, r3, #12288
 1067 05ba 5B00     		lsls	r3, r3, #1
 1068 05bc 0193     		str	r3, [sp, #4]
 1069              		.loc 2 388 0
 1070 05be 019B     		ldr	r3, [sp, #4]
 1071 05c0 9B89     		ldrh	r3, [r3, #12]	@ movhi
 1072 05c2 9BB2     		uxth	r3, r3
 1073 05c4 C3F30903 		ubfx	r3, r3, #0, #10
 1074 05c8 0893     		str	r3, [sp, #32]
ARM GAS  /tmp/ccaZEb87.s 			page 20


 1075              		.loc 2 391 0
 1076 05ca 039B     		ldr	r3, [sp, #12]
 1077 05cc 9B69     		ldr	r3, [r3, #24]
 1078 05ce 1B78     		ldrb	r3, [r3]	@ zero_extendqisi2
 1079 05d0 002B     		cmp	r3, #0
 1080 05d2 08D0     		beq	.L51
 1081              		.loc 2 393 0
 1082 05d4 039B     		ldr	r3, [sp, #12]
 1083 05d6 9B69     		ldr	r3, [r3, #24]
 1084              		.loc 2 392 0
 1085 05d8 DB68     		ldr	r3, [r3, #12]
 1086 05da 0198     		ldr	r0, [sp, #4]
 1087 05dc 1946     		mov	r1, r3
 1088 05de 089A     		ldr	r2, [sp, #32]
 1089 05e0 FFF76CFD 		bl	usb_packet_read_to_queue
 1090 05e4 0FE0     		b	.L52
 1091              	.L51:
 1092              		.loc 2 397 0
 1093 05e6 039B     		ldr	r3, [sp, #12]
 1094 05e8 9B69     		ldr	r3, [r3, #24]
 1095              		.loc 2 396 0
 1096 05ea DB68     		ldr	r3, [r3, #12]
 1097 05ec 0198     		ldr	r0, [sp, #4]
 1098 05ee 1946     		mov	r1, r3
 1099 05f0 089A     		ldr	r2, [sp, #32]
 1100 05f2 FFF73FFD 		bl	usb_packet_read_to_buffer
 1101              		.loc 2 399 0
 1102 05f6 039B     		ldr	r3, [sp, #12]
 1103 05f8 9B69     		ldr	r3, [r3, #24]
 1104 05fa 039A     		ldr	r2, [sp, #12]
 1105 05fc 9269     		ldr	r2, [r2, #24]
 1106 05fe D168     		ldr	r1, [r2, #12]
 1107 0600 089A     		ldr	r2, [sp, #32]
 1108 0602 0A44     		add	r2, r2, r1
 1109 0604 DA60     		str	r2, [r3, #12]
 1110              	.L52:
 1111              		.loc 2 402 0
 1112 0606 039B     		ldr	r3, [sp, #12]
 1113 0608 9B69     		ldr	r3, [r3, #24]
 1114 060a 039A     		ldr	r2, [sp, #12]
 1115 060c 9269     		ldr	r2, [r2, #24]
 1116 060e 9168     		ldr	r1, [r2, #8]
 1117 0610 089A     		ldr	r2, [sp, #32]
 1118 0612 0A44     		add	r2, r2, r1
 1119 0614 9A60     		str	r2, [r3, #8]
 1120              		.loc 2 403 0
 1121 0616 039B     		ldr	r3, [sp, #12]
 1122 0618 9B69     		ldr	r3, [r3, #24]
 1123 061a 039A     		ldr	r2, [sp, #12]
 1124 061c 9269     		ldr	r2, [r2, #24]
 1125 061e 5168     		ldr	r1, [r2, #4]
 1126 0620 089A     		ldr	r2, [sp, #32]
 1127 0622 8A1A     		subs	r2, r1, r2
 1128 0624 5A60     		str	r2, [r3, #4]
 1129              		.loc 2 404 0
 1130 0626 039B     		ldr	r3, [sp, #12]
 1131 0628 9B69     		ldr	r3, [r3, #24]
ARM GAS  /tmp/ccaZEb87.s 			page 21


 1132 062a 039A     		ldr	r2, [sp, #12]
 1133 062c 9269     		ldr	r2, [r2, #24]
 1134 062e 128A     		ldrh	r2, [r2, #16]
 1135 0630 013A     		subs	r2, r2, #1
 1136 0632 92B2     		uxth	r2, r2
 1137 0634 1A82     		strh	r2, [r3, #16]	@ movhi
 1138              		.loc 2 408 0
 1139 0636 039B     		ldr	r3, [sp, #12]
 1140 0638 5B8A     		ldrh	r3, [r3, #18]
 1141 063a 1A46     		mov	r2, r3
 1142 063c 089B     		ldr	r3, [sp, #32]
 1143 063e 9A42     		cmp	r2, r3
 1144 0640 04D8     		bhi	.L53
 1145              		.loc 2 408 0 is_stmt 0 discriminator 1
 1146 0642 039B     		ldr	r3, [sp, #12]
 1147 0644 9B69     		ldr	r3, [r3, #24]
 1148 0646 1B8A     		ldrh	r3, [r3, #16]
 1149 0648 002B     		cmp	r3, #0
 1150 064a 1CD1     		bne	.L54
 1151              	.L53:
 1152              		.loc 2 410 0 is_stmt 1
 1153 064c 079B     		ldr	r3, [sp, #28]
 1154 064e 5B89     		ldrh	r3, [r3, #10]
 1155 0650 99B2     		uxth	r1, r3
 1156 0652 059B     		ldr	r3, [sp, #20]
 1157 0654 0122     		movs	r2, #1
 1158 0656 02FA03F3 		lsl	r3, r2, r3
 1159 065a 9BB2     		uxth	r3, r3
 1160 065c DB43     		mvns	r3, r3
 1161 065e 9BB2     		uxth	r3, r3
 1162 0660 0A46     		mov	r2, r1	@ movhi
 1163 0662 1340     		ands	r3, r3, r2
 1164 0664 9BB2     		uxth	r3, r3
 1165 0666 9AB2     		uxth	r2, r3
 1166 0668 079B     		ldr	r3, [sp, #28]
 1167 066a 5A81     		strh	r2, [r3, #10]	@ movhi
 1168 066c 079A     		ldr	r2, [sp, #28]
 1169 066e 059B     		ldr	r3, [sp, #20]
 1170 0670 0233     		adds	r3, r3, #2
 1171 0672 9B00     		lsls	r3, r3, #2
 1172 0674 1344     		add	r3, r3, r2
 1173 0676 5B68     		ldr	r3, [r3, #4]
 1174 0678 DB68     		ldr	r3, [r3, #12]
 1175 067a 059A     		ldr	r2, [sp, #20]
 1176 067c D2B2     		uxtb	r2, r2
 1177 067e 0798     		ldr	r0, [sp, #28]
 1178 0680 1146     		mov	r1, r2
 1179 0682 9847     		blx	r3
 1180 0684 0DE0     		b	.L49
 1181              	.L54:
 1182              		.loc 2 414 0
 1183 0686 0F49     		ldr	r1, .L58
 1184 0688 0E4A     		ldr	r2, .L58
 1185 068a 059B     		ldr	r3, [sp, #20]
 1186 068c 52F82330 		ldr	r3, [r2, r3, lsl #2]
 1187 0690 23F49043 		bic	r3, r3, #18432
 1188 0694 23F07003 		bic	r3, r3, #112
ARM GAS  /tmp/ccaZEb87.s 			page 22


 1189 0698 83F44052 		eor	r2, r3, #12288
 1190 069c 059B     		ldr	r3, [sp, #20]
 1191 069e 41F82320 		str	r2, [r1, r3, lsl #2]
 1192              	.L49:
 1193              	.LBE13:
 1194              		.loc 2 418 0
 1195 06a2 084B     		ldr	r3, .L58
 1196 06a4 5B6C     		ldr	r3, [r3, #68]
 1197 06a6 0993     		str	r3, [sp, #36]
 1198              	.L43:
 1199              	.LBE9:
 1200              		.loc 2 340 0
 1201 06a8 099B     		ldr	r3, [sp, #36]
 1202 06aa 03F40043 		and	r3, r3, #32768
 1203 06ae 002B     		cmp	r3, #0
 1204 06b0 7FF4A6AE 		bne	.L55
 1205              		.loc 2 421 0
 1206 06b4 FFF7FEFF 		bl	dbg_check_leave_isr
 1207 06b8 FFF7FEFF 		bl	_port_irq_epilogue
 1208              		.loc 2 422 0
 1209 06bc 0BB0     		add	sp, sp, #44
 1210              		.cfi_def_cfa_offset 4
 1211              		@ sp needed
 1212 06be 5DF804FB 		ldr	pc, [sp], #4
 1213              	.L59:
 1214 06c2 00BF     		.align	2
 1215              	.L58:
 1216 06c4 005C0040 		.word	1073765376
 1217              		.cfi_endproc
 1218              	.LFE125:
 1219              		.size	Vector16C, .-Vector16C
 1220              		.align	2
 1221              		.global	usb_lld_init
 1222              		.thumb
 1223              		.thumb_func
 1224              		.type	usb_lld_init, %function
 1225              	usb_lld_init:
 1226              	.LFB126:
 1227              		.loc 2 434 0
 1228              		.cfi_startproc
 1229              		@ args = 0, pretend = 0, frame = 0
 1230              		@ frame_needed = 0, uses_anonymous_args = 0
 1231 06c8 08B5     		push	{r3, lr}
 1232              		.cfi_def_cfa_offset 8
 1233              		.cfi_offset 3, -8
 1234              		.cfi_offset 14, -4
 1235              		.loc 2 437 0
 1236 06ca 0248     		ldr	r0, .L61
 1237 06cc FFF7FEFF 		bl	usbObjectInit
 1238              		.loc 2 438 0
 1239 06d0 08BD     		pop	{r3, pc}
 1240              	.L62:
 1241 06d2 00BF     		.align	2
 1242              	.L61:
 1243 06d4 00000000 		.word	USBD1
 1244              		.cfi_endproc
 1245              	.LFE126:
ARM GAS  /tmp/ccaZEb87.s 			page 23


 1246              		.size	usb_lld_init, .-usb_lld_init
 1247              		.align	2
 1248              		.global	usb_lld_start
 1249              		.thumb
 1250              		.thumb_func
 1251              		.type	usb_lld_start, %function
 1252              	usb_lld_start:
 1253              	.LFB127:
 1254              		.loc 2 447 0
 1255              		.cfi_startproc
 1256              		@ args = 0, pretend = 0, frame = 8
 1257              		@ frame_needed = 0, uses_anonymous_args = 0
 1258 06d8 00B5     		push	{lr}
 1259              		.cfi_def_cfa_offset 4
 1260              		.cfi_offset 14, -4
 1261 06da 83B0     		sub	sp, sp, #12
 1262              		.cfi_def_cfa_offset 16
 1263 06dc 0190     		str	r0, [sp, #4]
 1264              		.loc 2 449 0
 1265 06de 019B     		ldr	r3, [sp, #4]
 1266 06e0 1B78     		ldrb	r3, [r3]	@ zero_extendqisi2
 1267 06e2 012B     		cmp	r3, #1
 1268 06e4 1AD1     		bne	.L63
 1269              		.loc 2 452 0
 1270 06e6 019B     		ldr	r3, [sp, #4]
 1271 06e8 0E4A     		ldr	r2, .L66
 1272 06ea 9342     		cmp	r3, r2
 1273 06ec 13D1     		bne	.L65
 1274              		.loc 2 454 0
 1275 06ee 0E4A     		ldr	r2, .L66+4
 1276 06f0 0D4B     		ldr	r3, .L66+4
 1277 06f2 DB69     		ldr	r3, [r3, #28]
 1278 06f4 43F40003 		orr	r3, r3, #8388608
 1279 06f8 D361     		str	r3, [r2, #28]
 1280              		.loc 2 456 0
 1281 06fa 0C4B     		ldr	r3, .L66+8
 1282 06fc 0122     		movs	r2, #1
 1283 06fe 1A64     		str	r2, [r3, #64]
 1284              		.loc 2 459 0
 1285 0700 4A20     		movs	r0, #74
 1286 0702 D021     		movs	r1, #208
 1287 0704 FFF7FEFF 		bl	nvicEnableVector
 1288              		.loc 2 461 0
 1289 0708 4B20     		movs	r0, #75
 1290 070a E021     		movs	r1, #224
 1291 070c FFF7FEFF 		bl	nvicEnableVector
 1292              		.loc 2 464 0
 1293 0710 064B     		ldr	r3, .L66+8
 1294 0712 0022     		movs	r2, #0
 1295 0714 1A64     		str	r2, [r3, #64]
 1296              	.L65:
 1297              		.loc 2 468 0
 1298 0716 0198     		ldr	r0, [sp, #4]
 1299 0718 FFF7FEFF 		bl	_usb_reset
 1300              	.L63:
 1301              		.loc 2 471 0
 1302 071c 03B0     		add	sp, sp, #12
ARM GAS  /tmp/ccaZEb87.s 			page 24


 1303              		.cfi_def_cfa_offset 4
 1304              		@ sp needed
 1305 071e 5DF804FB 		ldr	pc, [sp], #4
 1306              	.L67:
 1307 0722 00BF     		.align	2
 1308              	.L66:
 1309 0724 00000000 		.word	USBD1
 1310 0728 00100240 		.word	1073876992
 1311 072c 005C0040 		.word	1073765376
 1312              		.cfi_endproc
 1313              	.LFE127:
 1314              		.size	usb_lld_start, .-usb_lld_start
 1315              		.align	2
 1316              		.global	usb_lld_stop
 1317              		.thumb
 1318              		.thumb_func
 1319              		.type	usb_lld_stop, %function
 1320              	usb_lld_stop:
 1321              	.LFB128:
 1322              		.loc 2 480 0
 1323              		.cfi_startproc
 1324              		@ args = 0, pretend = 0, frame = 8
 1325              		@ frame_needed = 0, uses_anonymous_args = 0
 1326 0730 00B5     		push	{lr}
 1327              		.cfi_def_cfa_offset 4
 1328              		.cfi_offset 14, -4
 1329 0732 83B0     		sub	sp, sp, #12
 1330              		.cfi_def_cfa_offset 16
 1331 0734 0190     		str	r0, [sp, #4]
 1332              		.loc 2 483 0
 1333 0736 019B     		ldr	r3, [sp, #4]
 1334 0738 1B78     		ldrb	r3, [r3]	@ zero_extendqisi2
 1335 073a 012B     		cmp	r3, #1
 1336 073c 12D1     		bne	.L68
 1337              		.loc 2 485 0
 1338 073e 019B     		ldr	r3, [sp, #4]
 1339 0740 0A4A     		ldr	r2, .L70
 1340 0742 9342     		cmp	r3, r2
 1341 0744 0ED1     		bne	.L68
 1342              		.loc 2 486 0
 1343 0746 4A20     		movs	r0, #74
 1344 0748 FFF7FEFF 		bl	nvicDisableVector
 1345              		.loc 2 487 0
 1346 074c 4B20     		movs	r0, #75
 1347 074e FFF7FEFF 		bl	nvicDisableVector
 1348              		.loc 2 488 0
 1349 0752 074B     		ldr	r3, .L70+4
 1350 0754 0322     		movs	r2, #3
 1351 0756 1A64     		str	r2, [r3, #64]
 1352              		.loc 2 489 0
 1353 0758 064A     		ldr	r2, .L70+8
 1354 075a 064B     		ldr	r3, .L70+8
 1355 075c DB69     		ldr	r3, [r3, #28]
 1356 075e 23F40003 		bic	r3, r3, #8388608
 1357 0762 D361     		str	r3, [r2, #28]
 1358              	.L68:
 1359              		.loc 2 493 0
ARM GAS  /tmp/ccaZEb87.s 			page 25


 1360 0764 03B0     		add	sp, sp, #12
 1361              		.cfi_def_cfa_offset 4
 1362              		@ sp needed
 1363 0766 5DF804FB 		ldr	pc, [sp], #4
 1364              	.L71:
 1365 076a 00BF     		.align	2
 1366              	.L70:
 1367 076c 00000000 		.word	USBD1
 1368 0770 005C0040 		.word	1073765376
 1369 0774 00100240 		.word	1073876992
 1370              		.cfi_endproc
 1371              	.LFE128:
 1372              		.size	usb_lld_stop, .-usb_lld_stop
 1373              		.align	2
 1374              		.global	usb_lld_reset
 1375              		.thumb
 1376              		.thumb_func
 1377              		.type	usb_lld_reset, %function
 1378              	usb_lld_reset:
 1379              	.LFB129:
 1380              		.loc 2 502 0
 1381              		.cfi_startproc
 1382              		@ args = 0, pretend = 0, frame = 16
 1383              		@ frame_needed = 0, uses_anonymous_args = 0
 1384 0778 00B5     		push	{lr}
 1385              		.cfi_def_cfa_offset 4
 1386              		.cfi_offset 14, -4
 1387 077a 85B0     		sub	sp, sp, #20
 1388              		.cfi_def_cfa_offset 24
 1389 077c 0190     		str	r0, [sp, #4]
 1390              		.loc 2 506 0
 1391 077e 124B     		ldr	r3, .L74
 1392 0780 0022     		movs	r2, #0
 1393 0782 1A65     		str	r2, [r3, #80]
 1394              		.loc 2 507 0
 1395 0784 104B     		ldr	r3, .L74
 1396 0786 0022     		movs	r2, #0
 1397 0788 5A64     		str	r2, [r3, #68]
 1398              		.loc 2 508 0
 1399 078a 0F4B     		ldr	r3, .L74
 1400 078c 8022     		movs	r2, #128
 1401 078e DA64     		str	r2, [r3, #76]
 1402              		.loc 2 509 0
 1403 0790 4FF41C43 		mov	r3, #39936
 1404 0794 0393     		str	r3, [sp, #12]
 1405              		.loc 2 513 0
 1406 0796 019B     		ldr	r3, [sp, #4]
 1407 0798 5B68     		ldr	r3, [r3, #4]
 1408 079a DB68     		ldr	r3, [r3, #12]
 1409 079c 002B     		cmp	r3, #0
 1410 079e 03D0     		beq	.L73
 1411              		.loc 2 514 0
 1412 07a0 039B     		ldr	r3, [sp, #12]
 1413 07a2 43F40073 		orr	r3, r3, #512
 1414 07a6 0393     		str	r3, [sp, #12]
 1415              	.L73:
 1416              		.loc 2 515 0
ARM GAS  /tmp/ccaZEb87.s 			page 26


 1417 07a8 074A     		ldr	r2, .L74
 1418 07aa 039B     		ldr	r3, [sp, #12]
 1419 07ac 1364     		str	r3, [r2, #64]
 1420              		.loc 2 518 0
 1421 07ae 0198     		ldr	r0, [sp, #4]
 1422 07b0 FFF738FC 		bl	usb_pm_reset
 1423              		.loc 2 521 0
 1424 07b4 019B     		ldr	r3, [sp, #4]
 1425 07b6 054A     		ldr	r2, .L74+4
 1426 07b8 DA60     		str	r2, [r3, #12]
 1427              		.loc 2 522 0
 1428 07ba 0198     		ldr	r0, [sp, #4]
 1429 07bc 0021     		movs	r1, #0
 1430 07be FFF7FEFF 		bl	usb_lld_init_endpoint
 1431              		.loc 2 523 0
 1432 07c2 05B0     		add	sp, sp, #20
 1433              		.cfi_def_cfa_offset 4
 1434              		@ sp needed
 1435 07c4 5DF804FB 		ldr	pc, [sp], #4
 1436              	.L75:
 1437              		.align	2
 1438              	.L74:
 1439 07c8 005C0040 		.word	1073765376
 1440 07cc 00000000 		.word	ep0config
 1441              		.cfi_endproc
 1442              	.LFE129:
 1443              		.size	usb_lld_reset, .-usb_lld_reset
 1444              		.align	2
 1445              		.global	usb_lld_set_address
 1446              		.thumb
 1447              		.thumb_func
 1448              		.type	usb_lld_set_address, %function
 1449              	usb_lld_set_address:
 1450              	.LFB130:
 1451              		.loc 2 532 0
 1452              		.cfi_startproc
 1453              		@ args = 0, pretend = 0, frame = 8
 1454              		@ frame_needed = 0, uses_anonymous_args = 0
 1455              		@ link register save eliminated.
 1456 07d0 82B0     		sub	sp, sp, #8
 1457              		.cfi_def_cfa_offset 8
 1458 07d2 0190     		str	r0, [sp, #4]
 1459              		.loc 2 534 0
 1460 07d4 044A     		ldr	r2, .L77
 1461 07d6 019B     		ldr	r3, [sp, #4]
 1462 07d8 93F87E30 		ldrb	r3, [r3, #126]	@ zero_extendqisi2
 1463 07dc 63F07F03 		orn	r3, r3, #127
 1464 07e0 DBB2     		uxtb	r3, r3
 1465 07e2 D364     		str	r3, [r2, #76]
 1466              		.loc 2 535 0
 1467 07e4 02B0     		add	sp, sp, #8
 1468              		.cfi_def_cfa_offset 0
 1469              		@ sp needed
 1470 07e6 7047     		bx	lr
 1471              	.L78:
 1472              		.align	2
 1473              	.L77:
ARM GAS  /tmp/ccaZEb87.s 			page 27


 1474 07e8 005C0040 		.word	1073765376
 1475              		.cfi_endproc
 1476              	.LFE130:
 1477              		.size	usb_lld_set_address, .-usb_lld_set_address
 1478              		.align	2
 1479              		.global	usb_lld_init_endpoint
 1480              		.thumb
 1481              		.thumb_func
 1482              		.type	usb_lld_init_endpoint, %function
 1483              	usb_lld_init_endpoint:
 1484              	.LFB131:
 1485              		.loc 2 545 0
 1486              		.cfi_startproc
 1487              		@ args = 0, pretend = 0, frame = 24
 1488              		@ frame_needed = 0, uses_anonymous_args = 0
 1489 07ec 10B5     		push	{r4, lr}
 1490              		.cfi_def_cfa_offset 8
 1491              		.cfi_offset 4, -8
 1492              		.cfi_offset 14, -4
 1493 07ee 86B0     		sub	sp, sp, #24
 1494              		.cfi_def_cfa_offset 32
 1495 07f0 0190     		str	r0, [sp, #4]
 1496 07f2 0B46     		mov	r3, r1
 1497 07f4 8DF80330 		strb	r3, [sp, #3]
 1498              		.loc 2 548 0
 1499 07f8 9DF80330 		ldrb	r3, [sp, #3]	@ zero_extendqisi2
 1500 07fc 019A     		ldr	r2, [sp, #4]
 1501 07fe 0233     		adds	r3, r3, #2
 1502 0800 9B00     		lsls	r3, r3, #2
 1503 0802 1344     		add	r3, r3, r2
 1504 0804 5B68     		ldr	r3, [r3, #4]
 1505 0806 0493     		str	r3, [sp, #16]
 1506              		.loc 2 551 0
 1507 0808 049B     		ldr	r3, [sp, #16]
 1508 080a 1B68     		ldr	r3, [r3]
 1509 080c 03F00303 		and	r3, r3, #3
 1510 0810 022B     		cmp	r3, #2
 1511 0812 08D0     		beq	.L81
 1512 0814 032B     		cmp	r3, #3
 1513 0816 0AD0     		beq	.L82
 1514 0818 012B     		cmp	r3, #1
 1515 081a 0DD1     		bne	.L90
 1516              		.loc 2 553 0
 1517 081c 4FF48063 		mov	r3, #1024
 1518 0820 ADF81430 		strh	r3, [sp, #20]	@ movhi
 1519              		.loc 2 554 0
 1520 0824 0CE0     		b	.L84
 1521              	.L81:
 1522              		.loc 2 556 0
 1523 0826 0023     		movs	r3, #0
 1524 0828 ADF81430 		strh	r3, [sp, #20]	@ movhi
 1525              		.loc 2 557 0
 1526 082c 08E0     		b	.L84
 1527              	.L82:
 1528              		.loc 2 559 0
 1529 082e 4FF4C063 		mov	r3, #1536
 1530 0832 ADF81430 		strh	r3, [sp, #20]	@ movhi
ARM GAS  /tmp/ccaZEb87.s 			page 28


 1531              		.loc 2 560 0
 1532 0836 03E0     		b	.L84
 1533              	.L90:
 1534              		.loc 2 562 0
 1535 0838 4FF40073 		mov	r3, #512
 1536 083c ADF81430 		strh	r3, [sp, #20]	@ movhi
 1537              	.L84:
 1538              		.loc 2 566 0
 1539 0840 049B     		ldr	r3, [sp, #16]
 1540 0842 9B68     		ldr	r3, [r3, #8]
 1541 0844 002B     		cmp	r3, #0
 1542 0846 05D0     		beq	.L85
 1543              		.loc 2 567 0
 1544 0848 BDF81430 		ldrh	r3, [sp, #20]	@ movhi
 1545 084c 43F02003 		orr	r3, r3, #32
 1546 0850 ADF81430 		strh	r3, [sp, #20]	@ movhi
 1547              	.L85:
 1548              		.loc 2 570 0
 1549 0854 049B     		ldr	r3, [sp, #16]
 1550 0856 DB68     		ldr	r3, [r3, #12]
 1551 0858 002B     		cmp	r3, #0
 1552 085a 05D0     		beq	.L86
 1553              		.loc 2 571 0
 1554 085c BDF81430 		ldrh	r3, [sp, #20]	@ movhi
 1555 0860 43F40053 		orr	r3, r3, #8192
 1556 0864 ADF81430 		strh	r3, [sp, #20]	@ movhi
 1557              	.L86:
 1558              		.loc 2 574 0
 1559 0868 3448     		ldr	r0, .L91
 1560 086a 9DF80320 		ldrb	r2, [sp, #3]	@ zero_extendqisi2
 1561 086e BDF81410 		ldrh	r1, [sp, #20]
 1562 0872 9DF80330 		ldrb	r3, [sp, #3]	@ zero_extendqisi2
 1563 0876 0B43     		orrs	r3, r3, r1
 1564 0878 23F4F043 		bic	r3, r3, #30720
 1565 087c 23F07003 		bic	r3, r3, #112
 1566 0880 40F82230 		str	r3, [r0, r2, lsl #2]
 1567              		.loc 2 575 0
 1568 0884 2D4C     		ldr	r4, .L91
 1569 0886 9DF80320 		ldrb	r2, [sp, #3]	@ zero_extendqisi2
 1570 088a 2C49     		ldr	r1, .L91
 1571 088c 9DF80330 		ldrb	r3, [sp, #3]	@ zero_extendqisi2
 1572 0890 51F82310 		ldr	r1, [r1, r3, lsl #2]
 1573 0894 BDF81400 		ldrh	r0, [sp, #20]
 1574 0898 47F67003 		movw	r3, #30832
 1575 089c 0340     		ands	r3, r3, r0
 1576 089e 4B40     		eors	r3, r3, r1
 1577 08a0 44F82230 		str	r3, [r4, r2, lsl #2]
 1578              		.loc 2 578 0
 1579 08a4 049B     		ldr	r3, [sp, #16]
 1580 08a6 5B8A     		ldrh	r3, [r3, #18]
 1581 08a8 3E2B     		cmp	r3, #62
 1582 08aa 13D9     		bls	.L87
 1583              		.loc 2 579 0
 1584 08ac 049B     		ldr	r3, [sp, #16]
 1585 08ae 5B8A     		ldrh	r3, [r3, #18]
 1586 08b0 013B     		subs	r3, r3, #1
 1587 08b2 43F01F03 		orr	r3, r3, #31
ARM GAS  /tmp/ccaZEb87.s 			page 29


 1588 08b6 0133     		adds	r3, r3, #1
 1589 08b8 002B     		cmp	r3, #0
 1590 08ba 00DA     		bge	.L88
 1591 08bc 1F33     		adds	r3, r3, #31
 1592              	.L88:
 1593 08be 5B11     		asrs	r3, r3, #5
 1594 08c0 9B02     		lsls	r3, r3, #10
 1595 08c2 9BB2     		uxth	r3, r3
 1596 08c4 6FEA4343 		mvn	r3, r3, lsl #17
 1597 08c8 6FEA5343 		mvn	r3, r3, lsr #17
 1598 08cc 9BB2     		uxth	r3, r3
 1599 08ce ADF81630 		strh	r3, [sp, #22]	@ movhi
 1600 08d2 0CE0     		b	.L89
 1601              	.L87:
 1602              		.loc 2 582 0
 1603 08d4 049B     		ldr	r3, [sp, #16]
 1604 08d6 5B8A     		ldrh	r3, [r3, #18]
 1605 08d8 013B     		subs	r3, r3, #1
 1606 08da 43F00103 		orr	r3, r3, #1
 1607 08de 0133     		adds	r3, r3, #1
 1608 08e0 DA0F     		lsrs	r2, r3, #31
 1609 08e2 1344     		add	r3, r3, r2
 1610 08e4 5B10     		asrs	r3, r3, #1
 1611 08e6 9BB2     		uxth	r3, r3
 1612 08e8 9B02     		lsls	r3, r3, #10
 1613 08ea ADF81630 		strh	r3, [sp, #22]	@ movhi
 1614              	.L89:
 1615              		.loc 2 583 0
 1616 08ee 134B     		ldr	r3, .L91
 1617 08f0 1A6D     		ldr	r2, [r3, #80]
 1618 08f2 9DF80330 		ldrb	r3, [sp, #3]	@ zero_extendqisi2
 1619 08f6 DB00     		lsls	r3, r3, #3
 1620 08f8 1344     		add	r3, r3, r2
 1621 08fa 03F10053 		add	r3, r3, #536870912
 1622 08fe 03F54053 		add	r3, r3, #12288
 1623 0902 5B00     		lsls	r3, r3, #1
 1624 0904 0393     		str	r3, [sp, #12]
 1625              		.loc 2 584 0
 1626 0906 039B     		ldr	r3, [sp, #12]
 1627 0908 0022     		movs	r2, #0
 1628 090a 9A80     		strh	r2, [r3, #4]	@ movhi
 1629              		.loc 2 585 0
 1630 090c 039B     		ldr	r3, [sp, #12]
 1631 090e BDF81620 		ldrh	r2, [sp, #22]	@ movhi
 1632 0912 9A81     		strh	r2, [r3, #12]	@ movhi
 1633              		.loc 2 586 0
 1634 0914 049B     		ldr	r3, [sp, #16]
 1635 0916 1B8A     		ldrh	r3, [r3, #16]
 1636 0918 0198     		ldr	r0, [sp, #4]
 1637 091a 1946     		mov	r1, r3
 1638 091c FFF78AFB 		bl	usb_pm_alloc
 1639 0920 0246     		mov	r2, r0
 1640 0922 039B     		ldr	r3, [sp, #12]
 1641 0924 1A60     		str	r2, [r3]
 1642              		.loc 2 587 0
 1643 0926 049B     		ldr	r3, [sp, #16]
 1644 0928 5B8A     		ldrh	r3, [r3, #18]
ARM GAS  /tmp/ccaZEb87.s 			page 30


 1645 092a 0198     		ldr	r0, [sp, #4]
 1646 092c 1946     		mov	r1, r3
 1647 092e FFF781FB 		bl	usb_pm_alloc
 1648 0932 0246     		mov	r2, r0
 1649 0934 039B     		ldr	r3, [sp, #12]
 1650 0936 9A60     		str	r2, [r3, #8]
 1651              		.loc 2 588 0
 1652 0938 06B0     		add	sp, sp, #24
 1653              		.cfi_def_cfa_offset 8
 1654              		@ sp needed
 1655 093a 10BD     		pop	{r4, pc}
 1656              	.L92:
 1657              		.align	2
 1658              	.L91:
 1659 093c 005C0040 		.word	1073765376
 1660              		.cfi_endproc
 1661              	.LFE131:
 1662              		.size	usb_lld_init_endpoint, .-usb_lld_init_endpoint
 1663              		.align	2
 1664              		.global	usb_lld_disable_endpoints
 1665              		.thumb
 1666              		.thumb_func
 1667              		.type	usb_lld_disable_endpoints, %function
 1668              	usb_lld_disable_endpoints:
 1669              	.LFB132:
 1670              		.loc 2 597 0
 1671              		.cfi_startproc
 1672              		@ args = 0, pretend = 0, frame = 16
 1673              		@ frame_needed = 0, uses_anonymous_args = 0
 1674 0940 00B5     		push	{lr}
 1675              		.cfi_def_cfa_offset 4
 1676              		.cfi_offset 14, -4
 1677 0942 85B0     		sub	sp, sp, #20
 1678              		.cfi_def_cfa_offset 24
 1679 0944 0190     		str	r0, [sp, #4]
 1680              		.loc 2 601 0
 1681 0946 0198     		ldr	r0, [sp, #4]
 1682 0948 FFF76CFB 		bl	usb_pm_reset
 1683              		.loc 2 604 0
 1684 094c 0123     		movs	r3, #1
 1685 094e 0393     		str	r3, [sp, #12]
 1686 0950 0FE0     		b	.L94
 1687              	.L95:
 1688              		.loc 2 605 0 discriminator 3
 1689 0952 0B49     		ldr	r1, .L96
 1690 0954 0A4A     		ldr	r2, .L96
 1691 0956 039B     		ldr	r3, [sp, #12]
 1692 0958 52F82320 		ldr	r2, [r2, r3, lsl #2]
 1693 095c 039B     		ldr	r3, [sp, #12]
 1694 095e 41F82320 		str	r2, [r1, r3, lsl #2]
 1695              		.loc 2 606 0 discriminator 3
 1696 0962 074A     		ldr	r2, .L96
 1697 0964 039B     		ldr	r3, [sp, #12]
 1698 0966 0021     		movs	r1, #0
 1699 0968 42F82310 		str	r1, [r2, r3, lsl #2]
 1700              		.loc 2 604 0 discriminator 3
 1701 096c 039B     		ldr	r3, [sp, #12]
ARM GAS  /tmp/ccaZEb87.s 			page 31


 1702 096e 0133     		adds	r3, r3, #1
 1703 0970 0393     		str	r3, [sp, #12]
 1704              	.L94:
 1705              		.loc 2 604 0 is_stmt 0 discriminator 1
 1706 0972 039B     		ldr	r3, [sp, #12]
 1707 0974 072B     		cmp	r3, #7
 1708 0976 ECD9     		bls	.L95
 1709              		.loc 2 608 0 is_stmt 1
 1710 0978 05B0     		add	sp, sp, #20
 1711              		.cfi_def_cfa_offset 4
 1712              		@ sp needed
 1713 097a 5DF804FB 		ldr	pc, [sp], #4
 1714              	.L97:
 1715 097e 00BF     		.align	2
 1716              	.L96:
 1717 0980 005C0040 		.word	1073765376
 1718              		.cfi_endproc
 1719              	.LFE132:
 1720              		.size	usb_lld_disable_endpoints, .-usb_lld_disable_endpoints
 1721              		.align	2
 1722              		.global	usb_lld_get_status_out
 1723              		.thumb
 1724              		.thumb_func
 1725              		.type	usb_lld_get_status_out, %function
 1726              	usb_lld_get_status_out:
 1727              	.LFB133:
 1728              		.loc 2 622 0
 1729              		.cfi_startproc
 1730              		@ args = 0, pretend = 0, frame = 8
 1731              		@ frame_needed = 0, uses_anonymous_args = 0
 1732              		@ link register save eliminated.
 1733 0984 82B0     		sub	sp, sp, #8
 1734              		.cfi_def_cfa_offset 8
 1735 0986 0190     		str	r0, [sp, #4]
 1736 0988 0B46     		mov	r3, r1
 1737 098a 8DF80330 		strb	r3, [sp, #3]
 1738              		.loc 2 625 0
 1739 098e 0A4A     		ldr	r2, .L104
 1740 0990 9DF80330 		ldrb	r3, [sp, #3]	@ zero_extendqisi2
 1741 0994 52F82330 		ldr	r3, [r2, r3, lsl #2]
 1742 0998 03F44053 		and	r3, r3, #12288
 1743 099c 002B     		cmp	r3, #0
 1744 099e 03D0     		beq	.L100
 1745 09a0 B3F5805F 		cmp	r3, #4096
 1746 09a4 02D0     		beq	.L101
 1747 09a6 03E0     		b	.L103
 1748              	.L100:
 1749              		.loc 2 627 0
 1750 09a8 0023     		movs	r3, #0
 1751 09aa 02E0     		b	.L102
 1752              	.L101:
 1753              		.loc 2 629 0
 1754 09ac 0123     		movs	r3, #1
 1755 09ae 00E0     		b	.L102
 1756              	.L103:
 1757              		.loc 2 631 0
 1758 09b0 0223     		movs	r3, #2
ARM GAS  /tmp/ccaZEb87.s 			page 32


 1759              	.L102:
 1760              		.loc 2 633 0
 1761 09b2 1846     		mov	r0, r3
 1762 09b4 02B0     		add	sp, sp, #8
 1763              		.cfi_def_cfa_offset 0
 1764              		@ sp needed
 1765 09b6 7047     		bx	lr
 1766              	.L105:
 1767              		.align	2
 1768              	.L104:
 1769 09b8 005C0040 		.word	1073765376
 1770              		.cfi_endproc
 1771              	.LFE133:
 1772              		.size	usb_lld_get_status_out, .-usb_lld_get_status_out
 1773              		.align	2
 1774              		.global	usb_lld_get_status_in
 1775              		.thumb
 1776              		.thumb_func
 1777              		.type	usb_lld_get_status_in, %function
 1778              	usb_lld_get_status_in:
 1779              	.LFB134:
 1780              		.loc 2 647 0
 1781              		.cfi_startproc
 1782              		@ args = 0, pretend = 0, frame = 8
 1783              		@ frame_needed = 0, uses_anonymous_args = 0
 1784              		@ link register save eliminated.
 1785 09bc 82B0     		sub	sp, sp, #8
 1786              		.cfi_def_cfa_offset 8
 1787 09be 0190     		str	r0, [sp, #4]
 1788 09c0 0B46     		mov	r3, r1
 1789 09c2 8DF80330 		strb	r3, [sp, #3]
 1790              		.loc 2 650 0
 1791 09c6 0A4A     		ldr	r2, .L112
 1792 09c8 9DF80330 		ldrb	r3, [sp, #3]	@ zero_extendqisi2
 1793 09cc 52F82330 		ldr	r3, [r2, r3, lsl #2]
 1794 09d0 03F03003 		and	r3, r3, #48
 1795 09d4 002B     		cmp	r3, #0
 1796 09d6 02D0     		beq	.L108
 1797 09d8 102B     		cmp	r3, #16
 1798 09da 02D0     		beq	.L109
 1799 09dc 03E0     		b	.L111
 1800              	.L108:
 1801              		.loc 2 652 0
 1802 09de 0023     		movs	r3, #0
 1803 09e0 02E0     		b	.L110
 1804              	.L109:
 1805              		.loc 2 654 0
 1806 09e2 0123     		movs	r3, #1
 1807 09e4 00E0     		b	.L110
 1808              	.L111:
 1809              		.loc 2 656 0
 1810 09e6 0223     		movs	r3, #2
 1811              	.L110:
 1812              		.loc 2 658 0
 1813 09e8 1846     		mov	r0, r3
 1814 09ea 02B0     		add	sp, sp, #8
 1815              		.cfi_def_cfa_offset 0
ARM GAS  /tmp/ccaZEb87.s 			page 33


 1816              		@ sp needed
 1817 09ec 7047     		bx	lr
 1818              	.L113:
 1819 09ee 00BF     		.align	2
 1820              	.L112:
 1821 09f0 005C0040 		.word	1073765376
 1822              		.cfi_endproc
 1823              	.LFE134:
 1824              		.size	usb_lld_get_status_in, .-usb_lld_get_status_in
 1825              		.align	2
 1826              		.global	usb_lld_read_setup
 1827              		.thumb
 1828              		.thumb_func
 1829              		.type	usb_lld_read_setup, %function
 1830              	usb_lld_read_setup:
 1831              	.LFB135:
 1832              		.loc 2 674 0
 1833              		.cfi_startproc
 1834              		@ args = 0, pretend = 0, frame = 32
 1835              		@ frame_needed = 0, uses_anonymous_args = 0
 1836              		@ link register save eliminated.
 1837 09f4 88B0     		sub	sp, sp, #32
 1838              		.cfi_def_cfa_offset 32
 1839 09f6 0390     		str	r0, [sp, #12]
 1840 09f8 0B46     		mov	r3, r1
 1841 09fa 0192     		str	r2, [sp, #4]
 1842 09fc 8DF80B30 		strb	r3, [sp, #11]
 1843              		.loc 2 680 0
 1844 0a00 144B     		ldr	r3, .L117
 1845 0a02 1A6D     		ldr	r2, [r3, #80]
 1846 0a04 9DF80B30 		ldrb	r3, [sp, #11]	@ zero_extendqisi2
 1847 0a08 DB00     		lsls	r3, r3, #3
 1848 0a0a 1344     		add	r3, r3, r2
 1849 0a0c 03F10053 		add	r3, r3, #536870912
 1850 0a10 03F54053 		add	r3, r3, #12288
 1851 0a14 5B00     		lsls	r3, r3, #1
 1852 0a16 0593     		str	r3, [sp, #20]
 1853              		.loc 2 681 0
 1854 0a18 059B     		ldr	r3, [sp, #20]
 1855 0a1a 9B68     		ldr	r3, [r3, #8]
 1856 0a1c 03F10053 		add	r3, r3, #536870912
 1857 0a20 03F54053 		add	r3, r3, #12288
 1858 0a24 5B00     		lsls	r3, r3, #1
 1859 0a26 0793     		str	r3, [sp, #28]
 1860              		.loc 2 682 0
 1861 0a28 0023     		movs	r3, #0
 1862 0a2a 0693     		str	r3, [sp, #24]
 1863 0a2c 0CE0     		b	.L115
 1864              	.L116:
 1865              		.loc 2 683 0 discriminator 3
 1866 0a2e 079B     		ldr	r3, [sp, #28]
 1867 0a30 1A1D     		adds	r2, r3, #4
 1868 0a32 0792     		str	r2, [sp, #28]
 1869 0a34 1B68     		ldr	r3, [r3]
 1870 0a36 9AB2     		uxth	r2, r3
 1871 0a38 019B     		ldr	r3, [sp, #4]
 1872 0a3a 1A80     		strh	r2, [r3]	@ movhi
ARM GAS  /tmp/ccaZEb87.s 			page 34


 1873              		.loc 2 684 0 discriminator 3
 1874 0a3c 019B     		ldr	r3, [sp, #4]
 1875 0a3e 0233     		adds	r3, r3, #2
 1876 0a40 0193     		str	r3, [sp, #4]
 1877              		.loc 2 682 0 discriminator 3
 1878 0a42 069B     		ldr	r3, [sp, #24]
 1879 0a44 0133     		adds	r3, r3, #1
 1880 0a46 0693     		str	r3, [sp, #24]
 1881              	.L115:
 1882              		.loc 2 682 0 is_stmt 0 discriminator 1
 1883 0a48 069B     		ldr	r3, [sp, #24]
 1884 0a4a 032B     		cmp	r3, #3
 1885 0a4c EFD9     		bls	.L116
 1886              		.loc 2 686 0 is_stmt 1
 1887 0a4e 08B0     		add	sp, sp, #32
 1888              		.cfi_def_cfa_offset 0
 1889              		@ sp needed
 1890 0a50 7047     		bx	lr
 1891              	.L118:
 1892 0a52 00BF     		.align	2
 1893              	.L117:
 1894 0a54 005C0040 		.word	1073765376
 1895              		.cfi_endproc
 1896              	.LFE135:
 1897              		.size	usb_lld_read_setup, .-usb_lld_read_setup
 1898              		.align	2
 1899              		.global	usb_lld_prepare_receive
 1900              		.thumb
 1901              		.thumb_func
 1902              		.type	usb_lld_prepare_receive, %function
 1903              	usb_lld_prepare_receive:
 1904              	.LFB136:
 1905              		.loc 2 696 0
 1906              		.cfi_startproc
 1907              		@ args = 0, pretend = 0, frame = 16
 1908              		@ frame_needed = 0, uses_anonymous_args = 0
 1909              		@ link register save eliminated.
 1910 0a58 84B0     		sub	sp, sp, #16
 1911              		.cfi_def_cfa_offset 16
 1912 0a5a 0190     		str	r0, [sp, #4]
 1913 0a5c 0B46     		mov	r3, r1
 1914 0a5e 8DF80330 		strb	r3, [sp, #3]
 1915              		.loc 2 697 0
 1916 0a62 9DF80330 		ldrb	r3, [sp, #3]	@ zero_extendqisi2
 1917 0a66 019A     		ldr	r2, [sp, #4]
 1918 0a68 0233     		adds	r3, r3, #2
 1919 0a6a 9B00     		lsls	r3, r3, #2
 1920 0a6c 1344     		add	r3, r3, r2
 1921 0a6e 5B68     		ldr	r3, [r3, #4]
 1922 0a70 9B69     		ldr	r3, [r3, #24]
 1923 0a72 0393     		str	r3, [sp, #12]
 1924              		.loc 2 700 0
 1925 0a74 039B     		ldr	r3, [sp, #12]
 1926 0a76 5B68     		ldr	r3, [r3, #4]
 1927 0a78 002B     		cmp	r3, #0
 1928 0a7a 03D1     		bne	.L120
 1929              		.loc 2 701 0
ARM GAS  /tmp/ccaZEb87.s 			page 35


 1930 0a7c 039B     		ldr	r3, [sp, #12]
 1931 0a7e 0122     		movs	r2, #1
 1932 0a80 1A82     		strh	r2, [r3, #16]	@ movhi
 1933 0a82 18E0     		b	.L119
 1934              	.L120:
 1935              		.loc 2 703 0
 1936 0a84 039B     		ldr	r3, [sp, #12]
 1937 0a86 5A68     		ldr	r2, [r3, #4]
 1938 0a88 9DF80330 		ldrb	r3, [sp, #3]	@ zero_extendqisi2
 1939 0a8c 0199     		ldr	r1, [sp, #4]
 1940 0a8e 0233     		adds	r3, r3, #2
 1941 0a90 9B00     		lsls	r3, r3, #2
 1942 0a92 0B44     		add	r3, r3, r1
 1943 0a94 5B68     		ldr	r3, [r3, #4]
 1944 0a96 5B8A     		ldrh	r3, [r3, #18]
 1945 0a98 1344     		add	r3, r3, r2
 1946 0a9a 5A1E     		subs	r2, r3, #1
 1947              		.loc 2 704 0
 1948 0a9c 9DF80330 		ldrb	r3, [sp, #3]	@ zero_extendqisi2
 1949 0aa0 0199     		ldr	r1, [sp, #4]
 1950 0aa2 0233     		adds	r3, r3, #2
 1951 0aa4 9B00     		lsls	r3, r3, #2
 1952 0aa6 0B44     		add	r3, r3, r1
 1953 0aa8 5B68     		ldr	r3, [r3, #4]
 1954 0aaa 5B8A     		ldrh	r3, [r3, #18]
 1955              		.loc 2 703 0
 1956 0aac B2FBF3F3 		udiv	r3, r2, r3
 1957 0ab0 9AB2     		uxth	r2, r3
 1958 0ab2 039B     		ldr	r3, [sp, #12]
 1959 0ab4 1A82     		strh	r2, [r3, #16]	@ movhi
 1960              	.L119:
 1961              		.loc 2 705 0
 1962 0ab6 04B0     		add	sp, sp, #16
 1963              		.cfi_def_cfa_offset 0
 1964              		@ sp needed
 1965 0ab8 7047     		bx	lr
 1966              		.cfi_endproc
 1967              	.LFE136:
 1968              		.size	usb_lld_prepare_receive, .-usb_lld_prepare_receive
 1969 0aba 00BF     		.align	2
 1970              		.global	usb_lld_prepare_transmit
 1971              		.thumb
 1972              		.thumb_func
 1973              		.type	usb_lld_prepare_transmit, %function
 1974              	usb_lld_prepare_transmit:
 1975              	.LFB137:
 1976              		.loc 2 715 0
 1977              		.cfi_startproc
 1978              		@ args = 0, pretend = 0, frame = 16
 1979              		@ frame_needed = 0, uses_anonymous_args = 0
 1980 0abc 00B5     		push	{lr}
 1981              		.cfi_def_cfa_offset 4
 1982              		.cfi_offset 14, -4
 1983 0abe 85B0     		sub	sp, sp, #20
 1984              		.cfi_def_cfa_offset 24
 1985 0ac0 0190     		str	r0, [sp, #4]
 1986 0ac2 0B46     		mov	r3, r1
ARM GAS  /tmp/ccaZEb87.s 			page 36


 1987 0ac4 8DF80330 		strb	r3, [sp, #3]
 1988              		.loc 2 717 0
 1989 0ac8 9DF80330 		ldrb	r3, [sp, #3]	@ zero_extendqisi2
 1990 0acc 019A     		ldr	r2, [sp, #4]
 1991 0ace 0233     		adds	r3, r3, #2
 1992 0ad0 9B00     		lsls	r3, r3, #2
 1993 0ad2 1344     		add	r3, r3, r2
 1994 0ad4 5B68     		ldr	r3, [r3, #4]
 1995 0ad6 5B69     		ldr	r3, [r3, #20]
 1996 0ad8 0293     		str	r3, [sp, #8]
 1997              		.loc 2 720 0
 1998 0ada 029B     		ldr	r3, [sp, #8]
 1999 0adc 5B68     		ldr	r3, [r3, #4]
 2000 0ade 0393     		str	r3, [sp, #12]
 2001              		.loc 2 721 0
 2002 0ae0 9DF80330 		ldrb	r3, [sp, #3]	@ zero_extendqisi2
 2003 0ae4 019A     		ldr	r2, [sp, #4]
 2004 0ae6 0233     		adds	r3, r3, #2
 2005 0ae8 9B00     		lsls	r3, r3, #2
 2006 0aea 1344     		add	r3, r3, r2
 2007 0aec 5B68     		ldr	r3, [r3, #4]
 2008 0aee 1B8A     		ldrh	r3, [r3, #16]
 2009 0af0 1A46     		mov	r2, r3
 2010 0af2 039B     		ldr	r3, [sp, #12]
 2011 0af4 9A42     		cmp	r2, r3
 2012 0af6 08D2     		bcs	.L123
 2013              		.loc 2 722 0
 2014 0af8 9DF80330 		ldrb	r3, [sp, #3]	@ zero_extendqisi2
 2015 0afc 019A     		ldr	r2, [sp, #4]
 2016 0afe 0233     		adds	r3, r3, #2
 2017 0b00 9B00     		lsls	r3, r3, #2
 2018 0b02 1344     		add	r3, r3, r2
 2019 0b04 5B68     		ldr	r3, [r3, #4]
 2020 0b06 1B8A     		ldrh	r3, [r3, #16]
 2021 0b08 0393     		str	r3, [sp, #12]
 2022              	.L123:
 2023              		.loc 2 724 0
 2024 0b0a 029B     		ldr	r3, [sp, #8]
 2025 0b0c 1B78     		ldrb	r3, [r3]	@ zero_extendqisi2
 2026 0b0e 002B     		cmp	r3, #0
 2027 0b10 13D0     		beq	.L124
 2028              		.loc 2 725 0
 2029 0b12 154B     		ldr	r3, .L126
 2030 0b14 1A6D     		ldr	r2, [r3, #80]
 2031 0b16 9DF80330 		ldrb	r3, [sp, #3]	@ zero_extendqisi2
 2032 0b1a DB00     		lsls	r3, r3, #3
 2033 0b1c 1344     		add	r3, r3, r2
 2034 0b1e 03F10053 		add	r3, r3, #536870912
 2035 0b22 03F54053 		add	r3, r3, #12288
 2036 0b26 5B00     		lsls	r3, r3, #1
 2037 0b28 1A46     		mov	r2, r3
 2038 0b2a 029B     		ldr	r3, [sp, #8]
 2039 0b2c DB68     		ldr	r3, [r3, #12]
 2040 0b2e 1046     		mov	r0, r2
 2041 0b30 1946     		mov	r1, r3
 2042 0b32 039A     		ldr	r2, [sp, #12]
 2043 0b34 FFF766FB 		bl	usb_packet_write_from_queue
ARM GAS  /tmp/ccaZEb87.s 			page 37


 2044 0b38 12E0     		b	.L122
 2045              	.L124:
 2046              		.loc 2 728 0
 2047 0b3a 0B4B     		ldr	r3, .L126
 2048 0b3c 1A6D     		ldr	r2, [r3, #80]
 2049 0b3e 9DF80330 		ldrb	r3, [sp, #3]	@ zero_extendqisi2
 2050 0b42 DB00     		lsls	r3, r3, #3
 2051 0b44 1344     		add	r3, r3, r2
 2052 0b46 03F10053 		add	r3, r3, #536870912
 2053 0b4a 03F54053 		add	r3, r3, #12288
 2054 0b4e 5B00     		lsls	r3, r3, #1
 2055 0b50 1A46     		mov	r2, r3
 2056 0b52 029B     		ldr	r3, [sp, #8]
 2057 0b54 DB68     		ldr	r3, [r3, #12]
 2058 0b56 1046     		mov	r0, r2
 2059 0b58 1946     		mov	r1, r3
 2060 0b5a 039A     		ldr	r2, [sp, #12]
 2061 0b5c FFF72CFB 		bl	usb_packet_write_from_buffer
 2062              	.L122:
 2063              		.loc 2 730 0
 2064 0b60 05B0     		add	sp, sp, #20
 2065              		.cfi_def_cfa_offset 4
 2066              		@ sp needed
 2067 0b62 5DF804FB 		ldr	pc, [sp], #4
 2068              	.L127:
 2069 0b66 00BF     		.align	2
 2070              	.L126:
 2071 0b68 005C0040 		.word	1073765376
 2072              		.cfi_endproc
 2073              	.LFE137:
 2074              		.size	usb_lld_prepare_transmit, .-usb_lld_prepare_transmit
 2075              		.align	2
 2076              		.global	usb_lld_start_out
 2077              		.thumb
 2078              		.thumb_func
 2079              		.type	usb_lld_start_out, %function
 2080              	usb_lld_start_out:
 2081              	.LFB138:
 2082              		.loc 2 740 0
 2083              		.cfi_startproc
 2084              		@ args = 0, pretend = 0, frame = 8
 2085              		@ frame_needed = 0, uses_anonymous_args = 0
 2086              		@ link register save eliminated.
 2087 0b6c 82B0     		sub	sp, sp, #8
 2088              		.cfi_def_cfa_offset 8
 2089 0b6e 0190     		str	r0, [sp, #4]
 2090 0b70 0B46     		mov	r3, r1
 2091 0b72 8DF80330 		strb	r3, [sp, #3]
 2092              		.loc 2 744 0
 2093 0b76 0949     		ldr	r1, .L129
 2094 0b78 9DF80320 		ldrb	r2, [sp, #3]	@ zero_extendqisi2
 2095 0b7c 0748     		ldr	r0, .L129
 2096 0b7e 9DF80330 		ldrb	r3, [sp, #3]	@ zero_extendqisi2
 2097 0b82 50F82330 		ldr	r3, [r0, r3, lsl #2]
 2098 0b86 23F49043 		bic	r3, r3, #18432
 2099 0b8a 23F07003 		bic	r3, r3, #112
 2100 0b8e 83F44053 		eor	r3, r3, #12288
ARM GAS  /tmp/ccaZEb87.s 			page 38


 2101 0b92 41F82230 		str	r3, [r1, r2, lsl #2]
 2102              		.loc 2 745 0
 2103 0b96 02B0     		add	sp, sp, #8
 2104              		.cfi_def_cfa_offset 0
 2105              		@ sp needed
 2106 0b98 7047     		bx	lr
 2107              	.L130:
 2108 0b9a 00BF     		.align	2
 2109              	.L129:
 2110 0b9c 005C0040 		.word	1073765376
 2111              		.cfi_endproc
 2112              	.LFE138:
 2113              		.size	usb_lld_start_out, .-usb_lld_start_out
 2114              		.align	2
 2115              		.global	usb_lld_start_in
 2116              		.thumb
 2117              		.thumb_func
 2118              		.type	usb_lld_start_in, %function
 2119              	usb_lld_start_in:
 2120              	.LFB139:
 2121              		.loc 2 755 0
 2122              		.cfi_startproc
 2123              		@ args = 0, pretend = 0, frame = 8
 2124              		@ frame_needed = 0, uses_anonymous_args = 0
 2125              		@ link register save eliminated.
 2126 0ba0 82B0     		sub	sp, sp, #8
 2127              		.cfi_def_cfa_offset 8
 2128 0ba2 0190     		str	r0, [sp, #4]
 2129 0ba4 0B46     		mov	r3, r1
 2130 0ba6 8DF80330 		strb	r3, [sp, #3]
 2131              		.loc 2 759 0
 2132 0baa 0949     		ldr	r1, .L132
 2133 0bac 9DF80320 		ldrb	r2, [sp, #3]	@ zero_extendqisi2
 2134 0bb0 0748     		ldr	r0, .L132
 2135 0bb2 9DF80330 		ldrb	r3, [sp, #3]	@ zero_extendqisi2
 2136 0bb6 50F82330 		ldr	r3, [r0, r3, lsl #2]
 2137 0bba 23F4F043 		bic	r3, r3, #30720
 2138 0bbe 23F04003 		bic	r3, r3, #64
 2139 0bc2 83F03003 		eor	r3, r3, #48
 2140 0bc6 41F82230 		str	r3, [r1, r2, lsl #2]
 2141              		.loc 2 760 0
 2142 0bca 02B0     		add	sp, sp, #8
 2143              		.cfi_def_cfa_offset 0
 2144              		@ sp needed
 2145 0bcc 7047     		bx	lr
 2146              	.L133:
 2147 0bce 00BF     		.align	2
 2148              	.L132:
 2149 0bd0 005C0040 		.word	1073765376
 2150              		.cfi_endproc
 2151              	.LFE139:
 2152              		.size	usb_lld_start_in, .-usb_lld_start_in
 2153              		.align	2
 2154              		.global	usb_lld_stall_out
 2155              		.thumb
 2156              		.thumb_func
 2157              		.type	usb_lld_stall_out, %function
ARM GAS  /tmp/ccaZEb87.s 			page 39


 2158              	usb_lld_stall_out:
 2159              	.LFB140:
 2160              		.loc 2 770 0
 2161              		.cfi_startproc
 2162              		@ args = 0, pretend = 0, frame = 8
 2163              		@ frame_needed = 0, uses_anonymous_args = 0
 2164              		@ link register save eliminated.
 2165 0bd4 82B0     		sub	sp, sp, #8
 2166              		.cfi_def_cfa_offset 8
 2167 0bd6 0190     		str	r0, [sp, #4]
 2168 0bd8 0B46     		mov	r3, r1
 2169 0bda 8DF80330 		strb	r3, [sp, #3]
 2170              		.loc 2 774 0
 2171 0bde 0949     		ldr	r1, .L135
 2172 0be0 9DF80320 		ldrb	r2, [sp, #3]	@ zero_extendqisi2
 2173 0be4 0748     		ldr	r0, .L135
 2174 0be6 9DF80330 		ldrb	r3, [sp, #3]	@ zero_extendqisi2
 2175 0bea 50F82330 		ldr	r3, [r0, r3, lsl #2]
 2176 0bee 23F49043 		bic	r3, r3, #18432
 2177 0bf2 23F07003 		bic	r3, r3, #112
 2178 0bf6 83F48053 		eor	r3, r3, #4096
 2179 0bfa 41F82230 		str	r3, [r1, r2, lsl #2]
 2180              		.loc 2 775 0
 2181 0bfe 02B0     		add	sp, sp, #8
 2182              		.cfi_def_cfa_offset 0
 2183              		@ sp needed
 2184 0c00 7047     		bx	lr
 2185              	.L136:
 2186 0c02 00BF     		.align	2
 2187              	.L135:
 2188 0c04 005C0040 		.word	1073765376
 2189              		.cfi_endproc
 2190              	.LFE140:
 2191              		.size	usb_lld_stall_out, .-usb_lld_stall_out
 2192              		.align	2
 2193              		.global	usb_lld_stall_in
 2194              		.thumb
 2195              		.thumb_func
 2196              		.type	usb_lld_stall_in, %function
 2197              	usb_lld_stall_in:
 2198              	.LFB141:
 2199              		.loc 2 785 0
 2200              		.cfi_startproc
 2201              		@ args = 0, pretend = 0, frame = 8
 2202              		@ frame_needed = 0, uses_anonymous_args = 0
 2203              		@ link register save eliminated.
 2204 0c08 82B0     		sub	sp, sp, #8
 2205              		.cfi_def_cfa_offset 8
 2206 0c0a 0190     		str	r0, [sp, #4]
 2207 0c0c 0B46     		mov	r3, r1
 2208 0c0e 8DF80330 		strb	r3, [sp, #3]
 2209              		.loc 2 789 0
 2210 0c12 0949     		ldr	r1, .L138
 2211 0c14 9DF80320 		ldrb	r2, [sp, #3]	@ zero_extendqisi2
 2212 0c18 0748     		ldr	r0, .L138
 2213 0c1a 9DF80330 		ldrb	r3, [sp, #3]	@ zero_extendqisi2
 2214 0c1e 50F82330 		ldr	r3, [r0, r3, lsl #2]
ARM GAS  /tmp/ccaZEb87.s 			page 40


 2215 0c22 23F4F043 		bic	r3, r3, #30720
 2216 0c26 23F04003 		bic	r3, r3, #64
 2217 0c2a 83F01003 		eor	r3, r3, #16
 2218 0c2e 41F82230 		str	r3, [r1, r2, lsl #2]
 2219              		.loc 2 790 0
 2220 0c32 02B0     		add	sp, sp, #8
 2221              		.cfi_def_cfa_offset 0
 2222              		@ sp needed
 2223 0c34 7047     		bx	lr
 2224              	.L139:
 2225 0c36 00BF     		.align	2
 2226              	.L138:
 2227 0c38 005C0040 		.word	1073765376
 2228              		.cfi_endproc
 2229              	.LFE141:
 2230              		.size	usb_lld_stall_in, .-usb_lld_stall_in
 2231              		.align	2
 2232              		.global	usb_lld_clear_out
 2233              		.thumb
 2234              		.thumb_func
 2235              		.type	usb_lld_clear_out, %function
 2236              	usb_lld_clear_out:
 2237              	.LFB142:
 2238              		.loc 2 800 0
 2239              		.cfi_startproc
 2240              		@ args = 0, pretend = 0, frame = 8
 2241              		@ frame_needed = 0, uses_anonymous_args = 0
 2242              		@ link register save eliminated.
 2243 0c3c 82B0     		sub	sp, sp, #8
 2244              		.cfi_def_cfa_offset 8
 2245 0c3e 0190     		str	r0, [sp, #4]
 2246 0c40 0B46     		mov	r3, r1
 2247 0c42 8DF80330 		strb	r3, [sp, #3]
 2248              		.loc 2 806 0
 2249 0c46 0E4A     		ldr	r2, .L142
 2250 0c48 9DF80330 		ldrb	r3, [sp, #3]	@ zero_extendqisi2
 2251 0c4c 52F82330 		ldr	r3, [r2, r3, lsl #2]
 2252 0c50 03F44053 		and	r3, r3, #12288
 2253 0c54 B3F5405F 		cmp	r3, #12288
 2254 0c58 0FD0     		beq	.L140
 2255              		.loc 2 807 0
 2256 0c5a 0949     		ldr	r1, .L142
 2257 0c5c 9DF80320 		ldrb	r2, [sp, #3]	@ zero_extendqisi2
 2258 0c60 0748     		ldr	r0, .L142
 2259 0c62 9DF80330 		ldrb	r3, [sp, #3]	@ zero_extendqisi2
 2260 0c66 50F82330 		ldr	r3, [r0, r3, lsl #2]
 2261 0c6a 23F4F043 		bic	r3, r3, #30720
 2262 0c6e 23F04003 		bic	r3, r3, #64
 2263 0c72 83F40053 		eor	r3, r3, #8192
 2264 0c76 41F82230 		str	r3, [r1, r2, lsl #2]
 2265              	.L140:
 2266              		.loc 2 808 0
 2267 0c7a 02B0     		add	sp, sp, #8
 2268              		.cfi_def_cfa_offset 0
 2269              		@ sp needed
 2270 0c7c 7047     		bx	lr
 2271              	.L143:
ARM GAS  /tmp/ccaZEb87.s 			page 41


 2272 0c7e 00BF     		.align	2
 2273              	.L142:
 2274 0c80 005C0040 		.word	1073765376
 2275              		.cfi_endproc
 2276              	.LFE142:
 2277              		.size	usb_lld_clear_out, .-usb_lld_clear_out
 2278              		.align	2
 2279              		.global	usb_lld_clear_in
 2280              		.thumb
 2281              		.thumb_func
 2282              		.type	usb_lld_clear_in, %function
 2283              	usb_lld_clear_in:
 2284              	.LFB143:
 2285              		.loc 2 818 0
 2286              		.cfi_startproc
 2287              		@ args = 0, pretend = 0, frame = 8
 2288              		@ frame_needed = 0, uses_anonymous_args = 0
 2289              		@ link register save eliminated.
 2290 0c84 82B0     		sub	sp, sp, #8
 2291              		.cfi_def_cfa_offset 8
 2292 0c86 0190     		str	r0, [sp, #4]
 2293 0c88 0B46     		mov	r3, r1
 2294 0c8a 8DF80330 		strb	r3, [sp, #3]
 2295              		.loc 2 824 0
 2296 0c8e 0D4A     		ldr	r2, .L146
 2297 0c90 9DF80330 		ldrb	r3, [sp, #3]	@ zero_extendqisi2
 2298 0c94 52F82330 		ldr	r3, [r2, r3, lsl #2]
 2299 0c98 03F03003 		and	r3, r3, #48
 2300 0c9c 302B     		cmp	r3, #48
 2301 0c9e 0FD0     		beq	.L144
 2302              		.loc 2 825 0
 2303 0ca0 0849     		ldr	r1, .L146
 2304 0ca2 9DF80320 		ldrb	r2, [sp, #3]	@ zero_extendqisi2
 2305 0ca6 0748     		ldr	r0, .L146
 2306 0ca8 9DF80330 		ldrb	r3, [sp, #3]	@ zero_extendqisi2
 2307 0cac 50F82330 		ldr	r3, [r0, r3, lsl #2]
 2308 0cb0 23F4F043 		bic	r3, r3, #30720
 2309 0cb4 23F04003 		bic	r3, r3, #64
 2310 0cb8 83F02003 		eor	r3, r3, #32
 2311 0cbc 41F82230 		str	r3, [r1, r2, lsl #2]
 2312              	.L144:
 2313              		.loc 2 826 0
 2314 0cc0 02B0     		add	sp, sp, #8
 2315              		.cfi_def_cfa_offset 0
 2316              		@ sp needed
 2317 0cc2 7047     		bx	lr
 2318              	.L147:
 2319              		.align	2
 2320              	.L146:
 2321 0cc4 005C0040 		.word	1073765376
 2322              		.cfi_endproc
 2323              	.LFE143:
 2324              		.size	usb_lld_clear_in, .-usb_lld_clear_in
 2325              	.Letext0:
 2326              		.file 3 "/opt/R2P/tools/gcc-arm-none-eabi-4_9-2014q4/lib/gcc/arm-none-eabi/4.9.3/include/stddef.h"
 2327              		.file 4 "/opt/R2P/tools/gcc-arm-none-eabi-4_9-2014q4/arm-none-eabi/include/machine/_default_types.
 2328              		.file 5 "/opt/R2P/tools/gcc-arm-none-eabi-4_9-2014q4/arm-none-eabi/include/stdint.h"
ARM GAS  /tmp/ccaZEb87.s 			page 42


 2329              		.file 6 "/opt/R2P/core/ChibiOS_2.6.5/os/ports/GCC/ARMCMx/chtypes.h"
 2330              		.file 7 "/opt/R2P/core/ChibiOS_2.6.5/os/kernel/include/chlists.h"
 2331              		.file 8 "/opt/R2P/core/ChibiOS_2.6.5/os/kernel/include/chthreads.h"
 2332              		.file 9 "/opt/R2P/core/ChibiOS_2.6.5/os/ports/GCC/ARMCMx/chcore_v7m.h"
 2333              		.file 10 "/opt/R2P/core/ChibiOS_2.6.5/os/kernel/include/chmtx.h"
 2334              		.file 11 "/opt/R2P/core/ChibiOS_2.6.5/os/kernel/include/chqueues.h"
 2335              		.file 12 "/opt/R2P/core/ChibiOS_2.6.5/os/hal/platforms/STM32F30x/stm32f30x.h"
 2336              		.file 13 "/opt/R2P/core/ChibiOS_2.6.5/os/hal/include/usb.h"
 2337              		.file 14 "/opt/R2P/core/ChibiOS_2.6.5/os/hal/platforms/STM32/USBv1/usb_lld.h"
 2338              		.file 15 "/opt/R2P/core/ChibiOS_2.6.5/os/hal/platforms/STM32/USBv1/stm32_usb.h"
 2339              		.file 16 "/opt/R2P/core/ChibiOS_2.6.5/os/kernel/include/chdebug.h"
 2340              		.file 17 "/opt/R2P/core/ChibiOS_2.6.5/os/ports/common/ARMCMx/CMSIS/include/core_cm4.h"