ARM GAS  /tmp/ccaZEb87.s 			page 1


   1              		.syntax unified
   2              		.cpu cortex-m4
   3              		.fpu softvfp
   4              		.eabi_attribute 20, 1
   5              		.eabi_attribute 21, 1
   6              		.eabi_attribute 23, 3
   7              		.eabi_attribute 24, 1
   8              		.eabi_attribute 25, 1
   9              		.eabi_attribute 26, 1
  10              		.eabi_attribute 30, 6
  11              		.eabi_attribute 34, 1
  12              		.eabi_attribute 18, 4
  13              		.thumb
  14              		.file	"usb_lld.c"
  15              		.text
  16              	.Ltext0:
  17              		.cfi_sections	.debug_frame
  18              		.align	2
  19              		.thumb
  20              		.thumb_func
  21              		.type	fifo_remove, %function
  22              	fifo_remove:
  23              	.LFB2:
  24              		.file 1 "/opt/R2P/core/ChibiOS_2.6.5/os/kernel/include/chinline.h"
  25              		.loc 1 59 0
  26              		.cfi_startproc
  27              		@ args = 0, pretend = 0, frame = 16
  28              		@ frame_needed = 0, uses_anonymous_args = 0
  29              		@ link register save eliminated.
  30 0000 84B0     		sub	sp, sp, #16
  31              		.cfi_def_cfa_offset 16
  32 0002 0190     		str	r0, [sp, #4]
  33              		.loc 1 60 0
  34 0004 019B     		ldr	r3, [sp, #4]
  35 0006 1B68     		ldr	r3, [r3]
  36 0008 0393     		str	r3, [sp, #12]
  37              		.loc 1 62 0
  38 000a 039B     		ldr	r3, [sp, #12]
  39 000c 1A68     		ldr	r2, [r3]
  40 000e 019B     		ldr	r3, [sp, #4]
  41 0010 1A60     		str	r2, [r3]
  42 0012 019B     		ldr	r3, [sp, #4]
  43 0014 1B68     		ldr	r3, [r3]
  44 0016 019A     		ldr	r2, [sp, #4]
  45 0018 5A60     		str	r2, [r3, #4]
  46              		.loc 1 63 0
  47 001a 039B     		ldr	r3, [sp, #12]
  48              		.loc 1 64 0
  49 001c 1846     		mov	r0, r3
  50 001e 04B0     		add	sp, sp, #16
  51              		.cfi_def_cfa_offset 0
  52              		@ sp needed
  53 0020 7047     		bx	lr
  54              		.cfi_endproc
  55              	.LFE2:
  56              		.size	fifo_remove, .-fifo_remove
  57              		.comm	USBD1,132,4
ARM GAS  /tmp/ccaZEb87.s 			page 2


  58              		.bss
  59              		.align	2
  60              	ep0_state:
  61 0000 00000000 		.space	20
  61      00000000 
  61      00000000 
  61      00000000 
  61      00000000 
  62              		.align	2
  63              	ep0setup_buffer:
  64 0014 00000000 		.space	8
  64      00000000 
  65              		.section	.rodata
  66              		.align	2
  67              		.type	ep0config, %object
  68              		.size	ep0config, 36
  69              	ep0config:
  70 0000 00000000 		.word	0
  71 0004 00000000 		.word	_usb_ep0setup
  72 0008 00000000 		.word	_usb_ep0in
  73 000c 00000000 		.word	_usb_ep0out
  74 0010 4000     		.short	64
  75 0012 4000     		.short	64
  76 0014 00000000 		.word	ep0_state
  77 0018 00000000 		.word	ep0_state
  78 001c 0100     		.short	1
  79 001e 0000     		.space	2
  80 0020 14000000 		.word	ep0setup_buffer
  81              		.text
  82 0022 00BF     		.align	2
  83              		.thumb
  84              		.thumb_func
  85              		.type	usb_pm_reset, %function
  86              	usb_pm_reset:
  87              	.LFB118:
  88              		.file 2 "/opt/R2P/core/ChibiOS_2.6.5/os/hal/platforms/STM32/USBv1/usb_lld.c"
  89              		.loc 2 97 0
  90              		.cfi_startproc
  91              		@ args = 0, pretend = 0, frame = 8
  92              		@ frame_needed = 0, uses_anonymous_args = 0
  93              		@ link register save eliminated.
  94 0024 82B0     		sub	sp, sp, #8
  95              		.cfi_def_cfa_offset 8
  96 0026 0190     		str	r0, [sp, #4]
  97              		.loc 2 101 0
  98 0028 019B     		ldr	r3, [sp, #4]
  99 002a 4022     		movs	r2, #64
 100 002c C3F88020 		str	r2, [r3, #128]
 101              		.loc 2 102 0
 102 0030 02B0     		add	sp, sp, #8
 103              		.cfi_def_cfa_offset 0
 104              		@ sp needed
 105 0032 7047     		bx	lr
 106              		.cfi_endproc
 107              	.LFE118:
 108              		.size	usb_pm_reset, .-usb_pm_reset
 109              		.section	.rodata
ARM GAS  /tmp/ccaZEb87.s 			page 3


 110              		.align	2
 111              	.LC0:
 112 0024 7573625F 		.ascii	"usb_pm_alloc(), #1\000"
 112      706D5F61 
 112      6C6C6F63 
 112      28292C20 
 112      233100
 113 0037 00       		.text
 114              		.align	2
 115              		.thumb
 116              		.thumb_func
 117              		.type	usb_pm_alloc, %function
 118              	usb_pm_alloc:
 119              	.LFB119:
 120              		.loc 2 110 0
 121              		.cfi_startproc
 122              		@ args = 0, pretend = 0, frame = 16
 123              		@ frame_needed = 0, uses_anonymous_args = 0
 124 0034 00B5     		push	{lr}
 125              		.cfi_def_cfa_offset 4
 126              		.cfi_offset 14, -4
 127 0036 85B0     		sub	sp, sp, #20
 128              		.cfi_def_cfa_offset 24
 129 0038 0190     		str	r0, [sp, #4]
 130 003a 0091     		str	r1, [sp]
 131              		.loc 2 113 0
 132 003c 019B     		ldr	r3, [sp, #4]
 133 003e D3F88030 		ldr	r3, [r3, #128]
 134 0042 0393     		str	r3, [sp, #12]
 135              		.loc 2 114 0
 136 0044 019B     		ldr	r3, [sp, #4]
 137 0046 D3F88020 		ldr	r2, [r3, #128]
 138 004a 009B     		ldr	r3, [sp]
 139 004c 1A44     		add	r2, r2, r3
 140 004e 019B     		ldr	r3, [sp, #4]
 141 0050 C3F88020 		str	r2, [r3, #128]
 142              		.loc 2 115 0
 143 0054 019B     		ldr	r3, [sp, #4]
 144 0056 D3F88030 		ldr	r3, [r3, #128]
 145 005a B3F5007F 		cmp	r3, #512
 146 005e 02D9     		bls	.L5
 147              		.loc 2 115 0 is_stmt 0 discriminator 1
 148 0060 0348     		ldr	r0, .L7
 149 0062 FFF7FEFF 		bl	chDbgPanic
 150              	.L5:
 151              		.loc 2 116 0 is_stmt 1
 152 0066 039B     		ldr	r3, [sp, #12]
 153              		.loc 2 117 0
 154 0068 1846     		mov	r0, r3
 155 006a 05B0     		add	sp, sp, #20
 156              		.cfi_def_cfa_offset 4
 157              		@ sp needed
 158 006c 5DF804FB 		ldr	pc, [sp], #4
 159              	.L8:
 160              		.align	2
 161              	.L7:
 162 0070 24000000 		.word	.LC0
ARM GAS  /tmp/ccaZEb87.s 			page 4


 163              		.cfi_endproc
 164              	.LFE119:
 165              		.size	usb_pm_alloc, .-usb_pm_alloc
 166              		.align	2
 167              		.thumb
 168              		.thumb_func
 169              		.type	usb_packet_read_to_buffer, %function
 170              	usb_packet_read_to_buffer:
 171              	.LFB120:
 172              		.loc 2 130 0
 173              		.cfi_startproc
 174              		@ args = 0, pretend = 0, frame = 24
 175              		@ frame_needed = 0, uses_anonymous_args = 0
 176              		@ link register save eliminated.
 177 0074 86B0     		sub	sp, sp, #24
 178              		.cfi_def_cfa_offset 24
 179 0076 0390     		str	r0, [sp, #12]
 180 0078 0291     		str	r1, [sp, #8]
 181 007a 0192     		str	r2, [sp, #4]
 182              		.loc 2 131 0
 183 007c 039B     		ldr	r3, [sp, #12]
 184 007e 9B68     		ldr	r3, [r3, #8]
 185 0080 03F10053 		add	r3, r3, #536870912
 186 0084 03F54053 		add	r3, r3, #12288
 187 0088 5B00     		lsls	r3, r3, #1
 188 008a 0593     		str	r3, [sp, #20]
 189              		.loc 2 133 0
 190 008c 019B     		ldr	r3, [sp, #4]
 191 008e 0133     		adds	r3, r3, #1
 192 0090 5B08     		lsrs	r3, r3, #1
 193 0092 0193     		str	r3, [sp, #4]
 194              		.loc 2 134 0
 195 0094 0CE0     		b	.L10
 196              	.L11:
 197              		.loc 2 137 0
 198 0096 059B     		ldr	r3, [sp, #20]
 199 0098 1A1D     		adds	r2, r3, #4
 200 009a 0592     		str	r2, [sp, #20]
 201 009c 1B68     		ldr	r3, [r3]
 202 009e 9AB2     		uxth	r2, r3
 203 00a0 029B     		ldr	r3, [sp, #8]
 204 00a2 1A80     		strh	r2, [r3]	@ movhi
 205              		.loc 2 138 0
 206 00a4 029B     		ldr	r3, [sp, #8]
 207 00a6 0233     		adds	r3, r3, #2
 208 00a8 0293     		str	r3, [sp, #8]
 209              		.loc 2 139 0
 210 00aa 019B     		ldr	r3, [sp, #4]
 211 00ac 013B     		subs	r3, r3, #1
 212 00ae 0193     		str	r3, [sp, #4]
 213              	.L10:
 214              		.loc 2 134 0
 215 00b0 019B     		ldr	r3, [sp, #4]
 216 00b2 002B     		cmp	r3, #0
 217 00b4 EFD1     		bne	.L11
 218              		.loc 2 141 0
 219 00b6 06B0     		add	sp, sp, #24
ARM GAS  /tmp/ccaZEb87.s 			page 5


 220              		.cfi_def_cfa_offset 0
 221              		@ sp needed
 222 00b8 7047     		bx	lr
 223              		.cfi_endproc
 224              	.LFE120:
 225              		.size	usb_packet_read_to_buffer, .-usb_packet_read_to_buffer
 226 00ba 00BF     		.align	2
 227              		.thumb
 228              		.thumb_func
 229              		.type	usb_packet_read_to_queue, %function
 230              	usb_packet_read_to_queue:
 231              	.LFB121:
 232              		.loc 2 154 0
 233              		.cfi_startproc
 234              		@ args = 0, pretend = 0, frame = 32
 235              		@ frame_needed = 0, uses_anonymous_args = 0
 236 00bc 00B5     		push	{lr}
 237              		.cfi_def_cfa_offset 4
 238              		.cfi_offset 14, -4
 239 00be 89B0     		sub	sp, sp, #36
 240              		.cfi_def_cfa_offset 40
 241 00c0 0390     		str	r0, [sp, #12]
 242 00c2 0291     		str	r1, [sp, #8]
 243 00c4 0192     		str	r2, [sp, #4]
 244              		.loc 2 156 0
 245 00c6 039B     		ldr	r3, [sp, #12]
 246 00c8 9B68     		ldr	r3, [r3, #8]
 247 00ca 03F10053 		add	r3, r3, #536870912
 248 00ce 03F54053 		add	r3, r3, #12288
 249 00d2 5B00     		lsls	r3, r3, #1
 250 00d4 0693     		str	r3, [sp, #24]
 251              		.loc 2 158 0
 252 00d6 019B     		ldr	r3, [sp, #4]
 253 00d8 5B08     		lsrs	r3, r3, #1
 254 00da 0793     		str	r3, [sp, #28]
 255              		.loc 2 159 0
 256 00dc 2CE0     		b	.L13
 257              	.L16:
 258              	.LBB2:
 259              		.loc 2 162 0
 260 00de 069B     		ldr	r3, [sp, #24]
 261 00e0 1A1D     		adds	r2, r3, #4
 262 00e2 0692     		str	r2, [sp, #24]
 263 00e4 1B68     		ldr	r3, [r3]
 264 00e6 0593     		str	r3, [sp, #20]
 265              		.loc 2 163 0
 266 00e8 029B     		ldr	r3, [sp, #8]
 267 00ea 5B69     		ldr	r3, [r3, #20]
 268 00ec 591C     		adds	r1, r3, #1
 269 00ee 029A     		ldr	r2, [sp, #8]
 270 00f0 5161     		str	r1, [r2, #20]
 271 00f2 059A     		ldr	r2, [sp, #20]
 272 00f4 D2B2     		uxtb	r2, r2
 273 00f6 1A70     		strb	r2, [r3]
 274              		.loc 2 164 0
 275 00f8 029B     		ldr	r3, [sp, #8]
 276 00fa 5A69     		ldr	r2, [r3, #20]
ARM GAS  /tmp/ccaZEb87.s 			page 6


 277 00fc 029B     		ldr	r3, [sp, #8]
 278 00fe 1B69     		ldr	r3, [r3, #16]
 279 0100 9A42     		cmp	r2, r3
 280 0102 03D3     		bcc	.L14
 281              		.loc 2 165 0
 282 0104 029B     		ldr	r3, [sp, #8]
 283 0106 DA68     		ldr	r2, [r3, #12]
 284 0108 029B     		ldr	r3, [sp, #8]
 285 010a 5A61     		str	r2, [r3, #20]
 286              	.L14:
 287              		.loc 2 166 0
 288 010c 029B     		ldr	r3, [sp, #8]
 289 010e 5B69     		ldr	r3, [r3, #20]
 290 0110 591C     		adds	r1, r3, #1
 291 0112 029A     		ldr	r2, [sp, #8]
 292 0114 5161     		str	r1, [r2, #20]
 293 0116 059A     		ldr	r2, [sp, #20]
 294 0118 120A     		lsrs	r2, r2, #8
 295 011a D2B2     		uxtb	r2, r2
 296 011c 1A70     		strb	r2, [r3]
 297              		.loc 2 167 0
 298 011e 029B     		ldr	r3, [sp, #8]
 299 0120 5A69     		ldr	r2, [r3, #20]
 300 0122 029B     		ldr	r3, [sp, #8]
 301 0124 1B69     		ldr	r3, [r3, #16]
 302 0126 9A42     		cmp	r2, r3
 303 0128 03D3     		bcc	.L15
 304              		.loc 2 168 0
 305 012a 029B     		ldr	r3, [sp, #8]
 306 012c DA68     		ldr	r2, [r3, #12]
 307 012e 029B     		ldr	r3, [sp, #8]
 308 0130 5A61     		str	r2, [r3, #20]
 309              	.L15:
 310              		.loc 2 169 0
 311 0132 079B     		ldr	r3, [sp, #28]
 312 0134 013B     		subs	r3, r3, #1
 313 0136 0793     		str	r3, [sp, #28]
 314              	.L13:
 315              	.LBE2:
 316              		.loc 2 159 0
 317 0138 079B     		ldr	r3, [sp, #28]
 318 013a 002B     		cmp	r3, #0
 319 013c CFD1     		bne	.L16
 320              		.loc 2 172 0
 321 013e 019B     		ldr	r3, [sp, #4]
 322 0140 03F00103 		and	r3, r3, #1
 323 0144 002B     		cmp	r3, #0
 324 0146 12D0     		beq	.L17
 325              		.loc 2 173 0
 326 0148 029B     		ldr	r3, [sp, #8]
 327 014a 5B69     		ldr	r3, [r3, #20]
 328 014c 591C     		adds	r1, r3, #1
 329 014e 029A     		ldr	r2, [sp, #8]
 330 0150 5161     		str	r1, [r2, #20]
 331 0152 069A     		ldr	r2, [sp, #24]
 332 0154 1268     		ldr	r2, [r2]
 333 0156 D2B2     		uxtb	r2, r2
ARM GAS  /tmp/ccaZEb87.s 			page 7


 334 0158 1A70     		strb	r2, [r3]
 335              		.loc 2 174 0
 336 015a 029B     		ldr	r3, [sp, #8]
 337 015c 5A69     		ldr	r2, [r3, #20]
 338 015e 029B     		ldr	r3, [sp, #8]
 339 0160 1B69     		ldr	r3, [r3, #16]
 340 0162 9A42     		cmp	r2, r3
 341 0164 03D3     		bcc	.L17
 342              		.loc 2 175 0
 343 0166 029B     		ldr	r3, [sp, #8]
 344 0168 DA68     		ldr	r2, [r3, #12]
 345 016a 029B     		ldr	r3, [sp, #8]
 346 016c 5A61     		str	r2, [r3, #20]
 347              	.L17:
 348              	.LBB3:
 349              		.loc 2 179 0
 350 016e 2023     		movs	r3, #32
 351              	@ 179 "/opt/R2P/core/ChibiOS_2.6.5/os/hal/platforms/STM32/USBv1/usb_lld.c" 1
 352 0170 83F31188 		msr     BASEPRI, r3
 353              	@ 0 "" 2
 354              		.thumb
 355              	.LBE3:
 356 0174 FFF7FEFF 		bl	dbg_check_lock_from_isr
 357              		.loc 2 180 0
 358 0178 029B     		ldr	r3, [sp, #8]
 359 017a 9A68     		ldr	r2, [r3, #8]
 360 017c 019B     		ldr	r3, [sp, #4]
 361 017e 1A44     		add	r2, r2, r3
 362 0180 029B     		ldr	r3, [sp, #8]
 363 0182 9A60     		str	r2, [r3, #8]
 364              		.loc 2 181 0
 365 0184 0AE0     		b	.L18
 366              	.L19:
 367              		.loc 2 182 0
 368 0186 029B     		ldr	r3, [sp, #8]
 369 0188 1846     		mov	r0, r3
 370 018a FFF739FF 		bl	fifo_remove
 371 018e 0346     		mov	r3, r0
 372 0190 1846     		mov	r0, r3
 373 0192 FFF7FEFF 		bl	chSchReadyI
 374 0196 0246     		mov	r2, r0
 375 0198 0023     		movs	r3, #0
 376 019a 9362     		str	r3, [r2, #40]
 377              	.L18:
 378              		.loc 2 181 0
 379 019c 029B     		ldr	r3, [sp, #8]
 380 019e 1A68     		ldr	r2, [r3]
 381 01a0 029B     		ldr	r3, [sp, #8]
 382 01a2 9A42     		cmp	r2, r3
 383 01a4 EFD1     		bne	.L19
 384              		.loc 2 183 0
 385 01a6 FFF7FEFF 		bl	dbg_check_unlock_from_isr
 386              	.LBB4:
 387 01aa 0023     		movs	r3, #0
 388              	@ 183 "/opt/R2P/core/ChibiOS_2.6.5/os/hal/platforms/STM32/USBv1/usb_lld.c" 1
 389 01ac 83F31188 		msr     BASEPRI, r3
 390              	@ 0 "" 2
ARM GAS  /tmp/ccaZEb87.s 			page 8


 391              		.thumb
 392              	.LBE4:
 393              		.loc 2 184 0
 394 01b0 09B0     		add	sp, sp, #36
 395              		.cfi_def_cfa_offset 4
 396              		@ sp needed
 397 01b2 5DF804FB 		ldr	pc, [sp], #4
 398              		.cfi_endproc
 399              	.LFE121:
 400              		.size	usb_packet_read_to_queue, .-usb_packet_read_to_queue
 401 01b6 00BF     		.align	2
 402              		.thumb
 403              		.thumb_func
 404              		.type	usb_packet_write_from_buffer, %function
 405              	usb_packet_write_from_buffer:
 406              	.LFB122:
 407              		.loc 2 198 0
 408              		.cfi_startproc
 409              		@ args = 0, pretend = 0, frame = 24
 410              		@ frame_needed = 0, uses_anonymous_args = 0
 411              		@ link register save eliminated.
 412 01b8 86B0     		sub	sp, sp, #24
 413              		.cfi_def_cfa_offset 24
 414 01ba 0390     		str	r0, [sp, #12]
 415 01bc 0291     		str	r1, [sp, #8]
 416 01be 0192     		str	r2, [sp, #4]
 417              		.loc 2 199 0
 418 01c0 039B     		ldr	r3, [sp, #12]
 419 01c2 1B68     		ldr	r3, [r3]
 420 01c4 03F10053 		add	r3, r3, #536870912
 421 01c8 03F54053 		add	r3, r3, #12288
 422 01cc 5B00     		lsls	r3, r3, #1
 423 01ce 0593     		str	r3, [sp, #20]
 424              		.loc 2 201 0
 425 01d0 019B     		ldr	r3, [sp, #4]
 426 01d2 9AB2     		uxth	r2, r3
 427 01d4 039B     		ldr	r3, [sp, #12]
 428 01d6 9A80     		strh	r2, [r3, #4]	@ movhi
 429              		.loc 2 202 0
 430 01d8 019B     		ldr	r3, [sp, #4]
 431 01da 0133     		adds	r3, r3, #1
 432 01dc 5B08     		lsrs	r3, r3, #1
 433 01de 0193     		str	r3, [sp, #4]
 434              		.loc 2 203 0
 435 01e0 0BE0     		b	.L21
 436              	.L22:
 437              		.loc 2 206 0
 438 01e2 059B     		ldr	r3, [sp, #20]
 439 01e4 1A1D     		adds	r2, r3, #4
 440 01e6 0592     		str	r2, [sp, #20]
 441 01e8 029A     		ldr	r2, [sp, #8]
 442 01ea 1288     		ldrh	r2, [r2]
 443 01ec 1A60     		str	r2, [r3]
 444              		.loc 2 207 0
 445 01ee 029B     		ldr	r3, [sp, #8]
 446 01f0 0233     		adds	r3, r3, #2
 447 01f2 0293     		str	r3, [sp, #8]
ARM GAS  /tmp/ccaZEb87.s 			page 9


 448              		.loc 2 208 0
 449 01f4 019B     		ldr	r3, [sp, #4]
 450 01f6 013B     		subs	r3, r3, #1
 451 01f8 0193     		str	r3, [sp, #4]
 452              	.L21:
 453              		.loc 2 203 0
 454 01fa 019B     		ldr	r3, [sp, #4]
 455 01fc 002B     		cmp	r3, #0
 456 01fe F0D1     		bne	.L22
 457              		.loc 2 210 0
 458 0200 06B0     		add	sp, sp, #24
 459              		.cfi_def_cfa_offset 0
 460              		@ sp needed
 461 0202 7047     		bx	lr
 462              		.cfi_endproc
 463              	.LFE122:
 464              		.size	usb_packet_write_from_buffer, .-usb_packet_write_from_buffer
 465              		.align	2
 466              		.thumb
 467              		.thumb_func
 468              		.type	usb_packet_write_from_queue, %function
 469              	usb_packet_write_from_queue:
 470              	.LFB123:
 471              		.loc 2 223 0
 472              		.cfi_startproc
 473              		@ args = 0, pretend = 0, frame = 32
 474              		@ frame_needed = 0, uses_anonymous_args = 0
 475 0204 00B5     		push	{lr}
 476              		.cfi_def_cfa_offset 4
 477              		.cfi_offset 14, -4
 478 0206 89B0     		sub	sp, sp, #36
 479              		.cfi_def_cfa_offset 40
 480 0208 0390     		str	r0, [sp, #12]
 481 020a 0291     		str	r1, [sp, #8]
 482 020c 0192     		str	r2, [sp, #4]
 483              		.loc 2 225 0
 484 020e 039B     		ldr	r3, [sp, #12]
 485 0210 1B68     		ldr	r3, [r3]
 486 0212 03F10053 		add	r3, r3, #536870912
 487 0216 03F54053 		add	r3, r3, #12288
 488 021a 5B00     		lsls	r3, r3, #1
 489 021c 0693     		str	r3, [sp, #24]
 490              		.loc 2 227 0
 491 021e 019B     		ldr	r3, [sp, #4]
 492 0220 9AB2     		uxth	r2, r3
 493 0222 039B     		ldr	r3, [sp, #12]
 494 0224 9A80     		strh	r2, [r3, #4]	@ movhi
 495              		.loc 2 228 0
 496 0226 019B     		ldr	r3, [sp, #4]
 497 0228 5B08     		lsrs	r3, r3, #1
 498 022a 0793     		str	r3, [sp, #28]
 499              		.loc 2 229 0
 500 022c 2CE0     		b	.L24
 501              	.L27:
 502              	.LBB5:
 503              		.loc 2 232 0
 504 022e 029B     		ldr	r3, [sp, #8]
ARM GAS  /tmp/ccaZEb87.s 			page 10


 505 0230 9B69     		ldr	r3, [r3, #24]
 506 0232 591C     		adds	r1, r3, #1
 507 0234 029A     		ldr	r2, [sp, #8]
 508 0236 9161     		str	r1, [r2, #24]
 509 0238 1B78     		ldrb	r3, [r3]	@ zero_extendqisi2
 510 023a 0593     		str	r3, [sp, #20]
 511              		.loc 2 233 0
 512 023c 029B     		ldr	r3, [sp, #8]
 513 023e 9A69     		ldr	r2, [r3, #24]
 514 0240 029B     		ldr	r3, [sp, #8]
 515 0242 1B69     		ldr	r3, [r3, #16]
 516 0244 9A42     		cmp	r2, r3
 517 0246 03D3     		bcc	.L25
 518              		.loc 2 234 0
 519 0248 029B     		ldr	r3, [sp, #8]
 520 024a DA68     		ldr	r2, [r3, #12]
 521 024c 029B     		ldr	r3, [sp, #8]
 522 024e 9A61     		str	r2, [r3, #24]
 523              	.L25:
 524              		.loc 2 235 0
 525 0250 029B     		ldr	r3, [sp, #8]
 526 0252 9B69     		ldr	r3, [r3, #24]
 527 0254 591C     		adds	r1, r3, #1
 528 0256 029A     		ldr	r2, [sp, #8]
 529 0258 9161     		str	r1, [r2, #24]
 530 025a 1B78     		ldrb	r3, [r3]	@ zero_extendqisi2
 531 025c 1B02     		lsls	r3, r3, #8
 532 025e 059A     		ldr	r2, [sp, #20]
 533 0260 1343     		orrs	r3, r3, r2
 534 0262 0593     		str	r3, [sp, #20]
 535              		.loc 2 236 0
 536 0264 029B     		ldr	r3, [sp, #8]
 537 0266 9A69     		ldr	r2, [r3, #24]
 538 0268 029B     		ldr	r3, [sp, #8]
 539 026a 1B69     		ldr	r3, [r3, #16]
 540 026c 9A42     		cmp	r2, r3
 541 026e 03D3     		bcc	.L26
 542              		.loc 2 237 0
 543 0270 029B     		ldr	r3, [sp, #8]
 544 0272 DA68     		ldr	r2, [r3, #12]
 545 0274 029B     		ldr	r3, [sp, #8]
 546 0276 9A61     		str	r2, [r3, #24]
 547              	.L26:
 548              		.loc 2 238 0
 549 0278 069B     		ldr	r3, [sp, #24]
 550 027a 1A1D     		adds	r2, r3, #4
 551 027c 0692     		str	r2, [sp, #24]
 552 027e 059A     		ldr	r2, [sp, #20]
 553 0280 1A60     		str	r2, [r3]
 554              		.loc 2 239 0
 555 0282 079B     		ldr	r3, [sp, #28]
 556 0284 013B     		subs	r3, r3, #1
 557 0286 0793     		str	r3, [sp, #28]
 558              	.L24:
 559              	.LBE5:
 560              		.loc 2 229 0
 561 0288 079B     		ldr	r3, [sp, #28]
ARM GAS  /tmp/ccaZEb87.s 			page 11


 562 028a 002B     		cmp	r3, #0
 563 028c CFD1     		bne	.L27
 564              		.loc 2 243 0
 565 028e 019B     		ldr	r3, [sp, #4]
 566 0290 03F00103 		and	r3, r3, #1
 567 0294 002B     		cmp	r3, #0
 568 0296 12D0     		beq	.L28
 569              		.loc 2 244 0
 570 0298 029B     		ldr	r3, [sp, #8]
 571 029a 9B69     		ldr	r3, [r3, #24]
 572 029c 591C     		adds	r1, r3, #1
 573 029e 029A     		ldr	r2, [sp, #8]
 574 02a0 9161     		str	r1, [r2, #24]
 575 02a2 1B78     		ldrb	r3, [r3]	@ zero_extendqisi2
 576 02a4 1A46     		mov	r2, r3
 577 02a6 069B     		ldr	r3, [sp, #24]
 578 02a8 1A60     		str	r2, [r3]
 579              		.loc 2 245 0
 580 02aa 029B     		ldr	r3, [sp, #8]
 581 02ac 9A69     		ldr	r2, [r3, #24]
 582 02ae 029B     		ldr	r3, [sp, #8]
 583 02b0 1B69     		ldr	r3, [r3, #16]
 584 02b2 9A42     		cmp	r2, r3
 585 02b4 03D3     		bcc	.L28
 586              		.loc 2 246 0
 587 02b6 029B     		ldr	r3, [sp, #8]
 588 02b8 DA68     		ldr	r2, [r3, #12]
 589 02ba 029B     		ldr	r3, [sp, #8]
 590 02bc 9A61     		str	r2, [r3, #24]
 591              	.L28:
 592              	.LBB6:
 593              		.loc 2 252 0
 594 02be 2023     		movs	r3, #32
 595              	@ 252 "/opt/R2P/core/ChibiOS_2.6.5/os/hal/platforms/STM32/USBv1/usb_lld.c" 1
 596 02c0 83F31188 		msr     BASEPRI, r3
 597              	@ 0 "" 2
 598              		.thumb
 599              	.LBE6:
 600              		.loc 2 253 0
 601 02c4 114B     		ldr	r3, .L31
 602 02c6 0122     		movs	r2, #1
 603 02c8 1A60     		str	r2, [r3]
 604              		.loc 2 255 0
 605 02ca 029B     		ldr	r3, [sp, #8]
 606 02cc 9A68     		ldr	r2, [r3, #8]
 607 02ce 019B     		ldr	r3, [sp, #4]
 608 02d0 1A44     		add	r2, r2, r3
 609 02d2 029B     		ldr	r3, [sp, #8]
 610 02d4 9A60     		str	r2, [r3, #8]
 611              		.loc 2 256 0
 612 02d6 0AE0     		b	.L29
 613              	.L30:
 614              		.loc 2 257 0
 615 02d8 029B     		ldr	r3, [sp, #8]
 616 02da 1846     		mov	r0, r3
 617 02dc FFF790FE 		bl	fifo_remove
 618 02e0 0346     		mov	r3, r0
ARM GAS  /tmp/ccaZEb87.s 			page 12


 619 02e2 1846     		mov	r0, r3
 620 02e4 FFF7FEFF 		bl	chSchReadyI
 621 02e8 0246     		mov	r2, r0
 622 02ea 0023     		movs	r3, #0
 623 02ec 9362     		str	r3, [r2, #40]
 624              	.L29:
 625              		.loc 2 256 0
 626 02ee 029B     		ldr	r3, [sp, #8]
 627 02f0 1A68     		ldr	r2, [r3]
 628 02f2 029B     		ldr	r3, [sp, #8]
 629 02f4 9A42     		cmp	r2, r3
 630 02f6 EFD1     		bne	.L30
 631              		.loc 2 259 0
 632 02f8 044B     		ldr	r3, .L31
 633 02fa 0022     		movs	r2, #0
 634 02fc 1A60     		str	r2, [r3]
 635              	.LBB7:
 636              		.loc 2 260 0
 637 02fe 0023     		movs	r3, #0
 638              	@ 260 "/opt/R2P/core/ChibiOS_2.6.5/os/hal/platforms/STM32/USBv1/usb_lld.c" 1
 639 0300 83F31188 		msr     BASEPRI, r3
 640              	@ 0 "" 2
 641              		.thumb
 642              	.LBE7:
 643              		.loc 2 261 0
 644 0304 09B0     		add	sp, sp, #36
 645              		.cfi_def_cfa_offset 4
 646              		@ sp needed
 647 0306 5DF804FB 		ldr	pc, [sp], #4
 648              	.L32:
 649 030a 00BF     		.align	2
 650              	.L31:
 651 030c 00000000 		.word	dbg_lock_cnt
 652              		.cfi_endproc
 653              	.LFE123:
 654              		.size	usb_packet_write_from_queue, .-usb_packet_write_from_queue
 655              		.align	2
 656              		.global	Vector168
 657              		.thumb
 658              		.thumb_func
 659              		.type	Vector168, %function
 660              	Vector168:
 661              	.LFB124:
 662              		.loc 2 276 0
 663              		.cfi_startproc
 664              		@ args = 0, pretend = 0, frame = 0
 665              		@ frame_needed = 0, uses_anonymous_args = 0
 666 0310 08B5     		push	{r3, lr}
 667              		.cfi_def_cfa_offset 8
 668              		.cfi_offset 3, -8
 669              		.cfi_offset 14, -4
 670              		.loc 2 278 0
 671 0312 FFF7FEFF 		bl	dbg_check_enter_isr
 672              		.loc 2 280 0
 673 0316 FFF7FEFF 		bl	dbg_check_leave_isr
 674 031a FFF7FEFF 		bl	_port_irq_epilogue
 675              		.loc 2 281 0
ARM GAS  /tmp/ccaZEb87.s 			page 13


 676 031e 08BD     		pop	{r3, pc}
 677              		.cfi_endproc
 678              	.LFE124:
 679              		.size	Vector168, .-Vector168
 680              		.align	2
 681              		.global	Vector16C
 682              		.thumb
 683              		.thumb_func
 684              		.type	Vector16C, %function
 685              	Vector16C:
 686              	.LFB125:
 687              		.loc 2 291 0
 688              		.cfi_startproc
 689              		@ args = 0, pretend = 0, frame = 40
 690              		@ frame_needed = 0, uses_anonymous_args = 0
 691 0320 00B5     		push	{lr}
 692              		.cfi_def_cfa_offset 4
 693              		.cfi_offset 14, -4
 694 0322 8BB0     		sub	sp, sp, #44
 695              		.cfi_def_cfa_offset 48
 696              		.loc 2 293 0
 697 0324 9E4B     		ldr	r3, .L56
 698 0326 0793     		str	r3, [sp, #28]
 699              		.loc 2 295 0
 700 0328 FFF7FEFF 		bl	dbg_check_enter_isr
 701              		.loc 2 297 0
 702 032c 9D4B     		ldr	r3, .L56+4
 703 032e 5B6C     		ldr	r3, [r3, #68]
 704 0330 0993     		str	r3, [sp, #36]
 705              		.loc 2 300 0
 706 0332 099B     		ldr	r3, [sp, #36]
 707 0334 03F48063 		and	r3, r3, #1024
 708 0338 002B     		cmp	r3, #0
 709 033a 11D0     		beq	.L35
 710              		.loc 2 301 0
 711 033c 0798     		ldr	r0, [sp, #28]
 712 033e FFF7FEFF 		bl	_usb_reset
 713              		.loc 2 302 0
 714 0342 079B     		ldr	r3, [sp, #28]
 715 0344 5B68     		ldr	r3, [r3, #4]
 716 0346 1B68     		ldr	r3, [r3]
 717 0348 002B     		cmp	r3, #0
 718 034a 05D0     		beq	.L36
 719              		.loc 2 302 0 is_stmt 0 discriminator 1
 720 034c 079B     		ldr	r3, [sp, #28]
 721 034e 5B68     		ldr	r3, [r3, #4]
 722 0350 1B68     		ldr	r3, [r3]
 723 0352 0798     		ldr	r0, [sp, #28]
 724 0354 0021     		movs	r1, #0
 725 0356 9847     		blx	r3
 726              	.L36:
 727              		.loc 2 303 0 is_stmt 1
 728 0358 924B     		ldr	r3, .L56+4
 729 035a 6FF48062 		mvn	r2, #1024
 730 035e 5A64     		str	r2, [r3, #68]
 731              	.L35:
 732              		.loc 2 307 0
ARM GAS  /tmp/ccaZEb87.s 			page 14


 733 0360 099B     		ldr	r3, [sp, #36]
 734 0362 03F40063 		and	r3, r3, #2048
 735 0366 002B     		cmp	r3, #0
 736 0368 14D0     		beq	.L37
 737              		.loc 2 308 0
 738 036a 8E4A     		ldr	r2, .L56+4
 739 036c 8D4B     		ldr	r3, .L56+4
 740 036e 1B6C     		ldr	r3, [r3, #64]
 741 0370 43F00803 		orr	r3, r3, #8
 742 0374 1364     		str	r3, [r2, #64]
 743              		.loc 2 309 0
 744 0376 079B     		ldr	r3, [sp, #28]
 745 0378 5B68     		ldr	r3, [r3, #4]
 746 037a 1B68     		ldr	r3, [r3]
 747 037c 002B     		cmp	r3, #0
 748 037e 05D0     		beq	.L38
 749              		.loc 2 309 0 is_stmt 0 discriminator 1
 750 0380 079B     		ldr	r3, [sp, #28]
 751 0382 5B68     		ldr	r3, [r3, #4]
 752 0384 1B68     		ldr	r3, [r3]
 753 0386 0798     		ldr	r0, [sp, #28]
 754 0388 0321     		movs	r1, #3
 755 038a 9847     		blx	r3
 756              	.L38:
 757              		.loc 2 313 0 is_stmt 1
 758 038c 854B     		ldr	r3, .L56+4
 759 038e 6FF40062 		mvn	r2, #2048
 760 0392 5A64     		str	r2, [r3, #68]
 761              	.L37:
 762              		.loc 2 317 0
 763 0394 099B     		ldr	r3, [sp, #36]
 764 0396 03F48053 		and	r3, r3, #4096
 765 039a 002B     		cmp	r3, #0
 766 039c 1CD0     		beq	.L39
 767              	.LBB8:
 768              		.loc 2 318 0
 769 039e 814B     		ldr	r3, .L56+4
 770 03a0 9B6C     		ldr	r3, [r3, #72]
 771 03a2 0693     		str	r3, [sp, #24]
 772              		.loc 2 319 0
 773 03a4 069B     		ldr	r3, [sp, #24]
 774 03a6 03F40043 		and	r3, r3, #32768
 775 03aa 002B     		cmp	r3, #0
 776 03ac 10D1     		bne	.L40
 777              		.loc 2 320 0
 778 03ae 7D4A     		ldr	r2, .L56+4
 779 03b0 7C4B     		ldr	r3, .L56+4
 780 03b2 1B6C     		ldr	r3, [r3, #64]
 781 03b4 23F00803 		bic	r3, r3, #8
 782 03b8 1364     		str	r3, [r2, #64]
 783              		.loc 2 321 0
 784 03ba 079B     		ldr	r3, [sp, #28]
 785 03bc 5B68     		ldr	r3, [r3, #4]
 786 03be 1B68     		ldr	r3, [r3]
 787 03c0 002B     		cmp	r3, #0
 788 03c2 05D0     		beq	.L40
 789              		.loc 2 321 0 is_stmt 0 discriminator 1
ARM GAS  /tmp/ccaZEb87.s 			page 15


 790 03c4 079B     		ldr	r3, [sp, #28]
 791 03c6 5B68     		ldr	r3, [r3, #4]
 792 03c8 1B68     		ldr	r3, [r3]
 793 03ca 0798     		ldr	r0, [sp, #28]
 794 03cc 0421     		movs	r1, #4
 795 03ce 9847     		blx	r3
 796              	.L40:
 797              		.loc 2 330 0 is_stmt 1
 798 03d0 744B     		ldr	r3, .L56+4
 799 03d2 6FF48052 		mvn	r2, #4096
 800 03d6 5A64     		str	r2, [r3, #68]
 801              	.L39:
 802              	.LBE8:
 803              		.loc 2 334 0
 804 03d8 099B     		ldr	r3, [sp, #36]
 805 03da 03F40073 		and	r3, r3, #512
 806 03de 002B     		cmp	r3, #0
 807 03e0 0DD0     		beq	.L41
 808              		.loc 2 335 0
 809 03e2 079B     		ldr	r3, [sp, #28]
 810 03e4 5B68     		ldr	r3, [r3, #4]
 811 03e6 DB68     		ldr	r3, [r3, #12]
 812 03e8 002B     		cmp	r3, #0
 813 03ea 04D0     		beq	.L42
 814              		.loc 2 335 0 is_stmt 0 discriminator 1
 815 03ec 079B     		ldr	r3, [sp, #28]
 816 03ee 5B68     		ldr	r3, [r3, #4]
 817 03f0 DB68     		ldr	r3, [r3, #12]
 818 03f2 0798     		ldr	r0, [sp, #28]
 819 03f4 9847     		blx	r3
 820              	.L42:
 821              		.loc 2 336 0 is_stmt 1
 822 03f6 6B4B     		ldr	r3, .L56+4
 823 03f8 6FF40072 		mvn	r2, #512
 824 03fc 5A64     		str	r2, [r3, #68]
 825              	.L41:
 826              		.loc 2 340 0
 827 03fe 53E1     		b	.L43
 828              	.L55:
 829              	.LBB9:
 830              		.loc 2 343 0
 831 0400 684A     		ldr	r2, .L56+4
 832 0402 099B     		ldr	r3, [sp, #36]
 833 0404 03F00F03 		and	r3, r3, #15
 834 0408 0593     		str	r3, [sp, #20]
 835 040a 059B     		ldr	r3, [sp, #20]
 836 040c 52F82330 		ldr	r3, [r2, r3, lsl #2]
 837 0410 0493     		str	r3, [sp, #16]
 838              		.loc 2 344 0
 839 0412 079A     		ldr	r2, [sp, #28]
 840 0414 059B     		ldr	r3, [sp, #20]
 841 0416 0233     		adds	r3, r3, #2
 842 0418 9B00     		lsls	r3, r3, #2
 843 041a 1344     		add	r3, r3, r2
 844 041c 5B68     		ldr	r3, [r3, #4]
 845 041e 0393     		str	r3, [sp, #12]
 846              		.loc 2 346 0
ARM GAS  /tmp/ccaZEb87.s 			page 16


 847 0420 049B     		ldr	r3, [sp, #16]
 848 0422 03F08003 		and	r3, r3, #128
 849 0426 002B     		cmp	r3, #0
 850 0428 00F09680 		beq	.L44
 851              	.LBB10:
 852              		.loc 2 349 0
 853 042c 5D49     		ldr	r1, .L56+4
 854 042e 5D4A     		ldr	r2, .L56+4
 855 0430 059B     		ldr	r3, [sp, #20]
 856 0432 52F82330 		ldr	r3, [r2, r3, lsl #2]
 857 0436 23F4F143 		bic	r3, r3, #30848
 858 043a 23F07003 		bic	r3, r3, #112
 859 043e 059A     		ldr	r2, [sp, #20]
 860 0440 41F82230 		str	r3, [r1, r2, lsl #2]
 861              		.loc 2 351 0
 862 0444 574B     		ldr	r3, .L56+4
 863 0446 1A6D     		ldr	r2, [r3, #80]
 864 0448 059B     		ldr	r3, [sp, #20]
 865 044a DB00     		lsls	r3, r3, #3
 866 044c 1344     		add	r3, r3, r2
 867 044e 03F10053 		add	r3, r3, #536870912
 868 0452 03F54053 		add	r3, r3, #12288
 869 0456 5B00     		lsls	r3, r3, #1
 870 0458 9B88     		ldrh	r3, [r3, #4]	@ movhi
 871 045a 9BB2     		uxth	r3, r3
 872 045c 0293     		str	r3, [sp, #8]
 873              		.loc 2 352 0
 874 045e 039B     		ldr	r3, [sp, #12]
 875 0460 5B69     		ldr	r3, [r3, #20]
 876 0462 039A     		ldr	r2, [sp, #12]
 877 0464 5269     		ldr	r2, [r2, #20]
 878 0466 9168     		ldr	r1, [r2, #8]
 879 0468 029A     		ldr	r2, [sp, #8]
 880 046a 0A44     		add	r2, r2, r1
 881 046c 9A60     		str	r2, [r3, #8]
 882              		.loc 2 353 0
 883 046e 039B     		ldr	r3, [sp, #12]
 884 0470 5B69     		ldr	r3, [r3, #20]
 885 0472 5A68     		ldr	r2, [r3, #4]
 886 0474 039B     		ldr	r3, [sp, #12]
 887 0476 5B69     		ldr	r3, [r3, #20]
 888 0478 9B68     		ldr	r3, [r3, #8]
 889 047a D31A     		subs	r3, r2, r3
 890 047c 0893     		str	r3, [sp, #32]
 891              		.loc 2 354 0
 892 047e 089B     		ldr	r3, [sp, #32]
 893 0480 002B     		cmp	r3, #0
 894 0482 4DD0     		beq	.L45
 895              		.loc 2 356 0
 896 0484 039B     		ldr	r3, [sp, #12]
 897 0486 1B8A     		ldrh	r3, [r3, #16]
 898 0488 1A46     		mov	r2, r3
 899 048a 089B     		ldr	r3, [sp, #32]
 900 048c 9A42     		cmp	r2, r3
 901 048e 02D2     		bcs	.L46
 902              		.loc 2 357 0
 903 0490 039B     		ldr	r3, [sp, #12]
ARM GAS  /tmp/ccaZEb87.s 			page 17


 904 0492 1B8A     		ldrh	r3, [r3, #16]
 905 0494 0893     		str	r3, [sp, #32]
 906              	.L46:
 907              		.loc 2 359 0
 908 0496 039B     		ldr	r3, [sp, #12]
 909 0498 5B69     		ldr	r3, [r3, #20]
 910 049a 1B78     		ldrb	r3, [r3]	@ zero_extendqisi2
 911 049c 002B     		cmp	r3, #0
 912 049e 13D0     		beq	.L47
 913              		.loc 2 360 0
 914 04a0 404B     		ldr	r3, .L56+4
 915 04a2 1A6D     		ldr	r2, [r3, #80]
 916 04a4 059B     		ldr	r3, [sp, #20]
 917 04a6 DB00     		lsls	r3, r3, #3
 918 04a8 1344     		add	r3, r3, r2
 919 04aa 03F10053 		add	r3, r3, #536870912
 920 04ae 03F54053 		add	r3, r3, #12288
 921 04b2 5B00     		lsls	r3, r3, #1
 922 04b4 1A46     		mov	r2, r3
 923              		.loc 2 361 0
 924 04b6 039B     		ldr	r3, [sp, #12]
 925 04b8 5B69     		ldr	r3, [r3, #20]
 926              		.loc 2 360 0
 927 04ba DB68     		ldr	r3, [r3, #12]
 928 04bc 1046     		mov	r0, r2
 929 04be 1946     		mov	r1, r3
 930 04c0 089A     		ldr	r2, [sp, #32]
 931 04c2 FFF79FFE 		bl	usb_packet_write_from_queue
 932 04c6 1AE0     		b	.L48
 933              	.L47:
 934              		.loc 2 364 0
 935 04c8 039B     		ldr	r3, [sp, #12]
 936 04ca 5B69     		ldr	r3, [r3, #20]
 937 04cc 039A     		ldr	r2, [sp, #12]
 938 04ce 5269     		ldr	r2, [r2, #20]
 939 04d0 D168     		ldr	r1, [r2, #12]
 940 04d2 029A     		ldr	r2, [sp, #8]
 941 04d4 0A44     		add	r2, r2, r1
 942 04d6 DA60     		str	r2, [r3, #12]
 943              		.loc 2 365 0
 944 04d8 324B     		ldr	r3, .L56+4
 945 04da 1A6D     		ldr	r2, [r3, #80]
 946 04dc 059B     		ldr	r3, [sp, #20]
 947 04de DB00     		lsls	r3, r3, #3
 948 04e0 1344     		add	r3, r3, r2
 949 04e2 03F10053 		add	r3, r3, #536870912
 950 04e6 03F54053 		add	r3, r3, #12288
 951 04ea 5B00     		lsls	r3, r3, #1
 952 04ec 1A46     		mov	r2, r3
 953              		.loc 2 366 0
 954 04ee 039B     		ldr	r3, [sp, #12]
 955 04f0 5B69     		ldr	r3, [r3, #20]
 956              		.loc 2 365 0
 957 04f2 DB68     		ldr	r3, [r3, #12]
 958 04f4 1046     		mov	r0, r2
 959 04f6 1946     		mov	r1, r3
 960 04f8 089A     		ldr	r2, [sp, #32]
ARM GAS  /tmp/ccaZEb87.s 			page 18


 961 04fa FFF75DFE 		bl	usb_packet_write_from_buffer
 962              	.L48:
 963              	.LBB11:
 964              		.loc 2 369 0
 965 04fe 2023     		movs	r3, #32
 966              	@ 369 "/opt/R2P/core/ChibiOS_2.6.5/os/hal/platforms/STM32/USBv1/usb_lld.c" 1
 967 0500 83F31188 		msr     BASEPRI, r3
 968              	@ 0 "" 2
 969              		.thumb
 970              	.LBE11:
 971 0504 FFF7FEFF 		bl	dbg_check_lock_from_isr
 972              		.loc 2 370 0
 973 0508 059B     		ldr	r3, [sp, #20]
 974 050a DBB2     		uxtb	r3, r3
 975 050c 0798     		ldr	r0, [sp, #28]
 976 050e 1946     		mov	r1, r3
 977 0510 FFF7FEFF 		bl	usb_lld_start_in
 978              		.loc 2 371 0
 979 0514 FFF7FEFF 		bl	dbg_check_unlock_from_isr
 980              	.LBB12:
 981 0518 0023     		movs	r3, #0
 982              	@ 371 "/opt/R2P/core/ChibiOS_2.6.5/os/hal/platforms/STM32/USBv1/usb_lld.c" 1
 983 051a 83F31188 		msr     BASEPRI, r3
 984              	@ 0 "" 2
 985              		.thumb
 986              	.LBE12:
 987 051e 1BE0     		b	.L44
 988              	.L45:
 989              		.loc 2 375 0
 990 0520 079B     		ldr	r3, [sp, #28]
 991 0522 1B89     		ldrh	r3, [r3, #8]
 992 0524 99B2     		uxth	r1, r3
 993 0526 059B     		ldr	r3, [sp, #20]
 994 0528 0122     		movs	r2, #1
 995 052a 02FA03F3 		lsl	r3, r2, r3
 996 052e 9BB2     		uxth	r3, r3
 997 0530 DB43     		mvns	r3, r3
 998 0532 9BB2     		uxth	r3, r3
 999 0534 0A46     		mov	r2, r1	@ movhi
 1000 0536 1340     		ands	r3, r3, r2
 1001 0538 9BB2     		uxth	r3, r3
 1002 053a 9AB2     		uxth	r2, r3
 1003 053c 079B     		ldr	r3, [sp, #28]
 1004 053e 1A81     		strh	r2, [r3, #8]	@ movhi
 1005 0540 079A     		ldr	r2, [sp, #28]
 1006 0542 059B     		ldr	r3, [sp, #20]
 1007 0544 0233     		adds	r3, r3, #2
 1008 0546 9B00     		lsls	r3, r3, #2
 1009 0548 1344     		add	r3, r3, r2
 1010 054a 5B68     		ldr	r3, [r3, #4]
 1011 054c 9B68     		ldr	r3, [r3, #8]
 1012 054e 059A     		ldr	r2, [sp, #20]
 1013 0550 D2B2     		uxtb	r2, r2
 1014 0552 0798     		ldr	r0, [sp, #28]
 1015 0554 1146     		mov	r1, r2
 1016 0556 9847     		blx	r3
 1017              	.L44:
ARM GAS  /tmp/ccaZEb87.s 			page 19


 1018              	.LBE10:
 1019              		.loc 2 378 0
 1020 0558 049B     		ldr	r3, [sp, #16]
 1021 055a 03F40043 		and	r3, r3, #32768
 1022 055e 002B     		cmp	r3, #0
 1023 0560 00F09F80 		beq	.L49
 1024              		.loc 2 379 0
 1025 0564 0F49     		ldr	r1, .L56+4
 1026 0566 0F4A     		ldr	r2, .L56+4
 1027 0568 059B     		ldr	r3, [sp, #20]
 1028 056a 52F82330 		ldr	r3, [r2, r3, lsl #2]
 1029 056e 23F47843 		bic	r3, r3, #63488
 1030 0572 23F07003 		bic	r3, r3, #112
 1031 0576 059A     		ldr	r2, [sp, #20]
 1032 0578 41F82230 		str	r3, [r1, r2, lsl #2]
 1033              		.loc 2 381 0
 1034 057c 049B     		ldr	r3, [sp, #16]
 1035 057e 03F40063 		and	r3, r3, #2048
 1036 0582 002B     		cmp	r3, #0
 1037 0584 10D0     		beq	.L50
 1038              		.loc 2 384 0
 1039 0586 079A     		ldr	r2, [sp, #28]
 1040 0588 059B     		ldr	r3, [sp, #20]
 1041 058a 0233     		adds	r3, r3, #2
 1042 058c 9B00     		lsls	r3, r3, #2
 1043 058e 1344     		add	r3, r3, r2
 1044 0590 5B68     		ldr	r3, [r3, #4]
 1045 0592 5B68     		ldr	r3, [r3, #4]
 1046 0594 059A     		ldr	r2, [sp, #20]
 1047 0596 D2B2     		uxtb	r2, r2
 1048 0598 0798     		ldr	r0, [sp, #28]
 1049 059a 1146     		mov	r1, r2
 1050 059c 9847     		blx	r3
 1051 059e 80E0     		b	.L49
 1052              	.L57:
 1053              		.align	2
 1054              	.L56:
 1055 05a0 00000000 		.word	USBD1
 1056 05a4 005C0040 		.word	1073765376
 1057              	.L50:
 1058              	.LBB13:
 1059              		.loc 2 387 0
 1060 05a8 464B     		ldr	r3, .L58
 1061 05aa 1A6D     		ldr	r2, [r3, #80]
 1062 05ac 059B     		ldr	r3, [sp, #20]
 1063 05ae DB00     		lsls	r3, r3, #3
 1064 05b0 1344     		add	r3, r3, r2
 1065 05b2 03F10053 		add	r3, r3, #536870912
 1066 05b6 03F54053 		add	r3, r3, #12288
 1067 05ba 5B00     		lsls	r3, r3, #1
 1068 05bc 0193     		str	r3, [sp, #4]
 1069              		.loc 2 388 0
 1070 05be 019B     		ldr	r3, [sp, #4]
 1071 05c0 9B89     		ldrh	r3, [r3, #12]	@ movhi
 1072 05c2 9BB2     		uxth	r3, r3
 1073 05c4 C3F30903 		ubfx	r3, r3, #0, #10
 1074 05c8 0893     		str	r3, [sp, #32]
ARM GAS  /tmp/ccaZEb87.s 			page 20


 1075              		.loc 2 391 0
 1076 05ca 039B     		ldr	r3, [sp, #12]
 1077 05cc 9B69     		ldr	r3, [r3, #24]
 1078 05ce 1B78     		ldrb	r3, [r3]	@ zero_extendqisi2
 1079 05d0 002B     		cmp	r3, #0
 1080 05d2 08D0     		beq	.L51
 1081              		.loc 2 393 0
 1082 05d4 039B     		ldr	r3, [sp, #12]
 1083 05d6 9B69     		ldr	r3, [r3, #24]
 1084              		.loc 2 392 0
 1085 05d8 DB68     		ldr	r3, [r3, #12]
 1086 05da 0198     		ldr	r0, [sp, #4]
 1087 05dc 1946     		mov	r1, r3
 1088 05de 089A     		ldr	r2, [sp, #32]
 1089 05e0 FFF76CFD 		bl	usb_packet_read_to_queue
 1090 05e4 0FE0     		b	.L52
 1091              	.L51:
 1092              		.loc 2 397 0
 1093 05e6 039B     		ldr	r3, [sp, #12]
 1094 05e8 9B69     		ldr	r3, [r3, #24]
 1095              		.loc 2 396 0
 1096 05ea DB68     		ldr	r3, [r3, #12]
 1097 05ec 0198     		ldr	r0, [sp, #4]
 1098 05ee 1946     		mov	r1, r3
 1099 05f0 089A     		ldr	r2, [sp, #32]
 1100 05f2 FFF73FFD 		bl	usb_packet_read_to_buffer
 1101              		.loc 2 399 0
 1102 05f6 039B     		ldr	r3, [sp, #12]
 1103 05f8 9B69     		ldr	r3, [r3, #24]
 1104 05fa 039A     		ldr	r2, [sp, #12]
 1105 05fc 9269     		ldr	r2, [r2, #24]
 1106 05fe D168     		ldr	r1, [r2, #12]
 1107 0600 089A     		ldr	r2, [sp, #32]
 1108 0602 0A44     		add	r2, r2, r1
 1109 0604 DA60     		str	r2, [r3, #12]
 1110              	.L52:
 1111              		.loc 2 402 0
 1112 0606 039B     		ldr	r3, [sp, #12]
 1113 0608 9B69     		ldr	r3, [r3, #24]
 1114 060a 039A     		ldr	r2, [sp, #12]
 1115 060c 9269     		ldr	r2, [r2, #24]
 1116 060e 9168     		ldr	r1, [r2, #8]
 1117 0610 089A     		ldr	r2, [sp, #32]
 1118 0612 0A44     		add	r2, r2, r1
 1119 0614 9A60     		str	r2, [r3, #8]
 1120              		.loc 2 403 0
 1121 0616 039B     		ldr	r3, [sp, #12]
 1122 0618 9B69     		ldr	r3, [r3, #24]
 1123 061a 039A     		ldr	r2, [sp, #12]
 1124 061c 9269     		ldr	r2, [r2, #24]
 1125 061e 5168     		ldr	r1, [r2, #4]
 1126 0620 089A     		ldr	r2, [sp, #32]
 1127 0622 8A1A     		subs	r2, r1, r2
 1128 0624 5A60     		str	r2, [r3, #4]
 1129              		.loc 2 404 0
 1130 0626 039B     		ldr	r3, [sp, #12]
 1131 0628 9B69     		ldr	r3, [r3, #24]
ARM GAS  /tmp/ccaZEb87.s 			page 21


 1132 062a 039A     		ldr	r2, [sp, #12]
 1133 062c 9269     		ldr	r2, [r2, #24]
 1134 062e 128A     		ldrh	r2, [r2, #16]
 1135 0630 013A     		subs	r2, r2, #1
 1136 0632 92B2     		uxth	r2, r2
 1137 0634 1A82     		strh	r2, [r3, #16]	@ movhi
 1138              		.loc 2 408 0
 1139 0636 039B     		ldr	r3, [sp, #12]
 1140 0638 5B8A     		ldrh	r3, [r3, #18]
 1141 063a 1A46     		mov	r2, r3
 1142 063c 089B     		ldr	r3, [sp, #32]
 1143 063e 9A42     		cmp	r2, r3
 1144 0640 04D8     		bhi	.L53
 1145              		.loc 2 408 0 is_stmt 0 discriminator 1
 1146 0642 039B     		ldr	r3, [sp, #12]
 1147 0644 9B69     		ldr	r3, [r3, #24]
 1148 0646 1B8A     		ldrh	r3, [r3, #16]
 1149 0648 002B     		cmp	r3, #0
 1150 064a 1CD1     		bne	.L54
 1151              	.L53:
 1152              		.loc 2 410 0 is_stmt 1
 1153 064c 079B     		ldr	r3, [sp, #28]
 1154 064e 5B89     		ldrh	r3, [r3, #10]
 1155 0650 99B2     		uxth	r1, r3
 1156 0652 059B     		ldr	r3, [sp, #20]
 1157 0654 0122     		movs	r2, #1
 1158 0656 02FA03F3 		lsl	r3, r2, r3
 1159 065a 9BB2     		uxth	r3, r3
 1160 065c DB43     		mvns	r3, r3
 1161 065e 9BB2     		uxth	r3, r3
 1162 0660 0A46     		mov	r2, r1	@ movhi
 1163 0662 1340     		ands	r3, r3, r2
 1164 0664 9BB2     		uxth	r3, r3
 1165 0666 9AB2     		uxth	r2, r3
 1166 0668 079B     		ldr	r3, [sp, #28]
 1167 066a 5A81     		strh	r2, [r3, #10]	@ movhi
 1168 066c 079A     		ldr	r2, [sp, #28]
 1169 066e 059B     		ldr	r3, [sp, #20]
 1170 0670 0233     		adds	r3, r3, #2
 1171 0672 9B00     		lsls	r3, r3, #2
 1172 0674 1344     		add	r3, r3, r2
 1173 0676 5B68     		ldr	r3, [r3, #4]
 1174 0678 DB68     		ldr	r3, [r3, #12]
 1175 067a 059A     		ldr	r2, [sp, #20]
 1176 067c D2B2     		uxtb	r2, r2
 1177 067e 0798     		ldr	r0, [sp, #28]
 1178 0680 1146     		mov	r1, r2
 1179 0682 9847     		blx	r3
 1180 0684 0DE0     		b	.L49
 1181              	.L54:
 1182              		.loc 2 414 0
 1183 0686 0F49     		ldr	r1, .L58
 1184 0688 0E4A     		ldr	r2, .L58
 1185 068a 059B     		ldr	r3, [sp, #20]
 1186 068c 52F82330 		ldr	r3, [r2, r3, lsl #2]
 1187 0690 23F49043 		bic	r3, r3, #18432
 1188 0694 23F07003 		bic	r3, r3, #112
ARM GAS  /tmp/ccaZEb87.s 			page 22


 1189 0698 83F44052 		eor	r2, r3, #12288
 1190 069c 059B     		ldr	r3, [sp, #20]
 1191 069e 41F82320 		str	r2, [r1, r3, lsl #2]
 1192              	.L49:
 1193              	.LBE13:
 1194              		.loc 2 418 0
 1195 06a2 084B     		ldr	r3, .L58
 1196 06a4 5B6C     		ldr	r3, [r3, #68]
 1197 06a6 0993     		str	r3, [sp, #36]
 1198              	.L43:
 1199              	.LBE9:
 1200              		.loc 2 340 0
 1201 06a8 099B     		ldr	r3, [sp, #36]
 1202 06aa 03F40043 		and	r3, r3, #32768
 1203 06ae 002B     		cmp	r3, #0
 1204 06b0 7FF4A6AE 		bne	.L55
 1205              		.loc 2 421 0
 1206 06b4 FFF7FEFF 		bl	dbg_check_leave_isr
 1207 06b8 FFF7FEFF 		bl	_port_irq_epilogue
 1208              		.loc 2 422 0
 1209 06bc 0BB0     		add	sp, sp, #44
 1210              		.cfi_def_cfa_offset 4
 1211              		@ sp needed
 1212 06be 5DF804FB 		ldr	pc, [sp], #4
 1213              	.L59:
 1214 06c2 00BF     		.align	2
 1215              	.L58:
 1216 06c4 005C0040 		.word	1073765376
 1217              		.cfi_endproc
 1218              	.LFE125:
 1219              		.size	Vector16C, .-Vector16C
 1220              		.align	2
 1221              		.global	usb_lld_init
 1222              		.thumb
 1223              		.thumb_func
 1224              		.type	usb_lld_init, %function
 1225              	usb_lld_init:
 1226              	.LFB126:
 1227              		.loc 2 434 0
 1228              		.cfi_startproc
 1229              		@ args = 0, pretend = 0, frame = 0
 1230              		@ frame_needed = 0, uses_anonymous_args = 0
 1231 06c8 08B5     		push	{r3, lr}
 1232              		.cfi_def_cfa_offset 8
 1233              		.cfi_offset 3, -8
 1234              		.cfi_offset 14, -4
 1235              		.loc 2 437 0
 1236 06ca 0248     		ldr	r0, .L61
 1237 06cc FFF7FEFF 		bl	usbObjectInit
 1238              		.loc 2 438 0
 1239 06d0 08BD     		pop	{r3, pc}
 1240              	.L62:
 1241 06d2 00BF     		.align	2
 1242              	.L61:
 1243 06d4 00000000 		.word	USBD1
 1244              		.cfi_endproc
 1245              	.LFE126:
ARM GAS  /tmp/ccaZEb87.s 			page 23


 1246              		.size	usb_lld_init, .-usb_lld_init
 1247              		.align	2
 1248              		.global	usb_lld_start
 1249              		.thumb
 1250              		.thumb_func
 1251              		.type	usb_lld_start, %function
 1252              	usb_lld_start:
 1253              	.LFB127:
 1254              		.loc 2 447 0
 1255              		.cfi_startproc
 1256              		@ args = 0, pretend = 0, frame = 8
 1257              		@ frame_needed = 0, uses_anonymous_args = 0
 1258 06d8 00B5     		push	{lr}
 1259              		.cfi_def_cfa_offset 4
 1260              		.cfi_offset 14, -4
 1261 06da 83B0     		sub	sp, sp, #12
 1262              		.cfi_def_cfa_offset 16
 1263 06dc 0190     		str	r0, [sp, #4]
 1264              		.loc 2 449 0
 1265 06de 019B     		ldr	r3, [sp, #4]
 1266 06e0 1B78     		ldrb	r3, [r3]	@ zero_extendqisi2
 1267 06e2 012B     		cmp	r3, #1
 1268 06e4 1AD1     		bne	.L63
 1269              		.loc 2 452 0
 1270 06e6 019B     		ldr	r3, [sp, #4]
 1271 06e8 0E4A     		ldr	r2, .L66
 1272 06ea 9342     		cmp	r3, r2
 1273 06ec 13D1     		bne	.L65
 1274              		.loc 2 454 0
 1275 06ee 0E4A     		ldr	r2, .L66+4
 1276 06f0 0D4B     		ldr	r3, .L66+4
 1277 06f2 DB69     		ldr	r3, [r3, #28]
 1278 06f4 43F40003 		orr	r3, r3, #8388608
 1279 06f8 D361     		str	r3, [r2, #28]
 1280              		.loc 2 456 0
 1281 06fa 0C4B     		ldr	r3, .L66+8
 1282 06fc 0122     		movs	r2, #1
 1283 06fe 1A64     		str	r2, [r3, #64]
 1284              		.loc 2 459 0
 1285 0700 4A20     		movs	r0, #74
 1286 0702 D021     		movs	r1, #208
 1287 0704 FFF7FEFF 		bl	nvicEnableVector
 1288              		.loc 2 461 0
 1289 0708 4B20     		movs	r0, #75
 1290 070a E021     		movs	r1, #224
 1291 070c FFF7FEFF 		bl	nvicEnableVector
 1292              		.loc 2 464 0
 1293 0710 064B     		ldr	r3, .L66+8
 1294 0712 0022     		movs	r2, #0
 1295 0714 1A64     		str	r2, [r3, #64]
 1296              	.L65:
 1297              		.loc 2 468 0
 1298 0716 0198     		ldr	r0, [sp, #4]
 1299 0718 FFF7FEFF 		bl	_usb_reset
 1300              	.L63:
 1301              		.loc 2 471 0
 1302 071c 03B0     		add	sp, sp, #12
ARM GAS  /tmp/ccaZEb87.s 			page 24


 1303              		.cfi_def_cfa_offset 4
 1304              		@ sp needed
 1305 071e 5DF804FB 		ldr	pc, [sp], #4
 1306              	.L67:
 1307 0722 00BF     		.align	2
 1308              	.L66:
 1309 0724 00000000 		.word	USBD1
 1310 0728 00100240 		.word	1073876992
 1311 072c 005C0040 		.word	1073765376
 1312              		.cfi_endproc
 1313              	.LFE127:
 1314              		.size	usb_lld_start, .-usb_lld_start
 1315              		.align	2
 1316              		.global	usb_lld_stop
 1317              		.thumb
 1318              		.thumb_func
 1319              		.type	usb_lld_stop, %function
 1320              	usb_lld_stop:
 1321              	.LFB128:
 1322              		.loc 2 480 0
 1323              		.cfi_startproc
 1324              		@ args = 0, pretend = 0, frame = 8
 1325              		@ frame_needed = 0, uses_anonymous_args = 0
 1326 0730 00B5     		push	{lr}
 1327              		.cfi_def_cfa_offset 4
 1328              		.cfi_offset 14, -4
 1329 0732 83B0     		sub	sp, sp, #12
 1330              		.cfi_def_cfa_offset 16
 1331 0734 0190     		str	r0, [sp, #4]
 1332              		.loc 2 483 0
 1333 0736 019B     		ldr	r3, [sp, #4]
 1334 0738 1B78     		ldrb	r3, [r3]	@ zero_extendqisi2
 1335 073a 012B     		cmp	r3, #1
 1336 073c 12D1     		bne	.L68
 1337              		.loc 2 485 0
 1338 073e 019B     		ldr	r3, [sp, #4]
 1339 0740 0A4A     		ldr	r2, .L70
 1340 0742 9342     		cmp	r3, r2
 1341 0744 0ED1     		bne	.L68
 1342              		.loc 2 486 0
 1343 0746 4A20     		movs	r0, #74
 1344 0748 FFF7FEFF 		bl	nvicDisableVector
 1345              		.loc 2 487 0
 1346 074c 4B20     		movs	r0, #75
 1347 074e FFF7FEFF 		bl	nvicDisableVector
 1348              		.loc 2 488 0
 1349 0752 074B     		ldr	r3, .L70+4
 1350 0754 0322     		movs	r2, #3
 1351 0756 1A64     		str	r2, [r3, #64]
 1352              		.loc 2 489 0
 1353 0758 064A     		ldr	r2, .L70+8
 1354 075a 064B     		ldr	r3, .L70+8
 1355 075c DB69     		ldr	r3, [r3, #28]
 1356 075e 23F40003 		bic	r3, r3, #8388608
 1357 0762 D361     		str	r3, [r2, #28]
 1358              	.L68:
 1359              		.loc 2 493 0
ARM GAS  /tmp/ccaZEb87.s 			page 25


 1360 0764 03B0     		add	sp, sp, #12
 1361              		.cfi_def_cfa_offset 4
 1362              		@ sp needed
 1363 0766 5DF804FB 		ldr	pc, [sp], #4
 1364              	.L71:
 1365 076a 00BF     		.align	2
 1366              	.L70:
 1367 076c 00000000 		.word	USBD1
 1368 0770 005C0040 		.word	1073765376
 1369 0774 00100240 		.word	1073876992
 1370              		.cfi_endproc
 1371              	.LFE128:
 1372              		.size	usb_lld_stop, .-usb_lld_stop
 1373              		.align	2
 1374              		.global	usb_lld_reset
 1375              		.thumb
 1376              		.thumb_func
 1377              		.type	usb_lld_reset, %function
 1378              	usb_lld_reset:
 1379              	.LFB129:
 1380              		.loc 2 502 0
 1381              		.cfi_startproc
 1382              		@ args = 0, pretend = 0, frame = 16
 1383              		@ frame_needed = 0, uses_anonymous_args = 0
 1384 0778 00B5     		push	{lr}
 1385              		.cfi_def_cfa_offset 4
 1386              		.cfi_offset 14, -4
 1387 077a 85B0     		sub	sp, sp, #20
 1388              		.cfi_def_cfa_offset 24
 1389 077c 0190     		str	r0, [sp, #4]
 1390              		.loc 2 506 0
 1391 077e 124B     		ldr	r3, .L74
 1392 0780 0022     		movs	r2, #0
 1393 0782 1A65     		str	r2, [r3, #80]
 1394              		.loc 2 507 0
 1395 0784 104B     		ldr	r3, .L74
 1396 0786 0022     		movs	r2, #0
 1397 0788 5A64     		str	r2, [r3, #68]
 1398              		.loc 2 508 0
 1399 078a 0F4B     		ldr	r3, .L74
 1400 078c 8022     		movs	r2, #128
 1401 078e DA64     		str	r2, [r3, #76]
 1402              		.loc 2 509 0
 1403 0790 4FF41C43 		mov	r3, #39936
 1404 0794 0393     		str	r3, [sp, #12]
 1405              		.loc 2 513 0
 1406 0796 019B     		ldr	r3, [sp, #4]
 1407 0798 5B68     		ldr	r3, [r3, #4]
 1408 079a DB68     		ldr	r3, [r3, #12]
 1409 079c 002B     		cmp	r3, #0
 1410 079e 03D0     		beq	.L73
 1411              		.loc 2 514 0
 1412 07a0 039B     		ldr	r3, [sp, #12]
 1413 07a2 43F40073 		orr	r3, r3, #512
 1414 07a6 0393     		str	r3, [sp, #12]
 1415              	.L73:
 1416              		.loc 2 515 0
ARM GAS  /tmp/ccaZEb87.s 			page 26


 1417 07a8 074A     		ldr	r2, .L74
 1418 07aa 039B     		ldr	r3, [sp, #12]
 1419 07ac 1364     		str	r3, [r2, #64]
 1420              		.loc 2 518 0
 1421 07ae 0198     		ldr	r0, [sp, #4]
 1422 07b0 FFF738FC 		bl	usb_pm_reset
 1423              		.loc 2 521 0
 1424 07b4 019B     		ldr	r3, [sp, #4]
 1425 07b6 054A     		ldr	r2, .L74+4
 1426 07b8 DA60     		str	r2, [r3, #12]
 1427              		.loc 2 522 0
 1428 07ba 0198     		ldr	r0, [sp, #4]
 1429 07bc 0021     		movs	r1, #0
 1430 07be FFF7FEFF 		bl	usb_lld_init_endpoint
 1431              		.loc 2 523 0
 1432 07c2 05B0     		add	sp, sp, #20
 1433              		.cfi_def_cfa_offset 4
 1434              		@ sp needed
 1435 07c4 5DF804FB 		ldr	pc, [sp], #4
 1436              	.L75:
 1437              		.align	2
 1438              	.L74:
 1439 07c8 005C0040 		.word	1073765376
 1440 07cc 00000000 		.word	ep0config
 1441              		.cfi_endproc
 1442              	.LFE129:
 1443              		.size	usb_lld_reset, .-usb_lld_reset
 1444              		.align	2
 1445              		.global	usb_lld_set_address
 1446              		.thumb
 1447              		.thumb_func
 1448              		.type	usb_lld_set_address, %function
 1449              	usb_lld_set_address:
 1450              	.LFB130:
 1451              		.loc 2 532 0
 1452              		.cfi_startproc
 1453              		@ args = 0, pretend = 0, frame = 8
 1454              		@ frame_needed = 0, uses_anonymous_args = 0
 1455              		@ link register save eliminated.
 1456 07d0 82B0     		sub	sp, sp, #8
 1457              		.cfi_def_cfa_offset 8
 1458 07d2 0190     		str	r0, [sp, #4]
 1459              		.loc 2 534 0
 1460 07d4 044A     		ldr	r2, .L77
 1461 07d6 019B     		ldr	r3, [sp, #4]
 1462 07d8 93F87E30 		ldrb	r3, [r3, #126]	@ zero_extendqisi2
 1463 07dc 63F07F03 		orn	r3, r3, #127
 1464 07e0 DBB2     		uxtb	r3, r3
 1465 07e2 D364     		str	r3, [r2, #76]
 1466              		.loc 2 535 0
 1467 07e4 02B0     		add	sp, sp, #8
 1468              		.cfi_def_cfa_offset 0
 1469              		@ sp needed
 1470 07e6 7047     		bx	lr
 1471              	.L78:
 1472              		.align	2
 1473              	.L77:
ARM GAS  /tmp/ccaZEb87.s 			page 27


 1474 07e8 005C0040 		.word	1073765376
 1475              		.cfi_endproc
 1476              	.LFE130:
 1477              		.size	usb_lld_set_address, .-usb_lld_set_address
 1478              		.align	2
 1479              		.global	usb_lld_init_endpoint
 1480              		.thumb
 1481              		.thumb_func
 1482              		.type	usb_lld_init_endpoint, %function
 1483              	usb_lld_init_endpoint:
 1484              	.LFB131:
 1485              		.loc 2 545 0
 1486              		.cfi_startproc
 1487              		@ args = 0, pretend = 0, frame = 24
 1488              		@ frame_needed = 0, uses_anonymous_args = 0
 1489 07ec 10B5     		push	{r4, lr}
 1490              		.cfi_def_cfa_offset 8
 1491              		.cfi_offset 4, -8
 1492              		.cfi_offset 14, -4
 1493 07ee 86B0     		sub	sp, sp, #24
 1494              		.cfi_def_cfa_offset 32
 1495 07f0 0190     		str	r0, [sp, #4]
 1496 07f2 0B46     		mov	r3, r1
 1497 07f4 8DF80330 		strb	r3, [sp, #3]
 1498              		.loc 2 548 0
 1499 07f8 9DF80330 		ldrb	r3, [sp, #3]	@ zero_extendqisi2
 1500 07fc 019A     		ldr	r2, [sp, #4]
 1501 07fe 0233     		adds	r3, r3, #2
 1502 0800 9B00     		lsls	r3, r3, #2
 1503 0802 1344     		add	r3, r3, r2
 1504 0804 5B68     		ldr	r3, [r3, #4]
 1505 0806 0493     		str	r3, [sp, #16]
 1506              		.loc 2 551 0
 1507 0808 049B     		ldr	r3, [sp, #16]
 1508 080a 1B68     		ldr	r3, [r3]
 1509 080c 03F00303 		and	r3, r3, #3
 1510 0810 022B     		cmp	r3, #2
 1511 0812 08D0     		beq	.L81
 1512 0814 032B     		cmp	r3, #3
 1513 0816 0AD0     		beq	.L82
 1514 0818 012B     		cmp	r3, #1
 1515 081a 0DD1     		bne	.L90
 1516              		.loc 2 553 0
 1517 081c 4FF48063 		mov	r3, #1024
 1518 0820 ADF81430 		strh	r3, [sp, #20]	@ movhi
 1519              		.loc 2 554 0
 1520 0824 0CE0     		b	.L84
 1521              	.L81:
 1522              		.loc 2 556 0
 1523 0826 0023     		movs	r3, #0
 1524 0828 ADF81430 		strh	r3, [sp, #20]	@ movhi
 1525              		.loc 2 557 0
 1526 082c 08E0     		b	.L84
 1527              	.L82:
 1528              		.loc 2 559 0
 1529 082e 4FF4C063 		mov	r3, #1536
 1530 0832 ADF81430 		strh	r3, [sp, #20]	@ movhi
ARM GAS  /tmp/ccaZEb87.s 			page 28


 1531              		.loc 2 560 0
 1532 0836 03E0     		b	.L84
 1533              	.L90:
 1534              		.loc 2 562 0
 1535 0838 4FF40073 		mov	r3, #512
 1536 083c ADF81430 		strh	r3, [sp, #20]	@ movhi
 1537              	.L84:
 1538              		.loc 2 566 0
 1539 0840 049B     		ldr	r3, [sp, #16]
 1540 0842 9B68     		ldr	r3, [r3, #8]
 1541 0844 002B     		cmp	r3, #0
 1542 0846 05D0     		beq	.L85
 1543              		.loc 2 567 0
 1544 0848 BDF81430 		ldrh	r3, [sp, #20]	@ movhi
 1545 084c 43F02003 		orr	r3, r3, #32
 1546 0850 ADF81430 		strh	r3, [sp, #20]	@ movhi
 1547              	.L85:
 1548              		.loc 2 570 0
 1549 0854 049B     		ldr	r3, [sp, #16]
 1550 0856 DB68     		ldr	r3, [r3, #12]
 1551 0858 002B     		cmp	r3, #0
 1552 085a 05D0     		beq	.L86
 1553              		.loc 2 571 0
 1554 085c BDF81430 		ldrh	r3, [sp, #20]	@ movhi
 1555 0860 43F40053 		orr	r3, r3, #8192
 1556 0864 ADF81430 		strh	r3, [sp, #20]	@ movhi
 1557              	.L86:
 1558              		.loc 2 574 0
 1559 0868 3448     		ldr	r0, .L91
 1560 086a 9DF80320 		ldrb	r2, [sp, #3]	@ zero_extendqisi2
 1561 086e BDF81410 		ldrh	r1, [sp, #20]
 1562 0872 9DF80330 		ldrb	r3, [sp, #3]	@ zero_extendqisi2
 1563 0876 0B43     		orrs	r3, r3, r1
 1564 0878 23F4F043 		bic	r3, r3, #30720
 1565 087c 23F07003 		bic	r3, r3, #112
 1566 0880 40F82230 		str	r3, [r0, r2, lsl #2]
 1567              		.loc 2 575 0
 1568 0884 2D4C     		ldr	r4, .L91
 1569 0886 9DF80320 		ldrb	r2, [sp, #3]	@ zero_extendqisi2
 1570 088a 2C49     		ldr	r1, .L91
 1571 088c 9DF80330 		ldrb	r3, [sp, #3]	@ zero_extendqisi2
 1572 0890 51F82310 		ldr	r1, [r1, r3, lsl #2]
 1573 0894 BDF81400 		ldrh	r0, [sp, #20]
 1574 0898 47F67003 		movw	r3, #30832
 1575 089c 0340     		ands	r3, r3, r0
 1576 089e 4B40     		eors	r3, r3, r1
 1577 08a0 44F82230 		str	r3, [r4, r2, lsl #2]
 1578              		.loc 2 578 0
 1579 08a4 049B     		ldr	r3, [sp, #16]
 1580 08a6 5B8A     		ldrh	r3, [r3, #18]
 1581 08a8 3E2B     		cmp	r3, #62
 1582 08aa 13D9     		bls	.L87
 1583              		.loc 2 579 0
 1584 08ac 049B     		ldr	r3, [sp, #16]
 1585 08ae 5B8A     		ldrh	r3, [r3, #18]
 1586 08b0 013B     		subs	r3, r3, #1
 1587 08b2 43F01F03 		orr	r3, r3, #31
ARM GAS  /tmp/ccaZEb87.s 			page 29


 1588 08b6 0133     		adds	r3, r3, #1
 1589 08b8 002B     		cmp	r3, #0
 1590 08ba 00DA     		bge	.L88
 1591 08bc 1F33     		adds	r3, r3, #31
 1592              	.L88:
 1593 08be 5B11     		asrs	r3, r3, #5
 1594 08c0 9B02     		lsls	r3, r3, #10
 1595 08c2 9BB2     		uxth	r3, r3
 1596 08c4 6FEA4343 		mvn	r3, r3, lsl #17
 1597 08c8 6FEA5343 		mvn	r3, r3, lsr #17
 1598 08cc 9BB2     		uxth	r3, r3
 1599 08ce ADF81630 		strh	r3, [sp, #22]	@ movhi
 1600 08d2 0CE0     		b	.L89
 1601              	.L87:
 1602              		.loc 2 582 0
 1603 08d4 049B     		ldr	r3, [sp, #16]
 1604 08d6 5B8A     		ldrh	r3, [r3, #18]
 1605 08d8 013B     		subs	r3, r3, #1
 1606 08da 43F00103 		orr	r3, r3, #1
 1607 08de 0133     		adds	r3, r3, #1
 1608 08e0 DA0F     		lsrs	r2, r3, #31
 1609 08e2 1344     		add	r3, r3, r2
 1610 08e4 5B10     		asrs	r3, r3, #1
 1611 08e6 9BB2     		uxth	r3, r3
 1612 08e8 9B02     		lsls	r3, r3, #10
 1613 08ea ADF81630 		strh	r3, [sp, #22]	@ movhi
 1614              	.L89:
 1615              		.loc 2 583 0
 1616 08ee 134B     		ldr	r3, .L91
 1617 08f0 1A6D     		ldr	r2, [r3, #80]
 1618 08f2 9DF80330 		ldrb	r3, [sp, #3]	@ zero_extendqisi2
 1619 08f6 DB00     		lsls	r3, r3, #3
 1620 08f8 1344     		add	r3, r3, r2
 1621 08fa 03F10053 		add	r3, r3, #536870912
 1622 08fe 03F54053 		add	r3, r3, #12288
 1623 0902 5B00     		lsls	r3, r3, #1
 1624 0904 0393     		str	r3, [sp, #12]
 1625              		.loc 2 584 0
 1626 0906 039B     		ldr	r3, [sp, #12]
 1627 0908 0022     		movs	r2, #0
 1628 090a 9A80     		strh	r2, [r3, #4]	@ movhi
 1629              		.loc 2 585 0
 1630 090c 039B     		ldr	r3, [sp, #12]
 1631 090e BDF81620 		ldrh	r2, [sp, #22]	@ movhi
 1632 0912 9A81     		strh	r2, [r3, #12]	@ movhi
 1633              		.loc 2 586 0
 1634 0914 049B     		ldr	r3, [sp, #16]
 1635 0916 1B8A     		ldrh	r3, [r3, #16]
 1636 0918 0198     		ldr	r0, [sp, #4]
 1637 091a 1946     		mov	r1, r3
 1638 091c FFF78AFB 		bl	usb_pm_alloc
 1639 0920 0246     		mov	r2, r0
 1640 0922 039B     		ldr	r3, [sp, #12]
 1641 0924 1A60     		str	r2, [r3]
 1642              		.loc 2 587 0
 1643 0926 049B     		ldr	r3, [sp, #16]
 1644 0928 5B8A     		ldrh	r3, [r3, #18]
ARM GAS  /tmp/ccaZEb87.s 			page 30


 1645 092a 0198     		ldr	r0, [sp, #4]
 1646 092c 1946     		mov	r1, r3
 1647 092e FFF781FB 		bl	usb_pm_alloc
 1648 0932 0246     		mov	r2, r0
 1649 0934 039B     		ldr	r3, [sp, #12]
 1650 0936 9A60     		str	r2, [r3, #8]
 1651              		.loc 2 588 0
 1652 0938 06B0     		add	sp, sp, #24
 1653              		.cfi_def_cfa_offset 8
 1654              		@ sp needed
 1655 093a 10BD     		pop	{r4, pc}
 1656              	.L92:
 1657              		.align	2
 1658              	.L91:
 1659 093c 005C0040 		.word	1073765376
 1660              		.cfi_endproc
 1661              	.LFE131:
 1662              		.size	usb_lld_init_endpoint, .-usb_lld_init_endpoint
 1663              		.align	2
 1664              		.global	usb_lld_disable_endpoints
 1665              		.thumb
 1666              		.thumb_func
 1667              		.type	usb_lld_disable_endpoints, %function
 1668              	usb_lld_disable_endpoints:
 1669              	.LFB132:
 1670              		.loc 2 597 0
 1671              		.cfi_startproc
 1672              		@ args = 0, pretend = 0, frame = 16
 1673              		@ frame_needed = 0, uses_anonymous_args = 0
 1674 0940 00B5     		push	{lr}
 1675              		.cfi_def_cfa_offset 4
 1676              		.cfi_offset 14, -4
 1677 0942 85B0     		sub	sp, sp, #20
 1678              		.cfi_def_cfa_offset 24
 1679 0944 0190     		str	r0, [sp, #4]
 1680              		.loc 2 601 0
 1681 0946 0198     		ldr	r0, [sp, #4]
 1682 0948 FFF76CFB 		bl	usb_pm_reset
 1683              		.loc 2 604 0
 1684 094c 0123     		movs	r3, #1
 1685 094e 0393     		str	r3, [sp, #12]
 1686 0950 0FE0     		b	.L94
 1687              	.L95:
 1688              		.loc 2 605 0 discriminator 3
 1689 0952 0B49     		ldr	r1, .L96
 1690 0954 0A4A     		ldr	r2, .L96
 1691 0956 039B     		ldr	r3, [sp, #12]
 1692 0958 52F82320 		ldr	r2, [r2, r3, lsl #2]
 1693 095c 039B     		ldr	r3, [sp, #12]
 1694 095e 41F82320 		str	r2, [r1, r3, lsl #2]
 1695              		.loc 2 606 0 discriminator 3
 1696 0962 074A     		ldr	r2, .L96
 1697 0964 039B     		ldr	r3, [sp, #12]
 1698 0966 0021     		movs	r1, #0
 1699 0968 42F82310 		str	r1, [r2, r3, lsl #2]
 1700              		.loc 2 604 0 discriminator 3
 1701 096c 039B     		ldr	r3, [sp, #12]
ARM GAS  /tmp/ccaZEb87.s 			page 31


 1702 096e 0133     		adds	r3, r3, #1
 1703 0970 0393     		str	r3, [sp, #12]
 1704              	.L94:
 1705              		.loc 2 604 0 is_stmt 0 discriminator 1
 1706 0972 039B     		ldr	r3, [sp, #12]
 1707 0974 072B     		cmp	r3, #7
 1708 0976 ECD9     		bls	.L95
 1709              		.loc 2 608 0 is_stmt 1
 1710 0978 05B0     		add	sp, sp, #20
 1711              		.cfi_def_cfa_offset 4
 1712              		@ sp needed
 1713 097a 5DF804FB 		ldr	pc, [sp], #4
 1714              	.L97:
 1715 097e 00BF     		.align	2
 1716              	.L96:
 1717 0980 005C0040 		.word	1073765376
 1718              		.cfi_endproc
 1719              	.LFE132:
 1720              		.size	usb_lld_disable_endpoints, .-usb_lld_disable_endpoints
 1721              		.align	2
 1722              		.global	usb_lld_get_status_out
 1723              		.thumb
 1724              		.thumb_func
 1725              		.type	usb_lld_get_status_out, %function
 1726              	usb_lld_get_status_out:
 1727              	.LFB133:
 1728              		.loc 2 622 0
 1729              		.cfi_startproc
 1730              		@ args = 0, pretend = 0, frame = 8
 1731              		@ frame_needed = 0, uses_anonymous_args = 0
 1732              		@ link register save eliminated.
 1733 0984 82B0     		sub	sp, sp, #8
 1734              		.cfi_def_cfa_offset 8
 1735 0986 0190     		str	r0, [sp, #4]
 1736 0988 0B46     		mov	r3, r1
 1737 098a 8DF80330 		strb	r3, [sp, #3]
 1738              		.loc 2 625 0
 1739 098e 0A4A     		ldr	r2, .L104
 1740 0990 9DF80330 		ldrb	r3, [sp, #3]	@ zero_extendqisi2
 1741 0994 52F82330 		ldr	r3, [r2, r3, lsl #2]
 1742 0998 03F44053 		and	r3, r3, #12288
 1743 099c 002B     		cmp	r3, #0
 1744 099e 03D0     		beq	.L100
 1745 09a0 B3F5805F 		cmp	r3, #4096
 1746 09a4 02D0     		beq	.L101
 1747 09a6 03E0     		b	.L103
 1748              	.L100:
 1749              		.loc 2 627 0
 1750 09a8 0023     		movs	r3, #0
 1751 09aa 02E0     		b	.L102
 1752              	.L101:
 1753              		.loc 2 629 0
 1754 09ac 0123     		movs	r3, #1
 1755 09ae 00E0     		b	.L102
 1756              	.L103:
 1757              		.loc 2 631 0
 1758 09b0 0223     		movs	r3, #2
ARM GAS  /tmp/ccaZEb87.s 			page 32


 1759              	.L102:
 1760              		.loc 2 633 0
 1761 09b2 1846     		mov	r0, r3
 1762 09b4 02B0     		add	sp, sp, #8
 1763              		.cfi_def_cfa_offset 0
 1764              		@ sp needed
 1765 09b6 7047     		bx	lr
 1766              	.L105:
 1767              		.align	2
 1768              	.L104:
 1769 09b8 005C0040 		.word	1073765376
 1770              		.cfi_endproc
 1771              	.LFE133:
 1772              		.size	usb_lld_get_status_out, .-usb_lld_get_status_out
 1773              		.align	2
 1774              		.global	usb_lld_get_status_in
 1775              		.thumb
 1776              		.thumb_func
 1777              		.type	usb_lld_get_status_in, %function
 1778              	usb_lld_get_status_in:
 1779              	.LFB134:
 1780              		.loc 2 647 0
 1781              		.cfi_startproc
 1782              		@ args = 0, pretend = 0, frame = 8
 1783              		@ frame_needed = 0, uses_anonymous_args = 0
 1784              		@ link register save eliminated.
 1785 09bc 82B0     		sub	sp, sp, #8
 1786              		.cfi_def_cfa_offset 8
 1787 09be 0190     		str	r0, [sp, #4]
 1788 09c0 0B46     		mov	r3, r1
 1789 09c2 8DF80330 		strb	r3, [sp, #3]
 1790              		.loc 2 650 0
 1791 09c6 0A4A     		ldr	r2, .L112
 1792 09c8 9DF80330 		ldrb	r3, [sp, #3]	@ zero_extendqisi2
 1793 09cc 52F82330 		ldr	r3, [r2, r3, lsl #2]
 1794 09d0 03F03003 		and	r3, r3, #48
 1795 09d4 002B     		cmp	r3, #0
 1796 09d6 02D0     		beq	.L108
 1797 09d8 102B     		cmp	r3, #16
 1798 09da 02D0     		beq	.L109
 1799 09dc 03E0     		b	.L111
 1800              	.L108:
 1801              		.loc 2 652 0
 1802 09de 0023     		movs	r3, #0
 1803 09e0 02E0     		b	.L110
 1804              	.L109:
 1805              		.loc 2 654 0
 1806 09e2 0123     		movs	r3, #1
 1807 09e4 00E0     		b	.L110
 1808              	.L111:
 1809              		.loc 2 656 0
 1810 09e6 0223     		movs	r3, #2
 1811              	.L110:
 1812              		.loc 2 658 0
 1813 09e8 1846     		mov	r0, r3
 1814 09ea 02B0     		add	sp, sp, #8
 1815              		.cfi_def_cfa_offset 0
ARM GAS  /tmp/ccaZEb87.s 			page 33


 1816              		@ sp needed
 1817 09ec 7047     		bx	lr
 1818              	.L113:
 1819 09ee 00BF     		.align	2
 1820              	.L112:
 1821 09f0 005C0040 		.word	1073765376
 1822              		.cfi_endproc
 1823              	.LFE134:
 1824              		.size	usb_lld_get_status_in, .-usb_lld_get_status_in
 1825              		.align	2
 1826              		.global	usb_lld_read_setup
 1827              		.thumb
 1828              		.thumb_func
 1829              		.type	usb_lld_read_setup, %function
 1830              	usb_lld_read_setup:
 1831              	.LFB135:
 1832              		.loc 2 674 0
 1833              		.cfi_startproc
 1834              		@ args = 0, pretend = 0, frame = 32
 1835              		@ frame_needed = 0, uses_anonymous_args = 0
 1836              		@ link register save eliminated.
 1837 09f4 88B0     		sub	sp, sp, #32
 1838              		.cfi_def_cfa_offset 32
 1839 09f6 0390     		str	r0, [sp, #12]
 1840 09f8 0B46     		mov	r3, r1
 1841 09fa 0192     		str	r2, [sp, #4]
 1842 09fc 8DF80B30 		strb	r3, [sp, #11]
 1843              		.loc 2 680 0
 1844 0a00 144B     		ldr	r3, .L117
 1845 0a02 1A6D     		ldr	r2, [r3, #80]
 1846 0a04 9DF80B30 		ldrb	r3, [sp, #11]	@ zero_extendqisi2
 1847 0a08 DB00     		lsls	r3, r3, #3
 1848 0a0a 1344     		add	r3, r3, r2
 1849 0a0c 03F10053 		add	r3, r3, #536870912
 1850 0a10 03F54053 		add	r3, r3, #12288
 1851 0a14 5B00     		lsls	r3, r3, #1
 1852 0a16 0593     		str	r3, [sp, #20]
 1853              		.loc 2 681 0
 1854 0a18 059B     		ldr	r3, [sp, #20]
 1855 0a1a 9B68     		ldr	r3, [r3, #8]
 1856 0a1c 03F10053 		add	r3, r3, #536870912
 1857 0a20 03F54053 		add	r3, r3, #12288
 1858 0a24 5B00     		lsls	r3, r3, #1
 1859 0a26 0793     		str	r3, [sp, #28]
 1860              		.loc 2 682 0
 1861 0a28 0023     		movs	r3, #0
 1862 0a2a 0693     		str	r3, [sp, #24]
 1863 0a2c 0CE0     		b	.L115
 1864              	.L116:
 1865              		.loc 2 683 0 discriminator 3
 1866 0a2e 079B     		ldr	r3, [sp, #28]
 1867 0a30 1A1D     		adds	r2, r3, #4
 1868 0a32 0792     		str	r2, [sp, #28]
 1869 0a34 1B68     		ldr	r3, [r3]
 1870 0a36 9AB2     		uxth	r2, r3
 1871 0a38 019B     		ldr	r3, [sp, #4]
 1872 0a3a 1A80     		strh	r2, [r3]	@ movhi
ARM GAS  /tmp/ccaZEb87.s 			page 34


 1873              		.loc 2 684 0 discriminator 3
 1874 0a3c 019B     		ldr	r3, [sp, #4]
 1875 0a3e 0233     		adds	r3, r3, #2
 1876 0a40 0193     		str	r3, [sp, #4]
 1877              		.loc 2 682 0 discriminator 3
 1878 0a42 069B     		ldr	r3, [sp, #24]
 1879 0a44 0133     		adds	r3, r3, #1
 1880 0a46 0693     		str	r3, [sp, #24]
 1881              	.L115:
 1882              		.loc 2 682 0 is_stmt 0 discriminator 1
 1883 0a48 069B     		ldr	r3, [sp, #24]
 1884 0a4a 032B     		cmp	r3, #3
 1885 0a4c EFD9     		bls	.L116
 1886              		.loc 2 686 0 is_stmt 1
 1887 0a4e 08B0     		add	sp, sp, #32
 1888              		.cfi_def_cfa_offset 0
 1889              		@ sp needed
 1890 0a50 7047     		bx	lr
 1891              	.L118:
 1892 0a52 00BF     		.align	2
 1893              	.L117:
 1894 0a54 005C0040 		.word	1073765376
 1895              		.cfi_endproc
 1896              	.LFE135:
 1897              		.size	usb_lld_read_setup, .-usb_lld_read_setup
 1898              		.align	2
 1899              		.global	usb_lld_prepare_receive
 1900              		.thumb
 1901              		.thumb_func
 1902              		.type	usb_lld_prepare_receive, %function
 1903              	usb_lld_prepare_receive:
 1904              	.LFB136:
 1905              		.loc 2 696 0
 1906              		.cfi_startproc
 1907              		@ args = 0, pretend = 0, frame = 16
 1908              		@ frame_needed = 0, uses_anonymous_args = 0
 1909              		@ link register save eliminated.
 1910 0a58 84B0     		sub	sp, sp, #16
 1911              		.cfi_def_cfa_offset 16
 1912 0a5a 0190     		str	r0, [sp, #4]
 1913 0a5c 0B46     		mov	r3, r1
 1914 0a5e 8DF80330 		strb	r3, [sp, #3]
 1915              		.loc 2 697 0
 1916 0a62 9DF80330 		ldrb	r3, [sp, #3]	@ zero_extendqisi2
 1917 0a66 019A     		ldr	r2, [sp, #4]
 1918 0a68 0233     		adds	r3, r3, #2
 1919 0a6a 9B00     		lsls	r3, r3, #2
 1920 0a6c 1344     		add	r3, r3, r2
 1921 0a6e 5B68     		ldr	r3, [r3, #4]
 1922 0a70 9B69     		ldr	r3, [r3, #24]
 1923 0a72 0393     		str	r3, [sp, #12]
 1924              		.loc 2 700 0
 1925 0a74 039B     		ldr	r3, [sp, #12]
 1926 0a76 5B68     		ldr	r3, [r3, #4]
 1927 0a78 002B     		cmp	r3, #0
 1928 0a7a 03D1     		bne	.L120
 1929              		.loc 2 701 0
ARM GAS  /tmp/ccaZEb87.s 			page 35


 1930 0a7c 039B     		ldr	r3, [sp, #12]
 1931 0a7e 0122     		movs	r2, #1
 1932 0a80 1A82     		strh	r2, [r3, #16]	@ movhi
 1933 0a82 18E0     		b	.L119
 1934              	.L120:
 1935              		.loc 2 703 0
 1936 0a84 039B     		ldr	r3, [sp, #12]
 1937 0a86 5A68     		ldr	r2, [r3, #4]
 1938 0a88 9DF80330 		ldrb	r3, [sp, #3]	@ zero_extendqisi2
 1939 0a8c 0199     		ldr	r1, [sp, #4]
 1940 0a8e 0233     		adds	r3, r3, #2
 1941 0a90 9B00     		lsls	r3, r3, #2
 1942 0a92 0B44     		add	r3, r3, r1
 1943 0a94 5B68     		ldr	r3, [r3, #4]
 1944 0a96 5B8A     		ldrh	r3, [r3, #18]
 1945 0a98 1344     		add	r3, r3, r2
 1946 0a9a 5A1E     		subs	r2, r3, #1
 1947              		.loc 2 704 0
 1948 0a9c 9DF80330 		ldrb	r3, [sp, #3]	@ zero_extendqisi2
 1949 0aa0 0199     		ldr	r1, [sp, #4]
 1950 0aa2 0233     		adds	r3, r3, #2
 1951 0aa4 9B00     		lsls	r3, r3, #2
 1952 0aa6 0B44     		add	r3, r3, r1
 1953 0aa8 5B68     		ldr	r3, [r3, #4]
 1954 0aaa 5B8A     		ldrh	r3, [r3, #18]
 1955              		.loc 2 703 0
 1956 0aac B2FBF3F3 		udiv	r3, r2, r3
 1957 0ab0 9AB2     		uxth	r2, r3
 1958 0ab2 039B     		ldr	r3, [sp, #12]
 1959 0ab4 1A82     		strh	r2, [r3, #16]	@ movhi
 1960              	.L119:
 1961              		.loc 2 705 0
 1962 0ab6 04B0     		add	sp, sp, #16
 1963              		.cfi_def_cfa_offset 0
 1964              		@ sp needed
 1965 0ab8 7047     		bx	lr
 1966              		.cfi_endproc
 1967              	.LFE136:
 1968              		.size	usb_lld_prepare_receive, .-usb_lld_prepare_receive
 1969 0aba 00BF     		.align	2
 1970              		.global	usb_lld_prepare_transmit
 1971              		.thumb
 1972              		.thumb_func
 1973              		.type	usb_lld_prepare_transmit, %function
 1974              	usb_lld_prepare_transmit:
 1975              	.LFB137:
 1976              		.loc 2 715 0
 1977              		.cfi_startproc
 1978              		@ args = 0, pretend = 0, frame = 16
 1979              		@ frame_needed = 0, uses_anonymous_args = 0
 1980 0abc 00B5     		push	{lr}
 1981              		.cfi_def_cfa_offset 4
 1982              		.cfi_offset 14, -4
 1983 0abe 85B0     		sub	sp, sp, #20
 1984              		.cfi_def_cfa_offset 24
 1985 0ac0 0190     		str	r0, [sp, #4]
 1986 0ac2 0B46     		mov	r3, r1
ARM GAS  /tmp/ccaZEb87.s 			page 36


 1987 0ac4 8DF80330 		strb	r3, [sp, #3]
 1988              		.loc 2 717 0
 1989 0ac8 9DF80330 		ldrb	r3, [sp, #3]	@ zero_extendqisi2
 1990 0acc 019A     		ldr	r2, [sp, #4]
 1991 0ace 0233     		adds	r3, r3, #2
 1992 0ad0 9B00     		lsls	r3, r3, #2
 1993 0ad2 1344     		add	r3, r3, r2
 1994 0ad4 5B68     		ldr	r3, [r3, #4]
 1995 0ad6 5B69     		ldr	r3, [r3, #20]
 1996 0ad8 0293     		str	r3, [sp, #8]
 1997              		.loc 2 720 0
 1998 0ada 029B     		ldr	r3, [sp, #8]
 1999 0adc 5B68     		ldr	r3, [r3, #4]
 2000 0ade 0393     		str	r3, [sp, #12]
 2001              		.loc 2 721 0
 2002 0ae0 9DF80330 		ldrb	r3, [sp, #3]	@ zero_extendqisi2
 2003 0ae4 019A     		ldr	r2, [sp, #4]
 2004 0ae6 0233     		adds	r3, r3, #2
 2005 0ae8 9B00     		lsls	r3, r3, #2
 2006 0aea 1344     		add	r3, r3, r2
 2007 0aec 5B68     		ldr	r3, [r3, #4]
 2008 0aee 1B8A     		ldrh	r3, [r3, #16]
 2009 0af0 1A46     		mov	r2, r3
 2010 0af2 039B     		ldr	r3, [sp, #12]
 2011 0af4 9A42     		cmp	r2, r3
 2012 0af6 08D2     		bcs	.L123
 2013              		.loc 2 722 0
 2014 0af8 9DF80330 		ldrb	r3, [sp, #3]	@ zero_extendqisi2
 2015 0afc 019A     		ldr	r2, [sp, #4]
 2016 0afe 0233     		adds	r3, r3, #2
 2017 0b00 9B00     		lsls	r3, r3, #2
 2018 0b02 1344     		add	r3, r3, r2
 2019 0b04 5B68     		ldr	r3, [r3, #4]
 2020 0b06 1B8A     		ldrh	r3, [r3, #16]
 2021 0b08 0393     		str	r3, [sp, #12]
 2022              	.L123:
 2023              		.loc 2 724 0
 2024 0b0a 029B     		ldr	r3, [sp, #8]
 2025 0b0c 1B78     		ldrb	r3, [r3]	@ zero_extendqisi2
 2026 0b0e 002B     		cmp	r3, #0
 2027 0b10 13D0     		beq	.L124
 2028              		.loc 2 725 0
 2029 0b12 154B     		ldr	r3, .L126
 2030 0b14 1A6D     		ldr	r2, [r3, #80]
 2031 0b16 9DF80330 		ldrb	r3, [sp, #3]	@ zero_extendqisi2
 2032 0b1a DB00     		lsls	r3, r3, #3
 2033 0b1c 1344     		add	r3, r3, r2
 2034 0b1e 03F10053 		add	r3, r3, #536870912
 2035 0b22 03F54053 		add	r3, r3, #12288
 2036 0b26 5B00     		lsls	r3, r3, #1
 2037 0b28 1A46     		mov	r2, r3
 2038 0b2a 029B     		ldr	r3, [sp, #8]
 2039 0b2c DB68     		ldr	r3, [r3, #12]
 2040 0b2e 1046     		mov	r0, r2
 2041 0b30 1946     		mov	r1, r3
 2042 0b32 039A     		ldr	r2, [sp, #12]
 2043 0b34 FFF766FB 		bl	usb_packet_write_from_queue
ARM GAS  /tmp/ccaZEb87.s 			page 37


 2044 0b38 12E0     		b	.L122
 2045              	.L124:
 2046              		.loc 2 728 0
 2047 0b3a 0B4B     		ldr	r3, .L126
 2048 0b3c 1A6D     		ldr	r2, [r3, #80]
 2049 0b3e 9DF80330 		ldrb	r3, [sp, #3]	@ zero_extendqisi2
 2050 0b42 DB00     		lsls	r3, r3, #3
 2051 0b44 1344     		add	r3, r3, r2
 2052 0b46 03F10053 		add	r3, r3, #536870912
 2053 0b4a 03F54053 		add	r3, r3, #12288
 2054 0b4e 5B00     		lsls	r3, r3, #1
 2055 0b50 1A46     		mov	r2, r3
 2056 0b52 029B     		ldr	r3, [sp, #8]
 2057 0b54 DB68     		ldr	r3, [r3, #12]
 2058 0b56 1046     		mov	r0, r2
 2059 0b58 1946     		mov	r1, r3
 2060 0b5a 039A     		ldr	r2, [sp, #12]
 2061 0b5c FFF72CFB 		bl	usb_packet_write_from_buffer
 2062              	.L122:
 2063              		.loc 2 730 0
 2064 0b60 05B0     		add	sp, sp, #20
 2065              		.cfi_def_cfa_offset 4
 2066              		@ sp needed
 2067 0b62 5DF804FB 		ldr	pc, [sp], #4
 2068              	.L127:
 2069 0b66 00BF     		.align	2
 2070              	.L126:
 2071 0b68 005C0040 		.word	1073765376
 2072              		.cfi_endproc
 2073              	.LFE137:
 2074              		.size	usb_lld_prepare_transmit, .-usb_lld_prepare_transmit
 2075              		.align	2
 2076              		.global	usb_lld_start_out
 2077              		.thumb
 2078              		.thumb_func
 2079              		.type	usb_lld_start_out, %function
 2080              	usb_lld_start_out:
 2081              	.LFB138:
 2082              		.loc 2 740 0
 2083              		.cfi_startproc
 2084              		@ args = 0, pretend = 0, frame = 8
 2085              		@ frame_needed = 0, uses_anonymous_args = 0
 2086              		@ link register save eliminated.
 2087 0b6c 82B0     		sub	sp, sp, #8
 2088              		.cfi_def_cfa_offset 8
 2089 0b6e 0190     		str	r0, [sp, #4]
 2090 0b70 0B46     		mov	r3, r1
 2091 0b72 8DF80330 		strb	r3, [sp, #3]
 2092              		.loc 2 744 0
 2093 0b76 0949     		ldr	r1, .L129
 2094 0b78 9DF80320 		ldrb	r2, [sp, #3]	@ zero_extendqisi2
 2095 0b7c 0748     		ldr	r0, .L129
 2096 0b7e 9DF80330 		ldrb	r3, [sp, #3]	@ zero_extendqisi2
 2097 0b82 50F82330 		ldr	r3, [r0, r3, lsl #2]
 2098 0b86 23F49043 		bic	r3, r3, #18432
 2099 0b8a 23F07003 		bic	r3, r3, #112
 2100 0b8e 83F44053 		eor	r3, r3, #12288
ARM GAS  /tmp/ccaZEb87.s 			page 38


 2101 0b92 41F82230 		str	r3, [r1, r2, lsl #2]
 2102              		.loc 2 745 0
 2103 0b96 02B0     		add	sp, sp, #8
 2104              		.cfi_def_cfa_offset 0
 2105              		@ sp needed
 2106 0b98 7047     		bx	lr
 2107              	.L130:
 2108 0b9a 00BF     		.align	2
 2109              	.L129:
 2110 0b9c 005C0040 		.word	1073765376
 2111              		.cfi_endproc
 2112              	.LFE138:
 2113              		.size	usb_lld_start_out, .-usb_lld_start_out
 2114              		.align	2
 2115              		.global	usb_lld_start_in
 2116              		.thumb
 2117              		.thumb_func
 2118              		.type	usb_lld_start_in, %function
 2119              	usb_lld_start_in:
 2120              	.LFB139:
 2121              		.loc 2 755 0
 2122              		.cfi_startproc
 2123              		@ args = 0, pretend = 0, frame = 8
 2124              		@ frame_needed = 0, uses_anonymous_args = 0
 2125              		@ link register save eliminated.
 2126 0ba0 82B0     		sub	sp, sp, #8
 2127              		.cfi_def_cfa_offset 8
 2128 0ba2 0190     		str	r0, [sp, #4]
 2129 0ba4 0B46     		mov	r3, r1
 2130 0ba6 8DF80330 		strb	r3, [sp, #3]
 2131              		.loc 2 759 0
 2132 0baa 0949     		ldr	r1, .L132
 2133 0bac 9DF80320 		ldrb	r2, [sp, #3]	@ zero_extendqisi2
 2134 0bb0 0748     		ldr	r0, .L132
 2135 0bb2 9DF80330 		ldrb	r3, [sp, #3]	@ zero_extendqisi2
 2136 0bb6 50F82330 		ldr	r3, [r0, r3, lsl #2]
 2137 0bba 23F4F043 		bic	r3, r3, #30720
 2138 0bbe 23F04003 		bic	r3, r3, #64
 2139 0bc2 83F03003 		eor	r3, r3, #48
 2140 0bc6 41F82230 		str	r3, [r1, r2, lsl #2]
 2141              		.loc 2 760 0
 2142 0bca 02B0     		add	sp, sp, #8
 2143              		.cfi_def_cfa_offset 0
 2144              		@ sp needed
 2145 0bcc 7047     		bx	lr
 2146              	.L133:
 2147 0bce 00BF     		.align	2
 2148              	.L132:
 2149 0bd0 005C0040 		.word	1073765376
 2150              		.cfi_endproc
 2151              	.LFE139:
 2152              		.size	usb_lld_start_in, .-usb_lld_start_in
 2153              		.align	2
 2154              		.global	usb_lld_stall_out
 2155              		.thumb
 2156              		.thumb_func
 2157              		.type	usb_lld_stall_out, %function
ARM GAS  /tmp/ccaZEb87.s 			page 39


 2158              	usb_lld_stall_out:
 2159              	.LFB140:
 2160              		.loc 2 770 0
 2161              		.cfi_startproc
 2162              		@ args = 0, pretend = 0, frame = 8
 2163              		@ frame_needed = 0, uses_anonymous_args = 0
 2164              		@ link register save eliminated.
 2165 0bd4 82B0     		sub	sp, sp, #8
 2166              		.cfi_def_cfa_offset 8
 2167 0bd6 0190     		str	r0, [sp, #4]
 2168 0bd8 0B46     		mov	r3, r1
 2169 0bda 8DF80330 		strb	r3, [sp, #3]
 2170              		.loc 2 774 0
 2171 0bde 0949     		ldr	r1, .L135
 2172 0be0 9DF80320 		ldrb	r2, [sp, #3]	@ zero_extendqisi2
 2173 0be4 0748     		ldr	r0, .L135
 2174 0be6 9DF80330 		ldrb	r3, [sp, #3]	@ zero_extendqisi2
 2175 0bea 50F82330 		ldr	r3, [r0, r3, lsl #2]
 2176 0bee 23F49043 		bic	r3, r3, #18432
 2177 0bf2 23F07003 		bic	r3, r3, #112
 2178 0bf6 83F48053 		eor	r3, r3, #4096
 2179 0bfa 41F82230 		str	r3, [r1, r2, lsl #2]
 2180              		.loc 2 775 0
 2181 0bfe 02B0     		add	sp, sp, #8
 2182              		.cfi_def_cfa_offset 0
 2183              		@ sp needed
 2184 0c00 7047     		bx	lr
 2185              	.L136:
 2186 0c02 00BF     		.align	2
 2187              	.L135:
 2188 0c04 005C0040 		.word	1073765376
 2189              		.cfi_endproc
 2190              	.LFE140:
 2191              		.size	usb_lld_stall_out, .-usb_lld_stall_out
 2192              		.align	2
 2193              		.global	usb_lld_stall_in
 2194              		.thumb
 2195              		.thumb_func
 2196              		.type	usb_lld_stall_in, %function
 2197              	usb_lld_stall_in:
 2198              	.LFB141:
 2199              		.loc 2 785 0
 2200              		.cfi_startproc
 2201              		@ args = 0, pretend = 0, frame = 8
 2202              		@ frame_needed = 0, uses_anonymous_args = 0
 2203              		@ link register save eliminated.
 2204 0c08 82B0     		sub	sp, sp, #8
 2205              		.cfi_def_cfa_offset 8
 2206 0c0a 0190     		str	r0, [sp, #4]
 2207 0c0c 0B46     		mov	r3, r1
 2208 0c0e 8DF80330 		strb	r3, [sp, #3]
 2209              		.loc 2 789 0
 2210 0c12 0949     		ldr	r1, .L138
 2211 0c14 9DF80320 		ldrb	r2, [sp, #3]	@ zero_extendqisi2
 2212 0c18 0748     		ldr	r0, .L138
 2213 0c1a 9DF80330 		ldrb	r3, [sp, #3]	@ zero_extendqisi2
 2214 0c1e 50F82330 		ldr	r3, [r0, r3, lsl #2]
ARM GAS  /tmp/ccaZEb87.s 			page 40


 2215 0c22 23F4F043 		bic	r3, r3, #30720
 2216 0c26 23F04003 		bic	r3, r3, #64
 2217 0c2a 83F01003 		eor	r3, r3, #16
 2218 0c2e 41F82230 		str	r3, [r1, r2, lsl #2]
 2219              		.loc 2 790 0
 2220 0c32 02B0     		add	sp, sp, #8
 2221              		.cfi_def_cfa_offset 0
 2222              		@ sp needed
 2223 0c34 7047     		bx	lr
 2224              	.L139:
 2225 0c36 00BF     		.align	2
 2226              	.L138:
 2227 0c38 005C0040 		.word	1073765376
 2228              		.cfi_endproc
 2229              	.LFE141:
 2230              		.size	usb_lld_stall_in, .-usb_lld_stall_in
 2231              		.align	2
 2232              		.global	usb_lld_clear_out
 2233              		.thumb
 2234              		.thumb_func
 2235              		.type	usb_lld_clear_out, %function
 2236              	usb_lld_clear_out:
 2237              	.LFB142:
 2238              		.loc 2 800 0
 2239              		.cfi_startproc
 2240              		@ args = 0, pretend = 0, frame = 8
 2241              		@ frame_needed = 0, uses_anonymous_args = 0
 2242              		@ link register save eliminated.
 2243 0c3c 82B0     		sub	sp, sp, #8
 2244              		.cfi_def_cfa_offset 8
 2245 0c3e 0190     		str	r0, [sp, #4]
 2246 0c40 0B46     		mov	r3, r1
 2247 0c42 8DF80330 		strb	r3, [sp, #3]
 2248              		.loc 2 806 0
 2249 0c46 0E4A     		ldr	r2, .L142
 2250 0c48 9DF80330 		ldrb	r3, [sp, #3]	@ zero_extendqisi2
 2251 0c4c 52F82330 		ldr	r3, [r2, r3, lsl #2]
 2252 0c50 03F44053 		and	r3, r3, #12288
 2253 0c54 B3F5405F 		cmp	r3, #12288
 2254 0c58 0FD0     		beq	.L140
 2255              		.loc 2 807 0
 2256 0c5a 0949     		ldr	r1, .L142
 2257 0c5c 9DF80320 		ldrb	r2, [sp, #3]	@ zero_extendqisi2
 2258 0c60 0748     		ldr	r0, .L142
 2259 0c62 9DF80330 		ldrb	r3, [sp, #3]	@ zero_extendqisi2
 2260 0c66 50F82330 		ldr	r3, [r0, r3, lsl #2]
 2261 0c6a 23F4F043 		bic	r3, r3, #30720
 2262 0c6e 23F04003 		bic	r3, r3, #64
 2263 0c72 83F40053 		eor	r3, r3, #8192
 2264 0c76 41F82230 		str	r3, [r1, r2, lsl #2]
 2265              	.L140:
 2266              		.loc 2 808 0
 2267 0c7a 02B0     		add	sp, sp, #8
 2268              		.cfi_def_cfa_offset 0
 2269              		@ sp needed
 2270 0c7c 7047     		bx	lr
 2271              	.L143:
ARM GAS  /tmp/ccaZEb87.s 			page 41


 2272 0c7e 00BF     		.align	2
 2273              	.L142:
 2274 0c80 005C0040 		.word	1073765376
 2275              		.cfi_endproc
 2276              	.LFE142:
 2277              		.size	usb_lld_clear_out, .-usb_lld_clear_out
 2278              		.align	2
 2279              		.global	usb_lld_clear_in
 2280              		.thumb
 2281              		.thumb_func
 2282              		.type	usb_lld_clear_in, %function
 2283              	usb_lld_clear_in:
 2284              	.LFB143:
 2285              		.loc 2 818 0
 2286              		.cfi_startproc
 2287              		@ args = 0, pretend = 0, frame = 8
 2288              		@ frame_needed = 0, uses_anonymous_args = 0
 2289              		@ link register save eliminated.
 2290 0c84 82B0     		sub	sp, sp, #8
 2291              		.cfi_def_cfa_offset 8
 2292 0c86 0190     		str	r0, [sp, #4]
 2293 0c88 0B46     		mov	r3, r1
 2294 0c8a 8DF80330 		strb	r3, [sp, #3]
 2295              		.loc 2 824 0
 2296 0c8e 0D4A     		ldr	r2, .L146
 2297 0c90 9DF80330 		ldrb	r3, [sp, #3]	@ zero_extendqisi2
 2298 0c94 52F82330 		ldr	r3, [r2, r3, lsl #2]
 2299 0c98 03F03003 		and	r3, r3, #48
 2300 0c9c 302B     		cmp	r3, #48
 2301 0c9e 0FD0     		beq	.L144
 2302              		.loc 2 825 0
 2303 0ca0 0849     		ldr	r1, .L146
 2304 0ca2 9DF80320 		ldrb	r2, [sp, #3]	@ zero_extendqisi2
 2305 0ca6 0748     		ldr	r0, .L146
 2306 0ca8 9DF80330 		ldrb	r3, [sp, #3]	@ zero_extendqisi2
 2307 0cac 50F82330 		ldr	r3, [r0, r3, lsl #2]
 2308 0cb0 23F4F043 		bic	r3, r3, #30720
 2309 0cb4 23F04003 		bic	r3, r3, #64
 2310 0cb8 83F02003 		eor	r3, r3, #32
 2311 0cbc 41F82230 		str	r3, [r1, r2, lsl #2]
 2312              	.L144:
 2313              		.loc 2 826 0
 2314 0cc0 02B0     		add	sp, sp, #8
 2315              		.cfi_def_cfa_offset 0
 2316              		@ sp needed
 2317 0cc2 7047     		bx	lr
 2318              	.L147:
 2319              		.align	2
 2320              	.L146:
 2321 0cc4 005C0040 		.word	1073765376
 2322              		.cfi_endproc
 2323              	.LFE143:
 2324              		.size	usb_lld_clear_in, .-usb_lld_clear_in
 2325              	.Letext0:
 2326              		.file 3 "/opt/R2P/tools/gcc-arm-none-eabi-4_9-2014q4/lib/gcc/arm-none-eabi/4.9.3/include/stddef.h"
 2327              		.file 4 "/opt/R2P/tools/gcc-arm-none-eabi-4_9-2014q4/arm-none-eabi/include/machine/_default_types.
 2328              		.file 5 "/opt/R2P/tools/gcc-arm-none-eabi-4_9-2014q4/arm-none-eabi/include/stdint.h"
ARM GAS  /tmp/ccaZEb87.s 			page 42


 2329              		.file 6 "/opt/R2P/core/ChibiOS_2.6.5/os/ports/GCC/ARMCMx/chtypes.h"
 2330              		.file 7 "/opt/R2P/core/ChibiOS_2.6.5/os/kernel/include/chlists.h"
 2331              		.file 8 "/opt/R2P/core/ChibiOS_2.6.5/os/kernel/include/chthreads.h"
 2332              		.file 9 "/opt/R2P/core/ChibiOS_2.6.5/os/ports/GCC/ARMCMx/chcore_v7m.h"
 2333              		.file 10 "/opt/R2P/core/ChibiOS_2.6.5/os/kernel/include/chmtx.h"
 2334              		.file 11 "/opt/R2P/core/ChibiOS_2.6.5/os/kernel/include/chqueues.h"
 2335              		.file 12 "/opt/R2P/core/ChibiOS_2.6.5/os/hal/platforms/STM32F30x/stm32f30x.h"
 2336              		.file 13 "/opt/R2P/core/ChibiOS_2.6.5/os/hal/include/usb.h"
 2337              		.file 14 "/opt/R2P/core/ChibiOS_2.6.5/os/hal/platforms/STM32/USBv1/usb_lld.h"
 2338              		.file 15 "/opt/R2P/core/ChibiOS_2.6.5/os/hal/platforms/STM32/USBv1/stm32_usb.h"
 2339              		.file 16 "/opt/R2P/core/ChibiOS_2.6.5/os/kernel/include/chdebug.h"
 2340              		.file 17 "/opt/R2P/core/ChibiOS_2.6.5/os/ports/common/ARMCMx/CMSIS/include/core_cm4.h"
 2341              		.section	.debug_info,"",%progbits
 2342              	.Ldebug_info0:
 2343 0000 99130000 		.4byte	0x1399
 2344 0004 0400     		.2byte	0x4
 2345 0006 00000000 		.4byte	.Ldebug_abbrev0
 2346 000a 04       		.byte	0x4
 2347 000b 01       		.uleb128 0x1
 2348 000c 68050000 		.4byte	.LASF226
 2349 0010 01       		.byte	0x1
 2350 0011 F2020000 		.4byte	.LASF227
 2351 0015 00000000 		.4byte	.Ltext0
 2352 0019 C80C0000 		.4byte	.Letext0-.Ltext0
 2353 001d 00000000 		.4byte	.Ldebug_line0
 2354 0021 02       		.uleb128 0x2
 2355 0022 04       		.byte	0x4
 2356 0023 05       		.byte	0x5
 2357 0024 696E7400 		.ascii	"int\000"
 2358 0028 03       		.uleb128 0x3
 2359 0029 19000000 		.4byte	.LASF2
 2360 002d 03       		.byte	0x3
 2361 002e D4       		.byte	0xd4
 2362 002f 33000000 		.4byte	0x33
 2363 0033 04       		.uleb128 0x4
 2364 0034 04       		.byte	0x4
 2365 0035 07       		.byte	0x7
 2366 0036 52060000 		.4byte	.LASF0
 2367 003a 04       		.uleb128 0x4
 2368 003b 01       		.byte	0x1
 2369 003c 06       		.byte	0x6
 2370 003d E5010000 		.4byte	.LASF1
 2371 0041 03       		.uleb128 0x3
 2372 0042 1F010000 		.4byte	.LASF3
 2373 0046 04       		.byte	0x4
 2374 0047 1D       		.byte	0x1d
 2375 0048 4C000000 		.4byte	0x4c
 2376 004c 04       		.uleb128 0x4
 2377 004d 01       		.byte	0x1
 2378 004e 08       		.byte	0x8
 2379 004f 48020000 		.4byte	.LASF4
 2380 0053 04       		.uleb128 0x4
 2381 0054 02       		.byte	0x2
 2382 0055 05       		.byte	0x5
 2383 0056 A4080000 		.4byte	.LASF5
 2384 005a 03       		.uleb128 0x3
 2385 005b E7020000 		.4byte	.LASF6
ARM GAS  /tmp/ccaZEb87.s 			page 43


 2386 005f 04       		.byte	0x4
 2387 0060 2B       		.byte	0x2b
 2388 0061 65000000 		.4byte	0x65
 2389 0065 04       		.uleb128 0x4
 2390 0066 02       		.byte	0x2
 2391 0067 07       		.byte	0x7
 2392 0068 AA090000 		.4byte	.LASF7
 2393 006c 03       		.uleb128 0x3
 2394 006d 030A0000 		.4byte	.LASF8
 2395 0071 04       		.byte	0x4
 2396 0072 3F       		.byte	0x3f
 2397 0073 77000000 		.4byte	0x77
 2398 0077 04       		.uleb128 0x4
 2399 0078 04       		.byte	0x4
 2400 0079 05       		.byte	0x5
 2401 007a 7A010000 		.4byte	.LASF9
 2402 007e 03       		.uleb128 0x3
 2403 007f 15050000 		.4byte	.LASF10
 2404 0083 04       		.byte	0x4
 2405 0084 41       		.byte	0x41
 2406 0085 89000000 		.4byte	0x89
 2407 0089 04       		.uleb128 0x4
 2408 008a 04       		.byte	0x4
 2409 008b 07       		.byte	0x7
 2410 008c 82040000 		.4byte	.LASF11
 2411 0090 04       		.uleb128 0x4
 2412 0091 08       		.byte	0x8
 2413 0092 05       		.byte	0x5
 2414 0093 2F050000 		.4byte	.LASF12
 2415 0097 03       		.uleb128 0x3
 2416 0098 6F040000 		.4byte	.LASF13
 2417 009c 04       		.byte	0x4
 2418 009d 5B       		.byte	0x5b
 2419 009e A2000000 		.4byte	0xa2
 2420 00a2 04       		.uleb128 0x4
 2421 00a3 08       		.byte	0x8
 2422 00a4 07       		.byte	0x7
 2423 00a5 B0070000 		.4byte	.LASF14
 2424 00a9 04       		.uleb128 0x4
 2425 00aa 04       		.byte	0x4
 2426 00ab 07       		.byte	0x7
 2427 00ac 20000000 		.4byte	.LASF15
 2428 00b0 05       		.uleb128 0x5
 2429 00b1 04       		.byte	0x4
 2430 00b2 04       		.uleb128 0x4
 2431 00b3 01       		.byte	0x1
 2432 00b4 08       		.byte	0x8
 2433 00b5 CC020000 		.4byte	.LASF16
 2434 00b9 06       		.uleb128 0x6
 2435 00ba 04       		.byte	0x4
 2436 00bb BF000000 		.4byte	0xbf
 2437 00bf 07       		.uleb128 0x7
 2438 00c0 B2000000 		.4byte	0xb2
 2439 00c4 03       		.uleb128 0x3
 2440 00c5 F8010000 		.4byte	.LASF17
 2441 00c9 05       		.byte	0x5
 2442 00ca 15       		.byte	0x15
ARM GAS  /tmp/ccaZEb87.s 			page 44


 2443 00cb 41000000 		.4byte	0x41
 2444 00cf 03       		.uleb128 0x3
 2445 00d0 E9070000 		.4byte	.LASF18
 2446 00d4 05       		.byte	0x5
 2447 00d5 21       		.byte	0x21
 2448 00d6 5A000000 		.4byte	0x5a
 2449 00da 03       		.uleb128 0x3
 2450 00db 59000000 		.4byte	.LASF19
 2451 00df 05       		.byte	0x5
 2452 00e0 2C       		.byte	0x2c
 2453 00e1 6C000000 		.4byte	0x6c
 2454 00e5 03       		.uleb128 0x3
 2455 00e6 6C090000 		.4byte	.LASF20
 2456 00ea 05       		.byte	0x5
 2457 00eb 2D       		.byte	0x2d
 2458 00ec 7E000000 		.4byte	0x7e
 2459 00f0 03       		.uleb128 0x3
 2460 00f1 AE080000 		.4byte	.LASF21
 2461 00f5 05       		.byte	0x5
 2462 00f6 39       		.byte	0x39
 2463 00f7 97000000 		.4byte	0x97
 2464 00fb 03       		.uleb128 0x3
 2465 00fc 10090000 		.4byte	.LASF22
 2466 0100 06       		.byte	0x6
 2467 0101 2B       		.byte	0x2b
 2468 0102 06010000 		.4byte	0x106
 2469 0106 04       		.uleb128 0x4
 2470 0107 01       		.byte	0x1
 2471 0108 02       		.byte	0x2
 2472 0109 A6020000 		.4byte	.LASF23
 2473 010d 03       		.uleb128 0x3
 2474 010e 73080000 		.4byte	.LASF24
 2475 0112 06       		.byte	0x6
 2476 0113 2C       		.byte	0x2c
 2477 0114 C4000000 		.4byte	0xc4
 2478 0118 03       		.uleb128 0x3
 2479 0119 99010000 		.4byte	.LASF25
 2480 011d 06       		.byte	0x6
 2481 011e 2D       		.byte	0x2d
 2482 011f C4000000 		.4byte	0xc4
 2483 0123 03       		.uleb128 0x3
 2484 0124 5D090000 		.4byte	.LASF26
 2485 0128 06       		.byte	0x6
 2486 0129 2E       		.byte	0x2e
 2487 012a C4000000 		.4byte	0xc4
 2488 012e 03       		.uleb128 0x3
 2489 012f 46000000 		.4byte	.LASF27
 2490 0133 06       		.byte	0x6
 2491 0134 30       		.byte	0x30
 2492 0135 E5000000 		.4byte	0xe5
 2493 0139 03       		.uleb128 0x3
 2494 013a F9070000 		.4byte	.LASF28
 2495 013e 06       		.byte	0x6
 2496 013f 31       		.byte	0x31
 2497 0140 DA000000 		.4byte	0xda
 2498 0144 03       		.uleb128 0x3
 2499 0145 23020000 		.4byte	.LASF29
ARM GAS  /tmp/ccaZEb87.s 			page 45


 2500 0149 06       		.byte	0x6
 2501 014a 33       		.byte	0x33
 2502 014b E5000000 		.4byte	0xe5
 2503 014f 03       		.uleb128 0x3
 2504 0150 29000000 		.4byte	.LASF30
 2505 0154 06       		.byte	0x6
 2506 0155 35       		.byte	0x35
 2507 0156 E5000000 		.4byte	0xe5
 2508 015a 03       		.uleb128 0x3
 2509 015b C8030000 		.4byte	.LASF31
 2510 015f 06       		.byte	0x6
 2511 0160 36       		.byte	0x36
 2512 0161 DA000000 		.4byte	0xda
 2513 0165 03       		.uleb128 0x3
 2514 0166 3F090000 		.4byte	.LASF32
 2515 016a 07       		.byte	0x7
 2516 016b 2A       		.byte	0x2a
 2517 016c 70010000 		.4byte	0x170
 2518 0170 08       		.uleb128 0x8
 2519 0171 3F090000 		.4byte	.LASF32
 2520 0175 4C       		.byte	0x4c
 2521 0176 08       		.byte	0x8
 2522 0177 5E       		.byte	0x5e
 2523 0178 6D020000 		.4byte	0x26d
 2524 017c 09       		.uleb128 0x9
 2525 017d 83010000 		.4byte	.LASF33
 2526 0181 08       		.byte	0x8
 2527 0182 5F       		.byte	0x5f
 2528 0183 8E020000 		.4byte	0x28e
 2529 0187 00       		.byte	0
 2530 0188 09       		.uleb128 0x9
 2531 0189 92010000 		.4byte	.LASF34
 2532 018d 08       		.byte	0x8
 2533 018e 61       		.byte	0x61
 2534 018f 8E020000 		.4byte	0x28e
 2535 0193 04       		.byte	0x4
 2536 0194 09       		.uleb128 0x9
 2537 0195 D6020000 		.4byte	.LASF35
 2538 0199 08       		.byte	0x8
 2539 019a 63       		.byte	0x63
 2540 019b 2E010000 		.4byte	0x12e
 2541 019f 08       		.byte	0x8
 2542 01a0 09       		.uleb128 0x9
 2543 01a1 40000000 		.4byte	.LASF36
 2544 01a5 08       		.byte	0x8
 2545 01a6 64       		.byte	0x64
 2546 01a7 51030000 		.4byte	0x351
 2547 01ab 0C       		.byte	0xc
 2548 01ac 09       		.uleb128 0x9
 2549 01ad 72010000 		.4byte	.LASF37
 2550 01b1 08       		.byte	0x8
 2551 01b2 66       		.byte	0x66
 2552 01b3 8E020000 		.4byte	0x28e
 2553 01b7 10       		.byte	0x10
 2554 01b8 09       		.uleb128 0x9
 2555 01b9 E1070000 		.4byte	.LASF38
 2556 01bd 08       		.byte	0x8
ARM GAS  /tmp/ccaZEb87.s 			page 46


 2557 01be 67       		.byte	0x67
 2558 01bf 8E020000 		.4byte	0x28e
 2559 01c3 14       		.byte	0x14
 2560 01c4 09       		.uleb128 0x9
 2561 01c5 570A0000 		.4byte	.LASF39
 2562 01c9 08       		.byte	0x8
 2563 01ca 6E       		.byte	0x6e
 2564 01cb B9000000 		.4byte	0xb9
 2565 01cf 18       		.byte	0x18
 2566 01d0 09       		.uleb128 0x9
 2567 01d1 E5090000 		.4byte	.LASF40
 2568 01d5 08       		.byte	0x8
 2569 01d6 74       		.byte	0x74
 2570 01d7 F3030000 		.4byte	0x3f3
 2571 01db 1C       		.byte	0x1c
 2572 01dc 09       		.uleb128 0x9
 2573 01dd 970A0000 		.4byte	.LASF41
 2574 01e1 08       		.byte	0x8
 2575 01e2 79       		.byte	0x79
 2576 01e3 18010000 		.4byte	0x118
 2577 01e7 20       		.byte	0x20
 2578 01e8 09       		.uleb128 0x9
 2579 01e9 2E060000 		.4byte	.LASF42
 2580 01ed 08       		.byte	0x8
 2581 01ee 7D       		.byte	0x7d
 2582 01ef 0D010000 		.4byte	0x10d
 2583 01f3 21       		.byte	0x21
 2584 01f4 09       		.uleb128 0x9
 2585 01f5 9B060000 		.4byte	.LASF43
 2586 01f9 08       		.byte	0x8
 2587 01fa 82       		.byte	0x82
 2588 01fb 23010000 		.4byte	0x123
 2589 01ff 22       		.byte	0x22
 2590 0200 09       		.uleb128 0x9
 2591 0201 01070000 		.4byte	.LASF44
 2592 0205 08       		.byte	0x8
 2593 0206 8F       		.byte	0x8f
 2594 0207 77030000 		.4byte	0x377
 2595 020b 24       		.byte	0x24
 2596 020c 0A       		.uleb128 0xa
 2597 020d 705F7500 		.ascii	"p_u\000"
 2598 0211 08       		.byte	0x8
 2599 0212 B4       		.byte	0xb4
 2600 0213 BE030000 		.4byte	0x3be
 2601 0217 28       		.byte	0x28
 2602 0218 09       		.uleb128 0x9
 2603 0219 24060000 		.4byte	.LASF45
 2604 021d 08       		.byte	0x8
 2605 021e B9       		.byte	0xb9
 2606 021f B4020000 		.4byte	0x2b4
 2607 0223 2C       		.byte	0x2c
 2608 0224 09       		.uleb128 0x9
 2609 0225 4E000000 		.4byte	.LASF46
 2610 0229 08       		.byte	0x8
 2611 022a BF       		.byte	0xbf
 2612 022b 94020000 		.4byte	0x294
 2613 022f 30       		.byte	0x30
ARM GAS  /tmp/ccaZEb87.s 			page 47


 2614 0230 09       		.uleb128 0x9
 2615 0231 910A0000 		.4byte	.LASF47
 2616 0235 08       		.byte	0x8
 2617 0236 C3       		.byte	0xc3
 2618 0237 39010000 		.4byte	0x139
 2619 023b 38       		.byte	0x38
 2620 023c 09       		.uleb128 0x9
 2621 023d E9030000 		.4byte	.LASF48
 2622 0241 08       		.byte	0x8
 2623 0242 C9       		.byte	0xc9
 2624 0243 44010000 		.4byte	0x144
 2625 0247 3C       		.byte	0x3c
 2626 0248 09       		.uleb128 0x9
 2627 0249 AE010000 		.4byte	.LASF49
 2628 024d 08       		.byte	0x8
 2629 024e D0       		.byte	0xd0
 2630 024f F9030000 		.4byte	0x3f9
 2631 0253 40       		.byte	0x40
 2632 0254 09       		.uleb128 0x9
 2633 0255 3F070000 		.4byte	.LASF50
 2634 0259 08       		.byte	0x8
 2635 025a D4       		.byte	0xd4
 2636 025b 2E010000 		.4byte	0x12e
 2637 025f 44       		.byte	0x44
 2638 0260 09       		.uleb128 0x9
 2639 0261 76060000 		.4byte	.LASF51
 2640 0265 08       		.byte	0x8
 2641 0266 DA       		.byte	0xda
 2642 0267 B0000000 		.4byte	0xb0
 2643 026b 48       		.byte	0x48
 2644 026c 00       		.byte	0
 2645 026d 0B       		.uleb128 0xb
 2646 026e 08       		.byte	0x8
 2647 026f 07       		.byte	0x7
 2648 0270 61       		.byte	0x61
 2649 0271 8E020000 		.4byte	0x28e
 2650 0275 09       		.uleb128 0x9
 2651 0276 83010000 		.4byte	.LASF33
 2652 027a 07       		.byte	0x7
 2653 027b 62       		.byte	0x62
 2654 027c 8E020000 		.4byte	0x28e
 2655 0280 00       		.byte	0
 2656 0281 09       		.uleb128 0x9
 2657 0282 92010000 		.4byte	.LASF34
 2658 0286 07       		.byte	0x7
 2659 0287 64       		.byte	0x64
 2660 0288 8E020000 		.4byte	0x28e
 2661 028c 04       		.byte	0x4
 2662 028d 00       		.byte	0
 2663 028e 06       		.uleb128 0x6
 2664 028f 04       		.byte	0x4
 2665 0290 65010000 		.4byte	0x165
 2666 0294 03       		.uleb128 0x3
 2667 0295 7D090000 		.4byte	.LASF52
 2668 0299 07       		.byte	0x7
 2669 029a 66       		.byte	0x66
 2670 029b 6D020000 		.4byte	0x26d
ARM GAS  /tmp/ccaZEb87.s 			page 48


 2671 029f 0B       		.uleb128 0xb
 2672 02a0 04       		.byte	0x4
 2673 02a1 07       		.byte	0x7
 2674 02a2 6B       		.byte	0x6b
 2675 02a3 B4020000 		.4byte	0x2b4
 2676 02a7 09       		.uleb128 0x9
 2677 02a8 83010000 		.4byte	.LASF33
 2678 02ac 07       		.byte	0x7
 2679 02ad 6D       		.byte	0x6d
 2680 02ae 8E020000 		.4byte	0x28e
 2681 02b2 00       		.byte	0
 2682 02b3 00       		.byte	0
 2683 02b4 03       		.uleb128 0x3
 2684 02b5 D0060000 		.4byte	.LASF53
 2685 02b9 07       		.byte	0x7
 2686 02ba 70       		.byte	0x70
 2687 02bb 9F020000 		.4byte	0x29f
 2688 02bf 03       		.uleb128 0x3
 2689 02c0 BE010000 		.4byte	.LASF54
 2690 02c4 09       		.byte	0x9
 2691 02c5 E5       		.byte	0xe5
 2692 02c6 B0000000 		.4byte	0xb0
 2693 02ca 03       		.uleb128 0x3
 2694 02cb 62030000 		.4byte	.LASF55
 2695 02cf 09       		.byte	0x9
 2696 02d0 EB       		.byte	0xeb
 2697 02d1 F0000000 		.4byte	0xf0
 2698 02d5 0C       		.uleb128 0xc
 2699 02d6 E2030000 		.4byte	.LASF56
 2700 02da 24       		.byte	0x24
 2701 02db 09       		.byte	0x9
 2702 02dc 0C01     		.2byte	0x10c
 2703 02de 51030000 		.4byte	0x351
 2704 02e2 0D       		.uleb128 0xd
 2705 02e3 723400   		.ascii	"r4\000"
 2706 02e6 09       		.byte	0x9
 2707 02e7 1F01     		.2byte	0x11f
 2708 02e9 BF020000 		.4byte	0x2bf
 2709 02ed 00       		.byte	0
 2710 02ee 0D       		.uleb128 0xd
 2711 02ef 723500   		.ascii	"r5\000"
 2712 02f2 09       		.byte	0x9
 2713 02f3 2001     		.2byte	0x120
 2714 02f5 BF020000 		.4byte	0x2bf
 2715 02f9 04       		.byte	0x4
 2716 02fa 0D       		.uleb128 0xd
 2717 02fb 723600   		.ascii	"r6\000"
 2718 02fe 09       		.byte	0x9
 2719 02ff 2101     		.2byte	0x121
 2720 0301 BF020000 		.4byte	0x2bf
 2721 0305 08       		.byte	0x8
 2722 0306 0D       		.uleb128 0xd
 2723 0307 723700   		.ascii	"r7\000"
 2724 030a 09       		.byte	0x9
 2725 030b 2201     		.2byte	0x122
 2726 030d BF020000 		.4byte	0x2bf
 2727 0311 0C       		.byte	0xc
ARM GAS  /tmp/ccaZEb87.s 			page 49


 2728 0312 0D       		.uleb128 0xd
 2729 0313 723800   		.ascii	"r8\000"
 2730 0316 09       		.byte	0x9
 2731 0317 2301     		.2byte	0x123
 2732 0319 BF020000 		.4byte	0x2bf
 2733 031d 10       		.byte	0x10
 2734 031e 0D       		.uleb128 0xd
 2735 031f 723900   		.ascii	"r9\000"
 2736 0322 09       		.byte	0x9
 2737 0323 2401     		.2byte	0x124
 2738 0325 BF020000 		.4byte	0x2bf
 2739 0329 14       		.byte	0x14
 2740 032a 0D       		.uleb128 0xd
 2741 032b 72313000 		.ascii	"r10\000"
 2742 032f 09       		.byte	0x9
 2743 0330 2501     		.2byte	0x125
 2744 0332 BF020000 		.4byte	0x2bf
 2745 0336 18       		.byte	0x18
 2746 0337 0D       		.uleb128 0xd
 2747 0338 72313100 		.ascii	"r11\000"
 2748 033c 09       		.byte	0x9
 2749 033d 2601     		.2byte	0x126
 2750 033f BF020000 		.4byte	0x2bf
 2751 0343 1C       		.byte	0x1c
 2752 0344 0D       		.uleb128 0xd
 2753 0345 6C7200   		.ascii	"lr\000"
 2754 0348 09       		.byte	0x9
 2755 0349 2701     		.2byte	0x127
 2756 034b BF020000 		.4byte	0x2bf
 2757 034f 20       		.byte	0x20
 2758 0350 00       		.byte	0
 2759 0351 0C       		.uleb128 0xc
 2760 0352 2F020000 		.4byte	.LASF57
 2761 0356 04       		.byte	0x4
 2762 0357 09       		.byte	0x9
 2763 0358 3101     		.2byte	0x131
 2764 035a 6C030000 		.4byte	0x36c
 2765 035e 0D       		.uleb128 0xd
 2766 035f 72313300 		.ascii	"r13\000"
 2767 0363 09       		.byte	0x9
 2768 0364 3201     		.2byte	0x132
 2769 0366 6C030000 		.4byte	0x36c
 2770 036a 00       		.byte	0
 2771 036b 00       		.byte	0
 2772 036c 06       		.uleb128 0x6
 2773 036d 04       		.byte	0x4
 2774 036e D5020000 		.4byte	0x2d5
 2775 0372 0E       		.uleb128 0xe
 2776 0373 E5000000 		.4byte	0xe5
 2777 0377 0E       		.uleb128 0xe
 2778 0378 4F010000 		.4byte	0x14f
 2779 037c 08       		.uleb128 0x8
 2780 037d 29050000 		.4byte	.LASF58
 2781 0381 10       		.byte	0x10
 2782 0382 0A       		.byte	0xa
 2783 0383 2C       		.byte	0x2c
 2784 0384 AD030000 		.4byte	0x3ad
ARM GAS  /tmp/ccaZEb87.s 			page 50


 2785 0388 09       		.uleb128 0x9
 2786 0389 47050000 		.4byte	.LASF59
 2787 038d 0A       		.byte	0xa
 2788 038e 2D       		.byte	0x2d
 2789 038f 94020000 		.4byte	0x294
 2790 0393 00       		.byte	0
 2791 0394 09       		.uleb128 0x9
 2792 0395 00010000 		.4byte	.LASF60
 2793 0399 0A       		.byte	0xa
 2794 039a 2F       		.byte	0x2f
 2795 039b 8E020000 		.4byte	0x28e
 2796 039f 08       		.byte	0x8
 2797 03a0 09       		.uleb128 0x9
 2798 03a1 630A0000 		.4byte	.LASF61
 2799 03a5 0A       		.byte	0xa
 2800 03a6 31       		.byte	0x31
 2801 03a7 AD030000 		.4byte	0x3ad
 2802 03ab 0C       		.byte	0xc
 2803 03ac 00       		.byte	0
 2804 03ad 06       		.uleb128 0x6
 2805 03ae 04       		.byte	0x4
 2806 03af 7C030000 		.4byte	0x37c
 2807 03b3 03       		.uleb128 0x3
 2808 03b4 29050000 		.4byte	.LASF58
 2809 03b8 0A       		.byte	0xa
 2810 03b9 33       		.byte	0x33
 2811 03ba 7C030000 		.4byte	0x37c
 2812 03be 0F       		.uleb128 0xf
 2813 03bf 04       		.byte	0x4
 2814 03c0 08       		.byte	0x8
 2815 03c1 96       		.byte	0x96
 2816 03c2 F3030000 		.4byte	0x3f3
 2817 03c6 10       		.uleb128 0x10
 2818 03c7 A3090000 		.4byte	.LASF62
 2819 03cb 08       		.byte	0x8
 2820 03cc 9D       		.byte	0x9d
 2821 03cd 39010000 		.4byte	0x139
 2822 03d1 10       		.uleb128 0x10
 2823 03d2 08010000 		.4byte	.LASF63
 2824 03d6 08       		.byte	0x8
 2825 03d7 A4       		.byte	0xa4
 2826 03d8 39010000 		.4byte	0x139
 2827 03dc 10       		.uleb128 0x10
 2828 03dd 42030000 		.4byte	.LASF64
 2829 03e1 08       		.byte	0x8
 2830 03e2 AB       		.byte	0xab
 2831 03e3 B0000000 		.4byte	0xb0
 2832 03e7 10       		.uleb128 0x10
 2833 03e8 F1010000 		.4byte	.LASF65
 2834 03ec 08       		.byte	0x8
 2835 03ed B2       		.byte	0xb2
 2836 03ee 44010000 		.4byte	0x144
 2837 03f2 00       		.byte	0
 2838 03f3 06       		.uleb128 0x6
 2839 03f4 04       		.byte	0x4
 2840 03f5 CA020000 		.4byte	0x2ca
 2841 03f9 06       		.uleb128 0x6
ARM GAS  /tmp/ccaZEb87.s 			page 51


 2842 03fa 04       		.byte	0x4
 2843 03fb B3030000 		.4byte	0x3b3
 2844 03ff 03       		.uleb128 0x3
 2845 0400 35030000 		.4byte	.LASF66
 2846 0404 0B       		.byte	0xb
 2847 0405 37       		.byte	0x37
 2848 0406 0A040000 		.4byte	0x40a
 2849 040a 08       		.uleb128 0x8
 2850 040b 35030000 		.4byte	.LASF66
 2851 040f 24       		.byte	0x24
 2852 0410 0B       		.byte	0xb
 2853 0411 45       		.byte	0x45
 2854 0412 77040000 		.4byte	0x477
 2855 0416 09       		.uleb128 0x9
 2856 0417 69080000 		.4byte	.LASF67
 2857 041b 0B       		.byte	0xb
 2858 041c 46       		.byte	0x46
 2859 041d 94020000 		.4byte	0x294
 2860 0421 00       		.byte	0
 2861 0422 09       		.uleb128 0x9
 2862 0423 65040000 		.4byte	.LASF68
 2863 0427 0B       		.byte	0xb
 2864 0428 47       		.byte	0x47
 2865 0429 28000000 		.4byte	0x28
 2866 042d 08       		.byte	0x8
 2867 042e 09       		.uleb128 0x9
 2868 042f 49010000 		.4byte	.LASF69
 2869 0433 0B       		.byte	0xb
 2870 0434 48       		.byte	0x48
 2871 0435 99040000 		.4byte	0x499
 2872 0439 0C       		.byte	0xc
 2873 043a 09       		.uleb128 0x9
 2874 043b 29010000 		.4byte	.LASF70
 2875 043f 0B       		.byte	0xb
 2876 0440 49       		.byte	0x49
 2877 0441 99040000 		.4byte	0x499
 2878 0445 10       		.byte	0x10
 2879 0446 09       		.uleb128 0x9
 2880 0447 B6040000 		.4byte	.LASF71
 2881 044b 0B       		.byte	0xb
 2882 044c 4B       		.byte	0x4b
 2883 044d 99040000 		.4byte	0x499
 2884 0451 14       		.byte	0x14
 2885 0452 09       		.uleb128 0x9
 2886 0453 8A010000 		.4byte	.LASF72
 2887 0457 0B       		.byte	0xb
 2888 0458 4C       		.byte	0x4c
 2889 0459 99040000 		.4byte	0x499
 2890 045d 18       		.byte	0x18
 2891 045e 09       		.uleb128 0x9
 2892 045f 69010000 		.4byte	.LASF73
 2893 0463 0B       		.byte	0xb
 2894 0464 4D       		.byte	0x4d
 2895 0465 77040000 		.4byte	0x477
 2896 0469 1C       		.byte	0x1c
 2897 046a 09       		.uleb128 0x9
 2898 046b 64020000 		.4byte	.LASF74
ARM GAS  /tmp/ccaZEb87.s 			page 52


 2899 046f 0B       		.byte	0xb
 2900 0470 4E       		.byte	0x4e
 2901 0471 B0000000 		.4byte	0xb0
 2902 0475 20       		.byte	0x20
 2903 0476 00       		.byte	0
 2904 0477 03       		.uleb128 0x3
 2905 0478 1A060000 		.4byte	.LASF75
 2906 047c 0B       		.byte	0xb
 2907 047d 3A       		.byte	0x3a
 2908 047e 82040000 		.4byte	0x482
 2909 0482 06       		.uleb128 0x6
 2910 0483 04       		.byte	0x4
 2911 0484 88040000 		.4byte	0x488
 2912 0488 11       		.uleb128 0x11
 2913 0489 93040000 		.4byte	0x493
 2914 048d 12       		.uleb128 0x12
 2915 048e 93040000 		.4byte	0x493
 2916 0492 00       		.byte	0
 2917 0493 06       		.uleb128 0x6
 2918 0494 04       		.byte	0x4
 2919 0495 FF030000 		.4byte	0x3ff
 2920 0499 06       		.uleb128 0x6
 2921 049a 04       		.byte	0x4
 2922 049b C4000000 		.4byte	0xc4
 2923 049f 03       		.uleb128 0x3
 2924 04a0 CF090000 		.4byte	.LASF76
 2925 04a4 0B       		.byte	0xb
 2926 04a5 82       		.byte	0x82
 2927 04a6 FF030000 		.4byte	0x3ff
 2928 04aa 03       		.uleb128 0x3
 2929 04ab 6D030000 		.4byte	.LASF77
 2930 04af 0B       		.byte	0xb
 2931 04b0 F5       		.byte	0xf5
 2932 04b1 FF030000 		.4byte	0x3ff
 2933 04b5 06       		.uleb128 0x6
 2934 04b6 04       		.byte	0x4
 2935 04b7 BB040000 		.4byte	0x4bb
 2936 04bb 07       		.uleb128 0x7
 2937 04bc C4000000 		.4byte	0xc4
 2938 04c0 13       		.uleb128 0x13
 2939 04c1 E5000000 		.4byte	0xe5
 2940 04c5 D0040000 		.4byte	0x4d0
 2941 04c9 14       		.uleb128 0x14
 2942 04ca A9000000 		.4byte	0xa9
 2943 04ce 07       		.byte	0x7
 2944 04cf 00       		.byte	0
 2945 04d0 0E       		.uleb128 0xe
 2946 04d1 CF000000 		.4byte	0xcf
 2947 04d5 0E       		.uleb128 0xe
 2948 04d6 DA000000 		.4byte	0xda
 2949 04da 15       		.uleb128 0x15
 2950 04db 34       		.byte	0x34
 2951 04dc 0C       		.byte	0xc
 2952 04dd 8502     		.2byte	0x285
 2953 04df 8C050000 		.4byte	0x58c
 2954 04e3 0D       		.uleb128 0xd
 2955 04e4 435200   		.ascii	"CR\000"
ARM GAS  /tmp/ccaZEb87.s 			page 53


 2956 04e7 0C       		.byte	0xc
 2957 04e8 8702     		.2byte	0x287
 2958 04ea 72030000 		.4byte	0x372
 2959 04ee 00       		.byte	0
 2960 04ef 16       		.uleb128 0x16
 2961 04f0 13040000 		.4byte	.LASF78
 2962 04f4 0C       		.byte	0xc
 2963 04f5 8802     		.2byte	0x288
 2964 04f7 72030000 		.4byte	0x372
 2965 04fb 04       		.byte	0x4
 2966 04fc 0D       		.uleb128 0xd
 2967 04fd 43495200 		.ascii	"CIR\000"
 2968 0501 0C       		.byte	0xc
 2969 0502 8902     		.2byte	0x289
 2970 0504 72030000 		.4byte	0x372
 2971 0508 08       		.byte	0x8
 2972 0509 16       		.uleb128 0x16
 2973 050a 5F050000 		.4byte	.LASF79
 2974 050e 0C       		.byte	0xc
 2975 050f 8A02     		.2byte	0x28a
 2976 0511 72030000 		.4byte	0x372
 2977 0515 0C       		.byte	0xc
 2978 0516 16       		.uleb128 0x16
 2979 0517 6B070000 		.4byte	.LASF80
 2980 051b 0C       		.byte	0xc
 2981 051c 8B02     		.2byte	0x28b
 2982 051e 72030000 		.4byte	0x372
 2983 0522 10       		.byte	0x10
 2984 0523 16       		.uleb128 0x16
 2985 0524 FB080000 		.4byte	.LASF81
 2986 0528 0C       		.byte	0xc
 2987 0529 8C02     		.2byte	0x28c
 2988 052b 72030000 		.4byte	0x372
 2989 052f 14       		.byte	0x14
 2990 0530 16       		.uleb128 0x16
 2991 0531 DD010000 		.4byte	.LASF82
 2992 0535 0C       		.byte	0xc
 2993 0536 8D02     		.2byte	0x28d
 2994 0538 72030000 		.4byte	0x372
 2995 053c 18       		.byte	0x18
 2996 053d 16       		.uleb128 0x16
 2997 053e 79070000 		.4byte	.LASF83
 2998 0542 0C       		.byte	0xc
 2999 0543 8E02     		.2byte	0x28e
 3000 0545 72030000 		.4byte	0x372
 3001 0549 1C       		.byte	0x1c
 3002 054a 16       		.uleb128 0x16
 3003 054b B8030000 		.4byte	.LASF84
 3004 054f 0C       		.byte	0xc
 3005 0550 8F02     		.2byte	0x28f
 3006 0552 72030000 		.4byte	0x372
 3007 0556 20       		.byte	0x20
 3008 0557 0D       		.uleb128 0xd
 3009 0558 43535200 		.ascii	"CSR\000"
 3010 055c 0C       		.byte	0xc
 3011 055d 9002     		.2byte	0x290
 3012 055f 72030000 		.4byte	0x372
ARM GAS  /tmp/ccaZEb87.s 			page 54


 3013 0563 24       		.byte	0x24
 3014 0564 16       		.uleb128 0x16
 3015 0565 DB040000 		.4byte	.LASF85
 3016 0569 0C       		.byte	0xc
 3017 056a 9102     		.2byte	0x291
 3018 056c 72030000 		.4byte	0x372
 3019 0570 28       		.byte	0x28
 3020 0571 16       		.uleb128 0x16
 3021 0572 7E060000 		.4byte	.LASF86
 3022 0576 0C       		.byte	0xc
 3023 0577 9202     		.2byte	0x292
 3024 0579 72030000 		.4byte	0x372
 3025 057d 2C       		.byte	0x2c
 3026 057e 16       		.uleb128 0x16
 3027 057f 84060000 		.4byte	.LASF87
 3028 0583 0C       		.byte	0xc
 3029 0584 9302     		.2byte	0x293
 3030 0586 72030000 		.4byte	0x372
 3031 058a 30       		.byte	0x30
 3032 058b 00       		.byte	0
 3033 058c 17       		.uleb128 0x17
 3034 058d 98080000 		.4byte	.LASF88
 3035 0591 0C       		.byte	0xc
 3036 0592 9402     		.2byte	0x294
 3037 0594 DA040000 		.4byte	0x4da
 3038 0598 03       		.uleb128 0x3
 3039 0599 E3060000 		.4byte	.LASF89
 3040 059d 0D       		.byte	0xd
 3041 059e E9       		.byte	0xe9
 3042 059f A3050000 		.4byte	0x5a3
 3043 05a3 0C       		.uleb128 0xc
 3044 05a4 E3060000 		.4byte	.LASF89
 3045 05a8 84       		.byte	0x84
 3046 05a9 0E       		.byte	0xe
 3047 05aa 1B01     		.2byte	0x11b
 3048 05ac 81060000 		.4byte	0x681
 3049 05b0 16       		.uleb128 0x16
 3050 05b1 CC000000 		.4byte	.LASF90
 3051 05b5 0E       		.byte	0xe
 3052 05b6 1F01     		.2byte	0x11f
 3053 05b8 B3060000 		.4byte	0x6b3
 3054 05bc 00       		.byte	0
 3055 05bd 16       		.uleb128 0x16
 3056 05be C5000000 		.4byte	.LASF91
 3057 05c2 0E       		.byte	0xe
 3058 05c3 2301     		.2byte	0x123
 3059 05c5 340B0000 		.4byte	0xb34
 3060 05c9 04       		.byte	0x4
 3061 05ca 16       		.uleb128 0x16
 3062 05cb 98030000 		.4byte	.LASF92
 3063 05cf 0E       		.byte	0xe
 3064 05d0 2701     		.2byte	0x127
 3065 05d2 CF000000 		.4byte	0xcf
 3066 05d6 08       		.byte	0x8
 3067 05d7 16       		.uleb128 0x16
 3068 05d8 DD020000 		.4byte	.LASF93
 3069 05dc 0E       		.byte	0xe
ARM GAS  /tmp/ccaZEb87.s 			page 55


 3070 05dd 2B01     		.2byte	0x12b
 3071 05df CF000000 		.4byte	0xcf
 3072 05e3 0A       		.byte	0xa
 3073 05e4 0D       		.uleb128 0xd
 3074 05e5 65706300 		.ascii	"epc\000"
 3075 05e9 0E       		.byte	0xe
 3076 05ea 2F01     		.2byte	0x12f
 3077 05ec 3F0B0000 		.4byte	0xb3f
 3078 05f0 0C       		.byte	0xc
 3079 05f1 16       		.uleb128 0x16
 3080 05f2 8E080000 		.4byte	.LASF94
 3081 05f6 0E       		.byte	0xe
 3082 05f7 3601     		.2byte	0x136
 3083 05f9 5A0B0000 		.4byte	0xb5a
 3084 05fd 2C       		.byte	0x2c
 3085 05fe 16       		.uleb128 0x16
 3086 05ff DA090000 		.4byte	.LASF95
 3087 0603 0E       		.byte	0xe
 3088 0604 3D01     		.2byte	0x13d
 3089 0606 5A0B0000 		.4byte	0xb5a
 3090 060a 48       		.byte	0x48
 3091 060b 16       		.uleb128 0x16
 3092 060c 8C020000 		.4byte	.LASF96
 3093 0610 0E       		.byte	0xe
 3094 0611 4101     		.2byte	0x141
 3095 0613 19070000 		.4byte	0x719
 3096 0617 64       		.byte	0x64
 3097 0618 16       		.uleb128 0x16
 3098 0619 57050000 		.4byte	.LASF97
 3099 061d 0E       		.byte	0xe
 3100 061e 4501     		.2byte	0x145
 3101 0620 99040000 		.4byte	0x499
 3102 0624 68       		.byte	0x68
 3103 0625 16       		.uleb128 0x16
 3104 0626 D1020000 		.4byte	.LASF98
 3105 062a 0E       		.byte	0xe
 3106 062b 4901     		.2byte	0x149
 3107 062d 28000000 		.4byte	0x28
 3108 0631 6C       		.byte	0x6c
 3109 0632 16       		.uleb128 0x16
 3110 0633 A8040000 		.4byte	.LASF99
 3111 0637 0E       		.byte	0xe
 3112 0638 4D01     		.2byte	0x14d
 3113 063a 8F070000 		.4byte	0x78f
 3114 063e 70       		.byte	0x70
 3115 063f 16       		.uleb128 0x16
 3116 0640 DC030000 		.4byte	.LASF100
 3117 0644 0E       		.byte	0xe
 3118 0645 5101     		.2byte	0x151
 3119 0647 6A0B0000 		.4byte	0xb6a
 3120 064b 74       		.byte	0x74
 3121 064c 16       		.uleb128 0x16
 3122 064d 99040000 		.4byte	.LASF101
 3123 0651 0E       		.byte	0xe
 3124 0652 5501     		.2byte	0x155
 3125 0654 CF000000 		.4byte	0xcf
 3126 0658 7C       		.byte	0x7c
ARM GAS  /tmp/ccaZEb87.s 			page 56


 3127 0659 16       		.uleb128 0x16
 3128 065a A0040000 		.4byte	.LASF102
 3129 065e 0E       		.byte	0xe
 3130 065f 5901     		.2byte	0x159
 3131 0661 C4000000 		.4byte	0xc4
 3132 0665 7E       		.byte	0x7e
 3133 0666 16       		.uleb128 0x16
 3134 0667 25040000 		.4byte	.LASF103
 3135 066b 0E       		.byte	0xe
 3136 066c 5D01     		.2byte	0x15d
 3137 066e C4000000 		.4byte	0xc4
 3138 0672 7F       		.byte	0x7f
 3139 0673 16       		.uleb128 0x16
 3140 0674 760A0000 		.4byte	.LASF104
 3141 0678 0E       		.byte	0xe
 3142 0679 6501     		.2byte	0x165
 3143 067b E5000000 		.4byte	0xe5
 3144 067f 80       		.byte	0x80
 3145 0680 00       		.byte	0
 3146 0681 03       		.uleb128 0x3
 3147 0682 75090000 		.4byte	.LASF105
 3148 0686 0D       		.byte	0xd
 3149 0687 EE       		.byte	0xee
 3150 0688 C4000000 		.4byte	0xc4
 3151 068c 18       		.uleb128 0x18
 3152 068d 01       		.byte	0x1
 3153 068e 0D       		.byte	0xd
 3154 068f F3       		.byte	0xf3
 3155 0690 B3060000 		.4byte	0x6b3
 3156 0694 19       		.uleb128 0x19
 3157 0695 BD030000 		.4byte	.LASF106
 3158 0699 00       		.sleb128 0
 3159 069a 19       		.uleb128 0x19
 3160 069b ED060000 		.4byte	.LASF107
 3161 069f 01       		.sleb128 1
 3162 06a0 19       		.uleb128 0x19
 3163 06a1 3D050000 		.4byte	.LASF108
 3164 06a5 02       		.sleb128 2
 3165 06a6 19       		.uleb128 0x19
 3166 06a7 18040000 		.4byte	.LASF109
 3167 06ab 03       		.sleb128 3
 3168 06ac 19       		.uleb128 0x19
 3169 06ad DA000000 		.4byte	.LASF110
 3170 06b1 04       		.sleb128 4
 3171 06b2 00       		.byte	0
 3172 06b3 03       		.uleb128 0x3
 3173 06b4 D0040000 		.4byte	.LASF111
 3174 06b8 0D       		.byte	0xd
 3175 06b9 F9       		.byte	0xf9
 3176 06ba 8C060000 		.4byte	0x68c
 3177 06be 18       		.uleb128 0x18
 3178 06bf 01       		.byte	0x1
 3179 06c0 0D       		.byte	0xd
 3180 06c1 FE       		.byte	0xfe
 3181 06c2 D9060000 		.4byte	0x6d9
 3182 06c6 19       		.uleb128 0x19
 3183 06c7 F0090000 		.4byte	.LASF112
ARM GAS  /tmp/ccaZEb87.s 			page 57


 3184 06cb 00       		.sleb128 0
 3185 06cc 19       		.uleb128 0x19
 3186 06cd 4D040000 		.4byte	.LASF113
 3187 06d1 01       		.sleb128 1
 3188 06d2 19       		.uleb128 0x19
 3189 06d3 12020000 		.4byte	.LASF114
 3190 06d7 02       		.sleb128 2
 3191 06d8 00       		.byte	0
 3192 06d9 17       		.uleb128 0x17
 3193 06da 3B010000 		.4byte	.LASF115
 3194 06de 0D       		.byte	0xd
 3195 06df 0201     		.2byte	0x102
 3196 06e1 BE060000 		.4byte	0x6be
 3197 06e5 1A       		.uleb128 0x1a
 3198 06e6 01       		.byte	0x1
 3199 06e7 0D       		.byte	0xd
 3200 06e8 0701     		.2byte	0x107
 3201 06ea 19070000 		.4byte	0x719
 3202 06ee 19       		.uleb128 0x19
 3203 06ef C7010000 		.4byte	.LASF116
 3204 06f3 00       		.sleb128 0
 3205 06f4 19       		.uleb128 0x19
 3206 06f5 A2000000 		.4byte	.LASF117
 3207 06f9 01       		.sleb128 1
 3208 06fa 19       		.uleb128 0x19
 3209 06fb 4A070000 		.4byte	.LASF118
 3210 06ff 02       		.sleb128 2
 3211 0700 19       		.uleb128 0x19
 3212 0701 430A0000 		.4byte	.LASF119
 3213 0705 03       		.sleb128 3
 3214 0706 19       		.uleb128 0x19
 3215 0707 860A0000 		.4byte	.LASF120
 3216 070b 04       		.sleb128 4
 3217 070c 19       		.uleb128 0x19
 3218 070d 120A0000 		.4byte	.LASF121
 3219 0711 05       		.sleb128 5
 3220 0712 19       		.uleb128 0x19
 3221 0713 56020000 		.4byte	.LASF122
 3222 0717 06       		.sleb128 6
 3223 0718 00       		.byte	0
 3224 0719 17       		.uleb128 0x17
 3225 071a 11010000 		.4byte	.LASF123
 3226 071e 0D       		.byte	0xd
 3227 071f 0F01     		.2byte	0x10f
 3228 0721 E5060000 		.4byte	0x6e5
 3229 0725 1A       		.uleb128 0x1a
 3230 0726 01       		.byte	0x1
 3231 0727 0D       		.byte	0xd
 3232 0728 1401     		.2byte	0x114
 3233 072a 53070000 		.4byte	0x753
 3234 072e 19       		.uleb128 0x19
 3235 072f BC080000 		.4byte	.LASF124
 3236 0733 00       		.sleb128 0
 3237 0734 19       		.uleb128 0x19
 3238 0735 52010000 		.4byte	.LASF125
 3239 0739 01       		.sleb128 1
 3240 073a 19       		.uleb128 0x19
ARM GAS  /tmp/ccaZEb87.s 			page 58


 3241 073b 54080000 		.4byte	.LASF126
 3242 073f 02       		.sleb128 2
 3243 0740 19       		.uleb128 0x19
 3244 0741 91090000 		.4byte	.LASF127
 3245 0745 03       		.sleb128 3
 3246 0746 19       		.uleb128 0x19
 3247 0747 04050000 		.4byte	.LASF128
 3248 074b 04       		.sleb128 4
 3249 074c 19       		.uleb128 0x19
 3250 074d 00020000 		.4byte	.LASF129
 3251 0751 05       		.sleb128 5
 3252 0752 00       		.byte	0
 3253 0753 17       		.uleb128 0x17
 3254 0754 00040000 		.4byte	.LASF130
 3255 0758 0D       		.byte	0xd
 3256 0759 1B01     		.2byte	0x11b
 3257 075b 25070000 		.4byte	0x725
 3258 075f 15       		.uleb128 0x15
 3259 0760 08       		.byte	0x8
 3260 0761 0D       		.byte	0xd
 3261 0762 2001     		.2byte	0x120
 3262 0764 83070000 		.4byte	0x783
 3263 0768 16       		.uleb128 0x16
 3264 0769 0B040000 		.4byte	.LASF131
 3265 076d 0D       		.byte	0xd
 3266 076e 2401     		.2byte	0x124
 3267 0770 28000000 		.4byte	0x28
 3268 0774 00       		.byte	0
 3269 0775 16       		.uleb128 0x16
 3270 0776 52030000 		.4byte	.LASF132
 3271 077a 0D       		.byte	0xd
 3272 077b 2801     		.2byte	0x128
 3273 077d B5040000 		.4byte	0x4b5
 3274 0781 04       		.byte	0x4
 3275 0782 00       		.byte	0
 3276 0783 17       		.uleb128 0x17
 3277 0784 CE030000 		.4byte	.LASF133
 3278 0788 0D       		.byte	0xd
 3279 0789 2901     		.2byte	0x129
 3280 078b 5F070000 		.4byte	0x75f
 3281 078f 17       		.uleb128 0x17
 3282 0790 31090000 		.4byte	.LASF134
 3283 0794 0D       		.byte	0xd
 3284 0795 3101     		.2byte	0x131
 3285 0797 9B070000 		.4byte	0x79b
 3286 079b 06       		.uleb128 0x6
 3287 079c 04       		.byte	0x4
 3288 079d A1070000 		.4byte	0x7a1
 3289 07a1 11       		.uleb128 0x11
 3290 07a2 AC070000 		.4byte	0x7ac
 3291 07a6 12       		.uleb128 0x12
 3292 07a7 AC070000 		.4byte	0x7ac
 3293 07ab 00       		.byte	0
 3294 07ac 06       		.uleb128 0x6
 3295 07ad 04       		.byte	0x4
 3296 07ae 98050000 		.4byte	0x598
 3297 07b2 17       		.uleb128 0x17
ARM GAS  /tmp/ccaZEb87.s 			page 59


 3298 07b3 FD050000 		.4byte	.LASF135
 3299 07b7 0D       		.byte	0xd
 3300 07b8 3A01     		.2byte	0x13a
 3301 07ba BE070000 		.4byte	0x7be
 3302 07be 06       		.uleb128 0x6
 3303 07bf 04       		.byte	0x4
 3304 07c0 C4070000 		.4byte	0x7c4
 3305 07c4 11       		.uleb128 0x11
 3306 07c5 D4070000 		.4byte	0x7d4
 3307 07c9 12       		.uleb128 0x12
 3308 07ca AC070000 		.4byte	0x7ac
 3309 07ce 12       		.uleb128 0x12
 3310 07cf 81060000 		.4byte	0x681
 3311 07d3 00       		.byte	0
 3312 07d4 17       		.uleb128 0x17
 3313 07d5 8B030000 		.4byte	.LASF136
 3314 07d9 0D       		.byte	0xd
 3315 07da 4301     		.2byte	0x143
 3316 07dc E0070000 		.4byte	0x7e0
 3317 07e0 06       		.uleb128 0x6
 3318 07e1 04       		.byte	0x4
 3319 07e2 E6070000 		.4byte	0x7e6
 3320 07e6 11       		.uleb128 0x11
 3321 07e7 F6070000 		.4byte	0x7f6
 3322 07eb 12       		.uleb128 0x12
 3323 07ec AC070000 		.4byte	0x7ac
 3324 07f0 12       		.uleb128 0x12
 3325 07f1 53070000 		.4byte	0x753
 3326 07f5 00       		.byte	0
 3327 07f6 17       		.uleb128 0x17
 3328 07f7 21090000 		.4byte	.LASF137
 3329 07fb 0D       		.byte	0xd
 3330 07fc 4F01     		.2byte	0x14f
 3331 07fe 02080000 		.4byte	0x802
 3332 0802 06       		.uleb128 0x6
 3333 0803 04       		.byte	0x4
 3334 0804 08080000 		.4byte	0x808
 3335 0808 1B       		.uleb128 0x1b
 3336 0809 FB000000 		.4byte	0xfb
 3337 080d 17080000 		.4byte	0x817
 3338 0811 12       		.uleb128 0x12
 3339 0812 AC070000 		.4byte	0x7ac
 3340 0816 00       		.byte	0
 3341 0817 17       		.uleb128 0x17
 3342 0818 7B080000 		.4byte	.LASF138
 3343 081c 0D       		.byte	0xd
 3344 081d 5401     		.2byte	0x154
 3345 081f 23080000 		.4byte	0x823
 3346 0823 06       		.uleb128 0x6
 3347 0824 04       		.byte	0x4
 3348 0825 29080000 		.4byte	0x829
 3349 0829 1B       		.uleb128 0x1b
 3350 082a 47080000 		.4byte	0x847
 3351 082e 47080000 		.4byte	0x847
 3352 0832 12       		.uleb128 0x12
 3353 0833 AC070000 		.4byte	0x7ac
 3354 0837 12       		.uleb128 0x12
ARM GAS  /tmp/ccaZEb87.s 			page 60


 3355 0838 C4000000 		.4byte	0xc4
 3356 083c 12       		.uleb128 0x12
 3357 083d C4000000 		.4byte	0xc4
 3358 0841 12       		.uleb128 0x12
 3359 0842 CF000000 		.4byte	0xcf
 3360 0846 00       		.byte	0
 3361 0847 06       		.uleb128 0x6
 3362 0848 04       		.byte	0x4
 3363 0849 4D080000 		.4byte	0x84d
 3364 084d 07       		.uleb128 0x7
 3365 084e 83070000 		.4byte	0x783
 3366 0852 0B       		.uleb128 0xb
 3367 0853 54       		.byte	0x54
 3368 0854 0F       		.byte	0xf
 3369 0855 27       		.byte	0x27
 3370 0856 AF080000 		.4byte	0x8af
 3371 085a 0A       		.uleb128 0xa
 3372 085b 45505200 		.ascii	"EPR\000"
 3373 085f 0F       		.byte	0xf
 3374 0860 2B       		.byte	0x2b
 3375 0861 AF080000 		.4byte	0x8af
 3376 0865 00       		.byte	0
 3377 0866 09       		.uleb128 0x9
 3378 0867 95070000 		.4byte	.LASF139
 3379 086b 0F       		.byte	0xf
 3380 086c 2F       		.byte	0x2f
 3381 086d B4080000 		.4byte	0x8b4
 3382 0871 20       		.byte	0x20
 3383 0872 09       		.uleb128 0x9
 3384 0873 94040000 		.4byte	.LASF140
 3385 0877 0F       		.byte	0xf
 3386 0878 33       		.byte	0x33
 3387 0879 72030000 		.4byte	0x372
 3388 087d 40       		.byte	0x40
 3389 087e 09       		.uleb128 0x9
 3390 087f C5040000 		.4byte	.LASF141
 3391 0883 0F       		.byte	0xf
 3392 0884 37       		.byte	0x37
 3393 0885 72030000 		.4byte	0x372
 3394 0889 44       		.byte	0x44
 3395 088a 0A       		.uleb128 0xa
 3396 088b 464E5200 		.ascii	"FNR\000"
 3397 088f 0F       		.byte	0xf
 3398 0890 3B       		.byte	0x3b
 3399 0891 72030000 		.4byte	0x372
 3400 0895 48       		.byte	0x48
 3401 0896 09       		.uleb128 0x9
 3402 0897 D4080000 		.4byte	.LASF142
 3403 089b 0F       		.byte	0xf
 3404 089c 3F       		.byte	0x3f
 3405 089d 72030000 		.4byte	0x372
 3406 08a1 4C       		.byte	0x4c
 3407 08a2 09       		.uleb128 0x9
 3408 08a3 40080000 		.4byte	.LASF143
 3409 08a7 0F       		.byte	0xf
 3410 08a8 43       		.byte	0x43
 3411 08a9 72030000 		.4byte	0x372
ARM GAS  /tmp/ccaZEb87.s 			page 61


 3412 08ad 50       		.byte	0x50
 3413 08ae 00       		.byte	0
 3414 08af 0E       		.uleb128 0xe
 3415 08b0 C0040000 		.4byte	0x4c0
 3416 08b4 0E       		.uleb128 0xe
 3417 08b5 C0040000 		.4byte	0x4c0
 3418 08b9 03       		.uleb128 0x3
 3419 08ba 2F010000 		.4byte	.LASF144
 3420 08be 0F       		.byte	0xf
 3421 08bf 44       		.byte	0x44
 3422 08c0 52080000 		.4byte	0x852
 3423 08c4 0B       		.uleb128 0xb
 3424 08c5 10       		.byte	0x10
 3425 08c6 0F       		.byte	0xf
 3426 08c7 49       		.byte	0x49
 3427 08c8 15090000 		.4byte	0x915
 3428 08cc 09       		.uleb128 0x9
 3429 08cd 4F050000 		.4byte	.LASF145
 3430 08d1 0F       		.byte	0xf
 3431 08d2 4D       		.byte	0x4d
 3432 08d3 72030000 		.4byte	0x372
 3433 08d7 00       		.byte	0
 3434 08d8 09       		.uleb128 0x9
 3435 08d9 BE060000 		.4byte	.LASF146
 3436 08dd 0F       		.byte	0xf
 3437 08de 51       		.byte	0x51
 3438 08df D0040000 		.4byte	0x4d0
 3439 08e3 04       		.byte	0x4
 3440 08e4 09       		.uleb128 0x9
 3441 08e5 C7060000 		.4byte	.LASF147
 3442 08e9 0F       		.byte	0xf
 3443 08ea 55       		.byte	0x55
 3444 08eb D0040000 		.4byte	0x4d0
 3445 08ef 06       		.byte	0x6
 3446 08f0 09       		.uleb128 0x9
 3447 08f1 7A040000 		.4byte	.LASF148
 3448 08f5 0F       		.byte	0xf
 3449 08f6 59       		.byte	0x59
 3450 08f7 72030000 		.4byte	0x372
 3451 08fb 08       		.byte	0x8
 3452 08fc 09       		.uleb128 0x9
 3453 08fd 79030000 		.4byte	.LASF149
 3454 0901 0F       		.byte	0xf
 3455 0902 5D       		.byte	0x5d
 3456 0903 D0040000 		.4byte	0x4d0
 3457 0907 0C       		.byte	0xc
 3458 0908 09       		.uleb128 0x9
 3459 0909 82030000 		.4byte	.LASF150
 3460 090d 0F       		.byte	0xf
 3461 090e 61       		.byte	0x61
 3462 090f D0040000 		.4byte	0x4d0
 3463 0913 0E       		.byte	0xe
 3464 0914 00       		.byte	0
 3465 0915 03       		.uleb128 0x3
 3466 0916 6B020000 		.4byte	.LASF151
 3467 091a 0F       		.byte	0xf
 3468 091b 62       		.byte	0x62
ARM GAS  /tmp/ccaZEb87.s 			page 62


 3469 091c C4080000 		.4byte	0x8c4
 3470 0920 0B       		.uleb128 0xb
 3471 0921 04       		.byte	0x4
 3472 0922 0E       		.byte	0xe
 3473 0923 84       		.byte	0x84
 3474 0924 35090000 		.4byte	0x935
 3475 0928 09       		.uleb128 0x9
 3476 0929 B8010000 		.4byte	.LASF152
 3477 092d 0E       		.byte	0xe
 3478 092e 88       		.byte	0x88
 3479 092f B5040000 		.4byte	0x4b5
 3480 0933 00       		.byte	0
 3481 0934 00       		.byte	0
 3482 0935 0B       		.uleb128 0xb
 3483 0936 04       		.byte	0x4
 3484 0937 0E       		.byte	0xe
 3485 0938 8A       		.byte	0x8a
 3486 0939 4A090000 		.4byte	0x94a
 3487 093d 09       		.uleb128 0x9
 3488 093e CC080000 		.4byte	.LASF153
 3489 0942 0E       		.byte	0xe
 3490 0943 8E       		.byte	0x8e
 3491 0944 4A090000 		.4byte	0x94a
 3492 0948 00       		.byte	0
 3493 0949 00       		.byte	0
 3494 094a 06       		.uleb128 0x6
 3495 094b 04       		.byte	0x4
 3496 094c AA040000 		.4byte	0x4aa
 3497 0950 0F       		.uleb128 0xf
 3498 0951 04       		.byte	0x4
 3499 0952 0E       		.byte	0xe
 3500 0953 83       		.byte	0x83
 3501 0954 6F090000 		.4byte	0x96f
 3502 0958 10       		.uleb128 0x10
 3503 0959 F2070000 		.4byte	.LASF154
 3504 095d 0E       		.byte	0xe
 3505 095e 89       		.byte	0x89
 3506 095f 20090000 		.4byte	0x920
 3507 0963 10       		.uleb128 0x10
 3508 0964 32080000 		.4byte	.LASF155
 3509 0968 0E       		.byte	0xe
 3510 0969 8F       		.byte	0x8f
 3511 096a 35090000 		.4byte	0x935
 3512 096e 00       		.byte	0
 3513 096f 0B       		.uleb128 0xb
 3514 0970 10       		.byte	0x10
 3515 0971 0E       		.byte	0xe
 3516 0972 76       		.byte	0x76
 3517 0973 A8090000 		.4byte	0x9a8
 3518 0977 09       		.uleb128 0x9
 3519 0978 7D0A0000 		.4byte	.LASF156
 3520 097c 0E       		.byte	0xe
 3521 097d 7A       		.byte	0x7a
 3522 097e FB000000 		.4byte	0xfb
 3523 0982 00       		.byte	0
 3524 0983 09       		.uleb128 0x9
 3525 0984 BE040000 		.4byte	.LASF157
ARM GAS  /tmp/ccaZEb87.s 			page 63


 3526 0988 0E       		.byte	0xe
 3527 0989 7E       		.byte	0x7e
 3528 098a 28000000 		.4byte	0x28
 3529 098e 04       		.byte	0x4
 3530 098f 09       		.uleb128 0x9
 3531 0990 5F040000 		.4byte	.LASF158
 3532 0994 0E       		.byte	0xe
 3533 0995 82       		.byte	0x82
 3534 0996 28000000 		.4byte	0x28
 3535 099a 08       		.byte	0x8
 3536 099b 09       		.uleb128 0x9
 3537 099c B7080000 		.4byte	.LASF159
 3538 09a0 0E       		.byte	0xe
 3539 09a1 91       		.byte	0x91
 3540 09a2 50090000 		.4byte	0x950
 3541 09a6 0C       		.byte	0xc
 3542 09a7 00       		.byte	0
 3543 09a8 03       		.uleb128 0x3
 3544 09a9 A5030000 		.4byte	.LASF160
 3545 09ad 0E       		.byte	0xe
 3546 09ae 92       		.byte	0x92
 3547 09af 6F090000 		.4byte	0x96f
 3548 09b3 0B       		.uleb128 0xb
 3549 09b4 04       		.byte	0x4
 3550 09b5 0E       		.byte	0xe
 3551 09b6 A5       		.byte	0xa5
 3552 09b7 C8090000 		.4byte	0x9c8
 3553 09bb 09       		.uleb128 0x9
 3554 09bc F5040000 		.4byte	.LASF161
 3555 09c0 0E       		.byte	0xe
 3556 09c1 A9       		.byte	0xa9
 3557 09c2 99040000 		.4byte	0x499
 3558 09c6 00       		.byte	0
 3559 09c7 00       		.byte	0
 3560 09c8 0B       		.uleb128 0xb
 3561 09c9 04       		.byte	0x4
 3562 09ca 0E       		.byte	0xe
 3563 09cb AB       		.byte	0xab
 3564 09cc DD090000 		.4byte	0x9dd
 3565 09d0 09       		.uleb128 0x9
 3566 09d1 38080000 		.4byte	.LASF162
 3567 09d5 0E       		.byte	0xe
 3568 09d6 AF       		.byte	0xaf
 3569 09d7 DD090000 		.4byte	0x9dd
 3570 09db 00       		.byte	0
 3571 09dc 00       		.byte	0
 3572 09dd 06       		.uleb128 0x6
 3573 09de 04       		.byte	0x4
 3574 09df 9F040000 		.4byte	0x49f
 3575 09e3 0F       		.uleb128 0xf
 3576 09e4 04       		.byte	0x4
 3577 09e5 0E       		.byte	0xe
 3578 09e6 A4       		.byte	0xa4
 3579 09e7 020A0000 		.4byte	0xa02
 3580 09eb 10       		.uleb128 0x10
 3581 09ec F2070000 		.4byte	.LASF154
 3582 09f0 0E       		.byte	0xe
ARM GAS  /tmp/ccaZEb87.s 			page 64


 3583 09f1 AA       		.byte	0xaa
 3584 09f2 B3090000 		.4byte	0x9b3
 3585 09f6 10       		.uleb128 0x10
 3586 09f7 32080000 		.4byte	.LASF155
 3587 09fb 0E       		.byte	0xe
 3588 09fc B0       		.byte	0xb0
 3589 09fd C8090000 		.4byte	0x9c8
 3590 0a01 00       		.byte	0
 3591 0a02 0B       		.uleb128 0xb
 3592 0a03 14       		.byte	0x14
 3593 0a04 0E       		.byte	0xe
 3594 0a05 97       		.byte	0x97
 3595 0a06 470A0000 		.4byte	0xa47
 3596 0a0a 09       		.uleb128 0x9
 3597 0a0b 11080000 		.4byte	.LASF163
 3598 0a0f 0E       		.byte	0xe
 3599 0a10 9B       		.byte	0x9b
 3600 0a11 FB000000 		.4byte	0xfb
 3601 0a15 00       		.byte	0
 3602 0a16 09       		.uleb128 0x9
 3603 0a17 37020000 		.4byte	.LASF164
 3604 0a1b 0E       		.byte	0xe
 3605 0a1c 9F       		.byte	0x9f
 3606 0a1d 28000000 		.4byte	0x28
 3607 0a21 04       		.byte	0x4
 3608 0a22 09       		.uleb128 0x9
 3609 0a23 CA040000 		.4byte	.LASF165
 3610 0a27 0E       		.byte	0xe
 3611 0a28 A3       		.byte	0xa3
 3612 0a29 28000000 		.4byte	0x28
 3613 0a2d 08       		.byte	0x8
 3614 0a2e 09       		.uleb128 0x9
 3615 0a2f B7080000 		.4byte	.LASF159
 3616 0a33 0E       		.byte	0xe
 3617 0a34 B1       		.byte	0xb1
 3618 0a35 E3090000 		.4byte	0x9e3
 3619 0a39 0C       		.byte	0xc
 3620 0a3a 09       		.uleb128 0x9
 3621 0a3b 8A090000 		.4byte	.LASF166
 3622 0a3f 0E       		.byte	0xe
 3623 0a40 B6       		.byte	0xb6
 3624 0a41 CF000000 		.4byte	0xcf
 3625 0a45 10       		.byte	0x10
 3626 0a46 00       		.byte	0
 3627 0a47 03       		.uleb128 0x3
 3628 0a48 81070000 		.4byte	.LASF167
 3629 0a4c 0E       		.byte	0xe
 3630 0a4d B7       		.byte	0xb7
 3631 0a4e 020A0000 		.4byte	0xa02
 3632 0a52 0B       		.uleb128 0xb
 3633 0a53 24       		.byte	0x24
 3634 0a54 0E       		.byte	0xe
 3635 0a55 BD       		.byte	0xbd
 3636 0a56 D30A0000 		.4byte	0xad3
 3637 0a5a 09       		.uleb128 0x9
 3638 0a5b D2000000 		.4byte	.LASF168
 3639 0a5f 0E       		.byte	0xe
ARM GAS  /tmp/ccaZEb87.s 			page 65


 3640 0a60 C1       		.byte	0xc1
 3641 0a61 E5000000 		.4byte	0xe5
 3642 0a65 00       		.byte	0
 3643 0a66 09       		.uleb128 0x9
 3644 0a67 49030000 		.4byte	.LASF169
 3645 0a6b 0E       		.byte	0xe
 3646 0a6c CC       		.byte	0xcc
 3647 0a6d B2070000 		.4byte	0x7b2
 3648 0a71 04       		.byte	0x4
 3649 0a72 09       		.uleb128 0x9
 3650 0a73 5C030000 		.4byte	.LASF170
 3651 0a77 0E       		.byte	0xe
 3652 0a78 D2       		.byte	0xd2
 3653 0a79 B2070000 		.4byte	0x7b2
 3654 0a7d 08       		.byte	0x8
 3655 0a7e 09       		.uleb128 0x9
 3656 0a7f DC060000 		.4byte	.LASF171
 3657 0a83 0E       		.byte	0xe
 3658 0a84 D8       		.byte	0xd8
 3659 0a85 B2070000 		.4byte	0x7b2
 3660 0a89 0C       		.byte	0xc
 3661 0a8a 09       		.uleb128 0x9
 3662 0a8b F6060000 		.4byte	.LASF172
 3663 0a8f 0E       		.byte	0xe
 3664 0a90 DE       		.byte	0xde
 3665 0a91 CF000000 		.4byte	0xcf
 3666 0a95 10       		.byte	0x10
 3667 0a96 09       		.uleb128 0x9
 3668 0a97 A2010000 		.4byte	.LASF173
 3669 0a9b 0E       		.byte	0xe
 3670 0a9c E4       		.byte	0xe4
 3671 0a9d CF000000 		.4byte	0xcf
 3672 0aa1 12       		.byte	0x12
 3673 0aa2 09       		.uleb128 0x9
 3674 0aa3 FB040000 		.4byte	.LASF174
 3675 0aa7 0E       		.byte	0xe
 3676 0aa8 E9       		.byte	0xe9
 3677 0aa9 D30A0000 		.4byte	0xad3
 3678 0aad 14       		.byte	0x14
 3679 0aae 09       		.uleb128 0x9
 3680 0aaf 08070000 		.4byte	.LASF175
 3681 0ab3 0E       		.byte	0xe
 3682 0ab4 EE       		.byte	0xee
 3683 0ab5 D90A0000 		.4byte	0xad9
 3684 0ab9 18       		.byte	0x18
 3685 0aba 09       		.uleb128 0x9
 3686 0abb 34070000 		.4byte	.LASF176
 3687 0abf 0E       		.byte	0xe
 3688 0ac0 F4       		.byte	0xf4
 3689 0ac1 CF000000 		.4byte	0xcf
 3690 0ac5 1C       		.byte	0x1c
 3691 0ac6 09       		.uleb128 0x9
 3692 0ac7 B4060000 		.4byte	.LASF177
 3693 0acb 0E       		.byte	0xe
 3694 0acc FA       		.byte	0xfa
 3695 0acd 99040000 		.4byte	0x499
 3696 0ad1 20       		.byte	0x20
ARM GAS  /tmp/ccaZEb87.s 			page 66


 3697 0ad2 00       		.byte	0
 3698 0ad3 06       		.uleb128 0x6
 3699 0ad4 04       		.byte	0x4
 3700 0ad5 A8090000 		.4byte	0x9a8
 3701 0ad9 06       		.uleb128 0x6
 3702 0ada 04       		.byte	0x4
 3703 0adb 470A0000 		.4byte	0xa47
 3704 0adf 03       		.uleb128 0x3
 3705 0ae0 FF070000 		.4byte	.LASF178
 3706 0ae4 0E       		.byte	0xe
 3707 0ae5 FB       		.byte	0xfb
 3708 0ae6 520A0000 		.4byte	0xa52
 3709 0aea 15       		.uleb128 0x15
 3710 0aeb 10       		.byte	0x10
 3711 0aec 0E       		.byte	0xe
 3712 0aed 0001     		.2byte	0x100
 3713 0aef 280B0000 		.4byte	0xb28
 3714 0af3 16       		.uleb128 0x16
 3715 0af4 20050000 		.4byte	.LASF179
 3716 0af8 0E       		.byte	0xe
 3717 0af9 0501     		.2byte	0x105
 3718 0afb D4070000 		.4byte	0x7d4
 3719 0aff 00       		.byte	0
 3720 0b00 16       		.uleb128 0x16
 3721 0b01 BD090000 		.4byte	.LASF180
 3722 0b05 0E       		.byte	0xe
 3723 0b06 0A01     		.2byte	0x10a
 3724 0b08 17080000 		.4byte	0x817
 3725 0b0c 04       		.byte	0x4
 3726 0b0d 16       		.uleb128 0x16
 3727 0b0e 95020000 		.4byte	.LASF181
 3728 0b12 0E       		.byte	0xe
 3729 0b13 1001     		.2byte	0x110
 3730 0b15 F6070000 		.4byte	0x7f6
 3731 0b19 08       		.byte	0x8
 3732 0b1a 16       		.uleb128 0x16
 3733 0b1b 65090000 		.4byte	.LASF182
 3734 0b1f 0E       		.byte	0xe
 3735 0b20 1401     		.2byte	0x114
 3736 0b22 8F070000 		.4byte	0x78f
 3737 0b26 0C       		.byte	0xc
 3738 0b27 00       		.byte	0
 3739 0b28 17       		.uleb128 0x17
 3740 0b29 6C060000 		.4byte	.LASF183
 3741 0b2d 0E       		.byte	0xe
 3742 0b2e 1601     		.2byte	0x116
 3743 0b30 EA0A0000 		.4byte	0xaea
 3744 0b34 06       		.uleb128 0x6
 3745 0b35 04       		.byte	0x4
 3746 0b36 3A0B0000 		.4byte	0xb3a
 3747 0b3a 07       		.uleb128 0x7
 3748 0b3b 280B0000 		.4byte	0xb28
 3749 0b3f 13       		.uleb128 0x13
 3750 0b40 4F0B0000 		.4byte	0xb4f
 3751 0b44 4F0B0000 		.4byte	0xb4f
 3752 0b48 14       		.uleb128 0x14
 3753 0b49 A9000000 		.4byte	0xa9
ARM GAS  /tmp/ccaZEb87.s 			page 67


 3754 0b4d 07       		.byte	0x7
 3755 0b4e 00       		.byte	0
 3756 0b4f 06       		.uleb128 0x6
 3757 0b50 04       		.byte	0x4
 3758 0b51 550B0000 		.4byte	0xb55
 3759 0b55 07       		.uleb128 0x7
 3760 0b56 DF0A0000 		.4byte	0xadf
 3761 0b5a 13       		.uleb128 0x13
 3762 0b5b B0000000 		.4byte	0xb0
 3763 0b5f 6A0B0000 		.4byte	0xb6a
 3764 0b63 14       		.uleb128 0x14
 3765 0b64 A9000000 		.4byte	0xa9
 3766 0b68 06       		.byte	0x6
 3767 0b69 00       		.byte	0
 3768 0b6a 13       		.uleb128 0x13
 3769 0b6b C4000000 		.4byte	0xc4
 3770 0b6f 7A0B0000 		.4byte	0xb7a
 3771 0b73 14       		.uleb128 0x14
 3772 0b74 A9000000 		.4byte	0xa9
 3773 0b78 07       		.byte	0x7
 3774 0b79 00       		.byte	0
 3775 0b7a 0F       		.uleb128 0xf
 3776 0b7b 14       		.byte	0x14
 3777 0b7c 02       		.byte	0x2
 3778 0b7d 38       		.byte	0x38
 3779 0b7e 980B0000 		.4byte	0xb98
 3780 0b82 1C       		.uleb128 0x1c
 3781 0b83 696E00   		.ascii	"in\000"
 3782 0b86 02       		.byte	0x2
 3783 0b87 3C       		.byte	0x3c
 3784 0b88 A8090000 		.4byte	0x9a8
 3785 0b8c 1C       		.uleb128 0x1c
 3786 0b8d 6F757400 		.ascii	"out\000"
 3787 0b91 02       		.byte	0x2
 3788 0b92 40       		.byte	0x40
 3789 0b93 470A0000 		.4byte	0xa47
 3790 0b97 00       		.byte	0
 3791 0b98 1D       		.uleb128 0x1d
 3792 0b99 6A0A0000 		.4byte	.LASF185
 3793 0b9d 01       		.byte	0x1
 3794 0b9e 3B       		.byte	0x3b
 3795 0b9f 8E020000 		.4byte	0x28e
 3796 0ba3 00000000 		.4byte	.LFB2
 3797 0ba7 22000000 		.4byte	.LFE2-.LFB2
 3798 0bab 01       		.uleb128 0x1
 3799 0bac 9C       		.byte	0x9c
 3800 0bad CD0B0000 		.4byte	0xbcd
 3801 0bb1 1E       		.uleb128 0x1e
 3802 0bb2 74717000 		.ascii	"tqp\000"
 3803 0bb6 01       		.byte	0x1
 3804 0bb7 3B       		.byte	0x3b
 3805 0bb8 CD0B0000 		.4byte	0xbcd
 3806 0bbc 02       		.uleb128 0x2
 3807 0bbd 91       		.byte	0x91
 3808 0bbe 74       		.sleb128 -12
 3809 0bbf 1F       		.uleb128 0x1f
 3810 0bc0 747000   		.ascii	"tp\000"
ARM GAS  /tmp/ccaZEb87.s 			page 68


 3811 0bc3 01       		.byte	0x1
 3812 0bc4 3C       		.byte	0x3c
 3813 0bc5 8E020000 		.4byte	0x28e
 3814 0bc9 02       		.uleb128 0x2
 3815 0bca 91       		.byte	0x91
 3816 0bcb 7C       		.sleb128 -4
 3817 0bcc 00       		.byte	0
 3818 0bcd 06       		.uleb128 0x6
 3819 0bce 04       		.byte	0x4
 3820 0bcf 94020000 		.4byte	0x294
 3821 0bd3 20       		.uleb128 0x20
 3822 0bd4 5E070000 		.4byte	.LASF189
 3823 0bd8 02       		.byte	0x2
 3824 0bd9 61       		.byte	0x61
 3825 0bda 24000000 		.4byte	.LFB118
 3826 0bde 10000000 		.4byte	.LFE118-.LFB118
 3827 0be2 01       		.uleb128 0x1
 3828 0be3 9C       		.byte	0x9c
 3829 0be4 F70B0000 		.4byte	0xbf7
 3830 0be8 21       		.uleb128 0x21
 3831 0be9 B1040000 		.4byte	.LASF184
 3832 0bed 02       		.byte	0x2
 3833 0bee 61       		.byte	0x61
 3834 0bef AC070000 		.4byte	0x7ac
 3835 0bf3 02       		.uleb128 0x2
 3836 0bf4 91       		.byte	0x91
 3837 0bf5 7C       		.sleb128 -4
 3838 0bf6 00       		.byte	0
 3839 0bf7 22       		.uleb128 0x22
 3840 0bf8 47080000 		.4byte	.LASF186
 3841 0bfc 02       		.byte	0x2
 3842 0bfd 6E       		.byte	0x6e
 3843 0bfe E5000000 		.4byte	0xe5
 3844 0c02 34000000 		.4byte	.LFB119
 3845 0c06 40000000 		.4byte	.LFE119-.LFB119
 3846 0c0a 01       		.uleb128 0x1
 3847 0c0b 9C       		.byte	0x9c
 3848 0c0c 3B0C0000 		.4byte	0xc3b
 3849 0c10 21       		.uleb128 0x21
 3850 0c11 B1040000 		.4byte	.LASF184
 3851 0c15 02       		.byte	0x2
 3852 0c16 6E       		.byte	0x6e
 3853 0c17 AC070000 		.4byte	0x7ac
 3854 0c1b 02       		.uleb128 0x2
 3855 0c1c 91       		.byte	0x91
 3856 0c1d 6C       		.sleb128 -20
 3857 0c1e 21       		.uleb128 0x21
 3858 0c1f AB070000 		.4byte	.LASF187
 3859 0c23 02       		.byte	0x2
 3860 0c24 6E       		.byte	0x6e
 3861 0c25 28000000 		.4byte	0x28
 3862 0c29 02       		.uleb128 0x2
 3863 0c2a 91       		.byte	0x91
 3864 0c2b 68       		.sleb128 -24
 3865 0c2c 23       		.uleb128 0x23
 3866 0c2d 5E0A0000 		.4byte	.LASF188
 3867 0c31 02       		.byte	0x2
ARM GAS  /tmp/ccaZEb87.s 			page 69


 3868 0c32 6F       		.byte	0x6f
 3869 0c33 E5000000 		.4byte	0xe5
 3870 0c37 02       		.uleb128 0x2
 3871 0c38 91       		.byte	0x91
 3872 0c39 74       		.sleb128 -12
 3873 0c3a 00       		.byte	0
 3874 0c3b 20       		.uleb128 0x20
 3875 0c3c 33040000 		.4byte	.LASF190
 3876 0c40 02       		.byte	0x2
 3877 0c41 81       		.byte	0x81
 3878 0c42 74000000 		.4byte	.LFB120
 3879 0c46 46000000 		.4byte	.LFE120-.LFB120
 3880 0c4a 01       		.uleb128 0x1
 3881 0c4b 9C       		.byte	0x9c
 3882 0c4c 870C0000 		.4byte	0xc87
 3883 0c50 1E       		.uleb128 0x1e
 3884 0c51 75647000 		.ascii	"udp\000"
 3885 0c55 02       		.byte	0x2
 3886 0c56 81       		.byte	0x81
 3887 0c57 870C0000 		.4byte	0xc87
 3888 0c5b 02       		.uleb128 0x2
 3889 0c5c 91       		.byte	0x91
 3890 0c5d 74       		.sleb128 -12
 3891 0c5e 1E       		.uleb128 0x1e
 3892 0c5f 62756600 		.ascii	"buf\000"
 3893 0c63 02       		.byte	0x2
 3894 0c64 82       		.byte	0x82
 3895 0c65 99040000 		.4byte	0x499
 3896 0c69 02       		.uleb128 0x2
 3897 0c6a 91       		.byte	0x91
 3898 0c6b 70       		.sleb128 -16
 3899 0c6c 1E       		.uleb128 0x1e
 3900 0c6d 6E00     		.ascii	"n\000"
 3901 0c6f 02       		.byte	0x2
 3902 0c70 82       		.byte	0x82
 3903 0c71 28000000 		.4byte	0x28
 3904 0c75 02       		.uleb128 0x2
 3905 0c76 91       		.byte	0x91
 3906 0c77 6C       		.sleb128 -20
 3907 0c78 23       		.uleb128 0x23
 3908 0c79 74070000 		.4byte	.LASF191
 3909 0c7d 02       		.byte	0x2
 3910 0c7e 83       		.byte	0x83
 3911 0c7f 8D0C0000 		.4byte	0xc8d
 3912 0c83 02       		.uleb128 0x2
 3913 0c84 91       		.byte	0x91
 3914 0c85 7C       		.sleb128 -4
 3915 0c86 00       		.byte	0
 3916 0c87 06       		.uleb128 0x6
 3917 0c88 04       		.byte	0x4
 3918 0c89 15090000 		.4byte	0x915
 3919 0c8d 06       		.uleb128 0x6
 3920 0c8e 04       		.byte	0x4
 3921 0c8f E5000000 		.4byte	0xe5
 3922 0c93 24       		.uleb128 0x24
 3923 0c94 00000000 		.4byte	.LASF192
 3924 0c98 02       		.byte	0x2
ARM GAS  /tmp/ccaZEb87.s 			page 70


 3925 0c99 99       		.byte	0x99
 3926 0c9a BC000000 		.4byte	.LFB121
 3927 0c9e FA000000 		.4byte	.LFE121-.LFB121
 3928 0ca2 01       		.uleb128 0x1
 3929 0ca3 9C       		.byte	0x9c
 3930 0ca4 390D0000 		.4byte	0xd39
 3931 0ca8 1E       		.uleb128 0x1e
 3932 0ca9 75647000 		.ascii	"udp\000"
 3933 0cad 02       		.byte	0x2
 3934 0cae 99       		.byte	0x99
 3935 0caf 870C0000 		.4byte	0xc87
 3936 0cb3 02       		.uleb128 0x2
 3937 0cb4 91       		.byte	0x91
 3938 0cb5 64       		.sleb128 -28
 3939 0cb6 1E       		.uleb128 0x1e
 3940 0cb7 69717000 		.ascii	"iqp\000"
 3941 0cbb 02       		.byte	0x2
 3942 0cbc 9A       		.byte	0x9a
 3943 0cbd DD090000 		.4byte	0x9dd
 3944 0cc1 02       		.uleb128 0x2
 3945 0cc2 91       		.byte	0x91
 3946 0cc3 60       		.sleb128 -32
 3947 0cc4 1E       		.uleb128 0x1e
 3948 0cc5 6E00     		.ascii	"n\000"
 3949 0cc7 02       		.byte	0x2
 3950 0cc8 9A       		.byte	0x9a
 3951 0cc9 28000000 		.4byte	0x28
 3952 0ccd 02       		.uleb128 0x2
 3953 0cce 91       		.byte	0x91
 3954 0ccf 5C       		.sleb128 -36
 3955 0cd0 1F       		.uleb128 0x1f
 3956 0cd1 6E687700 		.ascii	"nhw\000"
 3957 0cd5 02       		.byte	0x2
 3958 0cd6 9B       		.byte	0x9b
 3959 0cd7 28000000 		.4byte	0x28
 3960 0cdb 02       		.uleb128 0x2
 3961 0cdc 91       		.byte	0x91
 3962 0cdd 74       		.sleb128 -12
 3963 0cde 23       		.uleb128 0x23
 3964 0cdf 74070000 		.4byte	.LASF191
 3965 0ce3 02       		.byte	0x2
 3966 0ce4 9C       		.byte	0x9c
 3967 0ce5 8D0C0000 		.4byte	0xc8d
 3968 0ce9 02       		.uleb128 0x2
 3969 0cea 91       		.byte	0x91
 3970 0ceb 70       		.sleb128 -16
 3971 0cec 25       		.uleb128 0x25
 3972 0ced DE000000 		.4byte	.LBB2
 3973 0cf1 5A000000 		.4byte	.LBE2-.LBB2
 3974 0cf5 060D0000 		.4byte	0xd06
 3975 0cf9 1F       		.uleb128 0x1f
 3976 0cfa 7700     		.ascii	"w\000"
 3977 0cfc 02       		.byte	0x2
 3978 0cfd A0       		.byte	0xa0
 3979 0cfe E5000000 		.4byte	0xe5
 3980 0d02 02       		.uleb128 0x2
 3981 0d03 91       		.byte	0x91
ARM GAS  /tmp/ccaZEb87.s 			page 71


 3982 0d04 6C       		.sleb128 -20
 3983 0d05 00       		.byte	0
 3984 0d06 25       		.uleb128 0x25
 3985 0d07 6E010000 		.4byte	.LBB3
 3986 0d0b 06000000 		.4byte	.LBE3-.LBB3
 3987 0d0f 210D0000 		.4byte	0xd21
 3988 0d13 1F       		.uleb128 0x1f
 3989 0d14 746D7000 		.ascii	"tmp\000"
 3990 0d18 02       		.byte	0x2
 3991 0d19 B3       		.byte	0xb3
 3992 0d1a E5000000 		.4byte	0xe5
 3993 0d1e 01       		.uleb128 0x1
 3994 0d1f 53       		.byte	0x53
 3995 0d20 00       		.byte	0
 3996 0d21 26       		.uleb128 0x26
 3997 0d22 AA010000 		.4byte	.LBB4
 3998 0d26 06000000 		.4byte	.LBE4-.LBB4
 3999 0d2a 1F       		.uleb128 0x1f
 4000 0d2b 746D7000 		.ascii	"tmp\000"
 4001 0d2f 02       		.byte	0x2
 4002 0d30 B7       		.byte	0xb7
 4003 0d31 E5000000 		.4byte	0xe5
 4004 0d35 01       		.uleb128 0x1
 4005 0d36 53       		.byte	0x53
 4006 0d37 00       		.byte	0
 4007 0d38 00       		.byte	0
 4008 0d39 20       		.uleb128 0x20
 4009 0d3a 260A0000 		.4byte	.LASF193
 4010 0d3e 02       		.byte	0x2
 4011 0d3f C4       		.byte	0xc4
 4012 0d40 B8010000 		.4byte	.LFB122
 4013 0d44 4C000000 		.4byte	.LFE122-.LFB122
 4014 0d48 01       		.uleb128 0x1
 4015 0d49 9C       		.byte	0x9c
 4016 0d4a 850D0000 		.4byte	0xd85
 4017 0d4e 1E       		.uleb128 0x1e
 4018 0d4f 75647000 		.ascii	"udp\000"
 4019 0d53 02       		.byte	0x2
 4020 0d54 C4       		.byte	0xc4
 4021 0d55 870C0000 		.4byte	0xc87
 4022 0d59 02       		.uleb128 0x2
 4023 0d5a 91       		.byte	0x91
 4024 0d5b 74       		.sleb128 -12
 4025 0d5c 1E       		.uleb128 0x1e
 4026 0d5d 62756600 		.ascii	"buf\000"
 4027 0d61 02       		.byte	0x2
 4028 0d62 C5       		.byte	0xc5
 4029 0d63 B5040000 		.4byte	0x4b5
 4030 0d67 02       		.uleb128 0x2
 4031 0d68 91       		.byte	0x91
 4032 0d69 70       		.sleb128 -16
 4033 0d6a 1E       		.uleb128 0x1e
 4034 0d6b 6E00     		.ascii	"n\000"
 4035 0d6d 02       		.byte	0x2
 4036 0d6e C6       		.byte	0xc6
 4037 0d6f 28000000 		.4byte	0x28
 4038 0d73 02       		.uleb128 0x2
ARM GAS  /tmp/ccaZEb87.s 			page 72


 4039 0d74 91       		.byte	0x91
 4040 0d75 6C       		.sleb128 -20
 4041 0d76 23       		.uleb128 0x23
 4042 0d77 74070000 		.4byte	.LASF191
 4043 0d7b 02       		.byte	0x2
 4044 0d7c C7       		.byte	0xc7
 4045 0d7d 8D0C0000 		.4byte	0xc8d
 4046 0d81 02       		.uleb128 0x2
 4047 0d82 91       		.byte	0x91
 4048 0d83 7C       		.sleb128 -4
 4049 0d84 00       		.byte	0
 4050 0d85 24       		.uleb128 0x24
 4051 0d86 36060000 		.4byte	.LASF194
 4052 0d8a 02       		.byte	0x2
 4053 0d8b DE       		.byte	0xde
 4054 0d8c 04020000 		.4byte	.LFB123
 4055 0d90 0C010000 		.4byte	.LFE123-.LFB123
 4056 0d94 01       		.uleb128 0x1
 4057 0d95 9C       		.byte	0x9c
 4058 0d96 2C0E0000 		.4byte	0xe2c
 4059 0d9a 1E       		.uleb128 0x1e
 4060 0d9b 75647000 		.ascii	"udp\000"
 4061 0d9f 02       		.byte	0x2
 4062 0da0 DE       		.byte	0xde
 4063 0da1 870C0000 		.4byte	0xc87
 4064 0da5 02       		.uleb128 0x2
 4065 0da6 91       		.byte	0x91
 4066 0da7 64       		.sleb128 -28
 4067 0da8 1E       		.uleb128 0x1e
 4068 0da9 6F717000 		.ascii	"oqp\000"
 4069 0dad 02       		.byte	0x2
 4070 0dae DF       		.byte	0xdf
 4071 0daf 4A090000 		.4byte	0x94a
 4072 0db3 02       		.uleb128 0x2
 4073 0db4 91       		.byte	0x91
 4074 0db5 60       		.sleb128 -32
 4075 0db6 1E       		.uleb128 0x1e
 4076 0db7 6E00     		.ascii	"n\000"
 4077 0db9 02       		.byte	0x2
 4078 0dba DF       		.byte	0xdf
 4079 0dbb 28000000 		.4byte	0x28
 4080 0dbf 02       		.uleb128 0x2
 4081 0dc0 91       		.byte	0x91
 4082 0dc1 5C       		.sleb128 -36
 4083 0dc2 1F       		.uleb128 0x1f
 4084 0dc3 6E687700 		.ascii	"nhw\000"
 4085 0dc7 02       		.byte	0x2
 4086 0dc8 E0       		.byte	0xe0
 4087 0dc9 28000000 		.4byte	0x28
 4088 0dcd 02       		.uleb128 0x2
 4089 0dce 91       		.byte	0x91
 4090 0dcf 74       		.sleb128 -12
 4091 0dd0 23       		.uleb128 0x23
 4092 0dd1 74070000 		.4byte	.LASF191
 4093 0dd5 02       		.byte	0x2
 4094 0dd6 E1       		.byte	0xe1
 4095 0dd7 8D0C0000 		.4byte	0xc8d
ARM GAS  /tmp/ccaZEb87.s 			page 73


 4096 0ddb 02       		.uleb128 0x2
 4097 0ddc 91       		.byte	0x91
 4098 0ddd 70       		.sleb128 -16
 4099 0dde 25       		.uleb128 0x25
 4100 0ddf 2E020000 		.4byte	.LBB5
 4101 0de3 5A000000 		.4byte	.LBE5-.LBB5
 4102 0de7 F80D0000 		.4byte	0xdf8
 4103 0deb 1F       		.uleb128 0x1f
 4104 0dec 7700     		.ascii	"w\000"
 4105 0dee 02       		.byte	0x2
 4106 0def E6       		.byte	0xe6
 4107 0df0 E5000000 		.4byte	0xe5
 4108 0df4 02       		.uleb128 0x2
 4109 0df5 91       		.byte	0x91
 4110 0df6 6C       		.sleb128 -20
 4111 0df7 00       		.byte	0
 4112 0df8 25       		.uleb128 0x25
 4113 0df9 BE020000 		.4byte	.LBB6
 4114 0dfd 06000000 		.4byte	.LBE6-.LBB6
 4115 0e01 130E0000 		.4byte	0xe13
 4116 0e05 1F       		.uleb128 0x1f
 4117 0e06 746D7000 		.ascii	"tmp\000"
 4118 0e0a 02       		.byte	0x2
 4119 0e0b FC       		.byte	0xfc
 4120 0e0c E5000000 		.4byte	0xe5
 4121 0e10 01       		.uleb128 0x1
 4122 0e11 53       		.byte	0x53
 4123 0e12 00       		.byte	0
 4124 0e13 26       		.uleb128 0x26
 4125 0e14 FE020000 		.4byte	.LBB7
 4126 0e18 06000000 		.4byte	.LBE7-.LBB7
 4127 0e1c 27       		.uleb128 0x27
 4128 0e1d 746D7000 		.ascii	"tmp\000"
 4129 0e21 02       		.byte	0x2
 4130 0e22 0401     		.2byte	0x104
 4131 0e24 E5000000 		.4byte	0xe5
 4132 0e28 01       		.uleb128 0x1
 4133 0e29 53       		.byte	0x53
 4134 0e2a 00       		.byte	0
 4135 0e2b 00       		.byte	0
 4136 0e2c 28       		.uleb128 0x28
 4137 0e2d DA080000 		.4byte	.LASF198
 4138 0e31 02       		.byte	0x2
 4139 0e32 1401     		.2byte	0x114
 4140 0e34 10030000 		.4byte	.LFB124
 4141 0e38 10000000 		.4byte	.LFE124-.LFB124
 4142 0e3c 01       		.uleb128 0x1
 4143 0e3d 9C       		.byte	0x9c
 4144 0e3e 29       		.uleb128 0x29
 4145 0e3f 17090000 		.4byte	.LASF200
 4146 0e43 02       		.byte	0x2
 4147 0e44 2301     		.2byte	0x123
 4148 0e46 20030000 		.4byte	.LFB125
 4149 0e4a A8030000 		.4byte	.LFE125-.LFB125
 4150 0e4e 01       		.uleb128 0x1
 4151 0e4f 9C       		.byte	0x9c
 4152 0e50 3D0F0000 		.4byte	0xf3d
ARM GAS  /tmp/ccaZEb87.s 			page 74


 4153 0e54 2A       		.uleb128 0x2a
 4154 0e55 64010000 		.4byte	.LASF195
 4155 0e59 02       		.byte	0x2
 4156 0e5a 2401     		.2byte	0x124
 4157 0e5c E5000000 		.4byte	0xe5
 4158 0e60 02       		.uleb128 0x2
 4159 0e61 91       		.byte	0x91
 4160 0e62 74       		.sleb128 -12
 4161 0e63 2A       		.uleb128 0x2a
 4162 0e64 B1040000 		.4byte	.LASF184
 4163 0e68 02       		.byte	0x2
 4164 0e69 2501     		.2byte	0x125
 4165 0e6b AC070000 		.4byte	0x7ac
 4166 0e6f 02       		.uleb128 0x2
 4167 0e70 91       		.byte	0x91
 4168 0e71 6C       		.sleb128 -20
 4169 0e72 25       		.uleb128 0x25
 4170 0e73 9E030000 		.4byte	.LBB8
 4171 0e77 3A000000 		.4byte	.LBE8-.LBB8
 4172 0e7b 8F0E0000 		.4byte	0xe8f
 4173 0e7f 27       		.uleb128 0x27
 4174 0e80 666E7200 		.ascii	"fnr\000"
 4175 0e84 02       		.byte	0x2
 4176 0e85 3E01     		.2byte	0x13e
 4177 0e87 E5000000 		.4byte	0xe5
 4178 0e8b 02       		.uleb128 0x2
 4179 0e8c 91       		.byte	0x91
 4180 0e8d 68       		.sleb128 -24
 4181 0e8e 00       		.byte	0
 4182 0e8f 26       		.uleb128 0x26
 4183 0e90 00040000 		.4byte	.LBB9
 4184 0e94 A8020000 		.4byte	.LBE9-.LBB9
 4185 0e98 27       		.uleb128 0x27
 4186 0e99 6E00     		.ascii	"n\000"
 4187 0e9b 02       		.byte	0x2
 4188 0e9c 5501     		.2byte	0x155
 4189 0e9e 28000000 		.4byte	0x28
 4190 0ea2 02       		.uleb128 0x2
 4191 0ea3 91       		.byte	0x91
 4192 0ea4 70       		.sleb128 -16
 4193 0ea5 27       		.uleb128 0x27
 4194 0ea6 657000   		.ascii	"ep\000"
 4195 0ea9 02       		.byte	0x2
 4196 0eaa 5601     		.2byte	0x156
 4197 0eac E5000000 		.4byte	0xe5
 4198 0eb0 02       		.uleb128 0x2
 4199 0eb1 91       		.byte	0x91
 4200 0eb2 64       		.sleb128 -28
 4201 0eb3 27       		.uleb128 0x27
 4202 0eb4 65707200 		.ascii	"epr\000"
 4203 0eb8 02       		.byte	0x2
 4204 0eb9 5701     		.2byte	0x157
 4205 0ebb E5000000 		.4byte	0xe5
 4206 0ebf 02       		.uleb128 0x2
 4207 0ec0 91       		.byte	0x91
 4208 0ec1 60       		.sleb128 -32
 4209 0ec2 2A       		.uleb128 0x2a
ARM GAS  /tmp/ccaZEb87.s 			page 75


 4210 0ec3 0D0A0000 		.4byte	.LASF196
 4211 0ec7 02       		.byte	0x2
 4212 0ec8 5801     		.2byte	0x158
 4213 0eca 4F0B0000 		.4byte	0xb4f
 4214 0ece 02       		.uleb128 0x2
 4215 0ecf 91       		.byte	0x91
 4216 0ed0 5C       		.sleb128 -36
 4217 0ed1 25       		.uleb128 0x25
 4218 0ed2 2C040000 		.4byte	.LBB10
 4219 0ed6 2C010000 		.4byte	.LBE10-.LBB10
 4220 0eda 220F0000 		.4byte	0xf22
 4221 0ede 2A       		.uleb128 0x2a
 4222 0edf F4030000 		.4byte	.LASF197
 4223 0ee3 02       		.byte	0x2
 4224 0ee4 5B01     		.2byte	0x15b
 4225 0ee6 28000000 		.4byte	0x28
 4226 0eea 02       		.uleb128 0x2
 4227 0eeb 91       		.byte	0x91
 4228 0eec 58       		.sleb128 -40
 4229 0eed 25       		.uleb128 0x25
 4230 0eee FE040000 		.4byte	.LBB11
 4231 0ef2 06000000 		.4byte	.LBE11-.LBB11
 4232 0ef6 090F0000 		.4byte	0xf09
 4233 0efa 27       		.uleb128 0x27
 4234 0efb 746D7000 		.ascii	"tmp\000"
 4235 0eff 02       		.byte	0x2
 4236 0f00 7101     		.2byte	0x171
 4237 0f02 E5000000 		.4byte	0xe5
 4238 0f06 01       		.uleb128 0x1
 4239 0f07 53       		.byte	0x53
 4240 0f08 00       		.byte	0
 4241 0f09 26       		.uleb128 0x26
 4242 0f0a 18050000 		.4byte	.LBB12
 4243 0f0e 06000000 		.4byte	.LBE12-.LBB12
 4244 0f12 27       		.uleb128 0x27
 4245 0f13 746D7000 		.ascii	"tmp\000"
 4246 0f17 02       		.byte	0x2
 4247 0f18 7301     		.2byte	0x173
 4248 0f1a E5000000 		.4byte	0xe5
 4249 0f1e 01       		.uleb128 0x1
 4250 0f1f 53       		.byte	0x53
 4251 0f20 00       		.byte	0
 4252 0f21 00       		.byte	0
 4253 0f22 26       		.uleb128 0x26
 4254 0f23 A8050000 		.4byte	.LBB13
 4255 0f27 FA000000 		.4byte	.LBE13-.LBB13
 4256 0f2b 27       		.uleb128 0x27
 4257 0f2c 75647000 		.ascii	"udp\000"
 4258 0f30 02       		.byte	0x2
 4259 0f31 8301     		.2byte	0x183
 4260 0f33 870C0000 		.4byte	0xc87
 4261 0f37 02       		.uleb128 0x2
 4262 0f38 91       		.byte	0x91
 4263 0f39 54       		.sleb128 -44
 4264 0f3a 00       		.byte	0
 4265 0f3b 00       		.byte	0
 4266 0f3c 00       		.byte	0
ARM GAS  /tmp/ccaZEb87.s 			page 76


 4267 0f3d 28       		.uleb128 0x28
 4268 0f3e 5F060000 		.4byte	.LASF199
 4269 0f42 02       		.byte	0x2
 4270 0f43 B201     		.2byte	0x1b2
 4271 0f45 C8060000 		.4byte	.LFB126
 4272 0f49 10000000 		.4byte	.LFE126-.LFB126
 4273 0f4d 01       		.uleb128 0x1
 4274 0f4e 9C       		.byte	0x9c
 4275 0f4f 29       		.uleb128 0x29
 4276 0f50 02090000 		.4byte	.LASF201
 4277 0f54 02       		.byte	0x2
 4278 0f55 BF01     		.2byte	0x1bf
 4279 0f57 D8060000 		.4byte	.LFB127
 4280 0f5b 58000000 		.4byte	.LFE127-.LFB127
 4281 0f5f 01       		.uleb128 0x1
 4282 0f60 9C       		.byte	0x9c
 4283 0f61 750F0000 		.4byte	0xf75
 4284 0f65 2B       		.uleb128 0x2b
 4285 0f66 B1040000 		.4byte	.LASF184
 4286 0f6a 02       		.byte	0x2
 4287 0f6b BF01     		.2byte	0x1bf
 4288 0f6d AC070000 		.4byte	0x7ac
 4289 0f71 02       		.uleb128 0x2
 4290 0f72 91       		.byte	0x91
 4291 0f73 74       		.sleb128 -12
 4292 0f74 00       		.byte	0
 4293 0f75 29       		.uleb128 0x29
 4294 0f76 33000000 		.4byte	.LASF202
 4295 0f7a 02       		.byte	0x2
 4296 0f7b E001     		.2byte	0x1e0
 4297 0f7d 30070000 		.4byte	.LFB128
 4298 0f81 48000000 		.4byte	.LFE128-.LFB128
 4299 0f85 01       		.uleb128 0x1
 4300 0f86 9C       		.byte	0x9c
 4301 0f87 9B0F0000 		.4byte	0xf9b
 4302 0f8b 2B       		.uleb128 0x2b
 4303 0f8c B1040000 		.4byte	.LASF184
 4304 0f90 02       		.byte	0x2
 4305 0f91 E001     		.2byte	0x1e0
 4306 0f93 AC070000 		.4byte	0x7ac
 4307 0f97 02       		.uleb128 0x2
 4308 0f98 91       		.byte	0x91
 4309 0f99 74       		.sleb128 -12
 4310 0f9a 00       		.byte	0
 4311 0f9b 29       		.uleb128 0x29
 4312 0f9c 12070000 		.4byte	.LASF203
 4313 0fa0 02       		.byte	0x2
 4314 0fa1 F601     		.2byte	0x1f6
 4315 0fa3 78070000 		.4byte	.LFB129
 4316 0fa7 58000000 		.4byte	.LFE129-.LFB129
 4317 0fab 01       		.uleb128 0x1
 4318 0fac 9C       		.byte	0x9c
 4319 0fad D00F0000 		.4byte	0xfd0
 4320 0fb1 2B       		.uleb128 0x2b
 4321 0fb2 B1040000 		.4byte	.LASF184
 4322 0fb6 02       		.byte	0x2
 4323 0fb7 F601     		.2byte	0x1f6
ARM GAS  /tmp/ccaZEb87.s 			page 77


 4324 0fb9 AC070000 		.4byte	0x7ac
 4325 0fbd 02       		.uleb128 0x2
 4326 0fbe 91       		.byte	0x91
 4327 0fbf 6C       		.sleb128 -20
 4328 0fc0 2A       		.uleb128 0x2a
 4329 0fc1 FB000000 		.4byte	.LASF204
 4330 0fc5 02       		.byte	0x2
 4331 0fc6 F701     		.2byte	0x1f7
 4332 0fc8 E5000000 		.4byte	0xe5
 4333 0fcc 02       		.uleb128 0x2
 4334 0fcd 91       		.byte	0x91
 4335 0fce 74       		.sleb128 -12
 4336 0fcf 00       		.byte	0
 4337 0fd0 2C       		.uleb128 0x2c
 4338 0fd1 20070000 		.4byte	.LASF205
 4339 0fd5 02       		.byte	0x2
 4340 0fd6 1402     		.2byte	0x214
 4341 0fd8 D0070000 		.4byte	.LFB130
 4342 0fdc 1C000000 		.4byte	.LFE130-.LFB130
 4343 0fe0 01       		.uleb128 0x1
 4344 0fe1 9C       		.byte	0x9c
 4345 0fe2 F60F0000 		.4byte	0xff6
 4346 0fe6 2B       		.uleb128 0x2b
 4347 0fe7 B1040000 		.4byte	.LASF184
 4348 0feb 02       		.byte	0x2
 4349 0fec 1402     		.2byte	0x214
 4350 0fee AC070000 		.4byte	0x7ac
 4351 0ff2 02       		.uleb128 0x2
 4352 0ff3 91       		.byte	0x91
 4353 0ff4 7C       		.sleb128 -4
 4354 0ff5 00       		.byte	0
 4355 0ff6 29       		.uleb128 0x29
 4356 0ff7 E5000000 		.4byte	.LASF206
 4357 0ffb 02       		.byte	0x2
 4358 0ffc 2102     		.2byte	0x221
 4359 0ffe EC070000 		.4byte	.LFB131
 4360 1002 54010000 		.4byte	.LFE131-.LFB131
 4361 1006 01       		.uleb128 0x1
 4362 1007 9C       		.byte	0x9c
 4363 1008 65100000 		.4byte	0x1065
 4364 100c 2B       		.uleb128 0x2b
 4365 100d B1040000 		.4byte	.LASF184
 4366 1011 02       		.byte	0x2
 4367 1012 2102     		.2byte	0x221
 4368 1014 AC070000 		.4byte	0x7ac
 4369 1018 02       		.uleb128 0x2
 4370 1019 91       		.byte	0x91
 4371 101a 64       		.sleb128 -28
 4372 101b 2D       		.uleb128 0x2d
 4373 101c 657000   		.ascii	"ep\000"
 4374 101f 02       		.byte	0x2
 4375 1020 2102     		.2byte	0x221
 4376 1022 81060000 		.4byte	0x681
 4377 1026 02       		.uleb128 0x2
 4378 1027 91       		.byte	0x91
 4379 1028 63       		.sleb128 -29
 4380 1029 2A       		.uleb128 0x2a
ARM GAS  /tmp/ccaZEb87.s 			page 78


 4381 102a BD000000 		.4byte	.LASF207
 4382 102e 02       		.byte	0x2
 4383 102f 2202     		.2byte	0x222
 4384 1031 CF000000 		.4byte	0xcf
 4385 1035 02       		.uleb128 0x2
 4386 1036 91       		.byte	0x91
 4387 1037 76       		.sleb128 -10
 4388 1038 27       		.uleb128 0x27
 4389 1039 65707200 		.ascii	"epr\000"
 4390 103d 02       		.byte	0x2
 4391 103e 2202     		.2byte	0x222
 4392 1040 CF000000 		.4byte	0xcf
 4393 1044 02       		.uleb128 0x2
 4394 1045 91       		.byte	0x91
 4395 1046 74       		.sleb128 -12
 4396 1047 27       		.uleb128 0x27
 4397 1048 647000   		.ascii	"dp\000"
 4398 104b 02       		.byte	0x2
 4399 104c 2302     		.2byte	0x223
 4400 104e 870C0000 		.4byte	0xc87
 4401 1052 02       		.uleb128 0x2
 4402 1053 91       		.byte	0x91
 4403 1054 6C       		.sleb128 -20
 4404 1055 2A       		.uleb128 0x2a
 4405 1056 0D0A0000 		.4byte	.LASF196
 4406 105a 02       		.byte	0x2
 4407 105b 2402     		.2byte	0x224
 4408 105d 4F0B0000 		.4byte	0xb4f
 4409 1061 02       		.uleb128 0x2
 4410 1062 91       		.byte	0x91
 4411 1063 70       		.sleb128 -16
 4412 1064 00       		.byte	0
 4413 1065 29       		.uleb128 0x29
 4414 1066 C7070000 		.4byte	.LASF208
 4415 106a 02       		.byte	0x2
 4416 106b 5502     		.2byte	0x255
 4417 106d 40090000 		.4byte	.LFB132
 4418 1071 44000000 		.4byte	.LFE132-.LFB132
 4419 1075 01       		.uleb128 0x1
 4420 1076 9C       		.byte	0x9c
 4421 1077 98100000 		.4byte	0x1098
 4422 107b 2B       		.uleb128 0x2b
 4423 107c B1040000 		.4byte	.LASF184
 4424 1080 02       		.byte	0x2
 4425 1081 5502     		.2byte	0x255
 4426 1083 AC070000 		.4byte	0x7ac
 4427 1087 02       		.uleb128 0x2
 4428 1088 91       		.byte	0x91
 4429 1089 6C       		.sleb128 -20
 4430 108a 27       		.uleb128 0x27
 4431 108b 6900     		.ascii	"i\000"
 4432 108d 02       		.byte	0x2
 4433 108e 5602     		.2byte	0x256
 4434 1090 33000000 		.4byte	0x33
 4435 1094 02       		.uleb128 0x2
 4436 1095 91       		.byte	0x91
 4437 1096 74       		.sleb128 -12
ARM GAS  /tmp/ccaZEb87.s 			page 79


 4438 1097 00       		.byte	0
 4439 1098 2E       		.uleb128 0x2e
 4440 1099 E4080000 		.4byte	.LASF209
 4441 109d 02       		.byte	0x2
 4442 109e 6E02     		.2byte	0x26e
 4443 10a0 D9060000 		.4byte	0x6d9
 4444 10a4 84090000 		.4byte	.LFB133
 4445 10a8 38000000 		.4byte	.LFE133-.LFB133
 4446 10ac 01       		.uleb128 0x1
 4447 10ad 9C       		.byte	0x9c
 4448 10ae D0100000 		.4byte	0x10d0
 4449 10b2 2B       		.uleb128 0x2b
 4450 10b3 B1040000 		.4byte	.LASF184
 4451 10b7 02       		.byte	0x2
 4452 10b8 6E02     		.2byte	0x26e
 4453 10ba AC070000 		.4byte	0x7ac
 4454 10be 02       		.uleb128 0x2
 4455 10bf 91       		.byte	0x91
 4456 10c0 7C       		.sleb128 -4
 4457 10c1 2D       		.uleb128 0x2d
 4458 10c2 657000   		.ascii	"ep\000"
 4459 10c5 02       		.byte	0x2
 4460 10c6 6E02     		.2byte	0x26e
 4461 10c8 81060000 		.4byte	0x681
 4462 10cc 02       		.uleb128 0x2
 4463 10cd 91       		.byte	0x91
 4464 10ce 7B       		.sleb128 -5
 4465 10cf 00       		.byte	0
 4466 10d0 2E       		.uleb128 0x2e
 4467 10d1 8C000000 		.4byte	.LASF210
 4468 10d5 02       		.byte	0x2
 4469 10d6 8702     		.2byte	0x287
 4470 10d8 D9060000 		.4byte	0x6d9
 4471 10dc BC090000 		.4byte	.LFB134
 4472 10e0 38000000 		.4byte	.LFE134-.LFB134
 4473 10e4 01       		.uleb128 0x1
 4474 10e5 9C       		.byte	0x9c
 4475 10e6 08110000 		.4byte	0x1108
 4476 10ea 2B       		.uleb128 0x2b
 4477 10eb B1040000 		.4byte	.LASF184
 4478 10ef 02       		.byte	0x2
 4479 10f0 8702     		.2byte	0x287
 4480 10f2 AC070000 		.4byte	0x7ac
 4481 10f6 02       		.uleb128 0x2
 4482 10f7 91       		.byte	0x91
 4483 10f8 7C       		.sleb128 -4
 4484 10f9 2D       		.uleb128 0x2d
 4485 10fa 657000   		.ascii	"ep\000"
 4486 10fd 02       		.byte	0x2
 4487 10fe 8702     		.2byte	0x287
 4488 1100 81060000 		.4byte	0x681
 4489 1104 02       		.uleb128 0x2
 4490 1105 91       		.byte	0x91
 4491 1106 7B       		.sleb128 -5
 4492 1107 00       		.byte	0
 4493 1108 2C       		.uleb128 0x2c
 4494 1109 B9020000 		.4byte	.LASF211
ARM GAS  /tmp/ccaZEb87.s 			page 80


 4495 110d 02       		.byte	0x2
 4496 110e A202     		.2byte	0x2a2
 4497 1110 F4090000 		.4byte	.LFB135
 4498 1114 64000000 		.4byte	.LFE135-.LFB135
 4499 1118 01       		.uleb128 0x1
 4500 1119 9C       		.byte	0x9c
 4501 111a 76110000 		.4byte	0x1176
 4502 111e 2B       		.uleb128 0x2b
 4503 111f B1040000 		.4byte	.LASF184
 4504 1123 02       		.byte	0x2
 4505 1124 A202     		.2byte	0x2a2
 4506 1126 AC070000 		.4byte	0x7ac
 4507 112a 02       		.uleb128 0x2
 4508 112b 91       		.byte	0x91
 4509 112c 6C       		.sleb128 -20
 4510 112d 2D       		.uleb128 0x2d
 4511 112e 657000   		.ascii	"ep\000"
 4512 1131 02       		.byte	0x2
 4513 1132 A202     		.2byte	0x2a2
 4514 1134 81060000 		.4byte	0x681
 4515 1138 02       		.uleb128 0x2
 4516 1139 91       		.byte	0x91
 4517 113a 6B       		.sleb128 -21
 4518 113b 2D       		.uleb128 0x2d
 4519 113c 62756600 		.ascii	"buf\000"
 4520 1140 02       		.byte	0x2
 4521 1141 A202     		.2byte	0x2a2
 4522 1143 99040000 		.4byte	0x499
 4523 1147 02       		.uleb128 0x2
 4524 1148 91       		.byte	0x91
 4525 1149 64       		.sleb128 -28
 4526 114a 2A       		.uleb128 0x2a
 4527 114b 74070000 		.4byte	.LASF191
 4528 114f 02       		.byte	0x2
 4529 1150 A302     		.2byte	0x2a3
 4530 1152 8D0C0000 		.4byte	0xc8d
 4531 1156 02       		.uleb128 0x2
 4532 1157 91       		.byte	0x91
 4533 1158 7C       		.sleb128 -4
 4534 1159 27       		.uleb128 0x27
 4535 115a 75647000 		.ascii	"udp\000"
 4536 115e 02       		.byte	0x2
 4537 115f A402     		.2byte	0x2a4
 4538 1161 870C0000 		.4byte	0xc87
 4539 1165 02       		.uleb128 0x2
 4540 1166 91       		.byte	0x91
 4541 1167 74       		.sleb128 -12
 4542 1168 27       		.uleb128 0x27
 4543 1169 6E00     		.ascii	"n\000"
 4544 116b 02       		.byte	0x2
 4545 116c A502     		.2byte	0x2a5
 4546 116e E5000000 		.4byte	0xe5
 4547 1172 02       		.uleb128 0x2
 4548 1173 91       		.byte	0x91
 4549 1174 78       		.sleb128 -8
 4550 1175 00       		.byte	0
 4551 1176 2C       		.uleb128 0x2c
ARM GAS  /tmp/ccaZEb87.s 			page 81


 4552 1177 1A080000 		.4byte	.LASF212
 4553 117b 02       		.byte	0x2
 4554 117c B802     		.2byte	0x2b8
 4555 117e 580A0000 		.4byte	.LFB136
 4556 1182 62000000 		.4byte	.LFE136-.LFB136
 4557 1186 01       		.uleb128 0x1
 4558 1187 9C       		.byte	0x9c
 4559 1188 B9110000 		.4byte	0x11b9
 4560 118c 2B       		.uleb128 0x2b
 4561 118d B1040000 		.4byte	.LASF184
 4562 1191 02       		.byte	0x2
 4563 1192 B802     		.2byte	0x2b8
 4564 1194 AC070000 		.4byte	0x7ac
 4565 1198 02       		.uleb128 0x2
 4566 1199 91       		.byte	0x91
 4567 119a 74       		.sleb128 -12
 4568 119b 2D       		.uleb128 0x2d
 4569 119c 657000   		.ascii	"ep\000"
 4570 119f 02       		.byte	0x2
 4571 11a0 B802     		.2byte	0x2b8
 4572 11a2 81060000 		.4byte	0x681
 4573 11a6 02       		.uleb128 0x2
 4574 11a7 91       		.byte	0x91
 4575 11a8 73       		.sleb128 -13
 4576 11a9 27       		.uleb128 0x27
 4577 11aa 6F737000 		.ascii	"osp\000"
 4578 11ae 02       		.byte	0x2
 4579 11af B902     		.2byte	0x2b9
 4580 11b1 D90A0000 		.4byte	0xad9
 4581 11b5 02       		.uleb128 0x2
 4582 11b6 91       		.byte	0x91
 4583 11b7 7C       		.sleb128 -4
 4584 11b8 00       		.byte	0
 4585 11b9 29       		.uleb128 0x29
 4586 11ba 61000000 		.4byte	.LASF213
 4587 11be 02       		.byte	0x2
 4588 11bf CB02     		.2byte	0x2cb
 4589 11c1 BC0A0000 		.4byte	.LFB137
 4590 11c5 B0000000 		.4byte	.LFE137-.LFB137
 4591 11c9 01       		.uleb128 0x1
 4592 11ca 9C       		.byte	0x9c
 4593 11cb 09120000 		.4byte	0x1209
 4594 11cf 2B       		.uleb128 0x2b
 4595 11d0 B1040000 		.4byte	.LASF184
 4596 11d4 02       		.byte	0x2
 4597 11d5 CB02     		.2byte	0x2cb
 4598 11d7 AC070000 		.4byte	0x7ac
 4599 11db 02       		.uleb128 0x2
 4600 11dc 91       		.byte	0x91
 4601 11dd 6C       		.sleb128 -20
 4602 11de 2D       		.uleb128 0x2d
 4603 11df 657000   		.ascii	"ep\000"
 4604 11e2 02       		.byte	0x2
 4605 11e3 CB02     		.2byte	0x2cb
 4606 11e5 81060000 		.4byte	0x681
 4607 11e9 02       		.uleb128 0x2
 4608 11ea 91       		.byte	0x91
ARM GAS  /tmp/ccaZEb87.s 			page 82


 4609 11eb 6B       		.sleb128 -21
 4610 11ec 27       		.uleb128 0x27
 4611 11ed 6E00     		.ascii	"n\000"
 4612 11ef 02       		.byte	0x2
 4613 11f0 CC02     		.2byte	0x2cc
 4614 11f2 28000000 		.4byte	0x28
 4615 11f6 02       		.uleb128 0x2
 4616 11f7 91       		.byte	0x91
 4617 11f8 74       		.sleb128 -12
 4618 11f9 27       		.uleb128 0x27
 4619 11fa 69737000 		.ascii	"isp\000"
 4620 11fe 02       		.byte	0x2
 4621 11ff CD02     		.2byte	0x2cd
 4622 1201 D30A0000 		.4byte	0xad3
 4623 1205 02       		.uleb128 0x2
 4624 1206 91       		.byte	0x91
 4625 1207 70       		.sleb128 -16
 4626 1208 00       		.byte	0
 4627 1209 2C       		.uleb128 0x2c
 4628 120a A2060000 		.4byte	.LASF214
 4629 120e 02       		.byte	0x2
 4630 120f E402     		.2byte	0x2e4
 4631 1211 6C0B0000 		.4byte	.LFB138
 4632 1215 34000000 		.4byte	.LFE138-.LFB138
 4633 1219 01       		.uleb128 0x1
 4634 121a 9C       		.byte	0x9c
 4635 121b 3D120000 		.4byte	0x123d
 4636 121f 2B       		.uleb128 0x2b
 4637 1220 B1040000 		.4byte	.LASF184
 4638 1224 02       		.byte	0x2
 4639 1225 E402     		.2byte	0x2e4
 4640 1227 AC070000 		.4byte	0x7ac
 4641 122b 02       		.uleb128 0x2
 4642 122c 91       		.byte	0x91
 4643 122d 7C       		.sleb128 -4
 4644 122e 2D       		.uleb128 0x2d
 4645 122f 657000   		.ascii	"ep\000"
 4646 1232 02       		.byte	0x2
 4647 1233 E402     		.2byte	0x2e4
 4648 1235 81060000 		.4byte	0x681
 4649 1239 02       		.uleb128 0x2
 4650 123a 91       		.byte	0x91
 4651 123b 7B       		.sleb128 -5
 4652 123c 00       		.byte	0
 4653 123d 2C       		.uleb128 0x2c
 4654 123e 9A070000 		.4byte	.LASF215
 4655 1242 02       		.byte	0x2
 4656 1243 F302     		.2byte	0x2f3
 4657 1245 A00B0000 		.4byte	.LFB139
 4658 1249 34000000 		.4byte	.LFE139-.LFB139
 4659 124d 01       		.uleb128 0x1
 4660 124e 9C       		.byte	0x9c
 4661 124f 71120000 		.4byte	0x1271
 4662 1253 2B       		.uleb128 0x2b
 4663 1254 B1040000 		.4byte	.LASF184
 4664 1258 02       		.byte	0x2
 4665 1259 F302     		.2byte	0x2f3
ARM GAS  /tmp/ccaZEb87.s 			page 83


 4666 125b AC070000 		.4byte	0x7ac
 4667 125f 02       		.uleb128 0x2
 4668 1260 91       		.byte	0x91
 4669 1261 7C       		.sleb128 -4
 4670 1262 2D       		.uleb128 0x2d
 4671 1263 657000   		.ascii	"ep\000"
 4672 1266 02       		.byte	0x2
 4673 1267 F302     		.2byte	0x2f3
 4674 1269 81060000 		.4byte	0x681
 4675 126d 02       		.uleb128 0x2
 4676 126e 91       		.byte	0x91
 4677 126f 7B       		.sleb128 -5
 4678 1270 00       		.byte	0
 4679 1271 2C       		.uleb128 0x2c
 4680 1272 E3040000 		.4byte	.LASF216
 4681 1276 02       		.byte	0x2
 4682 1277 0203     		.2byte	0x302
 4683 1279 D40B0000 		.4byte	.LFB140
 4684 127d 34000000 		.4byte	.LFE140-.LFB140
 4685 1281 01       		.uleb128 0x1
 4686 1282 9C       		.byte	0x9c
 4687 1283 A5120000 		.4byte	0x12a5
 4688 1287 2B       		.uleb128 0x2b
 4689 1288 B1040000 		.4byte	.LASF184
 4690 128c 02       		.byte	0x2
 4691 128d 0203     		.2byte	0x302
 4692 128f AC070000 		.4byte	0x7ac
 4693 1293 02       		.uleb128 0x2
 4694 1294 91       		.byte	0x91
 4695 1295 7C       		.sleb128 -4
 4696 1296 2D       		.uleb128 0x2d
 4697 1297 657000   		.ascii	"ep\000"
 4698 129a 02       		.byte	0x2
 4699 129b 0203     		.2byte	0x302
 4700 129d 81060000 		.4byte	0x681
 4701 12a1 02       		.uleb128 0x2
 4702 12a2 91       		.byte	0x91
 4703 12a3 7B       		.sleb128 -5
 4704 12a4 00       		.byte	0
 4705 12a5 2C       		.uleb128 0x2c
 4706 12a6 8A060000 		.4byte	.LASF217
 4707 12aa 02       		.byte	0x2
 4708 12ab 1103     		.2byte	0x311
 4709 12ad 080C0000 		.4byte	.LFB141
 4710 12b1 34000000 		.4byte	.LFE141-.LFB141
 4711 12b5 01       		.uleb128 0x1
 4712 12b6 9C       		.byte	0x9c
 4713 12b7 D9120000 		.4byte	0x12d9
 4714 12bb 2B       		.uleb128 0x2b
 4715 12bc B1040000 		.4byte	.LASF184
 4716 12c0 02       		.byte	0x2
 4717 12c1 1103     		.2byte	0x311
 4718 12c3 AC070000 		.4byte	0x7ac
 4719 12c7 02       		.uleb128 0x2
 4720 12c8 91       		.byte	0x91
 4721 12c9 7C       		.sleb128 -4
 4722 12ca 2D       		.uleb128 0x2d
ARM GAS  /tmp/ccaZEb87.s 			page 84


 4723 12cb 657000   		.ascii	"ep\000"
 4724 12ce 02       		.byte	0x2
 4725 12cf 1103     		.2byte	0x311
 4726 12d1 81060000 		.4byte	0x681
 4727 12d5 02       		.uleb128 0x2
 4728 12d6 91       		.byte	0x91
 4729 12d7 7B       		.sleb128 -5
 4730 12d8 00       		.byte	0
 4731 12d9 2C       		.uleb128 0x2c
 4732 12da 7A000000 		.4byte	.LASF218
 4733 12de 02       		.byte	0x2
 4734 12df 2003     		.2byte	0x320
 4735 12e1 3C0C0000 		.4byte	.LFB142
 4736 12e5 48000000 		.4byte	.LFE142-.LFB142
 4737 12e9 01       		.uleb128 0x1
 4738 12ea 9C       		.byte	0x9c
 4739 12eb 0D130000 		.4byte	0x130d
 4740 12ef 2B       		.uleb128 0x2b
 4741 12f0 B1040000 		.4byte	.LASF184
 4742 12f4 02       		.byte	0x2
 4743 12f5 2003     		.2byte	0x320
 4744 12f7 AC070000 		.4byte	0x7ac
 4745 12fb 02       		.uleb128 0x2
 4746 12fc 91       		.byte	0x91
 4747 12fd 7C       		.sleb128 -4
 4748 12fe 2D       		.uleb128 0x2d
 4749 12ff 657000   		.ascii	"ep\000"
 4750 1302 02       		.byte	0x2
 4751 1303 2003     		.2byte	0x320
 4752 1305 81060000 		.4byte	0x681
 4753 1309 02       		.uleb128 0x2
 4754 130a 91       		.byte	0x91
 4755 130b 7B       		.sleb128 -5
 4756 130c 00       		.byte	0
 4757 130d 2C       		.uleb128 0x2c
 4758 130e 46090000 		.4byte	.LASF219
 4759 1312 02       		.byte	0x2
 4760 1313 3203     		.2byte	0x332
 4761 1315 840C0000 		.4byte	.LFB143
 4762 1319 44000000 		.4byte	.LFE143-.LFB143
 4763 131d 01       		.uleb128 0x1
 4764 131e 9C       		.byte	0x9c
 4765 131f 41130000 		.4byte	0x1341
 4766 1323 2B       		.uleb128 0x2b
 4767 1324 B1040000 		.4byte	.LASF184
 4768 1328 02       		.byte	0x2
 4769 1329 3203     		.2byte	0x332
 4770 132b AC070000 		.4byte	0x7ac
 4771 132f 02       		.uleb128 0x2
 4772 1330 91       		.byte	0x91
 4773 1331 7C       		.sleb128 -4
 4774 1332 2D       		.uleb128 0x2d
 4775 1333 657000   		.ascii	"ep\000"
 4776 1336 02       		.byte	0x2
 4777 1337 3203     		.2byte	0x332
 4778 1339 81060000 		.4byte	0x681
 4779 133d 02       		.uleb128 0x2
ARM GAS  /tmp/ccaZEb87.s 			page 85


 4780 133e 91       		.byte	0x91
 4781 133f 7B       		.sleb128 -5
 4782 1340 00       		.byte	0
 4783 1341 23       		.uleb128 0x23
 4784 1342 3E020000 		.4byte	.LASF220
 4785 1346 02       		.byte	0x2
 4786 1347 41       		.byte	0x41
 4787 1348 7A0B0000 		.4byte	0xb7a
 4788 134c 05       		.uleb128 0x5
 4789 134d 03       		.byte	0x3
 4790 134e 00000000 		.4byte	ep0_state
 4791 1352 23       		.uleb128 0x23
 4792 1353 AD000000 		.4byte	.LASF221
 4793 1357 02       		.byte	0x2
 4794 1358 46       		.byte	0x46
 4795 1359 6A0B0000 		.4byte	0xb6a
 4796 135d 05       		.uleb128 0x5
 4797 135e 03       		.byte	0x3
 4798 135f 14000000 		.4byte	ep0setup_buffer
 4799 1363 23       		.uleb128 0x23
 4800 1364 82020000 		.4byte	.LASF222
 4801 1368 02       		.byte	0x2
 4802 1369 4B       		.byte	0x4b
 4803 136a 550B0000 		.4byte	0xb55
 4804 136e 05       		.uleb128 0x5
 4805 136f 03       		.byte	0x3
 4806 1370 00000000 		.4byte	ep0config
 4807 1374 2F       		.uleb128 0x2f
 4808 1375 AC020000 		.4byte	.LASF223
 4809 1379 10       		.byte	0x10
 4810 137a E3       		.byte	0xe3
 4811 137b 5A010000 		.4byte	0x15a
 4812 137f 30       		.uleb128 0x30
 4813 1380 0D060000 		.4byte	.LASF224
 4814 1384 11       		.byte	0x11
 4815 1385 9806     		.2byte	0x698
 4816 1387 D5040000 		.4byte	0x4d5
 4817 138b 31       		.uleb128 0x31
 4818 138c 57090000 		.4byte	.LASF225
 4819 1390 02       		.byte	0x2
 4820 1391 2C       		.byte	0x2c
 4821 1392 98050000 		.4byte	0x598
 4822 1396 05       		.uleb128 0x5
 4823 1397 03       		.byte	0x3
 4824 1398 00000000 		.4byte	USBD1
 4825 139c 00       		.byte	0
 4826              		.section	.debug_abbrev,"",%progbits
 4827              	.Ldebug_abbrev0:
 4828 0000 01       		.uleb128 0x1
 4829 0001 11       		.uleb128 0x11
 4830 0002 01       		.byte	0x1
 4831 0003 25       		.uleb128 0x25
 4832 0004 0E       		.uleb128 0xe
 4833 0005 13       		.uleb128 0x13
 4834 0006 0B       		.uleb128 0xb
 4835 0007 03       		.uleb128 0x3
 4836 0008 0E       		.uleb128 0xe
ARM GAS  /tmp/ccaZEb87.s 			page 86


 4837 0009 11       		.uleb128 0x11
 4838 000a 01       		.uleb128 0x1
 4839 000b 12       		.uleb128 0x12
 4840 000c 06       		.uleb128 0x6
 4841 000d 10       		.uleb128 0x10
 4842 000e 17       		.uleb128 0x17
 4843 000f 00       		.byte	0
 4844 0010 00       		.byte	0
 4845 0011 02       		.uleb128 0x2
 4846 0012 24       		.uleb128 0x24
 4847 0013 00       		.byte	0
 4848 0014 0B       		.uleb128 0xb
 4849 0015 0B       		.uleb128 0xb
 4850 0016 3E       		.uleb128 0x3e
 4851 0017 0B       		.uleb128 0xb
 4852 0018 03       		.uleb128 0x3
 4853 0019 08       		.uleb128 0x8
 4854 001a 00       		.byte	0
 4855 001b 00       		.byte	0
 4856 001c 03       		.uleb128 0x3
 4857 001d 16       		.uleb128 0x16
 4858 001e 00       		.byte	0
 4859 001f 03       		.uleb128 0x3
 4860 0020 0E       		.uleb128 0xe
 4861 0021 3A       		.uleb128 0x3a
 4862 0022 0B       		.uleb128 0xb
 4863 0023 3B       		.uleb128 0x3b
 4864 0024 0B       		.uleb128 0xb
 4865 0025 49       		.uleb128 0x49
 4866 0026 13       		.uleb128 0x13
 4867 0027 00       		.byte	0
 4868 0028 00       		.byte	0
 4869 0029 04       		.uleb128 0x4
 4870 002a 24       		.uleb128 0x24
 4871 002b 00       		.byte	0
 4872 002c 0B       		.uleb128 0xb
 4873 002d 0B       		.uleb128 0xb
 4874 002e 3E       		.uleb128 0x3e
 4875 002f 0B       		.uleb128 0xb
 4876 0030 03       		.uleb128 0x3
 4877 0031 0E       		.uleb128 0xe
 4878 0032 00       		.byte	0
 4879 0033 00       		.byte	0
 4880 0034 05       		.uleb128 0x5
 4881 0035 0F       		.uleb128 0xf
 4882 0036 00       		.byte	0
 4883 0037 0B       		.uleb128 0xb
 4884 0038 0B       		.uleb128 0xb
 4885 0039 00       		.byte	0
 4886 003a 00       		.byte	0
 4887 003b 06       		.uleb128 0x6
 4888 003c 0F       		.uleb128 0xf
 4889 003d 00       		.byte	0
 4890 003e 0B       		.uleb128 0xb
 4891 003f 0B       		.uleb128 0xb
 4892 0040 49       		.uleb128 0x49
 4893 0041 13       		.uleb128 0x13
ARM GAS  /tmp/ccaZEb87.s 			page 87


 4894 0042 00       		.byte	0
 4895 0043 00       		.byte	0
 4896 0044 07       		.uleb128 0x7
 4897 0045 26       		.uleb128 0x26
 4898 0046 00       		.byte	0
 4899 0047 49       		.uleb128 0x49
 4900 0048 13       		.uleb128 0x13
 4901 0049 00       		.byte	0
 4902 004a 00       		.byte	0
 4903 004b 08       		.uleb128 0x8
 4904 004c 13       		.uleb128 0x13
 4905 004d 01       		.byte	0x1
 4906 004e 03       		.uleb128 0x3
 4907 004f 0E       		.uleb128 0xe
 4908 0050 0B       		.uleb128 0xb
 4909 0051 0B       		.uleb128 0xb
 4910 0052 3A       		.uleb128 0x3a
 4911 0053 0B       		.uleb128 0xb
 4912 0054 3B       		.uleb128 0x3b
 4913 0055 0B       		.uleb128 0xb
 4914 0056 01       		.uleb128 0x1
 4915 0057 13       		.uleb128 0x13
 4916 0058 00       		.byte	0
 4917 0059 00       		.byte	0
 4918 005a 09       		.uleb128 0x9
 4919 005b 0D       		.uleb128 0xd
 4920 005c 00       		.byte	0
 4921 005d 03       		.uleb128 0x3
 4922 005e 0E       		.uleb128 0xe
 4923 005f 3A       		.uleb128 0x3a
 4924 0060 0B       		.uleb128 0xb
 4925 0061 3B       		.uleb128 0x3b
 4926 0062 0B       		.uleb128 0xb
 4927 0063 49       		.uleb128 0x49
 4928 0064 13       		.uleb128 0x13
 4929 0065 38       		.uleb128 0x38
 4930 0066 0B       		.uleb128 0xb
 4931 0067 00       		.byte	0
 4932 0068 00       		.byte	0
 4933 0069 0A       		.uleb128 0xa
 4934 006a 0D       		.uleb128 0xd
 4935 006b 00       		.byte	0
 4936 006c 03       		.uleb128 0x3
 4937 006d 08       		.uleb128 0x8
 4938 006e 3A       		.uleb128 0x3a
 4939 006f 0B       		.uleb128 0xb
 4940 0070 3B       		.uleb128 0x3b
 4941 0071 0B       		.uleb128 0xb
 4942 0072 49       		.uleb128 0x49
 4943 0073 13       		.uleb128 0x13
 4944 0074 38       		.uleb128 0x38
 4945 0075 0B       		.uleb128 0xb
 4946 0076 00       		.byte	0
 4947 0077 00       		.byte	0
 4948 0078 0B       		.uleb128 0xb
 4949 0079 13       		.uleb128 0x13
 4950 007a 01       		.byte	0x1
ARM GAS  /tmp/ccaZEb87.s 			page 88


 4951 007b 0B       		.uleb128 0xb
 4952 007c 0B       		.uleb128 0xb
 4953 007d 3A       		.uleb128 0x3a
 4954 007e 0B       		.uleb128 0xb
 4955 007f 3B       		.uleb128 0x3b
 4956 0080 0B       		.uleb128 0xb
 4957 0081 01       		.uleb128 0x1
 4958 0082 13       		.uleb128 0x13
 4959 0083 00       		.byte	0
 4960 0084 00       		.byte	0
 4961 0085 0C       		.uleb128 0xc
 4962 0086 13       		.uleb128 0x13
 4963 0087 01       		.byte	0x1
 4964 0088 03       		.uleb128 0x3
 4965 0089 0E       		.uleb128 0xe
 4966 008a 0B       		.uleb128 0xb
 4967 008b 0B       		.uleb128 0xb
 4968 008c 3A       		.uleb128 0x3a
 4969 008d 0B       		.uleb128 0xb
 4970 008e 3B       		.uleb128 0x3b
 4971 008f 05       		.uleb128 0x5
 4972 0090 01       		.uleb128 0x1
 4973 0091 13       		.uleb128 0x13
 4974 0092 00       		.byte	0
 4975 0093 00       		.byte	0
 4976 0094 0D       		.uleb128 0xd
 4977 0095 0D       		.uleb128 0xd
 4978 0096 00       		.byte	0
 4979 0097 03       		.uleb128 0x3
 4980 0098 08       		.uleb128 0x8
 4981 0099 3A       		.uleb128 0x3a
 4982 009a 0B       		.uleb128 0xb
 4983 009b 3B       		.uleb128 0x3b
 4984 009c 05       		.uleb128 0x5
 4985 009d 49       		.uleb128 0x49
 4986 009e 13       		.uleb128 0x13
 4987 009f 38       		.uleb128 0x38
 4988 00a0 0B       		.uleb128 0xb
 4989 00a1 00       		.byte	0
 4990 00a2 00       		.byte	0
 4991 00a3 0E       		.uleb128 0xe
 4992 00a4 35       		.uleb128 0x35
 4993 00a5 00       		.byte	0
 4994 00a6 49       		.uleb128 0x49
 4995 00a7 13       		.uleb128 0x13
 4996 00a8 00       		.byte	0
 4997 00a9 00       		.byte	0
 4998 00aa 0F       		.uleb128 0xf
 4999 00ab 17       		.uleb128 0x17
 5000 00ac 01       		.byte	0x1
 5001 00ad 0B       		.uleb128 0xb
 5002 00ae 0B       		.uleb128 0xb
 5003 00af 3A       		.uleb128 0x3a
 5004 00b0 0B       		.uleb128 0xb
 5005 00b1 3B       		.uleb128 0x3b
 5006 00b2 0B       		.uleb128 0xb
 5007 00b3 01       		.uleb128 0x1
ARM GAS  /tmp/ccaZEb87.s 			page 89


 5008 00b4 13       		.uleb128 0x13
 5009 00b5 00       		.byte	0
 5010 00b6 00       		.byte	0
 5011 00b7 10       		.uleb128 0x10
 5012 00b8 0D       		.uleb128 0xd
 5013 00b9 00       		.byte	0
 5014 00ba 03       		.uleb128 0x3
 5015 00bb 0E       		.uleb128 0xe
 5016 00bc 3A       		.uleb128 0x3a
 5017 00bd 0B       		.uleb128 0xb
 5018 00be 3B       		.uleb128 0x3b
 5019 00bf 0B       		.uleb128 0xb
 5020 00c0 49       		.uleb128 0x49
 5021 00c1 13       		.uleb128 0x13
 5022 00c2 00       		.byte	0
 5023 00c3 00       		.byte	0
 5024 00c4 11       		.uleb128 0x11
 5025 00c5 15       		.uleb128 0x15
 5026 00c6 01       		.byte	0x1
 5027 00c7 27       		.uleb128 0x27
 5028 00c8 19       		.uleb128 0x19
 5029 00c9 01       		.uleb128 0x1
 5030 00ca 13       		.uleb128 0x13
 5031 00cb 00       		.byte	0
 5032 00cc 00       		.byte	0
 5033 00cd 12       		.uleb128 0x12
 5034 00ce 05       		.uleb128 0x5
 5035 00cf 00       		.byte	0
 5036 00d0 49       		.uleb128 0x49
 5037 00d1 13       		.uleb128 0x13
 5038 00d2 00       		.byte	0
 5039 00d3 00       		.byte	0
 5040 00d4 13       		.uleb128 0x13
 5041 00d5 01       		.uleb128 0x1
 5042 00d6 01       		.byte	0x1
 5043 00d7 49       		.uleb128 0x49
 5044 00d8 13       		.uleb128 0x13
 5045 00d9 01       		.uleb128 0x1
 5046 00da 13       		.uleb128 0x13
 5047 00db 00       		.byte	0
 5048 00dc 00       		.byte	0
 5049 00dd 14       		.uleb128 0x14
 5050 00de 21       		.uleb128 0x21
 5051 00df 00       		.byte	0
 5052 00e0 49       		.uleb128 0x49
 5053 00e1 13       		.uleb128 0x13
 5054 00e2 2F       		.uleb128 0x2f
 5055 00e3 0B       		.uleb128 0xb
 5056 00e4 00       		.byte	0
 5057 00e5 00       		.byte	0
 5058 00e6 15       		.uleb128 0x15
 5059 00e7 13       		.uleb128 0x13
 5060 00e8 01       		.byte	0x1
 5061 00e9 0B       		.uleb128 0xb
 5062 00ea 0B       		.uleb128 0xb
 5063 00eb 3A       		.uleb128 0x3a
 5064 00ec 0B       		.uleb128 0xb
ARM GAS  /tmp/ccaZEb87.s 			page 90


 5065 00ed 3B       		.uleb128 0x3b
 5066 00ee 05       		.uleb128 0x5
 5067 00ef 01       		.uleb128 0x1
 5068 00f0 13       		.uleb128 0x13
 5069 00f1 00       		.byte	0
 5070 00f2 00       		.byte	0
 5071 00f3 16       		.uleb128 0x16
 5072 00f4 0D       		.uleb128 0xd
 5073 00f5 00       		.byte	0
 5074 00f6 03       		.uleb128 0x3
 5075 00f7 0E       		.uleb128 0xe
 5076 00f8 3A       		.uleb128 0x3a
 5077 00f9 0B       		.uleb128 0xb
 5078 00fa 3B       		.uleb128 0x3b
 5079 00fb 05       		.uleb128 0x5
 5080 00fc 49       		.uleb128 0x49
 5081 00fd 13       		.uleb128 0x13
 5082 00fe 38       		.uleb128 0x38
 5083 00ff 0B       		.uleb128 0xb
 5084 0100 00       		.byte	0
 5085 0101 00       		.byte	0
 5086 0102 17       		.uleb128 0x17
 5087 0103 16       		.uleb128 0x16
 5088 0104 00       		.byte	0
 5089 0105 03       		.uleb128 0x3
 5090 0106 0E       		.uleb128 0xe
 5091 0107 3A       		.uleb128 0x3a
 5092 0108 0B       		.uleb128 0xb
 5093 0109 3B       		.uleb128 0x3b
 5094 010a 05       		.uleb128 0x5
 5095 010b 49       		.uleb128 0x49
 5096 010c 13       		.uleb128 0x13
 5097 010d 00       		.byte	0
 5098 010e 00       		.byte	0
 5099 010f 18       		.uleb128 0x18
 5100 0110 04       		.uleb128 0x4
 5101 0111 01       		.byte	0x1
 5102 0112 0B       		.uleb128 0xb
 5103 0113 0B       		.uleb128 0xb
 5104 0114 3A       		.uleb128 0x3a
 5105 0115 0B       		.uleb128 0xb
 5106 0116 3B       		.uleb128 0x3b
 5107 0117 0B       		.uleb128 0xb
 5108 0118 01       		.uleb128 0x1
 5109 0119 13       		.uleb128 0x13
 5110 011a 00       		.byte	0
 5111 011b 00       		.byte	0
 5112 011c 19       		.uleb128 0x19
 5113 011d 28       		.uleb128 0x28
 5114 011e 00       		.byte	0
 5115 011f 03       		.uleb128 0x3
 5116 0120 0E       		.uleb128 0xe
 5117 0121 1C       		.uleb128 0x1c
 5118 0122 0D       		.uleb128 0xd
 5119 0123 00       		.byte	0
 5120 0124 00       		.byte	0
 5121 0125 1A       		.uleb128 0x1a
ARM GAS  /tmp/ccaZEb87.s 			page 91


 5122 0126 04       		.uleb128 0x4
 5123 0127 01       		.byte	0x1
 5124 0128 0B       		.uleb128 0xb
 5125 0129 0B       		.uleb128 0xb
 5126 012a 3A       		.uleb128 0x3a
 5127 012b 0B       		.uleb128 0xb
 5128 012c 3B       		.uleb128 0x3b
 5129 012d 05       		.uleb128 0x5
 5130 012e 01       		.uleb128 0x1
 5131 012f 13       		.uleb128 0x13
 5132 0130 00       		.byte	0
 5133 0131 00       		.byte	0
 5134 0132 1B       		.uleb128 0x1b
 5135 0133 15       		.uleb128 0x15
 5136 0134 01       		.byte	0x1
 5137 0135 27       		.uleb128 0x27
 5138 0136 19       		.uleb128 0x19
 5139 0137 49       		.uleb128 0x49
 5140 0138 13       		.uleb128 0x13
 5141 0139 01       		.uleb128 0x1
 5142 013a 13       		.uleb128 0x13
 5143 013b 00       		.byte	0
 5144 013c 00       		.byte	0
 5145 013d 1C       		.uleb128 0x1c
 5146 013e 0D       		.uleb128 0xd
 5147 013f 00       		.byte	0
 5148 0140 03       		.uleb128 0x3
 5149 0141 08       		.uleb128 0x8
 5150 0142 3A       		.uleb128 0x3a
 5151 0143 0B       		.uleb128 0xb
 5152 0144 3B       		.uleb128 0x3b
 5153 0145 0B       		.uleb128 0xb
 5154 0146 49       		.uleb128 0x49
 5155 0147 13       		.uleb128 0x13
 5156 0148 00       		.byte	0
 5157 0149 00       		.byte	0
 5158 014a 1D       		.uleb128 0x1d
 5159 014b 2E       		.uleb128 0x2e
 5160 014c 01       		.byte	0x1
 5161 014d 03       		.uleb128 0x3
 5162 014e 0E       		.uleb128 0xe
 5163 014f 3A       		.uleb128 0x3a
 5164 0150 0B       		.uleb128 0xb
 5165 0151 3B       		.uleb128 0x3b
 5166 0152 0B       		.uleb128 0xb
 5167 0153 27       		.uleb128 0x27
 5168 0154 19       		.uleb128 0x19
 5169 0155 49       		.uleb128 0x49
 5170 0156 13       		.uleb128 0x13
 5171 0157 11       		.uleb128 0x11
 5172 0158 01       		.uleb128 0x1
 5173 0159 12       		.uleb128 0x12
 5174 015a 06       		.uleb128 0x6
 5175 015b 40       		.uleb128 0x40
 5176 015c 18       		.uleb128 0x18
 5177 015d 9742     		.uleb128 0x2117
 5178 015f 19       		.uleb128 0x19
ARM GAS  /tmp/ccaZEb87.s 			page 92


 5179 0160 01       		.uleb128 0x1
 5180 0161 13       		.uleb128 0x13
 5181 0162 00       		.byte	0
 5182 0163 00       		.byte	0
 5183 0164 1E       		.uleb128 0x1e
 5184 0165 05       		.uleb128 0x5
 5185 0166 00       		.byte	0
 5186 0167 03       		.uleb128 0x3
 5187 0168 08       		.uleb128 0x8
 5188 0169 3A       		.uleb128 0x3a
 5189 016a 0B       		.uleb128 0xb
 5190 016b 3B       		.uleb128 0x3b
 5191 016c 0B       		.uleb128 0xb
 5192 016d 49       		.uleb128 0x49
 5193 016e 13       		.uleb128 0x13
 5194 016f 02       		.uleb128 0x2
 5195 0170 18       		.uleb128 0x18
 5196 0171 00       		.byte	0
 5197 0172 00       		.byte	0
 5198 0173 1F       		.uleb128 0x1f
 5199 0174 34       		.uleb128 0x34
 5200 0175 00       		.byte	0
 5201 0176 03       		.uleb128 0x3
 5202 0177 08       		.uleb128 0x8
 5203 0178 3A       		.uleb128 0x3a
 5204 0179 0B       		.uleb128 0xb
 5205 017a 3B       		.uleb128 0x3b
 5206 017b 0B       		.uleb128 0xb
 5207 017c 49       		.uleb128 0x49
 5208 017d 13       		.uleb128 0x13
 5209 017e 02       		.uleb128 0x2
 5210 017f 18       		.uleb128 0x18
 5211 0180 00       		.byte	0
 5212 0181 00       		.byte	0
 5213 0182 20       		.uleb128 0x20
 5214 0183 2E       		.uleb128 0x2e
 5215 0184 01       		.byte	0x1
 5216 0185 03       		.uleb128 0x3
 5217 0186 0E       		.uleb128 0xe
 5218 0187 3A       		.uleb128 0x3a
 5219 0188 0B       		.uleb128 0xb
 5220 0189 3B       		.uleb128 0x3b
 5221 018a 0B       		.uleb128 0xb
 5222 018b 27       		.uleb128 0x27
 5223 018c 19       		.uleb128 0x19
 5224 018d 11       		.uleb128 0x11
 5225 018e 01       		.uleb128 0x1
 5226 018f 12       		.uleb128 0x12
 5227 0190 06       		.uleb128 0x6
 5228 0191 40       		.uleb128 0x40
 5229 0192 18       		.uleb128 0x18
 5230 0193 9742     		.uleb128 0x2117
 5231 0195 19       		.uleb128 0x19
 5232 0196 01       		.uleb128 0x1
 5233 0197 13       		.uleb128 0x13
 5234 0198 00       		.byte	0
 5235 0199 00       		.byte	0
ARM GAS  /tmp/ccaZEb87.s 			page 93


 5236 019a 21       		.uleb128 0x21
 5237 019b 05       		.uleb128 0x5
 5238 019c 00       		.byte	0
 5239 019d 03       		.uleb128 0x3
 5240 019e 0E       		.uleb128 0xe
 5241 019f 3A       		.uleb128 0x3a
 5242 01a0 0B       		.uleb128 0xb
 5243 01a1 3B       		.uleb128 0x3b
 5244 01a2 0B       		.uleb128 0xb
 5245 01a3 49       		.uleb128 0x49
 5246 01a4 13       		.uleb128 0x13
 5247 01a5 02       		.uleb128 0x2
 5248 01a6 18       		.uleb128 0x18
 5249 01a7 00       		.byte	0
 5250 01a8 00       		.byte	0
 5251 01a9 22       		.uleb128 0x22
 5252 01aa 2E       		.uleb128 0x2e
 5253 01ab 01       		.byte	0x1
 5254 01ac 03       		.uleb128 0x3
 5255 01ad 0E       		.uleb128 0xe
 5256 01ae 3A       		.uleb128 0x3a
 5257 01af 0B       		.uleb128 0xb
 5258 01b0 3B       		.uleb128 0x3b
 5259 01b1 0B       		.uleb128 0xb
 5260 01b2 27       		.uleb128 0x27
 5261 01b3 19       		.uleb128 0x19
 5262 01b4 49       		.uleb128 0x49
 5263 01b5 13       		.uleb128 0x13
 5264 01b6 11       		.uleb128 0x11
 5265 01b7 01       		.uleb128 0x1
 5266 01b8 12       		.uleb128 0x12
 5267 01b9 06       		.uleb128 0x6
 5268 01ba 40       		.uleb128 0x40
 5269 01bb 18       		.uleb128 0x18
 5270 01bc 9642     		.uleb128 0x2116
 5271 01be 19       		.uleb128 0x19
 5272 01bf 01       		.uleb128 0x1
 5273 01c0 13       		.uleb128 0x13
 5274 01c1 00       		.byte	0
 5275 01c2 00       		.byte	0
 5276 01c3 23       		.uleb128 0x23
 5277 01c4 34       		.uleb128 0x34
 5278 01c5 00       		.byte	0
 5279 01c6 03       		.uleb128 0x3
 5280 01c7 0E       		.uleb128 0xe
 5281 01c8 3A       		.uleb128 0x3a
 5282 01c9 0B       		.uleb128 0xb
 5283 01ca 3B       		.uleb128 0x3b
 5284 01cb 0B       		.uleb128 0xb
 5285 01cc 49       		.uleb128 0x49
 5286 01cd 13       		.uleb128 0x13
 5287 01ce 02       		.uleb128 0x2
 5288 01cf 18       		.uleb128 0x18
 5289 01d0 00       		.byte	0
 5290 01d1 00       		.byte	0
 5291 01d2 24       		.uleb128 0x24
 5292 01d3 2E       		.uleb128 0x2e
ARM GAS  /tmp/ccaZEb87.s 			page 94


 5293 01d4 01       		.byte	0x1
 5294 01d5 03       		.uleb128 0x3
 5295 01d6 0E       		.uleb128 0xe
 5296 01d7 3A       		.uleb128 0x3a
 5297 01d8 0B       		.uleb128 0xb
 5298 01d9 3B       		.uleb128 0x3b
 5299 01da 0B       		.uleb128 0xb
 5300 01db 27       		.uleb128 0x27
 5301 01dc 19       		.uleb128 0x19
 5302 01dd 11       		.uleb128 0x11
 5303 01de 01       		.uleb128 0x1
 5304 01df 12       		.uleb128 0x12
 5305 01e0 06       		.uleb128 0x6
 5306 01e1 40       		.uleb128 0x40
 5307 01e2 18       		.uleb128 0x18
 5308 01e3 9642     		.uleb128 0x2116
 5309 01e5 19       		.uleb128 0x19
 5310 01e6 01       		.uleb128 0x1
 5311 01e7 13       		.uleb128 0x13
 5312 01e8 00       		.byte	0
 5313 01e9 00       		.byte	0
 5314 01ea 25       		.uleb128 0x25
 5315 01eb 0B       		.uleb128 0xb
 5316 01ec 01       		.byte	0x1
 5317 01ed 11       		.uleb128 0x11
 5318 01ee 01       		.uleb128 0x1
 5319 01ef 12       		.uleb128 0x12
 5320 01f0 06       		.uleb128 0x6
 5321 01f1 01       		.uleb128 0x1
 5322 01f2 13       		.uleb128 0x13
 5323 01f3 00       		.byte	0
 5324 01f4 00       		.byte	0
 5325 01f5 26       		.uleb128 0x26
 5326 01f6 0B       		.uleb128 0xb
 5327 01f7 01       		.byte	0x1
 5328 01f8 11       		.uleb128 0x11
 5329 01f9 01       		.uleb128 0x1
 5330 01fa 12       		.uleb128 0x12
 5331 01fb 06       		.uleb128 0x6
 5332 01fc 00       		.byte	0
 5333 01fd 00       		.byte	0
 5334 01fe 27       		.uleb128 0x27
 5335 01ff 34       		.uleb128 0x34
 5336 0200 00       		.byte	0
 5337 0201 03       		.uleb128 0x3
 5338 0202 08       		.uleb128 0x8
 5339 0203 3A       		.uleb128 0x3a
 5340 0204 0B       		.uleb128 0xb
 5341 0205 3B       		.uleb128 0x3b
 5342 0206 05       		.uleb128 0x5
 5343 0207 49       		.uleb128 0x49
 5344 0208 13       		.uleb128 0x13
 5345 0209 02       		.uleb128 0x2
 5346 020a 18       		.uleb128 0x18
 5347 020b 00       		.byte	0
 5348 020c 00       		.byte	0
 5349 020d 28       		.uleb128 0x28
ARM GAS  /tmp/ccaZEb87.s 			page 95


 5350 020e 2E       		.uleb128 0x2e
 5351 020f 00       		.byte	0
 5352 0210 3F       		.uleb128 0x3f
 5353 0211 19       		.uleb128 0x19
 5354 0212 03       		.uleb128 0x3
 5355 0213 0E       		.uleb128 0xe
 5356 0214 3A       		.uleb128 0x3a
 5357 0215 0B       		.uleb128 0xb
 5358 0216 3B       		.uleb128 0x3b
 5359 0217 05       		.uleb128 0x5
 5360 0218 27       		.uleb128 0x27
 5361 0219 19       		.uleb128 0x19
 5362 021a 11       		.uleb128 0x11
 5363 021b 01       		.uleb128 0x1
 5364 021c 12       		.uleb128 0x12
 5365 021d 06       		.uleb128 0x6
 5366 021e 40       		.uleb128 0x40
 5367 021f 18       		.uleb128 0x18
 5368 0220 9642     		.uleb128 0x2116
 5369 0222 19       		.uleb128 0x19
 5370 0223 00       		.byte	0
 5371 0224 00       		.byte	0
 5372 0225 29       		.uleb128 0x29
 5373 0226 2E       		.uleb128 0x2e
 5374 0227 01       		.byte	0x1
 5375 0228 3F       		.uleb128 0x3f
 5376 0229 19       		.uleb128 0x19
 5377 022a 03       		.uleb128 0x3
 5378 022b 0E       		.uleb128 0xe
 5379 022c 3A       		.uleb128 0x3a
 5380 022d 0B       		.uleb128 0xb
 5381 022e 3B       		.uleb128 0x3b
 5382 022f 05       		.uleb128 0x5
 5383 0230 27       		.uleb128 0x27
 5384 0231 19       		.uleb128 0x19
 5385 0232 11       		.uleb128 0x11
 5386 0233 01       		.uleb128 0x1
 5387 0234 12       		.uleb128 0x12
 5388 0235 06       		.uleb128 0x6
 5389 0236 40       		.uleb128 0x40
 5390 0237 18       		.uleb128 0x18
 5391 0238 9642     		.uleb128 0x2116
 5392 023a 19       		.uleb128 0x19
 5393 023b 01       		.uleb128 0x1
 5394 023c 13       		.uleb128 0x13
 5395 023d 00       		.byte	0
 5396 023e 00       		.byte	0
 5397 023f 2A       		.uleb128 0x2a
 5398 0240 34       		.uleb128 0x34
 5399 0241 00       		.byte	0
 5400 0242 03       		.uleb128 0x3
 5401 0243 0E       		.uleb128 0xe
 5402 0244 3A       		.uleb128 0x3a
 5403 0245 0B       		.uleb128 0xb
 5404 0246 3B       		.uleb128 0x3b
 5405 0247 05       		.uleb128 0x5
 5406 0248 49       		.uleb128 0x49
ARM GAS  /tmp/ccaZEb87.s 			page 96


 5407 0249 13       		.uleb128 0x13
 5408 024a 02       		.uleb128 0x2
 5409 024b 18       		.uleb128 0x18
 5410 024c 00       		.byte	0
 5411 024d 00       		.byte	0
 5412 024e 2B       		.uleb128 0x2b
 5413 024f 05       		.uleb128 0x5
 5414 0250 00       		.byte	0
 5415 0251 03       		.uleb128 0x3
 5416 0252 0E       		.uleb128 0xe
 5417 0253 3A       		.uleb128 0x3a
 5418 0254 0B       		.uleb128 0xb
 5419 0255 3B       		.uleb128 0x3b
 5420 0256 05       		.uleb128 0x5
 5421 0257 49       		.uleb128 0x49
 5422 0258 13       		.uleb128 0x13
 5423 0259 02       		.uleb128 0x2
 5424 025a 18       		.uleb128 0x18
 5425 025b 00       		.byte	0
 5426 025c 00       		.byte	0
 5427 025d 2C       		.uleb128 0x2c
 5428 025e 2E       		.uleb128 0x2e
 5429 025f 01       		.byte	0x1
 5430 0260 3F       		.uleb128 0x3f
 5431 0261 19       		.uleb128 0x19
 5432 0262 03       		.uleb128 0x3
 5433 0263 0E       		.uleb128 0xe
 5434 0264 3A       		.uleb128 0x3a
 5435 0265 0B       		.uleb128 0xb
 5436 0266 3B       		.uleb128 0x3b
 5437 0267 05       		.uleb128 0x5
 5438 0268 27       		.uleb128 0x27
 5439 0269 19       		.uleb128 0x19
 5440 026a 11       		.uleb128 0x11
 5441 026b 01       		.uleb128 0x1
 5442 026c 12       		.uleb128 0x12
 5443 026d 06       		.uleb128 0x6
 5444 026e 40       		.uleb128 0x40
 5445 026f 18       		.uleb128 0x18
 5446 0270 9742     		.uleb128 0x2117
 5447 0272 19       		.uleb128 0x19
 5448 0273 01       		.uleb128 0x1
 5449 0274 13       		.uleb128 0x13
 5450 0275 00       		.byte	0
 5451 0276 00       		.byte	0
 5452 0277 2D       		.uleb128 0x2d
 5453 0278 05       		.uleb128 0x5
 5454 0279 00       		.byte	0
 5455 027a 03       		.uleb128 0x3
 5456 027b 08       		.uleb128 0x8
 5457 027c 3A       		.uleb128 0x3a
 5458 027d 0B       		.uleb128 0xb
 5459 027e 3B       		.uleb128 0x3b
 5460 027f 05       		.uleb128 0x5
 5461 0280 49       		.uleb128 0x49
 5462 0281 13       		.uleb128 0x13
 5463 0282 02       		.uleb128 0x2
ARM GAS  /tmp/ccaZEb87.s 			page 97


 5464 0283 18       		.uleb128 0x18
 5465 0284 00       		.byte	0
 5466 0285 00       		.byte	0
 5467 0286 2E       		.uleb128 0x2e
 5468 0287 2E       		.uleb128 0x2e
 5469 0288 01       		.byte	0x1
 5470 0289 3F       		.uleb128 0x3f
 5471 028a 19       		.uleb128 0x19
 5472 028b 03       		.uleb128 0x3
 5473 028c 0E       		.uleb128 0xe
 5474 028d 3A       		.uleb128 0x3a
 5475 028e 0B       		.uleb128 0xb
 5476 028f 3B       		.uleb128 0x3b
 5477 0290 05       		.uleb128 0x5
 5478 0291 27       		.uleb128 0x27
 5479 0292 19       		.uleb128 0x19
 5480 0293 49       		.uleb128 0x49
 5481 0294 13       		.uleb128 0x13
 5482 0295 11       		.uleb128 0x11
 5483 0296 01       		.uleb128 0x1
 5484 0297 12       		.uleb128 0x12
 5485 0298 06       		.uleb128 0x6
 5486 0299 40       		.uleb128 0x40
 5487 029a 18       		.uleb128 0x18
 5488 029b 9742     		.uleb128 0x2117
 5489 029d 19       		.uleb128 0x19
 5490 029e 01       		.uleb128 0x1
 5491 029f 13       		.uleb128 0x13
 5492 02a0 00       		.byte	0
 5493 02a1 00       		.byte	0
 5494 02a2 2F       		.uleb128 0x2f
 5495 02a3 34       		.uleb128 0x34
 5496 02a4 00       		.byte	0
 5497 02a5 03       		.uleb128 0x3
 5498 02a6 0E       		.uleb128 0xe
 5499 02a7 3A       		.uleb128 0x3a
 5500 02a8 0B       		.uleb128 0xb
 5501 02a9 3B       		.uleb128 0x3b
 5502 02aa 0B       		.uleb128 0xb
 5503 02ab 49       		.uleb128 0x49
 5504 02ac 13       		.uleb128 0x13
 5505 02ad 3F       		.uleb128 0x3f
 5506 02ae 19       		.uleb128 0x19
 5507 02af 3C       		.uleb128 0x3c
 5508 02b0 19       		.uleb128 0x19
 5509 02b1 00       		.byte	0
 5510 02b2 00       		.byte	0
 5511 02b3 30       		.uleb128 0x30
 5512 02b4 34       		.uleb128 0x34
 5513 02b5 00       		.byte	0
 5514 02b6 03       		.uleb128 0x3
 5515 02b7 0E       		.uleb128 0xe
 5516 02b8 3A       		.uleb128 0x3a
 5517 02b9 0B       		.uleb128 0xb
 5518 02ba 3B       		.uleb128 0x3b
 5519 02bb 05       		.uleb128 0x5
 5520 02bc 49       		.uleb128 0x49
ARM GAS  /tmp/ccaZEb87.s 			page 98


 5521 02bd 13       		.uleb128 0x13
 5522 02be 3F       		.uleb128 0x3f
 5523 02bf 19       		.uleb128 0x19
 5524 02c0 3C       		.uleb128 0x3c
 5525 02c1 19       		.uleb128 0x19
 5526 02c2 00       		.byte	0
 5527 02c3 00       		.byte	0
 5528 02c4 31       		.uleb128 0x31
 5529 02c5 34       		.uleb128 0x34
 5530 02c6 00       		.byte	0
 5531 02c7 03       		.uleb128 0x3
 5532 02c8 0E       		.uleb128 0xe
 5533 02c9 3A       		.uleb128 0x3a
 5534 02ca 0B       		.uleb128 0xb
 5535 02cb 3B       		.uleb128 0x3b
 5536 02cc 0B       		.uleb128 0xb
 5537 02cd 49       		.uleb128 0x49
 5538 02ce 13       		.uleb128 0x13
 5539 02cf 3F       		.uleb128 0x3f
 5540 02d0 19       		.uleb128 0x19
 5541 02d1 02       		.uleb128 0x2
 5542 02d2 18       		.uleb128 0x18
 5543 02d3 00       		.byte	0
 5544 02d4 00       		.byte	0
 5545 02d5 00       		.byte	0
 5546              		.section	.debug_aranges,"",%progbits
 5547 0000 1C000000 		.4byte	0x1c
 5548 0004 0200     		.2byte	0x2
 5549 0006 00000000 		.4byte	.Ldebug_info0
 5550 000a 04       		.byte	0x4
 5551 000b 00       		.byte	0
 5552 000c 0000     		.2byte	0
 5553 000e 0000     		.2byte	0
 5554 0010 00000000 		.4byte	.Ltext0
 5555 0014 C80C0000 		.4byte	.Letext0-.Ltext0
 5556 0018 00000000 		.4byte	0
 5557 001c 00000000 		.4byte	0
 5558              		.section	.debug_line,"",%progbits
 5559              	.Ldebug_line0:
 5560 0000 D6040000 		.section	.debug_str,"MS",%progbits,1
 5560      02001103 
 5560      00000201 
 5560      FB0E0D00 
 5560      01010101 
 5561              	.LASF192:
 5562 0000 7573625F 		.ascii	"usb_packet_read_to_queue\000"
 5562      7061636B 
 5562      65745F72 
 5562      6561645F 
 5562      746F5F71 
 5563              	.LASF2:
 5564 0019 73697A65 		.ascii	"size_t\000"
 5564      5F7400
 5565              	.LASF15:
 5566 0020 73697A65 		.ascii	"sizetype\000"
 5566      74797065 
 5566      00
ARM GAS  /tmp/ccaZEb87.s 			page 99


 5567              	.LASF30:
 5568 0029 73797374 		.ascii	"systime_t\000"
 5568      696D655F 
 5568      7400
 5569              	.LASF202:
 5570 0033 7573625F 		.ascii	"usb_lld_stop\000"
 5570      6C6C645F 
 5570      73746F70 
 5570      00
 5571              	.LASF36:
 5572 0040 705F6374 		.ascii	"p_ctx\000"
 5572      7800
 5573              	.LASF27:
 5574 0046 74707269 		.ascii	"tprio_t\000"
 5574      6F5F7400 
 5575              	.LASF46:
 5576 004e 705F6D73 		.ascii	"p_msgqueue\000"
 5576      67717565 
 5576      756500
 5577              	.LASF19:
 5578 0059 696E7433 		.ascii	"int32_t\000"
 5578      325F7400 
 5579              	.LASF213:
 5580 0061 7573625F 		.ascii	"usb_lld_prepare_transmit\000"
 5580      6C6C645F 
 5580      70726570 
 5580      6172655F 
 5580      7472616E 
 5581              	.LASF218:
 5582 007a 7573625F 		.ascii	"usb_lld_clear_out\000"
 5582      6C6C645F 
 5582      636C6561 
 5582      725F6F75 
 5582      7400
 5583              	.LASF210:
 5584 008c 7573625F 		.ascii	"usb_lld_get_status_in\000"
 5584      6C6C645F 
 5584      6765745F 
 5584      73746174 
 5584      75735F69 
 5585              	.LASF117:
 5586 00a2 5553425F 		.ascii	"USB_EP0_TX\000"
 5586      4550305F 
 5586      545800
 5587              	.LASF221:
 5588 00ad 65703073 		.ascii	"ep0setup_buffer\000"
 5588      65747570 
 5588      5F627566 
 5588      66657200 
 5589              	.LASF207:
 5590 00bd 6E626C6F 		.ascii	"nblocks\000"
 5590      636B7300 
 5591              	.LASF91:
 5592 00c5 636F6E66 		.ascii	"config\000"
 5592      696700
 5593              	.LASF90:
 5594 00cc 73746174 		.ascii	"state\000"
ARM GAS  /tmp/ccaZEb87.s 			page 100


 5594      6500
 5595              	.LASF168:
 5596 00d2 65705F6D 		.ascii	"ep_mode\000"
 5596      6F646500 
 5597              	.LASF110:
 5598 00da 5553425F 		.ascii	"USB_ACTIVE\000"
 5598      41435449 
 5598      564500
 5599              	.LASF206:
 5600 00e5 7573625F 		.ascii	"usb_lld_init_endpoint\000"
 5600      6C6C645F 
 5600      696E6974 
 5600      5F656E64 
 5600      706F696E 
 5601              	.LASF204:
 5602 00fb 636E7472 		.ascii	"cntr\000"
 5602      00
 5603              	.LASF60:
 5604 0100 6D5F6F77 		.ascii	"m_owner\000"
 5604      6E657200 
 5605              	.LASF63:
 5606 0108 65786974 		.ascii	"exitcode\000"
 5606      636F6465 
 5606      00
 5607              	.LASF123:
 5608 0111 75736265 		.ascii	"usbep0state_t\000"
 5608      70307374 
 5608      6174655F 
 5608      7400
 5609              	.LASF3:
 5610 011f 5F5F7569 		.ascii	"__uint8_t\000"
 5610      6E74385F 
 5610      7400
 5611              	.LASF70:
 5612 0129 715F746F 		.ascii	"q_top\000"
 5612      7000
 5613              	.LASF144:
 5614 012f 73746D33 		.ascii	"stm32_usb_t\000"
 5614      325F7573 
 5614      625F7400 
 5615              	.LASF115:
 5616 013b 75736265 		.ascii	"usbepstatus_t\000"
 5616      70737461 
 5616      7475735F 
 5616      7400
 5617              	.LASF69:
 5618 0149 715F6275 		.ascii	"q_buffer\000"
 5618      66666572 
 5618      00
 5619              	.LASF125:
 5620 0152 5553425F 		.ascii	"USB_EVENT_ADDRESS\000"
 5620      4556454E 
 5620      545F4144 
 5620      44524553 
 5620      5300
 5621              	.LASF195:
 5622 0164 69737472 		.ascii	"istr\000"
ARM GAS  /tmp/ccaZEb87.s 			page 101


 5622      00
 5623              	.LASF73:
 5624 0169 715F6E6F 		.ascii	"q_notify\000"
 5624      74696679 
 5624      00
 5625              	.LASF37:
 5626 0172 705F6E65 		.ascii	"p_newer\000"
 5626      77657200 
 5627              	.LASF9:
 5628 017a 6C6F6E67 		.ascii	"long int\000"
 5628      20696E74 
 5628      00
 5629              	.LASF33:
 5630 0183 705F6E65 		.ascii	"p_next\000"
 5630      787400
 5631              	.LASF72:
 5632 018a 715F7264 		.ascii	"q_rdptr\000"
 5632      70747200 
 5633              	.LASF34:
 5634 0192 705F7072 		.ascii	"p_prev\000"
 5634      657600
 5635              	.LASF25:
 5636 0199 74737461 		.ascii	"tstate_t\000"
 5636      74655F74 
 5636      00
 5637              	.LASF173:
 5638 01a2 6F75745F 		.ascii	"out_maxsize\000"
 5638      6D617873 
 5638      697A6500 
 5639              	.LASF49:
 5640 01ae 705F6D74 		.ascii	"p_mtxlist\000"
 5640      786C6973 
 5640      7400
 5641              	.LASF152:
 5642 01b8 74786275 		.ascii	"txbuf\000"
 5642      6600
 5643              	.LASF54:
 5644 01be 72656761 		.ascii	"regarm_t\000"
 5644      726D5F74 
 5644      00
 5645              	.LASF116:
 5646 01c7 5553425F 		.ascii	"USB_EP0_WAITING_SETUP\000"
 5646      4550305F 
 5646      57414954 
 5646      494E475F 
 5646      53455455 
 5647              	.LASF82:
 5648 01dd 41504232 		.ascii	"APB2ENR\000"
 5648      454E5200 
 5649              	.LASF1:
 5650 01e5 7369676E 		.ascii	"signed char\000"
 5650      65642063 
 5650      68617200 
 5651              	.LASF65:
 5652 01f1 65776D61 		.ascii	"ewmask\000"
 5652      736B00
 5653              	.LASF17:
ARM GAS  /tmp/ccaZEb87.s 			page 102


 5654 01f8 75696E74 		.ascii	"uint8_t\000"
 5654      385F7400 
 5655              	.LASF129:
 5656 0200 5553425F 		.ascii	"USB_EVENT_STALLED\000"
 5656      4556454E 
 5656      545F5354 
 5656      414C4C45 
 5656      4400
 5657              	.LASF114:
 5658 0212 45505F53 		.ascii	"EP_STATUS_ACTIVE\000"
 5658      54415455 
 5658      535F4143 
 5658      54495645 
 5658      00
 5659              	.LASF29:
 5660 0223 6576656E 		.ascii	"eventmask_t\000"
 5660      746D6173 
 5660      6B5F7400 
 5661              	.LASF57:
 5662 022f 636F6E74 		.ascii	"context\000"
 5662      65787400 
 5663              	.LASF164:
 5664 0237 72787369 		.ascii	"rxsize\000"
 5664      7A6500
 5665              	.LASF220:
 5666 023e 6570305F 		.ascii	"ep0_state\000"
 5666      73746174 
 5666      6500
 5667              	.LASF4:
 5668 0248 756E7369 		.ascii	"unsigned char\000"
 5668      676E6564 
 5668      20636861 
 5668      7200
 5669              	.LASF122:
 5670 0256 5553425F 		.ascii	"USB_EP0_ERROR\000"
 5670      4550305F 
 5670      4552524F 
 5670      5200
 5671              	.LASF74:
 5672 0264 715F6C69 		.ascii	"q_link\000"
 5672      6E6B00
 5673              	.LASF151:
 5674 026b 73746D33 		.ascii	"stm32_usb_descriptor_t\000"
 5674      325F7573 
 5674      625F6465 
 5674      73637269 
 5674      70746F72 
 5675              	.LASF222:
 5676 0282 65703063 		.ascii	"ep0config\000"
 5676      6F6E6669 
 5676      6700
 5677              	.LASF96:
 5678 028c 65703073 		.ascii	"ep0state\000"
 5678      74617465 
 5678      00
 5679              	.LASF181:
 5680 0295 72657175 		.ascii	"requests_hook_cb\000"
ARM GAS  /tmp/ccaZEb87.s 			page 103


 5680      65737473 
 5680      5F686F6F 
 5680      6B5F6362 
 5680      00
 5681              	.LASF23:
 5682 02a6 5F426F6F 		.ascii	"_Bool\000"
 5682      6C00
 5683              	.LASF223:
 5684 02ac 6462675F 		.ascii	"dbg_lock_cnt\000"
 5684      6C6F636B 
 5684      5F636E74 
 5684      00
 5685              	.LASF211:
 5686 02b9 7573625F 		.ascii	"usb_lld_read_setup\000"
 5686      6C6C645F 
 5686      72656164 
 5686      5F736574 
 5686      757000
 5687              	.LASF16:
 5688 02cc 63686172 		.ascii	"char\000"
 5688      00
 5689              	.LASF98:
 5690 02d1 6570306E 		.ascii	"ep0n\000"
 5690      00
 5691              	.LASF35:
 5692 02d6 705F7072 		.ascii	"p_prio\000"
 5692      696F00
 5693              	.LASF93:
 5694 02dd 72656365 		.ascii	"receiving\000"
 5694      6976696E 
 5694      6700
 5695              	.LASF6:
 5696 02e7 5F5F7569 		.ascii	"__uint16_t\000"
 5696      6E743136 
 5696      5F7400
 5697              	.LASF227:
 5698 02f2 2F6F7074 		.ascii	"/opt/R2P/core/ChibiOS_2.6.5/os/hal/platforms/STM32/"
 5698      2F523250 
 5698      2F636F72 
 5698      652F4368 
 5698      6962694F 
 5699 0325 55534276 		.ascii	"USBv1/usb_lld.c\000"
 5699      312F7573 
 5699      625F6C6C 
 5699      642E6300 
 5700              	.LASF66:
 5701 0335 47656E65 		.ascii	"GenericQueue\000"
 5701      72696351 
 5701      75657565 
 5701      00
 5702              	.LASF64:
 5703 0342 77746F62 		.ascii	"wtobjp\000"
 5703      6A7000
 5704              	.LASF169:
 5705 0349 73657475 		.ascii	"setup_cb\000"
 5705      705F6362 
 5705      00
ARM GAS  /tmp/ccaZEb87.s 			page 104


 5706              	.LASF132:
 5707 0352 75645F73 		.ascii	"ud_string\000"
 5707      7472696E 
 5707      6700
 5708              	.LASF170:
 5709 035c 696E5F63 		.ascii	"in_cb\000"
 5709      6200
 5710              	.LASF55:
 5711 0362 73746B61 		.ascii	"stkalign_t\000"
 5711      6C69676E 
 5711      5F7400
 5712              	.LASF77:
 5713 036d 4F757470 		.ascii	"OutputQueue\000"
 5713      75745175 
 5713      65756500 
 5714              	.LASF149:
 5715 0379 5258434F 		.ascii	"RXCOUNT0\000"
 5715      554E5430 
 5715      00
 5716              	.LASF150:
 5717 0382 5258434F 		.ascii	"RXCOUNT1\000"
 5717      554E5431 
 5717      00
 5718              	.LASF136:
 5719 038b 75736265 		.ascii	"usbeventcb_t\000"
 5719      76656E74 
 5719      63625F74 
 5719      00
 5720              	.LASF92:
 5721 0398 7472616E 		.ascii	"transmitting\000"
 5721      736D6974 
 5721      74696E67 
 5721      00
 5722              	.LASF160:
 5723 03a5 55534249 		.ascii	"USBInEndpointState\000"
 5723      6E456E64 
 5723      706F696E 
 5723      74537461 
 5723      746500
 5724              	.LASF84:
 5725 03b8 42444352 		.ascii	"BDCR\000"
 5725      00
 5726              	.LASF106:
 5727 03bd 5553425F 		.ascii	"USB_UNINIT\000"
 5727      554E494E 
 5727      495400
 5728              	.LASF31:
 5729 03c8 636E745F 		.ascii	"cnt_t\000"
 5729      7400
 5730              	.LASF133:
 5731 03ce 55534244 		.ascii	"USBDescriptor\000"
 5731      65736372 
 5731      6970746F 
 5731      7200
 5732              	.LASF100:
 5733 03dc 73657475 		.ascii	"setup\000"
 5733      7000
ARM GAS  /tmp/ccaZEb87.s 			page 105


 5734              	.LASF56:
 5735 03e2 696E7463 		.ascii	"intctx\000"
 5735      747800
 5736              	.LASF48:
 5737 03e9 705F6570 		.ascii	"p_epending\000"
 5737      656E6469 
 5737      6E6700
 5738              	.LASF197:
 5739 03f4 7472616E 		.ascii	"transmitted\000"
 5739      736D6974 
 5739      74656400 
 5740              	.LASF130:
 5741 0400 75736265 		.ascii	"usbevent_t\000"
 5741      76656E74 
 5741      5F7400
 5742              	.LASF131:
 5743 040b 75645F73 		.ascii	"ud_size\000"
 5743      697A6500 
 5744              	.LASF78:
 5745 0413 43464752 		.ascii	"CFGR\000"
 5745      00
 5746              	.LASF109:
 5747 0418 5553425F 		.ascii	"USB_SELECTED\000"
 5747      53454C45 
 5747      43544544 
 5747      00
 5748              	.LASF103:
 5749 0425 636F6E66 		.ascii	"configuration\000"
 5749      69677572 
 5749      6174696F 
 5749      6E00
 5750              	.LASF190:
 5751 0433 7573625F 		.ascii	"usb_packet_read_to_buffer\000"
 5751      7061636B 
 5751      65745F72 
 5751      6561645F 
 5751      746F5F62 
 5752              	.LASF113:
 5753 044d 45505F53 		.ascii	"EP_STATUS_STALLED\000"
 5753      54415455 
 5753      535F5354 
 5753      414C4C45 
 5753      4400
 5754              	.LASF158:
 5755 045f 7478636E 		.ascii	"txcnt\000"
 5755      7400
 5756              	.LASF68:
 5757 0465 715F636F 		.ascii	"q_counter\000"
 5757      756E7465 
 5757      7200
 5758              	.LASF13:
 5759 046f 5F5F7569 		.ascii	"__uint64_t\000"
 5759      6E743634 
 5759      5F7400
 5760              	.LASF148:
 5761 047a 52584144 		.ascii	"RXADDR0\000"
 5761      44523000 
ARM GAS  /tmp/ccaZEb87.s 			page 106


 5762              	.LASF11:
 5763 0482 6C6F6E67 		.ascii	"long unsigned int\000"
 5763      20756E73 
 5763      69676E65 
 5763      6420696E 
 5763      7400
 5764              	.LASF140:
 5765 0494 434E5452 		.ascii	"CNTR\000"
 5765      00
 5766              	.LASF101:
 5767 0499 73746174 		.ascii	"status\000"
 5767      757300
 5768              	.LASF102:
 5769 04a0 61646472 		.ascii	"address\000"
 5769      65737300 
 5770              	.LASF99:
 5771 04a8 65703065 		.ascii	"ep0endcb\000"
 5771      6E646362 
 5771      00
 5772              	.LASF184:
 5773 04b1 75736270 		.ascii	"usbp\000"
 5773      00
 5774              	.LASF71:
 5775 04b6 715F7772 		.ascii	"q_wrptr\000"
 5775      70747200 
 5776              	.LASF157:
 5777 04be 74787369 		.ascii	"txsize\000"
 5777      7A6500
 5778              	.LASF141:
 5779 04c5 49535452 		.ascii	"ISTR\000"
 5779      00
 5780              	.LASF165:
 5781 04ca 7278636E 		.ascii	"rxcnt\000"
 5781      7400
 5782              	.LASF111:
 5783 04d0 75736273 		.ascii	"usbstate_t\000"
 5783      74617465 
 5783      5F7400
 5784              	.LASF85:
 5785 04db 41484252 		.ascii	"AHBRSTR\000"
 5785      53545200 
 5786              	.LASF216:
 5787 04e3 7573625F 		.ascii	"usb_lld_stall_out\000"
 5787      6C6C645F 
 5787      7374616C 
 5787      6C5F6F75 
 5787      7400
 5788              	.LASF161:
 5789 04f5 72786275 		.ascii	"rxbuf\000"
 5789      6600
 5790              	.LASF174:
 5791 04fb 696E5F73 		.ascii	"in_state\000"
 5791      74617465 
 5791      00
 5792              	.LASF128:
 5793 0504 5553425F 		.ascii	"USB_EVENT_WAKEUP\000"
 5793      4556454E 
ARM GAS  /tmp/ccaZEb87.s 			page 107


 5793      545F5741 
 5793      4B455550 
 5793      00
 5794              	.LASF10:
 5795 0515 5F5F7569 		.ascii	"__uint32_t\000"
 5795      6E743332 
 5795      5F7400
 5796              	.LASF179:
 5797 0520 6576656E 		.ascii	"event_cb\000"
 5797      745F6362 
 5797      00
 5798              	.LASF58:
 5799 0529 4D757465 		.ascii	"Mutex\000"
 5799      7800
 5800              	.LASF12:
 5801 052f 6C6F6E67 		.ascii	"long long int\000"
 5801      206C6F6E 
 5801      6720696E 
 5801      7400
 5802              	.LASF108:
 5803 053d 5553425F 		.ascii	"USB_READY\000"
 5803      52454144 
 5803      5900
 5804              	.LASF59:
 5805 0547 6D5F7175 		.ascii	"m_queue\000"
 5805      65756500 
 5806              	.LASF145:
 5807 054f 54584144 		.ascii	"TXADDR0\000"
 5807      44523000 
 5808              	.LASF97:
 5809 0557 6570306E 		.ascii	"ep0next\000"
 5809      65787400 
 5810              	.LASF79:
 5811 055f 41504232 		.ascii	"APB2RSTR\000"
 5811      52535452 
 5811      00
 5812              	.LASF226:
 5813 0568 474E5520 		.ascii	"GNU C 4.9.3 20141119 (release) [ARM/embedded-4_9-br"
 5813      4320342E 
 5813      392E3320 
 5813      32303134 
 5813      31313139 
 5814 059b 616E6368 		.ascii	"anch revision 218278] -mcpu=cortex-m4 -mno-thumb-in"
 5814      20726576 
 5814      6973696F 
 5814      6E203231 
 5814      38323738 
 5815 05ce 74657277 		.ascii	"terwork -mthumb -ggdb -O0 -fomit-frame-pointer\000"
 5815      6F726B20 
 5815      2D6D7468 
 5815      756D6220 
 5815      2D676764 
 5816              	.LASF135:
 5817 05fd 75736265 		.ascii	"usbepcallback_t\000"
 5817      7063616C 
 5817      6C626163 
 5817      6B5F7400 
ARM GAS  /tmp/ccaZEb87.s 			page 108


 5818              	.LASF224:
 5819 060d 49544D5F 		.ascii	"ITM_RxBuffer\000"
 5819      52784275 
 5819      66666572 
 5819      00
 5820              	.LASF75:
 5821 061a 716E6F74 		.ascii	"qnotify_t\000"
 5821      6966795F 
 5821      7400
 5822              	.LASF45:
 5823 0624 705F7761 		.ascii	"p_waiting\000"
 5823      6974696E 
 5823      6700
 5824              	.LASF42:
 5825 062e 705F666C 		.ascii	"p_flags\000"
 5825      61677300 
 5826              	.LASF194:
 5827 0636 7573625F 		.ascii	"usb_packet_write_from_queue\000"
 5827      7061636B 
 5827      65745F77 
 5827      72697465 
 5827      5F66726F 
 5828              	.LASF0:
 5829 0652 756E7369 		.ascii	"unsigned int\000"
 5829      676E6564 
 5829      20696E74 
 5829      00
 5830              	.LASF199:
 5831 065f 7573625F 		.ascii	"usb_lld_init\000"
 5831      6C6C645F 
 5831      696E6974 
 5831      00
 5832              	.LASF183:
 5833 066c 55534243 		.ascii	"USBConfig\000"
 5833      6F6E6669 
 5833      6700
 5834              	.LASF51:
 5835 0676 705F6D70 		.ascii	"p_mpool\000"
 5835      6F6F6C00 
 5836              	.LASF86:
 5837 067e 43464752 		.ascii	"CFGR2\000"
 5837      3200
 5838              	.LASF87:
 5839 0684 43464752 		.ascii	"CFGR3\000"
 5839      3300
 5840              	.LASF217:
 5841 068a 7573625F 		.ascii	"usb_lld_stall_in\000"
 5841      6C6C645F 
 5841      7374616C 
 5841      6C5F696E 
 5841      00
 5842              	.LASF43:
 5843 069b 705F7265 		.ascii	"p_refs\000"
 5843      667300
 5844              	.LASF214:
 5845 06a2 7573625F 		.ascii	"usb_lld_start_out\000"
 5845      6C6C645F 
ARM GAS  /tmp/ccaZEb87.s 			page 109


 5845      73746172 
 5845      745F6F75 
 5845      7400
 5846              	.LASF177:
 5847 06b4 73657475 		.ascii	"setup_buf\000"
 5847      705F6275 
 5847      6600
 5848              	.LASF146:
 5849 06be 5458434F 		.ascii	"TXCOUNT0\000"
 5849      554E5430 
 5849      00
 5850              	.LASF147:
 5851 06c7 5458434F 		.ascii	"TXCOUNT1\000"
 5851      554E5431 
 5851      00
 5852              	.LASF53:
 5853 06d0 54687265 		.ascii	"ThreadsList\000"
 5853      6164734C 
 5853      69737400 
 5854              	.LASF171:
 5855 06dc 6F75745F 		.ascii	"out_cb\000"
 5855      636200
 5856              	.LASF89:
 5857 06e3 55534244 		.ascii	"USBDriver\000"
 5857      72697665 
 5857      7200
 5858              	.LASF107:
 5859 06ed 5553425F 		.ascii	"USB_STOP\000"
 5859      53544F50 
 5859      00
 5860              	.LASF172:
 5861 06f6 696E5F6D 		.ascii	"in_maxsize\000"
 5861      61787369 
 5861      7A6500
 5862              	.LASF44:
 5863 0701 705F7469 		.ascii	"p_time\000"
 5863      6D6500
 5864              	.LASF175:
 5865 0708 6F75745F 		.ascii	"out_state\000"
 5865      73746174 
 5865      6500
 5866              	.LASF203:
 5867 0712 7573625F 		.ascii	"usb_lld_reset\000"
 5867      6C6C645F 
 5867      72657365 
 5867      7400
 5868              	.LASF205:
 5869 0720 7573625F 		.ascii	"usb_lld_set_address\000"
 5869      6C6C645F 
 5869      7365745F 
 5869      61646472 
 5869      65737300 
 5870              	.LASF176:
 5871 0734 65705F62 		.ascii	"ep_buffers\000"
 5871      75666665 
 5871      727300
 5872              	.LASF50:
ARM GAS  /tmp/ccaZEb87.s 			page 110


 5873 073f 705F7265 		.ascii	"p_realprio\000"
 5873      616C7072 
 5873      696F00
 5874              	.LASF118:
 5875 074a 5553425F 		.ascii	"USB_EP0_WAITING_TX0\000"
 5875      4550305F 
 5875      57414954 
 5875      494E475F 
 5875      54583000 
 5876              	.LASF189:
 5877 075e 7573625F 		.ascii	"usb_pm_reset\000"
 5877      706D5F72 
 5877      65736574 
 5877      00
 5878              	.LASF80:
 5879 076b 41504231 		.ascii	"APB1RSTR\000"
 5879      52535452 
 5879      00
 5880              	.LASF191:
 5881 0774 706D6170 		.ascii	"pmap\000"
 5881      00
 5882              	.LASF83:
 5883 0779 41504231 		.ascii	"APB1ENR\000"
 5883      454E5200 
 5884              	.LASF167:
 5885 0781 5553424F 		.ascii	"USBOutEndpointState\000"
 5885      7574456E 
 5885      64706F69 
 5885      6E745374 
 5885      61746500 
 5886              	.LASF139:
 5887 0795 5F723230 		.ascii	"_r20\000"
 5887      00
 5888              	.LASF215:
 5889 079a 7573625F 		.ascii	"usb_lld_start_in\000"
 5889      6C6C645F 
 5889      73746172 
 5889      745F696E 
 5889      00
 5890              	.LASF187:
 5891 07ab 73697A65 		.ascii	"size\000"
 5891      00
 5892              	.LASF14:
 5893 07b0 6C6F6E67 		.ascii	"long long unsigned int\000"
 5893      206C6F6E 
 5893      6720756E 
 5893      7369676E 
 5893      65642069 
 5894              	.LASF208:
 5895 07c7 7573625F 		.ascii	"usb_lld_disable_endpoints\000"
 5895      6C6C645F 
 5895      64697361 
 5895      626C655F 
 5895      656E6470 
 5896              	.LASF38:
 5897 07e1 705F6F6C 		.ascii	"p_older\000"
 5897      64657200 
ARM GAS  /tmp/ccaZEb87.s 			page 111


 5898              	.LASF18:
 5899 07e9 75696E74 		.ascii	"uint16_t\000"
 5899      31365F74 
 5899      00
 5900              	.LASF154:
 5901 07f2 6C696E65 		.ascii	"linear\000"
 5901      617200
 5902              	.LASF28:
 5903 07f9 6D73675F 		.ascii	"msg_t\000"
 5903      7400
 5904              	.LASF178:
 5905 07ff 55534245 		.ascii	"USBEndpointConfig\000"
 5905      6E64706F 
 5905      696E7443 
 5905      6F6E6669 
 5905      6700
 5906              	.LASF163:
 5907 0811 72787175 		.ascii	"rxqueued\000"
 5907      65756564 
 5907      00
 5908              	.LASF212:
 5909 081a 7573625F 		.ascii	"usb_lld_prepare_receive\000"
 5909      6C6C645F 
 5909      70726570 
 5909      6172655F 
 5909      72656365 
 5910              	.LASF155:
 5911 0832 71756575 		.ascii	"queue\000"
 5911      6500
 5912              	.LASF162:
 5913 0838 72787175 		.ascii	"rxqueue\000"
 5913      65756500 
 5914              	.LASF143:
 5915 0840 42544142 		.ascii	"BTABLE\000"
 5915      4C4500
 5916              	.LASF186:
 5917 0847 7573625F 		.ascii	"usb_pm_alloc\000"
 5917      706D5F61 
 5917      6C6C6F63 
 5917      00
 5918              	.LASF126:
 5919 0854 5553425F 		.ascii	"USB_EVENT_CONFIGURED\000"
 5919      4556454E 
 5919      545F434F 
 5919      4E464947 
 5919      55524544 
 5920              	.LASF67:
 5921 0869 715F7761 		.ascii	"q_waiting\000"
 5921      6974696E 
 5921      6700
 5922              	.LASF24:
 5923 0873 746D6F64 		.ascii	"tmode_t\000"
 5923      655F7400 
 5924              	.LASF138:
 5925 087b 75736267 		.ascii	"usbgetdescriptor_t\000"
 5925      65746465 
 5925      73637269 
ARM GAS  /tmp/ccaZEb87.s 			page 112


 5925      70746F72 
 5925      5F7400
 5926              	.LASF94:
 5927 088e 696E5F70 		.ascii	"in_params\000"
 5927      6172616D 
 5927      7300
 5928              	.LASF88:
 5929 0898 5243435F 		.ascii	"RCC_TypeDef\000"
 5929      54797065 
 5929      44656600 
 5930              	.LASF5:
 5931 08a4 73686F72 		.ascii	"short int\000"
 5931      7420696E 
 5931      7400
 5932              	.LASF21:
 5933 08ae 75696E74 		.ascii	"uint64_t\000"
 5933      36345F74 
 5933      00
 5934              	.LASF159:
 5935 08b7 6D6F6465 		.ascii	"mode\000"
 5935      00
 5936              	.LASF124:
 5937 08bc 5553425F 		.ascii	"USB_EVENT_RESET\000"
 5937      4556454E 
 5937      545F5245 
 5937      53455400 
 5938              	.LASF153:
 5939 08cc 74787175 		.ascii	"txqueue\000"
 5939      65756500 
 5940              	.LASF142:
 5941 08d4 44414444 		.ascii	"DADDR\000"
 5941      5200
 5942              	.LASF198:
 5943 08da 56656374 		.ascii	"Vector168\000"
 5943      6F723136 
 5943      3800
 5944              	.LASF209:
 5945 08e4 7573625F 		.ascii	"usb_lld_get_status_out\000"
 5945      6C6C645F 
 5945      6765745F 
 5945      73746174 
 5945      75735F6F 
 5946              	.LASF81:
 5947 08fb 41484245 		.ascii	"AHBENR\000"
 5947      4E5200
 5948              	.LASF201:
 5949 0902 7573625F 		.ascii	"usb_lld_start\000"
 5949      6C6C645F 
 5949      73746172 
 5949      7400
 5950              	.LASF22:
 5951 0910 626F6F6C 		.ascii	"bool_t\000"
 5951      5F7400
 5952              	.LASF200:
 5953 0917 56656374 		.ascii	"Vector16C\000"
 5953      6F723136 
 5953      4300
ARM GAS  /tmp/ccaZEb87.s 			page 113


 5954              	.LASF137:
 5955 0921 75736272 		.ascii	"usbreqhandler_t\000"
 5955      65716861 
 5955      6E646C65 
 5955      725F7400 
 5956              	.LASF134:
 5957 0931 75736263 		.ascii	"usbcallback_t\000"
 5957      616C6C62 
 5957      61636B5F 
 5957      7400
 5958              	.LASF32:
 5959 093f 54687265 		.ascii	"Thread\000"
 5959      616400
 5960              	.LASF219:
 5961 0946 7573625F 		.ascii	"usb_lld_clear_in\000"
 5961      6C6C645F 
 5961      636C6561 
 5961      725F696E 
 5961      00
 5962              	.LASF225:
 5963 0957 55534244 		.ascii	"USBD1\000"
 5963      3100
 5964              	.LASF26:
 5965 095d 74726566 		.ascii	"trefs_t\000"
 5965      735F7400 
 5966              	.LASF182:
 5967 0965 736F665F 		.ascii	"sof_cb\000"
 5967      636200
 5968              	.LASF20:
 5969 096c 75696E74 		.ascii	"uint32_t\000"
 5969      33325F74 
 5969      00
 5970              	.LASF105:
 5971 0975 75736265 		.ascii	"usbep_t\000"
 5971      705F7400 
 5972              	.LASF52:
 5973 097d 54687265 		.ascii	"ThreadsQueue\000"
 5973      61647351 
 5973      75657565 
 5973      00
 5974              	.LASF166:
 5975 098a 7278706B 		.ascii	"rxpkts\000"
 5975      747300
 5976              	.LASF127:
 5977 0991 5553425F 		.ascii	"USB_EVENT_SUSPEND\000"
 5977      4556454E 
 5977      545F5355 
 5977      5350454E 
 5977      4400
 5978              	.LASF62:
 5979 09a3 7264796D 		.ascii	"rdymsg\000"
 5979      736700
 5980              	.LASF7:
 5981 09aa 73686F72 		.ascii	"short unsigned int\000"
 5981      7420756E 
 5981      7369676E 
 5981      65642069 
ARM GAS  /tmp/ccaZEb87.s 			page 114


 5981      6E7400
 5982              	.LASF180:
 5983 09bd 6765745F 		.ascii	"get_descriptor_cb\000"
 5983      64657363 
 5983      72697074 
 5983      6F725F63 
 5983      6200
 5984              	.LASF76:
 5985 09cf 496E7075 		.ascii	"InputQueue\000"
 5985      74517565 
 5985      756500
 5986              	.LASF95:
 5987 09da 6F75745F 		.ascii	"out_params\000"
 5987      70617261 
 5987      6D7300
 5988              	.LASF40:
 5989 09e5 705F7374 		.ascii	"p_stklimit\000"
 5989      6B6C696D 
 5989      697400
 5990              	.LASF112:
 5991 09f0 45505F53 		.ascii	"EP_STATUS_DISABLED\000"
 5991      54415455 
 5991      535F4449 
 5991      5341424C 
 5991      454400
 5992              	.LASF8:
 5993 0a03 5F5F696E 		.ascii	"__int32_t\000"
 5993      7433325F 
 5993      7400
 5994              	.LASF196:
 5995 0a0d 65706370 		.ascii	"epcp\000"
 5995      00
 5996              	.LASF121:
 5997 0a12 5553425F 		.ascii	"USB_EP0_SENDING_STS\000"
 5997      4550305F 
 5997      53454E44 
 5997      494E475F 
 5997      53545300 
 5998              	.LASF193:
 5999 0a26 7573625F 		.ascii	"usb_packet_write_from_buffer\000"
 5999      7061636B 
 5999      65745F77 
 5999      72697465 
 5999      5F66726F 
 6000              	.LASF119:
 6001 0a43 5553425F 		.ascii	"USB_EP0_WAITING_STS\000"
 6001      4550305F 
 6001      57414954 
 6001      494E475F 
 6001      53545300 
 6002              	.LASF39:
 6003 0a57 705F6E61 		.ascii	"p_name\000"
 6003      6D6500
 6004              	.LASF188:
 6005 0a5e 6E657874 		.ascii	"next\000"
 6005      00
 6006              	.LASF61:
ARM GAS  /tmp/ccaZEb87.s 			page 115


 6007 0a63 6D5F6E65 		.ascii	"m_next\000"
 6007      787400
 6008              	.LASF185:
 6009 0a6a 6669666F 		.ascii	"fifo_remove\000"
 6009      5F72656D 
 6009      6F766500 
 6010              	.LASF104:
 6011 0a76 706D6E65 		.ascii	"pmnext\000"
 6011      787400
 6012              	.LASF156:
 6013 0a7d 74787175 		.ascii	"txqueued\000"
 6013      65756564 
 6013      00
 6014              	.LASF120:
 6015 0a86 5553425F 		.ascii	"USB_EP0_RX\000"
 6015      4550305F 
 6015      525800
 6016              	.LASF47:
 6017 0a91 705F6D73 		.ascii	"p_msg\000"
 6017      6700
 6018              	.LASF41:
 6019 0a97 705F7374 		.ascii	"p_state\000"
 6019      61746500 
 6020              		.ident	"GCC: (GNU Tools for ARM Embedded Processors) 4.9.3 20141119 (release) [ARM/embedded-4_9-br
ARM GAS  /tmp/ccaZEb87.s 			page 116


DEFINED SYMBOLS
                            *ABS*:00000000 usb_lld.c
     /tmp/ccaZEb87.s:18     .text:00000000 $t
     /tmp/ccaZEb87.s:22     .text:00000000 fifo_remove
                            *COM*:00000084 USBD1
     /tmp/ccaZEb87.s:59     .bss:00000000 $d
     /tmp/ccaZEb87.s:60     .bss:00000000 ep0_state
     /tmp/ccaZEb87.s:63     .bss:00000014 ep0setup_buffer
     /tmp/ccaZEb87.s:66     .rodata:00000000 $d
     /tmp/ccaZEb87.s:69     .rodata:00000000 ep0config
     /tmp/ccaZEb87.s:86     .text:00000024 usb_pm_reset
     /tmp/ccaZEb87.s:118    .text:00000034 usb_pm_alloc
     /tmp/ccaZEb87.s:162    .text:00000070 $d
     /tmp/ccaZEb87.s:166    .text:00000074 $t
     /tmp/ccaZEb87.s:170    .text:00000074 usb_packet_read_to_buffer
     /tmp/ccaZEb87.s:230    .text:000000bc usb_packet_read_to_queue
     /tmp/ccaZEb87.s:405    .text:000001b8 usb_packet_write_from_buffer
     /tmp/ccaZEb87.s:469    .text:00000204 usb_packet_write_from_queue
     /tmp/ccaZEb87.s:651    .text:0000030c $d
     /tmp/ccaZEb87.s:655    .text:00000310 $t
     /tmp/ccaZEb87.s:660    .text:00000310 Vector168
     /tmp/ccaZEb87.s:685    .text:00000320 Vector16C
     /tmp/ccaZEb87.s:2119   .text:00000ba0 usb_lld_start_in
     /tmp/ccaZEb87.s:1055   .text:000005a0 $d
     /tmp/ccaZEb87.s:1060   .text:000005a8 $t
     /tmp/ccaZEb87.s:1216   .text:000006c4 $d
     /tmp/ccaZEb87.s:1220   .text:000006c8 $t
     /tmp/ccaZEb87.s:1225   .text:000006c8 usb_lld_init
     /tmp/ccaZEb87.s:1243   .text:000006d4 $d
     /tmp/ccaZEb87.s:1247   .text:000006d8 $t
     /tmp/ccaZEb87.s:1252   .text:000006d8 usb_lld_start
     /tmp/ccaZEb87.s:1309   .text:00000724 $d
     /tmp/ccaZEb87.s:1315   .text:00000730 $t
     /tmp/ccaZEb87.s:1320   .text:00000730 usb_lld_stop
     /tmp/ccaZEb87.s:1367   .text:0000076c $d
     /tmp/ccaZEb87.s:1373   .text:00000778 $t
     /tmp/ccaZEb87.s:1378   .text:00000778 usb_lld_reset
     /tmp/ccaZEb87.s:1483   .text:000007ec usb_lld_init_endpoint
     /tmp/ccaZEb87.s:1439   .text:000007c8 $d
     /tmp/ccaZEb87.s:1444   .text:000007d0 $t
     /tmp/ccaZEb87.s:1449   .text:000007d0 usb_lld_set_address
     /tmp/ccaZEb87.s:1474   .text:000007e8 $d
     /tmp/ccaZEb87.s:1478   .text:000007ec $t
     /tmp/ccaZEb87.s:1659   .text:0000093c $d
     /tmp/ccaZEb87.s:1663   .text:00000940 $t
     /tmp/ccaZEb87.s:1668   .text:00000940 usb_lld_disable_endpoints
     /tmp/ccaZEb87.s:1717   .text:00000980 $d
     /tmp/ccaZEb87.s:1721   .text:00000984 $t
     /tmp/ccaZEb87.s:1726   .text:00000984 usb_lld_get_status_out
     /tmp/ccaZEb87.s:1769   .text:000009b8 $d
     /tmp/ccaZEb87.s:1773   .text:000009bc $t
     /tmp/ccaZEb87.s:1778   .text:000009bc usb_lld_get_status_in
     /tmp/ccaZEb87.s:1821   .text:000009f0 $d
     /tmp/ccaZEb87.s:1825   .text:000009f4 $t
     /tmp/ccaZEb87.s:1830   .text:000009f4 usb_lld_read_setup
     /tmp/ccaZEb87.s:1894   .text:00000a54 $d
     /tmp/ccaZEb87.s:1898   .text:00000a58 $t
ARM GAS  /tmp/ccaZEb87.s 			page 117


     /tmp/ccaZEb87.s:1903   .text:00000a58 usb_lld_prepare_receive
     /tmp/ccaZEb87.s:1974   .text:00000abc usb_lld_prepare_transmit
     /tmp/ccaZEb87.s:2071   .text:00000b68 $d
     /tmp/ccaZEb87.s:2075   .text:00000b6c $t
     /tmp/ccaZEb87.s:2080   .text:00000b6c usb_lld_start_out
     /tmp/ccaZEb87.s:2110   .text:00000b9c $d
     /tmp/ccaZEb87.s:2114   .text:00000ba0 $t
     /tmp/ccaZEb87.s:2149   .text:00000bd0 $d
     /tmp/ccaZEb87.s:2153   .text:00000bd4 $t
     /tmp/ccaZEb87.s:2158   .text:00000bd4 usb_lld_stall_out
     /tmp/ccaZEb87.s:2188   .text:00000c04 $d
     /tmp/ccaZEb87.s:2192   .text:00000c08 $t
     /tmp/ccaZEb87.s:2197   .text:00000c08 usb_lld_stall_in
     /tmp/ccaZEb87.s:2227   .text:00000c38 $d
     /tmp/ccaZEb87.s:2231   .text:00000c3c $t
     /tmp/ccaZEb87.s:2236   .text:00000c3c usb_lld_clear_out
     /tmp/ccaZEb87.s:2274   .text:00000c80 $d
     /tmp/ccaZEb87.s:2278   .text:00000c84 $t
     /tmp/ccaZEb87.s:2283   .text:00000c84 usb_lld_clear_in
     /tmp/ccaZEb87.s:2321   .text:00000cc4 $d
                     .debug_frame:00000010 $d

UNDEFINED SYMBOLS
_usb_ep0setup
_usb_ep0in
_usb_ep0out
chDbgPanic
dbg_check_lock_from_isr
chSchReadyI
dbg_check_unlock_from_isr
dbg_lock_cnt
dbg_check_enter_isr
dbg_check_leave_isr
_port_irq_epilogue
_usb_reset
usbObjectInit
nvicEnableVector
nvicDisableVector
