
build/fw.elf:     file format elf32-littlearm
build/fw.elf
architecture: arm, flags 0x00000112:
EXEC_P, HAS_SYMS, D_PAGED
start address 0x080001a0

Program Header:
0x70000001 off    0x000251d8 vaddr 0x0801d1d8 paddr 0x0801d1d8 align 2**2
         filesz 0x00000008 memsz 0x00000008 flags r--
    LOAD off    0x00008000 vaddr 0x08000000 paddr 0x08000000 align 2**15
         filesz 0x0001d250 memsz 0x0001d250 flags rwx
    LOAD off    0x00028800 vaddr 0x20000800 paddr 0x0801d250 align 2**15
         filesz 0x000008e8 memsz 0x00002c50 flags rw-
    LOAD off    0x0002b450 vaddr 0x20003450 paddr 0x0801db38 align 2**15
         filesz 0x00000008 memsz 0x00000008 flags rw-
    LOAD off    0x00030000 vaddr 0x20000000 paddr 0x20000000 align 2**15
         filesz 0x00000000 memsz 0x00000800 flags rw-
private flags = 5000202: [Version5 EABI] [soft-float ABI] [has entry point]

Sections:
Idx Name          Size      VMA       LMA       File off  Algn
  0 startup       00000188  08000000  08000000  00008000  2**4
                  CONTENTS, ALLOC, LOAD, DATA
  1 .text         0001d030  080001a0  080001a0  000081a0  2**5
                  CONTENTS, ALLOC, LOAD, READONLY, CODE
  2 constructors  00000008  0801d1d0  0801d1d0  000251d0  2**2
                  CONTENTS, ALLOC, LOAD, DATA
  3 .ARM.exidx    00000008  0801d1d8  0801d1d8  000251d8  2**2
                  CONTENTS, ALLOC, LOAD, READONLY, DATA
  4 .eh_frame     00000070  0801d1e0  0801d1e0  000251e0  2**2
                  CONTENTS, ALLOC, LOAD, READONLY, DATA
  5 .textalign    00000000  0801d250  0801d250  00025250  2**0
                  ALLOC
  6 .stacks       00000800  20000000  20000000  00030000  2**0
                  ALLOC
  7 .data         000008e8  20000800  0801d250  00028800  2**3
                  CONTENTS, ALLOC, LOAD, DATA
  8 .bss          00002368  200010e8  0801db38  000290e8  2**3
                  ALLOC
  9 .noreset      00000008  20003450  0801db38  0002b450  2**2
                  CONTENTS, ALLOC, LOAD, DATA
 10 .debug_info   0007d1c2  00000000  00000000  0002b458  2**0
                  CONTENTS, READONLY, DEBUGGING
 11 .debug_abbrev 0000f18a  00000000  00000000  000a861a  2**0
                  CONTENTS, READONLY, DEBUGGING
 12 .debug_aranges 000023c8  00000000  00000000  000b77a4  2**0
                  CONTENTS, READONLY, DEBUGGING
 13 .debug_line   0001736f  00000000  00000000  000b9b6c  2**0
                  CONTENTS, READONLY, DEBUGGING
 14 .debug_str    000130b8  00000000  00000000  000d0edb  2**0
                  CONTENTS, READONLY, DEBUGGING
 15 .comment      00000070  00000000  00000000  000e3f93  2**0
                  CONTENTS, READONLY
 16 .ARM.attributes 00000031  00000000  00000000  000e4003  2**0
                  CONTENTS, READONLY
 17 .debug_frame  0000a528  00000000  00000000  000e4034  2**2
                  CONTENTS, READONLY, DEBUGGING
 18 .debug_ranges 00001988  00000000  00000000  000ee55c  2**0
                  CONTENTS, READONLY, DEBUGGING
SYMBOL TABLE:
08000000 l    d  startup	00000000 startup
080001a0 l    d  .text	00000000 .text
0801d1d0 l    d  constructors	00000000 constructors
0801d1d8 l    d  .ARM.exidx	00000000 .ARM.exidx
0801d1e0 l    d  .eh_frame	00000000 .eh_frame
0801d250 l    d  .textalign	00000000 .textalign
20000000 l    d  .stacks	00000000 .stacks
20000800 l    d  .data	00000000 .data
200010e8 l    d  .bss	00000000 .bss
20003450 l    d  .noreset	00000000 .noreset
00000000 l    d  .debug_info	00000000 .debug_info
00000000 l    d  .debug_abbrev	00000000 .debug_abbrev
00000000 l    d  .debug_aranges	00000000 .debug_aranges
00000000 l    d  .debug_line	00000000 .debug_line
00000000 l    d  .debug_str	00000000 .debug_str
00000000 l    d  .comment	00000000 .comment
00000000 l    d  .ARM.attributes	00000000 .ARM.attributes
00000000 l    d  .debug_frame	00000000 .debug_frame
00000000 l    d  .debug_ranges	00000000 .debug_ranges
00000000 l    df *ABS*	00000000 vectors.c
00000000 l    df *ABS*	00000000 crt0.c
00000000 l    df *ABS*	00000000 chcore.c
00000000 l    df *ABS*	00000000 chcore_v7m.c
0800038c l       .text	00000000 _port_exit_from_isr
00000000 l    df *ABS*	00000000 nvic.c
00000000 l    df *ABS*	00000000 chsys.c
200010e8 l       .bss	00000000 mainthread.4867
00000000 l    df *ABS*	00000000 chdebug.c
00000000 l    df *ABS*	00000000 chlists.c
00000000 l    df *ABS*	00000000 chvt.c
00000000 l    df *ABS*	00000000 chschd.c
080009d0 l     F .text	00000022 fifo_remove
080009f4 l     F .text	00000020 dequeue
08000b18 l     F .text	00000096 wakeup
00000000 l    df *ABS*	00000000 chthreads.c
08000da0 l     F .text	00000018 list_insert
08000db8 l     F .text	0000001a list_remove
00000000 l    df *ABS*	00000000 chdynamic.c
00000000 l    df *ABS*	00000000 chregistry.c
00000000 l    df *ABS*	00000000 chsem.c
080014e0 l     F .text	00000028 queue_insert
08001508 l     F .text	00000022 fifo_remove
0800152c l     F .text	00000022 lifo_remove
00000000 l    df *ABS*	00000000 chmtx.c
08001a60 l     F .text	00000046 prio_insert
08001aa8 l     F .text	00000022 fifo_remove
08001acc l     F .text	00000020 dequeue
00000000 l    df *ABS*	00000000 chcond.c
08001f00 l     F .text	00000046 prio_insert
08001f48 l     F .text	00000022 fifo_remove
00000000 l    df *ABS*	00000000 chevents.c
00000000 l    df *ABS*	00000000 chmsg.c
080027e0 l     F .text	00000028 queue_insert
08002808 l     F .text	00000022 fifo_remove
00000000 l    df *ABS*	00000000 chmboxes.c
00000000 l    df *ABS*	00000000 chqueues.c
08002d60 l     F .text	00000028 queue_insert
08002d88 l     F .text	00000022 fifo_remove
08002dac l     F .text	00000040 qwait
00000000 l    df *ABS*	00000000 chmemcore.c
20001134 l       .bss	00000000 nextmem
20001138 l       .bss	00000000 endmem
2000113c l       .bss	00000000 realendmem
00000000 l    df *ABS*	00000000 chheap.c
20001140 l       .bss	00000000 default_heap
00000000 l    df *ABS*	00000000 chmempools.c
00000000 l    df *ABS*	00000000 hal.c
00000000 l    df *ABS*	00000000 adc.c
00000000 l    df *ABS*	00000000 can.c
00000000 l    df *ABS*	00000000 ext.c
00000000 l    df *ABS*	00000000 gpt.c
00000000 l    df *ABS*	00000000 i2c.c
00000000 l    df *ABS*	00000000 icu.c
00000000 l    df *ABS*	00000000 mac.c
00000000 l    df *ABS*	00000000 mmc_spi.c
00000000 l    df *ABS*	00000000 mmcsd.c
00000000 l    df *ABS*	00000000 pal.c
00000000 l    df *ABS*	00000000 pwm.c
00000000 l    df *ABS*	00000000 rtc.c
00000000 l    df *ABS*	00000000 sdc.c
00000000 l    df *ABS*	00000000 serial.c
08003d80 l     F .text	00000026 write
08003da8 l     F .text	00000026 read
08003dd0 l     F .text	0000002c put
08003dfc l     F .text	0000001e get
08003e1c l     F .text	0000002c putt
08003e48 l     F .text	0000001e gett
08003e68 l     F .text	00000026 writet
08003e90 l     F .text	00000026 readt
0801be70 l     O .text	00000020 vmt
00000000 l    df *ABS*	00000000 serial_usb.c
20000800 l     O .data	00000007 linecoding
080040a0 l     F .text	00000026 write
080040c8 l     F .text	00000026 read
080040f0 l     F .text	0000002c put
0800411c l     F .text	0000001e get
0800413c l     F .text	0000002c putt
08004168 l     F .text	0000001e gett
08004188 l     F .text	00000026 writet
080041b0 l     F .text	00000026 readt
0801bef0 l     O .text	00000020 vmt
080041d8 l     F .text	000000e0 inotify
080042b8 l     F .text	000000b2 onotify
00000000 l    df *ABS*	00000000 spi.c
00000000 l    df *ABS*	00000000 tm.c
00000000 l    df *ABS*	00000000 uart.c
00000000 l    df *ABS*	00000000 usb.c
0801c190 l     O .text	00000002 zero_status
0801c194 l     O .text	00000002 active_status
0801c198 l     O .text	00000002 halted_status
08004dc0 l     F .text	0000003a set_address
08004dfc l     F .text	00000390 default_handler
00000000 l    df *ABS*	00000000 stm32_dma.c
20001160 l       .bss	00000000 dma_streams_mask
20001164 l       .bss	00000000 dma_isr_redir
00000000 l    df *ABS*	00000000 hal_lld.c
08005fa0 l     F .text	00000030 hal_lld_backup_domain_init
00000000 l    df *ABS*	00000000 adc_lld.c
00000000 l    df *ABS*	00000000 ext_lld_isr.c
00000000 l    df *ABS*	00000000 can_lld.c
00000000 l    df *ABS*	00000000 ext_lld.c
00000000 l    df *ABS*	00000000 pal_lld.c
08006130 l     F .text	00000042 initgpio
00000000 l    df *ABS*	00000000 i2c_lld.c
08006310 l     F .text	0000009c i2c_lld_abort_operation
080063ac l     F .text	0000004c i2c_lld_safety_timeout
080063f8 l     F .text	0000018c i2c_lld_serve_interrupt
08006584 l     F .text	0000008a i2c_lld_serve_rx_end_irq
08006610 l     F .text	00000044 i2c_lld_serve_tx_end_irq
08006654 l     F .text	000000f4 i2c_lld_serve_error_interrupt
00000000 l    df *ABS*	00000000 rtc_lld.c
00000000 l    df *ABS*	00000000 spi_lld.c
200011c4 l       .bss	00000000 dummytx
200011c6 l       .bss	00000000 dummyrx
08006c90 l     F .text	000000d0 spi_lld_serve_rx_interrupt
08006d60 l     F .text	0000001c spi_lld_serve_tx_interrupt
00000000 l    df *ABS*	00000000 gpt_lld.c
00000000 l    df *ABS*	00000000 icu_lld.c
00000000 l    df *ABS*	00000000 pwm_lld.c
00000000 l    df *ABS*	00000000 serial_lld.c
0801c440 l     O .text	00000010 default_config
08007200 l     F .text	00000056 usart_init
08007258 l     F .text	0000001a usart_deinit
08007274 l     F .text	0000007a set_error
080072f0 l     F .text	00000148 serve_interrupt
08007438 l     F .text	00000018 notify3
00000000 l    df *ABS*	00000000 uart_lld.c
00000000 l    df *ABS*	00000000 usb_lld.c
08007530 l     F .text	00000022 fifo_remove
200011c8 l       .bss	00000000 ep0_state
200011dc l       .bss	00000000 ep0setup_buffer
0801c450 l     O .text	00000024 ep0config
08007554 l     F .text	00000010 usb_pm_reset
08007564 l     F .text	00000040 usb_pm_alloc
080075a4 l     F .text	00000046 usb_packet_read_to_buffer
080075ec l     F .text	000000fa usb_packet_read_to_queue
080076e8 l     F .text	0000004c usb_packet_write_from_buffer
08007734 l     F .text	0000010c usb_packet_write_from_queue
00000000 l    df *ABS*	00000000 board.c
00000000 l    df *ABS*	00000000 evtimer.c
08008210 l     F .text	00000048 tmrcb
00000000 l    df *ABS*	00000000 syscalls.c
00000000 l    df *ABS*	00000000 chprintf.c
080083a0 l     F .text	000000a0 long_to_string_with_divisor
08008440 l     F .text	00000020 ltoa
08008460 l     F .text	00000094 ftoa
00000000 l    df *ABS*	00000000 memstreams.c
080089d0 l     F .text	00000054 writes
08008a24 l     F .text	00000054 reads
08008a78 l     F .text	00000042 put
08008abc l     F .text	0000003e get
0801c560 l     O .text	00000010 vmt
00000000 l    df *ABS*	00000000 shell.c
08008b30 l     F .text	00000020 chprintf
08008b50 l     F .text	00000072 _strtok
08008bc4 l     F .text	0000001c usage
08008be0 l     F .text	00000030 list_commands
08008c10 l     F .text	000000c4 cmd_info
08008cd4 l     F .text	0000003c cmd_systime
20000808 l     O .data	00000018 local_commands
08008d10 l     F .text	00000048 cmdexec
08008d58 l     F .text	000001a4 shell_thread
00000000 l    df *ABS*	00000000 rtcan.c
00000000 l    df *ABS*	00000000 msgqueue.c
00000000 l    df *ABS*	00000000 hrt.c
00000000 l    df *ABS*	00000000 srt.c
00000000 l    df *ABS*	00000000 rtcan_lld_can.c
08009a60 l     F .text	000000c4 rtcan_lld_can_tx_handler
08009b24 l     F .text	00000046 rtcan_lld_can_rx0_handler
08009b6c l     F .text	0000003c rtcan_lld_can_rx1_handler
08009ba8 l     F .text	00000054 rtcan_lld_can_sce_handler
200011e8 l       .bss	00000000 next_fid.7103
00000000 l    df *ABS*	00000000 rtcan_lld_tim.c
00000000 l    df *ABS*	00000000 stubs.c
00000000 l    df *ABS*	00000000 usbcfg.c
0801c850 l     O .text	00000012 vcom_device_descriptor_data
0801c864 l     O .text	00000008 vcom_device_descriptor
0801c86c l     O .text	00000043 vcom_configuration_descriptor_data
0801c8b0 l     O .text	00000008 vcom_configuration_descriptor
0801c8b8 l     O .text	00000004 vcom_string0
0801c8bc l     O .text	00000026 vcom_string1
0801c8e4 l     O .text	00000038 vcom_string2
0801c91c l     O .text	00000008 vcom_string3
0801c924 l     O .text	00000020 vcom_strings
0800a1d0 l     F .text	0000005c get_descriptor
200011ec l       .bss	00000000 ep1instate
200011fc l       .bss	00000000 ep1outstate
0801c944 l     O .text	00000024 ep1config
20001210 l       .bss	00000000 ep2instate
0801c968 l     O .text	00000024 ep2config
0800a22c l     F .text	00000078 usb_event
00000000 l    df *ABS*	00000000 ArrayQueue_.cpp
00000000 l    df *ABS*	00000000 SimplePool_.cpp
00000000 l    df *ABS*	00000000 StaticList_.cpp
00000000 l    df *ABS*	00000000 StaticQueue_.cpp
00000000 l    df *ABS*	00000000 BasePublisher.cpp
00000000 l    df *ABS*	00000000 BaseSubscriber.cpp
00000000 l    df *ABS*	00000000 BaseSubscriberQueue.cpp
00000000 l    df *ABS*	00000000 BootMsg.cpp
00000000 l    df *ABS*	00000000 Checksummer.cpp
00000000 l    df *ABS*	00000000 LocalPublisher.cpp
00000000 l    df *ABS*	00000000 LocalSubscriber.cpp
00000000 l    df *ABS*	00000000 MessagePtrQueue.cpp
00000000 l    df *ABS*	00000000 Message.cpp
00000000 l    df *ABS*	00000000 Middleware.cpp
00000000 l    df *ABS*	00000000 Node.cpp
00000000 l    df *ABS*	00000000 RemotePublisher.cpp
00000000 l    df *ABS*	00000000 RemoteSubscriber.cpp
00000000 l    df *ABS*	00000000 Time.cpp
0800ca40 l     F .text	00000048 _Z41__static_initialization_and_destruction_0ii
0800ca88 l     F .text	0000000e _GLOBAL__sub_I__ZN3r2p4Time9IMMEDIATEE
00000000 l    df *ABS*	00000000 TimestampedMsgPtrQueue.cpp
00000000 l    df *ABS*	00000000 Topic.cpp
00000000 l    df *ABS*	00000000 Transport.cpp
00000000 l    df *ABS*	00000000 Utils.cpp
00000000 l    df *ABS*	00000000 Bootloader.cpp
00000000 l    df *ABS*	00000000 DebugTransport.cpp
0800eaa0 l     F .text	0000000c _ZL20__gthread_key_deletei
00000000 l    df *ABS*	00000000 DebugPublisher.cpp
00000000 l    df *ABS*	00000000 DebugSubscriber.cpp
00000000 l    df *ABS*	00000000 RTCANTransport.cpp
00000000 l    df *ABS*	00000000 RTCANPublisher.cpp
00000000 l    df *ABS*	00000000 RTCANSubscriber.cpp
00000000 l    df *ABS*	00000000 Middleware_.cpp
00000000 l    df *ABS*	00000000 Time_.cpp
00000000 l    df *ABS*	00000000 Bootloader_.cpp
00000000 l    df *ABS*	00000000 Flasher_.cpp
080100d0 l     F .text	00000014 _ZN3r2pL10flash_lockEv
080100e4 l     F .text	00000048 _ZN3r2pL12flash_unlockEv
0801012c l     F .text	00000020 _ZN3r2pL15flash_busy_waitEv
00000000 l    df *ABS*	00000000 led.cpp
00000000 l    df *ABS*	00000000 chnew.cpp
00000000 l    df *ABS*	00000000 main.cpp
20001230 l       .bss	00000000 _ZL7wa_info
200017c0 l       .bss	00000000 _ZL14dbgtra_namebuf
20001800 l       .bss	00000000 _ZL6dbgtra
20001a68 l       .bss	00000000 _ZL12wa_rx_dbgtra
20001ff8 l       .bss	00000000 _ZL12wa_tx_dbgtra
08011030 l     F .text	00000078 _Z41__static_initialization_and_destruction_0ii
080110a8 l     F .text	0000000e _GLOBAL__sub_I__ZN3r2p10Middleware8instanceE
00000000 l    df *ABS*	00000000 _arm_addsubdf3.o
00000000 l    df *ABS*	00000000 _arm_muldivdf3.o
00000000 l    df *ABS*	00000000 _arm_fixdfsi.o
00000000 l    df *ABS*	00000000 _arm_truncdfsf2.o
00000000 l    df *ABS*	00000000 _arm_cmpsf2.o
00000000 l    df *ABS*	00000000 aeabi_atexit.c
00000000 l    df *ABS*	00000000 cxa_atexit.c
00000000 l    df *ABS*	00000000 lib_a-memcpy.o
00000000 l    df *ABS*	00000000 memset.c
00000000 l    df *ABS*	00000000 sprintf.c
00000000 l    df *ABS*	00000000 strcasecmp.c
00000000 l    df *ABS*	00000000 strncmp.c
00000000 l    df *ABS*	00000000 strncpy.c
00000000 l    df *ABS*	00000000 strnlen.c
00000000 l    df *ABS*	00000000 strpbrk.c
00000000 l    df *ABS*	00000000 strspn.c
00000000 l    df *ABS*	00000000 vfprintf.c
0801ceb0 l     O .text	00000010 blanks.6794
0801cf10 l     O .text	00000010 zeroes.6795
00000000 l    df *ABS*	00000000 __atexit.c
00000000 l    df *ABS*	00000000 ctype_.c
00000000 l    df *ABS*	00000000 dtoa.c
080182f0 l     F .text	0000012c quorem
00000000 l    df *ABS*	00000000 impure.c
20000830 l     O .data	00000428 impure_data
00000000 l    df *ABS*	00000000 locale.c
20000c5c l     O .data	00000020 lc_message_charset
20000c7c l     O .data	00000038 lconv
20000cb4 l     O .data	00000020 lc_ctype_charset
00000000 l    df *ABS*	00000000 mallocr.c
00000000 l    df *ABS*	00000000 memchr.c
00000000 l    df *ABS*	00000000 mlock.c
00000000 l    df *ABS*	00000000 mprec.c
0801d170 l     O .text	0000000c p05.5265
00000000 l    df *ABS*	00000000 s_fpclassify.c
00000000 l    df *ABS*	00000000 lib_a-strcmp.o
00000000 l    df *ABS*	00000000 strlen.c
00000000 l    df *ABS*	00000000 vfprintf.c
0801d1b0 l     O .text	00000010 blanks.6738
0801d1c0 l     O .text	00000010 zeroes.6739
00000000 l    df *ABS*	00000000 mallocr.c
00000000 l    df *ABS*	00000000 mallocr.c
00000000 l    df *ABS*	00000000 memmove.c
00000000 l    df *ABS*	00000000 mallocr.c
00000000 l    df *ABS*	00000000 _arm_cmpdf2.o
00000000 l    df *ABS*	00000000 _aeabi_uldivmod.o
00000000 l    df *ABS*	00000000 bpabi.c
00000000 l    df *ABS*	00000000 _dvmd_tls.o
00000000 l    df *ABS*	00000000 libgcc2.c
00000000 l    df *ABS*	00000000 libgcc2.c
00000000 l    df *ABS*	00000000 
08013310  w    F .text	0000002c _ZN3r2p5MutexC2Eb
0801c490 g     O .text	000000a8 pal_default_config
080037b0 g     F .text	00000038 chPoolInit
08016100  w    F .text	00000018 _ZNK3r2p22TimestampedMsgPtrQueue9get_countEv
080161e0  w    F .text	0000006a _ZN3r2p10ArrayQueueINS_22TimestampedMsgPtrQueue5EntryEE11post_unsafeES2_
0801a1b0 g     F .text	00000034 _mprec_log10
08000280  w    F .text	00000002 Vector58
08000280  w    F .text	00000002 VectorE8
08000280  w    F .text	00000002 Vector9C
08001954 g     F .text	00000104 chSemSignalWait
0800eaac g     F .text	00000040 _ZN3r2p14DebugTransport15skip_after_charEcm
0801a240 g     F .text	0000005e __any_on
0800838c g     F .text	0000000e _isatty_r
0801d180 g     O .text	00000028 __mprec_tinytens
08013cd0  w    F .text	00000012 _ZN3r2p10StaticListINS_15LocalSubscriberEE13ConstIteratorC2Ev
08011f34 g     F .text	00000012 .hidden __aeabi_dcmple
080149e0  w    F .text	0000000e _ZN3r2p10Middleware14get_mgmt_topicEv
080003c0 g     F .text	0000007c nvicEnableVector
0800aa3c g     F .text	0000002a _ZNK3r2p12StaticQueue_4peekERPKNS0_4LinkE
08014eb0  w    F .text	00000016 _ZN3r2p6Mutex_D1Ev
080006e0 g     F .text	0000002c dbg_check_lock_from_isr
08012720  w    F .text	0000000e _ZNK3r2p5Topic8get_nameEv
080043d8 g     F .text	00000094 sduStart
08011fd0 g     F .text	0000002e .hidden __gnu_uldivmod_helper
08000280  w    F .text	00000002 VectorAC
0800a1bc g     F .text	00000006 _getpid
080010f4 g     F .text	0000001c chThdExit
0800057c g     F .text	00000088 chSysTimerHandlerI
0800d358 g     F .text	00000068 _ZN3r2p9Transport9subscribeERNS_16RemoteSubscriberEPKcPNS_7MessageEjj
08013430  w    F .text	00000032 _ZN3r2p7ReMutexC2Eb
0800acd0 g     F .text	00000028 _ZN3r2p13BasePublisherC1Ev
08002318 g     F .text	00000054 chEvtBroadcastFlagsI
08000bb0 g     F .text	00000064 chSchGoSleepTimeoutS
08011e70 g     F .text	0000007a .hidden __cmpdf2
080148e0  w    F .text	00000054 _ZN3r2p10ArrayQueueINS_22TimestampedMsgPtrQueue5EntryEEC2EPS2_j
080140e0  w    F .text	00000016 _ZN3r2p10StaticListINS_14LocalPublisherEE13ConstIteratoraSERKS3_
08010cbc g     F .text	00000024 _Znaj
080039e0 g     F .text	00000008 i2cInit
080082ec g     F .text	00000012 _lseek_r
08014940  w    F .text	00000024 _ZN3r2p11MemoryPool_C1Ej
08013ee0  w    F .text	00000014 _ZN3r2p10StaticListINS_4NodeEE8IteratorC2EPKNS2_4LinkE
0800a880 g     F .text	00000054 _ZNK3r2p12StaticQueue_11peek_unsafeERPKNS0_4LinkE
0800a6c4 g     F .text	00000048 _ZNK3r2p11StaticList_8containsEPKv
08012b40  w    F .text	0000001a _ZN3r2p7SysLock5ScopeC2Ev
0800e0a0 g     F .text	0000003e _ZN3r2p10Bootloader16do_release_errorEmPKc
080156f0  w    F .text	0000002a _ZNK3r2p10Bootloader12FlashAppInfo8has_nameEPKc
08013f00  w    F .text	00000064 _ZN3r2p10StaticListINS_9TransportEE16link_tail_unsafeERNS2_4LinkE
08011e70 g     F .text	0000007a .hidden __eqdf2
08014680  w    F .text	00000064 _ZN3r2p10StaticListINS_14LocalPublisherEE16link_tail_unsafeERNS2_4LinkE
0800a410 g     F .text	0000002a _ZNK3r2p11StaticList_12count_unsafeEv
08012010 g     F .text	0000029c .hidden __divdi3
08015c50  w    F .text	00000038 _ZN3r2p14DebugTransport11expect_charEcm
080143f0  w    F .text	00000014 _ZN3r2p10SpinEvent_C2EPNS_6ThreadE
08001b44 g     F .text	00000108 chMtxLockS
0800add0 g     F .text	00000028 _ZN3r2p14BaseSubscriberC1Ev
08000688 g     F .text	0000002c dbg_check_lock
080030c4 g     F .text	00000056 chOQResetI
08004980 g     F .text	00000058 spiStartIgnore
08014e40  w    F .text	00000010 _ZN3r2p6Mutex_7releaseEv
08001390 g     F .text	000000a0 chThdCreateFromMemoryPool
080162e0  w    F .text	0000001a _ZN3r2p11StaticQueueINS_14BaseSubscriberEE4LinkC2ERS1_
20000800 g       .data	00000000 __data_start__
08000280  w    F .text	00000002 Vector5C
08014ef0  w    F .text	00000030 _ZN3r2p13BasePublisher9has_topicERKS0_PKc
080125f0  w    F .text	00000018 _ZNK3r2p12StaticQueue_15is_empty_unsafeEv
08006f54 g     F .text	0000001e spi_lld_select
0800abd8 g     F .text	00000068 _ZN3r2p13BasePublisher23publish_remotely_unsafeERNS_7MessageE
080113d4 g     F .text	0000005a .hidden __floatdidf
0800961c g     F .text	00000050 rtcanReceive
0800efec g     F .text	000001d0 _ZN3r2p14DebugTransport10initializeEPvjmS1_jm
08009088 g     F .text	00000006 rtcan_ismaster
080109b0 g     F .text	0000002a _ZN3r2p8Flasher_C1EPt
0800f838 g     F .text	0000001c _ZN3r2p14DebugPublisherD0Ev
08015440  w    F .text	00000026 _ZN3r2p7Flasher5flashEPKhS2_j
08000280  w    F .text	00000002 NMIVector
0800b0f4 g     F .text	00000038 _ZN3r2p15LocalSubscriberD1Ev
0800987c g     F .text	00000058 msgqueue_remove
0800c920 g     F .text	00000038 _ZN3r2p15RemotePublisherC2ERNS_9TransportE
08000e68 g     F .text	00000026 _thread_memfill
08001c80 g     F .text	00000050 chMtxTryLockS
0800d3dc g     F .text	0000007c _ZN3r2p9TransportC1EPKc
08009c84 g     F .text	0000007c rtcan_lld_can_start
0801cc20 g     O .text	00000024 _ZTVN3r2p15RTCANSubscriberE
0800363c g     F .text	000000fc chHeapFree
08012d50  w    F .text	00000040 _ZN3r2p13BasePublisher12alloc_unsafeERPNS_7MessageE
0800a61c g     F .text	0000001e _ZN3r2p11StaticList_4linkERNS0_4LinkE
08000280  w    F .text	00000002 Vector11C
0801cea0  w    O .text	00000010 _ZTVN3r2p9PublisherINS_11String64MsgEEE
0801054c g     F .text	00000164 _ZN3r2p8Flasher_13flash_alignedEPKtS2_j
08005584 g     F .text	00000070 usbStartTransmitI
0800adf8 g     F .text	0000002c _ZN3r2p14BaseSubscriberD2Ev
0800f5e4 g     F .text	00000020 _ZN3r2p14DebugTransport10tx_threadfEPv
08013d20  w    F .text	00000030 _ZN3r2p16SubscriberExtBufINS_7BootMsgEED2Ev
08015fb0  w    F .text	0000001a _ZN3r2p11StaticQueueINS_14BaseSubscriberEE11skip_unsafeEv
080130e0  w    F .text	00000018 _ZNK3r2p5Topic20has_local_publishersEv
08005db8 g     F .text	00000060 dmaInit
080192c0 g     F .text	00000044 _setlocale_r
08016700  w    F .text	0000001c _ZN3r2p10SubscriberINS_6LedMsgELj5EED0Ev
080039a4 g     F .text	00000030 halPolledDelay
080125a0  w    F .text	00000048 _ZN3r2p11StaticList_11link_unsafeERNS0_4LinkE
08001fe4 g     F .text	00000040 chCondSignalI
08014bc0  w    F .text	00000022 _ZN3r2p10StaticListINS_16RemoteSubscriberEE8IteratorppEv
0800d458 g     F .text	00000054 _ZN3r2p9TransportD2Ev
08008258 g     F .text	00000040 evtStart
08015530  w    F .text	0000001c _ZN3r2p7Flasher18get_program_lengthEv
08012cb0  w    F .text	00000024 _ZN3r2pmiERKNS_4TimeES2_
08016800  w    F .text	00000030 _ZN3r2p9PublisherINS_11String64MsgEED2Ev
08019950 g     F .text	00000002 __malloc_unlock
08014330  w    F .text	000000b4 _ZN3r2p10SpinEvent_4waitERKNS_4TimeE
0801cde0  w    O .text	00000010 _ZTVN3r2p15RemotePublisherE
08009de8 g     F .text	00000032 rtcan_lld_can_rxne
0800ff40 g     F .text	00000032 _ZN3r2p15RTCANSubscriber13notify_unsafeERNS_7MessageERKNS_4TimeE
080058a4 g     F .text	00000106 _usb_ep0in
08013900  w    F .text	0000001e _ZN3r2p16SubscriberExtBufINS_7MgmtMsgEE7releaseERS1_
08014c80  w    F .text	00000044 _ZN3r2p10StaticListINS_16RemoteSubscriberEE11link_unsafeERNS2_4LinkE
08007f88 g     F .text	00000062 usb_lld_prepare_receive
0800ff08 g     F .text	0000001c _ZN3r2p14RTCANPublisherD0Ev
0801cdd0  w    O .text	00000010 _ZTVN3r2p9PublisherINS_7MgmtMsgEEE
08009820 g     F .text	0000005c msgqueue_insert
080129b0  w    F .text	00000018 _ZN3r2p15MessagePtrQueueD2Ev
08016020  w    F .text	00000038 _ZN3r2p22TimestampedMsgPtrQueue5EntryC2EPNS_7MessageERKNS_4TimeE
08009bfc g     F .text	0000001c Vector8C
08010000 g     F .text	00000044 _ZN3r2p10Middleware6rebootEv
08015230  w    F .text	00000054 _ZN3r2p10StaticListINS_15RemotePublisherEE13unlink_unsafeERNS2_4LinkE
08015b80  w    F .text	0000002a _ZN3r2p14DebugTransport23notify_first_sub_unsafeERKNS_15DebugSubscriberE
0800a594 g     F .text	00000020 _ZNK3r2p11StaticList_8get_headEv
08009760 g     F .text	000000b0 rtcan_blinker
08002230 g     F .text	00000064 chEvtUnregister
08014c00  w    F .text	0000002a _ZN3r2p5Topic5allocINS_7MessageEEEbRPT_
08013cd0  w    F .text	00000012 _ZN3r2p10StaticListINS_15LocalSubscriberEE13ConstIteratorC1Ev
080158b0  w    F .text	00000026 _ZN3r2p10Bootloader5writeEPKvS2_j
0801b1c0 g     F .text	000000c6 memmove
0801ce90  w    O .text	00000010 _ZTVN3r2p9PublisherINS_6LedMsgEEE
080168c0  w    F .text	00000016 _ZN3r2p10StaticListINS_4NodeEED1Ev
08007450 g     F .text	0000001c VectorDC
08014da0  w    F .text	00000054 _ZN3r2p10StaticListINS_16RemoteSubscriberEE13unlink_unsafeERNS2_4LinkE
08012c30  w    F .text	00000022 _ZN3r2p4Time2msEl
08016370  w    F .text	00000016 _ZN3r2p11MemoryPool_D1Ev
080104f0 g     F .text	00000028 _ZN3r2p8Flasher_5beginEv
080147e0  w    F .text	00000014 _ZN3r2p10StaticListINS_15LocalSubscriberEE8IteratorC1EPKNS2_4LinkE
08007840 g     F .text	00000010 Vector168
0800c8e0 g     F .text	00000040 _ZN3r2p4NodeD2Ev
0800af30 g     F .text	00000030 _ZN3r2p14LocalPublisherC1Ev
08019960 g     F .text	0000004c _Balloc
08014a50  w    F .text	0000001e _ZNK3r2p10StaticListINS_15LocalSubscriberEE14IteratorUnsafeneERKS3_
08000000 g     O startup	00000188 _vectors
0800da28 g     F .text	000002e4 _ZN3r2p10Bootloader10do_appinfoEv
08010d54 g     F .text	0000001a _ZdaPvP11memory_heap
0800a7e0 g     F .text	0000000e _ZNK3r2p12StaticQueue_15get_head_unsafeEv
0800f808 g     F .text	00000030 _ZN3r2p14DebugPublisherD1Ev
0800d7e8 g     F .text	00000240 _ZN3r2p10Bootloader9do_loaderEv
08012930  w    F .text	00000056 _ZN3r2p15LocalSubscriber13notify_unsafeERNS_7MessageERKNS_4TimeE
08002024 g     F .text	0000002a chCondBroadcast
08010b78 g     F .text	00000060 _ZN3r2p8callbackERKNS_6LedMsgE
08000ab0 g     F .text	00000068 chSchGoSleepS
08000280  w    F .text	00000002 Vector110
08011e60 g     F .text	0000008a .hidden __gtdf2
08004614 g     F .text	00000112 sduDataTransmitted
0801d250 g       .textalign	00000000 __text_end__
08016090  w    F .text	00000026 _ZN3r2p22TimestampedMsgPtrQueue11post_unsafeERNS0_5EntryE
080144b0  w    F .text	00000016 _ZN3r2p9SpinEventD2Ev
08014d80  w    F .text	00000014 _ZN3r2p10StaticListINS_16RemoteSubscriberEE8IteratorC1EPKNS2_4LinkE
0800ad40 g     F .text	00000048 _ZN3r2p14BaseSubscriber14release_unsafeERNS_7MessageE
0800a9d4 g     F .text	00000020 _ZNK3r2p12StaticQueue_8get_tailEv
0801cd10  w    O .text	00000010 _ZTVN3r2p13BasePublisherE
08014fb0  w    F .text	00000020 _ZN3r2p10ScopedLockINS_5MutexEED2Ev
08015160  w    F .text	00000060 _ZNK3r2p10StaticListINS_16RemoteSubscriberEE10find_firstEPFbRKS1_PKvES6_
080134f0  w    F .text	00000018 _ZN3r2p7MgmtMsgC2Ev
08014d10  w    F .text	00000014 _ZN3r2p10StaticListINS_15LocalSubscriberEE14IteratorUnsafeC1EPKNS2_4LinkE
08003ad8 g     F .text	00000024 i2cGetErrors
08003c84 g     F .text	00000020 i2cReleaseBus
08012d90  w    F .text	0000002a _ZN3r2p13BasePublisher5allocERPNS_7MessageE
0800b4ac g     F .text	00000050 _ZN3r2p10Middleware11stop_remoteEPKc
0800ce08 g     F .text	000000da _ZN3r2p5Topic12forward_copyERKNS_7MessageERKNS_4TimeE
0800b9b8 g     F .text	00000064 _ZN3r2p10Middleware11touch_topicEPKcj
20003458 g       .noreset	00000000 __heap_base__
08013c90  w    F .text	00000012 _ZN3r2p10StaticListINS_4NodeEE13ConstIteratorC2Ev
08013340  w    F .text	0000001c _ZN3r2p7ReMutex10initializeEv
08008364 g     F .text	00000026 _fstat_r
080001a0 g       .text	00000000 __text_start__
08016720  w    F .text	0000002a _ZN3r2p4Node9subscribeINS_6LedMsgELj5EEEbRNS_10SubscriberIT_XT0_EEEPKc
080157b0  w    F .text	00000032 _ZNK3r2p10Bootloader8IteratorneERKS1_
080033dc g     F .text	0000002c chCoreReserve
08013a40  w    F .text	00000010 _ZNK3r2p10StaticListINS_14LocalPublisherEE13ConstIteratorptEv
0801d250 g       .textalign	00000000 _etext
08000638 g     F .text	00000028 dbg_check_suspend
08009594 g     F .text	00000088 rtcanTransmitI
08005c54 g     F .text	00000044 Vector120
08000e90 g     F .text	00000074 chThdCreateI
0800816c g     F .text	00000048 usb_lld_clear_out
08012700  w    F .text	0000001a _ZN3r2p5Topic4freeERNS_7MessageE
08000660 g     F .text	00000028 dbg_check_enable
0800e6a4 g     F .text	00000040 _ZN3r2p10Bootloader12get_num_appsEv
0800fed8 g     F .text	00000030 _ZN3r2p14RTCANPublisherD2Ev
080135f0  w    F .text	00000018 _ZN3r2p10StaticListINS_4NodeEE3endEv
08006920 g     F .text	00000058 i2c_lld_stop
0800cbd4 g     F .text	000000da _ZN3r2p5Topic19forward_copy_unsafeERKNS_7MessageERKNS_4TimeE
08015be0  w    F .text	00000028 _ZNK3r2p14DebugTransport17create_subscriberERNS_5TopicEPNS_22TimestampedMsgPtrQueue5EntryEj
08011efc g     F .text	00000010 .hidden __aeabi_cdcmple
08008afc g     F .text	00000030 msObjectInit
08012f30  w    F .text	0000000c _ZN3r2p6Thread4selfEv
0800b210 g     F .text	000000ac _ZN3r2p10Middleware10initializeEPvjmS1_jm
0800fe04 g     F .text	000000a0 _ZNK3r2p14RTCANTransport8topic_idERKNS_5TopicE
080148a0  w    F .text	0000001a _ZN3r2p10StaticListINS_16RemoteSubscriberEE4LinkC1ERS1_
08015e90  w    F .text	00000020 _ZN3r2p11StaticQueueINS_14BaseSubscriberEED1Ev
08006780 g     F .text	00000038 VectorC8
08014860  w    F .text	00000018 _ZNK3r2p10StaticListINS_14LocalPublisherEE15is_empty_unsafeEv
08006f74 g     F .text	0000001e spi_lld_unselect
080153b0  w    F .text	0000000c _ZN3r2p8Flasher_11get_ram_endEv
0800f9f0 g     F .text	00000088 _ZN3r2p14RTCANTransport4sendEPNS_7MessageEPNS_15RTCANSubscriberE
0800d5c0 g     F .text	000000bc _ZN3r2p10Bootloader9spin_loopEv
08013550  w    F .text	00000020 _ZN3r2p10BootloaderD2Ev
0800710c g     F .text	0000007c spi_lld_receive
080167d0  w    F .text	00000024 _ZN3r2p9PublisherINS_11String64MsgEEC1Ev
080158e0  w    F .text	0000001c _ZN3r2p10Bootloader5beginEv
080148e0  w    F .text	00000054 _ZN3r2p10ArrayQueueINS_22TimestampedMsgPtrQueue5EntryEEC1EPS2_j
0800fd08 g     F .text	00000098 _ZN3r2p14RTCANTransportC2ER11RTCANDriver
080149a0  w    F .text	0000001a _ZNK3r2p5Topic13get_type_sizeEv
080161a0  w    F .text	00000016 _ZN3r2p10ArrayQueueINS_22TimestampedMsgPtrQueue5EntryEED1Ev
08014b20  w    F .text	00000010 _ZNK3r2p10StaticListINS_16RemoteSubscriberEE14IteratorUnsafeptEv
080138c0  w    F .text	0000001e _ZN3r2p7Message13reset_payloadINS_7MgmtMsgEEEvRT_
08015510  w    F .text	0000000c _ZN3r2p7Flasher13get_ram_startEv
08000c14 g     F .text	00000074 chSchWakeupS
08014970  w    F .text	0000001e _ZN3r2pgtERKNS_4TimeES2_
08014260  w    F .text	00000014 _ZN3r2p10StaticListINS_4NodeEE13ConstIteratorC1EPKNS2_9ConstLinkE
0800b0f4 g     F .text	00000038 _ZN3r2p15LocalSubscriberD2Ev
08013a20  w    F .text	00000018 _ZNK3r2p10StaticListINS_14LocalPublisherEE13ConstIterator8is_validEv
08013bf0  w    F .text	0000001c _ZN3r2p9PublisherINS_7MgmtMsgEED0Ev
08003ff0 g     F .text	00000060 sdIncomingDataI
080031b0 g     F .text	0000008e chOQGetI
080152e0  w    F .text	0000001a _ZN3r2p8Flasher_10is_alignedEPKv
08000a14 g     F .text	00000028 _scheduler_init
08015d80  w    F .text	0000001e _ZN3r2p14DebugTransport10recv_valueIhEEbRT_m
0800caa0 g     F .text	00000020 _ZN3r2p22TimestampedMsgPtrQueueC1EPNS0_5EntryEj
0800f1bc g     F .text	0000017c _ZN3r2p14DebugTransport7spin_txEv
08005194 g     F .text	0000004c usbObjectInit
08000c88 g     F .text	00000020 chSchRescheduleS
08000f04 g     F .text	00000068 chThdCreateStatic
0800e64c g     F .text	00000058 _ZN3r2p10BootloaderC1EPtRNS_9PublisherINS_7BootMsgEEERNS_16SubscriberExtBufIS3_EE
08016830  w    F .text	0000001c _ZN3r2p9PublisherINS_11String64MsgEED0Ev
0800cf64 g     F .text	0000003a _ZN3r2p5Topic9subscribeERNS_15LocalSubscriberEj
08013e20  w    F .text	00000028 _ZN3r2p4Node9subscribeINS_7BootMsgEEEbRNS_16SubscriberExtBufIT_EEPKcPS4_
08009c34 g     F .text	0000001c Vector94
080137c0  w    F .text	00000054 _ZN3r2p10StaticListINS_4NodeEE13unlink_unsafeERNS2_4LinkE
080163b0  w    F .text	0000001a _ZN3r2p10MemoryPoolI11rtcan_msg_tE12alloc_unsafeEv
08013970  w    F .text	00000010 _ZNK3r2p10StaticListINS_4NodeEE13ConstIteratordeEv
0800f994 g     F .text	00000038 _ZN3r2p15DebugSubscriberD1Ev
080165a0  w    F .text	00000030 _ZN3r2p9PublisherINS_6LedMsgEED1Ev
08012b60  w    F .text	0000001a _ZN3r2p7SysLock5ScopeD2Ev
08012c80  w    F .text	00000024 _ZN3r2pplERKNS_4TimeES2_
080164f0  w    F .text	00000014 _ZN3r2p14compute_offsetEPKvj
0800a330 g     F .text	0000002a _ZN3r2p11SimplePool_4freeEPv
08000280  w    F .text	00000002 VectorA8
08013250  w    F .text	00000014 _ZN3r2p6Mutex_14acquire_unsafeEv
08011a40 g     F .text	00000134 memcpy
08015720  w    F .text	00000016 _ZN3r2p10Bootloader8IteratorC2ERKS1_
08011eec g     F .text	00000020 .hidden __aeabi_cdrcmple
08013aa0  w    F .text	00000010 _ZNK3r2p10StaticListINS_15LocalSubscriberEE13ConstIteratorptEv
0800d3c0 g     F .text	0000001a _ZN3r2p9Transport15fill_raw_paramsERKNS_5TopicEPh
080056f8 g     F .text	000001ac _usb_ep0setup
20001224 g     O .bss	00000004 _ZN3r2p4Time8INFINITEE
08015660  w    F .text	00000022 _ZNK3r2p10Bootloader12FlashAppInfo16get_data_programEv
08009ff0 g     F .text	00000024 VectorB4
08015870  w    F .text	00000034 _ZN3r2p10Bootloader9end_writeEv
080155c0  w    F .text	0000001a _ZN3r2p10Bootloader12FlashAppInfo15compute_programEPKS1_
08014e00  w    F .text	00000020 _ZN3r2p22TimestampedMsgPtrQueue5EntryC2Ev
080142b0  w    F .text	0000000e _ZNK3r2p10StaticListINS_15LocalSubscriberEE15get_head_unsafeEv
08011a28 g     F .text	00000012 .hidden __aeabi_fcmpgt
08016da0 g     F .text	00001494 _svfprintf_r
0800c958 g     F .text	00000030 _ZN3r2p15RemotePublisherD1Ev
08014070  w    F .text	0000000e _ZN3r2p7Message16get_payload_sizeINS_7MgmtMsgEEEjv
08011364 g     F .text	00000022 .hidden __floatsidf
080126c0  w    F .text	0000001e _ZN3r2p11MemoryPool_4freeEPv
08011e68 g     F .text	00000082 .hidden __ltdf2
0800c920 g     F .text	00000038 _ZN3r2p15RemotePublisherC1ERNS_9TransportE
0800fc2c g     F .text	00000020 _ZN3r2p14RTCANTransport15fill_raw_paramsERKNS_5TopicEPh
08013f90  w    F .text	00000014 _ZN3r2p10StaticListINS_9TransportEE8IteratorC1EPKNS2_4LinkE
080155e0  w    F .text	00000030 _ZN3r2p10Bootloader12FlashAppInfo20compute_data_programEPKS1_jj
0800ad88 g     F .text	00000048 _ZN3r2p14BaseSubscriber7releaseERNS_7MessageE
0800ec94 g     F .text	00000058 _ZN3r2p14DebugTransport14send_chunk_revEPKvjm
08016880  w    F .text	0000001c _ZN3r2p9PublisherINS_11String64MsgEE5allocERPS1_
08014530  w    F .text	0000001e _ZN3r2p10StaticListINS_15LocalSubscriberEE4linkERNS2_4LinkE
08011f70 g     F .text	00000000 .hidden __aeabi_uldivmod
08012610  w    F .text	0000000c _ZN3r2p10UncopyableD2Ev
080162e0  w    F .text	0000001a _ZN3r2p11StaticQueueINS_14BaseSubscriberEE4LinkC1ERS1_
08000a3c g     F .text	00000074 chSchReadyI
08013b50  w    F .text	0000001c _ZN3r2p10StaticListINS_5TopicEEC1Ev
080154d0  w    F .text	00000018 _ZN3r2p7Flasher10align_nextEj
0801d1d8 g       constructors	00000000 __fini_array_end
08000290  w    F .text	00000004 port_halt
0800f994 g     F .text	00000038 _ZN3r2p15DebugSubscriberD2Ev
08003a0c g     F .text	0000006c i2cStart
0800d168 g     F .text	00000148 _ZN3r2p9Transport16touch_subscriberERNS_5TopicEjPh
080141d0  w    F .text	00000054 _ZN3r2p10StaticListINS_9TransportEE13unlink_unsafeERNS2_4LinkE
08008980 g     F .text	00000046 chsnprintf
080015b8 g     F .text	00000088 chSemResetI
20000800 g       .stacks	00000000 __main_thread_stack_end__
08016920  w    F .text	00000020 _ZN3r2p7ReMutexD2Ev
08013c90  w    F .text	00000012 _ZN3r2p10StaticListINS_4NodeEE13ConstIteratorC1Ev
08014260  w    F .text	00000014 _ZN3r2p10StaticListINS_4NodeEE13ConstIteratorC2EPKNS2_9ConstLinkE
080132d0  w    F .text	00000016 _ZN3r2p5Mutex14acquire_unsafeEv
0801a2a0 g     F .text	00000058 __fpclassifyd
080008a0 g     F .text	00000024 _vt_init
0801a150 g     F .text	00000058 __ratio
080145c0  w    F .text	0000001e _ZNK3r2p10StaticListINS_15LocalSubscriberEE8IteratorneERKS3_
08002294 g     F .text	00000048 chEvtGetAndClearEvents
08003374 g     F .text	00000050 chCoreAllocI
08016780  w    F .text	00000030 _ZN3r2p16SubscriberExtBufINS_6LedMsgEED1Ev
08016680  w    F .text	00000048 _ZN3r2p10SubscriberINS_6LedMsgELj5EEC2EPFbRKS1_E
08004728 g     F .text	000000be sduDataReceived
08012c10  w    F .text	00000016 _ZN3r2p4TimeC1ERKS0_
00000000  w      *UND*	00000000 malloc
0800a5b4 g     F .text	00000026 _ZNK3r2p11StaticList_8is_emptyEv
08014a30  w    F .text	00000018 _ZN3r2p10StaticListINS_15LocalSubscriberEE10end_unsafeEv
0800e9b8 g     F .text	00000078 _ZN3r2p10Bootloader19app_threadf_wrapperEPv
08004938 g     F .text	00000048 spiUnselect
08014990  w    F .text	0000000e _ZNK3r2p16RemoteSubscriber13get_transportEv
080034d0 g     F .text	00000028 _heap_init
0800d6e4 g     F .text	00000064 _ZN3r2p10Bootloader7publishEv
080144d0  w    F .text	0000001e _ZN3r2p10StaticListINS_14LocalPublisherEE4linkERNS2_4LinkE
0800aabc g     F .text	00000022 _ZN3r2p12StaticQueue_C1Ev
0800af60 g     F .text	00000030 _ZN3r2p14LocalPublisherD2Ev
08005aec g     F .text	00000048 Vector74
0801d070 g     O .text	000000c8 __mprec_tens
080168e0  w    F .text	00000016 _ZN3r2p10StaticListINS_5TopicEED1Ev
08003920 g     F .text	0000002c halInit
0800a7b8 g     F .text	0000001c _ZN3r2p11StaticList_C1Ev
08000280  w    F .text	00000002 Vector160
080138e0  w    F .text	00000020 _ZN3r2p16SubscriberExtBufINS_7MgmtMsgEE5fetchERPS1_RNS_4TimeE
0800c9f4 g     F .text	00000030 _ZN3r2p16RemoteSubscriberD2Ev
08019310 g     F .text	00000008 __locale_charset
080154a0  w    F .text	00000024 _ZN3r2p7FlasherC2EPt
0801cc10 g     O .text	00000010 _ZTVN3r2p14RTCANPublisherE
08011958 g     F .text	00000066 .hidden __lesf2
08000280  w    F .text	00000002 VectorEC
200010e8 g       .bss	00000000 _bss_start
08000ca8 g     F .text	0000005c chSchDoRescheduleBehind
080168e0  w    F .text	00000016 _ZN3r2p10StaticListINS_5TopicEED2Ev
08013920  w    F .text	00000018 _ZNK3r2p10StaticListINS_4NodeEE13ConstIterator8is_validEv
080049d8 g     F .text	0000006c spiStartExchange
08014e50  w    F .text	0000001c _ZN3r2p6Mutex_C1Ev
08012990  w    F .text	00000016 _ZN3r2p10ArrayQueueIPNS_7MessageEED1Ev
2000283c g     O .bss	00000004 __malloc_top_pad
08000280  w    F .text	00000002 UsageFaultVector
08013280  w    F .text	0000002a _ZN3r2p6Mutex_C2Eb
080159e0  w    F .text	0000000e _ZNK3r2p7Message12get_raw_dataEv
2000a000 g       *ABS*	00000000 __heap_end__
200010e8 g       .bss	00000000 __bss_start__
08000280  w    F .text	00000002 DebugMonitorVector
200031f4 g     O .bss	00000004 .hidden __dso_handle
0800130c g     F .text	00000084 chThdCreateFromHeap
20000cd4 g     O .data	00000004 __mb_cur_max
08013fb0  w    F .text	00000060 _ZNK3r2p10StaticListINS_5TopicEE10find_firstEPFbRKS1_PKvES6_
08011344 g     F .text	0000001e .hidden __aeabi_ui2d
08019350 g     F .text	00000008 _localeconv_r
08015300  w    F .text	0000002c _ZN3r2p8Flasher_16is_within_boundsEPKv
08019ba0 g     F .text	00000012 __i2b
080142e0  w    F .text	0000000e _ZNK3r2p4Time9to_us_rawEv
08013cb0  w    F .text	00000012 _ZN3r2p10StaticListINS_14LocalPublisherEE13ConstIteratorC2Ev
080006b4 g     F .text	0000002c dbg_check_unlock
08014c30  w    F .text	00000044 _ZN3r2p10StaticListINS_15LocalSubscriberEE11link_unsafeERNS2_4LinkE
080110c0 g     F .text	00000000 .hidden __aeabi_drsub
08000280  w    F .text	00000002 Vector40
08008324 g     F .text	00000040 _sbrk_r
08000280  w    F .text	00000002 VectorF8
08015330  w    F .text	00000010 _ZN3r2p8Flasher_10align_prevEPKh
08000280  w    F .text	00000002 Vector108
08005514 g     F .text	00000070 usbStartReceiveI
080147e0  w    F .text	00000014 _ZN3r2p10StaticListINS_15LocalSubscriberEE8IteratorC2EPKNS2_4LinkE
0800f604 g     F .text	0000013c _ZN3r2p14DebugTransportC1EPKcP11BaseChannelPc
08015df0  w    F .text	0000001a _ZN3r2p11Checksummer3addEPKvj
08012530  w    F .text	0000000e _ZN3r2p8SysLock_7acquireEv
0800c630 g     F .text	00000060 _ZN3r2p4Node9advertiseERNS_14LocalPublisherEPKcRKNS_4TimeEj
08014010  w    F .text	00000060 _ZNK3r2p10StaticListINS_4NodeEE10find_firstEPFbRKS1_PKvES6_
080001ac g     F .text	000000c8 ResetHandler
0800d2b0 g     F .text	0000001e _ZN3r2p9Transport12advertise_cbERNS_5TopicEPKh
08002fac g     F .text	000000c8 chIQReadTimeout
08000280  w    F .text	00000002 VectorBC
08000280  w    F .text	00000002 Vector150
08007f24 g     F .text	00000064 usb_lld_read_setup
0800a8d4 g     F .text	00000078 _ZN3r2p12StaticQueue_12fetch_unsafeERNS0_4LinkE
0800e528 g     F .text	00000044 _ZN3r2p10Bootloader11remove_lastEv
0800b150 g     F .text	00000020 _ZN3r2p15MessagePtrQueueC2EPPNS_7MessageEj
08012aa0  w    F .text	0000001a _ZN3r2p10StaticListINS_15LocalSubscriberEE4LinkC2ERS1_
080128f0  w    F .text	0000003c _ZN3r2p15LocalSubscriber12fetch_unsafeERPNS_7MessageERNS_4TimeE
08013100  w    F .text	00000020 _ZNK3r2p5Topic21has_local_subscribersEv
08012e00  w    F .text	0000000e _ZNK3r2p14BaseSubscriber9get_topicEv
080082d0 g     F .text	0000001a _read_r
08005c98 g     F .text	00000048 Vector124
08003738 g     F .text	0000006c chHeapStatus
0800239c g     F .text	00000040 chEvtSignal
08012c10  w    F .text	00000016 _ZN3r2p4TimeC2ERKS0_
08013610  w    F .text	0000001e _ZNK3r2p10StaticListINS_4NodeEE8IteratorneERKS3_
0800a154 g     F .text	00000016 rtcan_lld_tim_get_counter
0800b150 g     F .text	00000020 _ZN3r2p15MessagePtrQueueC1EPPNS_7MessageEj
08011f20 g     F .text	00000012 .hidden __aeabi_dcmplt
080002e8 g     F .text	00000030 _port_init
080168a0  w    F .text	0000001e _ZN3r2p9PublisherINS_11String64MsgEE7publishEPS1_
20002838 g     O .bss	00000004 __malloc_max_sbrked_mem
0800d040 g     F .text	00000090 _ZN3r2p5TopicC2EPKcjb
0800a0cc g     F .text	0000002c rtcan_lld_tim_start_timer
08005fd0 g     F .text	000000a8 hal_lld_init
0801cad0 g     O .text	0000001c _ZTVN3r2p9TransportE
08011388 g     F .text	0000003a .hidden __extendsfdf2
08011684 g     F .text	000001d0 .hidden __aeabi_ddiv
0800809c g     F .text	00000034 usb_lld_start_out
08002940 g     F .text	00000068 chMBInit
08015a10  w    F .text	00000014 _ZN3r2p10Semaphore_13signal_unsafeEv
08013630  w    F .text	00000022 _ZN3r2p10StaticListINS_4NodeEE8IteratorppEv
08014d30  w    F .text	0000000e _ZNK3r2p10StaticListINS_16RemoteSubscriberEE15get_head_unsafeEv
080110cc g     F .text	00000276 .hidden __adddf3
08011960 g     F .text	0000005e .hidden __nesf2
08006d7c g     F .text	00000048 spi_lld_init
0800c848 g     F .text	00000098 _ZN3r2p4NodeC1EPKcb
08016570  w    F .text	00000024 _ZN3r2p9PublisherINS_6LedMsgEEC2Ev
08019fc0 g     F .text	000000c4 __b2d
08015290  w    F .text	00000018 _ZNK3r2p10StaticListINS_15RemotePublisherEE15is_empty_unsafeEv
08014f20  w    F .text	00000020 _ZN3r2p5MutexD2Ev
0800b5b4 g     F .text	0000004c _ZN3r2p10Middleware3addERNS_5TopicE
08011430 g     F .text	00000254 .hidden __aeabi_dmul
08001640 g     F .text	0000002c chSemWait
08001110 g     F .text	00000070 chThdExitS
08016020  w    F .text	00000038 _ZN3r2p22TimestampedMsgPtrQueue5EntryC1EPNS_7MessageERKNS_4TimeE
08015dd0  w    F .text	00000012 _ZNK3r2p11Checksummer5checkEh
08012800  w    F .text	0000003c _ZN3r2p10SpinEvent_13signal_unsafeEj
080161c0  w    F .text	00000018 _ZN3r2p22TimestampedMsgPtrQueueD2Ev
08010d08 g     F .text	00000018 _ZdlPv
08014550  w    F .text	0000002a _ZN3r2p10StaticListINS_15LocalSubscriberEE6unlinkERNS2_4LinkE
0801d050 g     O .text	00000004 _global_impure_ptr
08015e50  w    F .text	00000020 _ZN3r2p9SemaphoreD2Ev
08013f70  w    F .text	00000020 _ZNK3r2p10StaticListINS_9TransportEE8get_headEv
0800b12c g     F .text	0000001c _ZN3r2p15LocalSubscriberD0Ev
080047e8 g     F .text	0000000e sduInterruptTransmitted
08013bc0  w    F .text	00000030 _ZN3r2p9PublisherINS_7MgmtMsgEED1Ev
0801b290 g     F .text	000003ec _realloc_r
08012b20  w    F .text	00000012 _ZN3r2p7Message12reset_unsafeEv
0800d040 g     F .text	00000090 _ZN3r2p5TopicC1EPKcjb
20001228 g     O .bss	00000004 _ZN3r2p4Time9INFINITENE
0801d1d0 g       .text	00000000 __config_end__
08015610  w    F .text	00000030 _ZN3r2p10Bootloader12FlashAppInfo12compute_nextEPKS1_jj
20003190 g     O .bss	00000004 shell_terminated
080100a0 g     F .text	00000016 _ZN3r2p10Bootloader11reserve_ramEj
08015b40  w    F .text	0000003c _ZN3r2p13BasePublisher15publish_locallyERNS_7MessageE
080122b0 g     F .text	0000026a .hidden __udivdi3
0800fb3c g     F .text	000000b4 _ZNK3r2p14RTCANTransport16create_publisherERNS_5TopicEPKh
0800cfdc g     F .text	00000064 _ZNK3r2p5Topic16patch_pubsub_msgERNS_7MessageERNS_9TransportE
08015f90  w    F .text	0000001e _ZNK3r2p11StaticQueueINS_14BaseSubscriberEE11peek_unsafeERPKNS2_4LinkE
0801d140 g     O .text	00000028 __mprec_bigtens
08003c5c g     F .text	00000028 i2cAcquireBus
08019a60 g     F .text	00000098 __s2b
08000280  w    F .text	00000002 Vector148
08013890  w    F .text	00000028 _ZN3r2p4Node9subscribeINS_7MgmtMsgEEEbRNS_16SubscriberExtBufIT_EEPKcPS4_
08010244 g     F .text	000000bc _ZN3r2p8Flasher_7compareEtPVKt
0800e0e0 g     F .text	00000274 _ZN3r2p10Bootloader13write_appinfoEPKNS0_12FlashAppInfoERKNS_7BootMsg12LinkingSetupERKNS4_16LinkingAddressesERKNS4_14LinkingOutcomeE
08016530  w    F .text	00000014 _ZN3r2p8Flasher_7page_ofEPKh
08009218 g     F .text	0000006a rtcan_terr_isr_code
08011344 g     F .text	0000001e .hidden __floatunsidf
08013c70  w    F .text	0000001c _ZN3r2p16SubscriberExtBufINS_7MgmtMsgEED0Ev
08016850  w    F .text	00000028 _ZN3r2p4Node9advertiseINS_11String64MsgEEEbRNS_9PublisherIT_EEPKcRKNS_4TimeE
08010870 g     F .text	00000140 _ZN3r2p8Flasher_5eraseEPKhj
08019e50 g     F .text	00000046 __mcmp
08013cf0  w    F .text	00000030 _ZN3r2p16SubscriberExtBufINS_7BootMsgEEC1EPPS1_jPFbRKS1_E
08003a78 g     F .text	00000060 i2cStop
08012770  w    F .text	00000020 _ZN3r2p11StaticQueueINS_14BaseSubscriberEEC1Ev
08008104 g     F .text	00000034 usb_lld_stall_out
080167d0  w    F .text	00000024 _ZN3r2p9PublisherINS_11String64MsgEEC2Ev
08013cf0  w    F .text	00000030 _ZN3r2p16SubscriberExtBufINS_7BootMsgEEC2EPPS1_jPFbRKS1_E
080084f4 g     F .text	0000048c chvprintf
08004a44 g     F .text	00000064 spiStartSend
08003cec g     F .text	00000050 palWriteBus
08007188 g     F .text	00000072 spi_lld_polled_exchange
08012570  w    F .text	0000000e _ZNK3r2p11StaticList_15get_head_unsafeEv
20002a08 g     O .bss	00000408 dbg_trace_buffer
08008efc g     F .text	0000000c shellInit
0800c958 g     F .text	00000030 _ZN3r2p15RemotePublisherD2Ev
08016300  w    F .text	00000012 _ZN3r2p7Message21get_msg_from_raw_dataEPKh
0800ea30 g     F .text	00000066 _ZN3r2p10Bootloader10launch_allEv
0800a090 g     F .text	0000003c rtcan_lld_tim_stop
08012aa0  w    F .text	0000001a _ZN3r2p10StaticListINS_15LocalSubscriberEE4LinkC1ERS1_
08000280  w    F .text	00000002 PendSVVector
08015050  w    F .text	0000001c _ZN3r2p10StaticListINS_15RemotePublisherEEC1Ev
0801cd70  w    O .text	00000024 _ZTVN3r2p16SubscriberExtBufINS_7BootMsgEEE
0800e6e4 g     F .text	00000070 _ZN3r2p10Bootloader12get_free_appEv
0801cb90 g     O .text	00000024 _ZTVN3r2p15DebugSubscriberE
08016cd0 g     F .text	00000032 strnlen
08000280  w    F .text	00000002 Vector118
08013430  w    F .text	00000032 _ZN3r2p7ReMutexC1Eb
080118b0 g     F .text	0000009e .hidden __aeabi_d2f
080008c4 g     F .text	000000a0 chVTSetI
08014f80  w    F .text	00000028 _ZN3r2p10ScopedLockINS_5MutexEEC2ERS1_
08000280  w    F .text	00000002 Vector64
20003450 g       .bss	00000000 _bss_end
0800ac40 g     F .text	00000090 _ZN3r2p13BasePublisher7publishERNS_7MessageE
08002ce0 g     F .text	00000074 chMBFetchI
08013b70  w    F .text	0000001c _ZN3r2p10StaticListINS_9TransportEEC1Ev
08015920  w    F .text	0000000c _ZN3r2p10Bootloader16get_free_addressEv
20002e10 g     O .bss	00000004 dbg_panic_msg
0800a35c g     F .text	00000064 _ZN3r2p11SimplePool_4growEPvjj
08012770  w    F .text	00000020 _ZN3r2p11StaticQueueINS_14BaseSubscriberEEC2Ev
08012bd0  w    F .text	00000020 _ZNK3r2p4Time8to_s_rawEv
0800ad24 g     F .text	0000001c _ZN3r2p13BasePublisherD0Ev
08014d40  w    F .text	00000014 _ZN3r2p10StaticListINS_16RemoteSubscriberEE14IteratorUnsafeC2EPKNS2_4LinkE
080133f0  w    F .text	0000001a _ZN3r2p7ReMutex7acquireEv
080001a8  w    F .text	00000002 _default_exit
08014b00  w    F .text	00000016 _ZN3r2p10StaticListINS_16RemoteSubscriberEE14IteratorUnsafeppEv
080061ec g     F .text	00000122 _pal_lld_setgroupmode
080141c0  w    F .text	0000000e _ZNK3r2p10StaticListINS_4NodeEE15get_head_unsafeEv
080153c0  w    F .text	00000016 _ZN3r2p7Flasher10is_alignedEPKv
08009920 g     F .text	00000038 srt_laxity
08014d10  w    F .text	00000014 _ZN3r2p10StaticListINS_15LocalSubscriberEE14IteratorUnsafeC2EPKNS2_4LinkE
08014e00  w    F .text	00000020 _ZN3r2p22TimestampedMsgPtrQueue5EntryC1Ev
0800f338 g     F .text	0000028c _ZN3r2p14DebugTransport7spin_rxEv
08015a80  w    F .text	0000001a _ZN3r2p9Semaphore10initializeEl
08004d78 g     F .text	00000028 spiAcquireBus
20001220 g     O .bss	00000004 _ZN3r2p4Time9IMMEDIATEE
08004aa8 g     F .text	00000064 spiStartReceive
08019b00 g     F .text	00000040 __hi0bits
08010a88 g     F .text	00000042 _ZN3r2p7led2pinEj
08012ce0  w    F .text	00000016 _ZN3r2p7MessageC2Ev
08000280  w    F .text	00000002 VectorCC
080148c0  w    F .text	00000014 _ZN3r2p4TimeC1IiEET_
08013cb0  w    F .text	00000012 _ZN3r2p10StaticListINS_14LocalPublisherEE13ConstIteratorC1Ev
08012bf0  w    F .text	00000012 _ZN3r2p4TimeC1Ev
08011a14 g     F .text	00000012 .hidden __aeabi_fcmpge
20002eb0 g     O .bss	0000025c SD3
08011860 g     F .text	0000004e .hidden __fixdfsi
0800746c g     F .text	00000030 sd_lld_init
08015820  w    F .text	00000030 _ZN3r2p10Bootloader5fetchENS_7BootMsg8TypeEnumE
0800d7a4 g     F .text	00000044 _ZN3r2p10Bootloader7releaseEv
08001550 g     F .text	00000038 chSemInit
08015050  w    F .text	0000001c _ZN3r2p10StaticListINS_15RemotePublisherEEC2Ev
08016390  w    F .text	00000020 _ZN3r2p10MemoryPoolI11rtcan_msg_tED2Ev
08000280  w    F .text	00000002 Vector54
0800afe4 g     F .text	00000048 _ZN3r2p15LocalSubscriber5fetchERPNS_7MessageERNS_4TimeE
08015930  w    F .text	00000012 _ZN3r2p18compute_chunk_sizeIhEEjPKT_S3_
08014880  w    F .text	0000001a _ZN3r2p10StaticListINS_15RemotePublisherEE4LinkC2ERS1_
080140a0  w    F .text	00000016 _ZN3r2p10StaticListINS_4NodeEE13ConstIteratoraSERKS3_
08012b40  w    F .text	0000001a _ZN3r2p7SysLock5ScopeC1Ev
08009c50 g     F .text	0000001c Vector98
08014ed0  w    F .text	00000020 _ZN3r2p5MutexC1Ev
0800af30 g     F .text	00000030 _ZN3r2p14LocalPublisherC2Ev
08002a48 g     F .text	0000006c chMBPostS
0800c3ac g     F .text	00000154 _ZN3r2p10MiddlewareC1EPKcS2_PNS0_10PubSubStepEj
0800af90 g     F .text	0000001c _ZN3r2p14LocalPublisherD0Ev
08013530  w    F .text	00000020 _ZN3r2p7FlasherD2Ev
080159b0  w    F .text	0000001e _ZN3r2p16SubscriberExtBufINS_7BootMsgEE7releaseERS1_
0800f7bc g     F .text	0000001c _ZN3r2p14DebugTransportD0Ev
0801ce30  w    O .text	00000024 _ZTVN3r2p10SubscriberINS_6LedMsgELj5EEE
0801cbe8 g     O .text	0000001c _ZTVN3r2p14RTCANTransportE
08012880  w    F .text	00000024 _ZNK3r2p4Node11get_enabledEv
0800b1d0 g     F .text	00000038 _ZN3r2p7Message4copyERS0_RKS0_j
080160c0  w    F .text	0000001c _ZN3r2p22TimestampedMsgPtrQueue12fetch_unsafeERNS0_5EntryE
080139f0  w    F .text	00000022 _ZNK3r2p10StaticListINS_15LocalSubscriberEE7restartERNS2_13ConstIteratorE
08013570  w    F .text	00000014 _ZN3r2p4TimeC1IlEET_
0800fa78 g     F .text	00000044 _ZN3r2p14RTCANTransport7send_cbER11rtcan_msg_t
08014f40  w    F .text	00000016 _ZN3r2p10StaticListINS_15RemotePublisherEED2Ev
080130d0  w    F .text	0000000e _ZNK3r2p5Topic20get_max_queue_lengthEv
080154f0  w    F .text	0000000c _ZN3r2p7Flasher17get_program_startEv
08000280  w    F .text	00000002 VectorD8
08011950 g     F .text	0000006e .hidden __gtsf2
08014eb0  w    F .text	00000016 _ZN3r2p6Mutex_D2Ev
08014660  w    F .text	0000001a _ZN3r2p10StaticListINS_4NodeEE4LinkC1ERS1_
0800247c g     F .text	00000018 chEvtGetAndClearFlagsI
08014580  w    F .text	00000020 _ZN3r2p10StaticListINS_15LocalSubscriberEE5beginEv
0800d748 g     F .text	0000005c _ZN3r2p10Bootloader5fetchEv
08009f24 g     F .text	000000c8 rtcan_lld_can_addfilter
08000280  w    F .text	00000002 Vector138
0800afb0 g     F .text	00000034 _ZN3r2p15LocalSubscriber5fetchERPNS_7MessageE
080165d0  w    F .text	0000001c _ZN3r2p9PublisherINS_6LedMsgEED0Ev
08014b60  w    F .text	00000020 _ZN3r2p10StaticListINS_16RemoteSubscriberEE5beginEv
08015770  w    F .text	0000000e _ZNK3r2p10Bootloader8IteratordeEv
080110cc g     F .text	00000276 .hidden __aeabi_dadd
080096bc g     F .text	000000a4 rtcanGetTime
0800b074 g     F .text	00000080 _ZN3r2p15LocalSubscriberC2EPPNS_7MessageEjPFbRKS1_E
08013e50  w    F .text	00000064 _ZN3r2p10StaticListINS_5TopicEE16link_tail_unsafeERNS2_4LinkE
08006978 g     F .text	00000170 i2c_lld_master_receive_timeout
08000280  w    F .text	00000002 Vector24
08011e68 g     F .text	00000082 .hidden __ledf2
0800a508 g     F .text	0000003c _ZNK3r2p11StaticList_17find_first_unsafeEPFbPKvE
080007b0 g     F .text	00000028 chDbgCheckClassI
08001b1c g     F .text	00000026 chMtxLock
08008f58 g     F .text	0000002c shellCreateStatic
08006dc4 g     F .text	0000013c spi_lld_start
08010ce0 g     F .text	00000026 _ZnajP11memory_heap
08013b30  w    F .text	0000001c _ZN3r2p10StaticListINS_4NodeEEC1Ev
0801cdf0  w    O .text	00000024 _ZTVN3r2p16RemoteSubscriberE
08015e70  w    F .text	00000016 _ZN3r2p12StaticQueue_D2Ev
08011a00 g     F .text	00000012 .hidden __aeabi_fcmple
0800ffdc g     F .text	0000001c _ZN3r2p15RTCANSubscriberD0Ev
0800e80c g     F .text	00000122 _ZN3r2p10Bootloader17compute_addressesERKNS_7BootMsg12LinkingSetupERNS1_16LinkingAddressesE
0800236c g     F .text	00000030 chEvtGetAndClearFlags
08016940  w    F .text	00000034 _ZN3r2p5TopicD1Ev
08015ed0  w    F .text	0000001a _ZN3r2p11StaticQueueINS_14BaseSubscriberEE11post_unsafeERNS2_4LinkE
0800aa94 g     F .text	00000026 _ZN3r2p12StaticQueue_4skipEv
080165f0  w    F .text	00000028 _ZN3r2p4Node9advertiseINS_6LedMsgEEEbRNS_9PublisherIT_EEPKcRKNS_4TimeE
08019d00 g     F .text	000000a0 __pow5mult
08015e10  w    F .text	0000001c _ZN3r2p11ChecksummerC1Ev
08013010  w    F .text	00000030 _ZN3r2p4Node11set_enabledEb
080113c4 g     F .text	0000006a .hidden __aeabi_ul2d
080033c4 g     F .text	00000018 chCoreStatus
2000282c g     O .bss	00000004 __nlocale_changed
08007ca8 g     F .text	00000058 usb_lld_reset
08000d94 g     F .text	00000008 chSchDoReschedule
08012f60  w    F .text	00000010 _ZN3r2p10SpinEvent_10set_threadEPNS_6ThreadE
080004fc g     F .text	00000080 chSysInit
0800d2d0 g     F .text	00000022 _ZN3r2p9Transport12subscribe_cbERNS_5TopicEjPh
0800ff80 g     F .text	0000002c _ZN3r2p15RTCANSubscriberC1ERNS_14RTCANTransportEPNS_22TimestampedMsgPtrQueue5EntryEj
0801ce20  w    O .text	00000010 _ZZN3r2p14DebugTransport9send_byteEhmE3hex
08012550  w    F .text	00000008 _ZN3r2p7SysLock7acquireEv
08015850  w    F .text	00000016 _ZN3r2p10Bootloader11begin_writeEv
08010bd8 g     F .text	00000094 _ZN3r2p11ledsub_nodeEPv
0800ae60 g     F .text	00000018 _ZN3r2p19BaseSubscriberQueueC2Ev
08000280  w    F .text	00000002 Vector178
08013b70  w    F .text	0000001c _ZN3r2p10StaticListINS_9TransportEEC2Ev
0800547c g     F .text	0000004c usbPrepareQueuedReceive
08015740  w    F .text	00000014 _ZN3r2p10Bootloader8IteratorC1EPKNS0_12FlashAppInfoE
0800eaec g     F .text	00000104 _ZN3r2p14DebugTransport9recv_byteERhm
08015550  w    F .text	00000034 _ZN3r2p7Thread_11create_heapEPvjmPFlS1_ES1_PKc
080150f0  w    F .text	00000064 _ZN3r2p10StaticListINS_15RemotePublisherEE16link_tail_unsafeERNS2_4LinkE
080052cc g     F .text	000000a4 usbInitEndpointI
08001050 g     F .text	00000038 chThdSleep
08012fc0  w    F .text	00000018 _ZN3r2p9SpinEvent6signalEj
0801cd20  w    O .text	00000024 _ZTVN3r2p14BaseSubscriberE
08002dec g     F .text	0000004e chIQInit
08015db0  w    F .text	00000012 _ZNK3r2p11Checksummer16compute_checksumEv
08013b30  w    F .text	0000001c _ZN3r2p10StaticListINS_4NodeEEC2Ev
08004050 g     F .text	00000044 sdRequestDataI
080140c0  w    F .text	00000020 _ZNK3r2p10StaticListINS_14LocalPublisherEE5beginEv
0800a544 g     F .text	00000050 _ZNK3r2p11StaticList_17find_first_unsafeEPFbPKvS2_ES2_
08016900  w    F .text	00000016 _ZN3r2p10StaticListINS_9TransportEED2Ev
0801c2c0 g     O .text	00000090 _stm32_dma_streams
20002588 g     O .bss	000002a0 _ZN3r2p10Middleware8instanceE
0800a2d8 g     F .text	0000001e _ZN3r2p11SimplePool_11free_unsafeEPv
0800a118 g     F .text	00000020 rtcan_lld_tim_set_interval
08005c0c g     F .text	00000048 Vector84
08015500  w    F .text	0000000c _ZN3r2p7Flasher15get_program_endEv
08013b90  w    F .text	00000024 _ZN3r2p9PublisherINS_7MgmtMsgEEC1Ev
0800fd08 g     F .text	00000098 _ZN3r2p14RTCANTransportC1ER11RTCANDriver
0800b600 g     F .text	000000ec _ZN3r2p10Middleware9advertiseERNS_14LocalPublisherEPKcRKNS_4TimeEj
08012f00  w    F .text	0000002a _ZN3r2p6Thread13create_staticEPvjmPFlS1_ES1_PKc
080133a0  w    F .text	00000044 _ZN3r2p7ReMutex14release_unsafeEv
0800fde8 g     F .text	0000001c _ZN3r2p14RTCANTransportD0Ev
08014280  w    F .text	0000000e _ZNK3r2p10StaticListINS_14LocalPublisherEE15get_head_unsafeEv
200010e8 g       .data	00000000 __data_end__
08015900  w    F .text	0000001c _ZN3r2p10Bootloader3endEv
08040000 g       *ABS*	00000000 __program_end__
08013ab0  w    F .text	00000022 _ZN3r2p10StaticListINS_15LocalSubscriberEE13ConstIteratorppEv
080055f4 g     F .text	00000050 usbStallReceiveI
08007fec g     F .text	000000b0 usb_lld_prepare_transmit
0800ccd0 g     F .text	00000088 _ZN3r2p5Topic13notify_localsERNS_7MessageERKNS_4TimeE
080002a0 g     F .text	00000028 SysTickVector
08013530  w    F .text	00000020 _ZN3r2p7FlasherD1Ev
080053e4 g     F .text	0000004c usbPrepareReceive
08014800  w    F .text	00000054 _ZN3r2p10StaticListINS_14LocalPublisherEE13unlink_unsafeERNS2_4LinkE
0800b6ec g     F .text	00000054 _ZN3r2p10Middleware9advertiseERNS_15RemotePublisherEPKcRKNS_4TimeEj
08013470  w    F .text	00000010 _ZNK3r2p10Middleware10is_stoppedEv
08010d20 g     F .text	0000001a _ZdlPvP11memory_heap
08004808 g     F .text	00000028 spiObjectInit
0800b074 g     F .text	00000080 _ZN3r2p15LocalSubscriberC1EPPNS_7MessageEjPFbRKS1_E
0801ca10 g     O .text	00000024 _ZTVN3r2p15LocalSubscriberE
0800a024 g     F .text	0000006c rtcan_lld_tim_start
0800b560 g     F .text	00000034 _ZN3r2p10Middleware3addERNS_4NodeE
08011f5c g     F .text	00000012 .hidden __aeabi_dcmpgt
0800c51c g     F .text	00000114 _ZN3r2p10Middleware12boot_threadfEPv
08010170 g     F .text	00000060 _ZN3r2p8Flasher_9is_erasedEt
08002094 g     F .text	0000002c chCondWait
08015e10  w    F .text	0000001c _ZN3r2p11ChecksummerC2Ev
0800ba1c g     F .text	000006a8 _ZN3r2p10Middleware14do_mgmt_threadEv
08013570  w    F .text	00000014 _ZN3r2p4TimeC2IlEET_
20002e14 g     O .bss	00000004 dbg_isr_cnt
08012730  w    F .text	00000034 _ZN3r2p5Topic8has_nameERKS0_PKc
08015b00  w    F .text	00000030 _ZN3r2p9SemaphoreC2Ebl
08007eec g     F .text	00000038 usb_lld_get_status_in
08006078 g     F .text	000000b0 stm32_clock_init
08014470  w    F .text	00000016 _ZN3r2p10StaticListINS_14LocalPublisherEED2Ev
08015690  w    F .text	00000022 _ZNK3r2p10Bootloader12FlashAppInfo8get_nextEv
08014760  w    F .text	00000054 _ZN3r2p10StaticListINS_15LocalSubscriberEE13unlink_unsafeERNS2_4LinkE
080198a0 g     F .text	00000092 memchr
0800fc4c g     F .text	000000bc _ZN3r2p14RTCANTransport10initializeERK11RTCANConfig
08012ac0  w    F .text	00000054 _ZN3r2p10ArrayQueueIPNS_7MessageEEC2EPS2_j
0800d53c g     F .text	0000007e _ZN3r2p13is_identifierEPKcj
08016ad0 g     F .text	00000044 _sprintf_r
20003450 g       .bss	00000000 __bss_end__
08006174 g     F .text	00000078 _pal_lld_init
0800ccb0 g     F .text	00000020 _ZN3r2p5Topic5allocEv
0801b010 g     F .text	000001b0 _free_r
08003830 g     F .text	00000054 chPoolAllocI
0800a3dc g     F .text	0000002e _ZN3r2p11SimplePool_C1EPvjj
08019320 g     F .text	0000000c __locale_mb_cur_max
08011f48 g     F .text	00000012 .hidden __aeabi_dcmpge
08016550  w    F .text	0000001c _ZN3r2p8Flasher_18get_program_lengthEv
08003eb8 g     F .text	00000008 sdInit
0800ffac g     F .text	00000030 _ZN3r2p15RTCANSubscriberD2Ev
200011e4 g     O .bss	00000004 last_sync_tim
08002bc8 g     F .text	00000070 chMBPostAheadI
08000280  w    F .text	00000002 BusFaultVector
08015b00  w    F .text	00000030 _ZN3r2p9SemaphoreC1Ebl
0800aae0 g     F .text	00000090 _ZN3r2p13BasePublisher14publish_unsafeERNS_7MessageE
20002830 g     O .bss	00000004 __mlocale_changed
08014310  w    F .text	0000001e _ZN3r2peqERKNS_4TimeES2_
080110c8 g     F .text	0000027a .hidden __aeabi_dsub
08000280  w    F .text	00000002 VectorD0
08015790  w    F .text	00000020 _ZN3r2p10Bootloader8IteratorppEv
080081b4 g     F .text	00000044 usb_lld_clear_in
200010e4 g     O .data	00000004 __malloc_sbrk_base
08016360  w    F .text	0000000e _ZNK3r2p10Middleware10get_topicsEv
08007bf8 g     F .text	00000010 usb_lld_init
080132f0  w    F .text	00000016 _ZN3r2p5Mutex14release_unsafeEv
08003310 g     F .text	00000038 _core_init
08001da8 g     F .text	000000c8 chMtxUnlockS
080037e8 g     F .text	00000048 chPoolLoadArray
08012d20  w    F .text	00000028 _ZN3r2p13BasePublisher17notify_advertisedERNS_5TopicE
0800ca24 g     F .text	0000001c _ZN3r2p16RemoteSubscriberD0Ev
08000fdc g     F .text	00000040 chThdResume
08016750  w    F .text	00000030 _ZN3r2p16SubscriberExtBufINS_6LedMsgEEC1EPPS1_jPFbRKS1_E
08016980  w    F .text	00000072 _ZN3r2p10MiddlewareD2Ev
080113c4 g     F .text	0000006a .hidden __floatundidf
0800a190 g     F .text	00000008 __cxa_pure_virtual
0800de90 g     F .text	000001bc _ZN3r2p10Bootloader11do_setparamEv
08014ba0  w    F .text	0000001e _ZNK3r2p10StaticListINS_16RemoteSubscriberEE8IteratorneERKS3_
08001c4c g     F .text	00000032 chMtxTryLock
0801cb00 g     O .text	00000004 _ZN3r2p10Bootloader20an_invalid_signatureE
0800b2bc g     F .text	0000012c _ZN3r2p10Middleware5startEv
08003f24 g     F .text	0000005c sdStart
08012b90  w    F .text	00000018 _ZN3r2p11MemoryPool_12alloc_unsafeEv
0801cb48 g     O .text	0000001c _ZTVN3r2p14DebugTransportE
08019da0 g     F .text	000000aa __lshift
08040000 g       *ABS*	00000000 __flash_end__
0800b740 g     F .text	00000134 _ZN3r2p10Middleware9subscribeERNS_15LocalSubscriberEPKcPNS_7MessageEjj
08010da4 g     F .text	00000036 _Z19usb_lld_connect_busP9USBDriver
0800f740 g     F .text	0000007c _ZN3r2p14DebugTransportD2Ev
08000280  w    F .text	00000002 Vector140
08013b20  w    F .text	00000010 _ZNK3r2p10StaticListINS_9TransportEE8IteratorptEv
0801a360 g     F .text	00000104 __ssprint_r
080145e0  w    F .text	00000022 _ZN3r2p10StaticListINS_15LocalSubscriberEE8IteratorppEv
08015420  w    F .text	0000001a _ZN3r2p7Flasher3endEv
0800aa68 g     F .text	0000002a _ZN3r2p12StaticQueue_5fetchERNS0_4LinkE
0800ab70 g     F .text	00000068 _ZN3r2p13BasePublisher22publish_locally_unsafeERNS_7MessageE
08000280  w    F .text	00000002 VectorE4
080149f0  w    F .text	00000018 _ZNK3r2p10StaticListINS_16RemoteSubscriberEE15is_empty_unsafeEv
0801cda0  w    O .text	00000024 _ZTVN3r2p16SubscriberExtBufINS_7MgmtMsgEEE
08012f40  w    F .text	00000012 _ZN3r2p6Thread5sleepERKNS_4TimeE
08018240 g     F .text	000000a4 __register_exitproc
08001e70 g     F .text	00000088 chMtxUnlockAll
08016120  w    F .text	00000034 _ZN3r2p15DebugSubscriber6notifyERNS_7MessageERKNS_4TimeE
08015070  w    F .text	0000001a _ZN3r2p10StaticListINS_9TransportEE4LinkC2ERS1_
0800e04c g     F .text	0000001a _ZN3r2p10Bootloader6do_ackEv
080059ac g     F .text	000000a8 _usb_ep0out
08003884 g     F .text	0000002c chPoolAlloc
08000280  w    F .text	00000002 VectorC0
08012560  w    F .text	00000008 _ZN3r2p7SysLock7releaseEv
08015090  w    F .text	00000060 _ZNK3r2p10StaticListINS_15RemotePublisherEE10find_firstEPFbRKS1_PKvES6_
08016bc0 g     F .text	00000096 strncmp
08000280  w    F .text	00000002 Vector158
08014410  w    F .text	0000001c _ZN3r2p9SpinEvent4waitERKNS_4TimeE
20000820 g     O .data	00000008 _ZN3r2p19default_ledpub_confE
08015cd0  w    F .text	00000080 _ZN3r2p14DebugTransport9send_byteEhm
08014f20  w    F .text	00000020 _ZN3r2p5MutexD1Ev
08014490  w    F .text	00000016 _ZN3r2p10StaticListINS_15LocalSubscriberEED2Ev
08005430 g     F .text	0000004c usbPrepareTransmit
08015ae0  w    F .text	00000016 _ZN3r2p10Semaphore_D2Ev
0800aabc g     F .text	00000022 _ZN3r2p12StaticQueue_C2Ev
08005d70 g     F .text	00000048 Vector130
08015070  w    F .text	0000001a _ZN3r2p10StaticListINS_9TransportEE4LinkC1ERS1_
08013660  w    F .text	00000010 _ZNK3r2p10StaticListINS_4NodeEE8IteratorptEv
08000390 g     F .text	00000014 _port_switch
080161c0  w    F .text	00000018 _ZN3r2p22TimestampedMsgPtrQueueD1Ev
08008298 g     F .text	00000030 evtStop
08019bc0 g     F .text	00000134 __multiply
08016470  w    F .text	00000034 _ZN3r2p15RTCANSubscriber6notifyERNS_7MessageERKNS_4TimeE
0800275c g     F .text	00000084 chEvtWaitAllTimeout
08013310  w    F .text	0000002c _ZN3r2p5MutexC1Eb
080162c0  w    F .text	0000000e _ZNK3r2p10ArrayQueueINS_22TimestampedMsgPtrQueue5EntryEE10get_lengthEv
0800ec44 g     F .text	00000050 _ZN3r2p14DebugTransport10recv_chunkEPvjm
0800cf24 g     F .text	00000040 _ZN3r2p5Topic9advertiseERNS_15RemotePublisherERKNS_4TimeE
08012610  w    F .text	0000000c _ZN3r2p10UncopyableD1Ev
0800e64c g     F .text	00000058 _ZN3r2p10BootloaderC2EPtRNS_9PublisherINS_7BootMsgEEERNS_16SubscriberExtBufIS3_EE
0800cfa0 g     F .text	0000003a _ZN3r2p5Topic9subscribeERNS_16RemoteSubscriberEj
08016c60 g     F .text	00000066 strncpy
20002840 g     O .bss	00000028 __malloc_current_mallinfo
080149c0  w    F .text	00000020 _ZNK3r2p5Topic22has_remote_subscribersEv
08013c10  w    F .text	00000030 _ZN3r2p16SubscriberExtBufINS_7MgmtMsgEEC2EPPS1_jPFbRKS1_E
08013d50  w    F .text	0000001c _ZN3r2p16SubscriberExtBufINS_7BootMsgEED0Ev
08002c6c g     F .text	00000074 chMBFetchS
08012ce0  w    F .text	00000016 _ZN3r2p7MessageC1Ev
0800166c g     F .text	0000008c chSemWaitS
08011960 g     F .text	0000005e .hidden __eqsf2
0801a090 g     F .text	000000b6 __d2b
080002c8 g     F .text	0000001e SVCallVector
080142c0  w    F .text	00000014 _ZN3r2p10StaticListINS_15LocalSubscriberEE13ConstIteratorC2EPKNS2_9ConstLinkE
08016b70 g     F .text	00000044 strcasecmp
080001a4  w    F .text	00000002 __late_init
0800ff30 g     F .text	00000010 _ZN3r2p15RTCANSubscriber12fetch_unsafeERPNS_7MessageERNS_4TimeE
0800282c g     F .text	00000078 chMsgSend
08016570  w    F .text	00000024 _ZN3r2p9PublisherINS_6LedMsgEEC1Ev
08000878 g     F .text	0000001c chDbgPanic
08006f00 g     F .text	00000054 spi_lld_stop
08014ae0  w    F .text	0000001e _ZNK3r2p10StaticListINS_16RemoteSubscriberEE14IteratorUnsafeneERKS3_
20002e1c g     O .bss	00000010 vtlist
08000280  w    F .text	00000002 HardFaultVector
08000318 g     F .text	00000068 _port_irq_epilogue
080162d0  w    F .text	0000000e _ZNK3r2p10ArrayQueueINS_22TimestampedMsgPtrQueue5EntryEE9get_countEv
08014bf0  w    F .text	00000010 _ZNK3r2p10StaticListINS_16RemoteSubscriberEE8IteratorptEv
08015780  w    F .text	0000000e _ZNK3r2p10Bootloader8IteratorcvPKNS0_12FlashAppInfoEEv
08015ae0  w    F .text	00000016 _ZN3r2p10Semaphore_D1Ev
08000280  w    F .text	00000002 Vector134
08010480 g     F .text	00000070 _ZN3r2p8Flasher_15write_if_neededEtPVKt
0800e068 g     F .text	00000038 _ZN3r2p10Bootloader8do_errorEmPKc
080159d0  w    F .text	0000000e _ZN3r2p7Message16get_payload_sizeINS_7BootMsgEEEjv
0801db38 g       .textalign	00000000 __program_start__
08013f90  w    F .text	00000014 _ZN3r2p10StaticListINS_9TransportEE8IteratorC2EPKNS2_4LinkE
08016a10 g     F .text	00000014 __cxa_atexit
0800f604 g     F .text	0000013c _ZN3r2p14DebugTransportC2EPKcP11BaseChannelPc
08013150  w    F .text	00000028 _ZN3r2p5Topic12alloc_unsafeEv
0800f9cc g     F .text	0000001c _ZN3r2p15DebugSubscriberD0Ev
080127f0  w    F .text	0000000e _ZNK3r2p10SpinEvent_10get_threadEv
08013c40  w    F .text	00000030 _ZN3r2p16SubscriberExtBufINS_7MgmtMsgEED1Ev
080022dc g     F .text	0000003c chEvtAddEvents
08003348 g     F .text	0000002c chCoreAlloc
08015520  w    F .text	0000000c _ZN3r2p7Flasher11get_ram_endEv
08008f30 g     F .text	00000028 shellCreate
08008314 g     F .text	0000000e _close_r
08014430  w    F .text	00000022 _ZN3r2p9SpinEventC1EPNS_6ThreadE
08001f98 g     F .text	0000004c chCondSignal
08011364 g     F .text	00000022 .hidden __aeabi_i2d
080091b4 g     F .text	00000062 rtcan_alst_isr_code
08003bb8 g     F .text	000000a4 i2cMasterReceiveTimeout
08003558 g     F .text	000000e4 chHeapAlloc
080007d8 g     F .text	00000028 chDbgCheckClassS
0800f948 g     F .text	0000004c _ZN3r2p15DebugSubscriberC1ERNS_14DebugTransportEPNS_22TimestampedMsgPtrQueue5EntryEj
08001210 g     F .text	00000048 chThdAddRef
08012fe0  w    F .text	0000000e _ZNK3r2p4Node8get_nameEv
08000280  w    F .text	00000002 VectorF0
08015340  w    F .text	0000001a _ZN3r2p8Flasher_10align_nextEPKh
0800d4d0 g     F .text	0000006a _ZN3r2p13is_identifierEPKc
08015740  w    F .text	00000014 _ZN3r2p10Bootloader8IteratorC2EPKNS0_12FlashAppInfoE
08012790  w    F .text	0000001e _ZN3r2p11Checksummer3addEh
0801cd60  w    O .text	00000010 _ZTVN3r2p9PublisherINS_7BootMsgEEE
08005d28 g     F .text	00000048 Vector12C
20002e80 g     O .bss	00000030 SPID2
08016060  w    F .text	0000002a _ZN3r2p22TimestampedMsgPtrQueue5EntryC2ERKS1_
08013df0  w    F .text	00000028 _ZN3r2p4Node9advertiseINS_7BootMsgEEEbRNS_9PublisherIT_EEPKcRKNS_4TimeE
0800f900 g     F .text	00000048 _ZN3r2p15DebugSubscriber12fetch_unsafeERPNS_7MessageERNS_4TimeE
0800e7ac g     F .text	00000060 _ZN3r2p10Bootloader7get_appEPKc
0800e354 g     F .text	000001d4 _ZN3r2p10Bootloader12process_ihexERKNS_10IhexRecordERKNS_7BootMsg12LinkingSetupERKNS4_16LinkingAddressesE
08012b60  w    F .text	0000001a _ZN3r2p7SysLock5ScopeD1Ev
08013da0  w    F .text	00000030 _ZN3r2p9PublisherINS_7BootMsgEED2Ev
08013bc0  w    F .text	00000030 _ZN3r2p9PublisherINS_7MgmtMsgEED2Ev
08014b80  w    F .text	00000018 _ZN3r2p10StaticListINS_16RemoteSubscriberEE3endEv
08000280  w    F .text	00000002 Vector13C
08012000  w    F .text	00000002 .hidden __aeabi_ldiv0
08015360  w    F .text	00000018 _ZN3r2p8Flasher_17get_program_startEv
0800a16c g     F .text	0000001c rtcan_lld_tim_set_counter
08013a50  w    F .text	00000022 _ZN3r2p10StaticListINS_14LocalPublisherEE13ConstIteratorppEv
08003484 g     F .text	0000004c chCoreUnreserveI
08011684 g     F .text	000001d0 .hidden __divdf3
0800a9b4 g     F .text	00000020 _ZNK3r2p12StaticQueue_8get_headEv
0801a1f0 g     F .text	00000046 __copybits
0800f740 g     F .text	0000007c _ZN3r2p14DebugTransportD1Ev
08015590  w    F .text	0000002a _ZN3r2p6Thread11create_heapEPvjmPFlS1_ES1_PKc
08003cb0 g     F .text	0000003c palReadBus
0800fb18 g     F .text	00000022 _ZN3r2p14RTCANTransport11free_headerER11rtcan_msg_t
0800a2b0 g     F .text	00000028 _ZN3r2p11SimplePool_12alloc_unsafeEv
08005694 g     F .text	00000064 _usb_reset
08014620  w    F .text	0000001c _ZN3r2p10StaticListINS_14LocalPublisherEEC1Ev
20000cd8 g     O .data	00000408 __malloc_av_
08013690  w    F .text	00000044 _ZN3r2p10StaticListINS_4NodeEE11link_unsafeERNS2_4LinkE
08012520  w    F .text	0000000c _ZN3r2p10UncopyableC2Ev
0800cd58 g     F .text	000000ae _ZN3r2p5Topic14notify_remotesERNS_7MessageERKNS_4TimeE
08013670  w    F .text	0000001c _ZN3r2p9PublisherINS_7MgmtMsgEE5allocERPS1_
08000280  w    F .text	00000002 Vector100
08000774 g     F .text	0000003c dbg_check_leave_isr
08011430 g     F .text	00000254 .hidden __muldf3
08015380  w    F .text	00000014 _ZN3r2p8Flasher_15get_program_endEv
0800c9b0 g     F .text	00000044 _ZN3r2p16RemoteSubscriberC1ERNS_9TransportE
08014a10  w    F .text	00000020 _ZN3r2p10StaticListINS_15LocalSubscriberEE12begin_unsafeEv
0801d250 g       .textalign	00000000 _textdata
08013510  w    F .text	00000018 _ZN3r2p7BootMsgC1Ev
08007010 g     F .text	0000007e spi_lld_exchange
08000280  w    F .text	00000002 VectorE0
08016320  w    F .text	00000032 _ZN3r2p11MemoryPool_C2EPvjj
08010300 g     F .text	0000004c _ZN3r2p8Flasher_4readEtPt
080001a0 g       .text	00000000 _text
080134f0  w    F .text	00000018 _ZN3r2p7MgmtMsgC1Ev
08000280  w    F .text	00000002 VectorF4
08015a50  w    F .text	0000002e _ZN3r2p10Semaphore_C1Ebl
080152b0  w    F .text	0000002e _ZN3r2p12check_boundsEPKvjS1_j
08000280  w    F .text	00000002 MemManageVector
08013ae0  w    F .text	0000003e _ZNK3r2p10StaticListINS_9TransportEE5countEv
08019940 g     F .text	00000002 __malloc_lock
08013480  w    F .text	0000002c _ZN3r2p10Middleware23preload_bootloader_modeEb
0800950c g     F .text	00000058 rtcanStop
08002ab4 g     F .text	0000006c chMBPostI
0801d1d8 g       constructors	00000000 __fini_array_start
08014fb0  w    F .text	00000020 _ZN3r2p10ScopedLockINS_5MutexEED1Ev
08016250  w    F .text	00000066 _ZN3r2p10ArrayQueueINS_22TimestampedMsgPtrQueue5EntryEE12fetch_unsafeERS2_
0800f5c4 g     F .text	00000020 _ZN3r2p14DebugTransport10rx_threadfEPv
080131f0  w    F .text	0000001e _ZN3r2p5Topic11extend_poolEPNS_7MessageEj
08010a40 g     F .text	00000048 _ZN3r2p8led2gpioEj
08013c40  w    F .text	00000030 _ZN3r2p16SubscriberExtBufINS_7MgmtMsgEED2Ev
0800c9b0 g     F .text	00000044 _ZN3r2p16RemoteSubscriberC2ERNS_9TransportE
0801af10 g     F .text	0000005e _calloc_r
08016660  w    F .text	00000018 _ZN3r2p6LedMsgC2Ev
080126a0  w    F .text	0000001e _ZN3r2p11MemoryPool_11free_unsafeEPv
08012d10  w    F .text	0000000e _ZNK3r2p13BasePublisher9get_topicEv
08011960 g     F .text	0000005e .hidden __cmpsf2
08013980  w    F .text	00000022 _ZN3r2p10StaticListINS_4NodeEE13ConstIteratorppEv
08009958 g     F .text	00000102 srt_transmit
08014880  w    F .text	0000001a _ZN3r2p10StaticListINS_15RemotePublisherEE4LinkC1ERS1_
08013a80  w    F .text	00000018 _ZNK3r2p10StaticListINS_15LocalSubscriberEE13ConstIterator8is_validEv
08012bb0  w    F .text	0000001c _ZN3r2p11MemoryPool_6extendEPvj
080028a4 g     F .text	00000054 chMsgWait
0800b170 g     F .text	0000001a _ZN3r2p7Message7acquireEv
08014fd0  w    F .text	0000001e _ZNK3r2p10StaticListINS_15RemotePublisherEE10find_firstIPFbRKNS_13BasePublisherEPKcEcEEPS1_T_PKT0_
08015b30  w    F .text	0000000e _ZNK3r2p5Topic19get_publish_timeoutEv
08001088 g     F .text	0000003c chThdSleepUntil
08016a30 g     F .text	0000009a memset
080164b0  w    F .text	00000034 _ZN3r2p15RTCANSubscriber5fetchERPNS_7MessageERNS_4TimeE
0800f860 g     F .text	0000001a _ZNK3r2p15DebugSubscriber16get_queue_lengthEv
08010ebc g     F .text	00000174 main
0800feb0 g     F .text	00000028 _ZN3r2p14RTCANPublisherC2ERNS_9TransportE
08005a60 g     F .text	00000044 Vector6C
08012990  w    F .text	00000016 _ZN3r2p10ArrayQueueIPNS_7MessageEED2Ev
08014b30  w    F .text	0000002a _ZN3r2p5Topic12alloc_unsafeINS_7MessageEEEbRPT_
20002834 g     O .bss	00000004 __malloc_max_total_mem
0800a9f4 g     F .text	00000026 _ZNK3r2p12StaticQueue_8is_emptyEv
08009c6c g     F .text	00000018 rtcan_lld_can_init
0800f948 g     F .text	0000004c _ZN3r2p15DebugSubscriberC2ERNS_14DebugTransportEPNS_22TimestampedMsgPtrQueue5EntryEj
08012b80  w    F .text	0000000e _ZNK3r2p11MemoryPool_13get_item_sizeEv
20002e2c g     O .bss	0000001c rlist
08009494 g     F .text	00000078 rtcanStart
08001430 g     F .text	0000003c chRegFirstThread
0800c9f4 g     F .text	00000030 _ZN3r2p16RemoteSubscriberD1Ev
08000280  w    F .text	00000002 VectorA0
08013da0  w    F .text	00000030 _ZN3r2p9PublisherINS_7BootMsgEED1Ev
0800aef0 g     F .text	00000036 _ZN3r2p11Checksummer3addEPKhj
08011958 g     F .text	00000066 .hidden __ltsf2
08004800 g     F .text	00000008 spiInit
08004da0 g     F .text	00000020 spiReleaseBus
08014aa0  w    F .text	00000020 _ZN3r2p10StaticListINS_16RemoteSubscriberEE12begin_unsafeEv
08005370 g     F .text	00000074 usbDisableEndpointsI
08016640  w    F .text	0000001e _ZN3r2p9PublisherINS_6LedMsgEE7publishERS1_
08002c38 g     F .text	00000034 chMBFetch
08015fd0  w    F .text	00000020 _ZN3r2p14DebugTransport10recv_valueIlEEbRT_m
08010d3c g     F .text	00000018 _ZdaPv
08000738 g     F .text	0000003c dbg_check_enter_isr
0800cac0 g     F .text	00000088 _ZN3r2p5Topic20notify_locals_unsafeERNS_7MessageERKNS_4TimeE
0800966c g     F .text	00000050 rtcanReceiveMask
0800f7e0 g     F .text	00000028 _ZN3r2p14DebugPublisherC2ERNS_9TransportE
2000310c g     O .bss	00000084 USBD1
0800b8d8 g     F .text	00000068 _ZN3r2p10Middleware12confirm_stopERKNS_4NodeE
08006ae8 g     F .text	000001a8 i2c_lld_master_transmit_timeout
08010050 g     F .text	00000044 _ZN3r2p4Time3nowEv
08012a40  w    F .text	00000060 _ZN3r2p10ArrayQueueIPNS_7MessageEE11post_unsafeES2_
080118b0 g     F .text	0000009e .hidden __truncdfsf2
0800446c g     F .text	000000c0 sduStop
080168c0  w    F .text	00000016 _ZN3r2p10StaticListINS_4NodeEED2Ev
08016060  w    F .text	0000002a _ZN3r2p22TimestampedMsgPtrQueue5EntryC1ERKS1_
080017cc g     F .text	00000084 chSemSignal
0801d1d8 g       constructors	00000000 __init_array_end
08003d3c g     F .text	00000040 palSetBusMode
08003f80 g     F .text	00000070 sdStop
08018420 g     F .text	00000e94 _dtoa_r
08019380 g     F .text	0000051c _malloc_r
080113d4 g     F .text	0000005a .hidden __aeabi_l2d
08006748 g     F .text	00000038 VectorC4
08005b7c g     F .text	00000048 Vector7C
0800d4ac g     F .text	0000001c _ZN3r2p9TransportD0Ev
08014430  w    F .text	00000022 _ZN3r2p9SpinEventC2EPNS_6ThreadE
08014e50  w    F .text	0000001c _ZN3r2p6Mutex_C2Ev
0800b3e8 g     F .text	000000c4 _ZN3r2p10Middleware4stopEv
08014120  w    F .text	00000016 _ZN3r2p10StaticListINS_15LocalSubscriberEE13ConstIteratoraSERKS3_
08000280  w    F .text	00000002 Vector180
08005f08 g     F .text	00000098 dmaStreamRelease
080166d0  w    F .text	00000030 _ZN3r2p10SubscriberINS_6LedMsgELj5EED2Ev
08013700  w    F .text	00000020 _ZN3r2p10StaticListINS_9TransportEE5beginEv
08015e90  w    F .text	00000020 _ZN3r2p11StaticQueueINS_14BaseSubscriberEED2Ev
08014230  w    F .text	00000018 _ZNK3r2p10StaticListINS_9TransportEE15is_empty_unsafeEv
08009284 g     F .text	000001a2 rtcan_rx_isr_code
08001aec g     F .text	00000030 chMtxInit
080154a0  w    F .text	00000024 _ZN3r2p7FlasherC1EPt
08012520  w    F .text	0000000c _ZN3r2p10UncopyableC1Ev
080004e0 g     F .text	0000001c _idle_thread
08013940  w    F .text	00000022 _ZNK3r2p10StaticListINS_4NodeEE7restartERNS2_13ConstIteratorE
0800244c g     F .text	0000002e chEvtBroadcastFlags
08013120  w    F .text	00000022 _ZNK3r2p5Topic23compute_deadline_unsafeERKNS_4TimeE
08015990  w    F .text	0000001c _ZN3r2p16SubscriberExtBufINS_7BootMsgEE5fetchERPS1_
08003240 g     F .text	000000c8 chOQWriteTimeout
080119c8 g     F .text	00000010 .hidden __aeabi_cfcmple
0800fda0 g     F .text	00000048 _ZN3r2p14RTCANTransportD1Ev
08013210  w    F .text	00000016 _ZN3r2p8Flasher_D1Ev
08009d00 g     F .text	00000064 rtcan_lld_can_stop
08000280  w    F .text	00000002 VectorB0
0801af70 g     F .text	0000009c _malloc_trim_r
08010518 g     F .text	00000032 _ZN3r2p8Flasher_3endEv
08002128 g     F .text	00000030 chCondWaitTimeout
0801b850 g     O .text	00000016 ch_debug
080051e0 g     F .text	00000084 usbStart
0800d67c g     F .text	00000068 _ZN3r2p10Bootloader5allocEv
080161a0  w    F .text	00000016 _ZN3r2p10ArrayQueueINS_22TimestampedMsgPtrQueue5EntryEED2Ev
08009c18 g     F .text	0000001c Vector90
08015d50  w    F .text	00000022 _ZN3r2p14DebugTransport10send_valueIhEEbRKT_m
080023dc g     F .text	00000070 chEvtSignalI
08014250  w    F .text	0000000e _ZNK3r2p10StaticListINS_9TransportEE15get_head_unsafeEv
0800a7b8 g     F .text	0000001c _ZN3r2p11StaticList_C2Ev
08016940  w    F .text	00000034 _ZN3r2p5TopicD2Ev
08011b88 g     F .text	000002dc strcmp
20002e18 g     O .bss	00000004 dbg_lock_cnt
0800acf8 g     F .text	0000002c _ZN3r2p13BasePublisherD1Ev
08016390  w    F .text	00000020 _ZN3r2p10MemoryPoolI11rtcan_msg_tED1Ev
0800459c g     F .text	00000078 sduRequestsHook
08014ac0  w    F .text	00000018 _ZN3r2p10StaticListINS_16RemoteSubscriberEE10end_unsafeEv
0800250c g     F .text	0000006c chEvtWaitOne
0800a3c0 g     F .text	0000001c _ZN3r2p11SimplePool_C1Ev
08000280  w    F .text	00000002 Vector114
20000000 g       .noreset	00000000 __ram_start__
08014660  w    F .text	0000001a _ZN3r2p10StaticListINS_4NodeEE4LinkC2ERS1_
08012f70  w    F .text	0000002a _ZN3r2p10SpinEvent_6signalEj
080003a4 g     F .text	00000016 _port_thread_start
0800c328 g     F .text	00000084 _ZN3r2p10Middleware25do_cmd_subscribe_responseERKNS_7MgmtMsgE
0800c848 g     F .text	00000098 _ZN3r2p4NodeC2EPKcb
08000280  w    F .text	00000002 Vector164
08000280  w    F .text	00000002 Vector60
080038b0 g     F .text	0000003c chPoolFreeI
08013740  w    F .text	0000001e _ZNK3r2p10StaticListINS_9TransportEE8IteratorneERKS3_
080142f0  w    F .text	00000020 _ZNK3r2p4Time9to_ms_rawEv
0801014c g     F .text	00000024 _ZN3r2p8Flasher_15set_page_bufferEPt
0800a3dc g     F .text	0000002e _ZN3r2p11SimplePool_C2EPvjj
0800ede0 g     F .text	0000020c _ZN3r2p14DebugTransport8send_msgERKNS_7MessageEjPKcRKNS_4TimeE
0800e56c g     F .text	000000e0 _ZN3r2p10Bootloader10remove_allEv
08014940  w    F .text	00000024 _ZN3r2p11MemoryPool_C2Ej
08000280  w    F .text	00000002 Vector1C
080151c0  w    F .text	00000064 _ZN3r2p10StaticListINS_16RemoteSubscriberEE16link_tail_unsafeERNS2_4LinkE
080129d0  w    F .text	0000000e _ZNK3r2p10ArrayQueueIPNS_7MessageEE10get_lengthEv
080146f0  w    F .text	00000064 _ZN3r2p10StaticListINS_15LocalSubscriberEE16link_tail_unsafeERNS2_4LinkE
08011e70 g     F .text	0000007a .hidden __nedf2
08000d04 g     F .text	00000090 chSchDoRescheduleAhead
080142c0  w    F .text	00000014 _ZN3r2p10StaticListINS_15LocalSubscriberEE13ConstIteratorC1EPKNS2_9ConstLinkE
08012e80  w    F .text	0000000c _ZN3r2p7Thread_4selfEv
08002158 g     F .text	00000078 chCondWaitTimeoutS
0800ae80 g     F .text	00000070 _ZNK3r2p10IhexRecord16compute_checksumEv
0800c8e0 g     F .text	00000040 _ZN3r2p4NodeD1Ev
20003194 g     O .bss	00000060 RTCAND1
08015f60  w    F .text	0000002a _ZN3r2p9Transport9subscribeINS_7MgmtMsgEEEbRNS_16RemoteSubscriberEPKcPT_j
08000280  w    F .text	00000002 Vector17C
08003afc g     F .text	000000bc i2cMasterTransmitTimeout
08016b20 g     F .text	0000004c sprintf
0800d458 g     F .text	00000054 _ZN3r2p9TransportD1Ev
080148c0  w    F .text	00000014 _ZN3r2p4TimeC2IiEET_
08000280  w    F .text	00000002 Vector48
20002828 g     O .bss	00000004 _PathLocale
080067b8 g     F .text	00000034 i2c_lld_init
0800ecec g     F .text	00000056 _ZN3r2p14DebugTransport14recv_chunk_revEPvjm
08008138 g     F .text	00000034 usb_lld_stall_in
080163f0  w    F .text	0000002a _ZN3r2p10MemoryPoolI11rtcan_msg_tEC2EPS1_j
20000400 g       .stacks	00000000 __process_stack_base__
08013ee0  w    F .text	00000014 _ZN3r2p10StaticListINS_4NodeEE8IteratorC1EPKNS2_4LinkE
080025dc g     F .text	00000058 chEvtWaitAll
08004b9c g     F .text	000000a4 spiExchange
08012540  w    F .text	0000000e _ZN3r2p8SysLock_7releaseEv
08011950 g     F .text	0000006e .hidden __gesf2
08015e30  w    F .text	00000016 _ZN3r2p11ChecksummerD2Ev
0801c99c g     O .text	00000008 serusbcfg
08008300 g     F .text	00000012 _write_r
08015e30  w    F .text	00000016 _ZN3r2p11ChecksummerD1Ev
08016510  w    F .text	00000018 _ZN3r2p8Flasher_10address_ofEt
080127b0  w    F .text	0000001a _ZN3r2p10StaticListINS_14LocalPublisherEE4LinkC2ERS1_
08007850 g     F .text	000003a8 Vector16C
08015aa0  w    F .text	00000016 _ZN3r2p9Semaphore13signal_unsafeEv
080156c0  w    F .text	00000030 _ZNK3r2p10Bootloader12FlashAppInfo8is_validEv
08019360 g     F .text	00000010 setlocale
08001f6c g     F .text	0000002c chCondInit
08012e40  w    F .text	00000034 _ZN3r2p7Thread_13create_staticEPvjmPFlS1_ES1_PKc
08016420  w    F .text	00000050 _ZNK3r2p10StaticListINS_5TopicEE8index_ofERKS1_
0800a800 g     F .text	00000080 _ZN3r2p12StaticQueue_11post_unsafeERNS0_4LinkE
080160e0  w    F .text	00000018 _ZNK3r2p22TimestampedMsgPtrQueue10get_lengthEv
08013060  w    F .text	00000034 _ZN3r2p4Node8has_nameERKS0_PKc
08015a50  w    F .text	0000002e _ZN3r2p10Semaphore_C2Ebl
080018c8 g     F .text	0000008c chSemAddCounterI
080147c0  w    F .text	00000020 _ZNK3r2p10StaticListINS_15LocalSubscriberEE8get_headEv
08016920  w    F .text	00000020 _ZN3r2p7ReMutexD1Ev
0800cee4 g     F .text	00000040 _ZN3r2p5Topic9advertiseERNS_14LocalPublisherERKNS_4TimeE
08013550  w    F .text	00000020 _ZN3r2p10BootloaderD1Ev
08013d20  w    F .text	00000030 _ZN3r2p16SubscriberExtBufINS_7BootMsgEED1Ev
080029a8 g     F .text	0000006c chMBReset
08015e50  w    F .text	00000020 _ZN3r2p9SemaphoreD1Ev
080159f0  w    F .text	00000018 _ZN3r2p10Semaphore_10initializeEl
080135d0  w    F .text	00000020 _ZN3r2p10StaticListINS_4NodeEE5beginEv
08013820  w    F .text	0000001e _ZNK3r2p10StaticListINS_5TopicEE10find_firstIPFbRKS1_PKcEcEEPS1_T_PKT0_
20000c58 g     O .data	00000004 _impure_ptr
0800c754 g     F .text	000000f2 _ZN3r2p4Node4spinERKNS_4TimeE
08005aa4 g     F .text	00000048 Vector70
08014100  w    F .text	00000020 _ZNK3r2p10StaticListINS_15LocalSubscriberEE5beginEv
08014f60  w    F .text	00000016 _ZN3r2p10StaticListINS_16RemoteSubscriberEED1Ev
080119d8 g     F .text	00000012 .hidden __aeabi_fcmpeq
08015bb0  w    F .text	00000024 _ZNK3r2p14DebugTransport16create_publisherERNS_5TopicEPKh
08000280  w    F .text	00000002 VectorD4
08002494 g     F .text	00000078 chEvtDispatch
0800452c g     F .text	0000006e sduConfigureHookI
08000494 g     F .text	0000004c nvicSetSystemHandlerPriority
080039e8 g     F .text	00000022 i2cObjectInit
08009e1c g     F .text	00000106 rtcan_lld_can_receive
0800a7f0 g     F .text	0000000e _ZNK3r2p12StaticQueue_15get_tail_unsafeEv
08019340 g     F .text	00000004 __locale_cjk_lang
08015eb0  w    F .text	00000018 _ZN3r2p19BaseSubscriberQueueD2Ev
080153e0  w    F .text	00000016 _ZN3r2p7Flasher16is_within_boundsEPKv
08015c10  w    F .text	0000003a _ZN3r2p14DebugTransport9send_charEcm
08013860  w    F .text	00000028 _ZN3r2p4Node9advertiseINS_7MgmtMsgEEEbRNS_9PublisherIT_EEPKcRKNS_4TimeE
08004894 g     F .text	0000005c spiStop
08015c90  w    F .text	00000038 _ZN3r2p14DebugTransport9recv_charERcm
08008f84 g     F .text	000000e4 shellGetLine
0800c1e0 g     F .text	00000148 _ZN3r2p10Middleware24do_cmd_subscribe_requestERKNS_7MgmtMsgE
08016160  w    F .text	00000034 _ZN3r2p15DebugSubscriber5fetchERPNS_7MessageERNS_4TimeE
080101d0 g     F .text	00000074 _ZN3r2p8Flasher_5eraseEt
0801a470 g     F .text	00000a94 _svfiprintf_r
08001258 g     F .text	000000b4 chThdRelease
08012e10  w    F .text	00000028 _ZN3r2p14BaseSubscriber17notify_subscribedERNS_5TopicE
08002634 g     F .text	00000098 chEvtWaitOneTimeout
08015ac0  w    F .text	00000016 _ZN3r2p9Semaphore11wait_unsafeEv
080119c0 g     F .text	00000018 .hidden __aeabi_cfrcmple
08007090 g     F .text	0000007c spi_lld_send
08004b0c g     F .text	00000090 spiIgnore
08010ddc g     F .text	000000e0 _Z13test_pub_nodePv
08012d00  w    F .text	0000000e _ZN3r2p7Message16get_payload_sizeEj
20002868 g     O .bss	000001a0 _idle_thread_wa
080129e0  w    F .text	0000005e _ZN3r2p10ArrayQueueIPNS_7MessageEE12fetch_unsafeERS2_
08013d70  w    F .text	00000024 _ZN3r2p9PublisherINS_7BootMsgEEC2Ev
0800b97c g     F .text	0000003c _ZN3r2p10Middleware9find_nodeEPKc
08009070 g     F .text	00000018 stm32_id8
08003074 g     F .text	0000004e chOQInit
08005644 g     F .text	00000050 usbStallTransmitI
08002f1c g     F .text	0000008e chIQGetTimeout
20000800 g       .data	00000000 _data
080100b8 g     F .text	00000016 _ZN3r2p10Bootloader13unreserve_ramEj
08019f80 g     F .text	00000040 __ulp
20000828 g     O .data	00000004 _ZN3r2p19default_ledsub_confE
08012ac0  w    F .text	00000054 _ZN3r2p10ArrayQueueIPNS_7MessageEEC1EPS2_j
0801d1d0 g       .text	00000000 __config_start__
080038ec g     F .text	0000002a chPoolFree
08014ed0  w    F .text	00000020 _ZN3r2p5MutexC2Ev
08012bf0  w    F .text	00000012 _ZN3r2p4TimeC2Ev
080127d0  w    F .text	00000016 _ZN3r2p4TimeaSERKS0_
08016900  w    F .text	00000016 _ZN3r2p10StaticListINS_9TransportEED1Ev
08013180  w    F .text	00000032 _ZNK3r2p5Topic16compute_deadlineERKNS_4TimeE
08013000  w    F .text	0000000e _ZNK3r2p4Node15get_subscribersEv
0800f7e0 g     F .text	00000028 _ZN3r2p14DebugPublisherC1ERNS_9TransportE
080157f0  w    F .text	00000024 _ZN3r2p10Bootloader5allocENS_7BootMsg8TypeEnumE
0800a758 g     F .text	00000060 _ZNK3r2p11StaticList_10find_firstEPFbPKvS2_ES2_
08003408 g     F .text	00000050 chCoreReserveI
08000280  w    F .text	00000002 Vector4C
08009434 g     F .text	00000060 rtcanReset
0801cb70 g     O .text	00000010 _ZTVN3r2p14DebugPublisherE
0800adf8 g     F .text	0000002c _ZN3r2p14BaseSubscriberD1Ev
08013210  w    F .text	00000016 _ZN3r2p8Flasher_D2Ev
08014640  w    F .text	0000001c _ZN3r2p10StaticListINS_15LocalSubscriberEEC2Ev
08000280  w    F .text	00000002 Vector144
08013b90  w    F .text	00000024 _ZN3r2p9PublisherINS_7MgmtMsgEEC2Ev
080028f8 g     F .text	00000040 chMsgRelease
08016980  w    F .text	00000072 _ZN3r2p10MiddlewareD1Ev
08009428 g     F .text	0000000c rtcanInit
08005bc4 g     F .text	00000048 Vector80
08002e88 g     F .text	00000092 chIQPutI
080144b0  w    F .text	00000016 _ZN3r2p9SpinEventD1Ev
08014cf0  w    F .text	0000001a _ZN3r2p10StaticListINS_5TopicEE4LinkC1ERS1_
08000380 g     F .text	0000000e _port_switch_from_isr
08007d00 g     F .text	0000001c usb_lld_set_address
08014640  w    F .text	0000001c _ZN3r2p10StaticListINS_15LocalSubscriberEEC1Ev
08014a70  w    F .text	00000016 _ZN3r2p10StaticListINS_15LocalSubscriberEE14IteratorUnsafeppEv
08013270  w    F .text	00000010 _ZN3r2p6Mutex_14release_unsafeEv
08015ef0  w    F .text	00000020 _ZN3r2p14DebugTransport10send_valueIlEEbRKT_m
08000280  w    F .text	00000002 Vector15C
20003454 g     O .noreset	00000004 _ZN3r2p10Middleware15boot_mode_magicE
0800a490 g     F .text	00000048 _ZNK3r2p11StaticList_15index_of_unsafeEPKv
0800c0c4 g     F .text	0000011c _ZN3r2p10Middleware16do_cmd_advertiseERKNS_7MgmtMsgE
080119ec g     F .text	00000012 .hidden __aeabi_fcmplt
08014f40  w    F .text	00000016 _ZN3r2p10StaticListINS_15RemotePublisherEED1Ev
08019370 g     F .text	00000008 localeconv
08000280  w    F .text	00000002 Vector68
0800b4fc g     F .text	00000062 _ZN3r2p10Middleware13reboot_remoteEPKcb
08001cd0 g     F .text	000000d8 chMtxUnlock
0800c988 g     F .text	0000001c _ZN3r2p15RemotePublisherD0Ev
080106b0 g     F .text	00000070 _ZN3r2p8Flasher_13erase_alignedEPKtj
08014cd0  w    F .text	0000001c _ZN3r2p10StaticListINS_16RemoteSubscriberEEC2Ev
0800d3dc g     F .text	0000007c _ZN3r2p9TransportC2EPKc
08014610  w    F .text	00000010 _ZNK3r2p10StaticListINS_15LocalSubscriberEE8IteratorptEv
08000800 g     F .text	00000018 _trace_init
080048f0 g     F .text	00000048 spiSelect
0800add0 g     F .text	00000028 _ZN3r2p14BaseSubscriberC2Ev
080026cc g     F .text	00000090 chEvtWaitAnyTimeout
08016800  w    F .text	00000030 _ZN3r2p9PublisherINS_11String64MsgEED1Ev
08004c40 g     F .text	0000009c spiSend
20000400 g       .stacks	00000000 __main_stack_end__
08015640  w    F .text	00000016 _ZNK3r2p10Bootloader12FlashAppInfo11get_programEv
08016370  w    F .text	00000016 _ZN3r2p11MemoryPool_D2Ev
08014620  w    F .text	0000001c _ZN3r2p10StaticListINS_14LocalPublisherEEC2Ev
08005b34 g     F .text	00000048 Vector78
08011f0c g     F .text	00000012 .hidden __aeabi_dcmpeq
0800b1b4 g     F .text	0000001a _ZN3r2p7Message5resetEv
08006f94 g     F .text	0000007c spi_lld_ignore
08012dc0  w    F .text	0000003c _ZN3r2p13BasePublisher16publish_remotelyERNS_7MessageE
080132b0  w    F .text	00000016 _ZN3r2p5Mutex10initializeEv
08012860  w    F .text	00000018 _ZN3r2p9SpinEvent13signal_unsafeEj
0801cd50  w    O .text	00000010 _ZTVN3r2p14LocalPublisherE
08014f60  w    F .text	00000016 _ZN3r2p10StaticListINS_16RemoteSubscriberEED2Ev
080136e0  w    F .text	0000001e _ZN3r2p10StaticListINS_9TransportEE4linkERNS2_4LinkE
080145a0  w    F .text	00000018 _ZN3r2p10StaticListINS_15LocalSubscriberEE3endEv
0800ffac g     F .text	00000030 _ZN3r2p15RTCANSubscriberD1Ev
08015030  w    F .text	0000001e _ZN3r2p10StaticListINS_16RemoteSubscriberEE4linkERNS2_4LinkE
08005264 g     F .text	00000068 usbStop
2000a000 g       *ABS*	00000000 __ram_end__
200010e8 g       .data	00000000 _edata
0800b874 g     F .text	00000064 _ZN3r2p10Middleware9subscribeERNS_16RemoteSubscriberEPKcPNS_7MessageEjj
20003458 g       .noreset	00000000 _end
080126e0  w    F .text	0000001a _ZN3r2p5Topic11free_unsafeERNS_7MessageE
080067ec g     F .text	00000134 i2c_lld_start
08015e70  w    F .text	00000016 _ZN3r2p12StaticQueue_D1Ev
08016680  w    F .text	00000048 _ZN3r2p10SubscriberINS_6LedMsgELj5EEC1EPFbRKS1_E
080054c8 g     F .text	0000004c usbPrepareQueuedTransmit
08013840  w    F .text	0000001e _ZNK3r2p10StaticListINS_4NodeEE10find_firstIPFbRKS1_PKcEcEEPS1_T_PKT0_
08002578 g     F .text	00000064 chEvtWaitAny
08000964 g     F .text	0000006c chVTResetI
080128d0  w    F .text	0000001a _ZNK3r2p15LocalSubscriber16get_queue_lengthEv
08002b54 g     F .text	00000074 chMBPostAheadS
0800f87c g     F .text	0000001a _ZNK3r2p15DebugSubscriber15get_queue_countEv
08009d84 g     F .text	00000062 rtcan_lld_can_transmit
08013360  w    F .text	00000032 _ZN3r2p7ReMutex14acquire_unsafeEv
08012e90  w    F .text	00000064 _ZN3r2p7Thread_5sleepERKNS_4TimeE
08009090 g     F .text	00000072 rtcan_tim_isr_code
08000280 g     F .text	00000002 _unhandled_exception
080163f0  w    F .text	0000002a _ZN3r2p10MemoryPoolI11rtcan_msg_tEC1EPS1_j
08008f08 g     F .text	00000028 shellExit
20002e48 g     O .bss	00000038 I2CD2
08000280  w    F .text	00000002 Vector170
08003ec0 g     F .text	00000064 sdObjectInit
0800fbf0 g     F .text	0000003a _ZNK3r2p14RTCANTransport17create_subscriberERNS_5TopicEPNS_22TimestampedMsgPtrQueue5EntryEj
0801ce60  w    O .text	00000024 _ZTVN3r2p16SubscriberExtBufINS_6LedMsgEEE
0800d2f4 g     F .text	00000064 _ZN3r2p9Transport9advertiseERNS_15RemotePublisherEPKcRKNS_4TimeEj
08002a14 g     F .text	00000034 chMBPost
08014f80  w    F .text	00000028 _ZN3r2p10ScopedLockINS_5MutexEEC1ERS1_
08000280  w    F .text	00000002 Vector88
080128b0  w    F .text	0000001a _ZN3r2p4Node13notify_unsafeEj
080021d0 g     F .text	00000060 chEvtRegisterMask
080141a0  w    F .text	00000018 _ZNK3r2p10StaticListINS_5TopicEE15is_empty_unsafeEv
08010c70 g     F .text	00000024 _Znwj
0800e754 g     F .text	00000058 _ZN3r2p10Bootloader12get_last_appEv
200010e0 g     O .data	00000004 __malloc_trim_threshold
0800aa1c g     F .text	0000001e _ZN3r2p12StaticQueue_4postERNS0_4LinkE
080166d0  w    F .text	00000030 _ZN3r2p10SubscriberINS_6LedMsgELj5EED1Ev
080109b0 g     F .text	0000002a _ZN3r2p8Flasher_C2EPt
080167b0  w    F .text	0000001c _ZN3r2p16SubscriberExtBufINS_6LedMsgEED0Ev
0800cb48 g     F .text	0000008a _ZN3r2p5Topic21notify_remotes_unsafeERNS_7MessageERKNS_4TimeE
08019330 g     F .text	00000008 __locale_msgcharset
08003458 g     F .text	0000002c chCoreUnreserve
0800c500 g     F .text	0000001c _ZN3r2p10Middleware12mgmt_threadfEPv
08014a90  w    F .text	00000010 _ZNK3r2p10StaticListINS_15LocalSubscriberEE14IteratorUnsafeptEv
20000400 g       .stacks	00000000 __main_thread_stack_base__
0800ebf0 g     F .text	00000052 _ZN3r2p14DebugTransport10send_chunkEPKvjm
080134b0  w    F .text	0000001c _ZN3r2p10Middleware11is_rebootedEv
08019ea0 g     F .text	000000d2 __mdiff
08011860 g     F .text	0000004e .hidden __aeabi_d2iz
08000000 g       .noreset	00000000 __flash_start__
08015720  w    F .text	00000016 _ZN3r2p10Bootloader8IteratorC1ERKS1_
0800518c g     F .text	00000008 usbInit
0800ff80 g     F .text	0000002c _ZN3r2p15RTCANSubscriberC2ERNS_14RTCANTransportEPNS_22TimestampedMsgPtrQueue5EntryEj
08015760  w    F .text	0000000e _ZNK3r2p10Bootloader8IteratorptEv
080139b0  w    F .text	00000010 _ZNK3r2p10StaticListINS_4NodeEE13ConstIteratorptEv
0800a1a4 g     F .text	00000018 _kill
08013dd0  w    F .text	0000001c _ZN3r2p9PublisherINS_7BootMsgEED0Ev
08000280  w    F .text	00000002 Vector104
2000082c g     O .data	00000004 __ctype_ptr__
080119c8 g     F .text	00000010 .hidden __aeabi_cfcmpeq
08007c08 g     F .text	00000058 usb_lld_start
08000280  w    F .text	00000002 Vector184
08014460  w    F .text	0000000e _ZNK3r2p15LocalSubscriber12get_callbackEv
0800a138 g     F .text	0000001a rtcan_lld_tim_get_interval
08004370 g     F .text	00000068 sduObjectInit
08000280  w    F .text	00000002 Vector10C
08015a30  w    F .text	00000014 _ZN3r2p10Semaphore_11wait_unsafeEv
080153a0  w    F .text	0000000c _ZN3r2p8Flasher_13get_ram_startEv
08000818 g     F .text	00000060 dbg_trace
0800ae60 g     F .text	00000018 _ZN3r2p19BaseSubscriberQueueC1Ev
08015f30  w    F .text	0000002a _ZN3r2p9Transport9subscribeINS_7BootMsgEEEbRNS_16RemoteSubscriberEPKcPT_j
08000f6c g     F .text	00000070 chThdSetPriority
0801cf20 g     O .text	00000101 _ctype_
08007c60 g     F .text	00000048 usb_lld_stop
08012000  w    F .text	00000002 .hidden __aeabi_idiv0
0801d1d0 g       constructors	00000000 __init_array_start
08014080  w    F .text	00000020 _ZNK3r2p10StaticListINS_4NodeEE5beginEv
08007e70 g     F .text	00000044 usb_lld_disable_endpoints
080148a0  w    F .text	0000001a _ZN3r2p10StaticListINS_16RemoteSubscriberEE4LinkC2ERS1_
08002b20 g     F .text	00000034 chMBPostAhead
0800a63c g     F .text	0000002a _ZN3r2p11StaticList_6unlinkERNS0_4LinkE
08010720 g     F .text	00000150 _ZN3r2p8Flasher_5flashEPKhS2_j
0800a94c g     F .text	00000068 _ZN3r2p12StaticQueue_11skip_unsafeEv
080074ec g     F .text	00000044 sd_lld_stop
080134d0  w    F .text	0000001c _ZN3r2p10Middleware18is_bootloader_modeEv
08013280  w    F .text	0000002a _ZN3r2p6Mutex_C1Eb
08001180 g     F .text	0000008c chThdWait
08010d70 g     F .text	00000032 _Z22usb_lld_disconnect_busP9USBDriver
08009810 g     F .text	0000000e msgqueue_init
0800ae24 g     F .text	0000001c _ZN3r2p14BaseSubscriberD0Ev
0800a4d8 g     F .text	00000030 _ZNK3r2p11StaticList_15contains_unsafeEPKv
08016750  w    F .text	00000030 _ZN3r2p16SubscriberExtBufINS_6LedMsgEEC2EPPS1_jPFbRKS1_E
08016320  w    F .text	00000032 _ZN3r2p11MemoryPool_C1EPvjj
08012660  w    F .text	00000040 _ZN3r2p7Message14release_unsafeEv
0800b02c g     F .text	00000048 _ZN3r2p15LocalSubscriber6notifyERNS_7MessageERKNS_4TimeE
08010c94 g     F .text	00000026 _ZnwjP11memory_heap
080080d0 g     F .text	00000034 usb_lld_start_in
0800a198 g     F .text	0000000c _exit
08004830 g     F .text	00000064 spiStart
0800af60 g     F .text	00000030 _ZN3r2p14LocalPublisherD1Ev
08007eb4 g     F .text	00000038 usb_lld_get_status_out
08013230  w    F .text	00000014 _ZN3r2p6Mutex_10initializeEv
08000280  w    F .text	00000002 Vector14C
0800f898 g     F .text	00000066 _ZN3r2p15DebugSubscriber13notify_unsafeERNS_7MessageERKNS_4TimeE
08013790  w    F .text	00000030 _ZNK3r2p10StaticListINS_4NodeEE15contains_unsafeERKS1_
08014cd0  w    F .text	0000001c _ZN3r2p10StaticListINS_16RemoteSubscriberEEC1Ev
0800a0f8 g     F .text	00000020 rtcan_lld_tim_stop_timer
0800a3c0 g     F .text	0000001c _ZN3r2p11SimplePool_C2Ev
08015950  w    F .text	0000001c _ZN3r2p9PublisherINS_7BootMsgEE5allocERPS1_
08016d60 g     F .text	00000034 strspn
20003450 g     O .noreset	00000004 _ZN3r2p10Middleware14rebooted_magicE
08000dd4 g     F .text	00000094 _thread_init
08000280  w    F .text	00000002 Vector50
08014490  w    F .text	00000016 _ZN3r2p10StaticListINS_15LocalSubscriberEED1Ev
08014e70  w    F .text	00000016 _ZN3r2p5Mutex7acquireEv
08014d80  w    F .text	00000014 _ZN3r2p10StaticListINS_16RemoteSubscriberEE8IteratorC2EPKNS2_4LinkE
08014140  w    F .text	00000054 _ZN3r2p10StaticListINS_5TopicEE13unlink_unsafeERNS2_4LinkE
08012c60  w    F .text	0000001e _ZN3r2pgeERKNS_4TimeES2_
08013510  w    F .text	00000018 _ZN3r2p7BootMsgC2Ev
0801a300 g     F .text	0000005c strlen
08005e18 g     F .text	000000f0 dmaStreamAllocate
08014e20  w    F .text	00000014 _ZN3r2p6Mutex_7acquireEv
08012ff0  w    F .text	0000000e _ZNK3r2p4Node14get_publishersEv
08009d64 g     F .text	00000020 rtcan_lld_can_txe
080109dc g     F .text	00000060 _ZN3r2p8Flasher_7jump_toEPKh
08011efc g     F .text	00000010 .hidden __aeabi_cdcmpeq
080143f0  w    F .text	00000014 _ZN3r2p10SpinEvent_C1EPNS_6ThreadE
08012840  w    F .text	00000018 _ZNK3r2p9SpinEvent10get_threadEv
08011e60 g     F .text	0000008a .hidden __gedf2
08000280  w    F .text	00000002 Vector154
08016660  w    F .text	00000018 _ZN3r2p6LedMsgC1Ev
0800ff74 g     F .text	0000000c _ZNK3r2p15RTCANSubscriber16get_queue_lengthEv
080010c4 g     F .text	00000030 chThdYield
08015010  w    F .text	0000001e _ZNK3r2p10StaticListINS_16RemoteSubscriberEE10find_firstIPFbRKNS_14BaseSubscriberEPKcEcEEPS1_T_PKT0_
0800146c g     F .text	00000068 chRegNextThread
0800a668 g     F .text	0000005c _ZNK3r2p11StaticList_8index_ofEPKv
08011fa0 g     F .text	0000002e .hidden __gnu_ldivmod_helper
0800fed8 g     F .text	00000030 _ZN3r2p14RTCANPublisherD1Ev
200031f8 g     O .bss	00000258 SDU1
0800043c g     F .text	00000058 nvicDisableVector
0800311c g     F .text	00000092 chOQPutTimeout
080098d4 g     F .text	00000044 msgqueue_get
080016f8 g     F .text	00000030 chSemWaitTimeout
20000000 g       .stacks	00000000 __main_stack_base__
0800caa0 g     F .text	00000020 _ZN3r2p22TimestampedMsgPtrQueueC2EPNS0_5EntryEj
0800b18c g     F .text	00000026 _ZN3r2p7Message7releaseEv
08000280  w    F .text	00000002 Vector44
0800fda0 g     F .text	00000048 _ZN3r2p14RTCANTransportD2Ev
08011388 g     F .text	0000003a .hidden __aeabi_f2d
08000280  w    F .text	00000002 Vector28
08008208 g     F .text	00000002 boardInit
08000280  w    F .text	00000002 VectorB8
0800749c g     F .text	00000050 sd_lld_start
08013410  w    F .text	0000001a _ZN3r2p7ReMutex7releaseEv
080127b0  w    F .text	0000001a _ZN3r2p10StaticListINS_14LocalPublisherEE4LinkC1ERS1_
08016780  w    F .text	00000030 _ZN3r2p16SubscriberExtBufINS_6LedMsgEED2Ev
00000400 g       *ABS*	00000000 __main_stack_size__
080034f8 g     F .text	00000060 chHeapInit
08012580  w    F .text	00000018 _ZNK3r2p11StaticList_15is_empty_unsafeEv
08013590  w    F .text	00000018 _ZNK3r2p10StaticListINS_15LocalSubscriberEE15is_empty_unsafeEv
08000280  w    F .text	00000002 VectorFC
0801cc50 g     O .text	00000002 _ZN3r2p8Flasher_11erased_wordE
08001588 g     F .text	0000002e chSemReset
08013ec0  w    F .text	00000020 _ZNK3r2p10StaticListINS_4NodeEE8get_headEv
080020c0 g     F .text	00000068 chCondWaitS
08014ff0  w    F .text	0000001e _ZN3r2p10StaticListINS_15RemotePublisherEE4linkERNS2_4LinkE
08016620  w    F .text	0000001c _ZN3r2p9PublisherINS_6LedMsgEE5allocERPS1_
0800ed44 g     F .text	00000050 _ZN3r2p14DebugTransport11send_stringEPKcjm
08014290  w    F .text	00000014 _ZN3r2p10StaticListINS_14LocalPublisherEE13ConstIteratorC1EPKNS2_9ConstLinkE
08015da0  w    F .text	00000010 _ZN3r2p10Middleware14get_boot_topicEv
0800070c g     F .text	0000002c dbg_check_unlock_from_isr
08015470  w    F .text	00000022 _ZN3r2p7Flasher5eraseEPKhj
080144f0  w    F .text	0000003e _ZNK3r2p10StaticListINS_15LocalSubscriberEE5countEv
08000610 g     F .text	00000028 dbg_check_disable
0800ae40 g     F .text	0000001e _ZN3r2p14BaseSubscriber9has_topicERKS0_PKc
080110c8 g     F .text	0000027a .hidden __subdf3
08009104 g     F .text	000000b0 rtcan_txok_isr_code
20000800 g       .stacks	00000000 __process_stack_end__
0800a014 g     F .text	00000010 rtcan_lld_tim_init
0800feb0 g     F .text	00000028 _ZN3r2p14RTCANPublisherC1ERNS_9TransportE
0800acf8 g     F .text	0000002c _ZN3r2p13BasePublisherD2Ev
080163d0  w    F .text	0000001a _ZN3r2p10MemoryPoolI11rtcan_msg_tE11free_unsafeEPS1_
08012fa0  w    F .text	00000018 _ZN3r2p9SpinEvent10set_threadEPNS_6ThreadE
08019b40 g     F .text	0000005a __lo0bits
0800436c g     F .text	00000002 sduInit
08000280  w    F .text	00000002 Vector34
08004cdc g     F .text	0000009c spiReceive
08014e90  w    F .text	00000016 _ZN3r2p5Mutex7releaseEv
08014470  w    F .text	00000016 _ZN3r2p10StaticListINS_14LocalPublisherEED1Ev
0800c690 g     F .text	000000c4 _ZN3r2p4Node9subscribeERNS_15LocalSubscriberEPKcPNS_7MessageEj
0800c3ac g     F .text	00000154 _ZN3r2p10MiddlewareC2EPKcS2_PNS0_10PubSubStepEj
080131c0  w    F .text	00000026 _ZNK3r2p5Topic16compute_deadlineEv
08002e3c g     F .text	0000004a chIQResetI
08015970  w    F .text	0000001e _ZN3r2p7Message13reset_payloadINS_7BootMsgEEEvRT_
0800d0d0 g     F .text	00000098 _ZN3r2p9Transport15touch_publisherERNS_5TopicEPKh
08008200 g     F .text	00000008 __early_init
0800ed94 g     F .text	0000004c _ZN3r2p14DebugTransport11recv_stringEPcjm
08001850 g     F .text	00000078 chSemSignalI
08016a00 g     F .text	0000000a __aeabi_atexit
080139c0  w    F .text	00000022 _ZNK3r2p10StaticListINS_14LocalPublisherEE7restartERNS2_13ConstIteratorE
08012620  w    F .text	0000003c _ZN3r2p7Message14acquire_unsafeEv
0800a5dc g     F .text	0000003e _ZNK3r2p11StaticList_5countEv
0800a70c g     F .text	0000004c _ZNK3r2p11StaticList_10find_firstEPFbPKvE
08013b50  w    F .text	0000001c _ZN3r2p10StaticListINS_5TopicEEC2Ev
08013040  w    F .text	00000018 _ZN3r2p4Node11notify_stopEv
08015f10  w    F .text	00000018 _ZN3r2p11Checksummer3addIlEEvRKT_
0800a43c g     F .text	00000054 _ZN3r2p11StaticList_13unlink_unsafeERNS0_4LinkE
08009564 g     F .text	0000002e rtcanTransmit
08005ce0 g     F .text	00000048 Vector128
080165a0  w    F .text	00000030 _ZN3r2p9PublisherINS_6LedMsgEED2Ev
0801c98c g     O .text	00000010 usbcfg
080135b0  w    F .text	0000001e _ZN3r2p10StaticListINS_5TopicEE4linkERNS2_4LinkE
0800e930 g     F .text	00000088 _ZN3r2p10Bootloader6launchEPKc
0800101c g     F .text	00000032 chThdTerminate
0800acd0 g     F .text	00000028 _ZN3r2p13BasePublisherC2Ev
08015ff0  w    F .text	0000002a _ZN3r2p22TimestampedMsgPtrQueue5EntryaSERKS1_
080130a0  w    F .text	00000022 _ZNK3r2p5Topic16get_payload_sizeEv
08000280  w    F .text	00000002 VectorA4
0800fabc g     F .text	0000005a _ZN3r2p14RTCANTransport7recv_cbER11rtcan_msg_t
00000400 g       *ABS*	00000000 __process_stack_size__
08014d40  w    F .text	00000014 _ZN3r2p10StaticListINS_16RemoteSubscriberEE14IteratorUnsafeC1EPKNS2_4LinkE
0800dd0c g     F .text	00000184 _ZN3r2p10Bootloader11do_getparamEv
08007d1c g     F .text	00000154 usb_lld_init_endpoint
08016d10 g     F .text	00000048 strpbrk
0800394c g     F .text	00000058 halIsCounterWithin
08014cf0  w    F .text	0000001a _ZN3r2p10StaticListINS_5TopicEE4LinkC2ERS1_
08010acc g     F .text	000000ac _ZN3r2p11ledpub_nodeEPv
08013d70  w    F .text	00000024 _ZN3r2p9PublisherINS_7BootMsgEEC1Ev
08000280  w    F .text	00000002 Vector20
0800b940 g     F .text	0000003c _ZN3r2p10Middleware10find_topicEPKc
08015400  w    F .text	00000016 _ZN3r2p7Flasher5beginEv
08014290  w    F .text	00000014 _ZN3r2p10StaticListINS_14LocalPublisherEE13ConstIteratorC2EPKNS2_9ConstLinkE
08015eb0  w    F .text	00000018 _ZN3r2p19BaseSubscriberQueueD1Ev
0800b594 g     F .text	00000020 _ZN3r2p10Middleware3addERNS_9TransportE
08002050 g     F .text	00000044 chCondBroadcastI
08013760  w    F .text	00000022 _ZN3r2p10StaticListINS_9TransportEE8IteratorppEv
080199d0 g     F .text	00000082 __multadd
08001728 g     F .text	000000a4 chSemWaitTimeoutS
0800f808 g     F .text	00000030 _ZN3r2p14DebugPublisherD2Ev
080129b0  w    F .text	00000018 _ZN3r2p15MessagePtrQueueD1Ev
080199b0 g     F .text	00000012 _Bfree
08013720  w    F .text	00000018 _ZN3r2p10StaticListINS_9TransportEE3endEv
0800a2f8 g     F .text	00000038 _ZN3r2p11SimplePool_5allocEv
08000280  w    F .text	00000002 Vector174
08013c10  w    F .text	00000030 _ZN3r2p16SubscriberExtBufINS_7MgmtMsgEEC1EPPS1_jPFbRKS1_E
0801034c g     F .text	00000134 _ZN3r2p8Flasher_5writeEtPVKt
08014d60  w    F .text	00000020 _ZNK3r2p10StaticListINS_16RemoteSubscriberEE8get_headEv


