Archive member included because of file (symbol)

/opt/R2P/tools/gcc-arm-none-eabi-4_9-2014q4/bin/../lib/gcc/arm-none-eabi/4.9.3/armv7e-m/libgcc.a(_arm_addsubdf3.o)
                              build/obj/chprintf.o (__aeabi_dsub)
/opt/R2P/tools/gcc-arm-none-eabi-4_9-2014q4/bin/../lib/gcc/arm-none-eabi/4.9.3/armv7e-m/libgcc.a(_arm_muldivdf3.o)
                              build/obj/chprintf.o (__aeabi_dmul)
/opt/R2P/tools/gcc-arm-none-eabi-4_9-2014q4/bin/../lib/gcc/arm-none-eabi/4.9.3/armv7e-m/libgcc.a(_arm_fixdfsi.o)
                              build/obj/chprintf.o (__aeabi_d2iz)
/opt/R2P/tools/gcc-arm-none-eabi-4_9-2014q4/bin/../lib/gcc/arm-none-eabi/4.9.3/armv7e-m/libgcc.a(_arm_truncdfsf2.o)
                              build/obj/chprintf.o (__aeabi_d2f)
/opt/R2P/tools/gcc-arm-none-eabi-4_9-2014q4/bin/../lib/gcc/arm-none-eabi/4.9.3/armv7e-m/libgcc.a(_arm_cmpsf2.o)
                              build/obj/chprintf.o (__aeabi_fcmplt)
/opt/R2P/tools/gcc-arm-none-eabi-4_9-2014q4/bin/../lib/gcc/arm-none-eabi/4.9.3/../../../../arm-none-eabi/lib/armv7e-m/libg.a(lib_a-aeabi_atexit.o)
                              build/obj/main.o (__aeabi_atexit)
/opt/R2P/tools/gcc-arm-none-eabi-4_9-2014q4/bin/../lib/gcc/arm-none-eabi/4.9.3/../../../../arm-none-eabi/lib/armv7e-m/libg.a(lib_a-cxa_atexit.o)
                              /opt/R2P/tools/gcc-arm-none-eabi-4_9-2014q4/bin/../lib/gcc/arm-none-eabi/4.9.3/../../../../arm-none-eabi/lib/armv7e-m/libg.a(lib_a-aeabi_atexit.o) (__cxa_atexit)
/opt/R2P/tools/gcc-arm-none-eabi-4_9-2014q4/bin/../lib/gcc/arm-none-eabi/4.9.3/../../../../arm-none-eabi/lib/armv7e-m/libg.a(lib_a-memcpy.o)
                              build/obj/memstreams.o (memcpy)
/opt/R2P/tools/gcc-arm-none-eabi-4_9-2014q4/bin/../lib/gcc/arm-none-eabi/4.9.3/../../../../arm-none-eabi/lib/armv7e-m/libg.a(lib_a-memset.o)
                              build/obj/usb.o (memset)
/opt/R2P/tools/gcc-arm-none-eabi-4_9-2014q4/bin/../lib/gcc/arm-none-eabi/4.9.3/../../../../arm-none-eabi/lib/armv7e-m/libg.a(lib_a-sprintf.o)
                              build/obj/main.o (sprintf)
/opt/R2P/tools/gcc-arm-none-eabi-4_9-2014q4/bin/../lib/gcc/arm-none-eabi/4.9.3/../../../../arm-none-eabi/lib/armv7e-m/libg.a(lib_a-strcasecmp.o)
                              build/obj/shell.o (strcasecmp)
/opt/R2P/tools/gcc-arm-none-eabi-4_9-2014q4/bin/../lib/gcc/arm-none-eabi/4.9.3/../../../../arm-none-eabi/lib/armv7e-m/libg.a(lib_a-strncmp.o)
                              build/obj/BaseSubscriber.o (strncmp)
/opt/R2P/tools/gcc-arm-none-eabi-4_9-2014q4/bin/../lib/gcc/arm-none-eabi/4.9.3/../../../../arm-none-eabi/lib/armv7e-m/libg.a(lib_a-strncpy.o)
                              build/obj/Middleware.o (strncpy)
/opt/R2P/tools/gcc-arm-none-eabi-4_9-2014q4/bin/../lib/gcc/arm-none-eabi/4.9.3/../../../../arm-none-eabi/lib/armv7e-m/libg.a(lib_a-strnlen.o)
                              build/obj/DebugTransport.o (strnlen)
/opt/R2P/tools/gcc-arm-none-eabi-4_9-2014q4/bin/../lib/gcc/arm-none-eabi/4.9.3/../../../../arm-none-eabi/lib/armv7e-m/libg.a(lib_a-strpbrk.o)
                              build/obj/shell.o (strpbrk)
/opt/R2P/tools/gcc-arm-none-eabi-4_9-2014q4/bin/../lib/gcc/arm-none-eabi/4.9.3/../../../../arm-none-eabi/lib/armv7e-m/libg.a(lib_a-strspn.o)
                              build/obj/shell.o (strspn)
/opt/R2P/tools/gcc-arm-none-eabi-4_9-2014q4/bin/../lib/gcc/arm-none-eabi/4.9.3/../../../../arm-none-eabi/lib/armv7e-m/libg.a(lib_a-svfprintf.o)
                              /opt/R2P/tools/gcc-arm-none-eabi-4_9-2014q4/bin/../lib/gcc/arm-none-eabi/4.9.3/../../../../arm-none-eabi/lib/armv7e-m/libg.a(lib_a-sprintf.o) (_svfprintf_r)
/opt/R2P/tools/gcc-arm-none-eabi-4_9-2014q4/bin/../lib/gcc/arm-none-eabi/4.9.3/../../../../arm-none-eabi/lib/armv7e-m/libg.a(lib_a-__atexit.o)
                              /opt/R2P/tools/gcc-arm-none-eabi-4_9-2014q4/bin/../lib/gcc/arm-none-eabi/4.9.3/../../../../arm-none-eabi/lib/armv7e-m/libg.a(lib_a-cxa_atexit.o) (__register_exitproc)
/opt/R2P/tools/gcc-arm-none-eabi-4_9-2014q4/bin/../lib/gcc/arm-none-eabi/4.9.3/../../../../arm-none-eabi/lib/armv7e-m/libg.a(lib_a-ctype_.o)
                              /opt/R2P/tools/gcc-arm-none-eabi-4_9-2014q4/bin/../lib/gcc/arm-none-eabi/4.9.3/../../../../arm-none-eabi/lib/armv7e-m/libg.a(lib_a-strcasecmp.o) (__ctype_ptr__)
/opt/R2P/tools/gcc-arm-none-eabi-4_9-2014q4/bin/../lib/gcc/arm-none-eabi/4.9.3/../../../../arm-none-eabi/lib/armv7e-m/libg.a(lib_a-dtoa.o)
                              /opt/R2P/tools/gcc-arm-none-eabi-4_9-2014q4/bin/../lib/gcc/arm-none-eabi/4.9.3/../../../../arm-none-eabi/lib/armv7e-m/libg.a(lib_a-svfprintf.o) (_dtoa_r)
/opt/R2P/tools/gcc-arm-none-eabi-4_9-2014q4/bin/../lib/gcc/arm-none-eabi/4.9.3/../../../../arm-none-eabi/lib/armv7e-m/libg.a(lib_a-impure.o)
                              /opt/R2P/tools/gcc-arm-none-eabi-4_9-2014q4/bin/../lib/gcc/arm-none-eabi/4.9.3/../../../../arm-none-eabi/lib/armv7e-m/libg.a(lib_a-__atexit.o) (_global_impure_ptr)
/opt/R2P/tools/gcc-arm-none-eabi-4_9-2014q4/bin/../lib/gcc/arm-none-eabi/4.9.3/../../../../arm-none-eabi/lib/armv7e-m/libg.a(lib_a-locale.o)
                              /opt/R2P/tools/gcc-arm-none-eabi-4_9-2014q4/bin/../lib/gcc/arm-none-eabi/4.9.3/../../../../arm-none-eabi/lib/armv7e-m/libg.a(lib_a-svfprintf.o) (_localeconv_r)
/opt/R2P/tools/gcc-arm-none-eabi-4_9-2014q4/bin/../lib/gcc/arm-none-eabi/4.9.3/../../../../arm-none-eabi/lib/armv7e-m/libg.a(lib_a-mallocr.o)
                              /opt/R2P/tools/gcc-arm-none-eabi-4_9-2014q4/bin/../lib/gcc/arm-none-eabi/4.9.3/../../../../arm-none-eabi/lib/armv7e-m/libg.a(lib_a-svfprintf.o) (_malloc_r)
/opt/R2P/tools/gcc-arm-none-eabi-4_9-2014q4/bin/../lib/gcc/arm-none-eabi/4.9.3/../../../../arm-none-eabi/lib/armv7e-m/libg.a(lib_a-memchr.o)
                              /opt/R2P/tools/gcc-arm-none-eabi-4_9-2014q4/bin/../lib/gcc/arm-none-eabi/4.9.3/../../../../arm-none-eabi/lib/armv7e-m/libg.a(lib_a-svfprintf.o) (memchr)
/opt/R2P/tools/gcc-arm-none-eabi-4_9-2014q4/bin/../lib/gcc/arm-none-eabi/4.9.3/../../../../arm-none-eabi/lib/armv7e-m/libg.a(lib_a-mlock.o)
                              /opt/R2P/tools/gcc-arm-none-eabi-4_9-2014q4/bin/../lib/gcc/arm-none-eabi/4.9.3/../../../../arm-none-eabi/lib/armv7e-m/libg.a(lib_a-mallocr.o) (__malloc_lock)
/opt/R2P/tools/gcc-arm-none-eabi-4_9-2014q4/bin/../lib/gcc/arm-none-eabi/4.9.3/../../../../arm-none-eabi/lib/armv7e-m/libg.a(lib_a-mprec.o)
                              /opt/R2P/tools/gcc-arm-none-eabi-4_9-2014q4/bin/../lib/gcc/arm-none-eabi/4.9.3/../../../../arm-none-eabi/lib/armv7e-m/libg.a(lib_a-dtoa.o) (_Balloc)
/opt/R2P/tools/gcc-arm-none-eabi-4_9-2014q4/bin/../lib/gcc/arm-none-eabi/4.9.3/../../../../arm-none-eabi/lib/armv7e-m/libg.a(lib_a-s_fpclassify.o)
                              /opt/R2P/tools/gcc-arm-none-eabi-4_9-2014q4/bin/../lib/gcc/arm-none-eabi/4.9.3/../../../../arm-none-eabi/lib/armv7e-m/libg.a(lib_a-svfprintf.o) (__fpclassifyd)
/opt/R2P/tools/gcc-arm-none-eabi-4_9-2014q4/bin/../lib/gcc/arm-none-eabi/4.9.3/../../../../arm-none-eabi/lib/armv7e-m/libg.a(lib_a-strcmp.o)
                              /opt/R2P/tools/gcc-arm-none-eabi-4_9-2014q4/bin/../lib/gcc/arm-none-eabi/4.9.3/../../../../arm-none-eabi/lib/armv7e-m/libg.a(lib_a-locale.o) (strcmp)
/opt/R2P/tools/gcc-arm-none-eabi-4_9-2014q4/bin/../lib/gcc/arm-none-eabi/4.9.3/../../../../arm-none-eabi/lib/armv7e-m/libg.a(lib_a-strlen.o)
                              /opt/R2P/tools/gcc-arm-none-eabi-4_9-2014q4/bin/../lib/gcc/arm-none-eabi/4.9.3/../../../../arm-none-eabi/lib/armv7e-m/libg.a(lib_a-svfprintf.o) (strlen)
/opt/R2P/tools/gcc-arm-none-eabi-4_9-2014q4/bin/../lib/gcc/arm-none-eabi/4.9.3/../../../../arm-none-eabi/lib/armv7e-m/libg.a(lib_a-svfiprintf.o)
                              /opt/R2P/tools/gcc-arm-none-eabi-4_9-2014q4/bin/../lib/gcc/arm-none-eabi/4.9.3/../../../../arm-none-eabi/lib/armv7e-m/libg.a(lib_a-svfprintf.o) (__ssprint_r)
/opt/R2P/tools/gcc-arm-none-eabi-4_9-2014q4/bin/../lib/gcc/arm-none-eabi/4.9.3/../../../../arm-none-eabi/lib/armv7e-m/libg.a(lib_a-callocr.o)
                              /opt/R2P/tools/gcc-arm-none-eabi-4_9-2014q4/bin/../lib/gcc/arm-none-eabi/4.9.3/../../../../arm-none-eabi/lib/armv7e-m/libg.a(lib_a-mprec.o) (_calloc_r)
/opt/R2P/tools/gcc-arm-none-eabi-4_9-2014q4/bin/../lib/gcc/arm-none-eabi/4.9.3/../../../../arm-none-eabi/lib/armv7e-m/libg.a(lib_a-freer.o)
                              /opt/R2P/tools/gcc-arm-none-eabi-4_9-2014q4/bin/../lib/gcc/arm-none-eabi/4.9.3/../../../../arm-none-eabi/lib/armv7e-m/libg.a(lib_a-mallocr.o) (_free_r)
/opt/R2P/tools/gcc-arm-none-eabi-4_9-2014q4/bin/../lib/gcc/arm-none-eabi/4.9.3/../../../../arm-none-eabi/lib/armv7e-m/libg.a(lib_a-memmove.o)
                              /opt/R2P/tools/gcc-arm-none-eabi-4_9-2014q4/bin/../lib/gcc/arm-none-eabi/4.9.3/../../../../arm-none-eabi/lib/armv7e-m/libg.a(lib_a-svfiprintf.o) (memmove)
/opt/R2P/tools/gcc-arm-none-eabi-4_9-2014q4/bin/../lib/gcc/arm-none-eabi/4.9.3/../../../../arm-none-eabi/lib/armv7e-m/libg.a(lib_a-reallocr.o)
                              /opt/R2P/tools/gcc-arm-none-eabi-4_9-2014q4/bin/../lib/gcc/arm-none-eabi/4.9.3/../../../../arm-none-eabi/lib/armv7e-m/libg.a(lib_a-svfiprintf.o) (_realloc_r)
/opt/R2P/tools/gcc-arm-none-eabi-4_9-2014q4/bin/../lib/gcc/arm-none-eabi/4.9.3/armv7e-m/libgcc.a(_arm_cmpdf2.o)
                              /opt/R2P/tools/gcc-arm-none-eabi-4_9-2014q4/bin/../lib/gcc/arm-none-eabi/4.9.3/../../../../arm-none-eabi/lib/armv7e-m/libg.a(lib_a-svfprintf.o) (__aeabi_dcmpeq)
/opt/R2P/tools/gcc-arm-none-eabi-4_9-2014q4/bin/../lib/gcc/arm-none-eabi/4.9.3/armv7e-m/libgcc.a(_aeabi_uldivmod.o)
                              /opt/R2P/tools/gcc-arm-none-eabi-4_9-2014q4/bin/../lib/gcc/arm-none-eabi/4.9.3/../../../../arm-none-eabi/lib/armv7e-m/libg.a(lib_a-svfprintf.o) (__aeabi_uldivmod)
/opt/R2P/tools/gcc-arm-none-eabi-4_9-2014q4/bin/../lib/gcc/arm-none-eabi/4.9.3/armv7e-m/libgcc.a(bpabi.o)
                              /opt/R2P/tools/gcc-arm-none-eabi-4_9-2014q4/bin/../lib/gcc/arm-none-eabi/4.9.3/armv7e-m/libgcc.a(_aeabi_uldivmod.o) (__gnu_uldivmod_helper)
/opt/R2P/tools/gcc-arm-none-eabi-4_9-2014q4/bin/../lib/gcc/arm-none-eabi/4.9.3/armv7e-m/libgcc.a(_dvmd_tls.o)
                              /opt/R2P/tools/gcc-arm-none-eabi-4_9-2014q4/bin/../lib/gcc/arm-none-eabi/4.9.3/armv7e-m/libgcc.a(_aeabi_uldivmod.o) (__aeabi_ldiv0)
/opt/R2P/tools/gcc-arm-none-eabi-4_9-2014q4/bin/../lib/gcc/arm-none-eabi/4.9.3/armv7e-m/libgcc.a(_divdi3.o)
                              /opt/R2P/tools/gcc-arm-none-eabi-4_9-2014q4/bin/../lib/gcc/arm-none-eabi/4.9.3/armv7e-m/libgcc.a(bpabi.o) (__divdi3)
/opt/R2P/tools/gcc-arm-none-eabi-4_9-2014q4/bin/../lib/gcc/arm-none-eabi/4.9.3/armv7e-m/libgcc.a(_udivdi3.o)
                              /opt/R2P/tools/gcc-arm-none-eabi-4_9-2014q4/bin/../lib/gcc/arm-none-eabi/4.9.3/armv7e-m/libgcc.a(bpabi.o) (__udivdi3)

Allocating common symbols
Common symbol       size              file

__dso_handle        0x4               build/obj/stubs.o
shell_terminated    0x4               build/obj/shell.o
dbg_trace_buffer    0x408             build/obj/chdebug.o
dbg_panic_msg       0x4               build/obj/chdebug.o
SD3                 0x25c             build/obj/serial_lld.o
dbg_isr_cnt         0x4               build/obj/chdebug.o
vtlist              0x10              build/obj/chvt.o
SPID2               0x30              build/obj/spi_lld.o
rlist               0x1c              build/obj/chschd.o
USBD1               0x84              build/obj/usb_lld.o
dbg_lock_cnt        0x4               build/obj/chdebug.o
RTCAND1             0x60              build/obj/rtcan_lld_can.o
_idle_thread_wa     0x1a0             build/obj/chsys.o
I2CD2               0x38              build/obj/i2c_lld.o
SDU1                0x258             build/obj/usbcfg.o

Discarded input sections

 .group         0x00000000        0x8 build/obj/SimplePool_.o
 .group         0x00000000        0x8 build/obj/SimplePool_.o
 .group         0x00000000        0x8 build/obj/SimplePool_.o
 .group         0x00000000        0x8 build/obj/SimplePool_.o
 .group         0x00000000        0x8 build/obj/SimplePool_.o
 .group         0x00000000        0x8 build/obj/StaticList_.o
 .group         0x00000000        0x8 build/obj/StaticList_.o
 .group         0x00000000        0x8 build/obj/StaticList_.o
 .group         0x00000000        0x8 build/obj/StaticList_.o
 .group         0x00000000        0x8 build/obj/StaticList_.o
 .group         0x00000000        0x8 build/obj/StaticList_.o
 .group         0x00000000        0x8 build/obj/StaticList_.o
 .group         0x00000000        0x8 build/obj/StaticList_.o
 .text._ZN3r2p10UncopyableC2Ev
                0x00000000        0xc build/obj/StaticList_.o
 .text._ZN3r2p8SysLock_7acquireEv
                0x00000000       0x10 build/obj/StaticList_.o
 .text._ZN3r2p8SysLock_7releaseEv
                0x00000000       0x10 build/obj/StaticList_.o
 .text._ZN3r2p7SysLock7acquireEv
                0x00000000        0x8 build/obj/StaticList_.o
 .text._ZN3r2p7SysLock7releaseEv
                0x00000000        0x8 build/obj/StaticList_.o
 .group         0x00000000        0x8 build/obj/StaticQueue_.o
 .group         0x00000000        0x8 build/obj/StaticQueue_.o
 .group         0x00000000        0x8 build/obj/StaticQueue_.o
 .group         0x00000000        0x8 build/obj/StaticQueue_.o
 .group         0x00000000        0x8 build/obj/StaticQueue_.o
 .group         0x00000000        0x8 build/obj/StaticQueue_.o
 .text._ZN3r2p10UncopyableC2Ev
                0x00000000        0xc build/obj/StaticQueue_.o
 .text._ZN3r2p8SysLock_7acquireEv
                0x00000000       0x10 build/obj/StaticQueue_.o
 .text._ZN3r2p8SysLock_7releaseEv
                0x00000000       0x10 build/obj/StaticQueue_.o
 .text._ZN3r2p7SysLock7acquireEv
                0x00000000        0x8 build/obj/StaticQueue_.o
 .text._ZN3r2p7SysLock7releaseEv
                0x00000000        0x8 build/obj/StaticQueue_.o
 .group         0x00000000        0x8 build/obj/BasePublisher.o
 .group         0x00000000        0x8 build/obj/BasePublisher.o
 .group         0x00000000        0x8 build/obj/BasePublisher.o
 .group         0x00000000        0x8 build/obj/BasePublisher.o
 .group         0x00000000        0x8 build/obj/BasePublisher.o
 .group         0x00000000        0x8 build/obj/BasePublisher.o
 .group         0x00000000        0x8 build/obj/BasePublisher.o
 .group         0x00000000        0x8 build/obj/BasePublisher.o
 .group         0x00000000        0x8 build/obj/BasePublisher.o
 .text._ZN3r2p10UncopyableC2Ev
                0x00000000        0xc build/obj/BasePublisher.o
 .group         0x00000000        0x8 build/obj/BaseSubscriber.o
 .group         0x00000000        0x8 build/obj/BaseSubscriber.o
 .group         0x00000000        0x8 build/obj/BaseSubscriber.o
 .group         0x00000000        0x8 build/obj/BaseSubscriber.o
 .group         0x00000000        0x8 build/obj/BaseSubscriber.o
 .group         0x00000000        0x8 build/obj/BaseSubscriber.o
 .group         0x00000000        0x8 build/obj/BaseSubscriber.o
 .group         0x00000000        0x8 build/obj/BaseSubscriber.o
 .group         0x00000000        0x8 build/obj/BaseSubscriber.o
 .group         0x00000000        0x8 build/obj/BaseSubscriber.o
 .text._ZN3r2p10UncopyableC2Ev
                0x00000000        0xc build/obj/BaseSubscriber.o
 .text._ZN3r2p10UncopyableD2Ev
                0x00000000        0xc build/obj/BaseSubscriber.o
 .text._ZN3r2p11MemoryPool_11free_unsafeEPv
                0x00000000       0x20 build/obj/BaseSubscriber.o
 .text._ZN3r2p11MemoryPool_4freeEPv
                0x00000000       0x20 build/obj/BaseSubscriber.o
 .text._ZN3r2p7Message14release_unsafeEv
                0x00000000       0x40 build/obj/BaseSubscriber.o
 .text._ZN3r2p5Topic11free_unsafeERNS_7MessageE
                0x00000000       0x1c build/obj/BaseSubscriber.o
 .text._ZN3r2p5Topic4freeERNS_7MessageE
                0x00000000       0x1c build/obj/BaseSubscriber.o
 .group         0x00000000        0x8 build/obj/BaseSubscriberQueue.o
 .group         0x00000000        0x8 build/obj/BaseSubscriberQueue.o
 .text._ZN3r2p10UncopyableC2Ev
                0x00000000        0xc build/obj/BaseSubscriberQueue.o
 .group         0x00000000        0x8 build/obj/Checksummer.o
 .group         0x00000000        0x8 build/obj/LocalPublisher.o
 .group         0x00000000        0x8 build/obj/LocalPublisher.o
 .group         0x00000000        0x8 build/obj/LocalSubscriber.o
 .group         0x00000000        0x8 build/obj/LocalSubscriber.o
 .group         0x00000000        0x8 build/obj/LocalSubscriber.o
 .group         0x00000000        0x8 build/obj/LocalSubscriber.o
 .group         0x00000000        0x8 build/obj/LocalSubscriber.o
 .group         0x00000000        0x8 build/obj/LocalSubscriber.o
 .group         0x00000000        0x8 build/obj/LocalSubscriber.o
 .group         0x00000000        0x8 build/obj/LocalSubscriber.o
 .group         0x00000000        0x8 build/obj/LocalSubscriber.o
 .group         0x00000000        0x8 build/obj/LocalSubscriber.o
 .group         0x00000000        0x8 build/obj/LocalSubscriber.o
 .group         0x00000000        0x8 build/obj/LocalSubscriber.o
 .group         0x00000000        0x8 build/obj/LocalSubscriber.o
 .group         0x00000000        0x8 build/obj/LocalSubscriber.o
 .group         0x00000000        0x8 build/obj/LocalSubscriber.o
 .group         0x00000000        0x8 build/obj/LocalSubscriber.o
 .group         0x00000000        0x8 build/obj/LocalSubscriber.o
 .group         0x00000000        0x8 build/obj/LocalSubscriber.o
 .group         0x00000000        0x8 build/obj/LocalSubscriber.o
 .group         0x00000000        0x8 build/obj/LocalSubscriber.o
 .group         0x00000000        0x8 build/obj/LocalSubscriber.o
 .text._ZN3r2p10UncopyableD2Ev
                0x00000000        0xc build/obj/LocalSubscriber.o
 .text._ZN3r2p8SysLock_7acquireEv
                0x00000000       0x10 build/obj/LocalSubscriber.o
 .text._ZN3r2p8SysLock_7releaseEv
                0x00000000       0x10 build/obj/LocalSubscriber.o
 .text._ZN3r2p7SysLock7acquireEv
                0x00000000        0x8 build/obj/LocalSubscriber.o
 .text._ZN3r2p7SysLock7releaseEv
                0x00000000        0x8 build/obj/LocalSubscriber.o
 .group         0x00000000        0x8 build/obj/MessagePtrQueue.o
 .group         0x00000000        0x8 build/obj/MessagePtrQueue.o
 .text._ZN3r2p10UncopyableC2Ev
                0x00000000        0xc build/obj/MessagePtrQueue.o
 .group         0x00000000        0x8 build/obj/Message.o
 .group         0x00000000        0x8 build/obj/Message.o
 .group         0x00000000        0x8 build/obj/Message.o
 .group         0x00000000        0x8 build/obj/Message.o
 .group         0x00000000        0x8 build/obj/Message.o
 .group         0x00000000        0x8 build/obj/Message.o
 .group         0x00000000        0x8 build/obj/Message.o
 .text._ZN3r2p8SysLock_7acquireEv
                0x00000000       0x10 build/obj/Message.o
 .text._ZN3r2p8SysLock_7releaseEv
                0x00000000       0x10 build/obj/Message.o
 .text._ZN3r2p7SysLock7acquireEv
                0x00000000        0x8 build/obj/Message.o
 .text._ZN3r2p7SysLock7releaseEv
                0x00000000        0x8 build/obj/Message.o
 .text._ZN3r2p7Message14acquire_unsafeEv
                0x00000000       0x3c build/obj/Message.o
 .text._ZN3r2p7Message14release_unsafeEv
                0x00000000       0x40 build/obj/Message.o
 .group         0x00000000        0x8 build/obj/Middleware.o
 .group         0x00000000        0x8 build/obj/Middleware.o
 .group         0x00000000        0x8 build/obj/Middleware.o
 .group         0x00000000        0x8 build/obj/Middleware.o
 .group         0x00000000        0x8 build/obj/Middleware.o
 .group         0x00000000        0x8 build/obj/Middleware.o
 .group         0x00000000        0x8 build/obj/Middleware.o
 .group         0x00000000        0x8 build/obj/Middleware.o
 .group         0x00000000        0x8 build/obj/Middleware.o
 .group         0x00000000        0x8 build/obj/Middleware.o
 .group         0x00000000        0x8 build/obj/Middleware.o
 .group         0x00000000        0x8 build/obj/Middleware.o
 .group         0x00000000        0x8 build/obj/Middleware.o
 .group         0x00000000        0x8 build/obj/Middleware.o
 .group         0x00000000        0x8 build/obj/Middleware.o
 .group         0x00000000        0x8 build/obj/Middleware.o
 .group         0x00000000        0x8 build/obj/Middleware.o
 .group         0x00000000        0x8 build/obj/Middleware.o
 .group         0x00000000        0x8 build/obj/Middleware.o
 .group         0x00000000        0x8 build/obj/Middleware.o
 .group         0x00000000        0x8 build/obj/Middleware.o
 .group         0x00000000        0x8 build/obj/Middleware.o
 .group         0x00000000        0x8 build/obj/Middleware.o
 .group         0x00000000        0x8 build/obj/Middleware.o
 .group         0x00000000        0x8 build/obj/Middleware.o
 .group         0x00000000        0x8 build/obj/Middleware.o
 .group         0x00000000        0x8 build/obj/Middleware.o
 .group         0x00000000        0x8 build/obj/Middleware.o
 .group         0x00000000        0x8 build/obj/Middleware.o
 .group         0x00000000        0x8 build/obj/Middleware.o
 .group         0x00000000        0x8 build/obj/Middleware.o
 .group         0x00000000        0x8 build/obj/Middleware.o
 .group         0x00000000        0x8 build/obj/Middleware.o
 .group         0x00000000        0x8 build/obj/Middleware.o
 .group         0x00000000        0x8 build/obj/Middleware.o
 .group         0x00000000        0x8 build/obj/Middleware.o
 .group         0x00000000        0x8 build/obj/Middleware.o
 .group         0x00000000        0x8 build/obj/Middleware.o
 .group         0x00000000        0x8 build/obj/Middleware.o
 .group         0x00000000        0x8 build/obj/Middleware.o
 .group         0x00000000        0x8 build/obj/Middleware.o
 .group         0x00000000        0x8 build/obj/Middleware.o
 .group         0x00000000        0x8 build/obj/Middleware.o
 .group         0x00000000        0x8 build/obj/Middleware.o
 .group         0x00000000        0x8 build/obj/Middleware.o
 .group         0x00000000        0x8 build/obj/Middleware.o
 .group         0x00000000        0x8 build/obj/Middleware.o
 .group         0x00000000        0x8 build/obj/Middleware.o
 .group         0x00000000        0x8 build/obj/Middleware.o
 .group         0x00000000        0x8 build/obj/Middleware.o
 .group         0x00000000        0x8 build/obj/Middleware.o
 .group         0x00000000        0x8 build/obj/Middleware.o
 .group         0x00000000        0x8 build/obj/Middleware.o
 .group         0x00000000        0x8 build/obj/Middleware.o
 .group         0x00000000        0x8 build/obj/Middleware.o
 .group         0x00000000        0x8 build/obj/Middleware.o
 .group         0x00000000        0x8 build/obj/Middleware.o
 .group         0x00000000        0x8 build/obj/Middleware.o
 .group         0x00000000        0x8 build/obj/Middleware.o
 .group         0x00000000        0x8 build/obj/Middleware.o
 .group         0x00000000        0x8 build/obj/Middleware.o
 .group         0x00000000        0x8 build/obj/Middleware.o
 .group         0x00000000        0x8 build/obj/Middleware.o
 .group         0x00000000        0x8 build/obj/Middleware.o
 .group         0x00000000        0x8 build/obj/Middleware.o
 .group         0x00000000        0x8 build/obj/Middleware.o
 .group         0x00000000        0x8 build/obj/Middleware.o
 .group         0x00000000        0x8 build/obj/Middleware.o
 .group         0x00000000        0x8 build/obj/Middleware.o
 .group         0x00000000        0x8 build/obj/Middleware.o
 .group         0x00000000        0x8 build/obj/Middleware.o
 .group         0x00000000        0x8 build/obj/Middleware.o
 .group         0x00000000        0x8 build/obj/Middleware.o
 .group         0x00000000        0x8 build/obj/Middleware.o
 .group         0x00000000        0x8 build/obj/Middleware.o
 .group         0x00000000        0x8 build/obj/Middleware.o
 .group         0x00000000        0x8 build/obj/Middleware.o
 .group         0x00000000        0x8 build/obj/Middleware.o
 .group         0x00000000        0x8 build/obj/Middleware.o
 .group         0x00000000        0x8 build/obj/Middleware.o
 .group         0x00000000        0x8 build/obj/Middleware.o
 .group         0x00000000        0x8 build/obj/Middleware.o
 .group         0x00000000        0x8 build/obj/Middleware.o
 .group         0x00000000        0x8 build/obj/Middleware.o
 .group         0x00000000        0x8 build/obj/Middleware.o
 .group         0x00000000        0x8 build/obj/Middleware.o
 .group         0x00000000        0x8 build/obj/Middleware.o
 .group         0x00000000        0x8 build/obj/Middleware.o
 .group         0x00000000        0x8 build/obj/Middleware.o
 .group         0x00000000        0x8 build/obj/Middleware.o
 .group         0x00000000        0x8 build/obj/Middleware.o
 .group         0x00000000        0x8 build/obj/Middleware.o
 .group         0x00000000        0x8 build/obj/Middleware.o
 .group         0x00000000        0x8 build/obj/Middleware.o
 .group         0x00000000        0x8 build/obj/Middleware.o
 .group         0x00000000        0x8 build/obj/Middleware.o
 .group         0x00000000        0x8 build/obj/Middleware.o
 .group         0x00000000        0x8 build/obj/Middleware.o
 .group         0x00000000        0x8 build/obj/Middleware.o
 .group         0x00000000        0x8 build/obj/Middleware.o
 .group         0x00000000        0x8 build/obj/Middleware.o
 .group         0x00000000        0x8 build/obj/Middleware.o
 .group         0x00000000        0x8 build/obj/Middleware.o
 .group         0x00000000        0x8 build/obj/Middleware.o
 .group         0x00000000        0x8 build/obj/Middleware.o
 .group         0x00000000        0x8 build/obj/Middleware.o
 .group         0x00000000        0x8 build/obj/Middleware.o
 .group         0x00000000        0x8 build/obj/Middleware.o
 .group         0x00000000        0x8 build/obj/Middleware.o
 .group         0x00000000        0x8 build/obj/Middleware.o
 .group         0x00000000        0x8 build/obj/Middleware.o
 .group         0x00000000        0x8 build/obj/Middleware.o
 .group         0x00000000        0x8 build/obj/Middleware.o
 .group         0x00000000        0x8 build/obj/Middleware.o
 .group         0x00000000        0x8 build/obj/Middleware.o
 .group         0x00000000        0x8 build/obj/Middleware.o
 .group         0x00000000        0x8 build/obj/Middleware.o
 .group         0x00000000        0x8 build/obj/Middleware.o
 .group         0x00000000        0x8 build/obj/Middleware.o
 .group         0x00000000        0x8 build/obj/Middleware.o
 .group         0x00000000        0x8 build/obj/Middleware.o
 .group         0x00000000        0x8 build/obj/Middleware.o
 .group         0x00000000        0x8 build/obj/Middleware.o
 .group         0x00000000        0x8 build/obj/Middleware.o
 .group         0x00000000        0x8 build/obj/Middleware.o
 .group         0x00000000        0x8 build/obj/Middleware.o
 .group         0x00000000        0x8 build/obj/Middleware.o
 .group         0x00000000        0x8 build/obj/Middleware.o
 .group         0x00000000        0x8 build/obj/Middleware.o
 .group         0x00000000        0x8 build/obj/Middleware.o
 .group         0x00000000        0x8 build/obj/Middleware.o
 .group         0x00000000        0x8 build/obj/Middleware.o
 .group         0x00000000        0x8 build/obj/Middleware.o
 .group         0x00000000        0x8 build/obj/Middleware.o
 .group         0x00000000        0xc build/obj/Middleware.o
 .group         0x00000000        0x8 build/obj/Middleware.o
 .group         0x00000000        0xc build/obj/Middleware.o
 .group         0x00000000        0x8 build/obj/Middleware.o
 .group         0x00000000        0x8 build/obj/Middleware.o
 .group         0x00000000        0x8 build/obj/Middleware.o
 .group         0x00000000        0x8 build/obj/Middleware.o
 .group         0x00000000        0xc build/obj/Middleware.o
 .group         0x00000000        0x8 build/obj/Middleware.o
 .group         0x00000000        0xc build/obj/Middleware.o
 .group         0x00000000        0x8 build/obj/Middleware.o
 .group         0x00000000        0x8 build/obj/Middleware.o
 .group         0x00000000        0x8 build/obj/Middleware.o
 .group         0x00000000        0x8 build/obj/Middleware.o
 .group         0x00000000        0x8 build/obj/Middleware.o
 .group         0x00000000        0x8 build/obj/Middleware.o
 .group         0x00000000        0x8 build/obj/Middleware.o
 .group         0x00000000        0x8 build/obj/Middleware.o
 .group         0x00000000        0x8 build/obj/Middleware.o
 .group         0x00000000        0x8 build/obj/Middleware.o
 .group         0x00000000        0x8 build/obj/Middleware.o
 .group         0x00000000        0x8 build/obj/Middleware.o
 .group         0x00000000        0x8 build/obj/Middleware.o
 .group         0x00000000        0x8 build/obj/Middleware.o
 .group         0x00000000        0x8 build/obj/Middleware.o
 .group         0x00000000        0x8 build/obj/Middleware.o
 .group         0x00000000        0x8 build/obj/Middleware.o
 .group         0x00000000        0x8 build/obj/Middleware.o
 .group         0x00000000        0x8 build/obj/Middleware.o
 .group         0x00000000        0x8 build/obj/Middleware.o
 .group         0x00000000        0x8 build/obj/Middleware.o
 .group         0x00000000        0x8 build/obj/Middleware.o
 .group         0x00000000        0x8 build/obj/Middleware.o
 .group         0x00000000        0x8 build/obj/Middleware.o
 .group         0x00000000        0x8 build/obj/Middleware.o
 .group         0x00000000        0x8 build/obj/Middleware.o
 .group         0x00000000        0x8 build/obj/Middleware.o
 .group         0x00000000        0x8 build/obj/Middleware.o
 .group         0x00000000        0x8 build/obj/Middleware.o
 .group         0x00000000        0x8 build/obj/Middleware.o
 .group         0x00000000        0x8 build/obj/Middleware.o
 .group         0x00000000        0x8 build/obj/Middleware.o
 .text._ZN3r2p10UncopyableC2Ev
                0x00000000        0xc build/obj/Middleware.o
 .text._ZN3r2p10UncopyableD2Ev
                0x00000000        0xc build/obj/Middleware.o
 .text._ZN3r2p8SysLock_7acquireEv
                0x00000000       0x10 build/obj/Middleware.o
 .text._ZN3r2p8SysLock_7releaseEv
                0x00000000       0x10 build/obj/Middleware.o
 .text._ZN3r2p7SysLock7acquireEv
                0x00000000        0x8 build/obj/Middleware.o
 .text._ZN3r2p7SysLock7releaseEv
                0x00000000        0x8 build/obj/Middleware.o
 .text._ZN3r2p4TimeaSERKS0_
                0x00000000       0x18 build/obj/Middleware.o
 .text._ZN3r2p7Message12reset_unsafeEv
                0x00000000       0x14 build/obj/Middleware.o
 .text._ZNK3r2p10SpinEvent_10get_threadEv
                0x00000000       0x10 build/obj/Middleware.o
 .text._ZN3r2p10SpinEvent_13signal_unsafeEj
                0x00000000       0x3c build/obj/Middleware.o
 .text._ZNK3r2p9SpinEvent10get_threadEv
                0x00000000       0x18 build/obj/Middleware.o
 .text._ZN3r2p9SpinEvent13signal_unsafeEj
                0x00000000       0x18 build/obj/Middleware.o
 .text._ZNK3r2p4Node11get_enabledEv
                0x00000000       0x24 build/obj/Middleware.o
 .text._ZN3r2p4Node13notify_unsafeEj
                0x00000000       0x1c build/obj/Middleware.o
 .text._ZNK3r2p15LocalSubscriber16get_queue_lengthEv
                0x00000000       0x1c build/obj/Middleware.o
 .text._ZN3r2p15LocalSubscriber12fetch_unsafeERPNS_7MessageERNS_4TimeE
                0x00000000       0x3c build/obj/Middleware.o
 .text._ZN3r2p15LocalSubscriber13notify_unsafeERNS_7MessageERKNS_4TimeE
                0x00000000       0x58 build/obj/Middleware.o
 .text._ZNK3r2p5Topic8get_nameEv
                0x00000000       0x10 build/obj/Middleware.o
 .text._ZN3r2p5Topic8has_nameERKS0_PKc
                0x00000000       0x34 build/obj/Middleware.o
 .text._ZNK3r2p10ArrayQueueIPNS_7MessageEE10get_lengthEv
                0x00000000       0x10 build/obj/Middleware.o
 .text._ZN3r2p10ArrayQueueIPNS_7MessageEE12fetch_unsafeERS2_
                0x00000000       0x60 build/obj/Middleware.o
 .text._ZN3r2p10ArrayQueueIPNS_7MessageEE11post_unsafeES2_
                0x00000000       0x60 build/obj/Middleware.o
 .group         0x00000000        0x8 build/obj/Node.o
 .group         0x00000000        0x8 build/obj/Node.o
 .group         0x00000000        0x8 build/obj/Node.o
 .group         0x00000000        0x8 build/obj/Node.o
 .group         0x00000000        0x8 build/obj/Node.o
 .group         0x00000000        0x8 build/obj/Node.o
 .group         0x00000000        0x8 build/obj/Node.o
 .group         0x00000000        0x8 build/obj/Node.o
 .group         0x00000000        0x8 build/obj/Node.o
 .group         0x00000000        0x8 build/obj/Node.o
 .group         0x00000000        0x8 build/obj/Node.o
 .group         0x00000000        0x8 build/obj/Node.o
 .group         0x00000000        0x8 build/obj/Node.o
 .group         0x00000000        0x8 build/obj/Node.o
 .group         0x00000000        0x8 build/obj/Node.o
 .group         0x00000000        0x8 build/obj/Node.o
 .group         0x00000000        0x8 build/obj/Node.o
 .group         0x00000000        0x8 build/obj/Node.o
 .group         0x00000000        0x8 build/obj/Node.o
 .group         0x00000000        0x8 build/obj/Node.o
 .group         0x00000000        0x8 build/obj/Node.o
 .group         0x00000000        0x8 build/obj/Node.o
 .group         0x00000000        0x8 build/obj/Node.o
 .group         0x00000000        0x8 build/obj/Node.o
 .group         0x00000000        0x8 build/obj/Node.o
 .group         0x00000000        0x8 build/obj/Node.o
 .group         0x00000000        0x8 build/obj/Node.o
 .group         0x00000000        0x8 build/obj/Node.o
 .group         0x00000000        0x8 build/obj/Node.o
 .group         0x00000000        0x8 build/obj/Node.o
 .group         0x00000000        0x8 build/obj/Node.o
 .group         0x00000000        0x8 build/obj/Node.o
 .group         0x00000000        0x8 build/obj/Node.o
 .group         0x00000000        0x8 build/obj/Node.o
 .group         0x00000000        0x8 build/obj/Node.o
 .group         0x00000000        0x8 build/obj/Node.o
 .group         0x00000000        0x8 build/obj/Node.o
 .group         0x00000000        0x8 build/obj/Node.o
 .group         0x00000000        0x8 build/obj/Node.o
 .group         0x00000000        0x8 build/obj/Node.o
 .group         0x00000000        0x8 build/obj/Node.o
 .group         0x00000000        0x8 build/obj/Node.o
 .group         0x00000000        0x8 build/obj/Node.o
 .text._ZN3r2p10UncopyableC2Ev
                0x00000000        0xc build/obj/Node.o
 .text._ZN3r2p10UncopyableD2Ev
                0x00000000        0xc build/obj/Node.o
 .text._ZN3r2p8SysLock_7acquireEv
                0x00000000       0x10 build/obj/Node.o
 .text._ZN3r2p8SysLock_7releaseEv
                0x00000000       0x10 build/obj/Node.o
 .text._ZN3r2p7SysLock7acquireEv
                0x00000000        0x8 build/obj/Node.o
 .text._ZN3r2p7SysLock7releaseEv
                0x00000000        0x8 build/obj/Node.o
 .text._ZN3r2p4TimeC2Ev
                0x00000000       0x14 build/obj/Node.o
 .text._ZN3r2p7Thread_4selfEv
                0x00000000        0xc build/obj/Node.o
 .text._ZN3r2p6Thread4selfEv
                0x00000000        0xc build/obj/Node.o
 .text._ZNK3r2p14BaseSubscriber9get_topicEv
                0x00000000       0x10 build/obj/Node.o
 .text._ZNK3r2p13BasePublisher9get_topicEv
                0x00000000       0x10 build/obj/Node.o
 .text._ZNK3r2p10StaticListINS_15LocalSubscriberEE15is_empty_unsafeEv
                0x00000000       0x18 build/obj/Node.o
 .text._ZNK3r2p10StaticListINS_15LocalSubscriberEE15get_head_unsafeEv
                0x00000000       0x10 build/obj/Node.o
 .group         0x00000000        0x8 build/obj/RemotePublisher.o
 .group         0x00000000        0x8 build/obj/RemotePublisher.o
 .group         0x00000000        0x8 build/obj/RemoteSubscriber.o
 .group         0x00000000        0x8 build/obj/RemoteSubscriber.o
 .group         0x00000000        0x8 build/obj/Time.o
 .group         0x00000000        0x8 build/obj/TimestampedMsgPtrQueue.o
 .group         0x00000000        0x8 build/obj/TimestampedMsgPtrQueue.o
 .text._ZN3r2p10UncopyableC2Ev
                0x00000000        0xc build/obj/TimestampedMsgPtrQueue.o
 .group         0x00000000        0x8 build/obj/Topic.o
 .group         0x00000000        0x8 build/obj/Topic.o
 .group         0x00000000        0x8 build/obj/Topic.o
 .group         0x00000000        0x8 build/obj/Topic.o
 .group         0x00000000        0x8 build/obj/Topic.o
 .group         0x00000000        0x8 build/obj/Topic.o
 .group         0x00000000        0x8 build/obj/Topic.o
 .group         0x00000000        0x8 build/obj/Topic.o
 .group         0x00000000        0x8 build/obj/Topic.o
 .group         0x00000000        0x8 build/obj/Topic.o
 .group         0x00000000        0x8 build/obj/Topic.o
 .group         0x00000000        0x8 build/obj/Topic.o
 .group         0x00000000        0x8 build/obj/Topic.o
 .group         0x00000000        0x8 build/obj/Topic.o
 .group         0x00000000        0x8 build/obj/Topic.o
 .group         0x00000000        0x8 build/obj/Topic.o
 .group         0x00000000        0x8 build/obj/Topic.o
 .group         0x00000000        0x8 build/obj/Topic.o
 .group         0x00000000        0x8 build/obj/Topic.o
 .group         0x00000000        0x8 build/obj/Topic.o
 .group         0x00000000        0x8 build/obj/Topic.o
 .group         0x00000000        0x8 build/obj/Topic.o
 .group         0x00000000        0x8 build/obj/Topic.o
 .group         0x00000000        0x8 build/obj/Topic.o
 .group         0x00000000        0x8 build/obj/Topic.o
 .group         0x00000000        0x8 build/obj/Topic.o
 .group         0x00000000        0x8 build/obj/Topic.o
 .group         0x00000000        0x8 build/obj/Topic.o
 .group         0x00000000        0x8 build/obj/Topic.o
 .group         0x00000000        0x8 build/obj/Topic.o
 .group         0x00000000        0x8 build/obj/Topic.o
 .group         0x00000000        0x8 build/obj/Topic.o
 .group         0x00000000        0x8 build/obj/Topic.o
 .group         0x00000000        0x8 build/obj/Topic.o
 .group         0x00000000        0x8 build/obj/Topic.o
 .group         0x00000000        0x8 build/obj/Topic.o
 .group         0x00000000        0x8 build/obj/Topic.o
 .group         0x00000000        0x8 build/obj/Topic.o
 .group         0x00000000        0x8 build/obj/Topic.o
 .group         0x00000000        0x8 build/obj/Topic.o
 .group         0x00000000        0x8 build/obj/Topic.o
 .group         0x00000000        0x8 build/obj/Topic.o
 .group         0x00000000        0x8 build/obj/Topic.o
 .group         0x00000000        0x8 build/obj/Topic.o
 .group         0x00000000        0x8 build/obj/Topic.o
 .group         0x00000000        0x8 build/obj/Topic.o
 .group         0x00000000        0x8 build/obj/Topic.o
 .group         0x00000000        0x8 build/obj/Topic.o
 .group         0x00000000        0x8 build/obj/Topic.o
 .group         0x00000000        0x8 build/obj/Topic.o
 .group         0x00000000        0x8 build/obj/Topic.o
 .group         0x00000000        0x8 build/obj/Topic.o
 .group         0x00000000        0x8 build/obj/Topic.o
 .group         0x00000000        0x8 build/obj/Topic.o
 .group         0x00000000        0x8 build/obj/Topic.o
 .group         0x00000000        0x8 build/obj/Topic.o
 .group         0x00000000        0x8 build/obj/Topic.o
 .group         0x00000000        0x8 build/obj/Topic.o
 .group         0x00000000        0x8 build/obj/Topic.o
 .group         0x00000000        0x8 build/obj/Topic.o
 .group         0x00000000        0x8 build/obj/Topic.o
 .group         0x00000000        0x8 build/obj/Topic.o
 .group         0x00000000        0x8 build/obj/Topic.o
 .group         0x00000000        0x8 build/obj/Topic.o
 .group         0x00000000        0x8 build/obj/Topic.o
 .group         0x00000000        0x8 build/obj/Topic.o
 .text._ZN3r2p10UncopyableC2Ev
                0x00000000        0xc build/obj/Topic.o
 .text._ZN3r2p10UncopyableD2Ev
                0x00000000        0xc build/obj/Topic.o
 .text._ZN3r2p8SysLock_7acquireEv
                0x00000000       0x10 build/obj/Topic.o
 .text._ZN3r2p8SysLock_7releaseEv
                0x00000000       0x10 build/obj/Topic.o
 .text._ZN3r2p7SysLock5ScopeC2Ev
                0x00000000       0x1c build/obj/Topic.o
 .text._ZN3r2p7SysLock5ScopeD2Ev
                0x00000000       0x1c build/obj/Topic.o
 .text._ZN3r2p7SysLock7acquireEv
                0x00000000        0x8 build/obj/Topic.o
 .text._ZN3r2p7SysLock7releaseEv
                0x00000000        0x8 build/obj/Topic.o
 .text._ZNK3r2p11MemoryPool_13get_item_sizeEv
                0x00000000       0x10 build/obj/Topic.o
 .text._ZN3r2p11MemoryPool_12alloc_unsafeEv
                0x00000000       0x18 build/obj/Topic.o
 .text._ZN3r2p11MemoryPool_11free_unsafeEPv
                0x00000000       0x20 build/obj/Topic.o
 .text._ZN3r2p11MemoryPool_4freeEPv
                0x00000000       0x20 build/obj/Topic.o
 .text._ZN3r2p4TimeaSERKS0_
                0x00000000       0x18 build/obj/Topic.o
 .text._ZN3r2p4TimeC2ERKS0_
                0x00000000       0x18 build/obj/Topic.o
 .text._ZN3r2p7Message14acquire_unsafeEv
                0x00000000       0x3c build/obj/Topic.o
 .text._ZN3r2p7Message14release_unsafeEv
                0x00000000       0x40 build/obj/Topic.o
 .text._ZN3r2p7Message12reset_unsafeEv
                0x00000000       0x14 build/obj/Topic.o
 .text._ZNK3r2p5Topic21has_local_subscribersEv
                0x00000000       0x20 build/obj/Topic.o
 .text._ZN3r2p5Topic12alloc_unsafeEv
                0x00000000       0x28 build/obj/Topic.o
 .text._ZN3r2p5Topic11free_unsafeERNS_7MessageE
                0x00000000       0x1c build/obj/Topic.o
 .text._ZN3r2p5Topic4freeERNS_7MessageE
                0x00000000       0x1c build/obj/Topic.o
 .text._ZNK3r2p10StaticListINS_15LocalSubscriberEE15is_empty_unsafeEv
                0x00000000       0x18 build/obj/Topic.o
 .text._ZN3r2p10StaticListINS_15LocalSubscriberEE5beginEv
                0x00000000       0x20 build/obj/Topic.o
 .text._ZN3r2p10StaticListINS_15LocalSubscriberEE3endEv
                0x00000000       0x18 build/obj/Topic.o
 .text._ZNK3r2p10StaticListINS_15LocalSubscriberEE8IteratorneERKS3_
                0x00000000       0x20 build/obj/Topic.o
 .text._ZN3r2p10StaticListINS_15LocalSubscriberEE8IteratorppEv
                0x00000000       0x24 build/obj/Topic.o
 .text._ZNK3r2p10StaticListINS_15LocalSubscriberEE8IteratorptEv
                0x00000000       0x10 build/obj/Topic.o
 .text._ZN3r2p10StaticListINS_15LocalSubscriberEEC2Ev
                0x00000000       0x1c build/obj/Topic.o
 .text._ZNK3r2p10StaticListINS_15LocalSubscriberEE15get_head_unsafeEv
                0x00000000       0x10 build/obj/Topic.o
 .text._ZNK3r2p10StaticListINS_15LocalSubscriberEE8get_headEv
                0x00000000       0x20 build/obj/Topic.o
 .text._ZN3r2p10StaticListINS_15LocalSubscriberEE8IteratorC2EPKNS2_4LinkE
                0x00000000       0x14 build/obj/Topic.o
 .text._ZN3r2p10StaticListINS_15LocalSubscriberEE13unlink_unsafeERNS2_4LinkE
                0x00000000       0x54 build/obj/Topic.o
 .group         0x00000000        0x8 build/obj/Transport.o
 .group         0x00000000        0x8 build/obj/Transport.o
 .group         0x00000000        0x8 build/obj/Transport.o
 .group         0x00000000        0x8 build/obj/Transport.o
 .group         0x00000000        0x8 build/obj/Transport.o
 .group         0x00000000        0x8 build/obj/Transport.o
 .group         0x00000000        0x8 build/obj/Transport.o
 .group         0x00000000        0x8 build/obj/Transport.o
 .group         0x00000000        0x8 build/obj/Transport.o
 .group         0x00000000        0x8 build/obj/Transport.o
 .group         0x00000000        0x8 build/obj/Transport.o
 .group         0x00000000        0x8 build/obj/Transport.o
 .group         0x00000000        0x8 build/obj/Transport.o
 .group         0x00000000        0x8 build/obj/Transport.o
 .group         0x00000000        0x8 build/obj/Transport.o
 .group         0x00000000        0x8 build/obj/Transport.o
 .group         0x00000000        0x8 build/obj/Transport.o
 .group         0x00000000        0x8 build/obj/Transport.o
 .group         0x00000000        0x8 build/obj/Transport.o
 .group         0x00000000        0x8 build/obj/Transport.o
 .group         0x00000000        0x8 build/obj/Transport.o
 .group         0x00000000        0x8 build/obj/Transport.o
 .group         0x00000000        0x8 build/obj/Transport.o
 .group         0x00000000        0x8 build/obj/Transport.o
 .group         0x00000000        0x8 build/obj/Transport.o
 .group         0x00000000        0x8 build/obj/Transport.o
 .group         0x00000000        0x8 build/obj/Transport.o
 .group         0x00000000        0x8 build/obj/Transport.o
 .group         0x00000000        0x8 build/obj/Transport.o
 .group         0x00000000        0x8 build/obj/Transport.o
 .group         0x00000000        0x8 build/obj/Transport.o
 .group         0x00000000        0x8 build/obj/Transport.o
 .group         0x00000000        0x8 build/obj/Transport.o
 .group         0x00000000        0x8 build/obj/Transport.o
 .group         0x00000000        0x8 build/obj/Transport.o
 .group         0x00000000        0x8 build/obj/Transport.o
 .group         0x00000000        0x8 build/obj/Transport.o
 .group         0x00000000        0x8 build/obj/Transport.o
 .group         0x00000000        0x8 build/obj/Transport.o
 .group         0x00000000        0x8 build/obj/Transport.o
 .group         0x00000000        0x8 build/obj/Transport.o
 .group         0x00000000        0x8 build/obj/Transport.o
 .group         0x00000000        0x8 build/obj/Transport.o
 .group         0x00000000        0x8 build/obj/Transport.o
 .group         0x00000000        0x8 build/obj/Transport.o
 .text._ZN3r2p10UncopyableC2Ev
                0x00000000        0xc build/obj/Transport.o
 .text._ZN3r2p10UncopyableD2Ev
                0x00000000        0xc build/obj/Transport.o
 .text._ZN3r2p8SysLock_7acquireEv
                0x00000000       0x10 build/obj/Transport.o
 .text._ZN3r2p8SysLock_7releaseEv
                0x00000000       0x10 build/obj/Transport.o
 .text._ZN3r2p7SysLock7acquireEv
                0x00000000        0x8 build/obj/Transport.o
 .text._ZN3r2p7SysLock7releaseEv
                0x00000000        0x8 build/obj/Transport.o
 .text._ZN3r2p4TimeC2Ev
                0x00000000       0x14 build/obj/Transport.o
 .text._ZN3r2p6Mutex_10initializeEv
                0x00000000       0x14 build/obj/Transport.o
 .text._ZNK3r2p11MemoryPool_13get_item_sizeEv
                0x00000000       0x10 build/obj/Transport.o
 .text._ZN3r2p11MemoryPool_6extendEPvj
                0x00000000       0x1c build/obj/Transport.o
 .text._ZN3r2p13BasePublisher17notify_advertisedERNS_5TopicE
                0x00000000       0x28 build/obj/Transport.o
 .text._ZN3r2p14BaseSubscriber17notify_subscribedERNS_5TopicE
                0x00000000       0x28 build/obj/Transport.o
 .text._ZNK3r2p5Topic8get_nameEv
                0x00000000       0x10 build/obj/Transport.o
 .text._ZNK3r2p5Topic13get_type_sizeEv
                0x00000000       0x1c build/obj/Transport.o
 .text._ZN3r2p5Topic11extend_poolEPNS_7MessageEj
                0x00000000       0x20 build/obj/Transport.o
 .text._ZN3r2p5Topic8has_nameERKS0_PKc
                0x00000000       0x34 build/obj/Transport.o
 .text._ZNK3r2p10StaticListINS_16RemoteSubscriberEE15is_empty_unsafeEv
                0x00000000       0x18 build/obj/Transport.o
 .text._ZN3r2p10StaticListINS_16RemoteSubscriberEEC2Ev
                0x00000000       0x1c build/obj/Transport.o
 .text._ZN3r2p10StaticListINS_16RemoteSubscriberEE13unlink_unsafeERNS2_4LinkE
                0x00000000       0x54 build/obj/Transport.o
 .group         0x00000000        0x8 build/obj/Bootloader.o
 .group         0x00000000        0x8 build/obj/Bootloader.o
 .group         0x00000000        0x8 build/obj/Bootloader.o
 .group         0x00000000        0x8 build/obj/Bootloader.o
 .group         0x00000000        0x8 build/obj/Bootloader.o
 .group         0x00000000        0x8 build/obj/Bootloader.o
 .group         0x00000000        0x8 build/obj/Bootloader.o
 .group         0x00000000        0x8 build/obj/Bootloader.o
 .group         0x00000000        0x8 build/obj/Bootloader.o
 .group         0x00000000        0x8 build/obj/Bootloader.o
 .group         0x00000000        0x8 build/obj/Bootloader.o
 .group         0x00000000        0x8 build/obj/Bootloader.o
 .group         0x00000000        0x8 build/obj/Bootloader.o
 .group         0x00000000        0x8 build/obj/Bootloader.o
 .group         0x00000000        0x8 build/obj/Bootloader.o
 .group         0x00000000        0x8 build/obj/Bootloader.o
 .group         0x00000000        0x8 build/obj/Bootloader.o
 .group         0x00000000        0x8 build/obj/Bootloader.o
 .group         0x00000000        0x8 build/obj/Bootloader.o
 .group         0x00000000        0x8 build/obj/Bootloader.o
 .group         0x00000000        0x8 build/obj/Bootloader.o
 .group         0x00000000        0x8 build/obj/Bootloader.o
 .group         0x00000000        0x8 build/obj/Bootloader.o
 .group         0x00000000        0x8 build/obj/Bootloader.o
 .group         0x00000000        0x8 build/obj/Bootloader.o
 .group         0x00000000        0x8 build/obj/Bootloader.o
 .group         0x00000000        0x8 build/obj/Bootloader.o
 .group         0x00000000        0x8 build/obj/Bootloader.o
 .group         0x00000000        0x8 build/obj/Bootloader.o
 .group         0x00000000        0x8 build/obj/Bootloader.o
 .group         0x00000000        0x8 build/obj/Bootloader.o
 .group         0x00000000        0x8 build/obj/Bootloader.o
 .group         0x00000000        0x8 build/obj/Bootloader.o
 .group         0x00000000        0x8 build/obj/Bootloader.o
 .group         0x00000000        0x8 build/obj/Bootloader.o
 .group         0x00000000        0x8 build/obj/Bootloader.o
 .group         0x00000000        0x8 build/obj/Bootloader.o
 .group         0x00000000        0x8 build/obj/Bootloader.o
 .group         0x00000000        0x8 build/obj/Bootloader.o
 .group         0x00000000        0x8 build/obj/Bootloader.o
 .group         0x00000000        0x8 build/obj/Bootloader.o
 .group         0x00000000        0x8 build/obj/Bootloader.o
 .group         0x00000000        0x8 build/obj/Bootloader.o
 .group         0x00000000        0x8 build/obj/Bootloader.o
 .group         0x00000000        0x8 build/obj/Bootloader.o
 .group         0x00000000        0x8 build/obj/Bootloader.o
 .group         0x00000000        0x8 build/obj/Bootloader.o
 .group         0x00000000        0x8 build/obj/Bootloader.o
 .group         0x00000000        0x8 build/obj/Bootloader.o
 .group         0x00000000        0x8 build/obj/Bootloader.o
 .group         0x00000000        0x8 build/obj/Bootloader.o
 .group         0x00000000        0x8 build/obj/Bootloader.o
 .group         0x00000000        0x8 build/obj/Bootloader.o
 .group         0x00000000        0x8 build/obj/Bootloader.o
 .group         0x00000000        0x8 build/obj/Bootloader.o
 .group         0x00000000        0x8 build/obj/Bootloader.o
 .group         0x00000000        0x8 build/obj/Bootloader.o
 .group         0x00000000        0x8 build/obj/Bootloader.o
 .group         0x00000000        0x8 build/obj/Bootloader.o
 .group         0x00000000        0x8 build/obj/Bootloader.o
 .group         0x00000000        0x8 build/obj/Bootloader.o
 .group         0x00000000        0x8 build/obj/Bootloader.o
 .group         0x00000000        0x8 build/obj/Bootloader.o
 .group         0x00000000        0x8 build/obj/Bootloader.o
 .group         0x00000000        0x8 build/obj/Bootloader.o
 .group         0x00000000        0x8 build/obj/Bootloader.o
 .group         0x00000000        0x8 build/obj/Bootloader.o
 .group         0x00000000        0x8 build/obj/Bootloader.o
 .group         0x00000000        0x8 build/obj/Bootloader.o
 .group         0x00000000        0x8 build/obj/Bootloader.o
 .text._ZN3r2p10UncopyableC2Ev
                0x00000000        0xc build/obj/Bootloader.o
 .text._ZN3r2p8SysLock_7acquireEv
                0x00000000       0x10 build/obj/Bootloader.o
 .text._ZN3r2p8SysLock_7releaseEv
                0x00000000       0x10 build/obj/Bootloader.o
 .text._ZN3r2p7SysLock7acquireEv
                0x00000000        0x8 build/obj/Bootloader.o
 .text._ZN3r2p7SysLock7releaseEv
                0x00000000        0x8 build/obj/Bootloader.o
 .text._ZN3r2p7Message12reset_unsafeEv
                0x00000000       0x14 build/obj/Bootloader.o
 .text._ZN3r2p7Message16get_payload_sizeEj
                0x00000000       0x10 build/obj/Bootloader.o
 .text._ZN3r2p11MemoryPool_12alloc_unsafeEv
                0x00000000       0x18 build/obj/Bootloader.o
 .text._ZNK3r2p4Time8to_s_rawEv
                0x00000000       0x20 build/obj/Bootloader.o
 .text._ZN3r2p4Time2msEl
                0x00000000       0x24 build/obj/Bootloader.o
 .text._ZN3r2p7Thread_5sleepERKNS_4TimeE
                0x00000000       0x64 build/obj/Bootloader.o
 .text._ZN3r2p6Thread5sleepERKNS_4TimeE
                0x00000000       0x14 build/obj/Bootloader.o
 .text._ZN3r2p5Topic12alloc_unsafeEv
                0x00000000       0x28 build/obj/Bootloader.o
 .text._ZN3r2p13BasePublisher12alloc_unsafeERPNS_7MessageE
                0x00000000       0x40 build/obj/Bootloader.o
 .text._ZN3r2p13BasePublisher5allocERPNS_7MessageE
                0x00000000       0x2c build/obj/Bootloader.o
 .text._ZN3r2p13BasePublisher16publish_remotelyERNS_7MessageE
                0x00000000       0x3c build/obj/Bootloader.o
 .text._ZN3r2p4TimeC2IlEET_
                0x00000000       0x14 build/obj/Bootloader.o
 .group         0x00000000        0x8 build/obj/DebugTransport.o
 .group         0x00000000        0x8 build/obj/DebugTransport.o
 .group         0x00000000        0x8 build/obj/DebugTransport.o
 .group         0x00000000        0x8 build/obj/DebugTransport.o
 .group         0x00000000        0x8 build/obj/DebugTransport.o
 .group         0x00000000        0x8 build/obj/DebugTransport.o
 .group         0x00000000        0x8 build/obj/DebugTransport.o
 .group         0x00000000        0x8 build/obj/DebugTransport.o
 .group         0x00000000        0x8 build/obj/DebugTransport.o
 .group         0x00000000        0x8 build/obj/DebugTransport.o
 .group         0x00000000        0x8 build/obj/DebugTransport.o
 .group         0x00000000        0x8 build/obj/DebugTransport.o
 .group         0x00000000        0x8 build/obj/DebugTransport.o
 .group         0x00000000        0x8 build/obj/DebugTransport.o
 .group         0x00000000        0x8 build/obj/DebugTransport.o
 .group         0x00000000        0x8 build/obj/DebugTransport.o
 .group         0x00000000        0x8 build/obj/DebugTransport.o
 .group         0x00000000        0x8 build/obj/DebugTransport.o
 .group         0x00000000        0x8 build/obj/DebugTransport.o
 .group         0x00000000        0x8 build/obj/DebugTransport.o
 .group         0x00000000        0x8 build/obj/DebugTransport.o
 .group         0x00000000        0x8 build/obj/DebugTransport.o
 .group         0x00000000        0x8 build/obj/DebugTransport.o
 .group         0x00000000        0x8 build/obj/DebugTransport.o
 .group         0x00000000        0x8 build/obj/DebugTransport.o
 .group         0x00000000        0x8 build/obj/DebugTransport.o
 .group         0x00000000        0x8 build/obj/DebugTransport.o
 .group         0x00000000        0x8 build/obj/DebugTransport.o
 .group         0x00000000        0x8 build/obj/DebugTransport.o
 .group         0x00000000        0x8 build/obj/DebugTransport.o
 .group         0x00000000        0x8 build/obj/DebugTransport.o
 .group         0x00000000        0x8 build/obj/DebugTransport.o
 .group         0x00000000        0x8 build/obj/DebugTransport.o
 .group         0x00000000        0x8 build/obj/DebugTransport.o
 .group         0x00000000        0x8 build/obj/DebugTransport.o
 .group         0x00000000        0x8 build/obj/DebugTransport.o
 .group         0x00000000        0x8 build/obj/DebugTransport.o
 .group         0x00000000        0x8 build/obj/DebugTransport.o
 .group         0x00000000        0x8 build/obj/DebugTransport.o
 .group         0x00000000        0x8 build/obj/DebugTransport.o
 .group         0x00000000        0x8 build/obj/DebugTransport.o
 .group         0x00000000        0x8 build/obj/DebugTransport.o
 .group         0x00000000        0x8 build/obj/DebugTransport.o
 .group         0x00000000        0x8 build/obj/DebugTransport.o
 .group         0x00000000        0x8 build/obj/DebugTransport.o
 .group         0x00000000        0x8 build/obj/DebugTransport.o
 .group         0x00000000        0x8 build/obj/DebugTransport.o
 .group         0x00000000        0x8 build/obj/DebugTransport.o
 .group         0x00000000        0x8 build/obj/DebugTransport.o
 .group         0x00000000        0x8 build/obj/DebugTransport.o
 .group         0x00000000        0x8 build/obj/DebugTransport.o
 .group         0x00000000        0x8 build/obj/DebugTransport.o
 .group         0x00000000        0x8 build/obj/DebugTransport.o
 .group         0x00000000        0x8 build/obj/DebugTransport.o
 .group         0x00000000        0x8 build/obj/DebugTransport.o
 .group         0x00000000        0x8 build/obj/DebugTransport.o
 .group         0x00000000        0x8 build/obj/DebugTransport.o
 .group         0x00000000        0x8 build/obj/DebugTransport.o
 .group         0x00000000        0x8 build/obj/DebugTransport.o
 .group         0x00000000        0x8 build/obj/DebugTransport.o
 .group         0x00000000        0x8 build/obj/DebugTransport.o
 .group         0x00000000        0x8 build/obj/DebugTransport.o
 .group         0x00000000        0x8 build/obj/DebugTransport.o
 .group         0x00000000        0x8 build/obj/DebugTransport.o
 .group         0x00000000        0x8 build/obj/DebugTransport.o
 .group         0x00000000        0x8 build/obj/DebugTransport.o
 .group         0x00000000        0x8 build/obj/DebugTransport.o
 .group         0x00000000        0x8 build/obj/DebugTransport.o
 .group         0x00000000        0x8 build/obj/DebugTransport.o
 .group         0x00000000        0x8 build/obj/DebugTransport.o
 .group         0x00000000        0x8 build/obj/DebugTransport.o
 .group         0x00000000        0x8 build/obj/DebugTransport.o
 .group         0x00000000        0x8 build/obj/DebugTransport.o
 .group         0x00000000        0x8 build/obj/DebugTransport.o
 .group         0x00000000        0x8 build/obj/DebugTransport.o
 .group         0x00000000        0x8 build/obj/DebugTransport.o
 .group         0x00000000        0x8 build/obj/DebugTransport.o
 .group         0x00000000        0x8 build/obj/DebugTransport.o
 .group         0x00000000        0x8 build/obj/DebugTransport.o
 .group         0x00000000        0x8 build/obj/DebugTransport.o
 .group         0x00000000        0x8 build/obj/DebugTransport.o
 .text._ZN3r2p10UncopyableC2Ev
                0x00000000        0xc build/obj/DebugTransport.o
 .text._ZN3r2p10UncopyableD2Ev
                0x00000000        0xc build/obj/DebugTransport.o
 .text._ZN3r2p8SysLock_7acquireEv
                0x00000000       0x10 build/obj/DebugTransport.o
 .text._ZN3r2p8SysLock_7releaseEv
                0x00000000       0x10 build/obj/DebugTransport.o
 .text._ZN3r2p7SysLock7acquireEv
                0x00000000        0x8 build/obj/DebugTransport.o
 .text._ZN3r2p7SysLock7releaseEv
                0x00000000        0x8 build/obj/DebugTransport.o
 .text._ZN3r2p4TimeC2Ev
                0x00000000       0x14 build/obj/DebugTransport.o
 .text._ZN3r2pplERKNS_4TimeES2_
                0x00000000       0x24 build/obj/DebugTransport.o
 .text._ZN3r2p22TimestampedMsgPtrQueue5EntryC2Ev
                0x00000000       0x20 build/obj/DebugTransport.o
 .text._ZN3r2p6Mutex_10initializeEv
                0x00000000       0x14 build/obj/DebugTransport.o
 .text._ZN3r2p6Mutex_7acquireEv
                0x00000000       0x14 build/obj/DebugTransport.o
 .text._ZN3r2p6Mutex_7releaseEv
                0x00000000       0x10 build/obj/DebugTransport.o
 .text._ZN3r2p6Mutex_C2Eb
                0x00000000       0x2c build/obj/DebugTransport.o
 .text._ZN3r2p5Mutex10initializeEv
                0x00000000       0x18 build/obj/DebugTransport.o
 .text._ZN3r2p5Mutex7acquireEv
                0x00000000       0x18 build/obj/DebugTransport.o
 .text._ZN3r2p5Mutex7releaseEv
                0x00000000       0x18 build/obj/DebugTransport.o
 .text._ZN3r2p6Mutex_D2Ev
                0x00000000       0x18 build/obj/DebugTransport.o
 .text._ZN3r2p5MutexC2Eb
                0x00000000       0x2c build/obj/DebugTransport.o
 .text._ZN3r2p7Message12reset_unsafeEv
                0x00000000       0x14 build/obj/DebugTransport.o
 .text._ZN3r2p7MessageC2Ev
                0x00000000       0x18 build/obj/DebugTransport.o
 .text._ZN3r2p7Message16get_payload_sizeEj
                0x00000000       0x10 build/obj/DebugTransport.o
 .text._ZNK3r2p11MemoryPool_13get_item_sizeEv
                0x00000000       0x10 build/obj/DebugTransport.o
 .text._ZN3r2p11MemoryPool_12alloc_unsafeEv
                0x00000000       0x18 build/obj/DebugTransport.o
 .text._ZN3r2p7Thread_13create_staticEPvjmPFlS1_ES1_PKc
                0x00000000       0x34 build/obj/DebugTransport.o
 .text._ZN3r2p6Thread13create_staticEPvjmPFlS1_ES1_PKc
                0x00000000       0x2c build/obj/DebugTransport.o
 .text._ZNK3r2p14BaseSubscriber9get_topicEv
                0x00000000       0x10 build/obj/DebugTransport.o
 .text._ZNK3r2p5Topic8get_nameEv
                0x00000000       0x10 build/obj/DebugTransport.o
 .text._ZNK3r2p5Topic16get_payload_sizeEv
                0x00000000       0x24 build/obj/DebugTransport.o
 .text._ZN3r2p5Topic12alloc_unsafeEv
                0x00000000       0x28 build/obj/DebugTransport.o
 .text._ZN3r2p5Topic8has_nameERKS0_PKc
                0x00000000       0x34 build/obj/DebugTransport.o
 .text._ZN3r2p13BasePublisher12alloc_unsafeERPNS_7MessageE
                0x00000000       0x40 build/obj/DebugTransport.o
 .text._ZN3r2p13BasePublisher5allocERPNS_7MessageE
                0x00000000       0x2c build/obj/DebugTransport.o
 .text._ZN3r2p13BasePublisher9has_topicERKS0_PKc
                0x00000000       0x30 build/obj/DebugTransport.o
 .text._ZN3r2p5MutexD2Ev
                0x00000000       0x20 build/obj/DebugTransport.o
 .text._ZN3r2p10Middleware18is_bootloader_modeEv
                0x00000000       0x1c build/obj/DebugTransport.o
 .text._ZN3r2p11Checksummer3addEh
                0x00000000       0x20 build/obj/DebugTransport.o
 .text._ZN3r2p7MgmtMsgC2Ev
                0x00000000       0x18 build/obj/DebugTransport.o
 .text._ZN3r2p7BootMsgC2Ev
                0x00000000       0x18 build/obj/DebugTransport.o
 .text._ZN3r2p4TimeC2IlEET_
                0x00000000       0x14 build/obj/DebugTransport.o
 .text._ZNK3r2p10StaticListINS_15RemotePublisherEE10find_firstIPFbRKNS_13BasePublisherEPKcEcEEPS1_T_PKT0_
                0x00000000       0x20 build/obj/DebugTransport.o
 .text._ZNK3r2p10StaticListINS_15RemotePublisherEE10find_firstEPFbRKS1_PKvES6_
                0x00000000       0x60 build/obj/DebugTransport.o
 .group         0x00000000        0x8 build/obj/DebugSubscriber.o
 .group         0x00000000        0x8 build/obj/DebugSubscriber.o
 .group         0x00000000        0x8 build/obj/DebugSubscriber.o
 .group         0x00000000        0x8 build/obj/DebugSubscriber.o
 .group         0x00000000        0x8 build/obj/DebugSubscriber.o
 .group         0x00000000        0x8 build/obj/DebugSubscriber.o
 .group         0x00000000        0x8 build/obj/DebugSubscriber.o
 .group         0x00000000        0x8 build/obj/DebugSubscriber.o
 .group         0x00000000        0x8 build/obj/DebugSubscriber.o
 .group         0x00000000        0x8 build/obj/DebugSubscriber.o
 .group         0x00000000        0x8 build/obj/DebugSubscriber.o
 .group         0x00000000        0x8 build/obj/DebugSubscriber.o
 .group         0x00000000        0x8 build/obj/DebugSubscriber.o
 .group         0x00000000        0x8 build/obj/DebugSubscriber.o
 .group         0x00000000        0x8 build/obj/DebugSubscriber.o
 .group         0x00000000        0x8 build/obj/DebugSubscriber.o
 .group         0x00000000        0x8 build/obj/DebugSubscriber.o
 .group         0x00000000        0x8 build/obj/DebugSubscriber.o
 .group         0x00000000        0x8 build/obj/DebugSubscriber.o
 .group         0x00000000        0x8 build/obj/DebugSubscriber.o
 .group         0x00000000        0x8 build/obj/DebugSubscriber.o
 .group         0x00000000        0x8 build/obj/DebugSubscriber.o
 .group         0x00000000        0x8 build/obj/DebugSubscriber.o
 .group         0x00000000        0x8 build/obj/DebugSubscriber.o
 .group         0x00000000        0x8 build/obj/DebugSubscriber.o
 .group         0x00000000        0x8 build/obj/DebugSubscriber.o
 .group         0x00000000        0x8 build/obj/DebugSubscriber.o
 .group         0x00000000        0x8 build/obj/DebugSubscriber.o
 .group         0x00000000        0x8 build/obj/DebugSubscriber.o
 .group         0x00000000        0x8 build/obj/DebugSubscriber.o
 .text._ZN3r2p10UncopyableD2Ev
                0x00000000        0xc build/obj/DebugSubscriber.o
 .text._ZN3r2p8SysLock_7acquireEv
                0x00000000       0x10 build/obj/DebugSubscriber.o
 .text._ZN3r2p8SysLock_7releaseEv
                0x00000000       0x10 build/obj/DebugSubscriber.o
 .text._ZN3r2p7SysLock7acquireEv
                0x00000000        0x8 build/obj/DebugSubscriber.o
 .text._ZN3r2p7SysLock7releaseEv
                0x00000000        0x8 build/obj/DebugSubscriber.o
 .text._ZNK3r2p16RemoteSubscriber13get_transportEv
                0x00000000       0x10 build/obj/DebugSubscriber.o
 .text._ZN3r2p4TimeaSERKS0_
                0x00000000       0x18 build/obj/DebugSubscriber.o
 .text._ZN3r2p4TimeC2Ev
                0x00000000       0x14 build/obj/DebugSubscriber.o
 .text._ZN3r2p4TimeC2ERKS0_
                0x00000000       0x18 build/obj/DebugSubscriber.o
 .text._ZN3r2p22TimestampedMsgPtrQueue5EntryC2Ev
                0x00000000       0x20 build/obj/DebugSubscriber.o
 .text._ZN3r2p10Semaphore_13signal_unsafeEv
                0x00000000       0x14 build/obj/DebugSubscriber.o
 .text._ZN3r2p9Semaphore13signal_unsafeEv
                0x00000000       0x18 build/obj/DebugSubscriber.o
 .text._ZN3r2p14DebugTransport23notify_first_sub_unsafeERKNS_15DebugSubscriberE
                0x00000000       0x2c build/obj/DebugSubscriber.o
 .text._ZN3r2p11StaticQueueINS_14BaseSubscriberEE11post_unsafeERNS2_4LinkE
                0x00000000       0x1c build/obj/DebugSubscriber.o
 .group         0x00000000        0x8 build/obj/RTCANTransport.o
 .group         0x00000000        0x8 build/obj/RTCANTransport.o
 .group         0x00000000        0x8 build/obj/RTCANTransport.o
 .group         0x00000000        0x8 build/obj/RTCANTransport.o
 .group         0x00000000        0x8 build/obj/RTCANTransport.o
 .group         0x00000000        0x8 build/obj/RTCANTransport.o
 .group         0x00000000        0x8 build/obj/RTCANTransport.o
 .group         0x00000000        0x8 build/obj/RTCANTransport.o
 .group         0x00000000        0x8 build/obj/RTCANTransport.o
 .group         0x00000000        0x8 build/obj/RTCANTransport.o
 .group         0x00000000        0x8 build/obj/RTCANTransport.o
 .group         0x00000000        0x8 build/obj/RTCANTransport.o
 .group         0x00000000        0x8 build/obj/RTCANTransport.o
 .group         0x00000000        0x8 build/obj/RTCANTransport.o
 .group         0x00000000        0x8 build/obj/RTCANTransport.o
 .group         0x00000000        0x8 build/obj/RTCANTransport.o
 .group         0x00000000        0x8 build/obj/RTCANTransport.o
 .group         0x00000000        0x8 build/obj/RTCANTransport.o
 .group         0x00000000        0x8 build/obj/RTCANTransport.o
 .group         0x00000000        0x8 build/obj/RTCANTransport.o
 .group         0x00000000        0x8 build/obj/RTCANTransport.o
 .group         0x00000000        0x8 build/obj/RTCANTransport.o
 .group         0x00000000        0x8 build/obj/RTCANTransport.o
 .group         0x00000000        0x8 build/obj/RTCANTransport.o
 .group         0x00000000        0x8 build/obj/RTCANTransport.o
 .group         0x00000000        0x8 build/obj/RTCANTransport.o
 .group         0x00000000        0x8 build/obj/RTCANTransport.o
 .group         0x00000000        0x8 build/obj/RTCANTransport.o
 .group         0x00000000        0x8 build/obj/RTCANTransport.o
 .group         0x00000000        0x8 build/obj/RTCANTransport.o
 .group         0x00000000        0x8 build/obj/RTCANTransport.o
 .group         0x00000000        0x8 build/obj/RTCANTransport.o
 .group         0x00000000        0x8 build/obj/RTCANTransport.o
 .group         0x00000000        0x8 build/obj/RTCANTransport.o
 .group         0x00000000        0x8 build/obj/RTCANTransport.o
 .group         0x00000000        0x8 build/obj/RTCANTransport.o
 .group         0x00000000        0x8 build/obj/RTCANTransport.o
 .group         0x00000000        0x8 build/obj/RTCANTransport.o
 .text._ZN3r2p10UncopyableC2Ev
                0x00000000        0xc build/obj/RTCANTransport.o
 .text._ZN3r2p10UncopyableD2Ev
                0x00000000        0xc build/obj/RTCANTransport.o
 .text._ZN3r2p8SysLock_7acquireEv
                0x00000000       0x10 build/obj/RTCANTransport.o
 .text._ZN3r2p8SysLock_7releaseEv
                0x00000000       0x10 build/obj/RTCANTransport.o
 .text._ZN3r2p7SysLock7acquireEv
                0x00000000        0x8 build/obj/RTCANTransport.o
 .text._ZN3r2p7SysLock7releaseEv
                0x00000000        0x8 build/obj/RTCANTransport.o
 .text._ZN3r2p4TimeC2Ev
                0x00000000       0x14 build/obj/RTCANTransport.o
 .text._ZN3r2p22TimestampedMsgPtrQueue5EntryC2Ev
                0x00000000       0x20 build/obj/RTCANTransport.o
 .text._ZNK3r2p7Message12get_raw_dataEv
                0x00000000       0x10 build/obj/RTCANTransport.o
 .text._ZN3r2p7Message12reset_unsafeEv
                0x00000000       0x14 build/obj/RTCANTransport.o
 .text._ZN3r2p7MessageC2Ev
                0x00000000       0x18 build/obj/RTCANTransport.o
 .text._ZN3r2p7Message16get_payload_sizeEj
                0x00000000       0x10 build/obj/RTCANTransport.o
 .text._ZNK3r2p11MemoryPool_13get_item_sizeEv
                0x00000000       0x10 build/obj/RTCANTransport.o
 .text._ZN3r2p11MemoryPool_12alloc_unsafeEv
                0x00000000       0x18 build/obj/RTCANTransport.o
 .text._ZN3r2p11MemoryPool_11free_unsafeEPv
                0x00000000       0x20 build/obj/RTCANTransport.o
 .text._ZN3r2p11MemoryPool_6extendEPvj
                0x00000000       0x1c build/obj/RTCANTransport.o
 .text._ZNK3r2p14BaseSubscriber9get_topicEv
                0x00000000       0x10 build/obj/RTCANTransport.o
 .text._ZNK3r2p16RemoteSubscriber13get_transportEv
                0x00000000       0x10 build/obj/RTCANTransport.o
 .text._ZNK3r2p5Topic8get_nameEv
                0x00000000       0x10 build/obj/RTCANTransport.o
 .text._ZNK3r2p5Topic16get_payload_sizeEv
                0x00000000       0x24 build/obj/RTCANTransport.o
 .text._ZN3r2p5Topic12alloc_unsafeEv
                0x00000000       0x28 build/obj/RTCANTransport.o
 .text._ZN3r2p5Topic8has_nameERKS0_PKc
                0x00000000       0x34 build/obj/RTCANTransport.o
 .text._ZN3r2p13BasePublisher12alloc_unsafeERPNS_7MessageE
                0x00000000       0x40 build/obj/RTCANTransport.o
 .text._ZN3r2p10Middleware14get_mgmt_topicEv
                0x00000000       0x10 build/obj/RTCANTransport.o
 .text._ZN3r2p12StaticQueue_D2Ev
                0x00000000       0x18 build/obj/RTCANTransport.o
 .text._ZN3r2p11StaticQueueINS_14BaseSubscriberEED2Ev
                0x00000000       0x20 build/obj/RTCANTransport.o
 .text._ZN3r2p19BaseSubscriberQueueD2Ev
                0x00000000       0x18 build/obj/RTCANTransport.o
 .text._ZN3r2p7MgmtMsgC2Ev
                0x00000000       0x18 build/obj/RTCANTransport.o
 .text._ZN3r2p5Topic5allocINS_7MessageEEEbRPT_
                0x00000000       0x2c build/obj/RTCANTransport.o
 .group         0x00000000        0x8 build/obj/RTCANSubscriber.o
 .group         0x00000000        0x8 build/obj/RTCANSubscriber.o
 .group         0x00000000        0x8 build/obj/RTCANSubscriber.o
 .group         0x00000000        0x8 build/obj/RTCANSubscriber.o
 .group         0x00000000        0x8 build/obj/RTCANSubscriber.o
 .group         0x00000000        0x8 build/obj/RTCANSubscriber.o
 .group         0x00000000        0x8 build/obj/RTCANSubscriber.o
 .text._ZN3r2p8SysLock_7acquireEv
                0x00000000       0x10 build/obj/RTCANSubscriber.o
 .text._ZN3r2p8SysLock_7releaseEv
                0x00000000       0x10 build/obj/RTCANSubscriber.o
 .text._ZN3r2p7SysLock7acquireEv
                0x00000000        0x8 build/obj/RTCANSubscriber.o
 .text._ZN3r2p7SysLock7releaseEv
                0x00000000        0x8 build/obj/RTCANSubscriber.o
 .text._ZNK3r2p16RemoteSubscriber13get_transportEv
                0x00000000       0x10 build/obj/RTCANSubscriber.o
 .group         0x00000000        0x8 build/obj/Time_.o
 .group         0x00000000        0x8 build/obj/Time_.o
 .text._ZN3r2p4Time2msEl
                0x00000000       0x24 build/obj/Time_.o
 .text._ZN3r2p4TimeC2IlEET_
                0x00000000       0x14 build/obj/Time_.o
 .group         0x00000000        0x8 build/obj/Flasher_.o
 .group         0x00000000        0x8 build/obj/Flasher_.o
 .group         0x00000000        0x8 build/obj/Flasher_.o
 .group         0x00000000        0x8 build/obj/Flasher_.o
 .group         0x00000000        0x8 build/obj/Flasher_.o
 .group         0x00000000        0x8 build/obj/Flasher_.o
 .group         0x00000000        0x8 build/obj/Flasher_.o
 .group         0x00000000        0x8 build/obj/Flasher_.o
 .group         0x00000000        0x8 build/obj/Flasher_.o
 .group         0x00000000        0x8 build/obj/Flasher_.o
 .group         0x00000000        0x8 build/obj/Flasher_.o
 .text._ZN3r2p10UncopyableC2Ev
                0x00000000        0xc build/obj/Flasher_.o
 .text._ZN3r2p12check_boundsEPKvjS1_j
                0x00000000       0x30 build/obj/Flasher_.o
 .text._ZN3r2p8Flasher_10is_alignedEPKv
                0x00000000       0x1c build/obj/Flasher_.o
 .text._ZN3r2p8Flasher_10align_prevEPKh
                0x00000000       0x10 build/obj/Flasher_.o
 .text._ZN3r2p8Flasher_17get_program_startEv
                0x00000000       0x18 build/obj/Flasher_.o
 .text._ZN3r2p8Flasher_15get_program_endEv
                0x00000000       0x14 build/obj/Flasher_.o
 .text._ZN3r2p18compute_chunk_sizeIhEEjPKT_S3_
                0x00000000       0x14 build/obj/Flasher_.o
 .group         0x00000000        0x8 build/obj/led.o
 .group         0x00000000        0x8 build/obj/led.o
 .group         0x00000000        0x8 build/obj/led.o
 .group         0x00000000        0x8 build/obj/led.o
 .group         0x00000000        0x8 build/obj/led.o
 .group         0x00000000        0x8 build/obj/led.o
 .group         0x00000000        0x8 build/obj/led.o
 .group         0x00000000        0x8 build/obj/led.o
 .group         0x00000000        0x8 build/obj/led.o
 .group         0x00000000        0x8 build/obj/led.o
 .group         0x00000000        0x8 build/obj/led.o
 .group         0x00000000        0x8 build/obj/led.o
 .group         0x00000000        0x8 build/obj/led.o
 .group         0x00000000        0x8 build/obj/led.o
 .group         0x00000000        0x8 build/obj/led.o
 .group         0x00000000        0x8 build/obj/led.o
 .group         0x00000000        0x8 build/obj/led.o
 .group         0x00000000        0x8 build/obj/led.o
 .group         0x00000000        0x8 build/obj/led.o
 .group         0x00000000        0x8 build/obj/led.o
 .group         0x00000000        0x8 build/obj/led.o
 .group         0x00000000        0x8 build/obj/led.o
 .group         0x00000000        0x8 build/obj/led.o
 .group         0x00000000        0x8 build/obj/led.o
 .group         0x00000000        0x8 build/obj/led.o
 .group         0x00000000        0x8 build/obj/led.o
 .group         0x00000000        0xc build/obj/led.o
 .group         0x00000000        0x8 build/obj/led.o
 .group         0x00000000        0x8 build/obj/led.o
 .group         0x00000000        0x8 build/obj/led.o
 .group         0x00000000        0x8 build/obj/led.o
 .group         0x00000000        0x8 build/obj/led.o
 .group         0x00000000        0xc build/obj/led.o
 .group         0x00000000        0x8 build/obj/led.o
 .group         0x00000000        0x8 build/obj/led.o
 .group         0x00000000        0xc build/obj/led.o
 .group         0x00000000        0x8 build/obj/led.o
 .group         0x00000000        0x8 build/obj/led.o
 .group         0x00000000        0x8 build/obj/led.o
 .text._ZN3r2p8SysLock_7acquireEv
                0x00000000       0x10 build/obj/led.o
 .text._ZN3r2p8SysLock_7releaseEv
                0x00000000       0x10 build/obj/led.o
 .text._ZN3r2p7SysLock7acquireEv
                0x00000000        0x8 build/obj/led.o
 .text._ZN3r2p7SysLock7releaseEv
                0x00000000        0x8 build/obj/led.o
 .text._ZN3r2p11MemoryPool_12alloc_unsafeEv
                0x00000000       0x18 build/obj/led.o
 .text._ZN3r2p4TimeaSERKS0_
                0x00000000       0x18 build/obj/led.o
 .text._ZN3r2p4Time2msEl
                0x00000000       0x24 build/obj/led.o
 .text._ZN3r2p7Message12reset_unsafeEv
                0x00000000       0x14 build/obj/led.o
 .text._ZN3r2p7MessageC2Ev
                0x00000000       0x18 build/obj/led.o
 .text._ZN3r2p13BasePublisher12alloc_unsafeERPNS_7MessageE
                0x00000000       0x40 build/obj/led.o
 .text._ZN3r2p13BasePublisher5allocERPNS_7MessageE
                0x00000000       0x2c build/obj/led.o
 .text._ZNK3r2p10SpinEvent_10get_threadEv
                0x00000000       0x10 build/obj/led.o
 .text._ZN3r2p10SpinEvent_13signal_unsafeEj
                0x00000000       0x3c build/obj/led.o
 .text._ZNK3r2p9SpinEvent10get_threadEv
                0x00000000       0x18 build/obj/led.o
 .text._ZN3r2p9SpinEvent13signal_unsafeEj
                0x00000000       0x18 build/obj/led.o
 .text._ZNK3r2p4Node11get_enabledEv
                0x00000000       0x24 build/obj/led.o
 .text._ZN3r2p4Node13notify_unsafeEj
                0x00000000       0x1c build/obj/led.o
 .text._ZNK3r2p15LocalSubscriber16get_queue_lengthEv
                0x00000000       0x1c build/obj/led.o
 .text._ZN3r2p15LocalSubscriber12fetch_unsafeERPNS_7MessageERNS_4TimeE
                0x00000000       0x3c build/obj/led.o
 .text._ZN3r2p15LocalSubscriber13notify_unsafeERNS_7MessageERKNS_4TimeE
                0x00000000       0x58 build/obj/led.o
 .text._ZN3r2p5Topic12alloc_unsafeEv
                0x00000000       0x28 build/obj/led.o
 .text._ZN3r2p4TimeC2IlEET_
                0x00000000       0x14 build/obj/led.o
 .text._ZNK3r2p10ArrayQueueIPNS_7MessageEE10get_lengthEv
                0x00000000       0x10 build/obj/led.o
 .text._ZN3r2p10ArrayQueueIPNS_7MessageEE12fetch_unsafeERS2_
                0x00000000       0x60 build/obj/led.o
 .text._ZN3r2p10ArrayQueueIPNS_7MessageEE11post_unsafeES2_
                0x00000000       0x60 build/obj/led.o
 .group         0x00000000        0x8 build/obj/main.o
 .group         0x00000000        0x8 build/obj/main.o
 .group         0x00000000        0x8 build/obj/main.o
 .group         0x00000000        0x8 build/obj/main.o
 .group         0x00000000        0x8 build/obj/main.o
 .group         0x00000000        0x8 build/obj/main.o
 .group         0x00000000        0x8 build/obj/main.o
 .group         0x00000000        0x8 build/obj/main.o
 .group         0x00000000        0x8 build/obj/main.o
 .group         0x00000000        0x8 build/obj/main.o
 .group         0x00000000        0x8 build/obj/main.o
 .group         0x00000000        0x8 build/obj/main.o
 .group         0x00000000        0x8 build/obj/main.o
 .group         0x00000000        0x8 build/obj/main.o
 .group         0x00000000        0x8 build/obj/main.o
 .group         0x00000000        0x8 build/obj/main.o
 .group         0x00000000        0x8 build/obj/main.o
 .group         0x00000000        0x8 build/obj/main.o
 .group         0x00000000        0x8 build/obj/main.o
 .group         0x00000000        0x8 build/obj/main.o
 .group         0x00000000        0x8 build/obj/main.o
 .group         0x00000000        0x8 build/obj/main.o
 .group         0x00000000        0x8 build/obj/main.o
 .group         0x00000000        0x8 build/obj/main.o
 .group         0x00000000        0x8 build/obj/main.o
 .group         0x00000000        0x8 build/obj/main.o
 .group         0x00000000        0x8 build/obj/main.o
 .group         0x00000000        0x8 build/obj/main.o
 .group         0x00000000        0x8 build/obj/main.o
 .group         0x00000000        0x8 build/obj/main.o
 .group         0x00000000        0x8 build/obj/main.o
 .group         0x00000000        0x8 build/obj/main.o
 .group         0x00000000        0x8 build/obj/main.o
 .group         0x00000000        0x8 build/obj/main.o
 .group         0x00000000        0xc build/obj/main.o
 .group         0x00000000        0x8 build/obj/main.o
 .group         0x00000000        0x8 build/obj/main.o
 .group         0x00000000        0x8 build/obj/main.o
 .group         0x00000000        0x8 build/obj/main.o
 .group         0x00000000        0x8 build/obj/main.o
 .group         0x00000000        0x8 build/obj/main.o
 .group         0x00000000        0x8 build/obj/main.o
 .group         0x00000000        0x8 build/obj/main.o
 .group         0x00000000        0x8 build/obj/main.o
 .group         0x00000000        0x8 build/obj/main.o
 .group         0x00000000        0x8 build/obj/main.o
 .group         0x00000000        0x8 build/obj/main.o
 .group         0x00000000        0x8 build/obj/main.o
 .group         0x00000000        0x8 build/obj/main.o
 .group         0x00000000        0x8 build/obj/main.o
 .group         0x00000000        0xc build/obj/main.o
 .group         0x00000000        0xc build/obj/main.o
 .text._ZN3r2p10UncopyableD2Ev
                0x00000000        0xc build/obj/main.o
 .text._ZN3r2p8SysLock_7acquireEv
                0x00000000       0x10 build/obj/main.o
 .text._ZN3r2p8SysLock_7releaseEv
                0x00000000       0x10 build/obj/main.o
 .text._ZN3r2p7SysLock7acquireEv
                0x00000000        0x8 build/obj/main.o
 .text._ZN3r2p7SysLock7releaseEv
                0x00000000        0x8 build/obj/main.o
 .text._ZN3r2p11MemoryPool_12alloc_unsafeEv
                0x00000000       0x18 build/obj/main.o
 .text._ZNK3r2p4Time8to_s_rawEv
                0x00000000       0x20 build/obj/main.o
 .text._ZN3r2p4TimeaSERKS0_
                0x00000000       0x18 build/obj/main.o
 .text._ZN3r2p4Time2msEl
                0x00000000       0x24 build/obj/main.o
 .text._ZN3r2p7Message12reset_unsafeEv
                0x00000000       0x14 build/obj/main.o
 .text._ZN3r2p13BasePublisher12alloc_unsafeERPNS_7MessageE
                0x00000000       0x40 build/obj/main.o
 .text._ZN3r2p13BasePublisher5allocERPNS_7MessageE
                0x00000000       0x2c build/obj/main.o
 .text._ZN3r2p7Thread_11create_heapEPvjmPFlS1_ES1_PKc
                0x00000000       0x34 build/obj/main.o
 .text._ZN3r2p7Thread_5sleepERKNS_4TimeE
                0x00000000       0x64 build/obj/main.o
 .text._ZN3r2p6Thread11create_heapEPvjmPFlS1_ES1_PKc
                0x00000000       0x2c build/obj/main.o
 .text._ZN3r2p6Thread5sleepERKNS_4TimeE
                0x00000000       0x14 build/obj/main.o
 .text._ZNK3r2p10SpinEvent_10get_threadEv
                0x00000000       0x10 build/obj/main.o
 .text._ZN3r2p10SpinEvent_13signal_unsafeEj
                0x00000000       0x3c build/obj/main.o
 .text._ZNK3r2p9SpinEvent10get_threadEv
                0x00000000       0x18 build/obj/main.o
 .text._ZN3r2p9SpinEvent13signal_unsafeEj
                0x00000000       0x18 build/obj/main.o
 .text._ZNK3r2p4Node11get_enabledEv
                0x00000000       0x24 build/obj/main.o
 .text._ZN3r2p4Node13notify_unsafeEj
                0x00000000       0x1c build/obj/main.o
 .text._ZNK3r2p15LocalSubscriber16get_queue_lengthEv
                0x00000000       0x1c build/obj/main.o
 .text._ZN3r2p15LocalSubscriber12fetch_unsafeERPNS_7MessageERNS_4TimeE
                0x00000000       0x3c build/obj/main.o
 .text._ZN3r2p15LocalSubscriber13notify_unsafeERNS_7MessageERKNS_4TimeE
                0x00000000       0x58 build/obj/main.o
 .text._ZN3r2p5Topic12alloc_unsafeEv
                0x00000000       0x28 build/obj/main.o
 .text._ZN3r2p6Mutex_D2Ev
                0x00000000       0x18 build/obj/main.o
 .text._ZN3r2p5MutexD2Ev
                0x00000000       0x20 build/obj/main.o
 .text._ZN3r2p10Middleware18is_bootloader_modeEv
                0x00000000       0x1c build/obj/main.o
 .text._ZN3r2p4TimeC2IlEET_
                0x00000000       0x14 build/obj/main.o
 .text._ZNK3r2p10ArrayQueueIPNS_7MessageEE10get_lengthEv
                0x00000000       0x10 build/obj/main.o
 .text._ZN3r2p10ArrayQueueIPNS_7MessageEE12fetch_unsafeERS2_
                0x00000000       0x60 build/obj/main.o
 .text._ZN3r2p10ArrayQueueIPNS_7MessageEE11post_unsafeES2_
                0x00000000       0x60 build/obj/main.o
 .rodata._ZTVN3r2p16SubscriberExtBufINS_7MgmtMsgEEE
                0x00000000       0x28 build/obj/main.o
 .rodata._ZTVN3r2p9PublisherINS_7MgmtMsgEEE
                0x00000000       0x10 build/obj/main.o
 .text._ZN3r2p11MemoryPool_D2Ev
                0x00000000       0x18 build/obj/main.o
 .text._ZN3r2p10StaticListINS_15LocalSubscriberEED2Ev
                0x00000000       0x18 build/obj/main.o
 .text._ZN3r2p10StaticListINS_16RemoteSubscriberEED2Ev
                0x00000000       0x18 build/obj/main.o
 .text._ZN3r2p9PublisherINS_7MgmtMsgEED2Ev
                0x00000000       0x30 build/obj/main.o
 .text._ZN3r2p9PublisherINS_7MgmtMsgEED0Ev
                0x00000000       0x1c build/obj/main.o
 .text._ZN3r2p16SubscriberExtBufINS_7MgmtMsgEED2Ev
                0x00000000       0x30 build/obj/main.o
 .text._ZN3r2p16SubscriberExtBufINS_7MgmtMsgEED0Ev
                0x00000000       0x1c build/obj/main.o

Memory Configuration

Name             Origin             Length             Attributes
flash            0x08000000         0x00040000
ram              0x20000000         0x0000a000
ccmram           0x10000000         0x00002000
*default*        0x00000000         0xffffffff

Linker script and memory map

LOAD build/obj/crt0.o
LOAD build/obj/vectors.o
LOAD build/obj/chcore.o
LOAD build/obj/chcore_v7m.o
LOAD build/obj/nvic.o
LOAD build/obj/chsys.o
LOAD build/obj/chdebug.o
LOAD build/obj/chlists.o
LOAD build/obj/chvt.o
LOAD build/obj/chschd.o
LOAD build/obj/chthreads.o
LOAD build/obj/chdynamic.o
LOAD build/obj/chregistry.o
LOAD build/obj/chsem.o
LOAD build/obj/chmtx.o
LOAD build/obj/chcond.o
LOAD build/obj/chevents.o
LOAD build/obj/chmsg.o
LOAD build/obj/chmboxes.o
LOAD build/obj/chqueues.o
LOAD build/obj/chmemcore.o
LOAD build/obj/chheap.o
LOAD build/obj/chmempools.o
LOAD build/obj/hal.o
LOAD build/obj/adc.o
LOAD build/obj/can.o
LOAD build/obj/ext.o
LOAD build/obj/gpt.o
LOAD build/obj/i2c.o
LOAD build/obj/icu.o
LOAD build/obj/mac.o
LOAD build/obj/mmc_spi.o
LOAD build/obj/mmcsd.o
LOAD build/obj/pal.o
LOAD build/obj/pwm.o
LOAD build/obj/rtc.o
LOAD build/obj/sdc.o
LOAD build/obj/serial.o
LOAD build/obj/serial_usb.o
LOAD build/obj/spi.o
LOAD build/obj/tm.o
LOAD build/obj/uart.o
LOAD build/obj/usb.o
LOAD build/obj/stm32_dma.o
LOAD build/obj/hal_lld.o
LOAD build/obj/adc_lld.o
LOAD build/obj/ext_lld_isr.o
LOAD build/obj/can_lld.o
LOAD build/obj/ext_lld.o
LOAD build/obj/pal_lld.o
LOAD build/obj/i2c_lld.o
LOAD build/obj/rtc_lld.o
LOAD build/obj/spi_lld.o
LOAD build/obj/gpt_lld.o
LOAD build/obj/icu_lld.o
LOAD build/obj/pwm_lld.o
LOAD build/obj/serial_lld.o
LOAD build/obj/uart_lld.o
LOAD build/obj/usb_lld.o
LOAD build/obj/board.o
LOAD build/obj/evtimer.o
LOAD build/obj/syscalls.o
LOAD build/obj/chprintf.o
LOAD build/obj/memstreams.o
LOAD build/obj/shell.o
LOAD build/obj/rtcan.o
LOAD build/obj/msgqueue.o
LOAD build/obj/hrt.o
LOAD build/obj/srt.o
LOAD build/obj/rtcan_lld_can.o
LOAD build/obj/rtcan_lld_tim.o
LOAD build/obj/stubs.o
LOAD build/obj/usbcfg.o
LOAD build/obj/ArrayQueue_.o
LOAD build/obj/SimplePool_.o
LOAD build/obj/StaticList_.o
LOAD build/obj/StaticQueue_.o
LOAD build/obj/BasePublisher.o
LOAD build/obj/BaseSubscriber.o
LOAD build/obj/BaseSubscriberQueue.o
LOAD build/obj/BootMsg.o
LOAD build/obj/Checksummer.o
LOAD build/obj/LocalPublisher.o
LOAD build/obj/LocalSubscriber.o
LOAD build/obj/MessagePtrQueue.o
LOAD build/obj/Message.o
LOAD build/obj/Middleware.o
LOAD build/obj/Node.o
LOAD build/obj/RemotePublisher.o
LOAD build/obj/RemoteSubscriber.o
LOAD build/obj/Time.o
LOAD build/obj/TimestampedMsgPtrQueue.o
LOAD build/obj/Topic.o
LOAD build/obj/Transport.o
LOAD build/obj/Utils.o
LOAD build/obj/Bootloader.o
LOAD build/obj/DebugTransport.o
LOAD build/obj/DebugPublisher.o
LOAD build/obj/DebugSubscriber.o
LOAD build/obj/RTCANTransport.o
LOAD build/obj/RTCANPublisher.o
LOAD build/obj/RTCANSubscriber.o
LOAD build/obj/Middleware_.o
LOAD build/obj/Time_.o
LOAD build/obj/Bootloader_.o
LOAD build/obj/Flasher_.o
LOAD build/obj/led.o
LOAD build/obj/chnew.o
LOAD build/obj/main.o
                0x00000400                __main_stack_size__ = 0x400
                0x00000400                __process_stack_size__ = 0x400
                0x00000000                . = 0x0

startup         0x08000000      0x188
 *(vectors)
 vectors        0x08000000      0x188 build/obj/vectors.o
                0x08000000                _vectors

.text           0x080001a0    0x1d030
                0x080001a0                _text = .
                0x080001a0                __text_start__ = .
 *(.text.startup.*)
 *(.text)
 .text          0x080001a0       0xd4 build/obj/crt0.o
                0x080001a4                __late_init
                0x080001a8                _default_exit
                0x080001ac                ResetHandler
 *fill*         0x08000274        0xc 
 .text          0x08000280        0x4 build/obj/vectors.o
                0x08000280                Vector58
                0x08000280                VectorE8
                0x08000280                Vector9C
                0x08000280                VectorAC
                0x08000280                Vector5C
                0x08000280                NMIVector
                0x08000280                Vector11C
                0x08000280                Vector110
                0x08000280                VectorA8
                0x08000280                Vector160
                0x08000280                VectorEC
                0x08000280                UsageFaultVector
                0x08000280                DebugMonitorVector
                0x08000280                Vector40
                0x08000280                VectorF8
                0x08000280                Vector108
                0x08000280                VectorBC
                0x08000280                Vector150
                0x08000280                Vector148
                0x08000280                PendSVVector
                0x08000280                Vector118
                0x08000280                Vector64
                0x08000280                VectorCC
                0x08000280                Vector54
                0x08000280                VectorD8
                0x08000280                Vector138
                0x08000280                Vector24
                0x08000280                Vector178
                0x08000280                BusFaultVector
                0x08000280                VectorD0
                0x08000280                Vector140
                0x08000280                VectorE4
                0x08000280                VectorC0
                0x08000280                Vector158
                0x08000280                HardFaultVector
                0x08000280                Vector134
                0x08000280                VectorF0
                0x08000280                Vector13C
                0x08000280                Vector100
                0x08000280                VectorE0
                0x08000280                VectorF4
                0x08000280                MemManageVector
                0x08000280                VectorA0
                0x08000280                Vector180
                0x08000280                VectorB0
                0x08000280                Vector114
                0x08000280                Vector164
                0x08000280                Vector60
                0x08000280                Vector1C
                0x08000280                Vector17C
                0x08000280                Vector48
                0x08000280                VectorD4
                0x08000280                Vector4C
                0x08000280                Vector144
                0x08000280                Vector15C
                0x08000280                Vector68
                0x08000280                _unhandled_exception
                0x08000280                Vector170
                0x08000280                Vector88
                0x08000280                Vector104
                0x08000280                Vector184
                0x08000280                Vector10C
                0x08000280                Vector14C
                0x08000280                Vector50
                0x08000280                Vector154
                0x08000280                Vector44
                0x08000280                Vector28
                0x08000280                VectorB8
                0x08000280                VectorFC
                0x08000280                Vector34
                0x08000280                VectorA4
                0x08000280                Vector20
                0x08000280                Vector174
 *fill*         0x08000284        0xc 
 .text          0x08000290        0x4 build/obj/chcore.o
                0x08000290                port_halt
 *fill*         0x08000294        0xc 
 .text          0x080002a0      0x11c build/obj/chcore_v7m.o
                0x080002a0                SysTickVector
                0x080002c8                SVCallVector
                0x080002e8                _port_init
                0x08000318                _port_irq_epilogue
                0x08000380                _port_switch_from_isr
                0x08000390                _port_switch
                0x080003a4                _port_thread_start
 *fill*         0x080003bc        0x4 
 .text          0x080003c0      0x120 build/obj/nvic.o
                0x080003c0                nvicEnableVector
                0x0800043c                nvicDisableVector
                0x08000494                nvicSetSystemHandlerPriority
 .text          0x080004e0      0x124 build/obj/chsys.o
                0x080004e0                _idle_thread
                0x080004fc                chSysInit
                0x0800057c                chSysTimerHandlerI
 *fill*         0x08000604        0xc 
 .text          0x08000610      0x284 build/obj/chdebug.o
                0x08000610                dbg_check_disable
                0x08000638                dbg_check_suspend
                0x08000660                dbg_check_enable
                0x08000688                dbg_check_lock
                0x080006b4                dbg_check_unlock
                0x080006e0                dbg_check_lock_from_isr
                0x0800070c                dbg_check_unlock_from_isr
                0x08000738                dbg_check_enter_isr
                0x08000774                dbg_check_leave_isr
                0x080007b0                chDbgCheckClassI
                0x080007d8                chDbgCheckClassS
                0x08000800                _trace_init
                0x08000818                dbg_trace
                0x08000878                chDbgPanic
 *fill*         0x08000894        0xc 
 .text          0x080008a0        0x0 build/obj/chlists.o
 .text          0x080008a0      0x130 build/obj/chvt.o
                0x080008a0                _vt_init
                0x080008c4                chVTSetI
                0x08000964                chVTResetI
 .text          0x080009d0      0x3cc build/obj/chschd.o
                0x08000a14                _scheduler_init
                0x08000a3c                chSchReadyI
                0x08000ab0                chSchGoSleepS
                0x08000bb0                chSchGoSleepTimeoutS
                0x08000c14                chSchWakeupS
                0x08000c88                chSchRescheduleS
                0x08000ca8                chSchDoRescheduleBehind
                0x08000d04                chSchDoRescheduleAhead
                0x08000d94                chSchDoReschedule
 *fill*         0x08000d9c        0x4 
 .text          0x08000da0      0x46c build/obj/chthreads.o
                0x08000dd4                _thread_init
                0x08000e68                _thread_memfill
                0x08000e90                chThdCreateI
                0x08000f04                chThdCreateStatic
                0x08000f6c                chThdSetPriority
                0x08000fdc                chThdResume
                0x0800101c                chThdTerminate
                0x08001050                chThdSleep
                0x08001088                chThdSleepUntil
                0x080010c4                chThdYield
                0x080010f4                chThdExit
                0x08001110                chThdExitS
                0x08001180                chThdWait
 *fill*         0x0800120c        0x4 
 .text          0x08001210      0x220 build/obj/chdynamic.o
                0x08001210                chThdAddRef
                0x08001258                chThdRelease
                0x0800130c                chThdCreateFromHeap
                0x08001390                chThdCreateFromMemoryPool
 .text          0x08001430       0xa4 build/obj/chregistry.o
                0x08001430                chRegFirstThread
                0x0800146c                chRegNextThread
 *fill*         0x080014d4        0xc 
 .text          0x080014e0      0x578 build/obj/chsem.o
                0x08001550                chSemInit
                0x08001588                chSemReset
                0x080015b8                chSemResetI
                0x08001640                chSemWait
                0x0800166c                chSemWaitS
                0x080016f8                chSemWaitTimeout
                0x08001728                chSemWaitTimeoutS
                0x080017cc                chSemSignal
                0x08001850                chSemSignalI
                0x080018c8                chSemAddCounterI
                0x08001954                chSemSignalWait
 *fill*         0x08001a58        0x8 
 .text          0x08001a60      0x498 build/obj/chmtx.o
                0x08001aec                chMtxInit
                0x08001b1c                chMtxLock
                0x08001b44                chMtxLockS
                0x08001c4c                chMtxTryLock
                0x08001c80                chMtxTryLockS
                0x08001cd0                chMtxUnlock
                0x08001da8                chMtxUnlockS
                0x08001e70                chMtxUnlockAll
 *fill*         0x08001ef8        0x8 
 .text          0x08001f00      0x2d0 build/obj/chcond.o
                0x08001f6c                chCondInit
                0x08001f98                chCondSignal
                0x08001fe4                chCondSignalI
                0x08002024                chCondBroadcast
                0x08002050                chCondBroadcastI
                0x08002094                chCondWait
                0x080020c0                chCondWaitS
                0x08002128                chCondWaitTimeout
                0x08002158                chCondWaitTimeoutS
 .text          0x080021d0      0x610 build/obj/chevents.o
                0x080021d0                chEvtRegisterMask
                0x08002230                chEvtUnregister
                0x08002294                chEvtGetAndClearEvents
                0x080022dc                chEvtAddEvents
                0x08002318                chEvtBroadcastFlagsI
                0x0800236c                chEvtGetAndClearFlags
                0x0800239c                chEvtSignal
                0x080023dc                chEvtSignalI
                0x0800244c                chEvtBroadcastFlags
                0x0800247c                chEvtGetAndClearFlagsI
                0x08002494                chEvtDispatch
                0x0800250c                chEvtWaitOne
                0x08002578                chEvtWaitAny
                0x080025dc                chEvtWaitAll
                0x08002634                chEvtWaitOneTimeout
                0x080026cc                chEvtWaitAnyTimeout
                0x0800275c                chEvtWaitAllTimeout
 .text          0x080027e0      0x158 build/obj/chmsg.o
                0x0800282c                chMsgSend
                0x080028a4                chMsgWait
                0x080028f8                chMsgRelease
 *fill*         0x08002938        0x8 
 .text          0x08002940      0x414 build/obj/chmboxes.o
                0x08002940                chMBInit
                0x080029a8                chMBReset
                0x08002a14                chMBPost
                0x08002a48                chMBPostS
                0x08002ab4                chMBPostI
                0x08002b20                chMBPostAhead
                0x08002b54                chMBPostAheadS
                0x08002bc8                chMBPostAheadI
                0x08002c38                chMBFetch
                0x08002c6c                chMBFetchS
                0x08002ce0                chMBFetchI
 *fill*         0x08002d54        0xc 
 .text          0x08002d60      0x5a8 build/obj/chqueues.o
                0x08002dec                chIQInit
                0x08002e3c                chIQResetI
                0x08002e88                chIQPutI
                0x08002f1c                chIQGetTimeout
                0x08002fac                chIQReadTimeout
                0x08003074                chOQInit
                0x080030c4                chOQResetI
                0x0800311c                chOQPutTimeout
                0x080031b0                chOQGetI
                0x08003240                chOQWriteTimeout
 *fill*         0x08003308        0x8 
 .text          0x08003310      0x1c0 build/obj/chmemcore.o
                0x08003310                _core_init
                0x08003348                chCoreAlloc
                0x08003374                chCoreAllocI
                0x080033c4                chCoreStatus
                0x080033dc                chCoreReserve
                0x08003408                chCoreReserveI
                0x08003458                chCoreUnreserve
                0x08003484                chCoreUnreserveI
 .text          0x080034d0      0x2d4 build/obj/chheap.o
                0x080034d0                _heap_init
                0x080034f8                chHeapInit
                0x08003558                chHeapAlloc
                0x0800363c                chHeapFree
                0x08003738                chHeapStatus
 *fill*         0x080037a4        0xc 
 .text          0x080037b0      0x168 build/obj/chmempools.o
                0x080037b0                chPoolInit
                0x080037e8                chPoolLoadArray
                0x08003830                chPoolAllocI
                0x08003884                chPoolAlloc
                0x080038b0                chPoolFreeI
                0x080038ec                chPoolFree
 *fill*         0x08003918        0x8 
 .text          0x08003920       0xb4 build/obj/hal.o
                0x08003920                halInit
                0x0800394c                halIsCounterWithin
                0x080039a4                halPolledDelay
 *fill*         0x080039d4        0xc 
 .text          0x080039e0        0x0 build/obj/adc.o
 .text          0x080039e0        0x0 build/obj/can.o
 .text          0x080039e0        0x0 build/obj/ext.o
 .text          0x080039e0        0x0 build/obj/gpt.o
 .text          0x080039e0      0x2c4 build/obj/i2c.o
                0x080039e0                i2cInit
                0x080039e8                i2cObjectInit
                0x08003a0c                i2cStart
                0x08003a78                i2cStop
                0x08003ad8                i2cGetErrors
                0x08003afc                i2cMasterTransmitTimeout
                0x08003bb8                i2cMasterReceiveTimeout
                0x08003c5c                i2cAcquireBus
                0x08003c84                i2cReleaseBus
 *fill*         0x08003ca4        0xc 
 .text          0x08003cb0        0x0 build/obj/icu.o
 .text          0x08003cb0        0x0 build/obj/mac.o
 .text          0x08003cb0        0x0 build/obj/mmc_spi.o
 .text          0x08003cb0        0x0 build/obj/mmcsd.o
 .text          0x08003cb0       0xcc build/obj/pal.o
                0x08003cb0                palReadBus
                0x08003cec                palWriteBus
                0x08003d3c                palSetBusMode
 *fill*         0x08003d7c        0x4 
 .text          0x08003d80        0x0 build/obj/pwm.o
 .text          0x08003d80        0x0 build/obj/rtc.o
 .text          0x08003d80        0x0 build/obj/sdc.o
 .text          0x08003d80      0x314 build/obj/serial.o
                0x08003eb8                sdInit
                0x08003ec0                sdObjectInit
                0x08003f24                sdStart
                0x08003f80                sdStop
                0x08003ff0                sdIncomingDataI
                0x08004050                sdRequestDataI
 *fill*         0x08004094        0xc 
 .text          0x080040a0      0x758 build/obj/serial_usb.o
                0x0800436c                sduInit
                0x08004370                sduObjectInit
                0x080043d8                sduStart
                0x0800446c                sduStop
                0x0800452c                sduConfigureHookI
                0x0800459c                sduRequestsHook
                0x08004614                sduDataTransmitted
                0x08004728                sduDataReceived
                0x080047e8                sduInterruptTransmitted
 *fill*         0x080047f8        0x8 
 .text          0x08004800      0x5c0 build/obj/spi.o
                0x08004800                spiInit
                0x08004808                spiObjectInit
                0x08004830                spiStart
                0x08004894                spiStop
                0x080048f0                spiSelect
                0x08004938                spiUnselect
                0x08004980                spiStartIgnore
                0x080049d8                spiStartExchange
                0x08004a44                spiStartSend
                0x08004aa8                spiStartReceive
                0x08004b0c                spiIgnore
                0x08004b9c                spiExchange
                0x08004c40                spiSend
                0x08004cdc                spiReceive
                0x08004d78                spiAcquireBus
                0x08004da0                spiReleaseBus
 .text          0x08004dc0        0x0 build/obj/tm.o
 .text          0x08004dc0        0x0 build/obj/uart.o
 .text          0x08004dc0      0xc94 build/obj/usb.o
                0x0800518c                usbInit
                0x08005194                usbObjectInit
                0x080051e0                usbStart
                0x08005264                usbStop
                0x080052cc                usbInitEndpointI
                0x08005370                usbDisableEndpointsI
                0x080053e4                usbPrepareReceive
                0x08005430                usbPrepareTransmit
                0x0800547c                usbPrepareQueuedReceive
                0x080054c8                usbPrepareQueuedTransmit
                0x08005514                usbStartReceiveI
                0x08005584                usbStartTransmitI
                0x080055f4                usbStallReceiveI
                0x08005644                usbStallTransmitI
                0x08005694                _usb_reset
                0x080056f8                _usb_ep0setup
                0x080058a4                _usb_ep0in
                0x080059ac                _usb_ep0out
 *fill*         0x08005a54        0xc 
 .text          0x08005a60      0x540 build/obj/stm32_dma.o
                0x08005a60                Vector6C
                0x08005aa4                Vector70
                0x08005aec                Vector74
                0x08005b34                Vector78
                0x08005b7c                Vector7C
                0x08005bc4                Vector80
                0x08005c0c                Vector84
                0x08005c54                Vector120
                0x08005c98                Vector124
                0x08005ce0                Vector128
                0x08005d28                Vector12C
                0x08005d70                Vector130
                0x08005db8                dmaInit
                0x08005e18                dmaStreamAllocate
                0x08005f08                dmaStreamRelease
 .text          0x08005fa0      0x188 build/obj/hal_lld.o
                0x08005fd0                hal_lld_init
                0x08006078                stm32_clock_init
 *fill*         0x08006128        0x8 
 .text          0x08006130        0x0 build/obj/adc_lld.o
 .text          0x08006130        0x0 build/obj/ext_lld_isr.o
 .text          0x08006130        0x0 build/obj/can_lld.o
 .text          0x08006130        0x0 build/obj/ext_lld.o
 .text          0x08006130      0x1e0 build/obj/pal_lld.o
                0x08006174                _pal_lld_init
                0x080061ec                _pal_lld_setgroupmode
 .text          0x08006310      0x980 build/obj/i2c_lld.o
                0x08006748                VectorC4
                0x08006780                VectorC8
                0x080067b8                i2c_lld_init
                0x080067ec                i2c_lld_start
                0x08006920                i2c_lld_stop
                0x08006978                i2c_lld_master_receive_timeout
                0x08006ae8                i2c_lld_master_transmit_timeout
 .text          0x08006c90        0x0 build/obj/rtc_lld.o
 .text          0x08006c90      0x56c build/obj/spi_lld.o
                0x08006d7c                spi_lld_init
                0x08006dc4                spi_lld_start
                0x08006f00                spi_lld_stop
                0x08006f54                spi_lld_select
                0x08006f74                spi_lld_unselect
                0x08006f94                spi_lld_ignore
                0x08007010                spi_lld_exchange
                0x08007090                spi_lld_send
                0x0800710c                spi_lld_receive
                0x08007188                spi_lld_polled_exchange
 *fill*         0x080071fc        0x4 
 .text          0x08007200        0x0 build/obj/gpt_lld.o
 .text          0x08007200        0x0 build/obj/icu_lld.o
 .text          0x08007200        0x0 build/obj/pwm_lld.o
 .text          0x08007200      0x330 build/obj/serial_lld.o
                0x08007450                VectorDC
                0x0800746c                sd_lld_init
                0x0800749c                sd_lld_start
                0x080074ec                sd_lld_stop
 .text          0x08007530        0x0 build/obj/uart_lld.o
 .text          0x08007530      0xcc8 build/obj/usb_lld.o
                0x08007840                Vector168
                0x08007850                Vector16C
                0x08007bf8                usb_lld_init
                0x08007c08                usb_lld_start
                0x08007c60                usb_lld_stop
                0x08007ca8                usb_lld_reset
                0x08007d00                usb_lld_set_address
                0x08007d1c                usb_lld_init_endpoint
                0x08007e70                usb_lld_disable_endpoints
                0x08007eb4                usb_lld_get_status_out
                0x08007eec                usb_lld_get_status_in
                0x08007f24                usb_lld_read_setup
                0x08007f88                usb_lld_prepare_receive
                0x08007fec                usb_lld_prepare_transmit
                0x0800809c                usb_lld_start_out
                0x080080d0                usb_lld_start_in
                0x08008104                usb_lld_stall_out
                0x08008138                usb_lld_stall_in
                0x0800816c                usb_lld_clear_out
                0x080081b4                usb_lld_clear_in
 *fill*         0x080081f8        0x8 
 .text          0x08008200        0xc build/obj/board.o
                0x08008200                __early_init
                0x08008208                boardInit
 *fill*         0x0800820c        0x4 
 .text          0x08008210       0xb8 build/obj/evtimer.o
                0x08008258                evtStart
                0x08008298                evtStop
 *fill*         0x080082c8        0x8 
 .text          0x080082d0       0xcc build/obj/syscalls.o
                0x080082d0                _read_r
                0x080082ec                _lseek_r
                0x08008300                _write_r
                0x08008314                _close_r
                0x08008324                _sbrk_r
                0x08008364                _fstat_r
                0x0800838c                _isatty_r
 *fill*         0x0800839c        0x4 
 .text          0x080083a0      0x628 build/obj/chprintf.o
                0x080084f4                chvprintf
                0x08008980                chsnprintf
 *fill*         0x080089c8        0x8 
 .text          0x080089d0      0x15c build/obj/memstreams.o
                0x08008afc                msObjectInit
 *fill*         0x08008b2c        0x4 
 .text          0x08008b30      0x538 build/obj/shell.o
                0x08008efc                shellInit
                0x08008f08                shellExit
                0x08008f30                shellCreate
                0x08008f58                shellCreateStatic
                0x08008f84                shellGetLine
 *fill*         0x08009068        0x8 
 .text          0x08009070      0x7a0 build/obj/rtcan.o
                0x08009070                stm32_id8
                0x08009088                rtcan_ismaster
                0x08009090                rtcan_tim_isr_code
                0x08009104                rtcan_txok_isr_code
                0x080091b4                rtcan_alst_isr_code
                0x08009218                rtcan_terr_isr_code
                0x08009284                rtcan_rx_isr_code
                0x08009428                rtcanInit
                0x08009434                rtcanReset
                0x08009494                rtcanStart
                0x0800950c                rtcanStop
                0x08009564                rtcanTransmit
                0x08009594                rtcanTransmitI
                0x0800961c                rtcanReceive
                0x0800966c                rtcanReceiveMask
                0x080096bc                rtcanGetTime
                0x08009760                rtcan_blinker
 .text          0x08009810      0x108 build/obj/msgqueue.o
                0x08009810                msgqueue_init
                0x08009820                msgqueue_insert
                0x0800987c                msgqueue_remove
                0x080098d4                msgqueue_get
 *fill*         0x08009918        0x8 
 .text          0x08009920        0x0 build/obj/hrt.o
 .text          0x08009920      0x13c build/obj/srt.o
                0x08009920                srt_laxity
                0x08009958                srt_transmit
 *fill*         0x08009a5c        0x4 
 .text          0x08009a60      0x58c build/obj/rtcan_lld_can.o
                0x08009bfc                Vector8C
                0x08009c18                Vector90
                0x08009c34                Vector94
                0x08009c50                Vector98
                0x08009c6c                rtcan_lld_can_init
                0x08009c84                rtcan_lld_can_start
                0x08009d00                rtcan_lld_can_stop
                0x08009d64                rtcan_lld_can_txe
                0x08009d84                rtcan_lld_can_transmit
                0x08009de8                rtcan_lld_can_rxne
                0x08009e1c                rtcan_lld_can_receive
                0x08009f24                rtcan_lld_can_addfilter
 *fill*         0x08009fec        0x4 
 .text          0x08009ff0      0x198 build/obj/rtcan_lld_tim.o
                0x08009ff0                VectorB4
                0x0800a014                rtcan_lld_tim_init
                0x0800a024                rtcan_lld_tim_start
                0x0800a090                rtcan_lld_tim_stop
                0x0800a0cc                rtcan_lld_tim_start_timer
                0x0800a0f8                rtcan_lld_tim_stop_timer
                0x0800a118                rtcan_lld_tim_set_interval
                0x0800a138                rtcan_lld_tim_get_interval
                0x0800a154                rtcan_lld_tim_get_counter
                0x0800a16c                rtcan_lld_tim_set_counter
 *fill*         0x0800a188        0x8 
 .text          0x0800a190       0x34 build/obj/stubs.o
                0x0800a190                __cxa_pure_virtual
                0x0800a198                _exit
                0x0800a1a4                _kill
                0x0800a1bc                _getpid
 *fill*         0x0800a1c4        0xc 
 .text          0x0800a1d0       0xd4 build/obj/usbcfg.o
 *fill*         0x0800a2a4        0xc 
 .text          0x0800a2b0        0x0 build/obj/ArrayQueue_.o
 .text          0x0800a2b0      0x15c build/obj/SimplePool_.o
                0x0800a2b0                r2p::SimplePool_::alloc_unsafe()
                0x0800a2d8                r2p::SimplePool_::free_unsafe(void*)
                0x0800a2f8                r2p::SimplePool_::alloc()
                0x0800a330                r2p::SimplePool_::free(void*)
                0x0800a35c                r2p::SimplePool_::grow(void*, unsigned int, unsigned int)
                0x0800a3c0                r2p::SimplePool_::SimplePool_()
                0x0800a3c0                r2p::SimplePool_::SimplePool_()
                0x0800a3dc                r2p::SimplePool_::SimplePool_(void*, unsigned int, unsigned int)
                0x0800a3dc                r2p::SimplePool_::SimplePool_(void*, unsigned int, unsigned int)
 *fill*         0x0800a40c        0x4 
 .text          0x0800a410      0x3c4 build/obj/StaticList_.o
                0x0800a410                r2p::StaticList_::count_unsafe() const
                0x0800a43c                r2p::StaticList_::unlink_unsafe(r2p::StaticList_::Link&)
                0x0800a490                r2p::StaticList_::index_of_unsafe(void const*) const
                0x0800a4d8                r2p::StaticList_::contains_unsafe(void const*) const
                0x0800a508                r2p::StaticList_::find_first_unsafe(bool (*)(void const*)) const
                0x0800a544                r2p::StaticList_::find_first_unsafe(bool (*)(void const*, void const*), void const*) const
                0x0800a594                r2p::StaticList_::get_head() const
                0x0800a5b4                r2p::StaticList_::is_empty() const
                0x0800a5dc                r2p::StaticList_::count() const
                0x0800a61c                r2p::StaticList_::link(r2p::StaticList_::Link&)
                0x0800a63c                r2p::StaticList_::unlink(r2p::StaticList_::Link&)
                0x0800a668                r2p::StaticList_::index_of(void const*) const
                0x0800a6c4                r2p::StaticList_::contains(void const*) const
                0x0800a70c                r2p::StaticList_::find_first(bool (*)(void const*)) const
                0x0800a758                r2p::StaticList_::find_first(bool (*)(void const*, void const*), void const*) const
                0x0800a7b8                r2p::StaticList_::StaticList_()
                0x0800a7b8                r2p::StaticList_::StaticList_()
 *fill*         0x0800a7d4        0xc 
 .text          0x0800a7e0      0x300 build/obj/StaticQueue_.o
                0x0800a7e0                r2p::StaticQueue_::get_head_unsafe() const
                0x0800a7f0                r2p::StaticQueue_::get_tail_unsafe() const
                0x0800a800                r2p::StaticQueue_::post_unsafe(r2p::StaticQueue_::Link&)
                0x0800a880                r2p::StaticQueue_::peek_unsafe(r2p::StaticQueue_::Link const*&) const
                0x0800a8d4                r2p::StaticQueue_::fetch_unsafe(r2p::StaticQueue_::Link&)
                0x0800a94c                r2p::StaticQueue_::skip_unsafe()
                0x0800a9b4                r2p::StaticQueue_::get_head() const
                0x0800a9d4                r2p::StaticQueue_::get_tail() const
                0x0800a9f4                r2p::StaticQueue_::is_empty() const
                0x0800aa1c                r2p::StaticQueue_::post(r2p::StaticQueue_::Link&)
                0x0800aa3c                r2p::StaticQueue_::peek(r2p::StaticQueue_::Link const*&) const
                0x0800aa68                r2p::StaticQueue_::fetch(r2p::StaticQueue_::Link&)
                0x0800aa94                r2p::StaticQueue_::skip()
                0x0800aabc                r2p::StaticQueue_::StaticQueue_()
                0x0800aabc                r2p::StaticQueue_::StaticQueue_()
 .text          0x0800aae0      0x260 build/obj/BasePublisher.o
                0x0800aae0                r2p::BasePublisher::publish_unsafe(r2p::Message&)
                0x0800ab70                r2p::BasePublisher::publish_locally_unsafe(r2p::Message&)
                0x0800abd8                r2p::BasePublisher::publish_remotely_unsafe(r2p::Message&)
                0x0800ac40                r2p::BasePublisher::publish(r2p::Message&)
                0x0800acd0                r2p::BasePublisher::BasePublisher()
                0x0800acd0                r2p::BasePublisher::BasePublisher()
                0x0800acf8                r2p::BasePublisher::~BasePublisher()
                0x0800acf8                r2p::BasePublisher::~BasePublisher()
                0x0800ad24                r2p::BasePublisher::~BasePublisher()
 .text          0x0800ad40      0x120 build/obj/BaseSubscriber.o
                0x0800ad40                r2p::BaseSubscriber::release_unsafe(r2p::Message&)
                0x0800ad88                r2p::BaseSubscriber::release(r2p::Message&)
                0x0800add0                r2p::BaseSubscriber::BaseSubscriber()
                0x0800add0                r2p::BaseSubscriber::BaseSubscriber()
                0x0800adf8                r2p::BaseSubscriber::~BaseSubscriber()
                0x0800adf8                r2p::BaseSubscriber::~BaseSubscriber()
                0x0800ae24                r2p::BaseSubscriber::~BaseSubscriber()
                0x0800ae40                r2p::BaseSubscriber::has_topic(r2p::BaseSubscriber const&, char const*)
 .text          0x0800ae60       0x18 build/obj/BaseSubscriberQueue.o
                0x0800ae60                r2p::BaseSubscriberQueue::BaseSubscriberQueue()
                0x0800ae60                r2p::BaseSubscriberQueue::BaseSubscriberQueue()
 *fill*         0x0800ae78        0x8 
 .text          0x0800ae80       0x70 build/obj/BootMsg.o
                0x0800ae80                r2p::IhexRecord::compute_checksum() const
 .text          0x0800aef0       0x38 build/obj/Checksummer.o
                0x0800aef0                r2p::Checksummer::add(unsigned char const*, unsigned int)
 *fill*         0x0800af28        0x8 
 .text          0x0800af30       0x7c build/obj/LocalPublisher.o
                0x0800af30                r2p::LocalPublisher::LocalPublisher()
                0x0800af30                r2p::LocalPublisher::LocalPublisher()
                0x0800af60                r2p::LocalPublisher::~LocalPublisher()
                0x0800af60                r2p::LocalPublisher::~LocalPublisher()
                0x0800af90                r2p::LocalPublisher::~LocalPublisher()
 *fill*         0x0800afac        0x4 
 .text          0x0800afb0      0x198 build/obj/LocalSubscriber.o
                0x0800afb0                r2p::LocalSubscriber::fetch(r2p::Message*&)
                0x0800afe4                r2p::LocalSubscriber::fetch(r2p::Message*&, r2p::Time&)
                0x0800b02c                r2p::LocalSubscriber::notify(r2p::Message&, r2p::Time const&)
                0x0800b074                r2p::LocalSubscriber::LocalSubscriber(r2p::Message**, unsigned int, bool (*)(r2p::Message const&))
                0x0800b074                r2p::LocalSubscriber::LocalSubscriber(r2p::Message**, unsigned int, bool (*)(r2p::Message const&))
                0x0800b0f4                r2p::LocalSubscriber::~LocalSubscriber()
                0x0800b0f4                r2p::LocalSubscriber::~LocalSubscriber()
                0x0800b12c                r2p::LocalSubscriber::~LocalSubscriber()
 *fill*         0x0800b148        0x8 
 .text          0x0800b150       0x20 build/obj/MessagePtrQueue.o
                0x0800b150                r2p::MessagePtrQueue::MessagePtrQueue(r2p::Message**, unsigned int)
                0x0800b150                r2p::MessagePtrQueue::MessagePtrQueue(r2p::Message**, unsigned int)
 .text          0x0800b170       0x98 build/obj/Message.o
                0x0800b170                r2p::Message::acquire()
                0x0800b18c                r2p::Message::release()
                0x0800b1b4                r2p::Message::reset()
                0x0800b1d0                r2p::Message::copy(r2p::Message&, r2p::Message const&, unsigned int)
 *fill*         0x0800b208        0x8 
 .text          0x0800b210     0x1420 build/obj/Middleware.o
                0x0800b210                r2p::Middleware::initialize(void*, unsigned int, unsigned long, void*, unsigned int, unsigned long)
                0x0800b2bc                r2p::Middleware::start()
                0x0800b3e8                r2p::Middleware::stop()
                0x0800b4ac                r2p::Middleware::stop_remote(char const*)
                0x0800b4fc                r2p::Middleware::reboot_remote(char const*, bool)
                0x0800b560                r2p::Middleware::add(r2p::Node&)
                0x0800b594                r2p::Middleware::add(r2p::Transport&)
                0x0800b5b4                r2p::Middleware::add(r2p::Topic&)
                0x0800b600                r2p::Middleware::advertise(r2p::LocalPublisher&, char const*, r2p::Time const&, unsigned int)
                0x0800b6ec                r2p::Middleware::advertise(r2p::RemotePublisher&, char const*, r2p::Time const&, unsigned int)
                0x0800b740                r2p::Middleware::subscribe(r2p::LocalSubscriber&, char const*, r2p::Message*, unsigned int, unsigned int)
                0x0800b874                r2p::Middleware::subscribe(r2p::RemoteSubscriber&, char const*, r2p::Message*, unsigned int, unsigned int)
                0x0800b8d8                r2p::Middleware::confirm_stop(r2p::Node const&)
                0x0800b940                r2p::Middleware::find_topic(char const*)
                0x0800b97c                r2p::Middleware::find_node(char const*)
                0x0800b9b8                r2p::Middleware::touch_topic(char const*, unsigned int)
                0x0800ba1c                r2p::Middleware::do_mgmt_thread()
                0x0800c0c4                r2p::Middleware::do_cmd_advertise(r2p::MgmtMsg const&)
                0x0800c1e0                r2p::Middleware::do_cmd_subscribe_request(r2p::MgmtMsg const&)
                0x0800c328                r2p::Middleware::do_cmd_subscribe_response(r2p::MgmtMsg const&)
                0x0800c3ac                r2p::Middleware::Middleware(char const*, char const*, r2p::Middleware::PubSubStep*, unsigned int)
                0x0800c3ac                r2p::Middleware::Middleware(char const*, char const*, r2p::Middleware::PubSubStep*, unsigned int)
                0x0800c500                r2p::Middleware::mgmt_threadf(void*)
                0x0800c51c                r2p::Middleware::boot_threadf(void*)
 .text          0x0800c630      0x2f0 build/obj/Node.o
                0x0800c630                r2p::Node::advertise(r2p::LocalPublisher&, char const*, r2p::Time const&, unsigned int)
                0x0800c690                r2p::Node::subscribe(r2p::LocalSubscriber&, char const*, r2p::Message*, unsigned int)
                0x0800c754                r2p::Node::spin(r2p::Time const&)
                0x0800c848                r2p::Node::Node(char const*, bool)
                0x0800c848                r2p::Node::Node(char const*, bool)
                0x0800c8e0                r2p::Node::~Node()
                0x0800c8e0                r2p::Node::~Node()
 .text          0x0800c920       0x84 build/obj/RemotePublisher.o
                0x0800c920                r2p::RemotePublisher::RemotePublisher(r2p::Transport&)
                0x0800c920                r2p::RemotePublisher::RemotePublisher(r2p::Transport&)
                0x0800c958                r2p::RemotePublisher::~RemotePublisher()
                0x0800c958                r2p::RemotePublisher::~RemotePublisher()
                0x0800c988                r2p::RemotePublisher::~RemotePublisher()
 *fill*         0x0800c9a4        0xc 
 .text          0x0800c9b0       0x90 build/obj/RemoteSubscriber.o
                0x0800c9b0                r2p::RemoteSubscriber::RemoteSubscriber(r2p::Transport&)
                0x0800c9b0                r2p::RemoteSubscriber::RemoteSubscriber(r2p::Transport&)
                0x0800c9f4                r2p::RemoteSubscriber::~RemoteSubscriber()
                0x0800c9f4                r2p::RemoteSubscriber::~RemoteSubscriber()
                0x0800ca24                r2p::RemoteSubscriber::~RemoteSubscriber()
 .text          0x0800ca40       0x58 build/obj/Time.o
 *fill*         0x0800ca98        0x8 
 .text          0x0800caa0       0x20 build/obj/TimestampedMsgPtrQueue.o
                0x0800caa0                r2p::TimestampedMsgPtrQueue::TimestampedMsgPtrQueue(r2p::TimestampedMsgPtrQueue::Entry*, unsigned int)
                0x0800caa0                r2p::TimestampedMsgPtrQueue::TimestampedMsgPtrQueue(r2p::TimestampedMsgPtrQueue::Entry*, unsigned int)
 .text          0x0800cac0      0x610 build/obj/Topic.o
                0x0800cac0                r2p::Topic::notify_locals_unsafe(r2p::Message&, r2p::Time const&)
                0x0800cb48                r2p::Topic::notify_remotes_unsafe(r2p::Message&, r2p::Time const&)
                0x0800cbd4                r2p::Topic::forward_copy_unsafe(r2p::Message const&, r2p::Time const&)
                0x0800ccb0                r2p::Topic::alloc()
                0x0800ccd0                r2p::Topic::notify_locals(r2p::Message&, r2p::Time const&)
                0x0800cd58                r2p::Topic::notify_remotes(r2p::Message&, r2p::Time const&)
                0x0800ce08                r2p::Topic::forward_copy(r2p::Message const&, r2p::Time const&)
                0x0800cee4                r2p::Topic::advertise(r2p::LocalPublisher&, r2p::Time const&)
                0x0800cf24                r2p::Topic::advertise(r2p::RemotePublisher&, r2p::Time const&)
                0x0800cf64                r2p::Topic::subscribe(r2p::LocalSubscriber&, unsigned int)
                0x0800cfa0                r2p::Topic::subscribe(r2p::RemoteSubscriber&, unsigned int)
                0x0800cfdc                r2p::Topic::patch_pubsub_msg(r2p::Message&, r2p::Transport&) const
                0x0800d040                r2p::Topic::Topic(char const*, unsigned int, bool)
                0x0800d040                r2p::Topic::Topic(char const*, unsigned int, bool)
 .text          0x0800d0d0      0x3f8 build/obj/Transport.o
                0x0800d0d0                r2p::Transport::touch_publisher(r2p::Topic&, unsigned char const*)
                0x0800d168                r2p::Transport::touch_subscriber(r2p::Topic&, unsigned int, unsigned char*)
                0x0800d2b0                r2p::Transport::advertise_cb(r2p::Topic&, unsigned char const*)
                0x0800d2d0                r2p::Transport::subscribe_cb(r2p::Topic&, unsigned int, unsigned char*)
                0x0800d2f4                r2p::Transport::advertise(r2p::RemotePublisher&, char const*, r2p::Time const&, unsigned int)
                0x0800d358                r2p::Transport::subscribe(r2p::RemoteSubscriber&, char const*, r2p::Message*, unsigned int, unsigned int)
                0x0800d3c0                r2p::Transport::fill_raw_params(r2p::Topic const&, unsigned char*)
                0x0800d3dc                r2p::Transport::Transport(char const*)
                0x0800d3dc                r2p::Transport::Transport(char const*)
                0x0800d458                r2p::Transport::~Transport()
                0x0800d458                r2p::Transport::~Transport()
                0x0800d4ac                r2p::Transport::~Transport()
 *fill*         0x0800d4c8        0x8 
 .text          0x0800d4d0       0xec build/obj/Utils.o
                0x0800d4d0                r2p::is_identifier(char const*)
                0x0800d53c                r2p::is_identifier(char const*, unsigned int)
 *fill*         0x0800d5bc        0x4 
 .text          0x0800d5c0     0x14d8 build/obj/Bootloader.o
                0x0800d5c0                r2p::Bootloader::spin_loop()
                0x0800d67c                r2p::Bootloader::alloc()
                0x0800d6e4                r2p::Bootloader::publish()
                0x0800d748                r2p::Bootloader::fetch()
                0x0800d7a4                r2p::Bootloader::release()
                0x0800d7e8                r2p::Bootloader::do_loader()
                0x0800da28                r2p::Bootloader::do_appinfo()
                0x0800dd0c                r2p::Bootloader::do_getparam()
                0x0800de90                r2p::Bootloader::do_setparam()
                0x0800e04c                r2p::Bootloader::do_ack()
                0x0800e068                r2p::Bootloader::do_error(unsigned long, char const*)
                0x0800e0a0                r2p::Bootloader::do_release_error(unsigned long, char const*)
                0x0800e0e0                r2p::Bootloader::write_appinfo(r2p::Bootloader::FlashAppInfo const*, r2p::BootMsg::LinkingSetup const&, r2p::BootMsg::LinkingAddresses const&, r2p::BootMsg::LinkingOutcome const&)
                0x0800e354                r2p::Bootloader::process_ihex(r2p::IhexRecord const&, r2p::BootMsg::LinkingSetup const&, r2p::BootMsg::LinkingAddresses const&)
                0x0800e528                r2p::Bootloader::remove_last()
                0x0800e56c                r2p::Bootloader::remove_all()
                0x0800e64c                r2p::Bootloader::Bootloader(unsigned short*, r2p::Publisher<r2p::BootMsg>&, r2p::SubscriberExtBuf<r2p::BootMsg>&)
                0x0800e64c                r2p::Bootloader::Bootloader(unsigned short*, r2p::Publisher<r2p::BootMsg>&, r2p::SubscriberExtBuf<r2p::BootMsg>&)
                0x0800e6a4                r2p::Bootloader::get_num_apps()
                0x0800e6e4                r2p::Bootloader::get_free_app()
                0x0800e754                r2p::Bootloader::get_last_app()
                0x0800e7ac                r2p::Bootloader::get_app(char const*)
                0x0800e80c                r2p::Bootloader::compute_addresses(r2p::BootMsg::LinkingSetup const&, r2p::BootMsg::LinkingAddresses&)
                0x0800e930                r2p::Bootloader::launch(char const*)
                0x0800e9b8                r2p::Bootloader::app_threadf_wrapper(void*)
                0x0800ea30                r2p::Bootloader::launch_all()
 *fill*         0x0800ea98        0x8 
 .text          0x0800eaa0      0xd38 build/obj/DebugTransport.o
                0x0800eaac                r2p::DebugTransport::skip_after_char(char, unsigned long)
                0x0800eaec                r2p::DebugTransport::recv_byte(unsigned char&, unsigned long)
                0x0800ebf0                r2p::DebugTransport::send_chunk(void const*, unsigned int, unsigned long)
                0x0800ec44                r2p::DebugTransport::recv_chunk(void*, unsigned int, unsigned long)
                0x0800ec94                r2p::DebugTransport::send_chunk_rev(void const*, unsigned int, unsigned long)
                0x0800ecec                r2p::DebugTransport::recv_chunk_rev(void*, unsigned int, unsigned long)
                0x0800ed44                r2p::DebugTransport::send_string(char const*, unsigned int, unsigned long)
                0x0800ed94                r2p::DebugTransport::recv_string(char*, unsigned int, unsigned long)
                0x0800ede0                r2p::DebugTransport::send_msg(r2p::Message const&, unsigned int, char const*, r2p::Time const&)
                0x0800efec                r2p::DebugTransport::initialize(void*, unsigned int, unsigned long, void*, unsigned int, unsigned long)
                0x0800f1bc                r2p::DebugTransport::spin_tx()
                0x0800f338                r2p::DebugTransport::spin_rx()
                0x0800f5c4                r2p::DebugTransport::rx_threadf(void*)
                0x0800f5e4                r2p::DebugTransport::tx_threadf(void*)
                0x0800f604                r2p::DebugTransport::DebugTransport(char const*, BaseChannel*, char*)
                0x0800f604                r2p::DebugTransport::DebugTransport(char const*, BaseChannel*, char*)
                0x0800f740                r2p::DebugTransport::~DebugTransport()
                0x0800f740                r2p::DebugTransport::~DebugTransport()
                0x0800f7bc                r2p::DebugTransport::~DebugTransport()
 *fill*         0x0800f7d8        0x8 
 .text          0x0800f7e0       0x74 build/obj/DebugPublisher.o
                0x0800f7e0                r2p::DebugPublisher::DebugPublisher(r2p::Transport&)
                0x0800f7e0                r2p::DebugPublisher::DebugPublisher(r2p::Transport&)
                0x0800f808                r2p::DebugPublisher::~DebugPublisher()
                0x0800f808                r2p::DebugPublisher::~DebugPublisher()
                0x0800f838                r2p::DebugPublisher::~DebugPublisher()
 *fill*         0x0800f854        0xc 
 .text          0x0800f860      0x188 build/obj/DebugSubscriber.o
                0x0800f860                r2p::DebugSubscriber::get_queue_length() const
                0x0800f87c                r2p::DebugSubscriber::get_queue_count() const
                0x0800f898                r2p::DebugSubscriber::notify_unsafe(r2p::Message&, r2p::Time const&)
                0x0800f900                r2p::DebugSubscriber::fetch_unsafe(r2p::Message*&, r2p::Time&)
                0x0800f948                r2p::DebugSubscriber::DebugSubscriber(r2p::DebugTransport&, r2p::TimestampedMsgPtrQueue::Entry*, unsigned int)
                0x0800f948                r2p::DebugSubscriber::DebugSubscriber(r2p::DebugTransport&, r2p::TimestampedMsgPtrQueue::Entry*, unsigned int)
                0x0800f994                r2p::DebugSubscriber::~DebugSubscriber()
                0x0800f994                r2p::DebugSubscriber::~DebugSubscriber()
                0x0800f9cc                r2p::DebugSubscriber::~DebugSubscriber()
 *fill*         0x0800f9e8        0x8 
 .text          0x0800f9f0      0x4b4 build/obj/RTCANTransport.o
                0x0800f9f0                r2p::RTCANTransport::send(r2p::Message*, r2p::RTCANSubscriber*)
                0x0800fa78                r2p::RTCANTransport::send_cb(rtcan_msg_t&)
                0x0800fabc                r2p::RTCANTransport::recv_cb(rtcan_msg_t&)
                0x0800fb18                r2p::RTCANTransport::free_header(rtcan_msg_t&)
                0x0800fb3c                r2p::RTCANTransport::create_publisher(r2p::Topic&, unsigned char const*) const
                0x0800fbf0                r2p::RTCANTransport::create_subscriber(r2p::Topic&, r2p::TimestampedMsgPtrQueue::Entry*, unsigned int) const
                0x0800fc2c                r2p::RTCANTransport::fill_raw_params(r2p::Topic const&, unsigned char*)
                0x0800fc4c                r2p::RTCANTransport::initialize(RTCANConfig const&)
                0x0800fd08                r2p::RTCANTransport::RTCANTransport(RTCANDriver&)
                0x0800fd08                r2p::RTCANTransport::RTCANTransport(RTCANDriver&)
                0x0800fda0                r2p::RTCANTransport::~RTCANTransport()
                0x0800fda0                r2p::RTCANTransport::~RTCANTransport()
                0x0800fde8                r2p::RTCANTransport::~RTCANTransport()
                0x0800fe04                r2p::RTCANTransport::topic_id(r2p::Topic const&) const
 *fill*         0x0800fea4        0xc 
 .text          0x0800feb0       0x74 build/obj/RTCANPublisher.o
                0x0800feb0                r2p::RTCANPublisher::RTCANPublisher(r2p::Transport&)
                0x0800feb0                r2p::RTCANPublisher::RTCANPublisher(r2p::Transport&)
                0x0800fed8                r2p::RTCANPublisher::~RTCANPublisher()
                0x0800fed8                r2p::RTCANPublisher::~RTCANPublisher()
                0x0800ff08                r2p::RTCANPublisher::~RTCANPublisher()
 *fill*         0x0800ff24        0xc 
 .text          0x0800ff30       0xc8 build/obj/RTCANSubscriber.o
                0x0800ff30                r2p::RTCANSubscriber::fetch_unsafe(r2p::Message*&, r2p::Time&)
                0x0800ff40                r2p::RTCANSubscriber::notify_unsafe(r2p::Message&, r2p::Time const&)
                0x0800ff74                r2p::RTCANSubscriber::get_queue_length() const
                0x0800ff80                r2p::RTCANSubscriber::RTCANSubscriber(r2p::RTCANTransport&, r2p::TimestampedMsgPtrQueue::Entry*, unsigned int)
                0x0800ff80                r2p::RTCANSubscriber::RTCANSubscriber(r2p::RTCANTransport&, r2p::TimestampedMsgPtrQueue::Entry*, unsigned int)
                0x0800ffac                r2p::RTCANSubscriber::~RTCANSubscriber()
                0x0800ffac                r2p::RTCANSubscriber::~RTCANSubscriber()
                0x0800ffdc                r2p::RTCANSubscriber::~RTCANSubscriber()
 *fill*         0x0800fff8        0x8 
 .text          0x08010000       0x44 build/obj/Middleware_.o
                0x08010000                r2p::Middleware::reboot()
 *fill*         0x08010044        0xc 
 .text          0x08010050       0x44 build/obj/Time_.o
                0x08010050                r2p::Time::now()
 *fill*         0x08010094        0xc 
 .text          0x080100a0       0x30 build/obj/Bootloader_.o
                0x080100a0                r2p::Bootloader::reserve_ram(unsigned int)
                0x080100b8                r2p::Bootloader::unreserve_ram(unsigned int)
 .text          0x080100d0      0x96c build/obj/Flasher_.o
                0x0801014c                r2p::Flasher_::set_page_buffer(unsigned short*)
                0x08010170                r2p::Flasher_::is_erased(unsigned short)
                0x080101d0                r2p::Flasher_::erase(unsigned short)
                0x08010244                r2p::Flasher_::compare(unsigned short, unsigned short const volatile*)
                0x08010300                r2p::Flasher_::read(unsigned short, unsigned short*)
                0x0801034c                r2p::Flasher_::write(unsigned short, unsigned short const volatile*)
                0x08010480                r2p::Flasher_::write_if_needed(unsigned short, unsigned short const volatile*)
                0x080104f0                r2p::Flasher_::begin()
                0x08010518                r2p::Flasher_::end()
                0x0801054c                r2p::Flasher_::flash_aligned(unsigned short const*, unsigned short const*, unsigned int)
                0x080106b0                r2p::Flasher_::erase_aligned(unsigned short const*, unsigned int)
                0x08010720                r2p::Flasher_::flash(unsigned char const*, unsigned char const*, unsigned int)
                0x08010870                r2p::Flasher_::erase(unsigned char const*, unsigned int)
                0x080109b0                r2p::Flasher_::Flasher_(unsigned short*)
                0x080109b0                r2p::Flasher_::Flasher_(unsigned short*)
                0x080109dc                r2p::Flasher_::jump_to(unsigned char const*)
 *fill*         0x08010a3c        0x4 
 .text          0x08010a40      0x22c build/obj/led.o
                0x08010a40                r2p::led2gpio(unsigned int)
                0x08010a88                r2p::led2pin(unsigned int)
                0x08010acc                r2p::ledpub_node(void*)
                0x08010b78                r2p::callback(r2p::LedMsg const&)
                0x08010bd8                r2p::ledsub_node(void*)
 *fill*         0x08010c6c        0x4 
 .text          0x08010c70      0x100 build/obj/chnew.o
                0x08010c70                operator new(unsigned int)
                0x08010c94                operator new(unsigned int, memory_heap*)
                0x08010cbc                operator new[](unsigned int)
                0x08010ce0                operator new[](unsigned int, memory_heap*)
                0x08010d08                operator delete(void*)
                0x08010d20                operator delete(void*, memory_heap*)
                0x08010d3c                operator delete[](void*)
                0x08010d54                operator delete[](void*, memory_heap*)
 .text          0x08010d70      0x348 build/obj/main.o
                0x08010d70                usb_lld_disconnect_bus(USBDriver*)
                0x08010da4                usb_lld_connect_bus(USBDriver*)
                0x08010ddc                test_pub_node(void*)
                0x08010ebc                main
 *fill*         0x080110b8        0x8 
 .text          0x080110c0      0x370 /opt/R2P/tools/gcc-arm-none-eabi-4_9-2014q4/bin/../lib/gcc/arm-none-eabi/4.9.3/armv7e-m/libgcc.a(_arm_addsubdf3.o)
                0x080110c0                __aeabi_drsub
                0x080110c8                __aeabi_dsub
                0x080110c8                __subdf3
                0x080110cc                __adddf3
                0x080110cc                __aeabi_dadd
                0x08011344                __aeabi_ui2d
                0x08011344                __floatunsidf
                0x08011364                __floatsidf
                0x08011364                __aeabi_i2d
                0x08011388                __extendsfdf2
                0x08011388                __aeabi_f2d
                0x080113c4                __aeabi_ul2d
                0x080113c4                __floatundidf
                0x080113d4                __floatdidf
                0x080113d4                __aeabi_l2d
 .text          0x08011430      0x424 /opt/R2P/tools/gcc-arm-none-eabi-4_9-2014q4/bin/../lib/gcc/arm-none-eabi/4.9.3/armv7e-m/libgcc.a(_arm_muldivdf3.o)
                0x08011430                __aeabi_dmul
                0x08011430                __muldf3
                0x08011684                __aeabi_ddiv
                0x08011684                __divdf3
 *fill*         0x08011854        0xc 
 .text          0x08011860       0x50 /opt/R2P/tools/gcc-arm-none-eabi-4_9-2014q4/bin/../lib/gcc/arm-none-eabi/4.9.3/armv7e-m/libgcc.a(_arm_fixdfsi.o)
                0x08011860                __fixdfsi
                0x08011860                __aeabi_d2iz
 .text          0x080118b0       0xa0 /opt/R2P/tools/gcc-arm-none-eabi-4_9-2014q4/bin/../lib/gcc/arm-none-eabi/4.9.3/armv7e-m/libgcc.a(_arm_truncdfsf2.o)
                0x080118b0                __aeabi_d2f
                0x080118b0                __truncdfsf2
 .text          0x08011950       0xec /opt/R2P/tools/gcc-arm-none-eabi-4_9-2014q4/bin/../lib/gcc/arm-none-eabi/4.9.3/armv7e-m/libgcc.a(_arm_cmpsf2.o)
                0x08011950                __gtsf2
                0x08011950                __gesf2
                0x08011958                __lesf2
                0x08011958                __ltsf2
                0x08011960                __nesf2
                0x08011960                __eqsf2
                0x08011960                __cmpsf2
                0x080119c0                __aeabi_cfrcmple
                0x080119c8                __aeabi_cfcmple
                0x080119c8                __aeabi_cfcmpeq
                0x080119d8                __aeabi_fcmpeq
                0x080119ec                __aeabi_fcmplt
                0x08011a00                __aeabi_fcmple
                0x08011a14                __aeabi_fcmpge
                0x08011a28                __aeabi_fcmpgt
 *fill*         0x08011a3c        0x4 
 .text          0x08011a40        0x0 /opt/R2P/tools/gcc-arm-none-eabi-4_9-2014q4/bin/../lib/gcc/arm-none-eabi/4.9.3/../../../../arm-none-eabi/lib/armv7e-m/libg.a(lib_a-aeabi_atexit.o)
 .text          0x08011a40        0x0 /opt/R2P/tools/gcc-arm-none-eabi-4_9-2014q4/bin/../lib/gcc/arm-none-eabi/4.9.3/../../../../arm-none-eabi/lib/armv7e-m/libg.a(lib_a-cxa_atexit.o)
 .text          0x08011a40      0x134 /opt/R2P/tools/gcc-arm-none-eabi-4_9-2014q4/bin/../lib/gcc/arm-none-eabi/4.9.3/../../../../arm-none-eabi/lib/armv7e-m/libg.a(lib_a-memcpy.o)
                0x08011a40                memcpy
 *fill*         0x08011b74        0xc 
 .text          0x08011b80        0x0 /opt/R2P/tools/gcc-arm-none-eabi-4_9-2014q4/bin/../lib/gcc/arm-none-eabi/4.9.3/../../../../arm-none-eabi/lib/armv7e-m/libg.a(lib_a-memset.o)
 .text          0x08011b80        0x0 /opt/R2P/tools/gcc-arm-none-eabi-4_9-2014q4/bin/../lib/gcc/arm-none-eabi/4.9.3/../../../../arm-none-eabi/lib/armv7e-m/libg.a(lib_a-sprintf.o)
 .text          0x08011b80        0x0 /opt/R2P/tools/gcc-arm-none-eabi-4_9-2014q4/bin/../lib/gcc/arm-none-eabi/4.9.3/../../../../arm-none-eabi/lib/armv7e-m/libg.a(lib_a-strcasecmp.o)
 .text          0x08011b80        0x0 /opt/R2P/tools/gcc-arm-none-eabi-4_9-2014q4/bin/../lib/gcc/arm-none-eabi/4.9.3/../../../../arm-none-eabi/lib/armv7e-m/libg.a(lib_a-strncmp.o)
 .text          0x08011b80        0x0 /opt/R2P/tools/gcc-arm-none-eabi-4_9-2014q4/bin/../lib/gcc/arm-none-eabi/4.9.3/../../../../arm-none-eabi/lib/armv7e-m/libg.a(lib_a-strncpy.o)
 .text          0x08011b80        0x0 /opt/R2P/tools/gcc-arm-none-eabi-4_9-2014q4/bin/../lib/gcc/arm-none-eabi/4.9.3/../../../../arm-none-eabi/lib/armv7e-m/libg.a(lib_a-strnlen.o)
 .text          0x08011b80        0x0 /opt/R2P/tools/gcc-arm-none-eabi-4_9-2014q4/bin/../lib/gcc/arm-none-eabi/4.9.3/../../../../arm-none-eabi/lib/armv7e-m/libg.a(lib_a-strpbrk.o)
 .text          0x08011b80        0x0 /opt/R2P/tools/gcc-arm-none-eabi-4_9-2014q4/bin/../lib/gcc/arm-none-eabi/4.9.3/../../../../arm-none-eabi/lib/armv7e-m/libg.a(lib_a-strspn.o)
 .text          0x08011b80        0x0 /opt/R2P/tools/gcc-arm-none-eabi-4_9-2014q4/bin/../lib/gcc/arm-none-eabi/4.9.3/../../../../arm-none-eabi/lib/armv7e-m/libg.a(lib_a-svfprintf.o)
 .text          0x08011b80        0x0 /opt/R2P/tools/gcc-arm-none-eabi-4_9-2014q4/bin/../lib/gcc/arm-none-eabi/4.9.3/../../../../arm-none-eabi/lib/armv7e-m/libg.a(lib_a-__atexit.o)
 .text          0x08011b80        0x0 /opt/R2P/tools/gcc-arm-none-eabi-4_9-2014q4/bin/../lib/gcc/arm-none-eabi/4.9.3/../../../../arm-none-eabi/lib/armv7e-m/libg.a(lib_a-ctype_.o)
 .text          0x08011b80        0x0 /opt/R2P/tools/gcc-arm-none-eabi-4_9-2014q4/bin/../lib/gcc/arm-none-eabi/4.9.3/../../../../arm-none-eabi/lib/armv7e-m/libg.a(lib_a-dtoa.o)
 .text          0x08011b80        0x0 /opt/R2P/tools/gcc-arm-none-eabi-4_9-2014q4/bin/../lib/gcc/arm-none-eabi/4.9.3/../../../../arm-none-eabi/lib/armv7e-m/libg.a(lib_a-impure.o)
 .text          0x08011b80        0x0 /opt/R2P/tools/gcc-arm-none-eabi-4_9-2014q4/bin/../lib/gcc/arm-none-eabi/4.9.3/../../../../arm-none-eabi/lib/armv7e-m/libg.a(lib_a-locale.o)
 .text          0x08011b80        0x0 /opt/R2P/tools/gcc-arm-none-eabi-4_9-2014q4/bin/../lib/gcc/arm-none-eabi/4.9.3/../../../../arm-none-eabi/lib/armv7e-m/libg.a(lib_a-mallocr.o)
 .text          0x08011b80        0x0 /opt/R2P/tools/gcc-arm-none-eabi-4_9-2014q4/bin/../lib/gcc/arm-none-eabi/4.9.3/../../../../arm-none-eabi/lib/armv7e-m/libg.a(lib_a-memchr.o)
 .text          0x08011b80        0x0 /opt/R2P/tools/gcc-arm-none-eabi-4_9-2014q4/bin/../lib/gcc/arm-none-eabi/4.9.3/../../../../arm-none-eabi/lib/armv7e-m/libg.a(lib_a-mlock.o)
 .text          0x08011b80        0x0 /opt/R2P/tools/gcc-arm-none-eabi-4_9-2014q4/bin/../lib/gcc/arm-none-eabi/4.9.3/../../../../arm-none-eabi/lib/armv7e-m/libg.a(lib_a-mprec.o)
 .text          0x08011b80        0x0 /opt/R2P/tools/gcc-arm-none-eabi-4_9-2014q4/bin/../lib/gcc/arm-none-eabi/4.9.3/../../../../arm-none-eabi/lib/armv7e-m/libg.a(lib_a-s_fpclassify.o)
 .text          0x08011b80      0x2e0 /opt/R2P/tools/gcc-arm-none-eabi-4_9-2014q4/bin/../lib/gcc/arm-none-eabi/4.9.3/../../../../arm-none-eabi/lib/armv7e-m/libg.a(lib_a-strcmp.o)
                0x08011b88                strcmp
 .text          0x08011e60        0x0 /opt/R2P/tools/gcc-arm-none-eabi-4_9-2014q4/bin/../lib/gcc/arm-none-eabi/4.9.3/../../../../arm-none-eabi/lib/armv7e-m/libg.a(lib_a-strlen.o)
 .text          0x08011e60        0x0 /opt/R2P/tools/gcc-arm-none-eabi-4_9-2014q4/bin/../lib/gcc/arm-none-eabi/4.9.3/../../../../arm-none-eabi/lib/armv7e-m/libg.a(lib_a-svfiprintf.o)
 .text          0x08011e60        0x0 /opt/R2P/tools/gcc-arm-none-eabi-4_9-2014q4/bin/../lib/gcc/arm-none-eabi/4.9.3/../../../../arm-none-eabi/lib/armv7e-m/libg.a(lib_a-callocr.o)
 .text          0x08011e60        0x0 /opt/R2P/tools/gcc-arm-none-eabi-4_9-2014q4/bin/../lib/gcc/arm-none-eabi/4.9.3/../../../../arm-none-eabi/lib/armv7e-m/libg.a(lib_a-freer.o)
 .text          0x08011e60        0x0 /opt/R2P/tools/gcc-arm-none-eabi-4_9-2014q4/bin/../lib/gcc/arm-none-eabi/4.9.3/../../../../arm-none-eabi/lib/armv7e-m/libg.a(lib_a-memmove.o)
 .text          0x08011e60        0x0 /opt/R2P/tools/gcc-arm-none-eabi-4_9-2014q4/bin/../lib/gcc/arm-none-eabi/4.9.3/../../../../arm-none-eabi/lib/armv7e-m/libg.a(lib_a-reallocr.o)
 .text          0x08011e60      0x110 /opt/R2P/tools/gcc-arm-none-eabi-4_9-2014q4/bin/../lib/gcc/arm-none-eabi/4.9.3/armv7e-m/libgcc.a(_arm_cmpdf2.o)
                0x08011e60                __gtdf2
                0x08011e60                __gedf2
                0x08011e68                __ltdf2
                0x08011e68                __ledf2
                0x08011e70                __cmpdf2
                0x08011e70                __eqdf2
                0x08011e70                __nedf2
                0x08011eec                __aeabi_cdrcmple
                0x08011efc                __aeabi_cdcmple
                0x08011efc                __aeabi_cdcmpeq
                0x08011f0c                __aeabi_dcmpeq
                0x08011f20                __aeabi_dcmplt
                0x08011f34                __aeabi_dcmple
                0x08011f48                __aeabi_dcmpge
                0x08011f5c                __aeabi_dcmpgt
 .text          0x08011f70       0x2c /opt/R2P/tools/gcc-arm-none-eabi-4_9-2014q4/bin/../lib/gcc/arm-none-eabi/4.9.3/armv7e-m/libgcc.a(_aeabi_uldivmod.o)
                0x08011f70                __aeabi_uldivmod
 *fill*         0x08011f9c        0x4 
 .text          0x08011fa0       0x60 /opt/R2P/tools/gcc-arm-none-eabi-4_9-2014q4/bin/../lib/gcc/arm-none-eabi/4.9.3/armv7e-m/libgcc.a(bpabi.o)
                0x08011fa0                __gnu_ldivmod_helper
                0x08011fd0                __gnu_uldivmod_helper
 .text          0x08012000        0x4 /opt/R2P/tools/gcc-arm-none-eabi-4_9-2014q4/bin/../lib/gcc/arm-none-eabi/4.9.3/armv7e-m/libgcc.a(_dvmd_tls.o)
                0x08012000                __aeabi_ldiv0
                0x08012000                __aeabi_idiv0
 *fill*         0x08012004        0xc 
 .text          0x08012010      0x29c /opt/R2P/tools/gcc-arm-none-eabi-4_9-2014q4/bin/../lib/gcc/arm-none-eabi/4.9.3/armv7e-m/libgcc.a(_divdi3.o)
                0x08012010                __divdi3
 *fill*         0x080122ac        0x4 
 .text          0x080122b0      0x26c /opt/R2P/tools/gcc-arm-none-eabi-4_9-2014q4/bin/../lib/gcc/arm-none-eabi/4.9.3/armv7e-m/libgcc.a(_udivdi3.o)
                0x080122b0                __udivdi3
 *(.text.*)
 *fill*         0x0801251c        0x4 
 .text._ZN3r2p10UncopyableC2Ev
                0x08012520        0xc build/obj/SimplePool_.o
                0x08012520                r2p::Uncopyable::Uncopyable()
                0x08012520                r2p::Uncopyable::Uncopyable()
 *fill*         0x0801252c        0x4 
 .text._ZN3r2p8SysLock_7acquireEv
                0x08012530       0x10 build/obj/SimplePool_.o
                0x08012530                r2p::SysLock_::acquire()
 .text._ZN3r2p8SysLock_7releaseEv
                0x08012540       0x10 build/obj/SimplePool_.o
                0x08012540                r2p::SysLock_::release()
 .text._ZN3r2p7SysLock7acquireEv
                0x08012550        0x8 build/obj/SimplePool_.o
                0x08012550                r2p::SysLock::acquire()
 *fill*         0x08012558        0x8 
 .text._ZN3r2p7SysLock7releaseEv
                0x08012560        0x8 build/obj/SimplePool_.o
                0x08012560                r2p::SysLock::release()
 *fill*         0x08012568        0x8 
 .text._ZNK3r2p11StaticList_15get_head_unsafeEv
                0x08012570       0x10 build/obj/StaticList_.o
                0x08012570                r2p::StaticList_::get_head_unsafe() const
 .text._ZNK3r2p11StaticList_15is_empty_unsafeEv
                0x08012580       0x18 build/obj/StaticList_.o
                0x08012580                r2p::StaticList_::is_empty_unsafe() const
 *fill*         0x08012598        0x8 
 .text._ZN3r2p11StaticList_11link_unsafeERNS0_4LinkE
                0x080125a0       0x48 build/obj/StaticList_.o
                0x080125a0                r2p::StaticList_::link_unsafe(r2p::StaticList_::Link&)
 *fill*         0x080125e8        0x8 
 .text._ZNK3r2p12StaticQueue_15is_empty_unsafeEv
                0x080125f0       0x18 build/obj/StaticQueue_.o
                0x080125f0                r2p::StaticQueue_::is_empty_unsafe() const
 *fill*         0x08012608        0x8 
 .text._ZN3r2p10UncopyableD2Ev
                0x08012610        0xc build/obj/BasePublisher.o
                0x08012610                r2p::Uncopyable::~Uncopyable()
                0x08012610                r2p::Uncopyable::~Uncopyable()
 *fill*         0x0801261c        0x4 
 .text._ZN3r2p7Message14acquire_unsafeEv
                0x08012620       0x3c build/obj/BasePublisher.o
                0x08012620                r2p::Message::acquire_unsafe()
 *fill*         0x0801265c        0x4 
 .text._ZN3r2p7Message14release_unsafeEv
                0x08012660       0x40 build/obj/BasePublisher.o
                0x08012660                r2p::Message::release_unsafe()
 .text._ZN3r2p11MemoryPool_11free_unsafeEPv
                0x080126a0       0x20 build/obj/BasePublisher.o
                0x080126a0                r2p::MemoryPool_::free_unsafe(void*)
 .text._ZN3r2p11MemoryPool_4freeEPv
                0x080126c0       0x20 build/obj/BasePublisher.o
                0x080126c0                r2p::MemoryPool_::free(void*)
 .text._ZN3r2p5Topic11free_unsafeERNS_7MessageE
                0x080126e0       0x1c build/obj/BasePublisher.o
                0x080126e0                r2p::Topic::free_unsafe(r2p::Message&)
 *fill*         0x080126fc        0x4 
 .text._ZN3r2p5Topic4freeERNS_7MessageE
                0x08012700       0x1c build/obj/BasePublisher.o
                0x08012700                r2p::Topic::free(r2p::Message&)
 *fill*         0x0801271c        0x4 
 .text._ZNK3r2p5Topic8get_nameEv
                0x08012720       0x10 build/obj/BaseSubscriber.o
                0x08012720                r2p::Topic::get_name() const
 .text._ZN3r2p5Topic8has_nameERKS0_PKc
                0x08012730       0x34 build/obj/BaseSubscriber.o
                0x08012730                r2p::Topic::has_name(r2p::Topic const&, char const*)
 *fill*         0x08012764        0xc 
 .text._ZN3r2p11StaticQueueINS_14BaseSubscriberEEC2Ev
                0x08012770       0x20 build/obj/BaseSubscriberQueue.o
                0x08012770                r2p::StaticQueue<r2p::BaseSubscriber>::StaticQueue()
                0x08012770                r2p::StaticQueue<r2p::BaseSubscriber>::StaticQueue()
 .text._ZN3r2p11Checksummer3addEh
                0x08012790       0x20 build/obj/Checksummer.o
                0x08012790                r2p::Checksummer::add(unsigned char)
 .text._ZN3r2p10StaticListINS_14LocalPublisherEE4LinkC2ERS1_
                0x080127b0       0x1c build/obj/LocalPublisher.o
                0x080127b0                r2p::StaticList<r2p::LocalPublisher>::Link::Link(r2p::LocalPublisher&)
                0x080127b0                r2p::StaticList<r2p::LocalPublisher>::Link::Link(r2p::LocalPublisher&)
 *fill*         0x080127cc        0x4 
 .text._ZN3r2p4TimeaSERKS0_
                0x080127d0       0x18 build/obj/LocalSubscriber.o
                0x080127d0                r2p::Time::operator=(r2p::Time const&)
 *fill*         0x080127e8        0x8 
 .text._ZNK3r2p10SpinEvent_10get_threadEv
                0x080127f0       0x10 build/obj/LocalSubscriber.o
                0x080127f0                r2p::SpinEvent_::get_thread() const
 .text._ZN3r2p10SpinEvent_13signal_unsafeEj
                0x08012800       0x3c build/obj/LocalSubscriber.o
                0x08012800                r2p::SpinEvent_::signal_unsafe(unsigned int)
 *fill*         0x0801283c        0x4 
 .text._ZNK3r2p9SpinEvent10get_threadEv
                0x08012840       0x18 build/obj/LocalSubscriber.o
                0x08012840                r2p::SpinEvent::get_thread() const
 *fill*         0x08012858        0x8 
 .text._ZN3r2p9SpinEvent13signal_unsafeEj
                0x08012860       0x18 build/obj/LocalSubscriber.o
                0x08012860                r2p::SpinEvent::signal_unsafe(unsigned int)
 *fill*         0x08012878        0x8 
 .text._ZNK3r2p4Node11get_enabledEv
                0x08012880       0x24 build/obj/LocalSubscriber.o
                0x08012880                r2p::Node::get_enabled() const
 *fill*         0x080128a4        0xc 
 .text._ZN3r2p4Node13notify_unsafeEj
                0x080128b0       0x1c build/obj/LocalSubscriber.o
                0x080128b0                r2p::Node::notify_unsafe(unsigned int)
 *fill*         0x080128cc        0x4 
 .text._ZNK3r2p15LocalSubscriber16get_queue_lengthEv
                0x080128d0       0x1c build/obj/LocalSubscriber.o
                0x080128d0                r2p::LocalSubscriber::get_queue_length() const
 *fill*         0x080128ec        0x4 
 .text._ZN3r2p15LocalSubscriber12fetch_unsafeERPNS_7MessageERNS_4TimeE
                0x080128f0       0x3c build/obj/LocalSubscriber.o
                0x080128f0                r2p::LocalSubscriber::fetch_unsafe(r2p::Message*&, r2p::Time&)
 *fill*         0x0801292c        0x4 
 .text._ZN3r2p15LocalSubscriber13notify_unsafeERNS_7MessageERKNS_4TimeE
                0x08012930       0x58 build/obj/LocalSubscriber.o
                0x08012930                r2p::LocalSubscriber::notify_unsafe(r2p::Message&, r2p::Time const&)
 *fill*         0x08012988        0x8 
 .text._ZN3r2p10ArrayQueueIPNS_7MessageEED2Ev
                0x08012990       0x18 build/obj/LocalSubscriber.o
                0x08012990                r2p::ArrayQueue<r2p::Message*>::~ArrayQueue()
                0x08012990                r2p::ArrayQueue<r2p::Message*>::~ArrayQueue()
 *fill*         0x080129a8        0x8 
 .text._ZN3r2p15MessagePtrQueueD2Ev
                0x080129b0       0x18 build/obj/LocalSubscriber.o
                0x080129b0                r2p::MessagePtrQueue::~MessagePtrQueue()
                0x080129b0                r2p::MessagePtrQueue::~MessagePtrQueue()
 *fill*         0x080129c8        0x8 
 .text._ZNK3r2p10ArrayQueueIPNS_7MessageEE10get_lengthEv
                0x080129d0       0x10 build/obj/LocalSubscriber.o
                0x080129d0                r2p::ArrayQueue<r2p::Message*>::get_length() const
 .text._ZN3r2p10ArrayQueueIPNS_7MessageEE12fetch_unsafeERS2_
                0x080129e0       0x60 build/obj/LocalSubscriber.o
                0x080129e0                r2p::ArrayQueue<r2p::Message*>::fetch_unsafe(r2p::Message*&)
 .text._ZN3r2p10ArrayQueueIPNS_7MessageEE11post_unsafeES2_
                0x08012a40       0x60 build/obj/LocalSubscriber.o
                0x08012a40                r2p::ArrayQueue<r2p::Message*>::post_unsafe(r2p::Message*)
 .text._ZN3r2p10StaticListINS_15LocalSubscriberEE4LinkC2ERS1_
                0x08012aa0       0x1c build/obj/LocalSubscriber.o
                0x08012aa0                r2p::StaticList<r2p::LocalSubscriber>::Link::Link(r2p::LocalSubscriber&)
                0x08012aa0                r2p::StaticList<r2p::LocalSubscriber>::Link::Link(r2p::LocalSubscriber&)
 *fill*         0x08012abc        0x4 
 .text._ZN3r2p10ArrayQueueIPNS_7MessageEEC2EPS2_j
                0x08012ac0       0x54 build/obj/MessagePtrQueue.o
                0x08012ac0                r2p::ArrayQueue<r2p::Message*>::ArrayQueue(r2p::Message**, unsigned int)
                0x08012ac0                r2p::ArrayQueue<r2p::Message*>::ArrayQueue(r2p::Message**, unsigned int)
 *fill*         0x08012b14        0xc 
 .text._ZN3r2p7Message12reset_unsafeEv
                0x08012b20       0x14 build/obj/Message.o
                0x08012b20                r2p::Message::reset_unsafe()
 *fill*         0x08012b34        0xc 
 .text._ZN3r2p7SysLock5ScopeC2Ev
                0x08012b40       0x1c build/obj/Middleware.o
                0x08012b40                r2p::SysLock::Scope::Scope()
                0x08012b40                r2p::SysLock::Scope::Scope()
 *fill*         0x08012b5c        0x4 
 .text._ZN3r2p7SysLock5ScopeD2Ev
                0x08012b60       0x1c build/obj/Middleware.o
                0x08012b60                r2p::SysLock::Scope::~Scope()
                0x08012b60                r2p::SysLock::Scope::~Scope()
 *fill*         0x08012b7c        0x4 
 .text._ZNK3r2p11MemoryPool_13get_item_sizeEv
                0x08012b80       0x10 build/obj/Middleware.o
                0x08012b80                r2p::MemoryPool_::get_item_size() const
 .text._ZN3r2p11MemoryPool_12alloc_unsafeEv
                0x08012b90       0x18 build/obj/Middleware.o
                0x08012b90                r2p::MemoryPool_::alloc_unsafe()
 *fill*         0x08012ba8        0x8 
 .text._ZN3r2p11MemoryPool_6extendEPvj
                0x08012bb0       0x1c build/obj/Middleware.o
                0x08012bb0                r2p::MemoryPool_::extend(void*, unsigned int)
 *fill*         0x08012bcc        0x4 
 .text._ZNK3r2p4Time8to_s_rawEv
                0x08012bd0       0x20 build/obj/Middleware.o
                0x08012bd0                r2p::Time::to_s_raw() const
 .text._ZN3r2p4TimeC2Ev
                0x08012bf0       0x14 build/obj/Middleware.o
                0x08012bf0                r2p::Time::Time()
                0x08012bf0                r2p::Time::Time()
 *fill*         0x08012c04        0xc 
 .text._ZN3r2p4TimeC2ERKS0_
                0x08012c10       0x18 build/obj/Middleware.o
                0x08012c10                r2p::Time::Time(r2p::Time const&)
                0x08012c10                r2p::Time::Time(r2p::Time const&)
 *fill*         0x08012c28        0x8 
 .text._ZN3r2p4Time2msEl
                0x08012c30       0x24 build/obj/Middleware.o
                0x08012c30                r2p::Time::ms(long)
 *fill*         0x08012c54        0xc 
 .text._ZN3r2pgeERKNS_4TimeES2_
                0x08012c60       0x20 build/obj/Middleware.o
                0x08012c60                r2p::operator>=(r2p::Time const&, r2p::Time const&)
 .text._ZN3r2pplERKNS_4TimeES2_
                0x08012c80       0x24 build/obj/Middleware.o
                0x08012c80                r2p::operator+(r2p::Time const&, r2p::Time const&)
 *fill*         0x08012ca4        0xc 
 .text._ZN3r2pmiERKNS_4TimeES2_
                0x08012cb0       0x24 build/obj/Middleware.o
                0x08012cb0                r2p::operator-(r2p::Time const&, r2p::Time const&)
 *fill*         0x08012cd4        0xc 
 .text._ZN3r2p7MessageC2Ev
                0x08012ce0       0x18 build/obj/Middleware.o
                0x08012ce0                r2p::Message::Message()
                0x08012ce0                r2p::Message::Message()
 *fill*         0x08012cf8        0x8 
 .text._ZN3r2p7Message16get_payload_sizeEj
                0x08012d00       0x10 build/obj/Middleware.o
                0x08012d00                r2p::Message::get_payload_size(unsigned int)
 .text._ZNK3r2p13BasePublisher9get_topicEv
                0x08012d10       0x10 build/obj/Middleware.o
                0x08012d10                r2p::BasePublisher::get_topic() const
 .text._ZN3r2p13BasePublisher17notify_advertisedERNS_5TopicE
                0x08012d20       0x28 build/obj/Middleware.o
                0x08012d20                r2p::BasePublisher::notify_advertised(r2p::Topic&)
 *fill*         0x08012d48        0x8 
 .text._ZN3r2p13BasePublisher12alloc_unsafeERPNS_7MessageE
                0x08012d50       0x40 build/obj/Middleware.o
                0x08012d50                r2p::BasePublisher::alloc_unsafe(r2p::Message*&)
 .text._ZN3r2p13BasePublisher5allocERPNS_7MessageE
                0x08012d90       0x2c build/obj/Middleware.o
                0x08012d90                r2p::BasePublisher::alloc(r2p::Message*&)
 *fill*         0x08012dbc        0x4 
 .text._ZN3r2p13BasePublisher16publish_remotelyERNS_7MessageE
                0x08012dc0       0x3c build/obj/Middleware.o
                0x08012dc0                r2p::BasePublisher::publish_remotely(r2p::Message&)
 *fill*         0x08012dfc        0x4 
 .text._ZNK3r2p14BaseSubscriber9get_topicEv
                0x08012e00       0x10 build/obj/Middleware.o
                0x08012e00                r2p::BaseSubscriber::get_topic() const
 .text._ZN3r2p14BaseSubscriber17notify_subscribedERNS_5TopicE
                0x08012e10       0x28 build/obj/Middleware.o
                0x08012e10                r2p::BaseSubscriber::notify_subscribed(r2p::Topic&)
 *fill*         0x08012e38        0x8 
 .text._ZN3r2p7Thread_13create_staticEPvjmPFlS1_ES1_PKc
                0x08012e40       0x34 build/obj/Middleware.o
                0x08012e40                r2p::Thread_::create_static(void*, unsigned int, unsigned long, long (*)(void*), void*, char const*)
 *fill*         0x08012e74        0xc 
 .text._ZN3r2p7Thread_4selfEv
                0x08012e80        0xc build/obj/Middleware.o
                0x08012e80                r2p::Thread_::self()
 *fill*         0x08012e8c        0x4 
 .text._ZN3r2p7Thread_5sleepERKNS_4TimeE
                0x08012e90       0x64 build/obj/Middleware.o
                0x08012e90                r2p::Thread_::sleep(r2p::Time const&)
 *fill*         0x08012ef4        0xc 
 .text._ZN3r2p6Thread13create_staticEPvjmPFlS1_ES1_PKc
                0x08012f00       0x2c build/obj/Middleware.o
                0x08012f00                r2p::Thread::create_static(void*, unsigned int, unsigned long, long (*)(void*), void*, char const*)
 *fill*         0x08012f2c        0x4 
 .text._ZN3r2p6Thread4selfEv
                0x08012f30        0xc build/obj/Middleware.o
                0x08012f30                r2p::Thread::self()
 *fill*         0x08012f3c        0x4 
 .text._ZN3r2p6Thread5sleepERKNS_4TimeE
                0x08012f40       0x14 build/obj/Middleware.o
                0x08012f40                r2p::Thread::sleep(r2p::Time const&)
 *fill*         0x08012f54        0xc 
 .text._ZN3r2p10SpinEvent_10set_threadEPNS_6ThreadE
                0x08012f60       0x10 build/obj/Middleware.o
                0x08012f60                r2p::SpinEvent_::set_thread(r2p::Thread*)
 .text._ZN3r2p10SpinEvent_6signalEj
                0x08012f70       0x2c build/obj/Middleware.o
                0x08012f70                r2p::SpinEvent_::signal(unsigned int)
 *fill*         0x08012f9c        0x4 
 .text._ZN3r2p9SpinEvent10set_threadEPNS_6ThreadE
                0x08012fa0       0x18 build/obj/Middleware.o
                0x08012fa0                r2p::SpinEvent::set_thread(r2p::Thread*)
 *fill*         0x08012fb8        0x8 
 .text._ZN3r2p9SpinEvent6signalEj
                0x08012fc0       0x18 build/obj/Middleware.o
                0x08012fc0                r2p::SpinEvent::signal(unsigned int)
 *fill*         0x08012fd8        0x8 
 .text._ZNK3r2p4Node8get_nameEv
                0x08012fe0       0x10 build/obj/Middleware.o
                0x08012fe0                r2p::Node::get_name() const
 .text._ZNK3r2p4Node14get_publishersEv
                0x08012ff0       0x10 build/obj/Middleware.o
                0x08012ff0                r2p::Node::get_publishers() const
 .text._ZNK3r2p4Node15get_subscribersEv
                0x08013000       0x10 build/obj/Middleware.o
                0x08013000                r2p::Node::get_subscribers() const
 .text._ZN3r2p4Node11set_enabledEb
                0x08013010       0x30 build/obj/Middleware.o
                0x08013010                r2p::Node::set_enabled(bool)
 .text._ZN3r2p4Node11notify_stopEv
                0x08013040       0x18 build/obj/Middleware.o
                0x08013040                r2p::Node::notify_stop()
 *fill*         0x08013058        0x8 
 .text._ZN3r2p4Node8has_nameERKS0_PKc
                0x08013060       0x34 build/obj/Middleware.o
                0x08013060                r2p::Node::has_name(r2p::Node const&, char const*)
 *fill*         0x08013094        0xc 
 .text._ZNK3r2p5Topic16get_payload_sizeEv
                0x080130a0       0x24 build/obj/Middleware.o
                0x080130a0                r2p::Topic::get_payload_size() const
 *fill*         0x080130c4        0xc 
 .text._ZNK3r2p5Topic20get_max_queue_lengthEv
                0x080130d0       0x10 build/obj/Middleware.o
                0x080130d0                r2p::Topic::get_max_queue_length() const
 .text._ZNK3r2p5Topic20has_local_publishersEv
                0x080130e0       0x18 build/obj/Middleware.o
                0x080130e0                r2p::Topic::has_local_publishers() const
 *fill*         0x080130f8        0x8 
 .text._ZNK3r2p5Topic21has_local_subscribersEv
                0x08013100       0x20 build/obj/Middleware.o
                0x08013100                r2p::Topic::has_local_subscribers() const
 .text._ZNK3r2p5Topic23compute_deadline_unsafeERKNS_4TimeE
                0x08013120       0x24 build/obj/Middleware.o
                0x08013120                r2p::Topic::compute_deadline_unsafe(r2p::Time const&) const
 *fill*         0x08013144        0xc 
 .text._ZN3r2p5Topic12alloc_unsafeEv
                0x08013150       0x28 build/obj/Middleware.o
                0x08013150                r2p::Topic::alloc_unsafe()
 *fill*         0x08013178        0x8 
 .text._ZNK3r2p5Topic16compute_deadlineERKNS_4TimeE
                0x08013180       0x34 build/obj/Middleware.o
                0x08013180                r2p::Topic::compute_deadline(r2p::Time const&) const
 *fill*         0x080131b4        0xc 
 .text._ZNK3r2p5Topic16compute_deadlineEv
                0x080131c0       0x28 build/obj/Middleware.o
                0x080131c0                r2p::Topic::compute_deadline() const
 *fill*         0x080131e8        0x8 
 .text._ZN3r2p5Topic11extend_poolEPNS_7MessageEj
                0x080131f0       0x20 build/obj/Middleware.o
                0x080131f0                r2p::Topic::extend_pool(r2p::Message*, unsigned int)
 .text._ZN3r2p8Flasher_D2Ev
                0x08013210       0x18 build/obj/Middleware.o
                0x08013210                r2p::Flasher_::~Flasher_()
                0x08013210                r2p::Flasher_::~Flasher_()
 *fill*         0x08013228        0x8 
 .text._ZN3r2p6Mutex_10initializeEv
                0x08013230       0x14 build/obj/Middleware.o
                0x08013230                r2p::Mutex_::initialize()
 *fill*         0x08013244        0xc 
 .text._ZN3r2p6Mutex_14acquire_unsafeEv
                0x08013250       0x14 build/obj/Middleware.o
                0x08013250                r2p::Mutex_::acquire_unsafe()
 *fill*         0x08013264        0xc 
 .text._ZN3r2p6Mutex_14release_unsafeEv
                0x08013270       0x10 build/obj/Middleware.o
                0x08013270                r2p::Mutex_::release_unsafe()
 .text._ZN3r2p6Mutex_C2Eb
                0x08013280       0x2c build/obj/Middleware.o
                0x08013280                r2p::Mutex_::Mutex_(bool)
                0x08013280                r2p::Mutex_::Mutex_(bool)
 *fill*         0x080132ac        0x4 
 .text._ZN3r2p5Mutex10initializeEv
                0x080132b0       0x18 build/obj/Middleware.o
                0x080132b0                r2p::Mutex::initialize()
 *fill*         0x080132c8        0x8 
 .text._ZN3r2p5Mutex14acquire_unsafeEv
                0x080132d0       0x18 build/obj/Middleware.o
                0x080132d0                r2p::Mutex::acquire_unsafe()
 *fill*         0x080132e8        0x8 
 .text._ZN3r2p5Mutex14release_unsafeEv
                0x080132f0       0x18 build/obj/Middleware.o
                0x080132f0                r2p::Mutex::release_unsafe()
 *fill*         0x08013308        0x8 
 .text._ZN3r2p5MutexC2Eb
                0x08013310       0x2c build/obj/Middleware.o
                0x08013310                r2p::Mutex::Mutex(bool)
                0x08013310                r2p::Mutex::Mutex(bool)
 *fill*         0x0801333c        0x4 
 .text._ZN3r2p7ReMutex10initializeEv
                0x08013340       0x1c build/obj/Middleware.o
                0x08013340                r2p::ReMutex::initialize()
 *fill*         0x0801335c        0x4 
 .text._ZN3r2p7ReMutex14acquire_unsafeEv
                0x08013360       0x34 build/obj/Middleware.o
                0x08013360                r2p::ReMutex::acquire_unsafe()
 *fill*         0x08013394        0xc 
 .text._ZN3r2p7ReMutex14release_unsafeEv
                0x080133a0       0x44 build/obj/Middleware.o
                0x080133a0                r2p::ReMutex::release_unsafe()
 *fill*         0x080133e4        0xc 
 .text._ZN3r2p7ReMutex7acquireEv
                0x080133f0       0x1c build/obj/Middleware.o
                0x080133f0                r2p::ReMutex::acquire()
 *fill*         0x0801340c        0x4 
 .text._ZN3r2p7ReMutex7releaseEv
                0x08013410       0x1c build/obj/Middleware.o
                0x08013410                r2p::ReMutex::release()
 *fill*         0x0801342c        0x4 
 .text._ZN3r2p7ReMutexC2Eb
                0x08013430       0x34 build/obj/Middleware.o
                0x08013430                r2p::ReMutex::ReMutex(bool)
                0x08013430                r2p::ReMutex::ReMutex(bool)
 *fill*         0x08013464        0xc 
 .text._ZNK3r2p10Middleware10is_stoppedEv
                0x08013470       0x10 build/obj/Middleware.o
                0x08013470                r2p::Middleware::is_stopped() const
 .text._ZN3r2p10Middleware23preload_bootloader_modeEb
                0x08013480       0x2c build/obj/Middleware.o
                0x08013480                r2p::Middleware::preload_bootloader_mode(bool)
 *fill*         0x080134ac        0x4 
 .text._ZN3r2p10Middleware11is_rebootedEv
                0x080134b0       0x1c build/obj/Middleware.o
                0x080134b0                r2p::Middleware::is_rebooted()
 *fill*         0x080134cc        0x4 
 .text._ZN3r2p10Middleware18is_bootloader_modeEv
                0x080134d0       0x1c build/obj/Middleware.o
                0x080134d0                r2p::Middleware::is_bootloader_mode()
 *fill*         0x080134ec        0x4 
 .text._ZN3r2p7MgmtMsgC2Ev
                0x080134f0       0x18 build/obj/Middleware.o
                0x080134f0                r2p::MgmtMsg::MgmtMsg()
                0x080134f0                r2p::MgmtMsg::MgmtMsg()
 *fill*         0x08013508        0x8 
 .text._ZN3r2p7BootMsgC2Ev
                0x08013510       0x18 build/obj/Middleware.o
                0x08013510                r2p::BootMsg::BootMsg()
                0x08013510                r2p::BootMsg::BootMsg()
 *fill*         0x08013528        0x8 
 .text._ZN3r2p7FlasherD2Ev
                0x08013530       0x20 build/obj/Middleware.o
                0x08013530                r2p::Flasher::~Flasher()
                0x08013530                r2p::Flasher::~Flasher()
 .text._ZN3r2p10BootloaderD2Ev
                0x08013550       0x20 build/obj/Middleware.o
                0x08013550                r2p::Bootloader::~Bootloader()
                0x08013550                r2p::Bootloader::~Bootloader()
 .text._ZN3r2p4TimeC2IlEET_
                0x08013570       0x14 build/obj/Middleware.o
                0x08013570                r2p::Time::Time<long>(long)
                0x08013570                r2p::Time::Time<long>(long)
 *fill*         0x08013584        0xc 
 .text._ZNK3r2p10StaticListINS_15LocalSubscriberEE15is_empty_unsafeEv
                0x08013590       0x18 build/obj/Middleware.o
                0x08013590                r2p::StaticList<r2p::LocalSubscriber>::is_empty_unsafe() const
 *fill*         0x080135a8        0x8 
 .text._ZN3r2p10StaticListINS_5TopicEE4linkERNS2_4LinkE
                0x080135b0       0x20 build/obj/Middleware.o
                0x080135b0                r2p::StaticList<r2p::Topic>::link(r2p::StaticList<r2p::Topic>::Link&)
 .text._ZN3r2p10StaticListINS_4NodeEE5beginEv
                0x080135d0       0x20 build/obj/Middleware.o
                0x080135d0                r2p::StaticList<r2p::Node>::begin()
 .text._ZN3r2p10StaticListINS_4NodeEE3endEv
                0x080135f0       0x18 build/obj/Middleware.o
                0x080135f0                r2p::StaticList<r2p::Node>::end()
 *fill*         0x08013608        0x8 
 .text._ZNK3r2p10StaticListINS_4NodeEE8IteratorneERKS3_
                0x08013610       0x20 build/obj/Middleware.o
                0x08013610                r2p::StaticList<r2p::Node>::Iterator::operator!=(r2p::StaticList<r2p::Node>::Iterator const&) const
 .text._ZN3r2p10StaticListINS_4NodeEE8IteratorppEv
                0x08013630       0x24 build/obj/Middleware.o
                0x08013630                r2p::StaticList<r2p::Node>::Iterator::operator++()
 *fill*         0x08013654        0xc 
 .text._ZNK3r2p10StaticListINS_4NodeEE8IteratorptEv
                0x08013660       0x10 build/obj/Middleware.o
                0x08013660                r2p::StaticList<r2p::Node>::Iterator::operator->() const
 .text._ZN3r2p9PublisherINS_7MgmtMsgEE5allocERPS1_
                0x08013670       0x1c build/obj/Middleware.o
                0x08013670                r2p::Publisher<r2p::MgmtMsg>::alloc(r2p::MgmtMsg*&)
 *fill*         0x0801368c        0x4 
 .text._ZN3r2p10StaticListINS_4NodeEE11link_unsafeERNS2_4LinkE
                0x08013690       0x44 build/obj/Middleware.o
                0x08013690                r2p::StaticList<r2p::Node>::link_unsafe(r2p::StaticList<r2p::Node>::Link&)
 *fill*         0x080136d4        0xc 
 .text._ZN3r2p10StaticListINS_9TransportEE4linkERNS2_4LinkE
                0x080136e0       0x20 build/obj/Middleware.o
                0x080136e0                r2p::StaticList<r2p::Transport>::link(r2p::StaticList<r2p::Transport>::Link&)
 .text._ZN3r2p10StaticListINS_9TransportEE5beginEv
                0x08013700       0x20 build/obj/Middleware.o
                0x08013700                r2p::StaticList<r2p::Transport>::begin()
 .text._ZN3r2p10StaticListINS_9TransportEE3endEv
                0x08013720       0x18 build/obj/Middleware.o
                0x08013720                r2p::StaticList<r2p::Transport>::end()
 *fill*         0x08013738        0x8 
 .text._ZNK3r2p10StaticListINS_9TransportEE8IteratorneERKS3_
                0x08013740       0x20 build/obj/Middleware.o
                0x08013740                r2p::StaticList<r2p::Transport>::Iterator::operator!=(r2p::StaticList<r2p::Transport>::Iterator const&) const
 .text._ZN3r2p10StaticListINS_9TransportEE8IteratorppEv
                0x08013760       0x24 build/obj/Middleware.o
                0x08013760                r2p::StaticList<r2p::Transport>::Iterator::operator++()
 *fill*         0x08013784        0xc 
 .text._ZNK3r2p10StaticListINS_4NodeEE15contains_unsafeERKS1_
                0x08013790       0x30 build/obj/Middleware.o
                0x08013790                r2p::StaticList<r2p::Node>::contains_unsafe(r2p::Node const&) const
 .text._ZN3r2p10StaticListINS_4NodeEE13unlink_unsafeERNS2_4LinkE
                0x080137c0       0x54 build/obj/Middleware.o
                0x080137c0                r2p::StaticList<r2p::Node>::unlink_unsafe(r2p::StaticList<r2p::Node>::Link&)
 *fill*         0x08013814        0xc 
 .text._ZNK3r2p10StaticListINS_5TopicEE10find_firstIPFbRKS1_PKcEcEEPS1_T_PKT0_
                0x08013820       0x20 build/obj/Middleware.o
                0x08013820                r2p::Topic* r2p::StaticList<r2p::Topic>::find_first<bool (*)(r2p::Topic const&, char const*), char>(bool (*)(r2p::Topic const&, char const*), char const*) const
 .text._ZNK3r2p10StaticListINS_4NodeEE10find_firstIPFbRKS1_PKcEcEEPS1_T_PKT0_
                0x08013840       0x20 build/obj/Middleware.o
                0x08013840                r2p::Node* r2p::StaticList<r2p::Node>::find_first<bool (*)(r2p::Node const&, char const*), char>(bool (*)(r2p::Node const&, char const*), char const*) const
 .text._ZN3r2p4Node9advertiseINS_7MgmtMsgEEEbRNS_9PublisherIT_EEPKcRKNS_4TimeE
                0x08013860       0x28 build/obj/Middleware.o
                0x08013860                bool r2p::Node::advertise<r2p::MgmtMsg>(r2p::Publisher<r2p::MgmtMsg>&, char const*, r2p::Time const&)
 *fill*         0x08013888        0x8 
 .text._ZN3r2p4Node9subscribeINS_7MgmtMsgEEEbRNS_16SubscriberExtBufIT_EEPKcPS4_
                0x08013890       0x28 build/obj/Middleware.o
                0x08013890                bool r2p::Node::subscribe<r2p::MgmtMsg>(r2p::SubscriberExtBuf<r2p::MgmtMsg>&, char const*, r2p::MgmtMsg*)
 *fill*         0x080138b8        0x8 
 .text._ZN3r2p7Message13reset_payloadINS_7MgmtMsgEEEvRT_
                0x080138c0       0x20 build/obj/Middleware.o
                0x080138c0                void r2p::Message::reset_payload<r2p::MgmtMsg>(r2p::MgmtMsg&)
 .text._ZN3r2p16SubscriberExtBufINS_7MgmtMsgEE5fetchERPS1_RNS_4TimeE
                0x080138e0       0x20 build/obj/Middleware.o
                0x080138e0                r2p::SubscriberExtBuf<r2p::MgmtMsg>::fetch(r2p::MgmtMsg*&, r2p::Time&)
 .text._ZN3r2p16SubscriberExtBufINS_7MgmtMsgEE7releaseERS1_
                0x08013900       0x20 build/obj/Middleware.o
                0x08013900                r2p::SubscriberExtBuf<r2p::MgmtMsg>::release(r2p::MgmtMsg&)
 .text._ZNK3r2p10StaticListINS_4NodeEE13ConstIterator8is_validEv
                0x08013920       0x18 build/obj/Middleware.o
                0x08013920                r2p::StaticList<r2p::Node>::ConstIterator::is_valid() const
 *fill*         0x08013938        0x8 
 .text._ZNK3r2p10StaticListINS_4NodeEE7restartERNS2_13ConstIteratorE
                0x08013940       0x24 build/obj/Middleware.o
                0x08013940                r2p::StaticList<r2p::Node>::restart(r2p::StaticList<r2p::Node>::ConstIterator&) const
 *fill*         0x08013964        0xc 
 .text._ZNK3r2p10StaticListINS_4NodeEE13ConstIteratordeEv
                0x08013970       0x10 build/obj/Middleware.o
                0x08013970                r2p::StaticList<r2p::Node>::ConstIterator::operator*() const
 .text._ZN3r2p10StaticListINS_4NodeEE13ConstIteratorppEv
                0x08013980       0x24 build/obj/Middleware.o
                0x08013980                r2p::StaticList<r2p::Node>::ConstIterator::operator++()
 *fill*         0x080139a4        0xc 
 .text._ZNK3r2p10StaticListINS_4NodeEE13ConstIteratorptEv
                0x080139b0       0x10 build/obj/Middleware.o
                0x080139b0                r2p::StaticList<r2p::Node>::ConstIterator::operator->() const
 .text._ZNK3r2p10StaticListINS_14LocalPublisherEE7restartERNS2_13ConstIteratorE
                0x080139c0       0x24 build/obj/Middleware.o
                0x080139c0                r2p::StaticList<r2p::LocalPublisher>::restart(r2p::StaticList<r2p::LocalPublisher>::ConstIterator&) const
 *fill*         0x080139e4        0xc 
 .text._ZNK3r2p10StaticListINS_15LocalSubscriberEE7restartERNS2_13ConstIteratorE
                0x080139f0       0x24 build/obj/Middleware.o
                0x080139f0                r2p::StaticList<r2p::LocalSubscriber>::restart(r2p::StaticList<r2p::LocalSubscriber>::ConstIterator&) const
 *fill*         0x08013a14        0xc 
 .text._ZNK3r2p10StaticListINS_14LocalPublisherEE13ConstIterator8is_validEv
                0x08013a20       0x18 build/obj/Middleware.o
                0x08013a20                r2p::StaticList<r2p::LocalPublisher>::ConstIterator::is_valid() const
 *fill*         0x08013a38        0x8 
 .text._ZNK3r2p10StaticListINS_14LocalPublisherEE13ConstIteratorptEv
                0x08013a40       0x10 build/obj/Middleware.o
                0x08013a40                r2p::StaticList<r2p::LocalPublisher>::ConstIterator::operator->() const
 .text._ZN3r2p10StaticListINS_14LocalPublisherEE13ConstIteratorppEv
                0x08013a50       0x24 build/obj/Middleware.o
                0x08013a50                r2p::StaticList<r2p::LocalPublisher>::ConstIterator::operator++()
 *fill*         0x08013a74        0xc 
 .text._ZNK3r2p10StaticListINS_15LocalSubscriberEE13ConstIterator8is_validEv
                0x08013a80       0x18 build/obj/Middleware.o
                0x08013a80                r2p::StaticList<r2p::LocalSubscriber>::ConstIterator::is_valid() const
 *fill*         0x08013a98        0x8 
 .text._ZNK3r2p10StaticListINS_15LocalSubscriberEE13ConstIteratorptEv
                0x08013aa0       0x10 build/obj/Middleware.o
                0x08013aa0                r2p::StaticList<r2p::LocalSubscriber>::ConstIterator::operator->() const
 .text._ZN3r2p10StaticListINS_15LocalSubscriberEE13ConstIteratorppEv
                0x08013ab0       0x24 build/obj/Middleware.o
                0x08013ab0                r2p::StaticList<r2p::LocalSubscriber>::ConstIterator::operator++()
 *fill*         0x08013ad4        0xc 
 .text._ZNK3r2p10StaticListINS_9TransportEE5countEv
                0x08013ae0       0x40 build/obj/Middleware.o
                0x08013ae0                r2p::StaticList<r2p::Transport>::count() const
 .text._ZNK3r2p10StaticListINS_9TransportEE8IteratorptEv
                0x08013b20       0x10 build/obj/Middleware.o
                0x08013b20                r2p::StaticList<r2p::Transport>::Iterator::operator->() const
 .text._ZN3r2p10StaticListINS_4NodeEEC2Ev
                0x08013b30       0x1c build/obj/Middleware.o
                0x08013b30                r2p::StaticList<r2p::Node>::StaticList()
                0x08013b30                r2p::StaticList<r2p::Node>::StaticList()
 *fill*         0x08013b4c        0x4 
 .text._ZN3r2p10StaticListINS_5TopicEEC2Ev
                0x08013b50       0x1c build/obj/Middleware.o
                0x08013b50                r2p::StaticList<r2p::Topic>::StaticList()
                0x08013b50                r2p::StaticList<r2p::Topic>::StaticList()
 *fill*         0x08013b6c        0x4 
 .text._ZN3r2p10StaticListINS_9TransportEEC2Ev
                0x08013b70       0x1c build/obj/Middleware.o
                0x08013b70                r2p::StaticList<r2p::Transport>::StaticList()
                0x08013b70                r2p::StaticList<r2p::Transport>::StaticList()
 *fill*         0x08013b8c        0x4 
 .text._ZN3r2p9PublisherINS_7MgmtMsgEEC2Ev
                0x08013b90       0x24 build/obj/Middleware.o
                0x08013b90                r2p::Publisher<r2p::MgmtMsg>::Publisher()
                0x08013b90                r2p::Publisher<r2p::MgmtMsg>::Publisher()
 *fill*         0x08013bb4        0xc 
 .text._ZN3r2p9PublisherINS_7MgmtMsgEED2Ev
                0x08013bc0       0x30 build/obj/Middleware.o
                0x08013bc0                r2p::Publisher<r2p::MgmtMsg>::~Publisher()
                0x08013bc0                r2p::Publisher<r2p::MgmtMsg>::~Publisher()
 .text._ZN3r2p9PublisherINS_7MgmtMsgEED0Ev
                0x08013bf0       0x1c build/obj/Middleware.o
                0x08013bf0                r2p::Publisher<r2p::MgmtMsg>::~Publisher()
 *fill*         0x08013c0c        0x4 
 .text._ZN3r2p16SubscriberExtBufINS_7MgmtMsgEEC2EPPS1_jPFbRKS1_E
                0x08013c10       0x30 build/obj/Middleware.o
                0x08013c10                r2p::SubscriberExtBuf<r2p::MgmtMsg>::SubscriberExtBuf(r2p::MgmtMsg**, unsigned int, bool (*)(r2p::MgmtMsg const&))
                0x08013c10                r2p::SubscriberExtBuf<r2p::MgmtMsg>::SubscriberExtBuf(r2p::MgmtMsg**, unsigned int, bool (*)(r2p::MgmtMsg const&))
 .text._ZN3r2p16SubscriberExtBufINS_7MgmtMsgEED2Ev
                0x08013c40       0x30 build/obj/Middleware.o
                0x08013c40                r2p::SubscriberExtBuf<r2p::MgmtMsg>::~SubscriberExtBuf()
                0x08013c40                r2p::SubscriberExtBuf<r2p::MgmtMsg>::~SubscriberExtBuf()
 .text._ZN3r2p16SubscriberExtBufINS_7MgmtMsgEED0Ev
                0x08013c70       0x1c build/obj/Middleware.o
                0x08013c70                r2p::SubscriberExtBuf<r2p::MgmtMsg>::~SubscriberExtBuf()
 *fill*         0x08013c8c        0x4 
 .text._ZN3r2p10StaticListINS_4NodeEE13ConstIteratorC2Ev
                0x08013c90       0x14 build/obj/Middleware.o
                0x08013c90                r2p::StaticList<r2p::Node>::ConstIterator::ConstIterator()
                0x08013c90                r2p::StaticList<r2p::Node>::ConstIterator::ConstIterator()
 *fill*         0x08013ca4        0xc 
 .text._ZN3r2p10StaticListINS_14LocalPublisherEE13ConstIteratorC2Ev
                0x08013cb0       0x14 build/obj/Middleware.o
                0x08013cb0                r2p::StaticList<r2p::LocalPublisher>::ConstIterator::ConstIterator()
                0x08013cb0                r2p::StaticList<r2p::LocalPublisher>::ConstIterator::ConstIterator()
 *fill*         0x08013cc4        0xc 
 .text._ZN3r2p10StaticListINS_15LocalSubscriberEE13ConstIteratorC2Ev
                0x08013cd0       0x14 build/obj/Middleware.o
                0x08013cd0                r2p::StaticList<r2p::LocalSubscriber>::ConstIterator::ConstIterator()
                0x08013cd0                r2p::StaticList<r2p::LocalSubscriber>::ConstIterator::ConstIterator()
 *fill*         0x08013ce4        0xc 
 .text._ZN3r2p16SubscriberExtBufINS_7BootMsgEEC2EPPS1_jPFbRKS1_E
                0x08013cf0       0x30 build/obj/Middleware.o
                0x08013cf0                r2p::SubscriberExtBuf<r2p::BootMsg>::SubscriberExtBuf(r2p::BootMsg**, unsigned int, bool (*)(r2p::BootMsg const&))
                0x08013cf0                r2p::SubscriberExtBuf<r2p::BootMsg>::SubscriberExtBuf(r2p::BootMsg**, unsigned int, bool (*)(r2p::BootMsg const&))
 .text._ZN3r2p16SubscriberExtBufINS_7BootMsgEED2Ev
                0x08013d20       0x30 build/obj/Middleware.o
                0x08013d20                r2p::SubscriberExtBuf<r2p::BootMsg>::~SubscriberExtBuf()
                0x08013d20                r2p::SubscriberExtBuf<r2p::BootMsg>::~SubscriberExtBuf()
 .text._ZN3r2p16SubscriberExtBufINS_7BootMsgEED0Ev
                0x08013d50       0x1c build/obj/Middleware.o
                0x08013d50                r2p::SubscriberExtBuf<r2p::BootMsg>::~SubscriberExtBuf()
 *fill*         0x08013d6c        0x4 
 .text._ZN3r2p9PublisherINS_7BootMsgEEC2Ev
                0x08013d70       0x24 build/obj/Middleware.o
                0x08013d70                r2p::Publisher<r2p::BootMsg>::Publisher()
                0x08013d70                r2p::Publisher<r2p::BootMsg>::Publisher()
 *fill*         0x08013d94        0xc 
 .text._ZN3r2p9PublisherINS_7BootMsgEED2Ev
                0x08013da0       0x30 build/obj/Middleware.o
                0x08013da0                r2p::Publisher<r2p::BootMsg>::~Publisher()
                0x08013da0                r2p::Publisher<r2p::BootMsg>::~Publisher()
 .text._ZN3r2p9PublisherINS_7BootMsgEED0Ev
                0x08013dd0       0x1c build/obj/Middleware.o
                0x08013dd0                r2p::Publisher<r2p::BootMsg>::~Publisher()
 *fill*         0x08013dec        0x4 
 .text._ZN3r2p4Node9advertiseINS_7BootMsgEEEbRNS_9PublisherIT_EEPKcRKNS_4TimeE
                0x08013df0       0x28 build/obj/Middleware.o
                0x08013df0                bool r2p::Node::advertise<r2p::BootMsg>(r2p::Publisher<r2p::BootMsg>&, char const*, r2p::Time const&)
 *fill*         0x08013e18        0x8 
 .text._ZN3r2p4Node9subscribeINS_7BootMsgEEEbRNS_16SubscriberExtBufIT_EEPKcPS4_
                0x08013e20       0x28 build/obj/Middleware.o
                0x08013e20                bool r2p::Node::subscribe<r2p::BootMsg>(r2p::SubscriberExtBuf<r2p::BootMsg>&, char const*, r2p::BootMsg*)
 *fill*         0x08013e48        0x8 
 .text._ZN3r2p10StaticListINS_5TopicEE16link_tail_unsafeERNS2_4LinkE
                0x08013e50       0x64 build/obj/Middleware.o
                0x08013e50                r2p::StaticList<r2p::Topic>::link_tail_unsafe(r2p::StaticList<r2p::Topic>::Link&)
 *fill*         0x08013eb4        0xc 
 .text._ZNK3r2p10StaticListINS_4NodeEE8get_headEv
                0x08013ec0       0x20 build/obj/Middleware.o
                0x08013ec0                r2p::StaticList<r2p::Node>::get_head() const
 .text._ZN3r2p10StaticListINS_4NodeEE8IteratorC2EPKNS2_4LinkE
                0x08013ee0       0x14 build/obj/Middleware.o
                0x08013ee0                r2p::StaticList<r2p::Node>::Iterator::Iterator(r2p::StaticList<r2p::Node>::Link const*)
                0x08013ee0                r2p::StaticList<r2p::Node>::Iterator::Iterator(r2p::StaticList<r2p::Node>::Link const*)
 *fill*         0x08013ef4        0xc 
 .text._ZN3r2p10StaticListINS_9TransportEE16link_tail_unsafeERNS2_4LinkE
                0x08013f00       0x64 build/obj/Middleware.o
                0x08013f00                r2p::StaticList<r2p::Transport>::link_tail_unsafe(r2p::StaticList<r2p::Transport>::Link&)
 *fill*         0x08013f64        0xc 
 .text._ZNK3r2p10StaticListINS_9TransportEE8get_headEv
                0x08013f70       0x20 build/obj/Middleware.o
                0x08013f70                r2p::StaticList<r2p::Transport>::get_head() const
 .text._ZN3r2p10StaticListINS_9TransportEE8IteratorC2EPKNS2_4LinkE
                0x08013f90       0x14 build/obj/Middleware.o
                0x08013f90                r2p::StaticList<r2p::Transport>::Iterator::Iterator(r2p::StaticList<r2p::Transport>::Link const*)
                0x08013f90                r2p::StaticList<r2p::Transport>::Iterator::Iterator(r2p::StaticList<r2p::Transport>::Link const*)
 *fill*         0x08013fa4        0xc 
 .text._ZNK3r2p10StaticListINS_5TopicEE10find_firstEPFbRKS1_PKvES6_
                0x08013fb0       0x60 build/obj/Middleware.o
                0x08013fb0                r2p::StaticList<r2p::Topic>::find_first(bool (*)(r2p::Topic const&, void const*), void const*) const
 .text._ZNK3r2p10StaticListINS_4NodeEE10find_firstEPFbRKS1_PKvES6_
                0x08014010       0x60 build/obj/Middleware.o
                0x08014010                r2p::StaticList<r2p::Node>::find_first(bool (*)(r2p::Node const&, void const*), void const*) const
 .text._ZN3r2p7Message16get_payload_sizeINS_7MgmtMsgEEEjv
                0x08014070       0x10 build/obj/Middleware.o
                0x08014070                unsigned int r2p::Message::get_payload_size<r2p::MgmtMsg>()
 .text._ZNK3r2p10StaticListINS_4NodeEE5beginEv
                0x08014080       0x20 build/obj/Middleware.o
                0x08014080                r2p::StaticList<r2p::Node>::begin() const
 .text._ZN3r2p10StaticListINS_4NodeEE13ConstIteratoraSERKS3_
                0x080140a0       0x18 build/obj/Middleware.o
                0x080140a0                r2p::StaticList<r2p::Node>::ConstIterator::operator=(r2p::StaticList<r2p::Node>::ConstIterator const&)
 *fill*         0x080140b8        0x8 
 .text._ZNK3r2p10StaticListINS_14LocalPublisherEE5beginEv
                0x080140c0       0x20 build/obj/Middleware.o
                0x080140c0                r2p::StaticList<r2p::LocalPublisher>::begin() const
 .text._ZN3r2p10StaticListINS_14LocalPublisherEE13ConstIteratoraSERKS3_
                0x080140e0       0x18 build/obj/Middleware.o
                0x080140e0                r2p::StaticList<r2p::LocalPublisher>::ConstIterator::operator=(r2p::StaticList<r2p::LocalPublisher>::ConstIterator const&)
 *fill*         0x080140f8        0x8 
 .text._ZNK3r2p10StaticListINS_15LocalSubscriberEE5beginEv
                0x08014100       0x20 build/obj/Middleware.o
                0x08014100                r2p::StaticList<r2p::LocalSubscriber>::begin() const
 .text._ZN3r2p10StaticListINS_15LocalSubscriberEE13ConstIteratoraSERKS3_
                0x08014120       0x18 build/obj/Middleware.o
                0x08014120                r2p::StaticList<r2p::LocalSubscriber>::ConstIterator::operator=(r2p::StaticList<r2p::LocalSubscriber>::ConstIterator const&)
 *fill*         0x08014138        0x8 
 .text._ZN3r2p10StaticListINS_5TopicEE13unlink_unsafeERNS2_4LinkE
                0x08014140       0x54 build/obj/Middleware.o
                0x08014140                r2p::StaticList<r2p::Topic>::unlink_unsafe(r2p::StaticList<r2p::Topic>::Link&)
 *fill*         0x08014194        0xc 
 .text._ZNK3r2p10StaticListINS_5TopicEE15is_empty_unsafeEv
                0x080141a0       0x18 build/obj/Middleware.o
                0x080141a0                r2p::StaticList<r2p::Topic>::is_empty_unsafe() const
 *fill*         0x080141b8        0x8 
 .text._ZNK3r2p10StaticListINS_4NodeEE15get_head_unsafeEv
                0x080141c0       0x10 build/obj/Middleware.o
                0x080141c0                r2p::StaticList<r2p::Node>::get_head_unsafe() const
 .text._ZN3r2p10StaticListINS_9TransportEE13unlink_unsafeERNS2_4LinkE
                0x080141d0       0x54 build/obj/Middleware.o
                0x080141d0                r2p::StaticList<r2p::Transport>::unlink_unsafe(r2p::StaticList<r2p::Transport>::Link&)
 *fill*         0x08014224        0xc 
 .text._ZNK3r2p10StaticListINS_9TransportEE15is_empty_unsafeEv
                0x08014230       0x18 build/obj/Middleware.o
                0x08014230                r2p::StaticList<r2p::Transport>::is_empty_unsafe() const
 *fill*         0x08014248        0x8 
 .text._ZNK3r2p10StaticListINS_9TransportEE15get_head_unsafeEv
                0x08014250       0x10 build/obj/Middleware.o
                0x08014250                r2p::StaticList<r2p::Transport>::get_head_unsafe() const
 .text._ZN3r2p10StaticListINS_4NodeEE13ConstIteratorC2EPKNS2_9ConstLinkE
                0x08014260       0x14 build/obj/Middleware.o
                0x08014260                r2p::StaticList<r2p::Node>::ConstIterator::ConstIterator(r2p::StaticList<r2p::Node>::ConstLink const*)
                0x08014260                r2p::StaticList<r2p::Node>::ConstIterator::ConstIterator(r2p::StaticList<r2p::Node>::ConstLink const*)
 *fill*         0x08014274        0xc 
 .text._ZNK3r2p10StaticListINS_14LocalPublisherEE15get_head_unsafeEv
                0x08014280       0x10 build/obj/Middleware.o
                0x08014280                r2p::StaticList<r2p::LocalPublisher>::get_head_unsafe() const
 .text._ZN3r2p10StaticListINS_14LocalPublisherEE13ConstIteratorC2EPKNS2_9ConstLinkE
                0x08014290       0x14 build/obj/Middleware.o
                0x08014290                r2p::StaticList<r2p::LocalPublisher>::ConstIterator::ConstIterator(r2p::StaticList<r2p::LocalPublisher>::ConstLink const*)
                0x08014290                r2p::StaticList<r2p::LocalPublisher>::ConstIterator::ConstIterator(r2p::StaticList<r2p::LocalPublisher>::ConstLink const*)
 *fill*         0x080142a4        0xc 
 .text._ZNK3r2p10StaticListINS_15LocalSubscriberEE15get_head_unsafeEv
                0x080142b0       0x10 build/obj/Middleware.o
                0x080142b0                r2p::StaticList<r2p::LocalSubscriber>::get_head_unsafe() const
 .text._ZN3r2p10StaticListINS_15LocalSubscriberEE13ConstIteratorC2EPKNS2_9ConstLinkE
                0x080142c0       0x14 build/obj/Middleware.o
                0x080142c0                r2p::StaticList<r2p::LocalSubscriber>::ConstIterator::ConstIterator(r2p::StaticList<r2p::LocalSubscriber>::ConstLink const*)
                0x080142c0                r2p::StaticList<r2p::LocalSubscriber>::ConstIterator::ConstIterator(r2p::StaticList<r2p::LocalSubscriber>::ConstLink const*)
 *fill*         0x080142d4        0xc 
 .text._ZNK3r2p4Time9to_us_rawEv
                0x080142e0       0x10 build/obj/Node.o
                0x080142e0                r2p::Time::to_us_raw() const
 .text._ZNK3r2p4Time9to_ms_rawEv
                0x080142f0       0x20 build/obj/Node.o
                0x080142f0                r2p::Time::to_ms_raw() const
 .text._ZN3r2peqERKNS_4TimeES2_
                0x08014310       0x20 build/obj/Node.o
                0x08014310                r2p::operator==(r2p::Time const&, r2p::Time const&)
 .text._ZN3r2p10SpinEvent_4waitERKNS_4TimeE
                0x08014330       0xb4 build/obj/Node.o
                0x08014330                r2p::SpinEvent_::wait(r2p::Time const&)
 *fill*         0x080143e4        0xc 
 .text._ZN3r2p10SpinEvent_C2EPNS_6ThreadE
                0x080143f0       0x14 build/obj/Node.o
                0x080143f0                r2p::SpinEvent_::SpinEvent_(r2p::Thread*)
                0x080143f0                r2p::SpinEvent_::SpinEvent_(r2p::Thread*)
 *fill*         0x08014404        0xc 
 .text._ZN3r2p9SpinEvent4waitERKNS_4TimeE
                0x08014410       0x1c build/obj/Node.o
                0x08014410                r2p::SpinEvent::wait(r2p::Time const&)
 *fill*         0x0801442c        0x4 
 .text._ZN3r2p9SpinEventC2EPNS_6ThreadE
                0x08014430       0x24 build/obj/Node.o
                0x08014430                r2p::SpinEvent::SpinEvent(r2p::Thread*)
                0x08014430                r2p::SpinEvent::SpinEvent(r2p::Thread*)
 *fill*         0x08014454        0xc 
 .text._ZNK3r2p15LocalSubscriber12get_callbackEv
                0x08014460       0x10 build/obj/Node.o
                0x08014460                r2p::LocalSubscriber::get_callback() const
 .text._ZN3r2p10StaticListINS_14LocalPublisherEED2Ev
                0x08014470       0x18 build/obj/Node.o
                0x08014470                r2p::StaticList<r2p::LocalPublisher>::~StaticList()
                0x08014470                r2p::StaticList<r2p::LocalPublisher>::~StaticList()
 *fill*         0x08014488        0x8 
 .text._ZN3r2p10StaticListINS_15LocalSubscriberEED2Ev
                0x08014490       0x18 build/obj/Node.o
                0x08014490                r2p::StaticList<r2p::LocalSubscriber>::~StaticList()
                0x08014490                r2p::StaticList<r2p::LocalSubscriber>::~StaticList()
 *fill*         0x080144a8        0x8 
 .text._ZN3r2p9SpinEventD2Ev
                0x080144b0       0x18 build/obj/Node.o
                0x080144b0                r2p::SpinEvent::~SpinEvent()
                0x080144b0                r2p::SpinEvent::~SpinEvent()
 *fill*         0x080144c8        0x8 
 .text._ZN3r2p10StaticListINS_14LocalPublisherEE4linkERNS2_4LinkE
                0x080144d0       0x20 build/obj/Node.o
                0x080144d0                r2p::StaticList<r2p::LocalPublisher>::link(r2p::StaticList<r2p::LocalPublisher>::Link&)
 .text._ZNK3r2p10StaticListINS_15LocalSubscriberEE5countEv
                0x080144f0       0x40 build/obj/Node.o
                0x080144f0                r2p::StaticList<r2p::LocalSubscriber>::count() const
 .text._ZN3r2p10StaticListINS_15LocalSubscriberEE4linkERNS2_4LinkE
                0x08014530       0x20 build/obj/Node.o
                0x08014530                r2p::StaticList<r2p::LocalSubscriber>::link(r2p::StaticList<r2p::LocalSubscriber>::Link&)
 .text._ZN3r2p10StaticListINS_15LocalSubscriberEE6unlinkERNS2_4LinkE
                0x08014550       0x2c build/obj/Node.o
                0x08014550                r2p::StaticList<r2p::LocalSubscriber>::unlink(r2p::StaticList<r2p::LocalSubscriber>::Link&)
 *fill*         0x0801457c        0x4 
 .text._ZN3r2p10StaticListINS_15LocalSubscriberEE5beginEv
                0x08014580       0x20 build/obj/Node.o
                0x08014580                r2p::StaticList<r2p::LocalSubscriber>::begin()
 .text._ZN3r2p10StaticListINS_15LocalSubscriberEE3endEv
                0x080145a0       0x18 build/obj/Node.o
                0x080145a0                r2p::StaticList<r2p::LocalSubscriber>::end()
 *fill*         0x080145b8        0x8 
 .text._ZNK3r2p10StaticListINS_15LocalSubscriberEE8IteratorneERKS3_
                0x080145c0       0x20 build/obj/Node.o
                0x080145c0                r2p::StaticList<r2p::LocalSubscriber>::Iterator::operator!=(r2p::StaticList<r2p::LocalSubscriber>::Iterator const&) const
 .text._ZN3r2p10StaticListINS_15LocalSubscriberEE8IteratorppEv
                0x080145e0       0x24 build/obj/Node.o
                0x080145e0                r2p::StaticList<r2p::LocalSubscriber>::Iterator::operator++()
 *fill*         0x08014604        0xc 
 .text._ZNK3r2p10StaticListINS_15LocalSubscriberEE8IteratorptEv
                0x08014610       0x10 build/obj/Node.o
                0x08014610                r2p::StaticList<r2p::LocalSubscriber>::Iterator::operator->() const
 .text._ZN3r2p10StaticListINS_14LocalPublisherEEC2Ev
                0x08014620       0x1c build/obj/Node.o
                0x08014620                r2p::StaticList<r2p::LocalPublisher>::StaticList()
                0x08014620                r2p::StaticList<r2p::LocalPublisher>::StaticList()
 *fill*         0x0801463c        0x4 
 .text._ZN3r2p10StaticListINS_15LocalSubscriberEEC2Ev
                0x08014640       0x1c build/obj/Node.o
                0x08014640                r2p::StaticList<r2p::LocalSubscriber>::StaticList()
                0x08014640                r2p::StaticList<r2p::LocalSubscriber>::StaticList()
 *fill*         0x0801465c        0x4 
 .text._ZN3r2p10StaticListINS_4NodeEE4LinkC2ERS1_
                0x08014660       0x1c build/obj/Node.o
                0x08014660                r2p::StaticList<r2p::Node>::Link::Link(r2p::Node&)
                0x08014660                r2p::StaticList<r2p::Node>::Link::Link(r2p::Node&)
 *fill*         0x0801467c        0x4 
 .text._ZN3r2p10StaticListINS_14LocalPublisherEE16link_tail_unsafeERNS2_4LinkE
                0x08014680       0x64 build/obj/Node.o
                0x08014680                r2p::StaticList<r2p::LocalPublisher>::link_tail_unsafe(r2p::StaticList<r2p::LocalPublisher>::Link&)
 *fill*         0x080146e4        0xc 
 .text._ZN3r2p10StaticListINS_15LocalSubscriberEE16link_tail_unsafeERNS2_4LinkE
                0x080146f0       0x64 build/obj/Node.o
                0x080146f0                r2p::StaticList<r2p::LocalSubscriber>::link_tail_unsafe(r2p::StaticList<r2p::LocalSubscriber>::Link&)
 *fill*         0x08014754        0xc 
 .text._ZN3r2p10StaticListINS_15LocalSubscriberEE13unlink_unsafeERNS2_4LinkE
                0x08014760       0x54 build/obj/Node.o
                0x08014760                r2p::StaticList<r2p::LocalSubscriber>::unlink_unsafe(r2p::StaticList<r2p::LocalSubscriber>::Link&)
 *fill*         0x080147b4        0xc 
 .text._ZNK3r2p10StaticListINS_15LocalSubscriberEE8get_headEv
                0x080147c0       0x20 build/obj/Node.o
                0x080147c0                r2p::StaticList<r2p::LocalSubscriber>::get_head() const
 .text._ZN3r2p10StaticListINS_15LocalSubscriberEE8IteratorC2EPKNS2_4LinkE
                0x080147e0       0x14 build/obj/Node.o
                0x080147e0                r2p::StaticList<r2p::LocalSubscriber>::Iterator::Iterator(r2p::StaticList<r2p::LocalSubscriber>::Link const*)
                0x080147e0                r2p::StaticList<r2p::LocalSubscriber>::Iterator::Iterator(r2p::StaticList<r2p::LocalSubscriber>::Link const*)
 *fill*         0x080147f4        0xc 
 .text._ZN3r2p10StaticListINS_14LocalPublisherEE13unlink_unsafeERNS2_4LinkE
                0x08014800       0x54 build/obj/Node.o
                0x08014800                r2p::StaticList<r2p::LocalPublisher>::unlink_unsafe(r2p::StaticList<r2p::LocalPublisher>::Link&)
 *fill*         0x08014854        0xc 
 .text._ZNK3r2p10StaticListINS_14LocalPublisherEE15is_empty_unsafeEv
                0x08014860       0x18 build/obj/Node.o
                0x08014860                r2p::StaticList<r2p::LocalPublisher>::is_empty_unsafe() const
 *fill*         0x08014878        0x8 
 .text._ZN3r2p10StaticListINS_15RemotePublisherEE4LinkC2ERS1_
                0x08014880       0x1c build/obj/RemotePublisher.o
                0x08014880                r2p::StaticList<r2p::RemotePublisher>::Link::Link(r2p::RemotePublisher&)
                0x08014880                r2p::StaticList<r2p::RemotePublisher>::Link::Link(r2p::RemotePublisher&)
 *fill*         0x0801489c        0x4 
 .text._ZN3r2p10StaticListINS_16RemoteSubscriberEE4LinkC2ERS1_
                0x080148a0       0x1c build/obj/RemoteSubscriber.o
                0x080148a0                r2p::StaticList<r2p::RemoteSubscriber>::Link::Link(r2p::RemoteSubscriber&)
                0x080148a0                r2p::StaticList<r2p::RemoteSubscriber>::Link::Link(r2p::RemoteSubscriber&)
 *fill*         0x080148bc        0x4 
 .text._ZN3r2p4TimeC2IiEET_
                0x080148c0       0x14 build/obj/Time.o
                0x080148c0                r2p::Time::Time<int>(int)
                0x080148c0                r2p::Time::Time<int>(int)
 *fill*         0x080148d4        0xc 
 .text._ZN3r2p10ArrayQueueINS_22TimestampedMsgPtrQueue5EntryEEC2EPS2_j
                0x080148e0       0x54 build/obj/TimestampedMsgPtrQueue.o
                0x080148e0                r2p::ArrayQueue<r2p::TimestampedMsgPtrQueue::Entry>::ArrayQueue(r2p::TimestampedMsgPtrQueue::Entry*, unsigned int)
                0x080148e0                r2p::ArrayQueue<r2p::TimestampedMsgPtrQueue::Entry>::ArrayQueue(r2p::TimestampedMsgPtrQueue::Entry*, unsigned int)
 *fill*         0x08014934        0xc 
 .text._ZN3r2p11MemoryPool_C2Ej
                0x08014940       0x24 build/obj/Topic.o
                0x08014940                r2p::MemoryPool_::MemoryPool_(unsigned int)
                0x08014940                r2p::MemoryPool_::MemoryPool_(unsigned int)
 *fill*         0x08014964        0xc 
 .text._ZN3r2pgtERKNS_4TimeES2_
                0x08014970       0x20 build/obj/Topic.o
                0x08014970                r2p::operator>(r2p::Time const&, r2p::Time const&)
 .text._ZNK3r2p16RemoteSubscriber13get_transportEv
                0x08014990       0x10 build/obj/Topic.o
                0x08014990                r2p::RemoteSubscriber::get_transport() const
 .text._ZNK3r2p5Topic13get_type_sizeEv
                0x080149a0       0x1c build/obj/Topic.o
                0x080149a0                r2p::Topic::get_type_size() const
 *fill*         0x080149bc        0x4 
 .text._ZNK3r2p5Topic22has_remote_subscribersEv
                0x080149c0       0x20 build/obj/Topic.o
                0x080149c0                r2p::Topic::has_remote_subscribers() const
 .text._ZN3r2p10Middleware14get_mgmt_topicEv
                0x080149e0       0x10 build/obj/Topic.o
                0x080149e0                r2p::Middleware::get_mgmt_topic()
 .text._ZNK3r2p10StaticListINS_16RemoteSubscriberEE15is_empty_unsafeEv
                0x080149f0       0x18 build/obj/Topic.o
                0x080149f0                r2p::StaticList<r2p::RemoteSubscriber>::is_empty_unsafe() const
 *fill*         0x08014a08        0x8 
 .text._ZN3r2p10StaticListINS_15LocalSubscriberEE12begin_unsafeEv
                0x08014a10       0x20 build/obj/Topic.o
                0x08014a10                r2p::StaticList<r2p::LocalSubscriber>::begin_unsafe()
 .text._ZN3r2p10StaticListINS_15LocalSubscriberEE10end_unsafeEv
                0x08014a30       0x18 build/obj/Topic.o
                0x08014a30                r2p::StaticList<r2p::LocalSubscriber>::end_unsafe()
 *fill*         0x08014a48        0x8 
 .text._ZNK3r2p10StaticListINS_15LocalSubscriberEE14IteratorUnsafeneERKS3_
                0x08014a50       0x20 build/obj/Topic.o
                0x08014a50                r2p::StaticList<r2p::LocalSubscriber>::IteratorUnsafe::operator!=(r2p::StaticList<r2p::LocalSubscriber>::IteratorUnsafe const&) const
 .text._ZN3r2p10StaticListINS_15LocalSubscriberEE14IteratorUnsafeppEv
                0x08014a70       0x18 build/obj/Topic.o
                0x08014a70                r2p::StaticList<r2p::LocalSubscriber>::IteratorUnsafe::operator++()
 *fill*         0x08014a88        0x8 
 .text._ZNK3r2p10StaticListINS_15LocalSubscriberEE14IteratorUnsafeptEv
                0x08014a90       0x10 build/obj/Topic.o
                0x08014a90                r2p::StaticList<r2p::LocalSubscriber>::IteratorUnsafe::operator->() const
 .text._ZN3r2p10StaticListINS_16RemoteSubscriberEE12begin_unsafeEv
                0x08014aa0       0x20 build/obj/Topic.o
                0x08014aa0                r2p::StaticList<r2p::RemoteSubscriber>::begin_unsafe()
 .text._ZN3r2p10StaticListINS_16RemoteSubscriberEE10end_unsafeEv
                0x08014ac0       0x18 build/obj/Topic.o
                0x08014ac0                r2p::StaticList<r2p::RemoteSubscriber>::end_unsafe()
 *fill*         0x08014ad8        0x8 
 .text._ZNK3r2p10StaticListINS_16RemoteSubscriberEE14IteratorUnsafeneERKS3_
                0x08014ae0       0x20 build/obj/Topic.o
                0x08014ae0                r2p::StaticList<r2p::RemoteSubscriber>::IteratorUnsafe::operator!=(r2p::StaticList<r2p::RemoteSubscriber>::IteratorUnsafe const&) const
 .text._ZN3r2p10StaticListINS_16RemoteSubscriberEE14IteratorUnsafeppEv
                0x08014b00       0x18 build/obj/Topic.o
                0x08014b00                r2p::StaticList<r2p::RemoteSubscriber>::IteratorUnsafe::operator++()
 *fill*         0x08014b18        0x8 
 .text._ZNK3r2p10StaticListINS_16RemoteSubscriberEE14IteratorUnsafeptEv
                0x08014b20       0x10 build/obj/Topic.o
                0x08014b20                r2p::StaticList<r2p::RemoteSubscriber>::IteratorUnsafe::operator->() const
 .text._ZN3r2p5Topic12alloc_unsafeINS_7MessageEEEbRPT_
                0x08014b30       0x2c build/obj/Topic.o
                0x08014b30                bool r2p::Topic::alloc_unsafe<r2p::Message>(r2p::Message*&)
 *fill*         0x08014b5c        0x4 
 .text._ZN3r2p10StaticListINS_16RemoteSubscriberEE5beginEv
                0x08014b60       0x20 build/obj/Topic.o
                0x08014b60                r2p::StaticList<r2p::RemoteSubscriber>::begin()
 .text._ZN3r2p10StaticListINS_16RemoteSubscriberEE3endEv
                0x08014b80       0x18 build/obj/Topic.o
                0x08014b80                r2p::StaticList<r2p::RemoteSubscriber>::end()
 *fill*         0x08014b98        0x8 
 .text._ZNK3r2p10StaticListINS_16RemoteSubscriberEE8IteratorneERKS3_
                0x08014ba0       0x20 build/obj/Topic.o
                0x08014ba0                r2p::StaticList<r2p::RemoteSubscriber>::Iterator::operator!=(r2p::StaticList<r2p::RemoteSubscriber>::Iterator const&) const
 .text._ZN3r2p10StaticListINS_16RemoteSubscriberEE8IteratorppEv
                0x08014bc0       0x24 build/obj/Topic.o
                0x08014bc0                r2p::StaticList<r2p::RemoteSubscriber>::Iterator::operator++()
 *fill*         0x08014be4        0xc 
 .text._ZNK3r2p10StaticListINS_16RemoteSubscriberEE8IteratorptEv
                0x08014bf0       0x10 build/obj/Topic.o
                0x08014bf0                r2p::StaticList<r2p::RemoteSubscriber>::Iterator::operator->() const
 .text._ZN3r2p5Topic5allocINS_7MessageEEEbRPT_
                0x08014c00       0x2c build/obj/Topic.o
                0x08014c00                bool r2p::Topic::alloc<r2p::Message>(r2p::Message*&)
 *fill*         0x08014c2c        0x4 
 .text._ZN3r2p10StaticListINS_15LocalSubscriberEE11link_unsafeERNS2_4LinkE
                0x08014c30       0x44 build/obj/Topic.o
                0x08014c30                r2p::StaticList<r2p::LocalSubscriber>::link_unsafe(r2p::StaticList<r2p::LocalSubscriber>::Link&)
 *fill*         0x08014c74        0xc 
 .text._ZN3r2p10StaticListINS_16RemoteSubscriberEE11link_unsafeERNS2_4LinkE
                0x08014c80       0x44 build/obj/Topic.o
                0x08014c80                r2p::StaticList<r2p::RemoteSubscriber>::link_unsafe(r2p::StaticList<r2p::RemoteSubscriber>::Link&)
 *fill*         0x08014cc4        0xc 
 .text._ZN3r2p10StaticListINS_16RemoteSubscriberEEC2Ev
                0x08014cd0       0x1c build/obj/Topic.o
                0x08014cd0                r2p::StaticList<r2p::RemoteSubscriber>::StaticList()
                0x08014cd0                r2p::StaticList<r2p::RemoteSubscriber>::StaticList()
 *fill*         0x08014cec        0x4 
 .text._ZN3r2p10StaticListINS_5TopicEE4LinkC2ERS1_
                0x08014cf0       0x1c build/obj/Topic.o
                0x08014cf0                r2p::StaticList<r2p::Topic>::Link::Link(r2p::Topic&)
                0x08014cf0                r2p::StaticList<r2p::Topic>::Link::Link(r2p::Topic&)
 *fill*         0x08014d0c        0x4 
 .text._ZN3r2p10StaticListINS_15LocalSubscriberEE14IteratorUnsafeC2EPKNS2_4LinkE
                0x08014d10       0x14 build/obj/Topic.o
                0x08014d10                r2p::StaticList<r2p::LocalSubscriber>::IteratorUnsafe::IteratorUnsafe(r2p::StaticList<r2p::LocalSubscriber>::Link const*)
                0x08014d10                r2p::StaticList<r2p::LocalSubscriber>::IteratorUnsafe::IteratorUnsafe(r2p::StaticList<r2p::LocalSubscriber>::Link const*)
 *fill*         0x08014d24        0xc 
 .text._ZNK3r2p10StaticListINS_16RemoteSubscriberEE15get_head_unsafeEv
                0x08014d30       0x10 build/obj/Topic.o
                0x08014d30                r2p::StaticList<r2p::RemoteSubscriber>::get_head_unsafe() const
 .text._ZN3r2p10StaticListINS_16RemoteSubscriberEE14IteratorUnsafeC2EPKNS2_4LinkE
                0x08014d40       0x14 build/obj/Topic.o
                0x08014d40                r2p::StaticList<r2p::RemoteSubscriber>::IteratorUnsafe::IteratorUnsafe(r2p::StaticList<r2p::RemoteSubscriber>::Link const*)
                0x08014d40                r2p::StaticList<r2p::RemoteSubscriber>::IteratorUnsafe::IteratorUnsafe(r2p::StaticList<r2p::RemoteSubscriber>::Link const*)
 *fill*         0x08014d54        0xc 
 .text._ZNK3r2p10StaticListINS_16RemoteSubscriberEE8get_headEv
                0x08014d60       0x20 build/obj/Topic.o
                0x08014d60                r2p::StaticList<r2p::RemoteSubscriber>::get_head() const
 .text._ZN3r2p10StaticListINS_16RemoteSubscriberEE8IteratorC2EPKNS2_4LinkE
                0x08014d80       0x14 build/obj/Topic.o
                0x08014d80                r2p::StaticList<r2p::RemoteSubscriber>::Iterator::Iterator(r2p::StaticList<r2p::RemoteSubscriber>::Link const*)
                0x08014d80                r2p::StaticList<r2p::RemoteSubscriber>::Iterator::Iterator(r2p::StaticList<r2p::RemoteSubscriber>::Link const*)
 *fill*         0x08014d94        0xc 
 .text._ZN3r2p10StaticListINS_16RemoteSubscriberEE13unlink_unsafeERNS2_4LinkE
                0x08014da0       0x54 build/obj/Topic.o
                0x08014da0                r2p::StaticList<r2p::RemoteSubscriber>::unlink_unsafe(r2p::StaticList<r2p::RemoteSubscriber>::Link&)
 *fill*         0x08014df4        0xc 
 .text._ZN3r2p22TimestampedMsgPtrQueue5EntryC2Ev
                0x08014e00       0x20 build/obj/Transport.o
                0x08014e00                r2p::TimestampedMsgPtrQueue::Entry::Entry()
                0x08014e00                r2p::TimestampedMsgPtrQueue::Entry::Entry()
 .text._ZN3r2p6Mutex_7acquireEv
                0x08014e20       0x14 build/obj/Transport.o
                0x08014e20                r2p::Mutex_::acquire()
 *fill*         0x08014e34        0xc 
 .text._ZN3r2p6Mutex_7releaseEv
                0x08014e40       0x10 build/obj/Transport.o
                0x08014e40                r2p::Mutex_::release()
 .text._ZN3r2p6Mutex_C2Ev
                0x08014e50       0x1c build/obj/Transport.o
                0x08014e50                r2p::Mutex_::Mutex_()
                0x08014e50                r2p::Mutex_::Mutex_()
 *fill*         0x08014e6c        0x4 
 .text._ZN3r2p5Mutex7acquireEv
                0x08014e70       0x18 build/obj/Transport.o
                0x08014e70                r2p::Mutex::acquire()
 *fill*         0x08014e88        0x8 
 .text._ZN3r2p5Mutex7releaseEv
                0x08014e90       0x18 build/obj/Transport.o
                0x08014e90                r2p::Mutex::release()
 *fill*         0x08014ea8        0x8 
 .text._ZN3r2p6Mutex_D2Ev
                0x08014eb0       0x18 build/obj/Transport.o
                0x08014eb0                r2p::Mutex_::~Mutex_()
                0x08014eb0                r2p::Mutex_::~Mutex_()
 *fill*         0x08014ec8        0x8 
 .text._ZN3r2p5MutexC2Ev
                0x08014ed0       0x20 build/obj/Transport.o
                0x08014ed0                r2p::Mutex::Mutex()
                0x08014ed0                r2p::Mutex::Mutex()
 .text._ZN3r2p13BasePublisher9has_topicERKS0_PKc
                0x08014ef0       0x30 build/obj/Transport.o
                0x08014ef0                r2p::BasePublisher::has_topic(r2p::BasePublisher const&, char const*)
 .text._ZN3r2p5MutexD2Ev
                0x08014f20       0x20 build/obj/Transport.o
                0x08014f20                r2p::Mutex::~Mutex()
                0x08014f20                r2p::Mutex::~Mutex()
 .text._ZN3r2p10StaticListINS_15RemotePublisherEED2Ev
                0x08014f40       0x18 build/obj/Transport.o
                0x08014f40                r2p::StaticList<r2p::RemotePublisher>::~StaticList()
                0x08014f40                r2p::StaticList<r2p::RemotePublisher>::~StaticList()
 *fill*         0x08014f58        0x8 
 .text._ZN3r2p10StaticListINS_16RemoteSubscriberEED2Ev
                0x08014f60       0x18 build/obj/Transport.o
                0x08014f60                r2p::StaticList<r2p::RemoteSubscriber>::~StaticList()
                0x08014f60                r2p::StaticList<r2p::RemoteSubscriber>::~StaticList()
 *fill*         0x08014f78        0x8 
 .text._ZN3r2p10ScopedLockINS_5MutexEEC2ERS1_
                0x08014f80       0x28 build/obj/Transport.o
                0x08014f80                r2p::ScopedLock<r2p::Mutex>::ScopedLock(r2p::Mutex&)
                0x08014f80                r2p::ScopedLock<r2p::Mutex>::ScopedLock(r2p::Mutex&)
 *fill*         0x08014fa8        0x8 
 .text._ZN3r2p10ScopedLockINS_5MutexEED2Ev
                0x08014fb0       0x20 build/obj/Transport.o
                0x08014fb0                r2p::ScopedLock<r2p::Mutex>::~ScopedLock()
                0x08014fb0                r2p::ScopedLock<r2p::Mutex>::~ScopedLock()
 .text._ZNK3r2p10StaticListINS_15RemotePublisherEE10find_firstIPFbRKNS_13BasePublisherEPKcEcEEPS1_T_PKT0_
                0x08014fd0       0x20 build/obj/Transport.o
                0x08014fd0                r2p::RemotePublisher* r2p::StaticList<r2p::RemotePublisher>::find_first<bool (*)(r2p::BasePublisher const&, char const*), char>(bool (*)(r2p::BasePublisher const&, char const*), char const*) const
 .text._ZN3r2p10StaticListINS_15RemotePublisherEE4linkERNS2_4LinkE
                0x08014ff0       0x20 build/obj/Transport.o
                0x08014ff0                r2p::StaticList<r2p::RemotePublisher>::link(r2p::StaticList<r2p::RemotePublisher>::Link&)
 .text._ZNK3r2p10StaticListINS_16RemoteSubscriberEE10find_firstIPFbRKNS_14BaseSubscriberEPKcEcEEPS1_T_PKT0_
                0x08015010       0x20 build/obj/Transport.o
                0x08015010                r2p::RemoteSubscriber* r2p::StaticList<r2p::RemoteSubscriber>::find_first<bool (*)(r2p::BaseSubscriber const&, char const*), char>(bool (*)(r2p::BaseSubscriber const&, char const*), char const*) const
 .text._ZN3r2p10StaticListINS_16RemoteSubscriberEE4linkERNS2_4LinkE
                0x08015030       0x20 build/obj/Transport.o
                0x08015030                r2p::StaticList<r2p::RemoteSubscriber>::link(r2p::StaticList<r2p::RemoteSubscriber>::Link&)
 .text._ZN3r2p10StaticListINS_15RemotePublisherEEC2Ev
                0x08015050       0x1c build/obj/Transport.o
                0x08015050                r2p::StaticList<r2p::RemotePublisher>::StaticList()
                0x08015050                r2p::StaticList<r2p::RemotePublisher>::StaticList()
 *fill*         0x0801506c        0x4 
 .text._ZN3r2p10StaticListINS_9TransportEE4LinkC2ERS1_
                0x08015070       0x1c build/obj/Transport.o
                0x08015070                r2p::StaticList<r2p::Transport>::Link::Link(r2p::Transport&)
                0x08015070                r2p::StaticList<r2p::Transport>::Link::Link(r2p::Transport&)
 *fill*         0x0801508c        0x4 
 .text._ZNK3r2p10StaticListINS_15RemotePublisherEE10find_firstEPFbRKS1_PKvES6_
                0x08015090       0x60 build/obj/Transport.o
                0x08015090                r2p::StaticList<r2p::RemotePublisher>::find_first(bool (*)(r2p::RemotePublisher const&, void const*), void const*) const
 .text._ZN3r2p10StaticListINS_15RemotePublisherEE16link_tail_unsafeERNS2_4LinkE
                0x080150f0       0x64 build/obj/Transport.o
                0x080150f0                r2p::StaticList<r2p::RemotePublisher>::link_tail_unsafe(r2p::StaticList<r2p::RemotePublisher>::Link&)
 *fill*         0x08015154        0xc 
 .text._ZNK3r2p10StaticListINS_16RemoteSubscriberEE10find_firstEPFbRKS1_PKvES6_
                0x08015160       0x60 build/obj/Transport.o
                0x08015160                r2p::StaticList<r2p::RemoteSubscriber>::find_first(bool (*)(r2p::RemoteSubscriber const&, void const*), void const*) const
 .text._ZN3r2p10StaticListINS_16RemoteSubscriberEE16link_tail_unsafeERNS2_4LinkE
                0x080151c0       0x64 build/obj/Transport.o
                0x080151c0                r2p::StaticList<r2p::RemoteSubscriber>::link_tail_unsafe(r2p::StaticList<r2p::RemoteSubscriber>::Link&)
 *fill*         0x08015224        0xc 
 .text._ZN3r2p10StaticListINS_15RemotePublisherEE13unlink_unsafeERNS2_4LinkE
                0x08015230       0x54 build/obj/Transport.o
                0x08015230                r2p::StaticList<r2p::RemotePublisher>::unlink_unsafe(r2p::StaticList<r2p::RemotePublisher>::Link&)
 *fill*         0x08015284        0xc 
 .text._ZNK3r2p10StaticListINS_15RemotePublisherEE15is_empty_unsafeEv
                0x08015290       0x18 build/obj/Transport.o
                0x08015290                r2p::StaticList<r2p::RemotePublisher>::is_empty_unsafe() const
 *fill*         0x080152a8        0x8 
 .text._ZN3r2p12check_boundsEPKvjS1_j
                0x080152b0       0x30 build/obj/Bootloader.o
                0x080152b0                r2p::check_bounds(void const*, unsigned int, void const*, unsigned int)
 .text._ZN3r2p8Flasher_10is_alignedEPKv
                0x080152e0       0x1c build/obj/Bootloader.o
                0x080152e0                r2p::Flasher_::is_aligned(void const*)
 *fill*         0x080152fc        0x4 
 .text._ZN3r2p8Flasher_16is_within_boundsEPKv
                0x08015300       0x2c build/obj/Bootloader.o
                0x08015300                r2p::Flasher_::is_within_bounds(void const*)
 *fill*         0x0801532c        0x4 
 .text._ZN3r2p8Flasher_10align_prevEPKh
                0x08015330       0x10 build/obj/Bootloader.o
                0x08015330                r2p::Flasher_::align_prev(unsigned char const*)
 .text._ZN3r2p8Flasher_10align_nextEPKh
                0x08015340       0x1c build/obj/Bootloader.o
                0x08015340                r2p::Flasher_::align_next(unsigned char const*)
 *fill*         0x0801535c        0x4 
 .text._ZN3r2p8Flasher_17get_program_startEv
                0x08015360       0x18 build/obj/Bootloader.o
                0x08015360                r2p::Flasher_::get_program_start()
 *fill*         0x08015378        0x8 
 .text._ZN3r2p8Flasher_15get_program_endEv
                0x08015380       0x14 build/obj/Bootloader.o
                0x08015380                r2p::Flasher_::get_program_end()
 *fill*         0x08015394        0xc 
 .text._ZN3r2p8Flasher_13get_ram_startEv
                0x080153a0        0xc build/obj/Bootloader.o
                0x080153a0                r2p::Flasher_::get_ram_start()
 *fill*         0x080153ac        0x4 
 .text._ZN3r2p8Flasher_11get_ram_endEv
                0x080153b0        0xc build/obj/Bootloader.o
                0x080153b0                r2p::Flasher_::get_ram_end()
 *fill*         0x080153bc        0x4 
 .text._ZN3r2p7Flasher10is_alignedEPKv
                0x080153c0       0x18 build/obj/Bootloader.o
                0x080153c0                r2p::Flasher::is_aligned(void const*)
 *fill*         0x080153d8        0x8 
 .text._ZN3r2p7Flasher16is_within_boundsEPKv
                0x080153e0       0x18 build/obj/Bootloader.o
                0x080153e0                r2p::Flasher::is_within_bounds(void const*)
 *fill*         0x080153f8        0x8 
 .text._ZN3r2p7Flasher5beginEv
                0x08015400       0x18 build/obj/Bootloader.o
                0x08015400                r2p::Flasher::begin()
 *fill*         0x08015418        0x8 
 .text._ZN3r2p7Flasher3endEv
                0x08015420       0x1c build/obj/Bootloader.o
                0x08015420                r2p::Flasher::end()
 *fill*         0x0801543c        0x4 
 .text._ZN3r2p7Flasher5flashEPKhS2_j
                0x08015440       0x28 build/obj/Bootloader.o
                0x08015440                r2p::Flasher::flash(unsigned char const*, unsigned char const*, unsigned int)
 *fill*         0x08015468        0x8 
 .text._ZN3r2p7Flasher5eraseEPKhj
                0x08015470       0x24 build/obj/Bootloader.o
                0x08015470                r2p::Flasher::erase(unsigned char const*, unsigned int)
 *fill*         0x08015494        0xc 
 .text._ZN3r2p7FlasherC2EPt
                0x080154a0       0x24 build/obj/Bootloader.o
                0x080154a0                r2p::Flasher::Flasher(unsigned short*)
                0x080154a0                r2p::Flasher::Flasher(unsigned short*)
 *fill*         0x080154c4        0xc 
 .text._ZN3r2p7Flasher10align_nextEj
                0x080154d0       0x18 build/obj/Bootloader.o
                0x080154d0                r2p::Flasher::align_next(unsigned int)
 *fill*         0x080154e8        0x8 
 .text._ZN3r2p7Flasher17get_program_startEv
                0x080154f0        0xc build/obj/Bootloader.o
                0x080154f0                r2p::Flasher::get_program_start()
 *fill*         0x080154fc        0x4 
 .text._ZN3r2p7Flasher15get_program_endEv
                0x08015500        0xc build/obj/Bootloader.o
                0x08015500                r2p::Flasher::get_program_end()
 *fill*         0x0801550c        0x4 
 .text._ZN3r2p7Flasher13get_ram_startEv
                0x08015510        0xc build/obj/Bootloader.o
                0x08015510                r2p::Flasher::get_ram_start()
 *fill*         0x0801551c        0x4 
 .text._ZN3r2p7Flasher11get_ram_endEv
                0x08015520        0xc build/obj/Bootloader.o
                0x08015520                r2p::Flasher::get_ram_end()
 *fill*         0x0801552c        0x4 
 .text._ZN3r2p7Flasher18get_program_lengthEv
                0x08015530       0x1c build/obj/Bootloader.o
                0x08015530                r2p::Flasher::get_program_length()
 *fill*         0x0801554c        0x4 
 .text._ZN3r2p7Thread_11create_heapEPvjmPFlS1_ES1_PKc
                0x08015550       0x34 build/obj/Bootloader.o
                0x08015550                r2p::Thread_::create_heap(void*, unsigned int, unsigned long, long (*)(void*), void*, char const*)
 *fill*         0x08015584        0xc 
 .text._ZN3r2p6Thread11create_heapEPvjmPFlS1_ES1_PKc
                0x08015590       0x2c build/obj/Bootloader.o
                0x08015590                r2p::Thread::create_heap(void*, unsigned int, unsigned long, long (*)(void*), void*, char const*)
 *fill*         0x080155bc        0x4 
 .text._ZN3r2p10Bootloader12FlashAppInfo15compute_programEPKS1_
                0x080155c0       0x1c build/obj/Bootloader.o
                0x080155c0                r2p::Bootloader::FlashAppInfo::compute_program(r2p::Bootloader::FlashAppInfo const*)
 *fill*         0x080155dc        0x4 
 .text._ZN3r2p10Bootloader12FlashAppInfo20compute_data_programEPKS1_jj
                0x080155e0       0x30 build/obj/Bootloader.o
                0x080155e0                r2p::Bootloader::FlashAppInfo::compute_data_program(r2p::Bootloader::FlashAppInfo const*, unsigned int, unsigned int)
 .text._ZN3r2p10Bootloader12FlashAppInfo12compute_nextEPKS1_jj
                0x08015610       0x30 build/obj/Bootloader.o
                0x08015610                r2p::Bootloader::FlashAppInfo::compute_next(r2p::Bootloader::FlashAppInfo const*, unsigned int, unsigned int)
 .text._ZNK3r2p10Bootloader12FlashAppInfo11get_programEv
                0x08015640       0x18 build/obj/Bootloader.o
                0x08015640                r2p::Bootloader::FlashAppInfo::get_program() const
 *fill*         0x08015658        0x8 
 .text._ZNK3r2p10Bootloader12FlashAppInfo16get_data_programEv
                0x08015660       0x24 build/obj/Bootloader.o
                0x08015660                r2p::Bootloader::FlashAppInfo::get_data_program() const
 *fill*         0x08015684        0xc 
 .text._ZNK3r2p10Bootloader12FlashAppInfo8get_nextEv
                0x08015690       0x24 build/obj/Bootloader.o
                0x08015690                r2p::Bootloader::FlashAppInfo::get_next() const
 *fill*         0x080156b4        0xc 
 .text._ZNK3r2p10Bootloader12FlashAppInfo8is_validEv
                0x080156c0       0x30 build/obj/Bootloader.o
                0x080156c0                r2p::Bootloader::FlashAppInfo::is_valid() const
 .text._ZNK3r2p10Bootloader12FlashAppInfo8has_nameEPKc
                0x080156f0       0x2c build/obj/Bootloader.o
                0x080156f0                r2p::Bootloader::FlashAppInfo::has_name(char const*) const
 *fill*         0x0801571c        0x4 
 .text._ZN3r2p10Bootloader8IteratorC2ERKS1_
                0x08015720       0x18 build/obj/Bootloader.o
                0x08015720                r2p::Bootloader::Iterator::Iterator(r2p::Bootloader::Iterator const&)
                0x08015720                r2p::Bootloader::Iterator::Iterator(r2p::Bootloader::Iterator const&)
 *fill*         0x08015738        0x8 
 .text._ZN3r2p10Bootloader8IteratorC2EPKNS0_12FlashAppInfoE
                0x08015740       0x14 build/obj/Bootloader.o
                0x08015740                r2p::Bootloader::Iterator::Iterator(r2p::Bootloader::FlashAppInfo const*)
                0x08015740                r2p::Bootloader::Iterator::Iterator(r2p::Bootloader::FlashAppInfo const*)
 *fill*         0x08015754        0xc 
 .text._ZNK3r2p10Bootloader8IteratorptEv
                0x08015760       0x10 build/obj/Bootloader.o
                0x08015760                r2p::Bootloader::Iterator::operator->() const
 .text._ZNK3r2p10Bootloader8IteratordeEv
                0x08015770       0x10 build/obj/Bootloader.o
                0x08015770                r2p::Bootloader::Iterator::operator*() const
 .text._ZNK3r2p10Bootloader8IteratorcvPKNS0_12FlashAppInfoEEv
                0x08015780       0x10 build/obj/Bootloader.o
                0x08015780                r2p::Bootloader::Iterator::operator r2p::Bootloader::FlashAppInfo const*() const
 .text._ZN3r2p10Bootloader8IteratorppEv
                0x08015790       0x20 build/obj/Bootloader.o
                0x08015790                r2p::Bootloader::Iterator::operator++()
 .text._ZNK3r2p10Bootloader8IteratorneERKS1_
                0x080157b0       0x34 build/obj/Bootloader.o
                0x080157b0                r2p::Bootloader::Iterator::operator!=(r2p::Bootloader::Iterator const&) const
 *fill*         0x080157e4        0xc 
 .text._ZN3r2p10Bootloader5allocENS_7BootMsg8TypeEnumE
                0x080157f0       0x24 build/obj/Bootloader.o
                0x080157f0                r2p::Bootloader::alloc(r2p::BootMsg::TypeEnum)
 *fill*         0x08015814        0xc 
 .text._ZN3r2p10Bootloader5fetchENS_7BootMsg8TypeEnumE
                0x08015820       0x30 build/obj/Bootloader.o
                0x08015820                r2p::Bootloader::fetch(r2p::BootMsg::TypeEnum)
 .text._ZN3r2p10Bootloader11begin_writeEv
                0x08015850       0x18 build/obj/Bootloader.o
                0x08015850                r2p::Bootloader::begin_write()
 *fill*         0x08015868        0x8 
 .text._ZN3r2p10Bootloader9end_writeEv
                0x08015870       0x34 build/obj/Bootloader.o
                0x08015870                r2p::Bootloader::end_write()
 *fill*         0x080158a4        0xc 
 .text._ZN3r2p10Bootloader5writeEPKvS2_j
                0x080158b0       0x28 build/obj/Bootloader.o
                0x080158b0                r2p::Bootloader::write(void const*, void const*, unsigned int)
 *fill*         0x080158d8        0x8 
 .text._ZN3r2p10Bootloader5beginEv
                0x080158e0       0x1c build/obj/Bootloader.o
                0x080158e0                r2p::Bootloader::begin()
 *fill*         0x080158fc        0x4 
 .text._ZN3r2p10Bootloader3endEv
                0x08015900       0x1c build/obj/Bootloader.o
                0x08015900                r2p::Bootloader::end()
 *fill*         0x0801591c        0x4 
 .text._ZN3r2p10Bootloader16get_free_addressEv
                0x08015920        0xc build/obj/Bootloader.o
                0x08015920                r2p::Bootloader::get_free_address()
 *fill*         0x0801592c        0x4 
 .text._ZN3r2p18compute_chunk_sizeIhEEjPKT_S3_
                0x08015930       0x14 build/obj/Bootloader.o
                0x08015930                unsigned int r2p::compute_chunk_size<unsigned char>(unsigned char const*, unsigned char const*)
 *fill*         0x08015944        0xc 
 .text._ZN3r2p9PublisherINS_7BootMsgEE5allocERPS1_
                0x08015950       0x1c build/obj/Bootloader.o
                0x08015950                r2p::Publisher<r2p::BootMsg>::alloc(r2p::BootMsg*&)
 *fill*         0x0801596c        0x4 
 .text._ZN3r2p7Message13reset_payloadINS_7BootMsgEEEvRT_
                0x08015970       0x20 build/obj/Bootloader.o
                0x08015970                void r2p::Message::reset_payload<r2p::BootMsg>(r2p::BootMsg&)
 .text._ZN3r2p16SubscriberExtBufINS_7BootMsgEE5fetchERPS1_
                0x08015990       0x1c build/obj/Bootloader.o
                0x08015990                r2p::SubscriberExtBuf<r2p::BootMsg>::fetch(r2p::BootMsg*&)
 *fill*         0x080159ac        0x4 
 .text._ZN3r2p16SubscriberExtBufINS_7BootMsgEE7releaseERS1_
                0x080159b0       0x20 build/obj/Bootloader.o
                0x080159b0                r2p::SubscriberExtBuf<r2p::BootMsg>::release(r2p::BootMsg&)
 .text._ZN3r2p7Message16get_payload_sizeINS_7BootMsgEEEjv
                0x080159d0       0x10 build/obj/Bootloader.o
                0x080159d0                unsigned int r2p::Message::get_payload_size<r2p::BootMsg>()
 .text._ZNK3r2p7Message12get_raw_dataEv
                0x080159e0       0x10 build/obj/DebugTransport.o
                0x080159e0                r2p::Message::get_raw_data() const
 .text._ZN3r2p10Semaphore_10initializeEl
                0x080159f0       0x18 build/obj/DebugTransport.o
                0x080159f0                r2p::Semaphore_::initialize(long)
 *fill*         0x08015a08        0x8 
 .text._ZN3r2p10Semaphore_13signal_unsafeEv
                0x08015a10       0x14 build/obj/DebugTransport.o
                0x08015a10                r2p::Semaphore_::signal_unsafe()
 *fill*         0x08015a24        0xc 
 .text._ZN3r2p10Semaphore_11wait_unsafeEv
                0x08015a30       0x14 build/obj/DebugTransport.o
                0x08015a30                r2p::Semaphore_::wait_unsafe()
 *fill*         0x08015a44        0xc 
 .text._ZN3r2p10Semaphore_C2Ebl
                0x08015a50       0x30 build/obj/DebugTransport.o
                0x08015a50                r2p::Semaphore_::Semaphore_(bool, long)
                0x08015a50                r2p::Semaphore_::Semaphore_(bool, long)
 .text._ZN3r2p9Semaphore10initializeEl
                0x08015a80       0x1c build/obj/DebugTransport.o
                0x08015a80                r2p::Semaphore::initialize(long)
 *fill*         0x08015a9c        0x4 
 .text._ZN3r2p9Semaphore13signal_unsafeEv
                0x08015aa0       0x18 build/obj/DebugTransport.o
                0x08015aa0                r2p::Semaphore::signal_unsafe()
 *fill*         0x08015ab8        0x8 
 .text._ZN3r2p9Semaphore11wait_unsafeEv
                0x08015ac0       0x18 build/obj/DebugTransport.o
                0x08015ac0                r2p::Semaphore::wait_unsafe()
 *fill*         0x08015ad8        0x8 
 .text._ZN3r2p10Semaphore_D2Ev
                0x08015ae0       0x18 build/obj/DebugTransport.o
                0x08015ae0                r2p::Semaphore_::~Semaphore_()
                0x08015ae0                r2p::Semaphore_::~Semaphore_()
 *fill*         0x08015af8        0x8 
 .text._ZN3r2p9SemaphoreC2Ebl
                0x08015b00       0x30 build/obj/DebugTransport.o
                0x08015b00                r2p::Semaphore::Semaphore(bool, long)
                0x08015b00                r2p::Semaphore::Semaphore(bool, long)
 .text._ZNK3r2p5Topic19get_publish_timeoutEv
                0x08015b30       0x10 build/obj/DebugTransport.o
                0x08015b30                r2p::Topic::get_publish_timeout() const
 .text._ZN3r2p13BasePublisher15publish_locallyERNS_7MessageE
                0x08015b40       0x3c build/obj/DebugTransport.o
                0x08015b40                r2p::BasePublisher::publish_locally(r2p::Message&)
 *fill*         0x08015b7c        0x4 
 .text._ZN3r2p14DebugTransport23notify_first_sub_unsafeERKNS_15DebugSubscriberE
                0x08015b80       0x2c build/obj/DebugTransport.o
                0x08015b80                r2p::DebugTransport::notify_first_sub_unsafe(r2p::DebugSubscriber const&)
 *fill*         0x08015bac        0x4 
 .text._ZNK3r2p14DebugTransport16create_publisherERNS_5TopicEPKh
                0x08015bb0       0x24 build/obj/DebugTransport.o
                0x08015bb0                r2p::DebugTransport::create_publisher(r2p::Topic&, unsigned char const*) const
 *fill*         0x08015bd4        0xc 
 .text._ZNK3r2p14DebugTransport17create_subscriberERNS_5TopicEPNS_22TimestampedMsgPtrQueue5EntryEj
                0x08015be0       0x28 build/obj/DebugTransport.o
                0x08015be0                r2p::DebugTransport::create_subscriber(r2p::Topic&, r2p::TimestampedMsgPtrQueue::Entry*, unsigned int) const
 *fill*         0x08015c08        0x8 
 .text._ZN3r2p14DebugTransport9send_charEcm
                0x08015c10       0x3c build/obj/DebugTransport.o
                0x08015c10                r2p::DebugTransport::send_char(char, unsigned long)
 *fill*         0x08015c4c        0x4 
 .text._ZN3r2p14DebugTransport11expect_charEcm
                0x08015c50       0x38 build/obj/DebugTransport.o
                0x08015c50                r2p::DebugTransport::expect_char(char, unsigned long)
 *fill*         0x08015c88        0x8 
 .text._ZN3r2p14DebugTransport9recv_charERcm
                0x08015c90       0x38 build/obj/DebugTransport.o
                0x08015c90                r2p::DebugTransport::recv_char(char&, unsigned long)
 *fill*         0x08015cc8        0x8 
 .text._ZN3r2p14DebugTransport9send_byteEhm
                0x08015cd0       0x80 build/obj/DebugTransport.o
                0x08015cd0                r2p::DebugTransport::send_byte(unsigned char, unsigned long)
 .text._ZN3r2p14DebugTransport10send_valueIhEEbRKT_m
                0x08015d50       0x24 build/obj/DebugTransport.o
                0x08015d50                bool r2p::DebugTransport::send_value<unsigned char>(unsigned char const&, unsigned long)
 *fill*         0x08015d74        0xc 
 .text._ZN3r2p14DebugTransport10recv_valueIhEEbRT_m
                0x08015d80       0x20 build/obj/DebugTransport.o
                0x08015d80                bool r2p::DebugTransport::recv_value<unsigned char>(unsigned char&, unsigned long)
 .text._ZN3r2p10Middleware14get_boot_topicEv
                0x08015da0       0x10 build/obj/DebugTransport.o
                0x08015da0                r2p::Middleware::get_boot_topic()
 .text._ZNK3r2p11Checksummer16compute_checksumEv
                0x08015db0       0x14 build/obj/DebugTransport.o
                0x08015db0                r2p::Checksummer::compute_checksum() const
 *fill*         0x08015dc4        0xc 
 .text._ZNK3r2p11Checksummer5checkEh
                0x08015dd0       0x14 build/obj/DebugTransport.o
                0x08015dd0                r2p::Checksummer::check(unsigned char) const
 *fill*         0x08015de4        0xc 
 .text._ZN3r2p11Checksummer3addEPKvj
                0x08015df0       0x1c build/obj/DebugTransport.o
                0x08015df0                r2p::Checksummer::add(void const*, unsigned int)
 *fill*         0x08015e0c        0x4 
 .text._ZN3r2p11ChecksummerC2Ev
                0x08015e10       0x1c build/obj/DebugTransport.o
                0x08015e10                r2p::Checksummer::Checksummer()
                0x08015e10                r2p::Checksummer::Checksummer()
 *fill*         0x08015e2c        0x4 
 .text._ZN3r2p11ChecksummerD2Ev
                0x08015e30       0x18 build/obj/DebugTransport.o
                0x08015e30                r2p::Checksummer::~Checksummer()
                0x08015e30                r2p::Checksummer::~Checksummer()
 *fill*         0x08015e48        0x8 
 .text._ZN3r2p9SemaphoreD2Ev
                0x08015e50       0x20 build/obj/DebugTransport.o
                0x08015e50                r2p::Semaphore::~Semaphore()
                0x08015e50                r2p::Semaphore::~Semaphore()
 .text._ZN3r2p12StaticQueue_D2Ev
                0x08015e70       0x18 build/obj/DebugTransport.o
                0x08015e70                r2p::StaticQueue_::~StaticQueue_()
                0x08015e70                r2p::StaticQueue_::~StaticQueue_()
 *fill*         0x08015e88        0x8 
 .text._ZN3r2p11StaticQueueINS_14BaseSubscriberEED2Ev
                0x08015e90       0x20 build/obj/DebugTransport.o
                0x08015e90                r2p::StaticQueue<r2p::BaseSubscriber>::~StaticQueue()
                0x08015e90                r2p::StaticQueue<r2p::BaseSubscriber>::~StaticQueue()
 .text._ZN3r2p19BaseSubscriberQueueD2Ev
                0x08015eb0       0x18 build/obj/DebugTransport.o
                0x08015eb0                r2p::BaseSubscriberQueue::~BaseSubscriberQueue()
                0x08015eb0                r2p::BaseSubscriberQueue::~BaseSubscriberQueue()
 *fill*         0x08015ec8        0x8 
 .text._ZN3r2p11StaticQueueINS_14BaseSubscriberEE11post_unsafeERNS2_4LinkE
                0x08015ed0       0x1c build/obj/DebugTransport.o
                0x08015ed0                r2p::StaticQueue<r2p::BaseSubscriber>::post_unsafe(r2p::StaticQueue<r2p::BaseSubscriber>::Link&)
 *fill*         0x08015eec        0x4 
 .text._ZN3r2p14DebugTransport10send_valueIlEEbRKT_m
                0x08015ef0       0x20 build/obj/DebugTransport.o
                0x08015ef0                bool r2p::DebugTransport::send_value<long>(long const&, unsigned long)
 .text._ZN3r2p11Checksummer3addIlEEvRKT_
                0x08015f10       0x18 build/obj/DebugTransport.o
                0x08015f10                void r2p::Checksummer::add<long>(long const&)
 *fill*         0x08015f28        0x8 
 .text._ZN3r2p9Transport9subscribeINS_7BootMsgEEEbRNS_16RemoteSubscriberEPKcPT_j
                0x08015f30       0x2c build/obj/DebugTransport.o
                0x08015f30                bool r2p::Transport::subscribe<r2p::BootMsg>(r2p::RemoteSubscriber&, char const*, r2p::BootMsg*, unsigned int)
 *fill*         0x08015f5c        0x4 
 .text._ZN3r2p9Transport9subscribeINS_7MgmtMsgEEEbRNS_16RemoteSubscriberEPKcPT_j
                0x08015f60       0x2c build/obj/DebugTransport.o
                0x08015f60                bool r2p::Transport::subscribe<r2p::MgmtMsg>(r2p::RemoteSubscriber&, char const*, r2p::MgmtMsg*, unsigned int)
 *fill*         0x08015f8c        0x4 
 .text._ZNK3r2p11StaticQueueINS_14BaseSubscriberEE11peek_unsafeERPKNS2_4LinkE
                0x08015f90       0x20 build/obj/DebugTransport.o
                0x08015f90                r2p::StaticQueue<r2p::BaseSubscriber>::peek_unsafe(r2p::StaticQueue<r2p::BaseSubscriber>::Link const*&) const
 .text._ZN3r2p11StaticQueueINS_14BaseSubscriberEE11skip_unsafeEv
                0x08015fb0       0x1c build/obj/DebugTransport.o
                0x08015fb0                r2p::StaticQueue<r2p::BaseSubscriber>::skip_unsafe()
 *fill*         0x08015fcc        0x4 
 .text._ZN3r2p14DebugTransport10recv_valueIlEEbRT_m
                0x08015fd0       0x20 build/obj/DebugTransport.o
                0x08015fd0                bool r2p::DebugTransport::recv_value<long>(long&, unsigned long)
 .text._ZN3r2p22TimestampedMsgPtrQueue5EntryaSERKS1_
                0x08015ff0       0x2c build/obj/DebugSubscriber.o
                0x08015ff0                r2p::TimestampedMsgPtrQueue::Entry::operator=(r2p::TimestampedMsgPtrQueue::Entry const&)
 *fill*         0x0801601c        0x4 
 .text._ZN3r2p22TimestampedMsgPtrQueue5EntryC2EPNS_7MessageERKNS_4TimeE
                0x08016020       0x38 build/obj/DebugSubscriber.o
                0x08016020                r2p::TimestampedMsgPtrQueue::Entry::Entry(r2p::Message*, r2p::Time const&)
                0x08016020                r2p::TimestampedMsgPtrQueue::Entry::Entry(r2p::Message*, r2p::Time const&)
 *fill*         0x08016058        0x8 
 .text._ZN3r2p22TimestampedMsgPtrQueue5EntryC2ERKS1_
                0x08016060       0x2c build/obj/DebugSubscriber.o
                0x08016060                r2p::TimestampedMsgPtrQueue::Entry::Entry(r2p::TimestampedMsgPtrQueue::Entry const&)
                0x08016060                r2p::TimestampedMsgPtrQueue::Entry::Entry(r2p::TimestampedMsgPtrQueue::Entry const&)
 *fill*         0x0801608c        0x4 
 .text._ZN3r2p22TimestampedMsgPtrQueue11post_unsafeERNS0_5EntryE
                0x08016090       0x28 build/obj/DebugSubscriber.o
                0x08016090                r2p::TimestampedMsgPtrQueue::post_unsafe(r2p::TimestampedMsgPtrQueue::Entry&)
 *fill*         0x080160b8        0x8 
 .text._ZN3r2p22TimestampedMsgPtrQueue12fetch_unsafeERNS0_5EntryE
                0x080160c0       0x1c build/obj/DebugSubscriber.o
                0x080160c0                r2p::TimestampedMsgPtrQueue::fetch_unsafe(r2p::TimestampedMsgPtrQueue::Entry&)
 *fill*         0x080160dc        0x4 
 .text._ZNK3r2p22TimestampedMsgPtrQueue10get_lengthEv
                0x080160e0       0x18 build/obj/DebugSubscriber.o
                0x080160e0                r2p::TimestampedMsgPtrQueue::get_length() const
 *fill*         0x080160f8        0x8 
 .text._ZNK3r2p22TimestampedMsgPtrQueue9get_countEv
                0x08016100       0x18 build/obj/DebugSubscriber.o
                0x08016100                r2p::TimestampedMsgPtrQueue::get_count() const
 *fill*         0x08016118        0x8 
 .text._ZN3r2p15DebugSubscriber6notifyERNS_7MessageERKNS_4TimeE
                0x08016120       0x34 build/obj/DebugSubscriber.o
                0x08016120                r2p::DebugSubscriber::notify(r2p::Message&, r2p::Time const&)
 *fill*         0x08016154        0xc 
 .text._ZN3r2p15DebugSubscriber5fetchERPNS_7MessageERNS_4TimeE
                0x08016160       0x34 build/obj/DebugSubscriber.o
                0x08016160                r2p::DebugSubscriber::fetch(r2p::Message*&, r2p::Time&)
 *fill*         0x08016194        0xc 
 .text._ZN3r2p10ArrayQueueINS_22TimestampedMsgPtrQueue5EntryEED2Ev
                0x080161a0       0x18 build/obj/DebugSubscriber.o
                0x080161a0                r2p::ArrayQueue<r2p::TimestampedMsgPtrQueue::Entry>::~ArrayQueue()
                0x080161a0                r2p::ArrayQueue<r2p::TimestampedMsgPtrQueue::Entry>::~ArrayQueue()
 *fill*         0x080161b8        0x8 
 .text._ZN3r2p22TimestampedMsgPtrQueueD2Ev
                0x080161c0       0x18 build/obj/DebugSubscriber.o
                0x080161c0                r2p::TimestampedMsgPtrQueue::~TimestampedMsgPtrQueue()
                0x080161c0                r2p::TimestampedMsgPtrQueue::~TimestampedMsgPtrQueue()
 *fill*         0x080161d8        0x8 
 .text._ZN3r2p10ArrayQueueINS_22TimestampedMsgPtrQueue5EntryEE11post_unsafeES2_
                0x080161e0       0x6c build/obj/DebugSubscriber.o
                0x080161e0                r2p::ArrayQueue<r2p::TimestampedMsgPtrQueue::Entry>::post_unsafe(r2p::TimestampedMsgPtrQueue::Entry)
 *fill*         0x0801624c        0x4 
 .text._ZN3r2p10ArrayQueueINS_22TimestampedMsgPtrQueue5EntryEE12fetch_unsafeERS2_
                0x08016250       0x68 build/obj/DebugSubscriber.o
                0x08016250                r2p::ArrayQueue<r2p::TimestampedMsgPtrQueue::Entry>::fetch_unsafe(r2p::TimestampedMsgPtrQueue::Entry&)
 *fill*         0x080162b8        0x8 
 .text._ZNK3r2p10ArrayQueueINS_22TimestampedMsgPtrQueue5EntryEE10get_lengthEv
                0x080162c0       0x10 build/obj/DebugSubscriber.o
                0x080162c0                r2p::ArrayQueue<r2p::TimestampedMsgPtrQueue::Entry>::get_length() const
 .text._ZNK3r2p10ArrayQueueINS_22TimestampedMsgPtrQueue5EntryEE9get_countEv
                0x080162d0       0x10 build/obj/DebugSubscriber.o
                0x080162d0                r2p::ArrayQueue<r2p::TimestampedMsgPtrQueue::Entry>::get_count() const
 .text._ZN3r2p11StaticQueueINS_14BaseSubscriberEE4LinkC2ERS1_
                0x080162e0       0x1c build/obj/DebugSubscriber.o
                0x080162e0                r2p::StaticQueue<r2p::BaseSubscriber>::Link::Link(r2p::BaseSubscriber&)
                0x080162e0                r2p::StaticQueue<r2p::BaseSubscriber>::Link::Link(r2p::BaseSubscriber&)
 *fill*         0x080162fc        0x4 
 .text._ZN3r2p7Message21get_msg_from_raw_dataEPKh
                0x08016300       0x14 build/obj/RTCANTransport.o
                0x08016300                r2p::Message::get_msg_from_raw_data(unsigned char const*)
 *fill*         0x08016314        0xc 
 .text._ZN3r2p11MemoryPool_C2EPvjj
                0x08016320       0x34 build/obj/RTCANTransport.o
                0x08016320                r2p::MemoryPool_::MemoryPool_(void*, unsigned int, unsigned int)
                0x08016320                r2p::MemoryPool_::MemoryPool_(void*, unsigned int, unsigned int)
 *fill*         0x08016354        0xc 
 .text._ZNK3r2p10Middleware10get_topicsEv
                0x08016360       0x10 build/obj/RTCANTransport.o
                0x08016360                r2p::Middleware::get_topics() const
 .text._ZN3r2p11MemoryPool_D2Ev
                0x08016370       0x18 build/obj/RTCANTransport.o
                0x08016370                r2p::MemoryPool_::~MemoryPool_()
                0x08016370                r2p::MemoryPool_::~MemoryPool_()
 *fill*         0x08016388        0x8 
 .text._ZN3r2p10MemoryPoolI11rtcan_msg_tED2Ev
                0x08016390       0x20 build/obj/RTCANTransport.o
                0x08016390                r2p::MemoryPool<rtcan_msg_t>::~MemoryPool()
                0x08016390                r2p::MemoryPool<rtcan_msg_t>::~MemoryPool()
 .text._ZN3r2p10MemoryPoolI11rtcan_msg_tE12alloc_unsafeEv
                0x080163b0       0x1c build/obj/RTCANTransport.o
                0x080163b0                r2p::MemoryPool<rtcan_msg_t>::alloc_unsafe()
 *fill*         0x080163cc        0x4 
 .text._ZN3r2p10MemoryPoolI11rtcan_msg_tE11free_unsafeEPS1_
                0x080163d0       0x1c build/obj/RTCANTransport.o
                0x080163d0                r2p::MemoryPool<rtcan_msg_t>::free_unsafe(rtcan_msg_t*)
 *fill*         0x080163ec        0x4 
 .text._ZN3r2p10MemoryPoolI11rtcan_msg_tEC2EPS1_j
                0x080163f0       0x2c build/obj/RTCANTransport.o
                0x080163f0                r2p::MemoryPool<rtcan_msg_t>::MemoryPool(rtcan_msg_t*, unsigned int)
                0x080163f0                r2p::MemoryPool<rtcan_msg_t>::MemoryPool(rtcan_msg_t*, unsigned int)
 *fill*         0x0801641c        0x4 
 .text._ZNK3r2p10StaticListINS_5TopicEE8index_ofERKS1_
                0x08016420       0x50 build/obj/RTCANTransport.o
                0x08016420                r2p::StaticList<r2p::Topic>::index_of(r2p::Topic const&) const
 .text._ZN3r2p15RTCANSubscriber6notifyERNS_7MessageERKNS_4TimeE
                0x08016470       0x34 build/obj/RTCANSubscriber.o
                0x08016470                r2p::RTCANSubscriber::notify(r2p::Message&, r2p::Time const&)
 *fill*         0x080164a4        0xc 
 .text._ZN3r2p15RTCANSubscriber5fetchERPNS_7MessageERNS_4TimeE
                0x080164b0       0x34 build/obj/RTCANSubscriber.o
                0x080164b0                r2p::RTCANSubscriber::fetch(r2p::Message*&, r2p::Time&)
 *fill*         0x080164e4        0xc 
 .text._ZN3r2p14compute_offsetEPKvj
                0x080164f0       0x14 build/obj/Flasher_.o
                0x080164f0                r2p::compute_offset(void const*, unsigned int)
 *fill*         0x08016504        0xc 
 .text._ZN3r2p8Flasher_10address_ofEt
                0x08016510       0x18 build/obj/Flasher_.o
                0x08016510                r2p::Flasher_::address_of(unsigned short)
 *fill*         0x08016528        0x8 
 .text._ZN3r2p8Flasher_7page_ofEPKh
                0x08016530       0x14 build/obj/Flasher_.o
                0x08016530                r2p::Flasher_::page_of(unsigned char const*)
 *fill*         0x08016544        0xc 
 .text._ZN3r2p8Flasher_18get_program_lengthEv
                0x08016550       0x1c build/obj/Flasher_.o
                0x08016550                r2p::Flasher_::get_program_length()
 *fill*         0x0801656c        0x4 
 .text._ZN3r2p9PublisherINS_6LedMsgEEC2Ev
                0x08016570       0x24 build/obj/led.o
                0x08016570                r2p::Publisher<r2p::LedMsg>::Publisher()
                0x08016570                r2p::Publisher<r2p::LedMsg>::Publisher()
 *fill*         0x08016594        0xc 
 .text._ZN3r2p9PublisherINS_6LedMsgEED2Ev
                0x080165a0       0x30 build/obj/led.o
                0x080165a0                r2p::Publisher<r2p::LedMsg>::~Publisher()
                0x080165a0                r2p::Publisher<r2p::LedMsg>::~Publisher()
 .text._ZN3r2p9PublisherINS_6LedMsgEED0Ev
                0x080165d0       0x1c build/obj/led.o
                0x080165d0                r2p::Publisher<r2p::LedMsg>::~Publisher()
 *fill*         0x080165ec        0x4 
 .text._ZN3r2p4Node9advertiseINS_6LedMsgEEEbRNS_9PublisherIT_EEPKcRKNS_4TimeE
                0x080165f0       0x28 build/obj/led.o
                0x080165f0                bool r2p::Node::advertise<r2p::LedMsg>(r2p::Publisher<r2p::LedMsg>&, char const*, r2p::Time const&)
 *fill*         0x08016618        0x8 
 .text._ZN3r2p9PublisherINS_6LedMsgEE5allocERPS1_
                0x08016620       0x1c build/obj/led.o
                0x08016620                r2p::Publisher<r2p::LedMsg>::alloc(r2p::LedMsg*&)
 *fill*         0x0801663c        0x4 
 .text._ZN3r2p9PublisherINS_6LedMsgEE7publishERS1_
                0x08016640       0x20 build/obj/led.o
                0x08016640                r2p::Publisher<r2p::LedMsg>::publish(r2p::LedMsg&)
 .text._ZN3r2p6LedMsgC2Ev
                0x08016660       0x18 build/obj/led.o
                0x08016660                r2p::LedMsg::LedMsg()
                0x08016660                r2p::LedMsg::LedMsg()
 *fill*         0x08016678        0x8 
 .text._ZN3r2p10SubscriberINS_6LedMsgELj5EEC2EPFbRKS1_E
                0x08016680       0x48 build/obj/led.o
                0x08016680                r2p::Subscriber<r2p::LedMsg, 5u>::Subscriber(bool (*)(r2p::LedMsg const&))
                0x08016680                r2p::Subscriber<r2p::LedMsg, 5u>::Subscriber(bool (*)(r2p::LedMsg const&))
 *fill*         0x080166c8        0x8 
 .text._ZN3r2p10SubscriberINS_6LedMsgELj5EED2Ev
                0x080166d0       0x30 build/obj/led.o
                0x080166d0                r2p::Subscriber<r2p::LedMsg, 5u>::~Subscriber()
                0x080166d0                r2p::Subscriber<r2p::LedMsg, 5u>::~Subscriber()
 .text._ZN3r2p10SubscriberINS_6LedMsgELj5EED0Ev
                0x08016700       0x1c build/obj/led.o
                0x08016700                r2p::Subscriber<r2p::LedMsg, 5u>::~Subscriber()
 *fill*         0x0801671c        0x4 
 .text._ZN3r2p4Node9subscribeINS_6LedMsgELj5EEEbRNS_10SubscriberIT_XT0_EEEPKc
                0x08016720       0x2c build/obj/led.o
                0x08016720                bool r2p::Node::subscribe<r2p::LedMsg, 5u>(r2p::Subscriber<r2p::LedMsg, 5u>&, char const*)
 *fill*         0x0801674c        0x4 
 .text._ZN3r2p16SubscriberExtBufINS_6LedMsgEEC2EPPS1_jPFbRKS1_E
                0x08016750       0x30 build/obj/led.o
                0x08016750                r2p::SubscriberExtBuf<r2p::LedMsg>::SubscriberExtBuf(r2p::LedMsg**, unsigned int, bool (*)(r2p::LedMsg const&))
                0x08016750                r2p::SubscriberExtBuf<r2p::LedMsg>::SubscriberExtBuf(r2p::LedMsg**, unsigned int, bool (*)(r2p::LedMsg const&))
 .text._ZN3r2p16SubscriberExtBufINS_6LedMsgEED2Ev
                0x08016780       0x30 build/obj/led.o
                0x08016780                r2p::SubscriberExtBuf<r2p::LedMsg>::~SubscriberExtBuf()
                0x08016780                r2p::SubscriberExtBuf<r2p::LedMsg>::~SubscriberExtBuf()
 .text._ZN3r2p16SubscriberExtBufINS_6LedMsgEED0Ev
                0x080167b0       0x1c build/obj/led.o
                0x080167b0                r2p::SubscriberExtBuf<r2p::LedMsg>::~SubscriberExtBuf()
 *fill*         0x080167cc        0x4 
 .text._ZN3r2p9PublisherINS_11String64MsgEEC2Ev
                0x080167d0       0x24 build/obj/main.o
                0x080167d0                r2p::Publisher<r2p::String64Msg>::Publisher()
                0x080167d0                r2p::Publisher<r2p::String64Msg>::Publisher()
 *fill*         0x080167f4        0xc 
 .text._ZN3r2p9PublisherINS_11String64MsgEED2Ev
                0x08016800       0x30 build/obj/main.o
                0x08016800                r2p::Publisher<r2p::String64Msg>::~Publisher()
                0x08016800                r2p::Publisher<r2p::String64Msg>::~Publisher()
 .text._ZN3r2p9PublisherINS_11String64MsgEED0Ev
                0x08016830       0x1c build/obj/main.o
                0x08016830                r2p::Publisher<r2p::String64Msg>::~Publisher()
 *fill*         0x0801684c        0x4 
 .text._ZN3r2p4Node9advertiseINS_11String64MsgEEEbRNS_9PublisherIT_EEPKcRKNS_4TimeE
                0x08016850       0x28 build/obj/main.o
                0x08016850                bool r2p::Node::advertise<r2p::String64Msg>(r2p::Publisher<r2p::String64Msg>&, char const*, r2p::Time const&)
 *fill*         0x08016878        0x8 
 .text._ZN3r2p9PublisherINS_11String64MsgEE5allocERPS1_
                0x08016880       0x1c build/obj/main.o
                0x08016880                r2p::Publisher<r2p::String64Msg>::alloc(r2p::String64Msg*&)
 *fill*         0x0801689c        0x4 
 .text._ZN3r2p9PublisherINS_11String64MsgEE7publishEPS1_
                0x080168a0       0x20 build/obj/main.o
                0x080168a0                r2p::Publisher<r2p::String64Msg>::publish(r2p::String64Msg*)
 .text._ZN3r2p10StaticListINS_4NodeEED2Ev
                0x080168c0       0x18 build/obj/main.o
                0x080168c0                r2p::StaticList<r2p::Node>::~StaticList()
                0x080168c0                r2p::StaticList<r2p::Node>::~StaticList()
 *fill*         0x080168d8        0x8 
 .text._ZN3r2p10StaticListINS_5TopicEED2Ev
                0x080168e0       0x18 build/obj/main.o
                0x080168e0                r2p::StaticList<r2p::Topic>::~StaticList()
                0x080168e0                r2p::StaticList<r2p::Topic>::~StaticList()
 *fill*         0x080168f8        0x8 
 .text._ZN3r2p10StaticListINS_9TransportEED2Ev
                0x08016900       0x18 build/obj/main.o
                0x08016900                r2p::StaticList<r2p::Transport>::~StaticList()
                0x08016900                r2p::StaticList<r2p::Transport>::~StaticList()
 *fill*         0x08016918        0x8 
 .text._ZN3r2p7ReMutexD2Ev
                0x08016920       0x20 build/obj/main.o
                0x08016920                r2p::ReMutex::~ReMutex()
                0x08016920                r2p::ReMutex::~ReMutex()
 .text._ZN3r2p5TopicD2Ev
                0x08016940       0x34 build/obj/main.o
                0x08016940                r2p::Topic::~Topic()
                0x08016940                r2p::Topic::~Topic()
 *fill*         0x08016974        0xc 
 .text._ZN3r2p10MiddlewareD2Ev
                0x08016980       0x74 build/obj/main.o
                0x08016980                r2p::Middleware::~Middleware()
                0x08016980                r2p::Middleware::~Middleware()
 *fill*         0x080169f4        0xc 
 .text.__aeabi_atexit
                0x08016a00        0xc /opt/R2P/tools/gcc-arm-none-eabi-4_9-2014q4/bin/../lib/gcc/arm-none-eabi/4.9.3/../../../../arm-none-eabi/lib/armv7e-m/libg.a(lib_a-aeabi_atexit.o)
                0x08016a00                __aeabi_atexit
 *fill*         0x08016a0c        0x4 
 .text.__cxa_atexit
                0x08016a10       0x14 /opt/R2P/tools/gcc-arm-none-eabi-4_9-2014q4/bin/../lib/gcc/arm-none-eabi/4.9.3/../../../../arm-none-eabi/lib/armv7e-m/libg.a(lib_a-cxa_atexit.o)
                0x08016a10                __cxa_atexit
 *fill*         0x08016a24        0xc 
 .text.memset   0x08016a30       0x9c /opt/R2P/tools/gcc-arm-none-eabi-4_9-2014q4/bin/../lib/gcc/arm-none-eabi/4.9.3/../../../../arm-none-eabi/lib/armv7e-m/libg.a(lib_a-memset.o)
                0x08016a30                memset
 *fill*         0x08016acc        0x4 
 .text._sprintf_r
                0x08016ad0       0x44 /opt/R2P/tools/gcc-arm-none-eabi-4_9-2014q4/bin/../lib/gcc/arm-none-eabi/4.9.3/../../../../arm-none-eabi/lib/armv7e-m/libg.a(lib_a-sprintf.o)
                0x08016ad0                _sprintf_r
 *fill*         0x08016b14        0xc 
 .text.sprintf  0x08016b20       0x4c /opt/R2P/tools/gcc-arm-none-eabi-4_9-2014q4/bin/../lib/gcc/arm-none-eabi/4.9.3/../../../../arm-none-eabi/lib/armv7e-m/libg.a(lib_a-sprintf.o)
                0x08016b20                sprintf
 *fill*         0x08016b6c        0x4 
 .text.strcasecmp
                0x08016b70       0x44 /opt/R2P/tools/gcc-arm-none-eabi-4_9-2014q4/bin/../lib/gcc/arm-none-eabi/4.9.3/../../../../arm-none-eabi/lib/armv7e-m/libg.a(lib_a-strcasecmp.o)
                0x08016b70                strcasecmp
 *fill*         0x08016bb4        0xc 
 .text.strncmp  0x08016bc0       0x98 /opt/R2P/tools/gcc-arm-none-eabi-4_9-2014q4/bin/../lib/gcc/arm-none-eabi/4.9.3/../../../../arm-none-eabi/lib/armv7e-m/libg.a(lib_a-strncmp.o)
                0x08016bc0                strncmp
 *fill*         0x08016c58        0x8 
 .text.strncpy  0x08016c60       0x68 /opt/R2P/tools/gcc-arm-none-eabi-4_9-2014q4/bin/../lib/gcc/arm-none-eabi/4.9.3/../../../../arm-none-eabi/lib/armv7e-m/libg.a(lib_a-strncpy.o)
                0x08016c60                strncpy
 *fill*         0x08016cc8        0x8 
 .text.strnlen  0x08016cd0       0x34 /opt/R2P/tools/gcc-arm-none-eabi-4_9-2014q4/bin/../lib/gcc/arm-none-eabi/4.9.3/../../../../arm-none-eabi/lib/armv7e-m/libg.a(lib_a-strnlen.o)
                0x08016cd0                strnlen
 *fill*         0x08016d04        0xc 
 .text.strpbrk  0x08016d10       0x48 /opt/R2P/tools/gcc-arm-none-eabi-4_9-2014q4/bin/../lib/gcc/arm-none-eabi/4.9.3/../../../../arm-none-eabi/lib/armv7e-m/libg.a(lib_a-strpbrk.o)
                0x08016d10                strpbrk
 *fill*         0x08016d58        0x8 
 .text.strspn   0x08016d60       0x34 /opt/R2P/tools/gcc-arm-none-eabi-4_9-2014q4/bin/../lib/gcc/arm-none-eabi/4.9.3/../../../../arm-none-eabi/lib/armv7e-m/libg.a(lib_a-strspn.o)
                0x08016d60                strspn
 *fill*         0x08016d94        0xc 
 .text._svfprintf_r
                0x08016da0     0x1494 /opt/R2P/tools/gcc-arm-none-eabi-4_9-2014q4/bin/../lib/gcc/arm-none-eabi/4.9.3/../../../../arm-none-eabi/lib/armv7e-m/libg.a(lib_a-svfprintf.o)
                0x08016da0                _svfprintf_r
 *fill*         0x08018234        0xc 
 .text.__register_exitproc
                0x08018240       0xa4 /opt/R2P/tools/gcc-arm-none-eabi-4_9-2014q4/bin/../lib/gcc/arm-none-eabi/4.9.3/../../../../arm-none-eabi/lib/armv7e-m/libg.a(lib_a-__atexit.o)
                0x08018240                __register_exitproc
 *fill*         0x080182e4        0xc 
 .text.quorem   0x080182f0      0x12c /opt/R2P/tools/gcc-arm-none-eabi-4_9-2014q4/bin/../lib/gcc/arm-none-eabi/4.9.3/../../../../arm-none-eabi/lib/armv7e-m/libg.a(lib_a-dtoa.o)
 *fill*         0x0801841c        0x4 
 .text._dtoa_r  0x08018420      0xe98 /opt/R2P/tools/gcc-arm-none-eabi-4_9-2014q4/bin/../lib/gcc/arm-none-eabi/4.9.3/../../../../arm-none-eabi/lib/armv7e-m/libg.a(lib_a-dtoa.o)
                0x08018420                _dtoa_r
 *fill*         0x080192b8        0x8 
 .text._setlocale_r
                0x080192c0       0x44 /opt/R2P/tools/gcc-arm-none-eabi-4_9-2014q4/bin/../lib/gcc/arm-none-eabi/4.9.3/../../../../arm-none-eabi/lib/armv7e-m/libg.a(lib_a-locale.o)
                0x080192c0                _setlocale_r
 *fill*         0x08019304        0xc 
 .text.__locale_charset
                0x08019310        0x8 /opt/R2P/tools/gcc-arm-none-eabi-4_9-2014q4/bin/../lib/gcc/arm-none-eabi/4.9.3/../../../../arm-none-eabi/lib/armv7e-m/libg.a(lib_a-locale.o)
                0x08019310                __locale_charset
 *fill*         0x08019318        0x8 
 .text.__locale_mb_cur_max
                0x08019320        0xc /opt/R2P/tools/gcc-arm-none-eabi-4_9-2014q4/bin/../lib/gcc/arm-none-eabi/4.9.3/../../../../arm-none-eabi/lib/armv7e-m/libg.a(lib_a-locale.o)
                0x08019320                __locale_mb_cur_max
 *fill*         0x0801932c        0x4 
 .text.__locale_msgcharset
                0x08019330        0x8 /opt/R2P/tools/gcc-arm-none-eabi-4_9-2014q4/bin/../lib/gcc/arm-none-eabi/4.9.3/../../../../arm-none-eabi/lib/armv7e-m/libg.a(lib_a-locale.o)
                0x08019330                __locale_msgcharset
 *fill*         0x08019338        0x8 
 .text.__locale_cjk_lang
                0x08019340        0x4 /opt/R2P/tools/gcc-arm-none-eabi-4_9-2014q4/bin/../lib/gcc/arm-none-eabi/4.9.3/../../../../arm-none-eabi/lib/armv7e-m/libg.a(lib_a-locale.o)
                0x08019340                __locale_cjk_lang
 *fill*         0x08019344        0xc 
 .text._localeconv_r
                0x08019350        0x8 /opt/R2P/tools/gcc-arm-none-eabi-4_9-2014q4/bin/../lib/gcc/arm-none-eabi/4.9.3/../../../../arm-none-eabi/lib/armv7e-m/libg.a(lib_a-locale.o)
                0x08019350                _localeconv_r
 *fill*         0x08019358        0x8 
 .text.setlocale
                0x08019360       0x10 /opt/R2P/tools/gcc-arm-none-eabi-4_9-2014q4/bin/../lib/gcc/arm-none-eabi/4.9.3/../../../../arm-none-eabi/lib/armv7e-m/libg.a(lib_a-locale.o)
                0x08019360                setlocale
 .text.localeconv
                0x08019370        0x8 /opt/R2P/tools/gcc-arm-none-eabi-4_9-2014q4/bin/../lib/gcc/arm-none-eabi/4.9.3/../../../../arm-none-eabi/lib/armv7e-m/libg.a(lib_a-locale.o)
                0x08019370                localeconv
 *fill*         0x08019378        0x8 
 .text._malloc_r
                0x08019380      0x51c /opt/R2P/tools/gcc-arm-none-eabi-4_9-2014q4/bin/../lib/gcc/arm-none-eabi/4.9.3/../../../../arm-none-eabi/lib/armv7e-m/libg.a(lib_a-mallocr.o)
                0x08019380                _malloc_r
 *fill*         0x0801989c        0x4 
 .text.memchr   0x080198a0       0x94 /opt/R2P/tools/gcc-arm-none-eabi-4_9-2014q4/bin/../lib/gcc/arm-none-eabi/4.9.3/../../../../arm-none-eabi/lib/armv7e-m/libg.a(lib_a-memchr.o)
                0x080198a0                memchr
 *fill*         0x08019934        0xc 
 .text.__malloc_lock
                0x08019940        0x4 /opt/R2P/tools/gcc-arm-none-eabi-4_9-2014q4/bin/../lib/gcc/arm-none-eabi/4.9.3/../../../../arm-none-eabi/lib/armv7e-m/libg.a(lib_a-mlock.o)
                0x08019940                __malloc_lock
 *fill*         0x08019944        0xc 
 .text.__malloc_unlock
                0x08019950        0x4 /opt/R2P/tools/gcc-arm-none-eabi-4_9-2014q4/bin/../lib/gcc/arm-none-eabi/4.9.3/../../../../arm-none-eabi/lib/armv7e-m/libg.a(lib_a-mlock.o)
                0x08019950                __malloc_unlock
 *fill*         0x08019954        0xc 
 .text._Balloc  0x08019960       0x4c /opt/R2P/tools/gcc-arm-none-eabi-4_9-2014q4/bin/../lib/gcc/arm-none-eabi/4.9.3/../../../../arm-none-eabi/lib/armv7e-m/libg.a(lib_a-mprec.o)
                0x08019960                _Balloc
 *fill*         0x080199ac        0x4 
 .text._Bfree   0x080199b0       0x14 /opt/R2P/tools/gcc-arm-none-eabi-4_9-2014q4/bin/../lib/gcc/arm-none-eabi/4.9.3/../../../../arm-none-eabi/lib/armv7e-m/libg.a(lib_a-mprec.o)
                0x080199b0                _Bfree
 *fill*         0x080199c4        0xc 
 .text.__multadd
                0x080199d0       0x84 /opt/R2P/tools/gcc-arm-none-eabi-4_9-2014q4/bin/../lib/gcc/arm-none-eabi/4.9.3/../../../../arm-none-eabi/lib/armv7e-m/libg.a(lib_a-mprec.o)
                0x080199d0                __multadd
 *fill*         0x08019a54        0xc 
 .text.__s2b    0x08019a60       0x98 /opt/R2P/tools/gcc-arm-none-eabi-4_9-2014q4/bin/../lib/gcc/arm-none-eabi/4.9.3/../../../../arm-none-eabi/lib/armv7e-m/libg.a(lib_a-mprec.o)
                0x08019a60                __s2b
 *fill*         0x08019af8        0x8 
 .text.__hi0bits
                0x08019b00       0x40 /opt/R2P/tools/gcc-arm-none-eabi-4_9-2014q4/bin/../lib/gcc/arm-none-eabi/4.9.3/../../../../arm-none-eabi/lib/armv7e-m/libg.a(lib_a-mprec.o)
                0x08019b00                __hi0bits
 .text.__lo0bits
                0x08019b40       0x5c /opt/R2P/tools/gcc-arm-none-eabi-4_9-2014q4/bin/../lib/gcc/arm-none-eabi/4.9.3/../../../../arm-none-eabi/lib/armv7e-m/libg.a(lib_a-mprec.o)
                0x08019b40                __lo0bits
 *fill*         0x08019b9c        0x4 
 .text.__i2b    0x08019ba0       0x14 /opt/R2P/tools/gcc-arm-none-eabi-4_9-2014q4/bin/../lib/gcc/arm-none-eabi/4.9.3/../../../../arm-none-eabi/lib/armv7e-m/libg.a(lib_a-mprec.o)
                0x08019ba0                __i2b
 *fill*         0x08019bb4        0xc 
 .text.__multiply
                0x08019bc0      0x134 /opt/R2P/tools/gcc-arm-none-eabi-4_9-2014q4/bin/../lib/gcc/arm-none-eabi/4.9.3/../../../../arm-none-eabi/lib/armv7e-m/libg.a(lib_a-mprec.o)
                0x08019bc0                __multiply
 *fill*         0x08019cf4        0xc 
 .text.__pow5mult
                0x08019d00       0xa0 /opt/R2P/tools/gcc-arm-none-eabi-4_9-2014q4/bin/../lib/gcc/arm-none-eabi/4.9.3/../../../../arm-none-eabi/lib/armv7e-m/libg.a(lib_a-mprec.o)
                0x08019d00                __pow5mult
 .text.__lshift
                0x08019da0       0xac /opt/R2P/tools/gcc-arm-none-eabi-4_9-2014q4/bin/../lib/gcc/arm-none-eabi/4.9.3/../../../../arm-none-eabi/lib/armv7e-m/libg.a(lib_a-mprec.o)
                0x08019da0                __lshift
 *fill*         0x08019e4c        0x4 
 .text.__mcmp   0x08019e50       0x48 /opt/R2P/tools/gcc-arm-none-eabi-4_9-2014q4/bin/../lib/gcc/arm-none-eabi/4.9.3/../../../../arm-none-eabi/lib/armv7e-m/libg.a(lib_a-mprec.o)
                0x08019e50                __mcmp
 *fill*         0x08019e98        0x8 
 .text.__mdiff  0x08019ea0       0xd4 /opt/R2P/tools/gcc-arm-none-eabi-4_9-2014q4/bin/../lib/gcc/arm-none-eabi/4.9.3/../../../../arm-none-eabi/lib/armv7e-m/libg.a(lib_a-mprec.o)
                0x08019ea0                __mdiff
 *fill*         0x08019f74        0xc 
 .text.__ulp    0x08019f80       0x40 /opt/R2P/tools/gcc-arm-none-eabi-4_9-2014q4/bin/../lib/gcc/arm-none-eabi/4.9.3/../../../../arm-none-eabi/lib/armv7e-m/libg.a(lib_a-mprec.o)
                0x08019f80                __ulp
 .text.__b2d    0x08019fc0       0xc4 /opt/R2P/tools/gcc-arm-none-eabi-4_9-2014q4/bin/../lib/gcc/arm-none-eabi/4.9.3/../../../../arm-none-eabi/lib/armv7e-m/libg.a(lib_a-mprec.o)
                0x08019fc0                __b2d
 *fill*         0x0801a084        0xc 
 .text.__d2b    0x0801a090       0xb8 /opt/R2P/tools/gcc-arm-none-eabi-4_9-2014q4/bin/../lib/gcc/arm-none-eabi/4.9.3/../../../../arm-none-eabi/lib/armv7e-m/libg.a(lib_a-mprec.o)
                0x0801a090                __d2b
 *fill*         0x0801a148        0x8 
 .text.__ratio  0x0801a150       0x58 /opt/R2P/tools/gcc-arm-none-eabi-4_9-2014q4/bin/../lib/gcc/arm-none-eabi/4.9.3/../../../../arm-none-eabi/lib/armv7e-m/libg.a(lib_a-mprec.o)
                0x0801a150                __ratio
 *fill*         0x0801a1a8        0x8 
 .text._mprec_log10
                0x0801a1b0       0x34 /opt/R2P/tools/gcc-arm-none-eabi-4_9-2014q4/bin/../lib/gcc/arm-none-eabi/4.9.3/../../../../arm-none-eabi/lib/armv7e-m/libg.a(lib_a-mprec.o)
                0x0801a1b0                _mprec_log10
 *fill*         0x0801a1e4        0xc 
 .text.__copybits
                0x0801a1f0       0x48 /opt/R2P/tools/gcc-arm-none-eabi-4_9-2014q4/bin/../lib/gcc/arm-none-eabi/4.9.3/../../../../arm-none-eabi/lib/armv7e-m/libg.a(lib_a-mprec.o)
                0x0801a1f0                __copybits
 *fill*         0x0801a238        0x8 
 .text.__any_on
                0x0801a240       0x60 /opt/R2P/tools/gcc-arm-none-eabi-4_9-2014q4/bin/../lib/gcc/arm-none-eabi/4.9.3/../../../../arm-none-eabi/lib/armv7e-m/libg.a(lib_a-mprec.o)
                0x0801a240                __any_on
 .text.__fpclassifyd
                0x0801a2a0       0x58 /opt/R2P/tools/gcc-arm-none-eabi-4_9-2014q4/bin/../lib/gcc/arm-none-eabi/4.9.3/../../../../arm-none-eabi/lib/armv7e-m/libg.a(lib_a-s_fpclassify.o)
                0x0801a2a0                __fpclassifyd
 *fill*         0x0801a2f8        0x8 
 .text.strlen   0x0801a300       0x5c /opt/R2P/tools/gcc-arm-none-eabi-4_9-2014q4/bin/../lib/gcc/arm-none-eabi/4.9.3/../../../../arm-none-eabi/lib/armv7e-m/libg.a(lib_a-strlen.o)
                0x0801a300                strlen
 *fill*         0x0801a35c        0x4 
 .text.__ssprint_r
                0x0801a360      0x104 /opt/R2P/tools/gcc-arm-none-eabi-4_9-2014q4/bin/../lib/gcc/arm-none-eabi/4.9.3/../../../../arm-none-eabi/lib/armv7e-m/libg.a(lib_a-svfiprintf.o)
                0x0801a360                __ssprint_r
 *fill*         0x0801a464        0xc 
 .text._svfiprintf_r
                0x0801a470      0xa94 /opt/R2P/tools/gcc-arm-none-eabi-4_9-2014q4/bin/../lib/gcc/arm-none-eabi/4.9.3/../../../../arm-none-eabi/lib/armv7e-m/libg.a(lib_a-svfiprintf.o)
                0x0801a470                _svfiprintf_r
 *fill*         0x0801af04        0xc 
 .text._calloc_r
                0x0801af10       0x60 /opt/R2P/tools/gcc-arm-none-eabi-4_9-2014q4/bin/../lib/gcc/arm-none-eabi/4.9.3/../../../../arm-none-eabi/lib/armv7e-m/libg.a(lib_a-callocr.o)
                0x0801af10                _calloc_r
 .text._malloc_trim_r
                0x0801af70       0x9c /opt/R2P/tools/gcc-arm-none-eabi-4_9-2014q4/bin/../lib/gcc/arm-none-eabi/4.9.3/../../../../arm-none-eabi/lib/armv7e-m/libg.a(lib_a-freer.o)
                0x0801af70                _malloc_trim_r
 *fill*         0x0801b00c        0x4 
 .text._free_r  0x0801b010      0x1b0 /opt/R2P/tools/gcc-arm-none-eabi-4_9-2014q4/bin/../lib/gcc/arm-none-eabi/4.9.3/../../../../arm-none-eabi/lib/armv7e-m/libg.a(lib_a-freer.o)
                0x0801b010                _free_r
 .text.memmove  0x0801b1c0       0xc8 /opt/R2P/tools/gcc-arm-none-eabi-4_9-2014q4/bin/../lib/gcc/arm-none-eabi/4.9.3/../../../../arm-none-eabi/lib/armv7e-m/libg.a(lib_a-memmove.o)
                0x0801b1c0                memmove
 *fill*         0x0801b288        0x8 
 .text._realloc_r
                0x0801b290      0x3ec /opt/R2P/tools/gcc-arm-none-eabi-4_9-2014q4/bin/../lib/gcc/arm-none-eabi/4.9.3/../../../../arm-none-eabi/lib/armv7e-m/libg.a(lib_a-reallocr.o)
                0x0801b290                _realloc_r
 *(.rodata)
 *fill*         0x0801b67c        0x4 
 .rodata        0x0801b680        0x8 build/obj/chsys.o
 *fill*         0x0801b688        0x8 
 .rodata        0x0801b690       0x58 build/obj/chdebug.o
 *fill*         0x0801b6e8        0x8 
 .rodata        0x0801b6f0       0x34 build/obj/chvt.o
 *fill*         0x0801b724        0xc 
 .rodata        0x0801b730       0x24 build/obj/chschd.o
 *fill*         0x0801b754        0xc 
 .rodata        0x0801b760       0x94 build/obj/chthreads.o
 *fill*         0x0801b7f4        0xc 
 .rodata        0x0801b800       0x48 build/obj/chdynamic.o
 *fill*         0x0801b848        0x8 
 .rodata        0x0801b850       0x30 build/obj/chregistry.o
                0x0801b850                ch_debug
 .rodata        0x0801b880      0x148 build/obj/chsem.o
 *fill*         0x0801b9c8        0x8 
 .rodata        0x0801b9d0       0xac build/obj/chmtx.o
 *fill*         0x0801ba7c        0x4 
 .rodata        0x0801ba80       0xa8 build/obj/chcond.o
 *fill*         0x0801bb28        0x8 
 .rodata        0x0801bb30       0x90 build/obj/chevents.o
 .rodata        0x0801bbc0       0x24 build/obj/chmsg.o
 *fill*         0x0801bbe4        0xc 
 .rodata        0x0801bbf0       0x88 build/obj/chmboxes.o
 *fill*         0x0801bc78        0x8 
 .rodata        0x0801bc80       0x2c build/obj/chqueues.o
 *fill*         0x0801bcac        0x4 
 .rodata        0x0801bcb0       0x34 build/obj/chheap.o
 *fill*         0x0801bce4        0xc 
 .rodata        0x0801bcf0       0x48 build/obj/chmempools.o
 *fill*         0x0801bd38        0x8 
 .rodata        0x0801bd40       0xec build/obj/i2c.o
 *fill*         0x0801be2c        0x4 
 .rodata        0x0801be30       0x34 build/obj/pal.o
 *fill*         0x0801be64        0xc 
 .rodata        0x0801be70       0x80 build/obj/serial.o
 .rodata        0x0801bef0       0x5c build/obj/serial_usb.o
 *fill*         0x0801bf4c        0x4 
 .rodata        0x0801bf50      0x238 build/obj/spi.o
 *fill*         0x0801c188        0x8 
 .rodata        0x0801c190      0x130 build/obj/usb.o
 .rodata        0x0801c2c0       0xd8 build/obj/stm32_dma.o
                0x0801c2c0                _stm32_dma_streams
 *fill*         0x0801c398        0x8 
 .rodata        0x0801c3a0       0x70 build/obj/i2c_lld.o
 .rodata        0x0801c410       0x28 build/obj/spi_lld.o
 *fill*         0x0801c438        0x8 
 .rodata        0x0801c440       0x10 build/obj/serial_lld.o
 .rodata        0x0801c450       0x38 build/obj/usb_lld.o
 *fill*         0x0801c488        0x8 
 .rodata        0x0801c490       0xa8 build/obj/board.o
                0x0801c490                pal_default_config
 *fill*         0x0801c538        0x8 
 .rodata        0x0801c540        0xc build/obj/syscalls.o
 *fill*         0x0801c54c        0x4 
 .rodata        0x0801c550        0x8 build/obj/chprintf.o
 *fill*         0x0801c558        0x8 
 .rodata        0x0801c560       0x10 build/obj/memstreams.o
 .rodata        0x0801c570      0x21c build/obj/shell.o
 *fill*         0x0801c78c        0x4 
 .rodata        0x0801c790       0x44 build/obj/rtcan.o
 *fill*         0x0801c7d4        0xc 
 .rodata        0x0801c7e0       0x68 build/obj/msgqueue.o
 *fill*         0x0801c848        0x8 
 .rodata        0x0801c850      0x154 build/obj/usbcfg.o
                0x0801c98c                usbcfg
                0x0801c99c                serusbcfg
 *fill*         0x0801c9a4        0xc 
 .rodata        0x0801c9b0       0x10 build/obj/SimplePool_.o
 .rodata        0x0801c9c0       0x10 build/obj/StaticList_.o
 .rodata        0x0801c9d0       0x10 build/obj/StaticQueue_.o
 .rodata        0x0801c9e0       0x10 build/obj/BasePublisher.o
 .rodata        0x0801c9f0       0x10 build/obj/BaseSubscriber.o
 .rodata        0x0801ca00       0x38 build/obj/LocalSubscriber.o
                0x0801ca10                vtable for r2p::LocalSubscriber
 *fill*         0x0801ca38        0x8 
 .rodata        0x0801ca40       0x10 build/obj/MessagePtrQueue.o
 .rodata        0x0801ca50       0x10 build/obj/Message.o
 .rodata        0x0801ca60       0x2c build/obj/Middleware.o
 *fill*         0x0801ca8c        0x4 
 .rodata        0x0801ca90       0x10 build/obj/Node.o
 .rodata        0x0801caa0       0x10 build/obj/TimestampedMsgPtrQueue.o
 .rodata        0x0801cab0       0x10 build/obj/Topic.o
 .rodata        0x0801cac0       0x30 build/obj/Transport.o
                0x0801cad0                vtable for r2p::Transport
 .rodata        0x0801caf0       0x18 build/obj/Bootloader.o
                0x0801cb00                r2p::Bootloader::an_invalid_signature
 *fill*         0x0801cb08        0x8 
 .rodata        0x0801cb10       0x58 build/obj/DebugTransport.o
                0x0801cb48                vtable for r2p::DebugTransport
 *fill*         0x0801cb68        0x8 
 .rodata        0x0801cb70       0x10 build/obj/DebugPublisher.o
                0x0801cb70                vtable for r2p::DebugPublisher
 .rodata        0x0801cb80       0x38 build/obj/DebugSubscriber.o
                0x0801cb90                vtable for r2p::DebugSubscriber
 *fill*         0x0801cbb8        0x8 
 .rodata        0x0801cbc0       0x48 build/obj/RTCANTransport.o
                0x0801cbe8                vtable for r2p::RTCANTransport
 *fill*         0x0801cc08        0x8 
 .rodata        0x0801cc10       0x10 build/obj/RTCANPublisher.o
                0x0801cc10                vtable for r2p::RTCANPublisher
 .rodata        0x0801cc20       0x28 build/obj/RTCANSubscriber.o
                0x0801cc20                vtable for r2p::RTCANSubscriber
 *fill*         0x0801cc48        0x8 
 .rodata        0x0801cc50       0x14 build/obj/Flasher_.o
                0x0801cc50                r2p::Flasher_::erased_word
 *fill*         0x0801cc64        0xc 
 .rodata        0x0801cc70       0x28 build/obj/led.o
 *fill*         0x0801cc98        0x8 
 .rodata        0x0801cca0       0x6c build/obj/main.o
 *(.rodata.*)
 *fill*         0x0801cd0c        0x4 
 .rodata._ZTVN3r2p13BasePublisherE
                0x0801cd10       0x10 build/obj/BasePublisher.o
                0x0801cd10                vtable for r2p::BasePublisher
 .rodata._ZTVN3r2p14BaseSubscriberE
                0x0801cd20       0x28 build/obj/BaseSubscriber.o
                0x0801cd20                vtable for r2p::BaseSubscriber
 *fill*         0x0801cd48        0x8 
 .rodata._ZTVN3r2p14LocalPublisherE
                0x0801cd50       0x10 build/obj/LocalPublisher.o
                0x0801cd50                vtable for r2p::LocalPublisher
 .rodata._ZTVN3r2p9PublisherINS_7BootMsgEEE
                0x0801cd60       0x10 build/obj/Middleware.o
                0x0801cd60                vtable for r2p::Publisher<r2p::BootMsg>
 .rodata._ZTVN3r2p16SubscriberExtBufINS_7BootMsgEEE
                0x0801cd70       0x28 build/obj/Middleware.o
                0x0801cd70                vtable for r2p::SubscriberExtBuf<r2p::BootMsg>
 *fill*         0x0801cd98        0x8 
 .rodata._ZTVN3r2p16SubscriberExtBufINS_7MgmtMsgEEE
                0x0801cda0       0x28 build/obj/Middleware.o
                0x0801cda0                vtable for r2p::SubscriberExtBuf<r2p::MgmtMsg>
 *fill*         0x0801cdc8        0x8 
 .rodata._ZTVN3r2p9PublisherINS_7MgmtMsgEEE
                0x0801cdd0       0x10 build/obj/Middleware.o
                0x0801cdd0                vtable for r2p::Publisher<r2p::MgmtMsg>
 .rodata._ZTVN3r2p15RemotePublisherE
                0x0801cde0       0x10 build/obj/RemotePublisher.o
                0x0801cde0                vtable for r2p::RemotePublisher
 .rodata._ZTVN3r2p16RemoteSubscriberE
                0x0801cdf0       0x28 build/obj/RemoteSubscriber.o
                0x0801cdf0                vtable for r2p::RemoteSubscriber
 *fill*         0x0801ce18        0x8 
 .rodata._ZZN3r2p14DebugTransport9send_byteEhmE3hex
                0x0801ce20       0x10 build/obj/DebugTransport.o
                0x0801ce20                r2p::DebugTransport::send_byte(unsigned char, unsigned long)::hex
 .rodata._ZTVN3r2p10SubscriberINS_6LedMsgELj5EEE
                0x0801ce30       0x28 build/obj/led.o
                0x0801ce30                vtable for r2p::Subscriber<r2p::LedMsg, 5u>
 *fill*         0x0801ce58        0x8 
 .rodata._ZTVN3r2p16SubscriberExtBufINS_6LedMsgEEE
                0x0801ce60       0x28 build/obj/led.o
                0x0801ce60                vtable for r2p::SubscriberExtBuf<r2p::LedMsg>
 *fill*         0x0801ce88        0x8 
 .rodata._ZTVN3r2p9PublisherINS_6LedMsgEEE
                0x0801ce90       0x10 build/obj/led.o
                0x0801ce90                vtable for r2p::Publisher<r2p::LedMsg>
 .rodata._ZTVN3r2p9PublisherINS_11String64MsgEEE
                0x0801cea0       0x10 build/obj/main.o
                0x0801cea0                vtable for r2p::Publisher<r2p::String64Msg>
 .rodata.blanks.6794
                0x0801ceb0       0x10 /opt/R2P/tools/gcc-arm-none-eabi-4_9-2014q4/bin/../lib/gcc/arm-none-eabi/4.9.3/../../../../arm-none-eabi/lib/armv7e-m/libg.a(lib_a-svfprintf.o)
 .rodata.str1.4
                0x0801cec0       0x42 /opt/R2P/tools/gcc-arm-none-eabi-4_9-2014q4/bin/../lib/gcc/arm-none-eabi/4.9.3/../../../../arm-none-eabi/lib/armv7e-m/libg.a(lib_a-svfprintf.o)
                                 0x44 (size before relaxing)
 *fill*         0x0801cf02        0xe 
 .rodata.zeroes.6795
                0x0801cf10       0x10 /opt/R2P/tools/gcc-arm-none-eabi-4_9-2014q4/bin/../lib/gcc/arm-none-eabi/4.9.3/../../../../arm-none-eabi/lib/armv7e-m/libg.a(lib_a-svfprintf.o)
 .rodata._ctype_
                0x0801cf20      0x104 /opt/R2P/tools/gcc-arm-none-eabi-4_9-2014q4/bin/../lib/gcc/arm-none-eabi/4.9.3/../../../../arm-none-eabi/lib/armv7e-m/libg.a(lib_a-ctype_.o)
                0x0801cf20                _ctype_
 *fill*         0x0801d024        0xc 
 .rodata.str1.4
                0x0801d030       0x10 /opt/R2P/tools/gcc-arm-none-eabi-4_9-2014q4/bin/../lib/gcc/arm-none-eabi/4.9.3/../../../../arm-none-eabi/lib/armv7e-m/libg.a(lib_a-dtoa.o)
                                 0x14 (size before relaxing)
 .rodata.str1.4
                0x0801d040        0x2 /opt/R2P/tools/gcc-arm-none-eabi-4_9-2014q4/bin/../lib/gcc/arm-none-eabi/4.9.3/../../../../arm-none-eabi/lib/armv7e-m/libg.a(lib_a-impure.o)
                                  0x4 (size before relaxing)
 *fill*         0x0801d042        0xe 
 .rodata._global_impure_ptr
                0x0801d050        0x4 /opt/R2P/tools/gcc-arm-none-eabi-4_9-2014q4/bin/../lib/gcc/arm-none-eabi/4.9.3/../../../../arm-none-eabi/lib/armv7e-m/libg.a(lib_a-impure.o)
                0x0801d050                _global_impure_ptr
 *fill*         0x0801d054        0xc 
 .rodata.str1.4
                0x0801d060        0xc /opt/R2P/tools/gcc-arm-none-eabi-4_9-2014q4/bin/../lib/gcc/arm-none-eabi/4.9.3/../../../../arm-none-eabi/lib/armv7e-m/libg.a(lib_a-locale.o)
                                 0x14 (size before relaxing)
 *fill*         0x0801d06c        0x4 
 .rodata.__mprec_tens
                0x0801d070       0xc8 /opt/R2P/tools/gcc-arm-none-eabi-4_9-2014q4/bin/../lib/gcc/arm-none-eabi/4.9.3/../../../../arm-none-eabi/lib/armv7e-m/libg.a(lib_a-mprec.o)
                0x0801d070                __mprec_tens
 *fill*         0x0801d138        0x8 
 .rodata.__mprec_bigtens
                0x0801d140       0x28 /opt/R2P/tools/gcc-arm-none-eabi-4_9-2014q4/bin/../lib/gcc/arm-none-eabi/4.9.3/../../../../arm-none-eabi/lib/armv7e-m/libg.a(lib_a-mprec.o)
                0x0801d140                __mprec_bigtens
 *fill*         0x0801d168        0x8 
 .rodata.p05.5265
                0x0801d170        0xc /opt/R2P/tools/gcc-arm-none-eabi-4_9-2014q4/bin/../lib/gcc/arm-none-eabi/4.9.3/../../../../arm-none-eabi/lib/armv7e-m/libg.a(lib_a-mprec.o)
 *fill*         0x0801d17c        0x4 
 .rodata.__mprec_tinytens
                0x0801d180       0x28 /opt/R2P/tools/gcc-arm-none-eabi-4_9-2014q4/bin/../lib/gcc/arm-none-eabi/4.9.3/../../../../arm-none-eabi/lib/armv7e-m/libg.a(lib_a-mprec.o)
                0x0801d180                __mprec_tinytens
 *fill*         0x0801d1a8        0x8 
 .rodata.blanks.6738
                0x0801d1b0       0x10 /opt/R2P/tools/gcc-arm-none-eabi-4_9-2014q4/bin/../lib/gcc/arm-none-eabi/4.9.3/../../../../arm-none-eabi/lib/armv7e-m/libg.a(lib_a-svfiprintf.o)
 .rodata.str1.4
                0x00000000       0x30 /opt/R2P/tools/gcc-arm-none-eabi-4_9-2014q4/bin/../lib/gcc/arm-none-eabi/4.9.3/../../../../arm-none-eabi/lib/armv7e-m/libg.a(lib_a-svfiprintf.o)
 .rodata.zeroes.6739
                0x0801d1c0       0x10 /opt/R2P/tools/gcc-arm-none-eabi-4_9-2014q4/bin/../lib/gcc/arm-none-eabi/4.9.3/../../../../arm-none-eabi/lib/armv7e-m/libg.a(lib_a-svfiprintf.o)
 *(.glue_7t)
 .glue_7t       0x00000000        0x0 linker stubs
 *(.glue_7)
 .glue_7        0x00000000        0x0 linker stubs
 *(.gcc*)
                0x0801d1d0                __config_start__ = .
 *(app_config)
                0x0801d1d0                __config_end__ = .
 *(app_config.*)

.vfp11_veneer   0x0801d1d0        0x0
 .vfp11_veneer  0x00000000        0x0 linker stubs

.v4_bx          0x0801d1d0        0x0
 .v4_bx         0x00000000        0x0 linker stubs

.iplt           0x0801d1d0        0x0
 .iplt          0x00000000        0x0 build/obj/crt0.o

constructors    0x0801d1d0        0x8
                0x0801d1d0                __init_array_start = .
 *(SORT(.init_array.*))
 *(.init_array)
 .init_array    0x0801d1d0        0x4 build/obj/Time.o
 .init_array    0x0801d1d4        0x4 build/obj/main.o
                0x0801d1d8                __init_array_end = .

destructors     0x0801d1d8        0x0
                0x0801d1d8                __fini_array_start = .
 *(.fini_array)
 *(SORT(.fini_array.*))
                0x0801d1d8                __fini_array_end = .

.ARM.extab      0x0801d1d8        0x0
 *(.ARM.extab* .gnu.linkonce.armextab.*)
 .ARM.extab     0x0801d1d8        0x0 /opt/R2P/tools/gcc-arm-none-eabi-4_9-2014q4/bin/../lib/gcc/arm-none-eabi/4.9.3/armv7e-m/libgcc.a(_divdi3.o)
 .ARM.extab     0x0801d1d8        0x0 /opt/R2P/tools/gcc-arm-none-eabi-4_9-2014q4/bin/../lib/gcc/arm-none-eabi/4.9.3/armv7e-m/libgcc.a(_udivdi3.o)

.ARM.exidx      0x0801d1d8        0x8
                0x0801d1d8                PROVIDE (__exidx_start, .)
 *(.ARM.exidx* .gnu.linkonce.armexidx.*)
 .ARM.exidx     0x0801d1d8        0x8 /opt/R2P/tools/gcc-arm-none-eabi-4_9-2014q4/bin/../lib/gcc/arm-none-eabi/4.9.3/armv7e-m/libgcc.a(_divdi3.o)
 .ARM.exidx     0x0801d1e0        0x0 /opt/R2P/tools/gcc-arm-none-eabi-4_9-2014q4/bin/../lib/gcc/arm-none-eabi/4.9.3/armv7e-m/libgcc.a(_udivdi3.o)
                                  0x8 (size before relaxing)
                0x0801d1e0                PROVIDE (__exidx_end, .)

.eh_frame_hdr
 *(.eh_frame_hdr)

.eh_frame       0x0801d1e0       0x70
 *(.eh_frame)
 .eh_frame      0x0801d1e0       0x70 /opt/R2P/tools/gcc-arm-none-eabi-4_9-2014q4/bin/../lib/gcc/arm-none-eabi/4.9.3/../../../../arm-none-eabi/lib/armv7e-m/libg.a(lib_a-strcmp.o)

.rel.dyn        0x0801d250        0x0
 .rel.iplt      0x00000000        0x0 build/obj/crt0.o

.textalign      0x0801d250        0x0
                0x0801d250                . = ALIGN (0x10)
 *fill*         0x0801d250        0x0 
                0x0801d250                _etext = .
                0x0801d250                __text_end__ = .
                0x0801d250                _textdata = _etext

.stacks         0x20000000      0x800
                0x20000000                . = ALIGN (0x8)
                0x20000000                __main_stack_base__ = .
                0x20000400                . = (. + __main_stack_size__)
 *fill*         0x20000000      0x400 
                0x20000400                . = ALIGN (0x8)
                0x20000400                __main_stack_end__ = .
                0x20000400                __process_stack_base__ = .
                0x20000400                __main_thread_stack_base__ = .
                0x20000800                . = (. + __process_stack_size__)
 *fill*         0x20000400      0x400 
                0x20000800                . = ALIGN (0x8)
                0x20000800                __process_stack_end__ = .
                0x20000800                __main_thread_stack_end__ = .

.data           0x20000800      0x8e8 load address 0x0801d250
                0x20000800                . = ALIGN (0x4)
                0x20000800                PROVIDE (_data, .)
                0x20000800                __data_start__ = .
 *(.data)
 .data          0x20000800        0x0 build/obj/crt0.o
 .data          0x20000800        0x0 build/obj/vectors.o
 .data          0x20000800        0x0 build/obj/chcore.o
 .data          0x20000800        0x0 build/obj/chcore_v7m.o
 .data          0x20000800        0x0 build/obj/nvic.o
 .data          0x20000800        0x0 build/obj/chsys.o
 .data          0x20000800        0x0 build/obj/chdebug.o
 .data          0x20000800        0x0 build/obj/chlists.o
 .data          0x20000800        0x0 build/obj/chvt.o
 .data          0x20000800        0x0 build/obj/chschd.o
 .data          0x20000800        0x0 build/obj/chthreads.o
 .data          0x20000800        0x0 build/obj/chdynamic.o
 .data          0x20000800        0x0 build/obj/chregistry.o
 .data          0x20000800        0x0 build/obj/chsem.o
 .data          0x20000800        0x0 build/obj/chmtx.o
 .data          0x20000800        0x0 build/obj/chcond.o
 .data          0x20000800        0x0 build/obj/chevents.o
 .data          0x20000800        0x0 build/obj/chmsg.o
 .data          0x20000800        0x0 build/obj/chmboxes.o
 .data          0x20000800        0x0 build/obj/chqueues.o
 .data          0x20000800        0x0 build/obj/chmemcore.o
 .data          0x20000800        0x0 build/obj/chheap.o
 .data          0x20000800        0x0 build/obj/chmempools.o
 .data          0x20000800        0x0 build/obj/hal.o
 .data          0x20000800        0x0 build/obj/adc.o
 .data          0x20000800        0x0 build/obj/can.o
 .data          0x20000800        0x0 build/obj/ext.o
 .data          0x20000800        0x0 build/obj/gpt.o
 .data          0x20000800        0x0 build/obj/i2c.o
 .data          0x20000800        0x0 build/obj/icu.o
 .data          0x20000800        0x0 build/obj/mac.o
 .data          0x20000800        0x0 build/obj/mmc_spi.o
 .data          0x20000800        0x0 build/obj/mmcsd.o
 .data          0x20000800        0x0 build/obj/pal.o
 .data          0x20000800        0x0 build/obj/pwm.o
 .data          0x20000800        0x0 build/obj/rtc.o
 .data          0x20000800        0x0 build/obj/sdc.o
 .data          0x20000800        0x0 build/obj/serial.o
 .data          0x20000800        0x8 build/obj/serial_usb.o
 .data          0x20000808        0x0 build/obj/spi.o
 .data          0x20000808        0x0 build/obj/tm.o
 .data          0x20000808        0x0 build/obj/uart.o
 .data          0x20000808        0x0 build/obj/usb.o
 .data          0x20000808        0x0 build/obj/stm32_dma.o
 .data          0x20000808        0x0 build/obj/hal_lld.o
 .data          0x20000808        0x0 build/obj/adc_lld.o
 .data          0x20000808        0x0 build/obj/ext_lld_isr.o
 .data          0x20000808        0x0 build/obj/can_lld.o
 .data          0x20000808        0x0 build/obj/ext_lld.o
 .data          0x20000808        0x0 build/obj/pal_lld.o
 .data          0x20000808        0x0 build/obj/i2c_lld.o
 .data          0x20000808        0x0 build/obj/rtc_lld.o
 .data          0x20000808        0x0 build/obj/spi_lld.o
 .data          0x20000808        0x0 build/obj/gpt_lld.o
 .data          0x20000808        0x0 build/obj/icu_lld.o
 .data          0x20000808        0x0 build/obj/pwm_lld.o
 .data          0x20000808        0x0 build/obj/serial_lld.o
 .data          0x20000808        0x0 build/obj/uart_lld.o
 .data          0x20000808        0x0 build/obj/usb_lld.o
 .data          0x20000808        0x0 build/obj/board.o
 .data          0x20000808        0x0 build/obj/evtimer.o
 .data          0x20000808        0x0 build/obj/syscalls.o
 .data          0x20000808        0x0 build/obj/chprintf.o
 .data          0x20000808        0x0 build/obj/memstreams.o
 .data          0x20000808       0x18 build/obj/shell.o
 .data          0x20000820        0x0 build/obj/rtcan.o
 .data          0x20000820        0x0 build/obj/msgqueue.o
 .data          0x20000820        0x0 build/obj/hrt.o
 .data          0x20000820        0x0 build/obj/srt.o
 .data          0x20000820        0x0 build/obj/rtcan_lld_can.o
 .data          0x20000820        0x0 build/obj/rtcan_lld_tim.o
 .data          0x20000820        0x0 build/obj/stubs.o
 .data          0x20000820        0x0 build/obj/usbcfg.o
 .data          0x20000820        0x0 build/obj/ArrayQueue_.o
 .data          0x20000820        0x0 build/obj/SimplePool_.o
 .data          0x20000820        0x0 build/obj/StaticList_.o
 .data          0x20000820        0x0 build/obj/StaticQueue_.o
 .data          0x20000820        0x0 build/obj/BasePublisher.o
 .data          0x20000820        0x0 build/obj/BaseSubscriber.o
 .data          0x20000820        0x0 build/obj/BaseSubscriberQueue.o
 .data          0x20000820        0x0 build/obj/BootMsg.o
 .data          0x20000820        0x0 build/obj/Checksummer.o
 .data          0x20000820        0x0 build/obj/LocalPublisher.o
 .data          0x20000820        0x0 build/obj/LocalSubscriber.o
 .data          0x20000820        0x0 build/obj/MessagePtrQueue.o
 .data          0x20000820        0x0 build/obj/Message.o
 .data          0x20000820        0x0 build/obj/Middleware.o
 .data          0x20000820        0x0 build/obj/Node.o
 .data          0x20000820        0x0 build/obj/RemotePublisher.o
 .data          0x20000820        0x0 build/obj/RemoteSubscriber.o
 .data          0x20000820        0x0 build/obj/Time.o
 .data          0x20000820        0x0 build/obj/TimestampedMsgPtrQueue.o
 .data          0x20000820        0x0 build/obj/Topic.o
 .data          0x20000820        0x0 build/obj/Transport.o
 .data          0x20000820        0x0 build/obj/Utils.o
 .data          0x20000820        0x0 build/obj/Bootloader.o
 .data          0x20000820        0x0 build/obj/DebugTransport.o
 .data          0x20000820        0x0 build/obj/DebugPublisher.o
 .data          0x20000820        0x0 build/obj/DebugSubscriber.o
 .data          0x20000820        0x0 build/obj/RTCANTransport.o
 .data          0x20000820        0x0 build/obj/RTCANPublisher.o
 .data          0x20000820        0x0 build/obj/RTCANSubscriber.o
 .data          0x20000820        0x0 build/obj/Middleware_.o
 .data          0x20000820        0x0 build/obj/Time_.o
 .data          0x20000820        0x0 build/obj/Bootloader_.o
 .data          0x20000820        0x0 build/obj/Flasher_.o
 .data          0x20000820        0xc build/obj/led.o
                0x20000820                r2p::default_ledpub_conf
                0x20000828                r2p::default_ledsub_conf
 .data          0x2000082c        0x0 build/obj/chnew.o
 .data          0x2000082c        0x0 build/obj/main.o
 .data          0x2000082c        0x0 /opt/R2P/tools/gcc-arm-none-eabi-4_9-2014q4/bin/../lib/gcc/arm-none-eabi/4.9.3/armv7e-m/libgcc.a(_arm_addsubdf3.o)
 .data          0x2000082c        0x0 /opt/R2P/tools/gcc-arm-none-eabi-4_9-2014q4/bin/../lib/gcc/arm-none-eabi/4.9.3/armv7e-m/libgcc.a(_arm_muldivdf3.o)
 .data          0x2000082c        0x0 /opt/R2P/tools/gcc-arm-none-eabi-4_9-2014q4/bin/../lib/gcc/arm-none-eabi/4.9.3/armv7e-m/libgcc.a(_arm_fixdfsi.o)
 .data          0x2000082c        0x0 /opt/R2P/tools/gcc-arm-none-eabi-4_9-2014q4/bin/../lib/gcc/arm-none-eabi/4.9.3/armv7e-m/libgcc.a(_arm_truncdfsf2.o)
 .data          0x2000082c        0x0 /opt/R2P/tools/gcc-arm-none-eabi-4_9-2014q4/bin/../lib/gcc/arm-none-eabi/4.9.3/armv7e-m/libgcc.a(_arm_cmpsf2.o)
 .data          0x2000082c        0x0 /opt/R2P/tools/gcc-arm-none-eabi-4_9-2014q4/bin/../lib/gcc/arm-none-eabi/4.9.3/../../../../arm-none-eabi/lib/armv7e-m/libg.a(lib_a-aeabi_atexit.o)
 .data          0x2000082c        0x0 /opt/R2P/tools/gcc-arm-none-eabi-4_9-2014q4/bin/../lib/gcc/arm-none-eabi/4.9.3/../../../../arm-none-eabi/lib/armv7e-m/libg.a(lib_a-cxa_atexit.o)
 .data          0x2000082c        0x0 /opt/R2P/tools/gcc-arm-none-eabi-4_9-2014q4/bin/../lib/gcc/arm-none-eabi/4.9.3/../../../../arm-none-eabi/lib/armv7e-m/libg.a(lib_a-memcpy.o)
 .data          0x2000082c        0x0 /opt/R2P/tools/gcc-arm-none-eabi-4_9-2014q4/bin/../lib/gcc/arm-none-eabi/4.9.3/../../../../arm-none-eabi/lib/armv7e-m/libg.a(lib_a-memset.o)
 .data          0x2000082c        0x0 /opt/R2P/tools/gcc-arm-none-eabi-4_9-2014q4/bin/../lib/gcc/arm-none-eabi/4.9.3/../../../../arm-none-eabi/lib/armv7e-m/libg.a(lib_a-sprintf.o)
 .data          0x2000082c        0x0 /opt/R2P/tools/gcc-arm-none-eabi-4_9-2014q4/bin/../lib/gcc/arm-none-eabi/4.9.3/../../../../arm-none-eabi/lib/armv7e-m/libg.a(lib_a-strcasecmp.o)
 .data          0x2000082c        0x0 /opt/R2P/tools/gcc-arm-none-eabi-4_9-2014q4/bin/../lib/gcc/arm-none-eabi/4.9.3/../../../../arm-none-eabi/lib/armv7e-m/libg.a(lib_a-strncmp.o)
 .data          0x2000082c        0x0 /opt/R2P/tools/gcc-arm-none-eabi-4_9-2014q4/bin/../lib/gcc/arm-none-eabi/4.9.3/../../../../arm-none-eabi/lib/armv7e-m/libg.a(lib_a-strncpy.o)
 .data          0x2000082c        0x0 /opt/R2P/tools/gcc-arm-none-eabi-4_9-2014q4/bin/../lib/gcc/arm-none-eabi/4.9.3/../../../../arm-none-eabi/lib/armv7e-m/libg.a(lib_a-strnlen.o)
 .data          0x2000082c        0x0 /opt/R2P/tools/gcc-arm-none-eabi-4_9-2014q4/bin/../lib/gcc/arm-none-eabi/4.9.3/../../../../arm-none-eabi/lib/armv7e-m/libg.a(lib_a-strpbrk.o)
 .data          0x2000082c        0x0 /opt/R2P/tools/gcc-arm-none-eabi-4_9-2014q4/bin/../lib/gcc/arm-none-eabi/4.9.3/../../../../arm-none-eabi/lib/armv7e-m/libg.a(lib_a-strspn.o)
 .data          0x2000082c        0x0 /opt/R2P/tools/gcc-arm-none-eabi-4_9-2014q4/bin/../lib/gcc/arm-none-eabi/4.9.3/../../../../arm-none-eabi/lib/armv7e-m/libg.a(lib_a-svfprintf.o)
 .data          0x2000082c        0x0 /opt/R2P/tools/gcc-arm-none-eabi-4_9-2014q4/bin/../lib/gcc/arm-none-eabi/4.9.3/../../../../arm-none-eabi/lib/armv7e-m/libg.a(lib_a-__atexit.o)
 .data          0x2000082c        0x0 /opt/R2P/tools/gcc-arm-none-eabi-4_9-2014q4/bin/../lib/gcc/arm-none-eabi/4.9.3/../../../../arm-none-eabi/lib/armv7e-m/libg.a(lib_a-ctype_.o)
 .data          0x2000082c        0x0 /opt/R2P/tools/gcc-arm-none-eabi-4_9-2014q4/bin/../lib/gcc/arm-none-eabi/4.9.3/../../../../arm-none-eabi/lib/armv7e-m/libg.a(lib_a-dtoa.o)
 .data          0x2000082c        0x0 /opt/R2P/tools/gcc-arm-none-eabi-4_9-2014q4/bin/../lib/gcc/arm-none-eabi/4.9.3/../../../../arm-none-eabi/lib/armv7e-m/libg.a(lib_a-impure.o)
 .data          0x2000082c        0x0 /opt/R2P/tools/gcc-arm-none-eabi-4_9-2014q4/bin/../lib/gcc/arm-none-eabi/4.9.3/../../../../arm-none-eabi/lib/armv7e-m/libg.a(lib_a-locale.o)
 .data          0x2000082c        0x0 /opt/R2P/tools/gcc-arm-none-eabi-4_9-2014q4/bin/../lib/gcc/arm-none-eabi/4.9.3/../../../../arm-none-eabi/lib/armv7e-m/libg.a(lib_a-mallocr.o)
 .data          0x2000082c        0x0 /opt/R2P/tools/gcc-arm-none-eabi-4_9-2014q4/bin/../lib/gcc/arm-none-eabi/4.9.3/../../../../arm-none-eabi/lib/armv7e-m/libg.a(lib_a-memchr.o)
 .data          0x2000082c        0x0 /opt/R2P/tools/gcc-arm-none-eabi-4_9-2014q4/bin/../lib/gcc/arm-none-eabi/4.9.3/../../../../arm-none-eabi/lib/armv7e-m/libg.a(lib_a-mlock.o)
 .data          0x2000082c        0x0 /opt/R2P/tools/gcc-arm-none-eabi-4_9-2014q4/bin/../lib/gcc/arm-none-eabi/4.9.3/../../../../arm-none-eabi/lib/armv7e-m/libg.a(lib_a-mprec.o)
 .data          0x2000082c        0x0 /opt/R2P/tools/gcc-arm-none-eabi-4_9-2014q4/bin/../lib/gcc/arm-none-eabi/4.9.3/../../../../arm-none-eabi/lib/armv7e-m/libg.a(lib_a-s_fpclassify.o)
 .data          0x2000082c        0x0 /opt/R2P/tools/gcc-arm-none-eabi-4_9-2014q4/bin/../lib/gcc/arm-none-eabi/4.9.3/../../../../arm-none-eabi/lib/armv7e-m/libg.a(lib_a-strcmp.o)
 .data          0x2000082c        0x0 /opt/R2P/tools/gcc-arm-none-eabi-4_9-2014q4/bin/../lib/gcc/arm-none-eabi/4.9.3/../../../../arm-none-eabi/lib/armv7e-m/libg.a(lib_a-strlen.o)
 .data          0x2000082c        0x0 /opt/R2P/tools/gcc-arm-none-eabi-4_9-2014q4/bin/../lib/gcc/arm-none-eabi/4.9.3/../../../../arm-none-eabi/lib/armv7e-m/libg.a(lib_a-svfiprintf.o)
 .data          0x2000082c        0x0 /opt/R2P/tools/gcc-arm-none-eabi-4_9-2014q4/bin/../lib/gcc/arm-none-eabi/4.9.3/../../../../arm-none-eabi/lib/armv7e-m/libg.a(lib_a-callocr.o)
 .data          0x2000082c        0x0 /opt/R2P/tools/gcc-arm-none-eabi-4_9-2014q4/bin/../lib/gcc/arm-none-eabi/4.9.3/../../../../arm-none-eabi/lib/armv7e-m/libg.a(lib_a-freer.o)
 .data          0x2000082c        0x0 /opt/R2P/tools/gcc-arm-none-eabi-4_9-2014q4/bin/../lib/gcc/arm-none-eabi/4.9.3/../../../../arm-none-eabi/lib/armv7e-m/libg.a(lib_a-memmove.o)
 .data          0x2000082c        0x0 /opt/R2P/tools/gcc-arm-none-eabi-4_9-2014q4/bin/../lib/gcc/arm-none-eabi/4.9.3/../../../../arm-none-eabi/lib/armv7e-m/libg.a(lib_a-reallocr.o)
 .data          0x2000082c        0x0 /opt/R2P/tools/gcc-arm-none-eabi-4_9-2014q4/bin/../lib/gcc/arm-none-eabi/4.9.3/armv7e-m/libgcc.a(_arm_cmpdf2.o)
 .data          0x2000082c        0x0 /opt/R2P/tools/gcc-arm-none-eabi-4_9-2014q4/bin/../lib/gcc/arm-none-eabi/4.9.3/armv7e-m/libgcc.a(_aeabi_uldivmod.o)
 .data          0x2000082c        0x0 /opt/R2P/tools/gcc-arm-none-eabi-4_9-2014q4/bin/../lib/gcc/arm-none-eabi/4.9.3/armv7e-m/libgcc.a(bpabi.o)
 .data          0x2000082c        0x0 /opt/R2P/tools/gcc-arm-none-eabi-4_9-2014q4/bin/../lib/gcc/arm-none-eabi/4.9.3/armv7e-m/libgcc.a(_dvmd_tls.o)
 .data          0x2000082c        0x0 /opt/R2P/tools/gcc-arm-none-eabi-4_9-2014q4/bin/../lib/gcc/arm-none-eabi/4.9.3/armv7e-m/libgcc.a(_divdi3.o)
 .data          0x2000082c        0x0 /opt/R2P/tools/gcc-arm-none-eabi-4_9-2014q4/bin/../lib/gcc/arm-none-eabi/4.9.3/armv7e-m/libgcc.a(_udivdi3.o)
                0x2000082c                . = ALIGN (0x4)
 *(.data.*)
 .data.__ctype_ptr__
                0x2000082c        0x4 /opt/R2P/tools/gcc-arm-none-eabi-4_9-2014q4/bin/../lib/gcc/arm-none-eabi/4.9.3/../../../../arm-none-eabi/lib/armv7e-m/libg.a(lib_a-ctype_.o)
                0x2000082c                __ctype_ptr__
 .data.impure_data
                0x20000830      0x428 /opt/R2P/tools/gcc-arm-none-eabi-4_9-2014q4/bin/../lib/gcc/arm-none-eabi/4.9.3/../../../../arm-none-eabi/lib/armv7e-m/libg.a(lib_a-impure.o)
 .data._impure_ptr
                0x20000c58        0x4 /opt/R2P/tools/gcc-arm-none-eabi-4_9-2014q4/bin/../lib/gcc/arm-none-eabi/4.9.3/../../../../arm-none-eabi/lib/armv7e-m/libg.a(lib_a-impure.o)
                0x20000c58                _impure_ptr
 .data.lc_message_charset
                0x20000c5c       0x20 /opt/R2P/tools/gcc-arm-none-eabi-4_9-2014q4/bin/../lib/gcc/arm-none-eabi/4.9.3/../../../../arm-none-eabi/lib/armv7e-m/libg.a(lib_a-locale.o)
 .data.lconv    0x20000c7c       0x38 /opt/R2P/tools/gcc-arm-none-eabi-4_9-2014q4/bin/../lib/gcc/arm-none-eabi/4.9.3/../../../../arm-none-eabi/lib/armv7e-m/libg.a(lib_a-locale.o)
 .data.lc_ctype_charset
                0x20000cb4       0x20 /opt/R2P/tools/gcc-arm-none-eabi-4_9-2014q4/bin/../lib/gcc/arm-none-eabi/4.9.3/../../../../arm-none-eabi/lib/armv7e-m/libg.a(lib_a-locale.o)
 .data.__mb_cur_max
                0x20000cd4        0x4 /opt/R2P/tools/gcc-arm-none-eabi-4_9-2014q4/bin/../lib/gcc/arm-none-eabi/4.9.3/../../../../arm-none-eabi/lib/armv7e-m/libg.a(lib_a-locale.o)
                0x20000cd4                __mb_cur_max
 .data.__malloc_av_
                0x20000cd8      0x408 /opt/R2P/tools/gcc-arm-none-eabi-4_9-2014q4/bin/../lib/gcc/arm-none-eabi/4.9.3/../../../../arm-none-eabi/lib/armv7e-m/libg.a(lib_a-mallocr.o)
                0x20000cd8                __malloc_av_
 .data.__malloc_trim_threshold
                0x200010e0        0x4 /opt/R2P/tools/gcc-arm-none-eabi-4_9-2014q4/bin/../lib/gcc/arm-none-eabi/4.9.3/../../../../arm-none-eabi/lib/armv7e-m/libg.a(lib_a-mallocr.o)
                0x200010e0                __malloc_trim_threshold
 .data.__malloc_sbrk_base
                0x200010e4        0x4 /opt/R2P/tools/gcc-arm-none-eabi-4_9-2014q4/bin/../lib/gcc/arm-none-eabi/4.9.3/../../../../arm-none-eabi/lib/armv7e-m/libg.a(lib_a-mallocr.o)
                0x200010e4                __malloc_sbrk_base
                0x200010e8                . = ALIGN (0x4)
 *(.ramtext)
                0x200010e8                . = ALIGN (0x4)
                0x200010e8                PROVIDE (_edata, .)
                0x200010e8                __data_end__ = .

.igot.plt       0x200010e8        0x0 load address 0x0801db38
 .igot.plt      0x00000000        0x0 build/obj/crt0.o

.bss            0x200010e8     0x2368 load address 0x0801db38
                0x200010e8                . = ALIGN (0x4)
                0x200010e8                PROVIDE (_bss_start, .)
                0x200010e8                __bss_start__ = .
 *(.bss)
 .bss           0x200010e8        0x0 build/obj/crt0.o
 .bss           0x200010e8        0x0 build/obj/vectors.o
 .bss           0x200010e8        0x0 build/obj/chcore.o
 .bss           0x200010e8        0x0 build/obj/chcore_v7m.o
 .bss           0x200010e8        0x0 build/obj/nvic.o
 .bss           0x200010e8       0x4c build/obj/chsys.o
 .bss           0x20001134        0x0 build/obj/chdebug.o
 .bss           0x20001134        0x0 build/obj/chlists.o
 .bss           0x20001134        0x0 build/obj/chvt.o
 .bss           0x20001134        0x0 build/obj/chschd.o
 .bss           0x20001134        0x0 build/obj/chthreads.o
 .bss           0x20001134        0x0 build/obj/chdynamic.o
 .bss           0x20001134        0x0 build/obj/chregistry.o
 .bss           0x20001134        0x0 build/obj/chsem.o
 .bss           0x20001134        0x0 build/obj/chmtx.o
 .bss           0x20001134        0x0 build/obj/chcond.o
 .bss           0x20001134        0x0 build/obj/chevents.o
 .bss           0x20001134        0x0 build/obj/chmsg.o
 .bss           0x20001134        0x0 build/obj/chmboxes.o
 .bss           0x20001134        0x0 build/obj/chqueues.o
 .bss           0x20001134        0xc build/obj/chmemcore.o
 .bss           0x20001140       0x20 build/obj/chheap.o
 .bss           0x20001160        0x0 build/obj/chmempools.o
 .bss           0x20001160        0x0 build/obj/hal.o
 .bss           0x20001160        0x0 build/obj/adc.o
 .bss           0x20001160        0x0 build/obj/can.o
 .bss           0x20001160        0x0 build/obj/ext.o
 .bss           0x20001160        0x0 build/obj/gpt.o
 .bss           0x20001160        0x0 build/obj/i2c.o
 .bss           0x20001160        0x0 build/obj/icu.o
 .bss           0x20001160        0x0 build/obj/mac.o
 .bss           0x20001160        0x0 build/obj/mmc_spi.o
 .bss           0x20001160        0x0 build/obj/mmcsd.o
 .bss           0x20001160        0x0 build/obj/pal.o
 .bss           0x20001160        0x0 build/obj/pwm.o
 .bss           0x20001160        0x0 build/obj/rtc.o
 .bss           0x20001160        0x0 build/obj/sdc.o
 .bss           0x20001160        0x0 build/obj/serial.o
 .bss           0x20001160        0x0 build/obj/serial_usb.o
 .bss           0x20001160        0x0 build/obj/spi.o
 .bss           0x20001160        0x0 build/obj/tm.o
 .bss           0x20001160        0x0 build/obj/uart.o
 .bss           0x20001160        0x0 build/obj/usb.o
 .bss           0x20001160       0x64 build/obj/stm32_dma.o
 .bss           0x200011c4        0x0 build/obj/hal_lld.o
 .bss           0x200011c4        0x0 build/obj/adc_lld.o
 .bss           0x200011c4        0x0 build/obj/ext_lld_isr.o
 .bss           0x200011c4        0x0 build/obj/can_lld.o
 .bss           0x200011c4        0x0 build/obj/ext_lld.o
 .bss           0x200011c4        0x0 build/obj/pal_lld.o
 .bss           0x200011c4        0x0 build/obj/i2c_lld.o
 .bss           0x200011c4        0x0 build/obj/rtc_lld.o
 .bss           0x200011c4        0x4 build/obj/spi_lld.o
 .bss           0x200011c8        0x0 build/obj/gpt_lld.o
 .bss           0x200011c8        0x0 build/obj/icu_lld.o
 .bss           0x200011c8        0x0 build/obj/pwm_lld.o
 .bss           0x200011c8        0x0 build/obj/serial_lld.o
 .bss           0x200011c8        0x0 build/obj/uart_lld.o
 .bss           0x200011c8       0x1c build/obj/usb_lld.o
 .bss           0x200011e4        0x0 build/obj/board.o
 .bss           0x200011e4        0x0 build/obj/evtimer.o
 .bss           0x200011e4        0x0 build/obj/syscalls.o
 .bss           0x200011e4        0x0 build/obj/chprintf.o
 .bss           0x200011e4        0x0 build/obj/memstreams.o
 .bss           0x200011e4        0x0 build/obj/shell.o
 .bss           0x200011e4        0x4 build/obj/rtcan.o
                0x200011e4                last_sync_tim
 .bss           0x200011e8        0x0 build/obj/msgqueue.o
 .bss           0x200011e8        0x0 build/obj/hrt.o
 .bss           0x200011e8        0x0 build/obj/srt.o
 .bss           0x200011e8        0x4 build/obj/rtcan_lld_can.o
 .bss           0x200011ec        0x0 build/obj/rtcan_lld_tim.o
 .bss           0x200011ec        0x0 build/obj/stubs.o
 .bss           0x200011ec       0x34 build/obj/usbcfg.o
 .bss           0x20001220        0x0 build/obj/ArrayQueue_.o
 .bss           0x20001220        0x0 build/obj/SimplePool_.o
 .bss           0x20001220        0x0 build/obj/StaticList_.o
 .bss           0x20001220        0x0 build/obj/StaticQueue_.o
 .bss           0x20001220        0x0 build/obj/BasePublisher.o
 .bss           0x20001220        0x0 build/obj/BaseSubscriber.o
 .bss           0x20001220        0x0 build/obj/BaseSubscriberQueue.o
 .bss           0x20001220        0x0 build/obj/BootMsg.o
 .bss           0x20001220        0x0 build/obj/Checksummer.o
 .bss           0x20001220        0x0 build/obj/LocalPublisher.o
 .bss           0x20001220        0x0 build/obj/LocalSubscriber.o
 .bss           0x20001220        0x0 build/obj/MessagePtrQueue.o
 .bss           0x20001220        0x0 build/obj/Message.o
 .bss           0x20001220        0x0 build/obj/Middleware.o
 .bss           0x20001220        0x0 build/obj/Node.o
 .bss           0x20001220        0x0 build/obj/RemotePublisher.o
 .bss           0x20001220        0x0 build/obj/RemoteSubscriber.o
 .bss           0x20001220        0xc build/obj/Time.o
                0x20001220                r2p::Time::IMMEDIATE
                0x20001224                r2p::Time::INFINITE
                0x20001228                r2p::Time::INFINITEN
 .bss           0x2000122c        0x0 build/obj/TimestampedMsgPtrQueue.o
 .bss           0x2000122c        0x0 build/obj/Topic.o
 .bss           0x2000122c        0x0 build/obj/Transport.o
 .bss           0x2000122c        0x0 build/obj/Utils.o
 .bss           0x2000122c        0x0 build/obj/Bootloader.o
 .bss           0x2000122c        0x0 build/obj/DebugTransport.o
 .bss           0x2000122c        0x0 build/obj/DebugPublisher.o
 .bss           0x2000122c        0x0 build/obj/DebugSubscriber.o
 .bss           0x2000122c        0x0 build/obj/RTCANTransport.o
 .bss           0x2000122c        0x0 build/obj/RTCANPublisher.o
 .bss           0x2000122c        0x0 build/obj/RTCANSubscriber.o
 .bss           0x2000122c        0x0 build/obj/Middleware_.o
 .bss           0x2000122c        0x0 build/obj/Time_.o
 .bss           0x2000122c        0x0 build/obj/Bootloader_.o
 .bss           0x2000122c        0x0 build/obj/Flasher_.o
 .bss           0x2000122c        0x0 build/obj/led.o
 .bss           0x2000122c        0x0 build/obj/chnew.o
 *fill*         0x2000122c        0x4 
 .bss           0x20001230     0x15f8 build/obj/main.o
                0x20002588                r2p::Middleware::instance
 .bss           0x20002828        0x0 /opt/R2P/tools/gcc-arm-none-eabi-4_9-2014q4/bin/../lib/gcc/arm-none-eabi/4.9.3/armv7e-m/libgcc.a(_arm_addsubdf3.o)
 .bss           0x20002828        0x0 /opt/R2P/tools/gcc-arm-none-eabi-4_9-2014q4/bin/../lib/gcc/arm-none-eabi/4.9.3/armv7e-m/libgcc.a(_arm_muldivdf3.o)
 .bss           0x20002828        0x0 /opt/R2P/tools/gcc-arm-none-eabi-4_9-2014q4/bin/../lib/gcc/arm-none-eabi/4.9.3/armv7e-m/libgcc.a(_arm_fixdfsi.o)
 .bss           0x20002828        0x0 /opt/R2P/tools/gcc-arm-none-eabi-4_9-2014q4/bin/../lib/gcc/arm-none-eabi/4.9.3/armv7e-m/libgcc.a(_arm_truncdfsf2.o)
 .bss           0x20002828        0x0 /opt/R2P/tools/gcc-arm-none-eabi-4_9-2014q4/bin/../lib/gcc/arm-none-eabi/4.9.3/armv7e-m/libgcc.a(_arm_cmpsf2.o)
 .bss           0x20002828        0x0 /opt/R2P/tools/gcc-arm-none-eabi-4_9-2014q4/bin/../lib/gcc/arm-none-eabi/4.9.3/../../../../arm-none-eabi/lib/armv7e-m/libg.a(lib_a-aeabi_atexit.o)
 .bss           0x20002828        0x0 /opt/R2P/tools/gcc-arm-none-eabi-4_9-2014q4/bin/../lib/gcc/arm-none-eabi/4.9.3/../../../../arm-none-eabi/lib/armv7e-m/libg.a(lib_a-cxa_atexit.o)
 .bss           0x20002828        0x0 /opt/R2P/tools/gcc-arm-none-eabi-4_9-2014q4/bin/../lib/gcc/arm-none-eabi/4.9.3/../../../../arm-none-eabi/lib/armv7e-m/libg.a(lib_a-memcpy.o)
 .bss           0x20002828        0x0 /opt/R2P/tools/gcc-arm-none-eabi-4_9-2014q4/bin/../lib/gcc/arm-none-eabi/4.9.3/../../../../arm-none-eabi/lib/armv7e-m/libg.a(lib_a-memset.o)
 .bss           0x20002828        0x0 /opt/R2P/tools/gcc-arm-none-eabi-4_9-2014q4/bin/../lib/gcc/arm-none-eabi/4.9.3/../../../../arm-none-eabi/lib/armv7e-m/libg.a(lib_a-sprintf.o)
 .bss           0x20002828        0x0 /opt/R2P/tools/gcc-arm-none-eabi-4_9-2014q4/bin/../lib/gcc/arm-none-eabi/4.9.3/../../../../arm-none-eabi/lib/armv7e-m/libg.a(lib_a-strcasecmp.o)
 .bss           0x20002828        0x0 /opt/R2P/tools/gcc-arm-none-eabi-4_9-2014q4/bin/../lib/gcc/arm-none-eabi/4.9.3/../../../../arm-none-eabi/lib/armv7e-m/libg.a(lib_a-strncmp.o)
 .bss           0x20002828        0x0 /opt/R2P/tools/gcc-arm-none-eabi-4_9-2014q4/bin/../lib/gcc/arm-none-eabi/4.9.3/../../../../arm-none-eabi/lib/armv7e-m/libg.a(lib_a-strncpy.o)
 .bss           0x20002828        0x0 /opt/R2P/tools/gcc-arm-none-eabi-4_9-2014q4/bin/../lib/gcc/arm-none-eabi/4.9.3/../../../../arm-none-eabi/lib/armv7e-m/libg.a(lib_a-strnlen.o)
 .bss           0x20002828        0x0 /opt/R2P/tools/gcc-arm-none-eabi-4_9-2014q4/bin/../lib/gcc/arm-none-eabi/4.9.3/../../../../arm-none-eabi/lib/armv7e-m/libg.a(lib_a-strpbrk.o)
 .bss           0x20002828        0x0 /opt/R2P/tools/gcc-arm-none-eabi-4_9-2014q4/bin/../lib/gcc/arm-none-eabi/4.9.3/../../../../arm-none-eabi/lib/armv7e-m/libg.a(lib_a-strspn.o)
 .bss           0x20002828        0x0 /opt/R2P/tools/gcc-arm-none-eabi-4_9-2014q4/bin/../lib/gcc/arm-none-eabi/4.9.3/../../../../arm-none-eabi/lib/armv7e-m/libg.a(lib_a-svfprintf.o)
 .bss           0x20002828        0x0 /opt/R2P/tools/gcc-arm-none-eabi-4_9-2014q4/bin/../lib/gcc/arm-none-eabi/4.9.3/../../../../arm-none-eabi/lib/armv7e-m/libg.a(lib_a-__atexit.o)
 .bss           0x20002828        0x0 /opt/R2P/tools/gcc-arm-none-eabi-4_9-2014q4/bin/../lib/gcc/arm-none-eabi/4.9.3/../../../../arm-none-eabi/lib/armv7e-m/libg.a(lib_a-ctype_.o)
 .bss           0x20002828        0x0 /opt/R2P/tools/gcc-arm-none-eabi-4_9-2014q4/bin/../lib/gcc/arm-none-eabi/4.9.3/../../../../arm-none-eabi/lib/armv7e-m/libg.a(lib_a-dtoa.o)
 .bss           0x20002828        0x0 /opt/R2P/tools/gcc-arm-none-eabi-4_9-2014q4/bin/../lib/gcc/arm-none-eabi/4.9.3/../../../../arm-none-eabi/lib/armv7e-m/libg.a(lib_a-impure.o)
 .bss           0x20002828        0x0 /opt/R2P/tools/gcc-arm-none-eabi-4_9-2014q4/bin/../lib/gcc/arm-none-eabi/4.9.3/../../../../arm-none-eabi/lib/armv7e-m/libg.a(lib_a-locale.o)
 .bss           0x20002828        0x0 /opt/R2P/tools/gcc-arm-none-eabi-4_9-2014q4/bin/../lib/gcc/arm-none-eabi/4.9.3/../../../../arm-none-eabi/lib/armv7e-m/libg.a(lib_a-mallocr.o)
 .bss           0x20002828        0x0 /opt/R2P/tools/gcc-arm-none-eabi-4_9-2014q4/bin/../lib/gcc/arm-none-eabi/4.9.3/../../../../arm-none-eabi/lib/armv7e-m/libg.a(lib_a-memchr.o)
 .bss           0x20002828        0x0 /opt/R2P/tools/gcc-arm-none-eabi-4_9-2014q4/bin/../lib/gcc/arm-none-eabi/4.9.3/../../../../arm-none-eabi/lib/armv7e-m/libg.a(lib_a-mlock.o)
 .bss           0x20002828        0x0 /opt/R2P/tools/gcc-arm-none-eabi-4_9-2014q4/bin/../lib/gcc/arm-none-eabi/4.9.3/../../../../arm-none-eabi/lib/armv7e-m/libg.a(lib_a-mprec.o)
 .bss           0x20002828        0x0 /opt/R2P/tools/gcc-arm-none-eabi-4_9-2014q4/bin/../lib/gcc/arm-none-eabi/4.9.3/../../../../arm-none-eabi/lib/armv7e-m/libg.a(lib_a-s_fpclassify.o)
 .bss           0x20002828        0x0 /opt/R2P/tools/gcc-arm-none-eabi-4_9-2014q4/bin/../lib/gcc/arm-none-eabi/4.9.3/../../../../arm-none-eabi/lib/armv7e-m/libg.a(lib_a-strcmp.o)
 .bss           0x20002828        0x0 /opt/R2P/tools/gcc-arm-none-eabi-4_9-2014q4/bin/../lib/gcc/arm-none-eabi/4.9.3/../../../../arm-none-eabi/lib/armv7e-m/libg.a(lib_a-strlen.o)
 .bss           0x20002828        0x0 /opt/R2P/tools/gcc-arm-none-eabi-4_9-2014q4/bin/../lib/gcc/arm-none-eabi/4.9.3/../../../../arm-none-eabi/lib/armv7e-m/libg.a(lib_a-svfiprintf.o)
 .bss           0x20002828        0x0 /opt/R2P/tools/gcc-arm-none-eabi-4_9-2014q4/bin/../lib/gcc/arm-none-eabi/4.9.3/../../../../arm-none-eabi/lib/armv7e-m/libg.a(lib_a-callocr.o)
 .bss           0x20002828        0x0 /opt/R2P/tools/gcc-arm-none-eabi-4_9-2014q4/bin/../lib/gcc/arm-none-eabi/4.9.3/../../../../arm-none-eabi/lib/armv7e-m/libg.a(lib_a-freer.o)
 .bss           0x20002828        0x0 /opt/R2P/tools/gcc-arm-none-eabi-4_9-2014q4/bin/../lib/gcc/arm-none-eabi/4.9.3/../../../../arm-none-eabi/lib/armv7e-m/libg.a(lib_a-memmove.o)
 .bss           0x20002828        0x0 /opt/R2P/tools/gcc-arm-none-eabi-4_9-2014q4/bin/../lib/gcc/arm-none-eabi/4.9.3/../../../../arm-none-eabi/lib/armv7e-m/libg.a(lib_a-reallocr.o)
 .bss           0x20002828        0x0 /opt/R2P/tools/gcc-arm-none-eabi-4_9-2014q4/bin/../lib/gcc/arm-none-eabi/4.9.3/armv7e-m/libgcc.a(_arm_cmpdf2.o)
 .bss           0x20002828        0x0 /opt/R2P/tools/gcc-arm-none-eabi-4_9-2014q4/bin/../lib/gcc/arm-none-eabi/4.9.3/armv7e-m/libgcc.a(_aeabi_uldivmod.o)
 .bss           0x20002828        0x0 /opt/R2P/tools/gcc-arm-none-eabi-4_9-2014q4/bin/../lib/gcc/arm-none-eabi/4.9.3/armv7e-m/libgcc.a(bpabi.o)
 .bss           0x20002828        0x0 /opt/R2P/tools/gcc-arm-none-eabi-4_9-2014q4/bin/../lib/gcc/arm-none-eabi/4.9.3/armv7e-m/libgcc.a(_dvmd_tls.o)
 .bss           0x20002828        0x0 /opt/R2P/tools/gcc-arm-none-eabi-4_9-2014q4/bin/../lib/gcc/arm-none-eabi/4.9.3/armv7e-m/libgcc.a(_divdi3.o)
 .bss           0x20002828        0x0 /opt/R2P/tools/gcc-arm-none-eabi-4_9-2014q4/bin/../lib/gcc/arm-none-eabi/4.9.3/armv7e-m/libgcc.a(_udivdi3.o)
                0x20002828                . = ALIGN (0x4)
 *(.bss.*)
 .bss._PathLocale
                0x20002828        0x4 /opt/R2P/tools/gcc-arm-none-eabi-4_9-2014q4/bin/../lib/gcc/arm-none-eabi/4.9.3/../../../../arm-none-eabi/lib/armv7e-m/libg.a(lib_a-locale.o)
                0x20002828                _PathLocale
 .bss.__nlocale_changed
                0x2000282c        0x4 /opt/R2P/tools/gcc-arm-none-eabi-4_9-2014q4/bin/../lib/gcc/arm-none-eabi/4.9.3/../../../../arm-none-eabi/lib/armv7e-m/libg.a(lib_a-locale.o)
                0x2000282c                __nlocale_changed
 .bss.__mlocale_changed
                0x20002830        0x4 /opt/R2P/tools/gcc-arm-none-eabi-4_9-2014q4/bin/../lib/gcc/arm-none-eabi/4.9.3/../../../../arm-none-eabi/lib/armv7e-m/libg.a(lib_a-locale.o)
                0x20002830                __mlocale_changed
 .bss.__malloc_max_total_mem
                0x20002834        0x4 /opt/R2P/tools/gcc-arm-none-eabi-4_9-2014q4/bin/../lib/gcc/arm-none-eabi/4.9.3/../../../../arm-none-eabi/lib/armv7e-m/libg.a(lib_a-mallocr.o)
                0x20002834                __malloc_max_total_mem
 .bss.__malloc_max_sbrked_mem
                0x20002838        0x4 /opt/R2P/tools/gcc-arm-none-eabi-4_9-2014q4/bin/../lib/gcc/arm-none-eabi/4.9.3/../../../../arm-none-eabi/lib/armv7e-m/libg.a(lib_a-mallocr.o)
                0x20002838                __malloc_max_sbrked_mem
 .bss.__malloc_top_pad
                0x2000283c        0x4 /opt/R2P/tools/gcc-arm-none-eabi-4_9-2014q4/bin/../lib/gcc/arm-none-eabi/4.9.3/../../../../arm-none-eabi/lib/armv7e-m/libg.a(lib_a-mallocr.o)
                0x2000283c                __malloc_top_pad
 .bss.__malloc_current_mallinfo
                0x20002840       0x28 /opt/R2P/tools/gcc-arm-none-eabi-4_9-2014q4/bin/../lib/gcc/arm-none-eabi/4.9.3/../../../../arm-none-eabi/lib/armv7e-m/libg.a(lib_a-mallocr.o)
                0x20002840                __malloc_current_mallinfo
                0x20002868                . = ALIGN (0x4)
 *(COMMON)
 COMMON         0x20002868      0x1a0 build/obj/chsys.o
                0x20002868                _idle_thread_wa
 COMMON         0x20002a08      0x414 build/obj/chdebug.o
                0x20002a08                dbg_trace_buffer
                0x20002e10                dbg_panic_msg
                0x20002e14                dbg_isr_cnt
                0x20002e18                dbg_lock_cnt
 COMMON         0x20002e1c       0x10 build/obj/chvt.o
                0x20002e1c                vtlist
 COMMON         0x20002e2c       0x1c build/obj/chschd.o
                0x20002e2c                rlist
 COMMON         0x20002e48       0x38 build/obj/i2c_lld.o
                0x20002e48                I2CD2
 COMMON         0x20002e80       0x30 build/obj/spi_lld.o
                0x20002e80                SPID2
 COMMON         0x20002eb0      0x25c build/obj/serial_lld.o
                0x20002eb0                SD3
 COMMON         0x2000310c       0x84 build/obj/usb_lld.o
                0x2000310c                USBD1
 COMMON         0x20003190        0x4 build/obj/shell.o
                0x20003190                shell_terminated
 COMMON         0x20003194       0x60 build/obj/rtcan_lld_can.o
                0x20003194                RTCAND1
 COMMON         0x200031f4        0x4 build/obj/stubs.o
                0x200031f4                __dso_handle
 COMMON         0x200031f8      0x258 build/obj/usbcfg.o
                0x200031f8                SDU1
                0x20003450                . = ALIGN (0x4)
                0x20003450                PROVIDE (_bss_end, .)
                0x20003450                __bss_end__ = .

.noreset        0x20003450        0x8 load address 0x0801db38
                0x20003450                . = ALIGN (0x4)
 *(.noreset)
 .noreset       0x20003450        0x8 build/obj/Middleware.o
                0x20003450                r2p::Middleware::rebooted_magic
                0x20003454                r2p::Middleware::boot_mode_magic
 *(.noreset.*)
                0x20003458                PROVIDE (end, .)
                0x20003458                _end = .
                0x08000000                __flash_start__ = ORIGIN (flash)
                0x08040000                __flash_end__ = (ORIGIN (flash) + 0x40000)
                0x20000000                __ram_start__ = ORIGIN (ram)
                0x2000a000                __ram_end__ = (ORIGIN (ram) + 0xa000)
                0x20003458                __heap_base__ = _end
                0x2000a000                __heap_end__ = __ram_end__
                0x0801db38                __program_start__ = (_textdata + (_edata - _data))
                0x08040000                __program_end__ = (ORIGIN (flash) + 0x40000)
LOAD /opt/R2P/tools/gcc-arm-none-eabi-4_9-2014q4/bin/../lib/gcc/arm-none-eabi/4.9.3/../../../../arm-none-eabi/lib/armv7e-m/libm.a
START GROUP
LOAD /opt/R2P/tools/gcc-arm-none-eabi-4_9-2014q4/bin/../lib/gcc/arm-none-eabi/4.9.3/armv7e-m/libgcc.a
LOAD /opt/R2P/tools/gcc-arm-none-eabi-4_9-2014q4/bin/../lib/gcc/arm-none-eabi/4.9.3/../../../../arm-none-eabi/lib/armv7e-m/libg.a
LOAD /opt/R2P/tools/gcc-arm-none-eabi-4_9-2014q4/bin/../lib/gcc/arm-none-eabi/4.9.3/../../../../arm-none-eabi/lib/armv7e-m/libc.a
END GROUP
OUTPUT(build/fw.elf elf32-littlearm)

.debug_info     0x00000000    0x7d1c2
 .debug_info    0x00000000      0x287 build/obj/crt0.o
 .debug_info    0x00000287      0x1c9 build/obj/vectors.o
 .debug_info    0x00000450       0x8e build/obj/chcore.o
 .debug_info    0x000004de      0x778 build/obj/chcore_v7m.o
 .debug_info    0x00000c56      0x3fa build/obj/nvic.o
 .debug_info    0x00001050      0x740 build/obj/chsys.o
 .debug_info    0x00001790      0x757 build/obj/chdebug.o
 .debug_info    0x00001ee7       0x75 build/obj/chlists.o
 .debug_info    0x00001f5c      0x1ff build/obj/chvt.o
 .debug_info    0x0000215b      0x7a9 build/obj/chschd.o
 .debug_info    0x00002904      0xa02 build/obj/chthreads.o
 .debug_info    0x00003306      0x718 build/obj/chdynamic.o
 .debug_info    0x00003a1e      0x61e build/obj/chregistry.o
 .debug_info    0x0000403c      0x873 build/obj/chsem.o
 .debug_info    0x000048af      0x7c5 build/obj/chmtx.o
 .debug_info    0x00005074      0x762 build/obj/chcond.o
 .debug_info    0x000057d6      0xc3b build/obj/chevents.o
 .debug_info    0x00006411      0x5c8 build/obj/chmsg.o
 .debug_info    0x000069d9      0x82d build/obj/chmboxes.o
 .debug_info    0x00007206      0xa23 build/obj/chqueues.o
 .debug_info    0x00007c29      0x30b build/obj/chmemcore.o
 .debug_info    0x00007f34      0x60e build/obj/chheap.o
 .debug_info    0x00008542      0x2e7 build/obj/chmempools.o
 .debug_info    0x00008829      0x2c9 build/obj/hal.o
 .debug_info    0x00008af2       0x9c build/obj/adc.o
 .debug_info    0x00008b8e       0x9c build/obj/can.o
 .debug_info    0x00008c2a       0x9c build/obj/ext.o
 .debug_info    0x00008cc6       0x9c build/obj/gpt.o
 .debug_info    0x00008d62      0x962 build/obj/i2c.o
 .debug_info    0x000096c4       0x9c build/obj/icu.o
 .debug_info    0x00009760       0x9c build/obj/mac.o
 .debug_info    0x000097fc       0x9c build/obj/mmc_spi.o
 .debug_info    0x00009898       0x9c build/obj/mmcsd.o
 .debug_info    0x00009934      0x29e build/obj/pal.o
 .debug_info    0x00009bd2       0x9c build/obj/pwm.o
 .debug_info    0x00009c6e       0x9c build/obj/rtc.o
 .debug_info    0x00009d0a       0x9c build/obj/sdc.o
 .debug_info    0x00009da6      0xc18 build/obj/serial.o
 .debug_info    0x0000a9be     0x1342 build/obj/serial_usb.o
 .debug_info    0x0000bd00      0xdcc build/obj/spi.o
 .debug_info    0x0000cacc       0x9c build/obj/tm.o
 .debug_info    0x0000cb68       0x9c build/obj/uart.o
 .debug_info    0x0000cc04     0x10c1 build/obj/usb.o
 .debug_info    0x0000dcc5      0x74f build/obj/stm32_dma.o
 .debug_info    0x0000e414      0x3f8 build/obj/hal_lld.o
 .debug_info    0x0000e80c       0x9c build/obj/adc_lld.o
 .debug_info    0x0000e8a8       0x9c build/obj/ext_lld_isr.o
 .debug_info    0x0000e944       0x9c build/obj/can_lld.o
 .debug_info    0x0000e9e0       0x9c build/obj/ext_lld.o
 .debug_info    0x0000ea7c      0x48a build/obj/pal_lld.o
 .debug_info    0x0000ef06      0xe6c build/obj/i2c_lld.o
 .debug_info    0x0000fd72       0x9c build/obj/rtc_lld.o
 .debug_info    0x0000fe0e      0xc09 build/obj/spi_lld.o
 .debug_info    0x00010a17       0x9c build/obj/gpt_lld.o
 .debug_info    0x00010ab3       0x9c build/obj/icu_lld.o
 .debug_info    0x00010b4f       0x9c build/obj/pwm_lld.o
 .debug_info    0x00010beb      0xc36 build/obj/serial_lld.o
 .debug_info    0x00011821       0x9c build/obj/uart_lld.o
 .debug_info    0x000118bd     0x139d build/obj/usb_lld.o
 .debug_info    0x00012c5a      0x1ba build/obj/board.o
 .debug_info    0x00012e14      0x5ff build/obj/evtimer.o
 .debug_info    0x00013413      0xbb7 build/obj/syscalls.o
 .debug_info    0x00013fca      0x51b build/obj/chprintf.o
 .debug_info    0x000144e5      0x35a build/obj/memstreams.o
 .debug_info    0x0001483f      0xb60 build/obj/shell.o
 .debug_info    0x0001539f     0x10be build/obj/rtcan.o
 .debug_info    0x0001645d      0x339 build/obj/msgqueue.o
 .debug_info    0x00016796       0x9c build/obj/hrt.o
 .debug_info    0x00016832      0x97c build/obj/srt.o
 .debug_info    0x000171ae      0xcbb build/obj/rtcan_lld_can.o
 .debug_info    0x00017e69      0xa4b build/obj/rtcan_lld_tim.o
 .debug_info    0x000188b4      0x135 build/obj/stubs.o
 .debug_info    0x000189e9      0xf01 build/obj/usbcfg.o
 .debug_info    0x000198ea      0x12c build/obj/ArrayQueue_.o
 .debug_info    0x00019a16      0x650 build/obj/SimplePool_.o
 .debug_info    0x0001a066      0xbd3 build/obj/StaticList_.o
 .debug_info    0x0001ac39      0x8ff build/obj/StaticQueue_.o
 .debug_info    0x0001b538     0x2794 build/obj/BasePublisher.o
 .debug_info    0x0001dccc     0x2731 build/obj/BaseSubscriber.o
 .debug_info    0x000203fd      0x746 build/obj/BaseSubscriberQueue.o
 .debug_info    0x00020b43      0x23a build/obj/BootMsg.o
 .debug_info    0x00020d7d      0x47f build/obj/Checksummer.o
 .debug_info    0x000211fc     0x2a9a build/obj/LocalPublisher.o
 .debug_info    0x00023c96     0x30a8 build/obj/LocalSubscriber.o
 .debug_info    0x00026d3e      0x497 build/obj/MessagePtrQueue.o
 .debug_info    0x000271d5      0x5d4 build/obj/Message.o
 .debug_info    0x000277a9     0xa294 build/obj/Middleware.o
 .debug_info    0x00031a3d     0x4812 build/obj/Node.o
 .debug_info    0x0003624f     0x2aed build/obj/RemotePublisher.o
 .debug_info    0x00038d3c      0xb67 build/obj/RemoteSubscriber.o
 .debug_info    0x000398a3      0x539 build/obj/Time.o
 .debug_info    0x00039ddc      0x8dc build/obj/TimestampedMsgPtrQueue.o
 .debug_info    0x0003a6b8     0x6438 build/obj/Topic.o
 .debug_info    0x00040af0     0x4762 build/obj/Transport.o
 .debug_info    0x00045252      0x1ba build/obj/Utils.o
 .debug_info    0x0004540c     0x54e5 build/obj/Bootloader.o
 .debug_info    0x0004a8f1     0x9c53 build/obj/DebugTransport.o
 .debug_info    0x00054544     0x2b1e build/obj/DebugPublisher.o
 .debug_info    0x00057062     0x3c3f build/obj/DebugSubscriber.o
 .debug_info    0x0005aca1     0x6b89 build/obj/RTCANTransport.o
 .debug_info    0x0006182a     0x2c8c build/obj/RTCANPublisher.o
 .debug_info    0x000644b6     0x2d6c build/obj/RTCANSubscriber.o
 .debug_info    0x00067222     0x4b77 build/obj/Middleware_.o
 .debug_info    0x0006bd99      0x5c7 build/obj/Time_.o
 .debug_info    0x0006c360     0x2373 build/obj/Bootloader_.o
 .debug_info    0x0006e6d3     0x1219 build/obj/Flasher_.o
 .debug_info    0x0006f8ec     0x5116 build/obj/led.o
 .debug_info    0x00074a02      0x62c build/obj/chnew.o
 .debug_info    0x0007502e     0x8194 build/obj/main.o

.debug_abbrev   0x00000000     0xf18a
 .debug_abbrev  0x00000000       0xc3 build/obj/crt0.o
 .debug_abbrev  0x000000c3       0xad build/obj/vectors.o
 .debug_abbrev  0x00000170       0x40 build/obj/chcore.o
 .debug_abbrev  0x000001b0      0x175 build/obj/chcore_v7m.o
 .debug_abbrev  0x00000325      0x10c build/obj/nvic.o
 .debug_abbrev  0x00000431      0x16f build/obj/chsys.o
 .debug_abbrev  0x000005a0      0x1e6 build/obj/chdebug.o
 .debug_abbrev  0x00000786       0x24 build/obj/chlists.o
 .debug_abbrev  0x000007aa       0xf7 build/obj/chvt.o
 .debug_abbrev  0x000008a1      0x200 build/obj/chschd.o
 .debug_abbrev  0x00000aa1      0x228 build/obj/chthreads.o
 .debug_abbrev  0x00000cc9      0x179 build/obj/chdynamic.o
 .debug_abbrev  0x00000e42      0x147 build/obj/chregistry.o
 .debug_abbrev  0x00000f89      0x1d3 build/obj/chsem.o
 .debug_abbrev  0x0000115c      0x1c4 build/obj/chmtx.o
 .debug_abbrev  0x00001320      0x1c8 build/obj/chcond.o
 .debug_abbrev  0x000014e8      0x1fa build/obj/chevents.o
 .debug_abbrev  0x000016e2      0x170 build/obj/chmsg.o
 .debug_abbrev  0x00001852      0x1bd build/obj/chmboxes.o
 .debug_abbrev  0x00001a0f      0x240 build/obj/chqueues.o
 .debug_abbrev  0x00001c4f       0xf7 build/obj/chmemcore.o
 .debug_abbrev  0x00001d46      0x17d build/obj/chheap.o
 .debug_abbrev  0x00001ec3      0x120 build/obj/chmempools.o
 .debug_abbrev  0x00001fe3      0x132 build/obj/hal.o
 .debug_abbrev  0x00002115       0x49 build/obj/adc.o
 .debug_abbrev  0x0000215e       0x49 build/obj/can.o
 .debug_abbrev  0x000021a7       0x49 build/obj/ext.o
 .debug_abbrev  0x000021f0       0x49 build/obj/gpt.o
 .debug_abbrev  0x00002239      0x1dc build/obj/i2c.o
 .debug_abbrev  0x00002415       0x49 build/obj/icu.o
 .debug_abbrev  0x0000245e       0x49 build/obj/mac.o
 .debug_abbrev  0x000024a7       0x49 build/obj/mmc_spi.o
 .debug_abbrev  0x000024f0       0x49 build/obj/mmcsd.o
 .debug_abbrev  0x00002539       0xef build/obj/pal.o
 .debug_abbrev  0x00002628       0x49 build/obj/pwm.o
 .debug_abbrev  0x00002671       0x49 build/obj/rtc.o
 .debug_abbrev  0x000026ba       0x49 build/obj/sdc.o
 .debug_abbrev  0x00002703      0x232 build/obj/serial.o
 .debug_abbrev  0x00002935      0x2d6 build/obj/serial_usb.o
 .debug_abbrev  0x00002c0b      0x202 build/obj/spi.o
 .debug_abbrev  0x00002e0d       0x49 build/obj/tm.o
 .debug_abbrev  0x00002e56       0x49 build/obj/uart.o
 .debug_abbrev  0x00002e9f      0x257 build/obj/usb.o
 .debug_abbrev  0x000030f6      0x1a9 build/obj/stm32_dma.o
 .debug_abbrev  0x0000329f      0x100 build/obj/hal_lld.o
 .debug_abbrev  0x0000339f       0x49 build/obj/adc_lld.o
 .debug_abbrev  0x000033e8       0x49 build/obj/ext_lld_isr.o
 .debug_abbrev  0x00003431       0x49 build/obj/can_lld.o
 .debug_abbrev  0x0000347a       0x49 build/obj/ext_lld.o
 .debug_abbrev  0x000034c3      0x15c build/obj/pal_lld.o
 .debug_abbrev  0x0000361f      0x27b build/obj/i2c_lld.o
 .debug_abbrev  0x0000389a       0x49 build/obj/rtc_lld.o
 .debug_abbrev  0x000038e3      0x262 build/obj/spi_lld.o
 .debug_abbrev  0x00003b45       0x49 build/obj/gpt_lld.o
 .debug_abbrev  0x00003b8e       0x49 build/obj/icu_lld.o
 .debug_abbrev  0x00003bd7       0x49 build/obj/pwm_lld.o
 .debug_abbrev  0x00003c20      0x250 build/obj/serial_lld.o
 .debug_abbrev  0x00003e70       0x49 build/obj/uart_lld.o
 .debug_abbrev  0x00003eb9      0x2d6 build/obj/usb_lld.o
 .debug_abbrev  0x0000418f       0xc2 build/obj/board.o
 .debug_abbrev  0x00004251      0x151 build/obj/evtimer.o
 .debug_abbrev  0x000043a2      0x1e1 build/obj/syscalls.o
 .debug_abbrev  0x00004583      0x19c build/obj/chprintf.o
 .debug_abbrev  0x0000471f      0x113 build/obj/memstreams.o
 .debug_abbrev  0x00004832      0x247 build/obj/shell.o
 .debug_abbrev  0x00004a79      0x2ac build/obj/rtcan.o
 .debug_abbrev  0x00004d25      0x164 build/obj/msgqueue.o
 .debug_abbrev  0x00004e89       0x49 build/obj/hrt.o
 .debug_abbrev  0x00004ed2      0x1f4 build/obj/srt.o
 .debug_abbrev  0x000050c6      0x2c0 build/obj/rtcan_lld_can.o
 .debug_abbrev  0x00005386      0x238 build/obj/rtcan_lld_tim.o
 .debug_abbrev  0x000055be       0xda build/obj/stubs.o
 .debug_abbrev  0x00005698      0x222 build/obj/usbcfg.o
 .debug_abbrev  0x000058ba       0x80 build/obj/ArrayQueue_.o
 .debug_abbrev  0x0000593a      0x273 build/obj/SimplePool_.o
 .debug_abbrev  0x00005bad      0x29f build/obj/StaticList_.o
 .debug_abbrev  0x00005e4c      0x26c build/obj/StaticQueue_.o
 .debug_abbrev  0x000060b8      0x483 build/obj/BasePublisher.o
 .debug_abbrev  0x0000653b      0x4c6 build/obj/BaseSubscriber.o
 .debug_abbrev  0x00006a01      0x214 build/obj/BaseSubscriberQueue.o
 .debug_abbrev  0x00006c15      0x104 build/obj/BootMsg.o
 .debug_abbrev  0x00006d19      0x18e build/obj/Checksummer.o
 .debug_abbrev  0x00006ea7      0x413 build/obj/LocalPublisher.o
 .debug_abbrev  0x000072ba      0x546 build/obj/LocalSubscriber.o
 .debug_abbrev  0x00007800      0x1bc build/obj/MessagePtrQueue.o
 .debug_abbrev  0x000079bc      0x25f build/obj/Message.o
 .debug_abbrev  0x00007c1b      0x927 build/obj/Middleware.o
 .debug_abbrev  0x00008542      0x5c4 build/obj/Node.o
 .debug_abbrev  0x00008b06      0x413 build/obj/RemotePublisher.o
 .debug_abbrev  0x00008f19      0x2fa build/obj/RemoteSubscriber.o
 .debug_abbrev  0x00009213      0x200 build/obj/Time.o
 .debug_abbrev  0x00009413      0x257 build/obj/TimestampedMsgPtrQueue.o
 .debug_abbrev  0x0000966a      0x6d7 build/obj/Topic.o
 .debug_abbrev  0x00009d41      0x62f build/obj/Transport.o
 .debug_abbrev  0x0000a370       0xd2 build/obj/Utils.o
 .debug_abbrev  0x0000a442      0x7ed build/obj/Bootloader.o
 .debug_abbrev  0x0000ac2f      0x8f9 build/obj/DebugTransport.o
 .debug_abbrev  0x0000b528      0x3fd build/obj/DebugPublisher.o
 .debug_abbrev  0x0000b925      0x5e0 build/obj/DebugSubscriber.o
 .debug_abbrev  0x0000bf05      0x7c9 build/obj/RTCANTransport.o
 .debug_abbrev  0x0000c6ce      0x470 build/obj/RTCANPublisher.o
 .debug_abbrev  0x0000cb3e      0x4f7 build/obj/RTCANSubscriber.o
 .debug_abbrev  0x0000d035      0x4f7 build/obj/Middleware_.o
 .debug_abbrev  0x0000d52c      0x248 build/obj/Time_.o
 .debug_abbrev  0x0000d774      0x479 build/obj/Bootloader_.o
 .debug_abbrev  0x0000dbed      0x4d3 build/obj/Flasher_.o
 .debug_abbrev  0x0000e0c0      0x6b3 build/obj/led.o
 .debug_abbrev  0x0000e773      0x15f build/obj/chnew.o
 .debug_abbrev  0x0000e8d2      0x8b8 build/obj/main.o

.debug_aranges  0x00000000     0x23c8
 .debug_aranges
                0x00000000       0x20 build/obj/crt0.o
 .debug_aranges
                0x00000020       0x20 build/obj/vectors.o
 .debug_aranges
                0x00000040       0x20 build/obj/chcore.o
 .debug_aranges
                0x00000060       0x20 build/obj/chcore_v7m.o
 .debug_aranges
                0x00000080       0x20 build/obj/nvic.o
 .debug_aranges
                0x000000a0       0x20 build/obj/chsys.o
 .debug_aranges
                0x000000c0       0x20 build/obj/chdebug.o
 .debug_aranges
                0x000000e0       0x18 build/obj/chlists.o
 .debug_aranges
                0x000000f8       0x20 build/obj/chvt.o
 .debug_aranges
                0x00000118       0x20 build/obj/chschd.o
 .debug_aranges
                0x00000138       0x20 build/obj/chthreads.o
 .debug_aranges
                0x00000158       0x20 build/obj/chdynamic.o
 .debug_aranges
                0x00000178       0x20 build/obj/chregistry.o
 .debug_aranges
                0x00000198       0x20 build/obj/chsem.o
 .debug_aranges
                0x000001b8       0x20 build/obj/chmtx.o
 .debug_aranges
                0x000001d8       0x20 build/obj/chcond.o
 .debug_aranges
                0x000001f8       0x20 build/obj/chevents.o
 .debug_aranges
                0x00000218       0x20 build/obj/chmsg.o
 .debug_aranges
                0x00000238       0x20 build/obj/chmboxes.o
 .debug_aranges
                0x00000258       0x20 build/obj/chqueues.o
 .debug_aranges
                0x00000278       0x20 build/obj/chmemcore.o
 .debug_aranges
                0x00000298       0x20 build/obj/chheap.o
 .debug_aranges
                0x000002b8       0x20 build/obj/chmempools.o
 .debug_aranges
                0x000002d8       0x20 build/obj/hal.o
 .debug_aranges
                0x000002f8       0x18 build/obj/adc.o
 .debug_aranges
                0x00000310       0x18 build/obj/can.o
 .debug_aranges
                0x00000328       0x18 build/obj/ext.o
 .debug_aranges
                0x00000340       0x18 build/obj/gpt.o
 .debug_aranges
                0x00000358       0x20 build/obj/i2c.o
 .debug_aranges
                0x00000378       0x18 build/obj/icu.o
 .debug_aranges
                0x00000390       0x18 build/obj/mac.o
 .debug_aranges
                0x000003a8       0x18 build/obj/mmc_spi.o
 .debug_aranges
                0x000003c0       0x18 build/obj/mmcsd.o
 .debug_aranges
                0x000003d8       0x20 build/obj/pal.o
 .debug_aranges
                0x000003f8       0x18 build/obj/pwm.o
 .debug_aranges
                0x00000410       0x18 build/obj/rtc.o
 .debug_aranges
                0x00000428       0x18 build/obj/sdc.o
 .debug_aranges
                0x00000440       0x20 build/obj/serial.o
 .debug_aranges
                0x00000460       0x20 build/obj/serial_usb.o
 .debug_aranges
                0x00000480       0x20 build/obj/spi.o
 .debug_aranges
                0x000004a0       0x18 build/obj/tm.o
 .debug_aranges
                0x000004b8       0x18 build/obj/uart.o
 .debug_aranges
                0x000004d0       0x20 build/obj/usb.o
 .debug_aranges
                0x000004f0       0x20 build/obj/stm32_dma.o
 .debug_aranges
                0x00000510       0x20 build/obj/hal_lld.o
 .debug_aranges
                0x00000530       0x18 build/obj/adc_lld.o
 .debug_aranges
                0x00000548       0x18 build/obj/ext_lld_isr.o
 .debug_aranges
                0x00000560       0x18 build/obj/can_lld.o
 .debug_aranges
                0x00000578       0x18 build/obj/ext_lld.o
 .debug_aranges
                0x00000590       0x20 build/obj/pal_lld.o
 .debug_aranges
                0x000005b0       0x20 build/obj/i2c_lld.o
 .debug_aranges
                0x000005d0       0x18 build/obj/rtc_lld.o
 .debug_aranges
                0x000005e8       0x20 build/obj/spi_lld.o
 .debug_aranges
                0x00000608       0x18 build/obj/gpt_lld.o
 .debug_aranges
                0x00000620       0x18 build/obj/icu_lld.o
 .debug_aranges
                0x00000638       0x18 build/obj/pwm_lld.o
 .debug_aranges
                0x00000650       0x20 build/obj/serial_lld.o
 .debug_aranges
                0x00000670       0x18 build/obj/uart_lld.o
 .debug_aranges
                0x00000688       0x20 build/obj/usb_lld.o
 .debug_aranges
                0x000006a8       0x20 build/obj/board.o
 .debug_aranges
                0x000006c8       0x20 build/obj/evtimer.o
 .debug_aranges
                0x000006e8       0x20 build/obj/syscalls.o
 .debug_aranges
                0x00000708       0x20 build/obj/chprintf.o
 .debug_aranges
                0x00000728       0x20 build/obj/memstreams.o
 .debug_aranges
                0x00000748       0x20 build/obj/shell.o
 .debug_aranges
                0x00000768       0x20 build/obj/rtcan.o
 .debug_aranges
                0x00000788       0x20 build/obj/msgqueue.o
 .debug_aranges
                0x000007a8       0x18 build/obj/hrt.o
 .debug_aranges
                0x000007c0       0x20 build/obj/srt.o
 .debug_aranges
                0x000007e0       0x20 build/obj/rtcan_lld_can.o
 .debug_aranges
                0x00000800       0x20 build/obj/rtcan_lld_tim.o
 .debug_aranges
                0x00000820       0x20 build/obj/stubs.o
 .debug_aranges
                0x00000840       0x20 build/obj/usbcfg.o
 .debug_aranges
                0x00000860       0x18 build/obj/ArrayQueue_.o
 .debug_aranges
                0x00000878       0x48 build/obj/SimplePool_.o
 .debug_aranges
                0x000008c0       0x60 build/obj/StaticList_.o
 .debug_aranges
                0x00000920       0x50 build/obj/StaticQueue_.o
 .debug_aranges
                0x00000970       0x60 build/obj/BasePublisher.o
 .debug_aranges
                0x000009d0       0x68 build/obj/BaseSubscriber.o
 .debug_aranges
                0x00000a38       0x30 build/obj/BaseSubscriberQueue.o
 .debug_aranges
                0x00000a68       0x20 build/obj/BootMsg.o
 .debug_aranges
                0x00000a88       0x28 build/obj/Checksummer.o
 .debug_aranges
                0x00000ab0       0x28 build/obj/LocalPublisher.o
 .debug_aranges
                0x00000ad8       0xc8 build/obj/LocalSubscriber.o
 .debug_aranges
                0x00000ba0       0x30 build/obj/MessagePtrQueue.o
 .debug_aranges
                0x00000bd0       0x58 build/obj/Message.o
 .debug_aranges
                0x00000c28      0x5a0 build/obj/Middleware.o
 .debug_aranges
                0x000011c8      0x178 build/obj/Node.o
 .debug_aranges
                0x00001340       0x28 build/obj/RemotePublisher.o
 .debug_aranges
                0x00001368       0x28 build/obj/RemoteSubscriber.o
 .debug_aranges
                0x00001390       0x28 build/obj/Time.o
 .debug_aranges
                0x000013b8       0x30 build/obj/TimestampedMsgPtrQueue.o
 .debug_aranges
                0x000013e8      0x230 build/obj/Topic.o
 .debug_aranges
                0x00001618      0x188 build/obj/Transport.o
 .debug_aranges
                0x000017a0       0x20 build/obj/Utils.o
 .debug_aranges
                0x000017c0      0x250 build/obj/Bootloader.o
 .debug_aranges
                0x00001a10      0x2a0 build/obj/DebugTransport.o
 .debug_aranges
                0x00001cb0       0x20 build/obj/DebugPublisher.o
 .debug_aranges
                0x00001cd0      0x110 build/obj/DebugSubscriber.o
 .debug_aranges
                0x00001de0      0x150 build/obj/RTCANTransport.o
 .debug_aranges
                0x00001f30       0x20 build/obj/RTCANPublisher.o
 .debug_aranges
                0x00001f50       0x58 build/obj/RTCANSubscriber.o
 .debug_aranges
                0x00001fa8       0x20 build/obj/Middleware_.o
 .debug_aranges
                0x00001fc8       0x30 build/obj/Time_.o
 .debug_aranges
                0x00001ff8       0x20 build/obj/Bootloader_.o
 .debug_aranges
                0x00002018       0x78 build/obj/Flasher_.o
 .debug_aranges
                0x00002090      0x158 build/obj/led.o
 .debug_aranges
                0x000021e8       0x20 build/obj/chnew.o
 .debug_aranges
                0x00002208      0x1c0 build/obj/main.o

.debug_line     0x00000000    0x1736f
 .debug_line    0x00000000      0x165 build/obj/crt0.o
 .debug_line    0x00000165      0x125 build/obj/vectors.o
 .debug_line    0x0000028a       0x6e build/obj/chcore.o
 .debug_line    0x000002f8      0x214 build/obj/chcore_v7m.o
 .debug_line    0x0000050c      0x135 build/obj/nvic.o
 .debug_line    0x00000641      0x20b build/obj/chsys.o
 .debug_line    0x0000084c      0x271 build/obj/chdebug.o
 .debug_line    0x00000abd       0x1d build/obj/chlists.o
 .debug_line    0x00000ada      0x1c2 build/obj/chvt.o
 .debug_line    0x00000c9c      0x2b0 build/obj/chschd.o
 .debug_line    0x00000f4c      0x30f build/obj/chthreads.o
 .debug_line    0x0000125b      0x28e build/obj/chdynamic.o
 .debug_line    0x000014e9      0x247 build/obj/chregistry.o
 .debug_line    0x00001730      0x35c build/obj/chsem.o
 .debug_line    0x00001a8c      0x2d4 build/obj/chmtx.o
 .debug_line    0x00001d60      0x285 build/obj/chcond.o
 .debug_line    0x00001fe5      0x2e2 build/obj/chevents.o
 .debug_line    0x000022c7      0x205 build/obj/chmsg.o
 .debug_line    0x000024cc      0x295 build/obj/chmboxes.o
 .debug_line    0x00002761      0x31e build/obj/chqueues.o
 .debug_line    0x00002a7f      0x17b build/obj/chmemcore.o
 .debug_line    0x00002bfa      0x2c4 build/obj/chheap.o
 .debug_line    0x00002ebe      0x218 build/obj/chmempools.o
 .debug_line    0x000030d6      0x2b4 build/obj/hal.o
 .debug_line    0x0000338a      0x118 build/obj/adc.o
 .debug_line    0x000034a2      0x118 build/obj/can.o
 .debug_line    0x000035ba      0x118 build/obj/ext.o
 .debug_line    0x000036d2      0x118 build/obj/gpt.o
 .debug_line    0x000037ea      0x412 build/obj/i2c.o
 .debug_line    0x00003bfc      0x118 build/obj/icu.o
 .debug_line    0x00003d14      0x118 build/obj/mac.o
 .debug_line    0x00003e2c      0x118 build/obj/mmc_spi.o
 .debug_line    0x00003f44      0x118 build/obj/mmcsd.o
 .debug_line    0x0000405c      0x207 build/obj/pal.o
 .debug_line    0x00004263      0x118 build/obj/pwm.o
 .debug_line    0x0000437b      0x118 build/obj/rtc.o
 .debug_line    0x00004493      0x118 build/obj/sdc.o
 .debug_line    0x000045ab      0x3c0 build/obj/serial.o
 .debug_line    0x0000496b      0x407 build/obj/serial_usb.o
 .debug_line    0x00004d72      0x587 build/obj/spi.o
 .debug_line    0x000052f9      0x118 build/obj/tm.o
 .debug_line    0x00005411      0x118 build/obj/uart.o
 .debug_line    0x00005529      0x526 build/obj/usb.o
 .debug_line    0x00005a4f      0x27a build/obj/stm32_dma.o
 .debug_line    0x00005cc9      0x209 build/obj/hal_lld.o
 .debug_line    0x00005ed2      0x118 build/obj/adc_lld.o
 .debug_line    0x00005fea      0x118 build/obj/ext_lld_isr.o
 .debug_line    0x00006102      0x118 build/obj/can_lld.o
 .debug_line    0x0000621a      0x118 build/obj/ext_lld.o
 .debug_line    0x00006332      0x1fa build/obj/pal_lld.o
 .debug_line    0x0000652c      0x498 build/obj/i2c_lld.o
 .debug_line    0x000069c4      0x118 build/obj/rtc_lld.o
 .debug_line    0x00006adc      0x41f build/obj/spi_lld.o
 .debug_line    0x00006efb      0x118 build/obj/gpt_lld.o
 .debug_line    0x00007013      0x118 build/obj/icu_lld.o
 .debug_line    0x0000712b      0x118 build/obj/pwm_lld.o
 .debug_line    0x00007243      0x3a7 build/obj/serial_lld.o
 .debug_line    0x000075ea      0x118 build/obj/uart_lld.o
 .debug_line    0x00007702      0x4da build/obj/usb_lld.o
 .debug_line    0x00007bdc      0x17f build/obj/board.o
 .debug_line    0x00007d5b      0x1f2 build/obj/evtimer.o
 .debug_line    0x00007f4d      0x161 build/obj/syscalls.o
 .debug_line    0x000080ae      0x2f8 build/obj/chprintf.o
 .debug_line    0x000083a6      0x1e0 build/obj/memstreams.o
 .debug_line    0x00008586      0x371 build/obj/shell.o
 .debug_line    0x000088f7      0x3fe build/obj/rtcan.o
 .debug_line    0x00008cf5      0x1cc build/obj/msgqueue.o
 .debug_line    0x00008ec1      0x118 build/obj/hrt.o
 .debug_line    0x00008fd9      0x25f build/obj/srt.o
 .debug_line    0x00009238      0x2f7 build/obj/rtcan_lld_can.o
 .debug_line    0x0000952f      0x231 build/obj/rtcan_lld_tim.o
 .debug_line    0x00009760      0x140 build/obj/stubs.o
 .debug_line    0x000098a0      0x2ec build/obj/usbcfg.o
 .debug_line    0x00009b8c      0x163 build/obj/ArrayQueue_.o
 .debug_line    0x00009cef      0x352 build/obj/SimplePool_.o
 .debug_line    0x0000a041      0x495 build/obj/StaticList_.o
 .debug_line    0x0000a4d6      0x39b build/obj/StaticQueue_.o
 .debug_line    0x0000a871      0x4a3 build/obj/BasePublisher.o
 .debug_line    0x0000ad14      0x472 build/obj/BaseSubscriber.o
 .debug_line    0x0000b186      0x239 build/obj/BaseSubscriberQueue.o
 .debug_line    0x0000b3bf      0x22c build/obj/BootMsg.o
 .debug_line    0x0000b5eb      0x235 build/obj/Checksummer.o
 .debug_line    0x0000b820      0x3ad build/obj/LocalPublisher.o
 .debug_line    0x0000bbcd      0x616 build/obj/LocalSubscriber.o
 .debug_line    0x0000c1e3      0x206 build/obj/MessagePtrQueue.o
 .debug_line    0x0000c3e9      0x325 build/obj/Message.o
 .debug_line    0x0000c70e     0x1872 build/obj/Middleware.o
 .debug_line    0x0000df80      0x8f2 build/obj/Node.o
 .debug_line    0x0000e872      0x3af build/obj/RemotePublisher.o
 .debug_line    0x0000ec21      0x20a build/obj/RemoteSubscriber.o
 .debug_line    0x0000ee2b      0x233 build/obj/Time.o
 .debug_line    0x0000f05e      0x28a build/obj/TimestampedMsgPtrQueue.o
 .debug_line    0x0000f2e8      0xb12 build/obj/Topic.o
 .debug_line    0x0000fdfa      0x988 build/obj/Transport.o
 .debug_line    0x00010782      0x21c build/obj/Utils.o
 .debug_line    0x0001099e      0xea4 build/obj/Bootloader.o
 .debug_line    0x00011842     0x1273 build/obj/DebugTransport.o
 .debug_line    0x00012ab5      0x3eb build/obj/DebugPublisher.o
 .debug_line    0x00012ea0      0x75e build/obj/DebugSubscriber.o
 .debug_line    0x000135fe      0xa40 build/obj/RTCANTransport.o
 .debug_line    0x0001403e      0x461 build/obj/RTCANPublisher.o
 .debug_line    0x0001449f      0x551 build/obj/RTCANSubscriber.o
 .debug_line    0x000149f0      0x498 build/obj/Middleware_.o
 .debug_line    0x00014e88      0x2e0 build/obj/Time_.o
 .debug_line    0x00015168      0x3b0 build/obj/Bootloader_.o
 .debug_line    0x00015518      0x61b build/obj/Flasher_.o
 .debug_line    0x00015b33      0x92e build/obj/led.o
 .debug_line    0x00016461      0x26b build/obj/chnew.o
 .debug_line    0x000166cc      0xca3 build/obj/main.o

.debug_str      0x00000000    0x130b8
 .debug_str     0x00000000      0x237 build/obj/crt0.o
                                0x282 (size before relaxing)
 .debug_str     0x00000237      0x15b build/obj/vectors.o
                                0x2a8 (size before relaxing)
 .debug_str     0x00000392       0x43 build/obj/chcore.o
                                0x170 (size before relaxing)
 .debug_str     0x000003d5      0x280 build/obj/chcore_v7m.o
                                0x438 (size before relaxing)
 .debug_str     0x00000655       0xc9 build/obj/nvic.o
                                0x27a (size before relaxing)
 .debug_str     0x0000071e      0x1db build/obj/chsys.o
                                0x504 (size before relaxing)
 .debug_str     0x000008f9      0x1b9 build/obj/chdebug.o
                                0x526 (size before relaxing)
 .debug_str     0x00000ab2       0x34 build/obj/chlists.o
                                0x161 (size before relaxing)
 .debug_str     0x00000ae6       0x55 build/obj/chvt.o
                                0x1fb (size before relaxing)
 .debug_str     0x00000b3b      0x103 build/obj/chschd.o
                                0x466 (size before relaxing)
 .debug_str     0x00000c3e      0x11e build/obj/chthreads.o
                                0x49c (size before relaxing)
 .debug_str     0x00000d5c       0xf6 build/obj/chdynamic.o
                                0x40d (size before relaxing)
 .debug_str     0x00000e52       0x58 build/obj/chregistry.o
                                0x473 (size before relaxing)
 .debug_str     0x00000eaa       0xd1 build/obj/chsem.o
                                0x41e (size before relaxing)
 .debug_str     0x00000f7b       0xa7 build/obj/chmtx.o
                                0x3d4 (size before relaxing)
 .debug_str     0x00001022       0xc6 build/obj/chcond.o
                                0x3f4 (size before relaxing)
 .debug_str     0x000010e8      0x1cf build/obj/chevents.o
                                0x4f0 (size before relaxing)
 .debug_str     0x000012b7       0x53 build/obj/chmsg.o
                                0x37d (size before relaxing)
 .debug_str     0x0000130a       0xf3 build/obj/chmboxes.o
                                0x3ed (size before relaxing)
 .debug_str     0x000013fd      0x12f build/obj/chqueues.o
                                0x476 (size before relaxing)
 .debug_str     0x0000152c       0xdc build/obj/chmemcore.o
                                0x242 (size before relaxing)
 .debug_str     0x00001608       0x80 build/obj/chheap.o
                                0x3bc (size before relaxing)
 .debug_str     0x00001688       0x82 build/obj/chmempools.o
                                0x23e (size before relaxing)
 .debug_str     0x0000170a      0x133 build/obj/hal.o
                                0x2a3 (size before relaxing)
 .debug_str     0x0000183d       0x2d build/obj/adc.o
                                0x179 (size before relaxing)
 .debug_str     0x0000186a       0x2d build/obj/can.o
                                0x179 (size before relaxing)
 .debug_str     0x00001897       0x2d build/obj/ext.o
                                0x179 (size before relaxing)
 .debug_str     0x000018c4       0x2d build/obj/gpt.o
                                0x179 (size before relaxing)
 .debug_str     0x000018f1      0x205 build/obj/i2c.o
                                0x52a (size before relaxing)
 .debug_str     0x00001af6       0x2d build/obj/icu.o
                                0x179 (size before relaxing)
 .debug_str     0x00001b23       0x2d build/obj/mac.o
                                0x179 (size before relaxing)
 .debug_str     0x00001b50       0x31 build/obj/mmc_spi.o
                                0x17d (size before relaxing)
 .debug_str     0x00001b81       0x2f build/obj/mmcsd.o
                                0x17b (size before relaxing)
 .debug_str     0x00001bb0       0xc7 build/obj/pal.o
                                0x259 (size before relaxing)
 .debug_str     0x00001c77       0x2d build/obj/pwm.o
                                0x179 (size before relaxing)
 .debug_str     0x00001ca4       0x2d build/obj/rtc.o
                                0x179 (size before relaxing)
 .debug_str     0x00001cd1       0x2d build/obj/sdc.o
                                0x179 (size before relaxing)
 .debug_str     0x00001cfe      0x13a build/obj/serial.o
                                0x542 (size before relaxing)
 .debug_str     0x00001e38      0x41d build/obj/serial_usb.o
                                0x910 (size before relaxing)
 .debug_str     0x00002255      0x1b7 build/obj/spi.o
                                0x618 (size before relaxing)
 .debug_str     0x0000240c       0x2c build/obj/tm.o
                                0x178 (size before relaxing)
 .debug_str     0x00002438       0x2e build/obj/uart.o
                                0x17a (size before relaxing)
 .debug_str     0x00002466      0x1b9 build/obj/usb.o
                                0x8ae (size before relaxing)
 .debug_str     0x0000261f      0x5d1 build/obj/stm32_dma.o
                                0x7ca (size before relaxing)
 .debug_str     0x00002bf0       0xeb build/obj/hal_lld.o
                                0x311 (size before relaxing)
 .debug_str     0x00002cdb       0x41 build/obj/adc_lld.o
                                0x18d (size before relaxing)
 .debug_str     0x00002d1c       0x45 build/obj/ext_lld_isr.o
                                0x191 (size before relaxing)
 .debug_str     0x00002d61       0x3d build/obj/can_lld.o
                                0x189 (size before relaxing)
 .debug_str     0x00002d9e       0x3d build/obj/ext_lld.o
                                0x189 (size before relaxing)
 .debug_str     0x00002ddb       0x85 build/obj/pal_lld.o
                                0x331 (size before relaxing)
 .debug_str     0x00002e60      0x162 build/obj/i2c_lld.o
                                0x6dc (size before relaxing)
 .debug_str     0x00002fc2       0x43 build/obj/rtc_lld.o
                                0x18f (size before relaxing)
 .debug_str     0x00003005      0x138 build/obj/spi_lld.o
                                0x6b4 (size before relaxing)
 .debug_str     0x0000313d       0x43 build/obj/gpt_lld.o
                                0x18f (size before relaxing)
 .debug_str     0x00003180       0x43 build/obj/icu_lld.o
                                0x18f (size before relaxing)
 .debug_str     0x000031c3       0x43 build/obj/pwm_lld.o
                                0x18f (size before relaxing)
 .debug_str     0x00003206       0xa0 build/obj/serial_lld.o
                                0x5c5 (size before relaxing)
 .debug_str     0x000032a6       0x46 build/obj/uart_lld.o
                                0x192 (size before relaxing)
 .debug_str     0x000032ec      0x2ff build/obj/usb_lld.o
                                0xa9f (size before relaxing)
 .debug_str     0x000035eb       0x12 build/obj/board.o
                                0x231 (size before relaxing)
 .debug_str     0x000035fd       0x5c build/obj/evtimer.o
                                0x3ca (size before relaxing)
 .debug_str     0x00003659      0x490 build/obj/syscalls.o
                                0x652 (size before relaxing)
 .debug_str     0x00003ae9      0x11f build/obj/chprintf.o
                                0x2ec (size before relaxing)
 .debug_str     0x00003c08       0x4e build/obj/memstreams.o
                                0x1e4 (size before relaxing)
 .debug_str     0x00003c56      0x14f build/obj/shell.o
                                0x5ce (size before relaxing)
 .debug_str     0x00003da5      0x3bf build/obj/rtcan.o
                                0x75a (size before relaxing)
 .debug_str     0x00004164       0x6f build/obj/msgqueue.o
                                0x2f9 (size before relaxing)
 .debug_str     0x000041d3       0x1e build/obj/hrt.o
                                0x16a (size before relaxing)
 .debug_str     0x000041f1       0x4b build/obj/srt.o
                                0x598 (size before relaxing)
 .debug_str     0x0000423c      0x186 build/obj/rtcan_lld_can.o
                                0x714 (size before relaxing)
 .debug_str     0x000043c2      0x114 build/obj/rtcan_lld_tim.o
                                0x645 (size before relaxing)
 .debug_str     0x000044d6       0x36 build/obj/stubs.o
                                0x1bb (size before relaxing)
 .debug_str     0x0000450c      0x12e build/obj/usbcfg.o
                                0x954 (size before relaxing)
 .debug_str     0x0000463a      0x119 build/obj/ArrayQueue_.o
                                0x1ec (size before relaxing)
 .debug_str     0x00004753      0x217 build/obj/SimplePool_.o
                                0x419 (size before relaxing)
 .debug_str     0x0000496a      0x414 build/obj/StaticList_.o
                                0x6e1 (size before relaxing)
 .debug_str     0x00004d7e      0x2f0 build/obj/StaticQueue_.o
                                0x5e0 (size before relaxing)
 .debug_str     0x0000506e     0x27af build/obj/BasePublisher.o
                               0x2e0c (size before relaxing)
 .debug_str     0x0000781d      0x2e0 build/obj/BaseSubscriber.o
                               0x2dbb (size before relaxing)
 .debug_str     0x00007afd      0x3ec build/obj/BaseSubscriberQueue.o
                                0x92f (size before relaxing)
 .debug_str     0x00007ee9       0x6e build/obj/BootMsg.o
                                0x273 (size before relaxing)
 .debug_str     0x00007f57      0x1a8 build/obj/Checksummer.o
                                0x3d7 (size before relaxing)
 .debug_str     0x000080ff      0x88a build/obj/LocalPublisher.o
                               0x35d9 (size before relaxing)
 .debug_str     0x00008989     0x122a build/obj/LocalSubscriber.o
                               0x3192 (size before relaxing)
 .debug_str     0x00009bb3       0x8d build/obj/MessagePtrQueue.o
                                0x4a9 (size before relaxing)
 .debug_str     0x00009c40       0x37 build/obj/Message.o
                                0x4d3 (size before relaxing)
 .debug_str     0x00009c77     0x3fb2 build/obj/Middleware.o
                               0x8b42 (size before relaxing)
 .debug_str     0x0000dc29      0x3ee build/obj/Node.o
                               0x4bf6 (size before relaxing)
 .debug_str     0x0000e017      0x8f7 build/obj/RemotePublisher.o
                               0x3660 (size before relaxing)
 .debug_str     0x0000e90e      0x110 build/obj/RemoteSubscriber.o
                                0xf89 (size before relaxing)
 .debug_str     0x0000ea1e      0x113 build/obj/Time.o
                                0x4f9 (size before relaxing)
 .debug_str     0x0000eb31      0x4b1 build/obj/TimestampedMsgPtrQueue.o
                                0x954 (size before relaxing)
 .debug_str     0x0000efe2      0x874 build/obj/Topic.o
                               0x6542 (size before relaxing)
 .debug_str     0x0000f856      0x6cc build/obj/Transport.o
                               0x4b1a (size before relaxing)
 .debug_str     0x0000ff22       0x77 build/obj/Utils.o
                                0x237 (size before relaxing)
 .debug_str     0x0000ff99      0x416 build/obj/Bootloader.o
                               0x4d80 (size before relaxing)
 .debug_str     0x000103af     0x127f build/obj/DebugTransport.o
                               0x8c11 (size before relaxing)
 .debug_str     0x0001162e       0xac build/obj/DebugPublisher.o
                               0x3649 (size before relaxing)
 .debug_str     0x000116da      0x382 build/obj/DebugSubscriber.o
                               0x3ffd (size before relaxing)
 .debug_str     0x00011a5c      0x5bd build/obj/RTCANTransport.o
                               0x6ff0 (size before relaxing)
 .debug_str     0x00012019       0xb9 build/obj/RTCANPublisher.o
                               0x376b (size before relaxing)
 .debug_str     0x000120d2      0x1fb build/obj/RTCANSubscriber.o
                               0x34cd (size before relaxing)
 .debug_str     0x000122cd       0x54 build/obj/Middleware_.o
                               0x5949 (size before relaxing)
 .debug_str     0x00012321       0x41 build/obj/Time_.o
                                0x4b4 (size before relaxing)
 .debug_str     0x00012362       0x3f build/obj/Bootloader_.o
                               0x252c (size before relaxing)
 .debug_str     0x000123a1      0x1c4 build/obj/Flasher_.o
                                0xb20 (size before relaxing)
 .debug_str     0x00012565      0x59b build/obj/led.o
                               0x5641 (size before relaxing)
 .debug_str     0x00012b00       0xb6 build/obj/chnew.o
                                0x47a (size before relaxing)
 .debug_str     0x00012bb6      0x502 build/obj/main.o
                               0x7a7a (size before relaxing)

.comment        0x00000000       0x70
 .comment       0x00000000       0x70 build/obj/crt0.o
                                 0x71 (size before relaxing)
 .comment       0x00000000       0x71 build/obj/vectors.o
 .comment       0x00000000       0x71 build/obj/chcore.o
 .comment       0x00000000       0x71 build/obj/chcore_v7m.o
 .comment       0x00000000       0x71 build/obj/nvic.o
 .comment       0x00000000       0x71 build/obj/chsys.o
 .comment       0x00000000       0x71 build/obj/chdebug.o
 .comment       0x00000000       0x71 build/obj/chlists.o
 .comment       0x00000000       0x71 build/obj/chvt.o
 .comment       0x00000000       0x71 build/obj/chschd.o
 .comment       0x00000000       0x71 build/obj/chthreads.o
 .comment       0x00000000       0x71 build/obj/chdynamic.o
 .comment       0x00000000       0x71 build/obj/chregistry.o
 .comment       0x00000000       0x71 build/obj/chsem.o
 .comment       0x00000000       0x71 build/obj/chmtx.o
 .comment       0x00000000       0x71 build/obj/chcond.o
 .comment       0x00000000       0x71 build/obj/chevents.o
 .comment       0x00000000       0x71 build/obj/chmsg.o
 .comment       0x00000000       0x71 build/obj/chmboxes.o
 .comment       0x00000000       0x71 build/obj/chqueues.o
 .comment       0x00000000       0x71 build/obj/chmemcore.o
 .comment       0x00000000       0x71 build/obj/chheap.o
 .comment       0x00000000       0x71 build/obj/chmempools.o
 .comment       0x00000000       0x71 build/obj/hal.o
 .comment       0x00000000       0x71 build/obj/adc.o
 .comment       0x00000000       0x71 build/obj/can.o
 .comment       0x00000000       0x71 build/obj/ext.o
 .comment       0x00000000       0x71 build/obj/gpt.o
 .comment       0x00000000       0x71 build/obj/i2c.o
 .comment       0x00000000       0x71 build/obj/icu.o
 .comment       0x00000000       0x71 build/obj/mac.o
 .comment       0x00000000       0x71 build/obj/mmc_spi.o
 .comment       0x00000000       0x71 build/obj/mmcsd.o
 .comment       0x00000000       0x71 build/obj/pal.o
 .comment       0x00000000       0x71 build/obj/pwm.o
 .comment       0x00000000       0x71 build/obj/rtc.o
 .comment       0x00000000       0x71 build/obj/sdc.o
 .comment       0x00000000       0x71 build/obj/serial.o
 .comment       0x00000000       0x71 build/obj/serial_usb.o
 .comment       0x00000000       0x71 build/obj/spi.o
 .comment       0x00000000       0x71 build/obj/tm.o
 .comment       0x00000000       0x71 build/obj/uart.o
 .comment       0x00000000       0x71 build/obj/usb.o
 .comment       0x00000000       0x71 build/obj/stm32_dma.o
 .comment       0x00000000       0x71 build/obj/hal_lld.o
 .comment       0x00000000       0x71 build/obj/adc_lld.o
 .comment       0x00000000       0x71 build/obj/ext_lld_isr.o
 .comment       0x00000000       0x71 build/obj/can_lld.o
 .comment       0x00000000       0x71 build/obj/ext_lld.o
 .comment       0x00000000       0x71 build/obj/pal_lld.o
 .comment       0x00000000       0x71 build/obj/i2c_lld.o
 .comment       0x00000000       0x71 build/obj/rtc_lld.o
 .comment       0x00000000       0x71 build/obj/spi_lld.o
 .comment       0x00000000       0x71 build/obj/gpt_lld.o
 .comment       0x00000000       0x71 build/obj/icu_lld.o
 .comment       0x00000000       0x71 build/obj/pwm_lld.o
 .comment       0x00000000       0x71 build/obj/serial_lld.o
 .comment       0x00000000       0x71 build/obj/uart_lld.o
 .comment       0x00000000       0x71 build/obj/usb_lld.o
 .comment       0x00000000       0x71 build/obj/board.o
 .comment       0x00000000       0x71 build/obj/evtimer.o
 .comment       0x00000000       0x71 build/obj/syscalls.o
 .comment       0x00000000       0x71 build/obj/chprintf.o
 .comment       0x00000000       0x71 build/obj/memstreams.o
 .comment       0x00000000       0x71 build/obj/shell.o
 .comment       0x00000000       0x71 build/obj/rtcan.o
 .comment       0x00000000       0x71 build/obj/msgqueue.o
 .comment       0x00000000       0x71 build/obj/hrt.o
 .comment       0x00000000       0x71 build/obj/srt.o
 .comment       0x00000000       0x71 build/obj/rtcan_lld_can.o
 .comment       0x00000000       0x71 build/obj/rtcan_lld_tim.o
 .comment       0x00000000       0x71 build/obj/stubs.o
 .comment       0x00000000       0x71 build/obj/usbcfg.o
 .comment       0x00000000       0x71 build/obj/ArrayQueue_.o
 .comment       0x00000000       0x71 build/obj/SimplePool_.o
 .comment       0x00000000       0x71 build/obj/StaticList_.o
 .comment       0x00000000       0x71 build/obj/StaticQueue_.o
 .comment       0x00000000       0x71 build/obj/BasePublisher.o
 .comment       0x00000000       0x71 build/obj/BaseSubscriber.o
 .comment       0x00000000       0x71 build/obj/BaseSubscriberQueue.o
 .comment       0x00000000       0x71 build/obj/BootMsg.o
 .comment       0x00000000       0x71 build/obj/Checksummer.o
 .comment       0x00000000       0x71 build/obj/LocalPublisher.o
 .comment       0x00000000       0x71 build/obj/LocalSubscriber.o
 .comment       0x00000000       0x71 build/obj/MessagePtrQueue.o
 .comment       0x00000000       0x71 build/obj/Message.o
 .comment       0x00000000       0x71 build/obj/Middleware.o
 .comment       0x00000000       0x71 build/obj/Node.o
 .comment       0x00000000       0x71 build/obj/RemotePublisher.o
 .comment       0x00000000       0x71 build/obj/RemoteSubscriber.o
 .comment       0x00000000       0x71 build/obj/Time.o
 .comment       0x00000000       0x71 build/obj/TimestampedMsgPtrQueue.o
 .comment       0x00000000       0x71 build/obj/Topic.o
 .comment       0x00000000       0x71 build/obj/Transport.o
 .comment       0x00000000       0x71 build/obj/Utils.o
 .comment       0x00000000       0x71 build/obj/Bootloader.o
 .comment       0x00000000       0x71 build/obj/DebugTransport.o
 .comment       0x00000000       0x71 build/obj/DebugPublisher.o
 .comment       0x00000000       0x71 build/obj/DebugSubscriber.o
 .comment       0x00000000       0x71 build/obj/RTCANTransport.o
 .comment       0x00000000       0x71 build/obj/RTCANPublisher.o
 .comment       0x00000000       0x71 build/obj/RTCANSubscriber.o
 .comment       0x00000000       0x71 build/obj/Middleware_.o
 .comment       0x00000000       0x71 build/obj/Time_.o
 .comment       0x00000000       0x71 build/obj/Bootloader_.o
 .comment       0x00000000       0x71 build/obj/Flasher_.o
 .comment       0x00000000       0x71 build/obj/led.o
 .comment       0x00000000       0x71 build/obj/chnew.o
 .comment       0x00000000       0x71 build/obj/main.o

.ARM.attributes
                0x00000000       0x31
 .ARM.attributes
                0x00000000       0x33 build/obj/crt0.o
 .ARM.attributes
                0x00000033       0x33 build/obj/vectors.o
 .ARM.attributes
                0x00000066       0x33 build/obj/chcore.o
 .ARM.attributes
                0x00000099       0x33 build/obj/chcore_v7m.o
 .ARM.attributes
                0x000000cc       0x33 build/obj/nvic.o
 .ARM.attributes
                0x000000ff       0x33 build/obj/chsys.o
 .ARM.attributes
                0x00000132       0x33 build/obj/chdebug.o
 .ARM.attributes
                0x00000165       0x33 build/obj/chlists.o
 .ARM.attributes
                0x00000198       0x33 build/obj/chvt.o
 .ARM.attributes
                0x000001cb       0x33 build/obj/chschd.o
 .ARM.attributes
                0x000001fe       0x33 build/obj/chthreads.o
 .ARM.attributes
                0x00000231       0x33 build/obj/chdynamic.o
 .ARM.attributes
                0x00000264       0x33 build/obj/chregistry.o
 .ARM.attributes
                0x00000297       0x33 build/obj/chsem.o
 .ARM.attributes
                0x000002ca       0x33 build/obj/chmtx.o
 .ARM.attributes
                0x000002fd       0x33 build/obj/chcond.o
 .ARM.attributes
                0x00000330       0x33 build/obj/chevents.o
 .ARM.attributes
                0x00000363       0x33 build/obj/chmsg.o
 .ARM.attributes
                0x00000396       0x33 build/obj/chmboxes.o
 .ARM.attributes
                0x000003c9       0x33 build/obj/chqueues.o
 .ARM.attributes
                0x000003fc       0x33 build/obj/chmemcore.o
 .ARM.attributes
                0x0000042f       0x33 build/obj/chheap.o
 .ARM.attributes
                0x00000462       0x33 build/obj/chmempools.o
 .ARM.attributes
                0x00000495       0x33 build/obj/hal.o
 .ARM.attributes
                0x000004c8       0x33 build/obj/adc.o
 .ARM.attributes
                0x000004fb       0x33 build/obj/can.o
 .ARM.attributes
                0x0000052e       0x33 build/obj/ext.o
 .ARM.attributes
                0x00000561       0x33 build/obj/gpt.o
 .ARM.attributes
                0x00000594       0x33 build/obj/i2c.o
 .ARM.attributes
                0x000005c7       0x33 build/obj/icu.o
 .ARM.attributes
                0x000005fa       0x33 build/obj/mac.o
 .ARM.attributes
                0x0000062d       0x33 build/obj/mmc_spi.o
 .ARM.attributes
                0x00000660       0x33 build/obj/mmcsd.o
 .ARM.attributes
                0x00000693       0x33 build/obj/pal.o
 .ARM.attributes
                0x000006c6       0x33 build/obj/pwm.o
 .ARM.attributes
                0x000006f9       0x33 build/obj/rtc.o
 .ARM.attributes
                0x0000072c       0x33 build/obj/sdc.o
 .ARM.attributes
                0x0000075f       0x33 build/obj/serial.o
 .ARM.attributes
                0x00000792       0x33 build/obj/serial_usb.o
 .ARM.attributes
                0x000007c5       0x33 build/obj/spi.o
 .ARM.attributes
                0x000007f8       0x33 build/obj/tm.o
 .ARM.attributes
                0x0000082b       0x33 build/obj/uart.o
 .ARM.attributes
                0x0000085e       0x33 build/obj/usb.o
 .ARM.attributes
                0x00000891       0x33 build/obj/stm32_dma.o
 .ARM.attributes
                0x000008c4       0x33 build/obj/hal_lld.o
 .ARM.attributes
                0x000008f7       0x33 build/obj/adc_lld.o
 .ARM.attributes
                0x0000092a       0x33 build/obj/ext_lld_isr.o
 .ARM.attributes
                0x0000095d       0x33 build/obj/can_lld.o
 .ARM.attributes
                0x00000990       0x33 build/obj/ext_lld.o
 .ARM.attributes
                0x000009c3       0x33 build/obj/pal_lld.o
 .ARM.attributes
                0x000009f6       0x33 build/obj/i2c_lld.o
 .ARM.attributes
                0x00000a29       0x33 build/obj/rtc_lld.o
 .ARM.attributes
                0x00000a5c       0x33 build/obj/spi_lld.o
 .ARM.attributes
                0x00000a8f       0x33 build/obj/gpt_lld.o
 .ARM.attributes
                0x00000ac2       0x33 build/obj/icu_lld.o
 .ARM.attributes
                0x00000af5       0x33 build/obj/pwm_lld.o
 .ARM.attributes
                0x00000b28       0x33 build/obj/serial_lld.o
 .ARM.attributes
                0x00000b5b       0x33 build/obj/uart_lld.o
 .ARM.attributes
                0x00000b8e       0x33 build/obj/usb_lld.o
 .ARM.attributes
                0x00000bc1       0x33 build/obj/board.o
 .ARM.attributes
                0x00000bf4       0x33 build/obj/evtimer.o
 .ARM.attributes
                0x00000c27       0x33 build/obj/syscalls.o
 .ARM.attributes
                0x00000c5a       0x33 build/obj/chprintf.o
 .ARM.attributes
                0x00000c8d       0x33 build/obj/memstreams.o
 .ARM.attributes
                0x00000cc0       0x33 build/obj/shell.o
 .ARM.attributes
                0x00000cf3       0x33 build/obj/rtcan.o
 .ARM.attributes
                0x00000d26       0x33 build/obj/msgqueue.o
 .ARM.attributes
                0x00000d59       0x33 build/obj/hrt.o
 .ARM.attributes
                0x00000d8c       0x33 build/obj/srt.o
 .ARM.attributes
                0x00000dbf       0x33 build/obj/rtcan_lld_can.o
 .ARM.attributes
                0x00000df2       0x33 build/obj/rtcan_lld_tim.o
 .ARM.attributes
                0x00000e25       0x33 build/obj/stubs.o
 .ARM.attributes
                0x00000e58       0x33 build/obj/usbcfg.o
 .ARM.attributes
                0x00000e8b       0x33 build/obj/ArrayQueue_.o
 .ARM.attributes
                0x00000ebe       0x33 build/obj/SimplePool_.o
 .ARM.attributes
                0x00000ef1       0x33 build/obj/StaticList_.o
 .ARM.attributes
                0x00000f24       0x33 build/obj/StaticQueue_.o
 .ARM.attributes
                0x00000f57       0x33 build/obj/BasePublisher.o
 .ARM.attributes
                0x00000f8a       0x33 build/obj/BaseSubscriber.o
 .ARM.attributes
                0x00000fbd       0x33 build/obj/BaseSubscriberQueue.o
 .ARM.attributes
                0x00000ff0       0x33 build/obj/BootMsg.o
 .ARM.attributes
                0x00001023       0x33 build/obj/Checksummer.o
 .ARM.attributes
                0x00001056       0x33 build/obj/LocalPublisher.o
 .ARM.attributes
                0x00001089       0x33 build/obj/LocalSubscriber.o
 .ARM.attributes
                0x000010bc       0x33 build/obj/MessagePtrQueue.o
 .ARM.attributes
                0x000010ef       0x33 build/obj/Message.o
 .ARM.attributes
                0x00001122       0x33 build/obj/Middleware.o
 .ARM.attributes
                0x00001155       0x33 build/obj/Node.o
 .ARM.attributes
                0x00001188       0x33 build/obj/RemotePublisher.o
 .ARM.attributes
                0x000011bb       0x33 build/obj/RemoteSubscriber.o
 .ARM.attributes
                0x000011ee       0x33 build/obj/Time.o
 .ARM.attributes
                0x00001221       0x33 build/obj/TimestampedMsgPtrQueue.o
 .ARM.attributes
                0x00001254       0x33 build/obj/Topic.o
 .ARM.attributes
                0x00001287       0x33 build/obj/Transport.o
 .ARM.attributes
                0x000012ba       0x33 build/obj/Utils.o
 .ARM.attributes
                0x000012ed       0x33 build/obj/Bootloader.o
 .ARM.attributes
                0x00001320       0x33 build/obj/DebugTransport.o
 .ARM.attributes
                0x00001353       0x33 build/obj/DebugPublisher.o
 .ARM.attributes
                0x00001386       0x33 build/obj/DebugSubscriber.o
 .ARM.attributes
                0x000013b9       0x33 build/obj/RTCANTransport.o
 .ARM.attributes
                0x000013ec       0x33 build/obj/RTCANPublisher.o
 .ARM.attributes
                0x0000141f       0x33 build/obj/RTCANSubscriber.o
 .ARM.attributes
                0x00001452       0x33 build/obj/Middleware_.o
 .ARM.attributes
                0x00001485       0x33 build/obj/Time_.o
 .ARM.attributes
                0x000014b8       0x33 build/obj/Bootloader_.o
 .ARM.attributes
                0x000014eb       0x33 build/obj/Flasher_.o
 .ARM.attributes
                0x0000151e       0x33 build/obj/led.o
 .ARM.attributes
                0x00001551       0x33 build/obj/chnew.o
 .ARM.attributes
                0x00001584       0x33 build/obj/main.o
 .ARM.attributes
                0x000015b7       0x1e /opt/R2P/tools/gcc-arm-none-eabi-4_9-2014q4/bin/../lib/gcc/arm-none-eabi/4.9.3/armv7e-m/libgcc.a(_arm_addsubdf3.o)
 .ARM.attributes
                0x000015d5       0x1e /opt/R2P/tools/gcc-arm-none-eabi-4_9-2014q4/bin/../lib/gcc/arm-none-eabi/4.9.3/armv7e-m/libgcc.a(_arm_muldivdf3.o)
 .ARM.attributes
                0x000015f3       0x1e /opt/R2P/tools/gcc-arm-none-eabi-4_9-2014q4/bin/../lib/gcc/arm-none-eabi/4.9.3/armv7e-m/libgcc.a(_arm_fixdfsi.o)
 .ARM.attributes
                0x00001611       0x1e /opt/R2P/tools/gcc-arm-none-eabi-4_9-2014q4/bin/../lib/gcc/arm-none-eabi/4.9.3/armv7e-m/libgcc.a(_arm_truncdfsf2.o)
 .ARM.attributes
                0x0000162f       0x1e /opt/R2P/tools/gcc-arm-none-eabi-4_9-2014q4/bin/../lib/gcc/arm-none-eabi/4.9.3/armv7e-m/libgcc.a(_arm_cmpsf2.o)
 .ARM.attributes
                0x0000164d       0x2e /opt/R2P/tools/gcc-arm-none-eabi-4_9-2014q4/bin/../lib/gcc/arm-none-eabi/4.9.3/../../../../arm-none-eabi/lib/armv7e-m/libg.a(lib_a-aeabi_atexit.o)
 .ARM.attributes
                0x0000167b       0x2e /opt/R2P/tools/gcc-arm-none-eabi-4_9-2014q4/bin/../lib/gcc/arm-none-eabi/4.9.3/../../../../arm-none-eabi/lib/armv7e-m/libg.a(lib_a-cxa_atexit.o)
 .ARM.attributes
                0x000016a9       0x1c /opt/R2P/tools/gcc-arm-none-eabi-4_9-2014q4/bin/../lib/gcc/arm-none-eabi/4.9.3/../../../../arm-none-eabi/lib/armv7e-m/libg.a(lib_a-memcpy.o)
 .ARM.attributes
                0x000016c5       0x2e /opt/R2P/tools/gcc-arm-none-eabi-4_9-2014q4/bin/../lib/gcc/arm-none-eabi/4.9.3/../../../../arm-none-eabi/lib/armv7e-m/libg.a(lib_a-memset.o)
 .ARM.attributes
                0x000016f3       0x2e /opt/R2P/tools/gcc-arm-none-eabi-4_9-2014q4/bin/../lib/gcc/arm-none-eabi/4.9.3/../../../../arm-none-eabi/lib/armv7e-m/libg.a(lib_a-sprintf.o)
 .ARM.attributes
                0x00001721       0x2e /opt/R2P/tools/gcc-arm-none-eabi-4_9-2014q4/bin/../lib/gcc/arm-none-eabi/4.9.3/../../../../arm-none-eabi/lib/armv7e-m/libg.a(lib_a-strcasecmp.o)
 .ARM.attributes
                0x0000174f       0x2e /opt/R2P/tools/gcc-arm-none-eabi-4_9-2014q4/bin/../lib/gcc/arm-none-eabi/4.9.3/../../../../arm-none-eabi/lib/armv7e-m/libg.a(lib_a-strncmp.o)
 .ARM.attributes
                0x0000177d       0x2e /opt/R2P/tools/gcc-arm-none-eabi-4_9-2014q4/bin/../lib/gcc/arm-none-eabi/4.9.3/../../../../arm-none-eabi/lib/armv7e-m/libg.a(lib_a-strncpy.o)
 .ARM.attributes
                0x000017ab       0x2e /opt/R2P/tools/gcc-arm-none-eabi-4_9-2014q4/bin/../lib/gcc/arm-none-eabi/4.9.3/../../../../arm-none-eabi/lib/armv7e-m/libg.a(lib_a-strnlen.o)
 .ARM.attributes
                0x000017d9       0x2e /opt/R2P/tools/gcc-arm-none-eabi-4_9-2014q4/bin/../lib/gcc/arm-none-eabi/4.9.3/../../../../arm-none-eabi/lib/armv7e-m/libg.a(lib_a-strpbrk.o)
 .ARM.attributes
                0x00001807       0x2e /opt/R2P/tools/gcc-arm-none-eabi-4_9-2014q4/bin/../lib/gcc/arm-none-eabi/4.9.3/../../../../arm-none-eabi/lib/armv7e-m/libg.a(lib_a-strspn.o)
 .ARM.attributes
                0x00001835       0x2e /opt/R2P/tools/gcc-arm-none-eabi-4_9-2014q4/bin/../lib/gcc/arm-none-eabi/4.9.3/../../../../arm-none-eabi/lib/armv7e-m/libg.a(lib_a-svfprintf.o)
 .ARM.attributes
                0x00001863       0x2e /opt/R2P/tools/gcc-arm-none-eabi-4_9-2014q4/bin/../lib/gcc/arm-none-eabi/4.9.3/../../../../arm-none-eabi/lib/armv7e-m/libg.a(lib_a-__atexit.o)
 .ARM.attributes
                0x00001891       0x2e /opt/R2P/tools/gcc-arm-none-eabi-4_9-2014q4/bin/../lib/gcc/arm-none-eabi/4.9.3/../../../../arm-none-eabi/lib/armv7e-m/libg.a(lib_a-ctype_.o)
 .ARM.attributes
                0x000018bf       0x2e /opt/R2P/tools/gcc-arm-none-eabi-4_9-2014q4/bin/../lib/gcc/arm-none-eabi/4.9.3/../../../../arm-none-eabi/lib/armv7e-m/libg.a(lib_a-dtoa.o)
 .ARM.attributes
                0x000018ed       0x2e /opt/R2P/tools/gcc-arm-none-eabi-4_9-2014q4/bin/../lib/gcc/arm-none-eabi/4.9.3/../../../../arm-none-eabi/lib/armv7e-m/libg.a(lib_a-impure.o)
 .ARM.attributes
                0x0000191b       0x2e /opt/R2P/tools/gcc-arm-none-eabi-4_9-2014q4/bin/../lib/gcc/arm-none-eabi/4.9.3/../../../../arm-none-eabi/lib/armv7e-m/libg.a(lib_a-locale.o)
 .ARM.attributes
                0x00001949       0x2e /opt/R2P/tools/gcc-arm-none-eabi-4_9-2014q4/bin/../lib/gcc/arm-none-eabi/4.9.3/../../../../arm-none-eabi/lib/armv7e-m/libg.a(lib_a-mallocr.o)
 .ARM.attributes
                0x00001977       0x2e /opt/R2P/tools/gcc-arm-none-eabi-4_9-2014q4/bin/../lib/gcc/arm-none-eabi/4.9.3/../../../../arm-none-eabi/lib/armv7e-m/libg.a(lib_a-memchr.o)
 .ARM.attributes
                0x000019a5       0x2e /opt/R2P/tools/gcc-arm-none-eabi-4_9-2014q4/bin/../lib/gcc/arm-none-eabi/4.9.3/../../../../arm-none-eabi/lib/armv7e-m/libg.a(lib_a-mlock.o)
 .ARM.attributes
                0x000019d3       0x2e /opt/R2P/tools/gcc-arm-none-eabi-4_9-2014q4/bin/../lib/gcc/arm-none-eabi/4.9.3/../../../../arm-none-eabi/lib/armv7e-m/libg.a(lib_a-mprec.o)
 .ARM.attributes
                0x00001a01       0x2e /opt/R2P/tools/gcc-arm-none-eabi-4_9-2014q4/bin/../lib/gcc/arm-none-eabi/4.9.3/../../../../arm-none-eabi/lib/armv7e-m/libg.a(lib_a-s_fpclassify.o)
 .ARM.attributes
                0x00001a2f       0x1c /opt/R2P/tools/gcc-arm-none-eabi-4_9-2014q4/bin/../lib/gcc/arm-none-eabi/4.9.3/../../../../arm-none-eabi/lib/armv7e-m/libg.a(lib_a-strcmp.o)
 .ARM.attributes
                0x00001a4b       0x2e /opt/R2P/tools/gcc-arm-none-eabi-4_9-2014q4/bin/../lib/gcc/arm-none-eabi/4.9.3/../../../../arm-none-eabi/lib/armv7e-m/libg.a(lib_a-strlen.o)
 .ARM.attributes
                0x00001a79       0x2e /opt/R2P/tools/gcc-arm-none-eabi-4_9-2014q4/bin/../lib/gcc/arm-none-eabi/4.9.3/../../../../arm-none-eabi/lib/armv7e-m/libg.a(lib_a-svfiprintf.o)
 .ARM.attributes
                0x00001aa7       0x2e /opt/R2P/tools/gcc-arm-none-eabi-4_9-2014q4/bin/../lib/gcc/arm-none-eabi/4.9.3/../../../../arm-none-eabi/lib/armv7e-m/libg.a(lib_a-callocr.o)
 .ARM.attributes
                0x00001ad5       0x2e /opt/R2P/tools/gcc-arm-none-eabi-4_9-2014q4/bin/../lib/gcc/arm-none-eabi/4.9.3/../../../../arm-none-eabi/lib/armv7e-m/libg.a(lib_a-freer.o)
 .ARM.attributes
                0x00001b03       0x2e /opt/R2P/tools/gcc-arm-none-eabi-4_9-2014q4/bin/../lib/gcc/arm-none-eabi/4.9.3/../../../../arm-none-eabi/lib/armv7e-m/libg.a(lib_a-memmove.o)
 .ARM.attributes
                0x00001b31       0x2e /opt/R2P/tools/gcc-arm-none-eabi-4_9-2014q4/bin/../lib/gcc/arm-none-eabi/4.9.3/../../../../arm-none-eabi/lib/armv7e-m/libg.a(lib_a-reallocr.o)
 .ARM.attributes
                0x00001b5f       0x1e /opt/R2P/tools/gcc-arm-none-eabi-4_9-2014q4/bin/../lib/gcc/arm-none-eabi/4.9.3/armv7e-m/libgcc.a(_arm_cmpdf2.o)
 .ARM.attributes
                0x00001b7d       0x1e /opt/R2P/tools/gcc-arm-none-eabi-4_9-2014q4/bin/../lib/gcc/arm-none-eabi/4.9.3/armv7e-m/libgcc.a(_aeabi_uldivmod.o)
 .ARM.attributes
                0x00001b9b       0x2e /opt/R2P/tools/gcc-arm-none-eabi-4_9-2014q4/bin/../lib/gcc/arm-none-eabi/4.9.3/armv7e-m/libgcc.a(bpabi.o)
 .ARM.attributes
                0x00001bc9       0x1e /opt/R2P/tools/gcc-arm-none-eabi-4_9-2014q4/bin/../lib/gcc/arm-none-eabi/4.9.3/armv7e-m/libgcc.a(_dvmd_tls.o)
 .ARM.attributes
                0x00001be7       0x2e /opt/R2P/tools/gcc-arm-none-eabi-4_9-2014q4/bin/../lib/gcc/arm-none-eabi/4.9.3/armv7e-m/libgcc.a(_divdi3.o)
 .ARM.attributes
                0x00001c15       0x2e /opt/R2P/tools/gcc-arm-none-eabi-4_9-2014q4/bin/../lib/gcc/arm-none-eabi/4.9.3/armv7e-m/libgcc.a(_udivdi3.o)

.debug_frame    0x00000000     0xa528
 .debug_frame   0x00000000       0x50 build/obj/crt0.o
 .debug_frame   0x00000050       0x20 build/obj/vectors.o
 .debug_frame   0x00000070       0x20 build/obj/chcore.o
 .debug_frame   0x00000090       0xb4 build/obj/chcore_v7m.o
 .debug_frame   0x00000144       0x7c build/obj/nvic.o
 .debug_frame   0x000001c0       0x64 build/obj/chsys.o
 .debug_frame   0x00000224      0x188 build/obj/chdebug.o
 .debug_frame   0x000003ac       0x5c build/obj/chvt.o
 .debug_frame   0x00000408      0x154 build/obj/chschd.o
 .debug_frame   0x0000055c      0x1a4 build/obj/chthreads.o
 .debug_frame   0x00000700       0x88 build/obj/chdynamic.o
 .debug_frame   0x00000788       0x48 build/obj/chregistry.o
 .debug_frame   0x000007d0      0x194 build/obj/chsem.o
 .debug_frame   0x00000964      0x144 build/obj/chmtx.o
 .debug_frame   0x00000aa8      0x13c build/obj/chcond.o
 .debug_frame   0x00000be4      0x1f0 build/obj/chevents.o
 .debug_frame   0x00000dd4       0x94 build/obj/chmsg.o
 .debug_frame   0x00000e68      0x144 build/obj/chmboxes.o
 .debug_frame   0x00000fac      0x184 build/obj/chqueues.o
 .debug_frame   0x00001130       0xd8 build/obj/chmemcore.o
 .debug_frame   0x00001208       0xa4 build/obj/chheap.o
 .debug_frame   0x000012ac       0xb8 build/obj/chmempools.o
 .debug_frame   0x00001364       0x60 build/obj/hal.o
 .debug_frame   0x000013c4      0x114 build/obj/i2c.o
 .debug_frame   0x000014d8       0x64 build/obj/pal.o
 .debug_frame   0x0000153c      0x198 build/obj/serial.o
 .debug_frame   0x000016d4      0x22c build/obj/serial_usb.o
 .debug_frame   0x00001900      0x1d4 build/obj/spi.o
 .debug_frame   0x00001ad4      0x254 build/obj/usb.o
 .debug_frame   0x00001d28      0x1b4 build/obj/stm32_dma.o
 .debug_frame   0x00001edc       0x4c build/obj/hal_lld.o
 .debug_frame   0x00001f28       0x5c build/obj/pal_lld.o
 .debug_frame   0x00001f84      0x190 build/obj/i2c_lld.o
 .debug_frame   0x00002114      0x14c build/obj/spi_lld.o
 .debug_frame   0x00002260      0x104 build/obj/serial_lld.o
 .debug_frame   0x00002364      0x2dc build/obj/usb_lld.o
 .debug_frame   0x00002640       0x3c build/obj/board.o
 .debug_frame   0x0000267c       0x64 build/obj/evtimer.o
 .debug_frame   0x000026e0       0xc0 build/obj/syscalls.o
 .debug_frame   0x000027a0       0xbc build/obj/chprintf.o
 .debug_frame   0x0000285c       0x90 build/obj/memstreams.o
 .debug_frame   0x000028ec      0x194 build/obj/shell.o
 .debug_frame   0x00002a80      0x1e8 build/obj/rtcan.o
 .debug_frame   0x00002c68       0x7c build/obj/msgqueue.o
 .debug_frame   0x00002ce4       0x48 build/obj/srt.o
 .debug_frame   0x00002d2c      0x1b8 build/obj/rtcan_lld_can.o
 .debug_frame   0x00002ee4      0x104 build/obj/rtcan_lld_tim.o
 .debug_frame   0x00002fe8       0x74 build/obj/stubs.o
 .debug_frame   0x0000305c       0x44 build/obj/usbcfg.o
 .debug_frame   0x000030a0      0x154 build/obj/SimplePool_.o
 .debug_frame   0x000031f4      0x294 build/obj/StaticList_.o
 .debug_frame   0x00003488      0x238 build/obj/StaticQueue_.o
 .debug_frame   0x000036c0      0x1bc build/obj/BasePublisher.o
 .debug_frame   0x0000387c      0x1a8 build/obj/BaseSubscriber.o
 .debug_frame   0x00003a24       0x60 build/obj/BaseSubscriberQueue.o
 .debug_frame   0x00003a84       0x28 build/obj/BootMsg.o
 .debug_frame   0x00003aac       0x44 build/obj/Checksummer.o
 .debug_frame   0x00003af0       0x7c build/obj/LocalPublisher.o
 .debug_frame   0x00003b6c      0x2e8 build/obj/LocalSubscriber.o
 .debug_frame   0x00003e54       0x60 build/obj/MessagePtrQueue.o
 .debug_frame   0x00003eb4      0x140 build/obj/Message.o
 .debug_frame   0x00003ff4     0x150c build/obj/Middleware.o
 .debug_frame   0x00005500      0x508 build/obj/Node.o
 .debug_frame   0x00005a08       0x7c build/obj/RemotePublisher.o
 .debug_frame   0x00005a84       0x7c build/obj/RemoteSubscriber.o
 .debug_frame   0x00005b00       0x60 build/obj/Time.o
 .debug_frame   0x00005b60       0x60 build/obj/TimestampedMsgPtrQueue.o
 .debug_frame   0x00005bc0      0x860 build/obj/Topic.o
 .debug_frame   0x00006420      0x5fc build/obj/Transport.o
 .debug_frame   0x00006a1c       0x40 build/obj/Utils.o
 .debug_frame   0x00006a5c      0xa74 build/obj/Bootloader.o
 .debug_frame   0x000074d0      0xac0 build/obj/DebugTransport.o
 .debug_frame   0x00007f90       0x64 build/obj/DebugPublisher.o
 .debug_frame   0x00007ff4      0x400 build/obj/DebugSubscriber.o
 .debug_frame   0x000083f4      0x56c build/obj/RTCANTransport.o
 .debug_frame   0x00008960       0x64 build/obj/RTCANPublisher.o
 .debug_frame   0x000089c4      0x170 build/obj/RTCANSubscriber.o
 .debug_frame   0x00008b34       0x2c build/obj/Middleware_.o
 .debug_frame   0x00008b60       0x64 build/obj/Time_.o
 .debug_frame   0x00008bc4       0x48 build/obj/Bootloader_.o
 .debug_frame   0x00008c0c      0x31c build/obj/Flasher_.o
 .debug_frame   0x00008f28      0x4e0 build/obj/led.o
 .debug_frame   0x00009408       0xf0 build/obj/chnew.o
 .debug_frame   0x000094f8      0x648 build/obj/main.o
 .debug_frame   0x00009b40       0x20 /opt/R2P/tools/gcc-arm-none-eabi-4_9-2014q4/bin/../lib/gcc/arm-none-eabi/4.9.3/../../../../arm-none-eabi/lib/armv7e-m/libg.a(lib_a-aeabi_atexit.o)
 .debug_frame   0x00009b60       0x2c /opt/R2P/tools/gcc-arm-none-eabi-4_9-2014q4/bin/../lib/gcc/arm-none-eabi/4.9.3/../../../../arm-none-eabi/lib/armv7e-m/libg.a(lib_a-cxa_atexit.o)
 .debug_frame   0x00009b8c       0x34 /opt/R2P/tools/gcc-arm-none-eabi-4_9-2014q4/bin/../lib/gcc/arm-none-eabi/4.9.3/../../../../arm-none-eabi/lib/armv7e-m/libg.a(lib_a-memset.o)
 .debug_frame   0x00009bc0       0x84 /opt/R2P/tools/gcc-arm-none-eabi-4_9-2014q4/bin/../lib/gcc/arm-none-eabi/4.9.3/../../../../arm-none-eabi/lib/armv7e-m/libg.a(lib_a-sprintf.o)
 .debug_frame   0x00009c44       0x2c /opt/R2P/tools/gcc-arm-none-eabi-4_9-2014q4/bin/../lib/gcc/arm-none-eabi/4.9.3/../../../../arm-none-eabi/lib/armv7e-m/libg.a(lib_a-strcasecmp.o)
 .debug_frame   0x00009c70       0x54 /opt/R2P/tools/gcc-arm-none-eabi-4_9-2014q4/bin/../lib/gcc/arm-none-eabi/4.9.3/../../../../arm-none-eabi/lib/armv7e-m/libg.a(lib_a-strncmp.o)
 .debug_frame   0x00009cc4       0x34 /opt/R2P/tools/gcc-arm-none-eabi-4_9-2014q4/bin/../lib/gcc/arm-none-eabi/4.9.3/../../../../arm-none-eabi/lib/armv7e-m/libg.a(lib_a-strncpy.o)
 .debug_frame   0x00009cf8       0x30 /opt/R2P/tools/gcc-arm-none-eabi-4_9-2014q4/bin/../lib/gcc/arm-none-eabi/4.9.3/../../../../arm-none-eabi/lib/armv7e-m/libg.a(lib_a-strnlen.o)
 .debug_frame   0x00009d28       0x34 /opt/R2P/tools/gcc-arm-none-eabi-4_9-2014q4/bin/../lib/gcc/arm-none-eabi/4.9.3/../../../../arm-none-eabi/lib/armv7e-m/libg.a(lib_a-strpbrk.o)
 .debug_frame   0x00009d5c       0x34 /opt/R2P/tools/gcc-arm-none-eabi-4_9-2014q4/bin/../lib/gcc/arm-none-eabi/4.9.3/../../../../arm-none-eabi/lib/armv7e-m/libg.a(lib_a-strspn.o)
 .debug_frame   0x00009d90       0x40 /opt/R2P/tools/gcc-arm-none-eabi-4_9-2014q4/bin/../lib/gcc/arm-none-eabi/4.9.3/../../../../arm-none-eabi/lib/armv7e-m/libg.a(lib_a-svfprintf.o)
 .debug_frame   0x00009dd0       0x34 /opt/R2P/tools/gcc-arm-none-eabi-4_9-2014q4/bin/../lib/gcc/arm-none-eabi/4.9.3/../../../../arm-none-eabi/lib/armv7e-m/libg.a(lib_a-__atexit.o)
 .debug_frame   0x00009e04       0x88 /opt/R2P/tools/gcc-arm-none-eabi-4_9-2014q4/bin/../lib/gcc/arm-none-eabi/4.9.3/../../../../arm-none-eabi/lib/armv7e-m/libg.a(lib_a-dtoa.o)
 .debug_frame   0x00009e8c       0x9c /opt/R2P/tools/gcc-arm-none-eabi-4_9-2014q4/bin/../lib/gcc/arm-none-eabi/4.9.3/../../../../arm-none-eabi/lib/armv7e-m/libg.a(lib_a-locale.o)
 .debug_frame   0x00009f28       0x58 /opt/R2P/tools/gcc-arm-none-eabi-4_9-2014q4/bin/../lib/gcc/arm-none-eabi/4.9.3/../../../../arm-none-eabi/lib/armv7e-m/libg.a(lib_a-mallocr.o)
 .debug_frame   0x00009f80       0x3c /opt/R2P/tools/gcc-arm-none-eabi-4_9-2014q4/bin/../lib/gcc/arm-none-eabi/4.9.3/../../../../arm-none-eabi/lib/armv7e-m/libg.a(lib_a-memchr.o)
 .debug_frame   0x00009fbc       0x30 /opt/R2P/tools/gcc-arm-none-eabi-4_9-2014q4/bin/../lib/gcc/arm-none-eabi/4.9.3/../../../../arm-none-eabi/lib/armv7e-m/libg.a(lib_a-mlock.o)
 .debug_frame   0x00009fec      0x268 /opt/R2P/tools/gcc-arm-none-eabi-4_9-2014q4/bin/../lib/gcc/arm-none-eabi/4.9.3/../../../../arm-none-eabi/lib/armv7e-m/libg.a(lib_a-mprec.o)
 .debug_frame   0x0000a254       0x34 /opt/R2P/tools/gcc-arm-none-eabi-4_9-2014q4/bin/../lib/gcc/arm-none-eabi/4.9.3/../../../../arm-none-eabi/lib/armv7e-m/libg.a(lib_a-s_fpclassify.o)
 .debug_frame   0x0000a288       0x20 /opt/R2P/tools/gcc-arm-none-eabi-4_9-2014q4/bin/../lib/gcc/arm-none-eabi/4.9.3/../../../../arm-none-eabi/lib/armv7e-m/libg.a(lib_a-strlen.o)
 .debug_frame   0x0000a2a8       0x78 /opt/R2P/tools/gcc-arm-none-eabi-4_9-2014q4/bin/../lib/gcc/arm-none-eabi/4.9.3/../../../../arm-none-eabi/lib/armv7e-m/libg.a(lib_a-svfiprintf.o)
 .debug_frame   0x0000a320       0x28 /opt/R2P/tools/gcc-arm-none-eabi-4_9-2014q4/bin/../lib/gcc/arm-none-eabi/4.9.3/../../../../arm-none-eabi/lib/armv7e-m/libg.a(lib_a-callocr.o)
 .debug_frame   0x0000a348       0x74 /opt/R2P/tools/gcc-arm-none-eabi-4_9-2014q4/bin/../lib/gcc/arm-none-eabi/4.9.3/../../../../arm-none-eabi/lib/armv7e-m/libg.a(lib_a-freer.o)
 .debug_frame   0x0000a3bc       0x30 /opt/R2P/tools/gcc-arm-none-eabi-4_9-2014q4/bin/../lib/gcc/arm-none-eabi/4.9.3/../../../../arm-none-eabi/lib/armv7e-m/libg.a(lib_a-memmove.o)
 .debug_frame   0x0000a3ec       0x60 /opt/R2P/tools/gcc-arm-none-eabi-4_9-2014q4/bin/../lib/gcc/arm-none-eabi/4.9.3/../../../../arm-none-eabi/lib/armv7e-m/libg.a(lib_a-reallocr.o)
 .debug_frame   0x0000a44c       0x28 /opt/R2P/tools/gcc-arm-none-eabi-4_9-2014q4/bin/../lib/gcc/arm-none-eabi/4.9.3/armv7e-m/libgcc.a(_aeabi_uldivmod.o)
 .debug_frame   0x0000a474       0x50 /opt/R2P/tools/gcc-arm-none-eabi-4_9-2014q4/bin/../lib/gcc/arm-none-eabi/4.9.3/armv7e-m/libgcc.a(bpabi.o)
 .debug_frame   0x0000a4c4       0x34 /opt/R2P/tools/gcc-arm-none-eabi-4_9-2014q4/bin/../lib/gcc/arm-none-eabi/4.9.3/armv7e-m/libgcc.a(_divdi3.o)
 .debug_frame   0x0000a4f8       0x30 /opt/R2P/tools/gcc-arm-none-eabi-4_9-2014q4/bin/../lib/gcc/arm-none-eabi/4.9.3/armv7e-m/libgcc.a(_udivdi3.o)

.debug_ranges   0x00000000     0x1988
 .debug_ranges  0x00000000       0x38 build/obj/SimplePool_.o
 .debug_ranges  0x00000038       0x50 build/obj/StaticList_.o
 .debug_ranges  0x00000088       0x40 build/obj/StaticQueue_.o
 .debug_ranges  0x000000c8       0x50 build/obj/BasePublisher.o
 .debug_ranges  0x00000118       0x58 build/obj/BaseSubscriber.o
 .debug_ranges  0x00000170       0x20 build/obj/BaseSubscriberQueue.o
 .debug_ranges  0x00000190       0x18 build/obj/Checksummer.o
 .debug_ranges  0x000001a8       0x18 build/obj/LocalPublisher.o
 .debug_ranges  0x000001c0       0xb8 build/obj/LocalSubscriber.o
 .debug_ranges  0x00000278       0x20 build/obj/MessagePtrQueue.o
 .debug_ranges  0x00000298       0x48 build/obj/Message.o
 .debug_ranges  0x000002e0      0x650 build/obj/Middleware.o
 .debug_ranges  0x00000930      0x168 build/obj/Node.o
 .debug_ranges  0x00000a98       0x18 build/obj/RemotePublisher.o
 .debug_ranges  0x00000ab0       0x18 build/obj/RemoteSubscriber.o
 .debug_ranges  0x00000ac8       0x18 build/obj/Time.o
 .debug_ranges  0x00000ae0       0x20 build/obj/TimestampedMsgPtrQueue.o
 .debug_ranges  0x00000b00      0x220 build/obj/Topic.o
 .debug_ranges  0x00000d20      0x178 build/obj/Transport.o
 .debug_ranges  0x00000e98      0x258 build/obj/Bootloader.o
 .debug_ranges  0x000010f0      0x290 build/obj/DebugTransport.o
 .debug_ranges  0x00001380      0x100 build/obj/DebugSubscriber.o
 .debug_ranges  0x00001480      0x140 build/obj/RTCANTransport.o
 .debug_ranges  0x000015c0       0x48 build/obj/RTCANSubscriber.o
 .debug_ranges  0x00001608       0x20 build/obj/Time_.o
 .debug_ranges  0x00001628       0x68 build/obj/Flasher_.o
 .debug_ranges  0x00001690      0x148 build/obj/led.o
 .debug_ranges  0x000017d8      0x1b0 build/obj/main.o

Cross Reference Table

Symbol                                            File
BusFaultVector                                    build/obj/vectors.o
DebugMonitorVector                                build/obj/vectors.o
HardFaultVector                                   build/obj/vectors.o
I2CD2                                             build/obj/i2c_lld.o
MemManageVector                                   build/obj/vectors.o
NMIVector                                         build/obj/vectors.o
PendSVVector                                      build/obj/vectors.o
RTCAND1                                           build/obj/rtcan_lld_can.o
                                                  build/obj/RTCANTransport.o
                                                  build/obj/rtcan_lld_tim.o
                                                  build/obj/rtcan.o
ResetHandler                                      build/obj/crt0.o
                                                  build/obj/vectors.o
SD3                                               build/obj/serial_lld.o
                                                  build/obj/main.o
SDU1                                              build/obj/usbcfg.o
                                                  build/obj/main.o
SPID2                                             build/obj/spi_lld.o
SVCallVector                                      build/obj/chcore_v7m.o
                                                  build/obj/vectors.o
SysTickVector                                     build/obj/chcore_v7m.o
                                                  build/obj/vectors.o
USBD1                                             build/obj/usb_lld.o
                                                  build/obj/usbcfg.o
UsageFaultVector                                  build/obj/vectors.o
Vector100                                         build/obj/vectors.o
Vector104                                         build/obj/vectors.o
Vector108                                         build/obj/vectors.o
Vector10C                                         build/obj/vectors.o
Vector110                                         build/obj/vectors.o
Vector114                                         build/obj/vectors.o
Vector118                                         build/obj/vectors.o
Vector11C                                         build/obj/vectors.o
Vector120                                         build/obj/stm32_dma.o
                                                  build/obj/vectors.o
Vector124                                         build/obj/stm32_dma.o
                                                  build/obj/vectors.o
Vector128                                         build/obj/stm32_dma.o
                                                  build/obj/vectors.o
Vector12C                                         build/obj/stm32_dma.o
                                                  build/obj/vectors.o
Vector130                                         build/obj/stm32_dma.o
                                                  build/obj/vectors.o
Vector134                                         build/obj/vectors.o
Vector138                                         build/obj/vectors.o
Vector13C                                         build/obj/vectors.o
Vector140                                         build/obj/vectors.o
Vector144                                         build/obj/vectors.o
Vector148                                         build/obj/vectors.o
Vector14C                                         build/obj/vectors.o
Vector150                                         build/obj/vectors.o
Vector154                                         build/obj/vectors.o
Vector158                                         build/obj/vectors.o
Vector15C                                         build/obj/vectors.o
Vector160                                         build/obj/vectors.o
Vector164                                         build/obj/vectors.o
Vector168                                         build/obj/usb_lld.o
                                                  build/obj/vectors.o
Vector16C                                         build/obj/usb_lld.o
                                                  build/obj/vectors.o
Vector170                                         build/obj/vectors.o
Vector174                                         build/obj/vectors.o
Vector178                                         build/obj/vectors.o
Vector17C                                         build/obj/vectors.o
Vector180                                         build/obj/vectors.o
Vector184                                         build/obj/vectors.o
Vector1C                                          build/obj/vectors.o
Vector20                                          build/obj/vectors.o
Vector24                                          build/obj/vectors.o
Vector28                                          build/obj/vectors.o
Vector34                                          build/obj/vectors.o
Vector40                                          build/obj/vectors.o
Vector44                                          build/obj/vectors.o
Vector48                                          build/obj/vectors.o
Vector4C                                          build/obj/vectors.o
Vector50                                          build/obj/vectors.o
Vector54                                          build/obj/vectors.o
Vector58                                          build/obj/vectors.o
Vector5C                                          build/obj/vectors.o
Vector60                                          build/obj/vectors.o
Vector64                                          build/obj/vectors.o
Vector68                                          build/obj/vectors.o
Vector6C                                          build/obj/stm32_dma.o
                                                  build/obj/vectors.o
Vector70                                          build/obj/stm32_dma.o
                                                  build/obj/vectors.o
Vector74                                          build/obj/stm32_dma.o
                                                  build/obj/vectors.o
Vector78                                          build/obj/stm32_dma.o
                                                  build/obj/vectors.o
Vector7C                                          build/obj/stm32_dma.o
                                                  build/obj/vectors.o
Vector80                                          build/obj/stm32_dma.o
                                                  build/obj/vectors.o
Vector84                                          build/obj/stm32_dma.o
                                                  build/obj/vectors.o
Vector88                                          build/obj/vectors.o
Vector8C                                          build/obj/rtcan_lld_can.o
                                                  build/obj/vectors.o
Vector90                                          build/obj/rtcan_lld_can.o
                                                  build/obj/vectors.o
Vector94                                          build/obj/rtcan_lld_can.o
                                                  build/obj/vectors.o
Vector98                                          build/obj/rtcan_lld_can.o
                                                  build/obj/vectors.o
Vector9C                                          build/obj/vectors.o
VectorA0                                          build/obj/vectors.o
VectorA4                                          build/obj/vectors.o
VectorA8                                          build/obj/vectors.o
VectorAC                                          build/obj/vectors.o
VectorB0                                          build/obj/vectors.o
VectorB4                                          build/obj/rtcan_lld_tim.o
                                                  build/obj/vectors.o
VectorB8                                          build/obj/vectors.o
VectorBC                                          build/obj/vectors.o
VectorC0                                          build/obj/vectors.o
VectorC4                                          build/obj/i2c_lld.o
                                                  build/obj/vectors.o
VectorC8                                          build/obj/i2c_lld.o
                                                  build/obj/vectors.o
VectorCC                                          build/obj/vectors.o
VectorD0                                          build/obj/vectors.o
VectorD4                                          build/obj/vectors.o
VectorD8                                          build/obj/vectors.o
VectorDC                                          build/obj/serial_lld.o
                                                  build/obj/vectors.o
VectorE0                                          build/obj/vectors.o
VectorE4                                          build/obj/vectors.o
VectorE8                                          build/obj/vectors.o
VectorEC                                          build/obj/vectors.o
VectorF0                                          build/obj/vectors.o
VectorF4                                          build/obj/vectors.o
VectorF8                                          build/obj/vectors.o
VectorFC                                          build/obj/vectors.o
_Balloc                                           /opt/R2P/tools/gcc-arm-none-eabi-4_9-2014q4/bin/../lib/gcc/arm-none-eabi/4.9.3/../../../../arm-none-eabi/lib/armv7e-m/libg.a(lib_a-mprec.o)
                                                  /opt/R2P/tools/gcc-arm-none-eabi-4_9-2014q4/bin/../lib/gcc/arm-none-eabi/4.9.3/../../../../arm-none-eabi/lib/armv7e-m/libg.a(lib_a-dtoa.o)
_Bfree                                            /opt/R2P/tools/gcc-arm-none-eabi-4_9-2014q4/bin/../lib/gcc/arm-none-eabi/4.9.3/../../../../arm-none-eabi/lib/armv7e-m/libg.a(lib_a-mprec.o)
                                                  /opt/R2P/tools/gcc-arm-none-eabi-4_9-2014q4/bin/../lib/gcc/arm-none-eabi/4.9.3/../../../../arm-none-eabi/lib/armv7e-m/libg.a(lib_a-dtoa.o)
_PathLocale                                       /opt/R2P/tools/gcc-arm-none-eabi-4_9-2014q4/bin/../lib/gcc/arm-none-eabi/4.9.3/../../../../arm-none-eabi/lib/armv7e-m/libg.a(lib_a-locale.o)
__adddf3                                          /opt/R2P/tools/gcc-arm-none-eabi-4_9-2014q4/bin/../lib/gcc/arm-none-eabi/4.9.3/armv7e-m/libgcc.a(_arm_addsubdf3.o)
__aeabi_atexit                                    /opt/R2P/tools/gcc-arm-none-eabi-4_9-2014q4/bin/../lib/gcc/arm-none-eabi/4.9.3/../../../../arm-none-eabi/lib/armv7e-m/libg.a(lib_a-aeabi_atexit.o)
                                                  build/obj/main.o
__aeabi_cdcmpeq                                   /opt/R2P/tools/gcc-arm-none-eabi-4_9-2014q4/bin/../lib/gcc/arm-none-eabi/4.9.3/armv7e-m/libgcc.a(_arm_cmpdf2.o)
__aeabi_cdcmple                                   /opt/R2P/tools/gcc-arm-none-eabi-4_9-2014q4/bin/../lib/gcc/arm-none-eabi/4.9.3/armv7e-m/libgcc.a(_arm_cmpdf2.o)
__aeabi_cdrcmple                                  /opt/R2P/tools/gcc-arm-none-eabi-4_9-2014q4/bin/../lib/gcc/arm-none-eabi/4.9.3/armv7e-m/libgcc.a(_arm_cmpdf2.o)
__aeabi_cfcmpeq                                   /opt/R2P/tools/gcc-arm-none-eabi-4_9-2014q4/bin/../lib/gcc/arm-none-eabi/4.9.3/armv7e-m/libgcc.a(_arm_cmpsf2.o)
__aeabi_cfcmple                                   /opt/R2P/tools/gcc-arm-none-eabi-4_9-2014q4/bin/../lib/gcc/arm-none-eabi/4.9.3/armv7e-m/libgcc.a(_arm_cmpsf2.o)
__aeabi_cfrcmple                                  /opt/R2P/tools/gcc-arm-none-eabi-4_9-2014q4/bin/../lib/gcc/arm-none-eabi/4.9.3/armv7e-m/libgcc.a(_arm_cmpsf2.o)
__aeabi_d2f                                       /opt/R2P/tools/gcc-arm-none-eabi-4_9-2014q4/bin/../lib/gcc/arm-none-eabi/4.9.3/armv7e-m/libgcc.a(_arm_truncdfsf2.o)
                                                  build/obj/chprintf.o
__aeabi_d2iz                                      /opt/R2P/tools/gcc-arm-none-eabi-4_9-2014q4/bin/../lib/gcc/arm-none-eabi/4.9.3/armv7e-m/libgcc.a(_arm_fixdfsi.o)
                                                  /opt/R2P/tools/gcc-arm-none-eabi-4_9-2014q4/bin/../lib/gcc/arm-none-eabi/4.9.3/../../../../arm-none-eabi/lib/armv7e-m/libg.a(lib_a-dtoa.o)
                                                  build/obj/chprintf.o
__aeabi_dadd                                      /opt/R2P/tools/gcc-arm-none-eabi-4_9-2014q4/bin/../lib/gcc/arm-none-eabi/4.9.3/armv7e-m/libgcc.a(_arm_addsubdf3.o)
                                                  /opt/R2P/tools/gcc-arm-none-eabi-4_9-2014q4/bin/../lib/gcc/arm-none-eabi/4.9.3/../../../../arm-none-eabi/lib/armv7e-m/libg.a(lib_a-dtoa.o)
__aeabi_dcmpeq                                    /opt/R2P/tools/gcc-arm-none-eabi-4_9-2014q4/bin/../lib/gcc/arm-none-eabi/4.9.3/armv7e-m/libgcc.a(_arm_cmpdf2.o)
                                                  /opt/R2P/tools/gcc-arm-none-eabi-4_9-2014q4/bin/../lib/gcc/arm-none-eabi/4.9.3/../../../../arm-none-eabi/lib/armv7e-m/libg.a(lib_a-dtoa.o)
                                                  /opt/R2P/tools/gcc-arm-none-eabi-4_9-2014q4/bin/../lib/gcc/arm-none-eabi/4.9.3/../../../../arm-none-eabi/lib/armv7e-m/libg.a(lib_a-svfprintf.o)
__aeabi_dcmpge                                    /opt/R2P/tools/gcc-arm-none-eabi-4_9-2014q4/bin/../lib/gcc/arm-none-eabi/4.9.3/armv7e-m/libgcc.a(_arm_cmpdf2.o)
                                                  /opt/R2P/tools/gcc-arm-none-eabi-4_9-2014q4/bin/../lib/gcc/arm-none-eabi/4.9.3/../../../../arm-none-eabi/lib/armv7e-m/libg.a(lib_a-dtoa.o)
__aeabi_dcmpgt                                    /opt/R2P/tools/gcc-arm-none-eabi-4_9-2014q4/bin/../lib/gcc/arm-none-eabi/4.9.3/armv7e-m/libgcc.a(_arm_cmpdf2.o)
                                                  /opt/R2P/tools/gcc-arm-none-eabi-4_9-2014q4/bin/../lib/gcc/arm-none-eabi/4.9.3/../../../../arm-none-eabi/lib/armv7e-m/libg.a(lib_a-dtoa.o)
__aeabi_dcmple                                    /opt/R2P/tools/gcc-arm-none-eabi-4_9-2014q4/bin/../lib/gcc/arm-none-eabi/4.9.3/armv7e-m/libgcc.a(_arm_cmpdf2.o)
__aeabi_dcmplt                                    /opt/R2P/tools/gcc-arm-none-eabi-4_9-2014q4/bin/../lib/gcc/arm-none-eabi/4.9.3/armv7e-m/libgcc.a(_arm_cmpdf2.o)
                                                  /opt/R2P/tools/gcc-arm-none-eabi-4_9-2014q4/bin/../lib/gcc/arm-none-eabi/4.9.3/../../../../arm-none-eabi/lib/armv7e-m/libg.a(lib_a-dtoa.o)
                                                  /opt/R2P/tools/gcc-arm-none-eabi-4_9-2014q4/bin/../lib/gcc/arm-none-eabi/4.9.3/../../../../arm-none-eabi/lib/armv7e-m/libg.a(lib_a-svfprintf.o)
__aeabi_ddiv                                      /opt/R2P/tools/gcc-arm-none-eabi-4_9-2014q4/bin/../lib/gcc/arm-none-eabi/4.9.3/armv7e-m/libgcc.a(_arm_muldivdf3.o)
                                                  /opt/R2P/tools/gcc-arm-none-eabi-4_9-2014q4/bin/../lib/gcc/arm-none-eabi/4.9.3/../../../../arm-none-eabi/lib/armv7e-m/libg.a(lib_a-mprec.o)
                                                  /opt/R2P/tools/gcc-arm-none-eabi-4_9-2014q4/bin/../lib/gcc/arm-none-eabi/4.9.3/../../../../arm-none-eabi/lib/armv7e-m/libg.a(lib_a-dtoa.o)
__aeabi_dmul                                      /opt/R2P/tools/gcc-arm-none-eabi-4_9-2014q4/bin/../lib/gcc/arm-none-eabi/4.9.3/armv7e-m/libgcc.a(_arm_muldivdf3.o)
                                                  /opt/R2P/tools/gcc-arm-none-eabi-4_9-2014q4/bin/../lib/gcc/arm-none-eabi/4.9.3/../../../../arm-none-eabi/lib/armv7e-m/libg.a(lib_a-mprec.o)
                                                  /opt/R2P/tools/gcc-arm-none-eabi-4_9-2014q4/bin/../lib/gcc/arm-none-eabi/4.9.3/../../../../arm-none-eabi/lib/armv7e-m/libg.a(lib_a-dtoa.o)
                                                  build/obj/chprintf.o
__aeabi_drsub                                     /opt/R2P/tools/gcc-arm-none-eabi-4_9-2014q4/bin/../lib/gcc/arm-none-eabi/4.9.3/armv7e-m/libgcc.a(_arm_addsubdf3.o)
__aeabi_dsub                                      /opt/R2P/tools/gcc-arm-none-eabi-4_9-2014q4/bin/../lib/gcc/arm-none-eabi/4.9.3/armv7e-m/libgcc.a(_arm_addsubdf3.o)
                                                  /opt/R2P/tools/gcc-arm-none-eabi-4_9-2014q4/bin/../lib/gcc/arm-none-eabi/4.9.3/../../../../arm-none-eabi/lib/armv7e-m/libg.a(lib_a-dtoa.o)
                                                  build/obj/chprintf.o
__aeabi_f2d                                       /opt/R2P/tools/gcc-arm-none-eabi-4_9-2014q4/bin/../lib/gcc/arm-none-eabi/4.9.3/armv7e-m/libgcc.a(_arm_addsubdf3.o)
                                                  build/obj/chprintf.o
__aeabi_fcmpeq                                    /opt/R2P/tools/gcc-arm-none-eabi-4_9-2014q4/bin/../lib/gcc/arm-none-eabi/4.9.3/armv7e-m/libgcc.a(_arm_cmpsf2.o)
__aeabi_fcmpge                                    /opt/R2P/tools/gcc-arm-none-eabi-4_9-2014q4/bin/../lib/gcc/arm-none-eabi/4.9.3/armv7e-m/libgcc.a(_arm_cmpsf2.o)
__aeabi_fcmpgt                                    /opt/R2P/tools/gcc-arm-none-eabi-4_9-2014q4/bin/../lib/gcc/arm-none-eabi/4.9.3/armv7e-m/libgcc.a(_arm_cmpsf2.o)
__aeabi_fcmple                                    /opt/R2P/tools/gcc-arm-none-eabi-4_9-2014q4/bin/../lib/gcc/arm-none-eabi/4.9.3/armv7e-m/libgcc.a(_arm_cmpsf2.o)
__aeabi_fcmplt                                    /opt/R2P/tools/gcc-arm-none-eabi-4_9-2014q4/bin/../lib/gcc/arm-none-eabi/4.9.3/armv7e-m/libgcc.a(_arm_cmpsf2.o)
                                                  build/obj/chprintf.o
__aeabi_i2d                                       /opt/R2P/tools/gcc-arm-none-eabi-4_9-2014q4/bin/../lib/gcc/arm-none-eabi/4.9.3/armv7e-m/libgcc.a(_arm_addsubdf3.o)
                                                  /opt/R2P/tools/gcc-arm-none-eabi-4_9-2014q4/bin/../lib/gcc/arm-none-eabi/4.9.3/../../../../arm-none-eabi/lib/armv7e-m/libg.a(lib_a-dtoa.o)
                                                  build/obj/chprintf.o
__aeabi_idiv0                                     /opt/R2P/tools/gcc-arm-none-eabi-4_9-2014q4/bin/../lib/gcc/arm-none-eabi/4.9.3/armv7e-m/libgcc.a(_dvmd_tls.o)
__aeabi_l2d                                       /opt/R2P/tools/gcc-arm-none-eabi-4_9-2014q4/bin/../lib/gcc/arm-none-eabi/4.9.3/armv7e-m/libgcc.a(_arm_addsubdf3.o)
__aeabi_ldiv0                                     /opt/R2P/tools/gcc-arm-none-eabi-4_9-2014q4/bin/../lib/gcc/arm-none-eabi/4.9.3/armv7e-m/libgcc.a(_dvmd_tls.o)
                                                  /opt/R2P/tools/gcc-arm-none-eabi-4_9-2014q4/bin/../lib/gcc/arm-none-eabi/4.9.3/armv7e-m/libgcc.a(_aeabi_uldivmod.o)
__aeabi_ui2d                                      /opt/R2P/tools/gcc-arm-none-eabi-4_9-2014q4/bin/../lib/gcc/arm-none-eabi/4.9.3/armv7e-m/libgcc.a(_arm_addsubdf3.o)
                                                  /opt/R2P/tools/gcc-arm-none-eabi-4_9-2014q4/bin/../lib/gcc/arm-none-eabi/4.9.3/../../../../arm-none-eabi/lib/armv7e-m/libg.a(lib_a-dtoa.o)
                                                  build/obj/chprintf.o
__aeabi_ul2d                                      /opt/R2P/tools/gcc-arm-none-eabi-4_9-2014q4/bin/../lib/gcc/arm-none-eabi/4.9.3/armv7e-m/libgcc.a(_arm_addsubdf3.o)
__aeabi_uldivmod                                  /opt/R2P/tools/gcc-arm-none-eabi-4_9-2014q4/bin/../lib/gcc/arm-none-eabi/4.9.3/armv7e-m/libgcc.a(_aeabi_uldivmod.o)
                                                  /opt/R2P/tools/gcc-arm-none-eabi-4_9-2014q4/bin/../lib/gcc/arm-none-eabi/4.9.3/../../../../arm-none-eabi/lib/armv7e-m/libg.a(lib_a-svfiprintf.o)
                                                  /opt/R2P/tools/gcc-arm-none-eabi-4_9-2014q4/bin/../lib/gcc/arm-none-eabi/4.9.3/../../../../arm-none-eabi/lib/armv7e-m/libg.a(lib_a-svfprintf.o)
__any_on                                          /opt/R2P/tools/gcc-arm-none-eabi-4_9-2014q4/bin/../lib/gcc/arm-none-eabi/4.9.3/../../../../arm-none-eabi/lib/armv7e-m/libg.a(lib_a-mprec.o)
__b2d                                             /opt/R2P/tools/gcc-arm-none-eabi-4_9-2014q4/bin/../lib/gcc/arm-none-eabi/4.9.3/../../../../arm-none-eabi/lib/armv7e-m/libg.a(lib_a-mprec.o)
__cmpdf2                                          /opt/R2P/tools/gcc-arm-none-eabi-4_9-2014q4/bin/../lib/gcc/arm-none-eabi/4.9.3/armv7e-m/libgcc.a(_arm_cmpdf2.o)
__cmpsf2                                          /opt/R2P/tools/gcc-arm-none-eabi-4_9-2014q4/bin/../lib/gcc/arm-none-eabi/4.9.3/armv7e-m/libgcc.a(_arm_cmpsf2.o)
__copybits                                        /opt/R2P/tools/gcc-arm-none-eabi-4_9-2014q4/bin/../lib/gcc/arm-none-eabi/4.9.3/../../../../arm-none-eabi/lib/armv7e-m/libg.a(lib_a-mprec.o)
__ctype_ptr__                                     /opt/R2P/tools/gcc-arm-none-eabi-4_9-2014q4/bin/../lib/gcc/arm-none-eabi/4.9.3/../../../../arm-none-eabi/lib/armv7e-m/libg.a(lib_a-ctype_.o)
                                                  /opt/R2P/tools/gcc-arm-none-eabi-4_9-2014q4/bin/../lib/gcc/arm-none-eabi/4.9.3/../../../../arm-none-eabi/lib/armv7e-m/libg.a(lib_a-strcasecmp.o)
__cxa_atexit                                      /opt/R2P/tools/gcc-arm-none-eabi-4_9-2014q4/bin/../lib/gcc/arm-none-eabi/4.9.3/../../../../arm-none-eabi/lib/armv7e-m/libg.a(lib_a-cxa_atexit.o)
                                                  /opt/R2P/tools/gcc-arm-none-eabi-4_9-2014q4/bin/../lib/gcc/arm-none-eabi/4.9.3/../../../../arm-none-eabi/lib/armv7e-m/libg.a(lib_a-aeabi_atexit.o)
__cxa_pure_virtual                                build/obj/stubs.o
                                                  build/obj/Transport.o
                                                  build/obj/RemoteSubscriber.o
                                                  build/obj/RemotePublisher.o
                                                  build/obj/LocalSubscriber.o
                                                  build/obj/LocalPublisher.o
                                                  build/obj/BaseSubscriber.o
                                                  build/obj/BasePublisher.o
__d2b                                             /opt/R2P/tools/gcc-arm-none-eabi-4_9-2014q4/bin/../lib/gcc/arm-none-eabi/4.9.3/../../../../arm-none-eabi/lib/armv7e-m/libg.a(lib_a-mprec.o)
                                                  /opt/R2P/tools/gcc-arm-none-eabi-4_9-2014q4/bin/../lib/gcc/arm-none-eabi/4.9.3/../../../../arm-none-eabi/lib/armv7e-m/libg.a(lib_a-dtoa.o)
__divdf3                                          /opt/R2P/tools/gcc-arm-none-eabi-4_9-2014q4/bin/../lib/gcc/arm-none-eabi/4.9.3/armv7e-m/libgcc.a(_arm_muldivdf3.o)
__divdi3                                          /opt/R2P/tools/gcc-arm-none-eabi-4_9-2014q4/bin/../lib/gcc/arm-none-eabi/4.9.3/armv7e-m/libgcc.a(_divdi3.o)
                                                  /opt/R2P/tools/gcc-arm-none-eabi-4_9-2014q4/bin/../lib/gcc/arm-none-eabi/4.9.3/armv7e-m/libgcc.a(bpabi.o)
__dso_handle                                      build/obj/stubs.o
                                                  build/obj/main.o
__early_init                                      build/obj/board.o
                                                  build/obj/crt0.o
__eqdf2                                           /opt/R2P/tools/gcc-arm-none-eabi-4_9-2014q4/bin/../lib/gcc/arm-none-eabi/4.9.3/armv7e-m/libgcc.a(_arm_cmpdf2.o)
__eqsf2                                           /opt/R2P/tools/gcc-arm-none-eabi-4_9-2014q4/bin/../lib/gcc/arm-none-eabi/4.9.3/armv7e-m/libgcc.a(_arm_cmpsf2.o)
__extendsfdf2                                     /opt/R2P/tools/gcc-arm-none-eabi-4_9-2014q4/bin/../lib/gcc/arm-none-eabi/4.9.3/armv7e-m/libgcc.a(_arm_addsubdf3.o)
__fini_array_end                                  build/obj/crt0.o
__fini_array_start                                build/obj/crt0.o
__fixdfsi                                         /opt/R2P/tools/gcc-arm-none-eabi-4_9-2014q4/bin/../lib/gcc/arm-none-eabi/4.9.3/armv7e-m/libgcc.a(_arm_fixdfsi.o)
__floatdidf                                       /opt/R2P/tools/gcc-arm-none-eabi-4_9-2014q4/bin/../lib/gcc/arm-none-eabi/4.9.3/armv7e-m/libgcc.a(_arm_addsubdf3.o)
__floatsidf                                       /opt/R2P/tools/gcc-arm-none-eabi-4_9-2014q4/bin/../lib/gcc/arm-none-eabi/4.9.3/armv7e-m/libgcc.a(_arm_addsubdf3.o)
__floatundidf                                     /opt/R2P/tools/gcc-arm-none-eabi-4_9-2014q4/bin/../lib/gcc/arm-none-eabi/4.9.3/armv7e-m/libgcc.a(_arm_addsubdf3.o)
__floatunsidf                                     /opt/R2P/tools/gcc-arm-none-eabi-4_9-2014q4/bin/../lib/gcc/arm-none-eabi/4.9.3/armv7e-m/libgcc.a(_arm_addsubdf3.o)
__fpclassifyd                                     /opt/R2P/tools/gcc-arm-none-eabi-4_9-2014q4/bin/../lib/gcc/arm-none-eabi/4.9.3/../../../../arm-none-eabi/lib/armv7e-m/libg.a(lib_a-s_fpclassify.o)
                                                  /opt/R2P/tools/gcc-arm-none-eabi-4_9-2014q4/bin/../lib/gcc/arm-none-eabi/4.9.3/../../../../arm-none-eabi/lib/armv7e-m/libg.a(lib_a-svfprintf.o)
__gedf2                                           /opt/R2P/tools/gcc-arm-none-eabi-4_9-2014q4/bin/../lib/gcc/arm-none-eabi/4.9.3/armv7e-m/libgcc.a(_arm_cmpdf2.o)
__gesf2                                           /opt/R2P/tools/gcc-arm-none-eabi-4_9-2014q4/bin/../lib/gcc/arm-none-eabi/4.9.3/armv7e-m/libgcc.a(_arm_cmpsf2.o)
__gnu_ldivmod_helper                              /opt/R2P/tools/gcc-arm-none-eabi-4_9-2014q4/bin/../lib/gcc/arm-none-eabi/4.9.3/armv7e-m/libgcc.a(bpabi.o)
__gnu_uldivmod_helper                             /opt/R2P/tools/gcc-arm-none-eabi-4_9-2014q4/bin/../lib/gcc/arm-none-eabi/4.9.3/armv7e-m/libgcc.a(bpabi.o)
                                                  /opt/R2P/tools/gcc-arm-none-eabi-4_9-2014q4/bin/../lib/gcc/arm-none-eabi/4.9.3/armv7e-m/libgcc.a(_aeabi_uldivmod.o)
__gtdf2                                           /opt/R2P/tools/gcc-arm-none-eabi-4_9-2014q4/bin/../lib/gcc/arm-none-eabi/4.9.3/armv7e-m/libgcc.a(_arm_cmpdf2.o)
__gtsf2                                           /opt/R2P/tools/gcc-arm-none-eabi-4_9-2014q4/bin/../lib/gcc/arm-none-eabi/4.9.3/armv7e-m/libgcc.a(_arm_cmpsf2.o)
__heap_base__                                     build/obj/chmemcore.o
__heap_end__                                      build/obj/chmemcore.o
__hi0bits                                         /opt/R2P/tools/gcc-arm-none-eabi-4_9-2014q4/bin/../lib/gcc/arm-none-eabi/4.9.3/../../../../arm-none-eabi/lib/armv7e-m/libg.a(lib_a-mprec.o)
                                                  /opt/R2P/tools/gcc-arm-none-eabi-4_9-2014q4/bin/../lib/gcc/arm-none-eabi/4.9.3/../../../../arm-none-eabi/lib/armv7e-m/libg.a(lib_a-dtoa.o)
__i2b                                             /opt/R2P/tools/gcc-arm-none-eabi-4_9-2014q4/bin/../lib/gcc/arm-none-eabi/4.9.3/../../../../arm-none-eabi/lib/armv7e-m/libg.a(lib_a-mprec.o)
                                                  /opt/R2P/tools/gcc-arm-none-eabi-4_9-2014q4/bin/../lib/gcc/arm-none-eabi/4.9.3/../../../../arm-none-eabi/lib/armv7e-m/libg.a(lib_a-dtoa.o)
__init_array_end                                  build/obj/crt0.o
__init_array_start                                build/obj/crt0.o
__late_init                                       build/obj/crt0.o
__ledf2                                           /opt/R2P/tools/gcc-arm-none-eabi-4_9-2014q4/bin/../lib/gcc/arm-none-eabi/4.9.3/armv7e-m/libgcc.a(_arm_cmpdf2.o)
__lesf2                                           /opt/R2P/tools/gcc-arm-none-eabi-4_9-2014q4/bin/../lib/gcc/arm-none-eabi/4.9.3/armv7e-m/libgcc.a(_arm_cmpsf2.o)
__lo0bits                                         /opt/R2P/tools/gcc-arm-none-eabi-4_9-2014q4/bin/../lib/gcc/arm-none-eabi/4.9.3/../../../../arm-none-eabi/lib/armv7e-m/libg.a(lib_a-mprec.o)
__locale_charset                                  /opt/R2P/tools/gcc-arm-none-eabi-4_9-2014q4/bin/../lib/gcc/arm-none-eabi/4.9.3/../../../../arm-none-eabi/lib/armv7e-m/libg.a(lib_a-locale.o)
__locale_cjk_lang                                 /opt/R2P/tools/gcc-arm-none-eabi-4_9-2014q4/bin/../lib/gcc/arm-none-eabi/4.9.3/../../../../arm-none-eabi/lib/armv7e-m/libg.a(lib_a-locale.o)
__locale_mb_cur_max                               /opt/R2P/tools/gcc-arm-none-eabi-4_9-2014q4/bin/../lib/gcc/arm-none-eabi/4.9.3/../../../../arm-none-eabi/lib/armv7e-m/libg.a(lib_a-locale.o)
__locale_msgcharset                               /opt/R2P/tools/gcc-arm-none-eabi-4_9-2014q4/bin/../lib/gcc/arm-none-eabi/4.9.3/../../../../arm-none-eabi/lib/armv7e-m/libg.a(lib_a-locale.o)
__lshift                                          /opt/R2P/tools/gcc-arm-none-eabi-4_9-2014q4/bin/../lib/gcc/arm-none-eabi/4.9.3/../../../../arm-none-eabi/lib/armv7e-m/libg.a(lib_a-mprec.o)
                                                  /opt/R2P/tools/gcc-arm-none-eabi-4_9-2014q4/bin/../lib/gcc/arm-none-eabi/4.9.3/../../../../arm-none-eabi/lib/armv7e-m/libg.a(lib_a-dtoa.o)
__ltdf2                                           /opt/R2P/tools/gcc-arm-none-eabi-4_9-2014q4/bin/../lib/gcc/arm-none-eabi/4.9.3/armv7e-m/libgcc.a(_arm_cmpdf2.o)
__ltsf2                                           /opt/R2P/tools/gcc-arm-none-eabi-4_9-2014q4/bin/../lib/gcc/arm-none-eabi/4.9.3/armv7e-m/libgcc.a(_arm_cmpsf2.o)
__main_stack_base__                               build/obj/crt0.o
__main_stack_end__                                build/obj/vectors.o
                                                  build/obj/crt0.o
__main_thread_stack_base__                        build/obj/chsys.o
__malloc_av_                                      /opt/R2P/tools/gcc-arm-none-eabi-4_9-2014q4/bin/../lib/gcc/arm-none-eabi/4.9.3/../../../../arm-none-eabi/lib/armv7e-m/libg.a(lib_a-mallocr.o)
                                                  /opt/R2P/tools/gcc-arm-none-eabi-4_9-2014q4/bin/../lib/gcc/arm-none-eabi/4.9.3/../../../../arm-none-eabi/lib/armv7e-m/libg.a(lib_a-reallocr.o)
                                                  /opt/R2P/tools/gcc-arm-none-eabi-4_9-2014q4/bin/../lib/gcc/arm-none-eabi/4.9.3/../../../../arm-none-eabi/lib/armv7e-m/libg.a(lib_a-freer.o)
__malloc_current_mallinfo                         /opt/R2P/tools/gcc-arm-none-eabi-4_9-2014q4/bin/../lib/gcc/arm-none-eabi/4.9.3/../../../../arm-none-eabi/lib/armv7e-m/libg.a(lib_a-mallocr.o)
                                                  /opt/R2P/tools/gcc-arm-none-eabi-4_9-2014q4/bin/../lib/gcc/arm-none-eabi/4.9.3/../../../../arm-none-eabi/lib/armv7e-m/libg.a(lib_a-freer.o)
__malloc_lock                                     /opt/R2P/tools/gcc-arm-none-eabi-4_9-2014q4/bin/../lib/gcc/arm-none-eabi/4.9.3/../../../../arm-none-eabi/lib/armv7e-m/libg.a(lib_a-mlock.o)
                                                  /opt/R2P/tools/gcc-arm-none-eabi-4_9-2014q4/bin/../lib/gcc/arm-none-eabi/4.9.3/../../../../arm-none-eabi/lib/armv7e-m/libg.a(lib_a-reallocr.o)
                                                  /opt/R2P/tools/gcc-arm-none-eabi-4_9-2014q4/bin/../lib/gcc/arm-none-eabi/4.9.3/../../../../arm-none-eabi/lib/armv7e-m/libg.a(lib_a-freer.o)
                                                  /opt/R2P/tools/gcc-arm-none-eabi-4_9-2014q4/bin/../lib/gcc/arm-none-eabi/4.9.3/../../../../arm-none-eabi/lib/armv7e-m/libg.a(lib_a-mallocr.o)
__malloc_max_sbrked_mem                           /opt/R2P/tools/gcc-arm-none-eabi-4_9-2014q4/bin/../lib/gcc/arm-none-eabi/4.9.3/../../../../arm-none-eabi/lib/armv7e-m/libg.a(lib_a-mallocr.o)
__malloc_max_total_mem                            /opt/R2P/tools/gcc-arm-none-eabi-4_9-2014q4/bin/../lib/gcc/arm-none-eabi/4.9.3/../../../../arm-none-eabi/lib/armv7e-m/libg.a(lib_a-mallocr.o)
__malloc_sbrk_base                                /opt/R2P/tools/gcc-arm-none-eabi-4_9-2014q4/bin/../lib/gcc/arm-none-eabi/4.9.3/../../../../arm-none-eabi/lib/armv7e-m/libg.a(lib_a-mallocr.o)
                                                  /opt/R2P/tools/gcc-arm-none-eabi-4_9-2014q4/bin/../lib/gcc/arm-none-eabi/4.9.3/../../../../arm-none-eabi/lib/armv7e-m/libg.a(lib_a-freer.o)
__malloc_top_pad                                  /opt/R2P/tools/gcc-arm-none-eabi-4_9-2014q4/bin/../lib/gcc/arm-none-eabi/4.9.3/../../../../arm-none-eabi/lib/armv7e-m/libg.a(lib_a-mallocr.o)
                                                  /opt/R2P/tools/gcc-arm-none-eabi-4_9-2014q4/bin/../lib/gcc/arm-none-eabi/4.9.3/../../../../arm-none-eabi/lib/armv7e-m/libg.a(lib_a-freer.o)
__malloc_trim_threshold                           /opt/R2P/tools/gcc-arm-none-eabi-4_9-2014q4/bin/../lib/gcc/arm-none-eabi/4.9.3/../../../../arm-none-eabi/lib/armv7e-m/libg.a(lib_a-mallocr.o)
                                                  /opt/R2P/tools/gcc-arm-none-eabi-4_9-2014q4/bin/../lib/gcc/arm-none-eabi/4.9.3/../../../../arm-none-eabi/lib/armv7e-m/libg.a(lib_a-freer.o)
__malloc_unlock                                   /opt/R2P/tools/gcc-arm-none-eabi-4_9-2014q4/bin/../lib/gcc/arm-none-eabi/4.9.3/../../../../arm-none-eabi/lib/armv7e-m/libg.a(lib_a-mlock.o)
                                                  /opt/R2P/tools/gcc-arm-none-eabi-4_9-2014q4/bin/../lib/gcc/arm-none-eabi/4.9.3/../../../../arm-none-eabi/lib/armv7e-m/libg.a(lib_a-reallocr.o)
                                                  /opt/R2P/tools/gcc-arm-none-eabi-4_9-2014q4/bin/../lib/gcc/arm-none-eabi/4.9.3/../../../../arm-none-eabi/lib/armv7e-m/libg.a(lib_a-freer.o)
                                                  /opt/R2P/tools/gcc-arm-none-eabi-4_9-2014q4/bin/../lib/gcc/arm-none-eabi/4.9.3/../../../../arm-none-eabi/lib/armv7e-m/libg.a(lib_a-mallocr.o)
__mb_cur_max                                      /opt/R2P/tools/gcc-arm-none-eabi-4_9-2014q4/bin/../lib/gcc/arm-none-eabi/4.9.3/../../../../arm-none-eabi/lib/armv7e-m/libg.a(lib_a-locale.o)
__mcmp                                            /opt/R2P/tools/gcc-arm-none-eabi-4_9-2014q4/bin/../lib/gcc/arm-none-eabi/4.9.3/../../../../arm-none-eabi/lib/armv7e-m/libg.a(lib_a-mprec.o)
                                                  /opt/R2P/tools/gcc-arm-none-eabi-4_9-2014q4/bin/../lib/gcc/arm-none-eabi/4.9.3/../../../../arm-none-eabi/lib/armv7e-m/libg.a(lib_a-dtoa.o)
__mdiff                                           /opt/R2P/tools/gcc-arm-none-eabi-4_9-2014q4/bin/../lib/gcc/arm-none-eabi/4.9.3/../../../../arm-none-eabi/lib/armv7e-m/libg.a(lib_a-mprec.o)
                                                  /opt/R2P/tools/gcc-arm-none-eabi-4_9-2014q4/bin/../lib/gcc/arm-none-eabi/4.9.3/../../../../arm-none-eabi/lib/armv7e-m/libg.a(lib_a-dtoa.o)
__mlocale_changed                                 /opt/R2P/tools/gcc-arm-none-eabi-4_9-2014q4/bin/../lib/gcc/arm-none-eabi/4.9.3/../../../../arm-none-eabi/lib/armv7e-m/libg.a(lib_a-locale.o)
__mprec_bigtens                                   /opt/R2P/tools/gcc-arm-none-eabi-4_9-2014q4/bin/../lib/gcc/arm-none-eabi/4.9.3/../../../../arm-none-eabi/lib/armv7e-m/libg.a(lib_a-mprec.o)
                                                  /opt/R2P/tools/gcc-arm-none-eabi-4_9-2014q4/bin/../lib/gcc/arm-none-eabi/4.9.3/../../../../arm-none-eabi/lib/armv7e-m/libg.a(lib_a-dtoa.o)
__mprec_tens                                      /opt/R2P/tools/gcc-arm-none-eabi-4_9-2014q4/bin/../lib/gcc/arm-none-eabi/4.9.3/../../../../arm-none-eabi/lib/armv7e-m/libg.a(lib_a-mprec.o)
                                                  /opt/R2P/tools/gcc-arm-none-eabi-4_9-2014q4/bin/../lib/gcc/arm-none-eabi/4.9.3/../../../../arm-none-eabi/lib/armv7e-m/libg.a(lib_a-dtoa.o)
__mprec_tinytens                                  /opt/R2P/tools/gcc-arm-none-eabi-4_9-2014q4/bin/../lib/gcc/arm-none-eabi/4.9.3/../../../../arm-none-eabi/lib/armv7e-m/libg.a(lib_a-mprec.o)
__muldf3                                          /opt/R2P/tools/gcc-arm-none-eabi-4_9-2014q4/bin/../lib/gcc/arm-none-eabi/4.9.3/armv7e-m/libgcc.a(_arm_muldivdf3.o)
__multadd                                         /opt/R2P/tools/gcc-arm-none-eabi-4_9-2014q4/bin/../lib/gcc/arm-none-eabi/4.9.3/../../../../arm-none-eabi/lib/armv7e-m/libg.a(lib_a-mprec.o)
                                                  /opt/R2P/tools/gcc-arm-none-eabi-4_9-2014q4/bin/../lib/gcc/arm-none-eabi/4.9.3/../../../../arm-none-eabi/lib/armv7e-m/libg.a(lib_a-dtoa.o)
__multiply                                        /opt/R2P/tools/gcc-arm-none-eabi-4_9-2014q4/bin/../lib/gcc/arm-none-eabi/4.9.3/../../../../arm-none-eabi/lib/armv7e-m/libg.a(lib_a-mprec.o)
                                                  /opt/R2P/tools/gcc-arm-none-eabi-4_9-2014q4/bin/../lib/gcc/arm-none-eabi/4.9.3/../../../../arm-none-eabi/lib/armv7e-m/libg.a(lib_a-dtoa.o)
__nedf2                                           /opt/R2P/tools/gcc-arm-none-eabi-4_9-2014q4/bin/../lib/gcc/arm-none-eabi/4.9.3/armv7e-m/libgcc.a(_arm_cmpdf2.o)
__nesf2                                           /opt/R2P/tools/gcc-arm-none-eabi-4_9-2014q4/bin/../lib/gcc/arm-none-eabi/4.9.3/armv7e-m/libgcc.a(_arm_cmpsf2.o)
__nlocale_changed                                 /opt/R2P/tools/gcc-arm-none-eabi-4_9-2014q4/bin/../lib/gcc/arm-none-eabi/4.9.3/../../../../arm-none-eabi/lib/armv7e-m/libg.a(lib_a-locale.o)
__pow5mult                                        /opt/R2P/tools/gcc-arm-none-eabi-4_9-2014q4/bin/../lib/gcc/arm-none-eabi/4.9.3/../../../../arm-none-eabi/lib/armv7e-m/libg.a(lib_a-mprec.o)
                                                  /opt/R2P/tools/gcc-arm-none-eabi-4_9-2014q4/bin/../lib/gcc/arm-none-eabi/4.9.3/../../../../arm-none-eabi/lib/armv7e-m/libg.a(lib_a-dtoa.o)
__process_stack_base__                            build/obj/crt0.o
__process_stack_end__                             build/obj/crt0.o
__program_end__                                   build/obj/Flasher_.o
                                                  build/obj/Bootloader.o
__program_start__                                 build/obj/Flasher_.o
                                                  build/obj/Bootloader.o
__ram_end__                                       build/obj/Bootloader.o
__ram_start__                                     build/obj/Bootloader.o
__ratio                                           /opt/R2P/tools/gcc-arm-none-eabi-4_9-2014q4/bin/../lib/gcc/arm-none-eabi/4.9.3/../../../../arm-none-eabi/lib/armv7e-m/libg.a(lib_a-mprec.o)
__register_exitproc                               /opt/R2P/tools/gcc-arm-none-eabi-4_9-2014q4/bin/../lib/gcc/arm-none-eabi/4.9.3/../../../../arm-none-eabi/lib/armv7e-m/libg.a(lib_a-__atexit.o)
                                                  /opt/R2P/tools/gcc-arm-none-eabi-4_9-2014q4/bin/../lib/gcc/arm-none-eabi/4.9.3/../../../../arm-none-eabi/lib/armv7e-m/libg.a(lib_a-cxa_atexit.o)
__s2b                                             /opt/R2P/tools/gcc-arm-none-eabi-4_9-2014q4/bin/../lib/gcc/arm-none-eabi/4.9.3/../../../../arm-none-eabi/lib/armv7e-m/libg.a(lib_a-mprec.o)
__ssprint_r                                       /opt/R2P/tools/gcc-arm-none-eabi-4_9-2014q4/bin/../lib/gcc/arm-none-eabi/4.9.3/../../../../arm-none-eabi/lib/armv7e-m/libg.a(lib_a-svfiprintf.o)
                                                  /opt/R2P/tools/gcc-arm-none-eabi-4_9-2014q4/bin/../lib/gcc/arm-none-eabi/4.9.3/../../../../arm-none-eabi/lib/armv7e-m/libg.a(lib_a-svfprintf.o)
__subdf3                                          /opt/R2P/tools/gcc-arm-none-eabi-4_9-2014q4/bin/../lib/gcc/arm-none-eabi/4.9.3/armv7e-m/libgcc.a(_arm_addsubdf3.o)
__truncdfsf2                                      /opt/R2P/tools/gcc-arm-none-eabi-4_9-2014q4/bin/../lib/gcc/arm-none-eabi/4.9.3/armv7e-m/libgcc.a(_arm_truncdfsf2.o)
__udivdi3                                         /opt/R2P/tools/gcc-arm-none-eabi-4_9-2014q4/bin/../lib/gcc/arm-none-eabi/4.9.3/armv7e-m/libgcc.a(_udivdi3.o)
                                                  /opt/R2P/tools/gcc-arm-none-eabi-4_9-2014q4/bin/../lib/gcc/arm-none-eabi/4.9.3/armv7e-m/libgcc.a(bpabi.o)
__ulp                                             /opt/R2P/tools/gcc-arm-none-eabi-4_9-2014q4/bin/../lib/gcc/arm-none-eabi/4.9.3/../../../../arm-none-eabi/lib/armv7e-m/libg.a(lib_a-mprec.o)
_bss_end                                          build/obj/crt0.o
_bss_start                                        build/obj/crt0.o
_calloc_r                                         /opt/R2P/tools/gcc-arm-none-eabi-4_9-2014q4/bin/../lib/gcc/arm-none-eabi/4.9.3/../../../../arm-none-eabi/lib/armv7e-m/libg.a(lib_a-callocr.o)
                                                  /opt/R2P/tools/gcc-arm-none-eabi-4_9-2014q4/bin/../lib/gcc/arm-none-eabi/4.9.3/../../../../arm-none-eabi/lib/armv7e-m/libg.a(lib_a-mprec.o)
_close_r                                          build/obj/syscalls.o
_core_init                                        build/obj/chmemcore.o
                                                  build/obj/chsys.o
_ctype_                                           /opt/R2P/tools/gcc-arm-none-eabi-4_9-2014q4/bin/../lib/gcc/arm-none-eabi/4.9.3/../../../../arm-none-eabi/lib/armv7e-m/libg.a(lib_a-ctype_.o)
_data                                             build/obj/crt0.o
_default_exit                                     build/obj/crt0.o
_dtoa_r                                           /opt/R2P/tools/gcc-arm-none-eabi-4_9-2014q4/bin/../lib/gcc/arm-none-eabi/4.9.3/../../../../arm-none-eabi/lib/armv7e-m/libg.a(lib_a-dtoa.o)
                                                  /opt/R2P/tools/gcc-arm-none-eabi-4_9-2014q4/bin/../lib/gcc/arm-none-eabi/4.9.3/../../../../arm-none-eabi/lib/armv7e-m/libg.a(lib_a-svfprintf.o)
_edata                                            build/obj/crt0.o
_exit                                             build/obj/stubs.o
_free_r                                           /opt/R2P/tools/gcc-arm-none-eabi-4_9-2014q4/bin/../lib/gcc/arm-none-eabi/4.9.3/../../../../arm-none-eabi/lib/armv7e-m/libg.a(lib_a-freer.o)
                                                  /opt/R2P/tools/gcc-arm-none-eabi-4_9-2014q4/bin/../lib/gcc/arm-none-eabi/4.9.3/../../../../arm-none-eabi/lib/armv7e-m/libg.a(lib_a-reallocr.o)
                                                  /opt/R2P/tools/gcc-arm-none-eabi-4_9-2014q4/bin/../lib/gcc/arm-none-eabi/4.9.3/../../../../arm-none-eabi/lib/armv7e-m/libg.a(lib_a-svfiprintf.o)
                                                  /opt/R2P/tools/gcc-arm-none-eabi-4_9-2014q4/bin/../lib/gcc/arm-none-eabi/4.9.3/../../../../arm-none-eabi/lib/armv7e-m/libg.a(lib_a-mallocr.o)
_fstat_r                                          build/obj/syscalls.o
_getpid                                           build/obj/stubs.o
_global_impure_ptr                                /opt/R2P/tools/gcc-arm-none-eabi-4_9-2014q4/bin/../lib/gcc/arm-none-eabi/4.9.3/../../../../arm-none-eabi/lib/armv7e-m/libg.a(lib_a-impure.o)
                                                  /opt/R2P/tools/gcc-arm-none-eabi-4_9-2014q4/bin/../lib/gcc/arm-none-eabi/4.9.3/../../../../arm-none-eabi/lib/armv7e-m/libg.a(lib_a-__atexit.o)
_heap_init                                        build/obj/chheap.o
                                                  build/obj/chsys.o
_idle_thread                                      build/obj/chsys.o
_idle_thread_wa                                   build/obj/chsys.o
_impure_ptr                                       /opt/R2P/tools/gcc-arm-none-eabi-4_9-2014q4/bin/../lib/gcc/arm-none-eabi/4.9.3/../../../../arm-none-eabi/lib/armv7e-m/libg.a(lib_a-impure.o)
                                                  /opt/R2P/tools/gcc-arm-none-eabi-4_9-2014q4/bin/../lib/gcc/arm-none-eabi/4.9.3/../../../../arm-none-eabi/lib/armv7e-m/libg.a(lib_a-locale.o)
                                                  /opt/R2P/tools/gcc-arm-none-eabi-4_9-2014q4/bin/../lib/gcc/arm-none-eabi/4.9.3/../../../../arm-none-eabi/lib/armv7e-m/libg.a(lib_a-sprintf.o)
_isatty_r                                         build/obj/syscalls.o
_kill                                             build/obj/stubs.o
_localeconv_r                                     /opt/R2P/tools/gcc-arm-none-eabi-4_9-2014q4/bin/../lib/gcc/arm-none-eabi/4.9.3/../../../../arm-none-eabi/lib/armv7e-m/libg.a(lib_a-locale.o)
                                                  /opt/R2P/tools/gcc-arm-none-eabi-4_9-2014q4/bin/../lib/gcc/arm-none-eabi/4.9.3/../../../../arm-none-eabi/lib/armv7e-m/libg.a(lib_a-svfprintf.o)
_lseek_r                                          build/obj/syscalls.o
_malloc_r                                         /opt/R2P/tools/gcc-arm-none-eabi-4_9-2014q4/bin/../lib/gcc/arm-none-eabi/4.9.3/../../../../arm-none-eabi/lib/armv7e-m/libg.a(lib_a-mallocr.o)
                                                  /opt/R2P/tools/gcc-arm-none-eabi-4_9-2014q4/bin/../lib/gcc/arm-none-eabi/4.9.3/../../../../arm-none-eabi/lib/armv7e-m/libg.a(lib_a-reallocr.o)
                                                  /opt/R2P/tools/gcc-arm-none-eabi-4_9-2014q4/bin/../lib/gcc/arm-none-eabi/4.9.3/../../../../arm-none-eabi/lib/armv7e-m/libg.a(lib_a-callocr.o)
                                                  /opt/R2P/tools/gcc-arm-none-eabi-4_9-2014q4/bin/../lib/gcc/arm-none-eabi/4.9.3/../../../../arm-none-eabi/lib/armv7e-m/libg.a(lib_a-svfiprintf.o)
                                                  /opt/R2P/tools/gcc-arm-none-eabi-4_9-2014q4/bin/../lib/gcc/arm-none-eabi/4.9.3/../../../../arm-none-eabi/lib/armv7e-m/libg.a(lib_a-svfprintf.o)
_malloc_trim_r                                    /opt/R2P/tools/gcc-arm-none-eabi-4_9-2014q4/bin/../lib/gcc/arm-none-eabi/4.9.3/../../../../arm-none-eabi/lib/armv7e-m/libg.a(lib_a-freer.o)
_mprec_log10                                      /opt/R2P/tools/gcc-arm-none-eabi-4_9-2014q4/bin/../lib/gcc/arm-none-eabi/4.9.3/../../../../arm-none-eabi/lib/armv7e-m/libg.a(lib_a-mprec.o)
_pal_lld_init                                     build/obj/pal_lld.o
                                                  build/obj/hal.o
_pal_lld_setgroupmode                             build/obj/pal_lld.o
                                                  build/obj/main.o
                                                  build/obj/pal.o
_port_init                                        build/obj/chcore_v7m.o
                                                  build/obj/chsys.o
_port_irq_epilogue                                build/obj/chcore_v7m.o
                                                  build/obj/rtcan_lld_tim.o
                                                  build/obj/rtcan_lld_can.o
                                                  build/obj/usb_lld.o
                                                  build/obj/serial_lld.o
                                                  build/obj/i2c_lld.o
                                                  build/obj/stm32_dma.o
_port_switch                                      build/obj/chcore_v7m.o
                                                  build/obj/chschd.o
_port_switch_from_isr                             build/obj/chcore_v7m.o
_port_thread_start                                build/obj/chcore_v7m.o
                                                  build/obj/chthreads.o
_read_r                                           build/obj/syscalls.o
_realloc_r                                        /opt/R2P/tools/gcc-arm-none-eabi-4_9-2014q4/bin/../lib/gcc/arm-none-eabi/4.9.3/../../../../arm-none-eabi/lib/armv7e-m/libg.a(lib_a-reallocr.o)
                                                  /opt/R2P/tools/gcc-arm-none-eabi-4_9-2014q4/bin/../lib/gcc/arm-none-eabi/4.9.3/../../../../arm-none-eabi/lib/armv7e-m/libg.a(lib_a-svfiprintf.o)
_sbrk_r                                           build/obj/syscalls.o
                                                  /opt/R2P/tools/gcc-arm-none-eabi-4_9-2014q4/bin/../lib/gcc/arm-none-eabi/4.9.3/../../../../arm-none-eabi/lib/armv7e-m/libg.a(lib_a-freer.o)
                                                  /opt/R2P/tools/gcc-arm-none-eabi-4_9-2014q4/bin/../lib/gcc/arm-none-eabi/4.9.3/../../../../arm-none-eabi/lib/armv7e-m/libg.a(lib_a-mallocr.o)
_scheduler_init                                   build/obj/chschd.o
                                                  build/obj/chsys.o
_setlocale_r                                      /opt/R2P/tools/gcc-arm-none-eabi-4_9-2014q4/bin/../lib/gcc/arm-none-eabi/4.9.3/../../../../arm-none-eabi/lib/armv7e-m/libg.a(lib_a-locale.o)
_sprintf_r                                        /opt/R2P/tools/gcc-arm-none-eabi-4_9-2014q4/bin/../lib/gcc/arm-none-eabi/4.9.3/../../../../arm-none-eabi/lib/armv7e-m/libg.a(lib_a-sprintf.o)
_stm32_dma_streams                                build/obj/stm32_dma.o
                                                  build/obj/spi_lld.o
                                                  build/obj/i2c_lld.o
_svfiprintf_r                                     /opt/R2P/tools/gcc-arm-none-eabi-4_9-2014q4/bin/../lib/gcc/arm-none-eabi/4.9.3/../../../../arm-none-eabi/lib/armv7e-m/libg.a(lib_a-svfiprintf.o)
_svfprintf_r                                      /opt/R2P/tools/gcc-arm-none-eabi-4_9-2014q4/bin/../lib/gcc/arm-none-eabi/4.9.3/../../../../arm-none-eabi/lib/armv7e-m/libg.a(lib_a-svfprintf.o)
                                                  /opt/R2P/tools/gcc-arm-none-eabi-4_9-2014q4/bin/../lib/gcc/arm-none-eabi/4.9.3/../../../../arm-none-eabi/lib/armv7e-m/libg.a(lib_a-sprintf.o)
_textdata                                         build/obj/crt0.o
_thread_init                                      build/obj/chthreads.o
                                                  build/obj/chsys.o
_thread_memfill                                   build/obj/chthreads.o
                                                  build/obj/chdynamic.o
_trace_init                                       build/obj/chdebug.o
                                                  build/obj/chsys.o
_unhandled_exception                              build/obj/vectors.o
_usb_ep0in                                        build/obj/usb.o
                                                  build/obj/usb_lld.o
_usb_ep0out                                       build/obj/usb.o
                                                  build/obj/usb_lld.o
_usb_ep0setup                                     build/obj/usb.o
                                                  build/obj/usb_lld.o
_usb_reset                                        build/obj/usb.o
                                                  build/obj/usb_lld.o
_vectors                                          build/obj/vectors.o
_vt_init                                          build/obj/chvt.o
                                                  build/obj/chsys.o
_write_r                                          build/obj/syscalls.o
boardInit                                         build/obj/board.o
                                                  build/obj/hal.o
bool r2p::DebugTransport::recv_value<long>(long&, unsigned long) build/obj/DebugTransport.o
bool r2p::DebugTransport::recv_value<unsigned char>(unsigned char&, unsigned long) build/obj/DebugTransport.o
bool r2p::DebugTransport::send_value<long>(long const&, unsigned long) build/obj/DebugTransport.o
bool r2p::DebugTransport::send_value<unsigned char>(unsigned char const&, unsigned long) build/obj/DebugTransport.o
bool r2p::Node::advertise<r2p::BootMsg>(r2p::Publisher<r2p::BootMsg>&, char const*, r2p::Time const&) build/obj/Middleware.o
bool r2p::Node::advertise<r2p::LedMsg>(r2p::Publisher<r2p::LedMsg>&, char const*, r2p::Time const&) build/obj/led.o
bool r2p::Node::advertise<r2p::MgmtMsg>(r2p::Publisher<r2p::MgmtMsg>&, char const*, r2p::Time const&) build/obj/Middleware.o
bool r2p::Node::advertise<r2p::String64Msg>(r2p::Publisher<r2p::String64Msg>&, char const*, r2p::Time const&) build/obj/main.o
bool r2p::Node::subscribe<r2p::BootMsg>(r2p::SubscriberExtBuf<r2p::BootMsg>&, char const*, r2p::BootMsg*) build/obj/Middleware.o
bool r2p::Node::subscribe<r2p::LedMsg, 5u>(r2p::Subscriber<r2p::LedMsg, 5u>&, char const*) build/obj/led.o
bool r2p::Node::subscribe<r2p::MgmtMsg>(r2p::SubscriberExtBuf<r2p::MgmtMsg>&, char const*, r2p::MgmtMsg*) build/obj/Middleware.o
bool r2p::Topic::alloc<r2p::Message>(r2p::Message*&) build/obj/Topic.o
                                                  build/obj/RTCANTransport.o
bool r2p::Topic::alloc_unsafe<r2p::Message>(r2p::Message*&) build/obj/Topic.o
bool r2p::Transport::subscribe<r2p::BootMsg>(r2p::RemoteSubscriber&, char const*, r2p::BootMsg*, unsigned int) build/obj/DebugTransport.o
bool r2p::Transport::subscribe<r2p::MgmtMsg>(r2p::RemoteSubscriber&, char const*, r2p::MgmtMsg*, unsigned int) build/obj/DebugTransport.o
chCondBroadcast                                   build/obj/chcond.o
chCondBroadcastI                                  build/obj/chcond.o
chCondInit                                        build/obj/chcond.o
chCondSignal                                      build/obj/chcond.o
chCondSignalI                                     build/obj/chcond.o
chCondWait                                        build/obj/chcond.o
chCondWaitS                                       build/obj/chcond.o
chCondWaitTimeout                                 build/obj/chcond.o
chCondWaitTimeoutS                                build/obj/chcond.o
chCoreAlloc                                       build/obj/chmemcore.o
                                                  build/obj/syscalls.o
                                                  build/obj/chheap.o
chCoreAllocI                                      build/obj/chmemcore.o
chCoreReserve                                     build/obj/chmemcore.o
                                                  build/obj/Bootloader_.o
chCoreReserveI                                    build/obj/chmemcore.o
chCoreStatus                                      build/obj/chmemcore.o
chCoreUnreserve                                   build/obj/chmemcore.o
                                                  build/obj/Bootloader_.o
chCoreUnreserveI                                  build/obj/chmemcore.o
chDbgCheckClassI                                  build/obj/chdebug.o
                                                  build/obj/usb.o
                                                  build/obj/serial.o
                                                  build/obj/chmempools.o
                                                  build/obj/chmemcore.o
                                                  build/obj/chqueues.o
                                                  build/obj/chmboxes.o
                                                  build/obj/chevents.o
                                                  build/obj/chcond.o
                                                  build/obj/chsem.o
                                                  build/obj/chthreads.o
                                                  build/obj/chschd.o
                                                  build/obj/chvt.o
                                                  build/obj/chsys.o
chDbgCheckClassS                                  build/obj/chdebug.o
                                                  build/obj/chmboxes.o
                                                  build/obj/chcond.o
                                                  build/obj/chmtx.o
                                                  build/obj/chsem.o
                                                  build/obj/chschd.o
chDbgPanic                                        build/obj/chdebug.o
                                                  build/obj/main.o
                                                  build/obj/led.o
                                                  build/obj/Flasher_.o
                                                  build/obj/RTCANTransport.o
                                                  build/obj/DebugSubscriber.o
                                                  build/obj/DebugTransport.o
                                                  build/obj/Bootloader.o
                                                  build/obj/Transport.o
                                                  build/obj/Topic.o
                                                  build/obj/TimestampedMsgPtrQueue.o
                                                  build/obj/Node.o
                                                  build/obj/Middleware.o
                                                  build/obj/Message.o
                                                  build/obj/MessagePtrQueue.o
                                                  build/obj/LocalSubscriber.o
                                                  build/obj/BaseSubscriber.o
                                                  build/obj/BasePublisher.o
                                                  build/obj/StaticQueue_.o
                                                  build/obj/StaticList_.o
                                                  build/obj/SimplePool_.o
                                                  build/obj/msgqueue.o
                                                  build/obj/rtcan.o
                                                  build/obj/syscalls.o
                                                  build/obj/usb_lld.o
                                                  build/obj/spi_lld.o
                                                  build/obj/i2c_lld.o
                                                  build/obj/stm32_dma.o
                                                  build/obj/usb.o
                                                  build/obj/spi.o
                                                  build/obj/serial_usb.o
                                                  build/obj/serial.o
                                                  build/obj/pal.o
                                                  build/obj/i2c.o
                                                  build/obj/chmempools.o
                                                  build/obj/chheap.o
                                                  build/obj/chqueues.o
                                                  build/obj/chmboxes.o
                                                  build/obj/chmsg.o
                                                  build/obj/chevents.o
                                                  build/obj/chcond.o
                                                  build/obj/chmtx.o
                                                  build/obj/chsem.o
                                                  build/obj/chregistry.o
                                                  build/obj/chdynamic.o
                                                  build/obj/chthreads.o
                                                  build/obj/chschd.o
                                                  build/obj/chvt.o
chEvtAddEvents                                    build/obj/chevents.o
chEvtBroadcastFlags                               build/obj/chevents.o
chEvtBroadcastFlagsI                              build/obj/chevents.o
                                                  build/obj/shell.o
                                                  build/obj/evtimer.o
                                                  build/obj/serial_lld.o
                                                  build/obj/serial_usb.o
                                                  build/obj/serial.o
chEvtDispatch                                     build/obj/chevents.o
chEvtGetAndClearEvents                            build/obj/chevents.o
chEvtGetAndClearFlags                             build/obj/chevents.o
chEvtGetAndClearFlagsI                            build/obj/chevents.o
chEvtRegisterMask                                 build/obj/chevents.o
chEvtSignal                                       build/obj/chevents.o
chEvtSignalI                                      build/obj/chevents.o
                                                  build/obj/main.o
                                                  build/obj/led.o
                                                  build/obj/Middleware.o
                                                  build/obj/LocalSubscriber.o
chEvtUnregister                                   build/obj/chevents.o
chEvtWaitAll                                      build/obj/chevents.o
chEvtWaitAllTimeout                               build/obj/chevents.o
chEvtWaitAny                                      build/obj/chevents.o
chEvtWaitAnyTimeout                               build/obj/chevents.o
                                                  build/obj/Node.o
chEvtWaitOne                                      build/obj/chevents.o
chEvtWaitOneTimeout                               build/obj/chevents.o
chHeapAlloc                                       build/obj/chheap.o
                                                  build/obj/chnew.o
                                                  build/obj/chdynamic.o
chHeapFree                                        build/obj/chheap.o
                                                  build/obj/chnew.o
                                                  build/obj/chdynamic.o
chHeapInit                                        build/obj/chheap.o
chHeapStatus                                      build/obj/chheap.o
chIQGetTimeout                                    build/obj/chqueues.o
                                                  build/obj/serial_usb.o
                                                  build/obj/serial.o
chIQInit                                          build/obj/chqueues.o
                                                  build/obj/serial_usb.o
                                                  build/obj/serial.o
chIQPutI                                          build/obj/chqueues.o
                                                  build/obj/serial.o
chIQReadTimeout                                   build/obj/chqueues.o
                                                  build/obj/serial_usb.o
                                                  build/obj/serial.o
chIQResetI                                        build/obj/chqueues.o
                                                  build/obj/serial_usb.o
                                                  build/obj/serial.o
chMBFetch                                         build/obj/chmboxes.o
chMBFetchI                                        build/obj/chmboxes.o
chMBFetchS                                        build/obj/chmboxes.o
chMBInit                                          build/obj/chmboxes.o
chMBPost                                          build/obj/chmboxes.o
chMBPostAhead                                     build/obj/chmboxes.o
chMBPostAheadI                                    build/obj/chmboxes.o
chMBPostAheadS                                    build/obj/chmboxes.o
chMBPostI                                         build/obj/chmboxes.o
chMBPostS                                         build/obj/chmboxes.o
chMBReset                                         build/obj/chmboxes.o
chMsgRelease                                      build/obj/chmsg.o
chMsgSend                                         build/obj/chmsg.o
chMsgWait                                         build/obj/chmsg.o
chMtxInit                                         build/obj/chmtx.o
                                                  build/obj/DebugTransport.o
                                                  build/obj/Transport.o
                                                  build/obj/Middleware.o
                                                  build/obj/spi.o
                                                  build/obj/i2c.o
                                                  build/obj/chheap.o
chMtxLock                                         build/obj/chmtx.o
                                                  build/obj/DebugTransport.o
                                                  build/obj/Transport.o
                                                  build/obj/spi.o
                                                  build/obj/i2c.o
                                                  build/obj/chheap.o
chMtxLockS                                        build/obj/chmtx.o
                                                  build/obj/Middleware.o
                                                  build/obj/chcond.o
chMtxTryLock                                      build/obj/chmtx.o
chMtxTryLockS                                     build/obj/chmtx.o
chMtxUnlock                                       build/obj/chmtx.o
                                                  build/obj/DebugTransport.o
                                                  build/obj/Transport.o
                                                  build/obj/spi.o
                                                  build/obj/i2c.o
                                                  build/obj/chheap.o
chMtxUnlockAll                                    build/obj/chmtx.o
chMtxUnlockS                                      build/obj/chmtx.o
                                                  build/obj/Middleware.o
                                                  build/obj/chcond.o
chOQGetI                                          build/obj/chqueues.o
                                                  build/obj/serial_lld.o
                                                  build/obj/serial.o
chOQInit                                          build/obj/chqueues.o
                                                  build/obj/serial_usb.o
                                                  build/obj/serial.o
chOQPutTimeout                                    build/obj/chqueues.o
                                                  build/obj/serial_usb.o
                                                  build/obj/serial.o
chOQResetI                                        build/obj/chqueues.o
                                                  build/obj/serial_usb.o
                                                  build/obj/serial.o
chOQWriteTimeout                                  build/obj/chqueues.o
                                                  build/obj/serial_usb.o
                                                  build/obj/serial.o
chPoolAlloc                                       build/obj/chmempools.o
                                                  build/obj/chdynamic.o
chPoolAllocI                                      build/obj/chmempools.o
                                                  build/obj/main.o
                                                  build/obj/led.o
                                                  build/obj/RTCANTransport.o
                                                  build/obj/DebugTransport.o
                                                  build/obj/Bootloader.o
                                                  build/obj/Topic.o
                                                  build/obj/Middleware.o
chPoolFree                                        build/obj/chmempools.o
                                                  build/obj/Topic.o
                                                  build/obj/BaseSubscriber.o
                                                  build/obj/BasePublisher.o
                                                  build/obj/chdynamic.o
chPoolFreeI                                       build/obj/chmempools.o
                                                  build/obj/RTCANTransport.o
                                                  build/obj/Topic.o
                                                  build/obj/BaseSubscriber.o
                                                  build/obj/BasePublisher.o
chPoolInit                                        build/obj/chmempools.o
                                                  build/obj/RTCANTransport.o
                                                  build/obj/Topic.o
chPoolLoadArray                                   build/obj/chmempools.o
                                                  build/obj/RTCANTransport.o
                                                  build/obj/Transport.o
                                                  build/obj/Middleware.o
chRegFirstThread                                  build/obj/chregistry.o
chRegNextThread                                   build/obj/chregistry.o
chSchDoReschedule                                 build/obj/chschd.o
                                                  build/obj/chcore_v7m.o
chSchDoRescheduleAhead                            build/obj/chschd.o
chSchDoRescheduleBehind                           build/obj/chschd.o
                                                  build/obj/chthreads.o
chSchGoSleepS                                     build/obj/chschd.o
                                                  build/obj/i2c_lld.o
                                                  build/obj/spi.o
                                                  build/obj/chmsg.o
                                                  build/obj/chevents.o
                                                  build/obj/chcond.o
                                                  build/obj/chmtx.o
                                                  build/obj/chsem.o
                                                  build/obj/chthreads.o
chSchGoSleepTimeoutS                              build/obj/chschd.o
                                                  build/obj/chqueues.o
                                                  build/obj/chevents.o
                                                  build/obj/chcond.o
                                                  build/obj/chsem.o
                                                  build/obj/chthreads.o
chSchReadyI                                       build/obj/chschd.o
                                                  build/obj/usb_lld.o
                                                  build/obj/spi_lld.o
                                                  build/obj/i2c_lld.o
                                                  build/obj/chqueues.o
                                                  build/obj/chmsg.o
                                                  build/obj/chevents.o
                                                  build/obj/chcond.o
                                                  build/obj/chmtx.o
                                                  build/obj/chsem.o
                                                  build/obj/chthreads.o
chSchRescheduleS                                  build/obj/chschd.o
                                                  build/obj/serial_usb.o
                                                  build/obj/serial.o
                                                  build/obj/chmboxes.o
                                                  build/obj/chevents.o
                                                  build/obj/chcond.o
                                                  build/obj/chmtx.o
                                                  build/obj/chsem.o
                                                  build/obj/chthreads.o
chSchWakeupS                                      build/obj/chschd.o
                                                  build/obj/chmsg.o
                                                  build/obj/chcond.o
                                                  build/obj/chmtx.o
                                                  build/obj/chsem.o
                                                  build/obj/chdynamic.o
                                                  build/obj/chthreads.o
chSemAddCounterI                                  build/obj/chsem.o
chSemInit                                         build/obj/chsem.o
                                                  build/obj/DebugTransport.o
                                                  build/obj/chmboxes.o
chSemReset                                        build/obj/chsem.o
chSemResetI                                       build/obj/chsem.o
                                                  build/obj/chmboxes.o
chSemSignal                                       build/obj/chsem.o
chSemSignalI                                      build/obj/chsem.o
                                                  build/obj/DebugSubscriber.o
                                                  build/obj/DebugTransport.o
                                                  build/obj/chmboxes.o
chSemSignalWait                                   build/obj/chsem.o
chSemWait                                         build/obj/chsem.o
chSemWaitS                                        build/obj/chsem.o
                                                  build/obj/DebugTransport.o
chSemWaitTimeout                                  build/obj/chsem.o
chSemWaitTimeoutS                                 build/obj/chsem.o
                                                  build/obj/chmboxes.o
chSysInit                                         build/obj/chsys.o
                                                  build/obj/main.o
chSysTimerHandlerI                                build/obj/chsys.o
                                                  build/obj/chcore_v7m.o
chThdAddRef                                       build/obj/chdynamic.o
chThdCreateFromHeap                               build/obj/chdynamic.o
                                                  build/obj/main.o
                                                  build/obj/Bootloader.o
                                                  build/obj/shell.o
chThdCreateFromMemoryPool                         build/obj/chdynamic.o
chThdCreateI                                      build/obj/chthreads.o
                                                  build/obj/chdynamic.o
chThdCreateStatic                                 build/obj/chthreads.o
                                                  build/obj/DebugTransport.o
                                                  build/obj/Middleware.o
                                                  build/obj/shell.o
                                                  build/obj/chsys.o
chThdExit                                         build/obj/chthreads.o
                                                  build/obj/chcore_v7m.o
chThdExitS                                        build/obj/chthreads.o
                                                  build/obj/shell.o
chThdRelease                                      build/obj/chdynamic.o
                                                  build/obj/chregistry.o
                                                  build/obj/chthreads.o
chThdResume                                       build/obj/chthreads.o
chThdSetPriority                                  build/obj/chthreads.o
chThdSleep                                        build/obj/chthreads.o
                                                  build/obj/main.o
                                                  build/obj/led.o
                                                  build/obj/Middleware_.o
                                                  build/obj/Bootloader.o
                                                  build/obj/Middleware.o
                                                  build/obj/rtcan.o
chThdSleepUntil                                   build/obj/chthreads.o
chThdTerminate                                    build/obj/chthreads.o
chThdWait                                         build/obj/chthreads.o
chThdYield                                        build/obj/chthreads.o
                                                  build/obj/main.o
                                                  build/obj/Bootloader.o
                                                  build/obj/Middleware.o
                                                  build/obj/chsys.o
chVTResetI                                        build/obj/chvt.o
                                                  build/obj/evtimer.o
                                                  build/obj/i2c_lld.o
                                                  build/obj/chschd.o
chVTSetI                                          build/obj/chvt.o
                                                  build/obj/evtimer.o
                                                  build/obj/i2c_lld.o
                                                  build/obj/chschd.o
ch_debug                                          build/obj/chregistry.o
                                                  build/obj/chsys.o
chsnprintf                                        build/obj/chprintf.o
chvprintf                                         build/obj/chprintf.o
                                                  build/obj/shell.o
dbg_check_disable                                 build/obj/chdebug.o
                                                  build/obj/Flasher_.o
                                                  build/obj/Middleware_.o
dbg_check_enable                                  build/obj/chdebug.o
                                                  build/obj/Flasher_.o
                                                  build/obj/chsys.o
dbg_check_enter_isr                               build/obj/chdebug.o
                                                  build/obj/rtcan_lld_tim.o
                                                  build/obj/rtcan_lld_can.o
                                                  build/obj/usb_lld.o
                                                  build/obj/serial_lld.o
                                                  build/obj/i2c_lld.o
                                                  build/obj/stm32_dma.o
                                                  build/obj/chcore_v7m.o
dbg_check_leave_isr                               build/obj/chdebug.o
                                                  build/obj/rtcan_lld_tim.o
                                                  build/obj/rtcan_lld_can.o
                                                  build/obj/usb_lld.o
                                                  build/obj/serial_lld.o
                                                  build/obj/i2c_lld.o
                                                  build/obj/stm32_dma.o
                                                  build/obj/chcore_v7m.o
dbg_check_lock                                    build/obj/chdebug.o
                                                  build/obj/main.o
                                                  build/obj/led.o
                                                  build/obj/RTCANSubscriber.o
                                                  build/obj/RTCANTransport.o
                                                  build/obj/DebugSubscriber.o
                                                  build/obj/DebugTransport.o
                                                  build/obj/Bootloader.o
                                                  build/obj/Transport.o
                                                  build/obj/Topic.o
                                                  build/obj/Node.o
                                                  build/obj/Middleware.o
                                                  build/obj/Message.o
                                                  build/obj/LocalSubscriber.o
                                                  build/obj/StaticQueue_.o
                                                  build/obj/StaticList_.o
                                                  build/obj/SimplePool_.o
                                                  build/obj/rtcan.o
                                                  build/obj/shell.o
                                                  build/obj/evtimer.o
                                                  build/obj/i2c_lld.o
                                                  build/obj/usb.o
                                                  build/obj/spi.o
                                                  build/obj/serial_usb.o
                                                  build/obj/serial.o
                                                  build/obj/i2c.o
                                                  build/obj/chmempools.o
                                                  build/obj/chmemcore.o
                                                  build/obj/chqueues.o
                                                  build/obj/chmboxes.o
                                                  build/obj/chmsg.o
                                                  build/obj/chevents.o
                                                  build/obj/chcond.o
                                                  build/obj/chmtx.o
                                                  build/obj/chsem.o
                                                  build/obj/chregistry.o
                                                  build/obj/chdynamic.o
                                                  build/obj/chthreads.o
                                                  build/obj/chcore_v7m.o
dbg_check_lock_from_isr                           build/obj/chdebug.o
                                                  build/obj/usbcfg.o
                                                  build/obj/rtcan.o
                                                  build/obj/evtimer.o
                                                  build/obj/usb_lld.o
                                                  build/obj/serial_lld.o
                                                  build/obj/spi_lld.o
                                                  build/obj/i2c_lld.o
                                                  build/obj/usb.o
                                                  build/obj/serial_usb.o
                                                  build/obj/chschd.o
                                                  build/obj/chsys.o
                                                  build/obj/chcore_v7m.o
dbg_check_suspend                                 build/obj/chdebug.o
dbg_check_unlock                                  build/obj/chdebug.o
                                                  build/obj/main.o
                                                  build/obj/led.o
                                                  build/obj/RTCANSubscriber.o
                                                  build/obj/RTCANTransport.o
                                                  build/obj/DebugSubscriber.o
                                                  build/obj/DebugTransport.o
                                                  build/obj/Bootloader.o
                                                  build/obj/Transport.o
                                                  build/obj/Topic.o
                                                  build/obj/Node.o
                                                  build/obj/Middleware.o
                                                  build/obj/Message.o
                                                  build/obj/LocalSubscriber.o
                                                  build/obj/StaticQueue_.o
                                                  build/obj/StaticList_.o
                                                  build/obj/SimplePool_.o
                                                  build/obj/rtcan.o
                                                  build/obj/evtimer.o
                                                  build/obj/i2c_lld.o
                                                  build/obj/usb.o
                                                  build/obj/spi.o
                                                  build/obj/serial_usb.o
                                                  build/obj/serial.o
                                                  build/obj/i2c.o
                                                  build/obj/chmempools.o
                                                  build/obj/chmemcore.o
                                                  build/obj/chqueues.o
                                                  build/obj/chmboxes.o
                                                  build/obj/chmsg.o
                                                  build/obj/chevents.o
                                                  build/obj/chcond.o
                                                  build/obj/chmtx.o
                                                  build/obj/chsem.o
                                                  build/obj/chregistry.o
                                                  build/obj/chdynamic.o
                                                  build/obj/chthreads.o
                                                  build/obj/chcore_v7m.o
dbg_check_unlock_from_isr                         build/obj/chdebug.o
                                                  build/obj/usbcfg.o
                                                  build/obj/rtcan.o
                                                  build/obj/evtimer.o
                                                  build/obj/usb_lld.o
                                                  build/obj/serial_lld.o
                                                  build/obj/spi_lld.o
                                                  build/obj/i2c_lld.o
                                                  build/obj/usb.o
                                                  build/obj/serial_usb.o
                                                  build/obj/chschd.o
                                                  build/obj/chsys.o
                                                  build/obj/chcore_v7m.o
dbg_isr_cnt                                       build/obj/chdebug.o
dbg_lock_cnt                                      build/obj/chdebug.o
                                                  build/obj/usb_lld.o
dbg_panic_msg                                     build/obj/chdebug.o
dbg_trace                                         build/obj/chdebug.o
                                                  build/obj/chschd.o
dbg_trace_buffer                                  build/obj/chdebug.o
dmaInit                                           build/obj/stm32_dma.o
                                                  build/obj/hal_lld.o
dmaStreamAllocate                                 build/obj/stm32_dma.o
                                                  build/obj/spi_lld.o
                                                  build/obj/i2c_lld.o
dmaStreamRelease                                  build/obj/stm32_dma.o
                                                  build/obj/spi_lld.o
                                                  build/obj/i2c_lld.o
evtStart                                          build/obj/evtimer.o
evtStop                                           build/obj/evtimer.o
halInit                                           build/obj/hal.o
                                                  build/obj/main.o
halIsCounterWithin                                build/obj/hal.o
halPolledDelay                                    build/obj/hal.o
hal_lld_init                                      build/obj/hal_lld.o
                                                  build/obj/hal.o
i2cAcquireBus                                     build/obj/i2c.o
i2cGetErrors                                      build/obj/i2c.o
i2cInit                                           build/obj/i2c.o
                                                  build/obj/hal.o
i2cMasterReceiveTimeout                           build/obj/i2c.o
i2cMasterTransmitTimeout                          build/obj/i2c.o
i2cObjectInit                                     build/obj/i2c.o
                                                  build/obj/i2c_lld.o
i2cReleaseBus                                     build/obj/i2c.o
i2cStart                                          build/obj/i2c.o
i2cStop                                           build/obj/i2c.o
i2c_lld_init                                      build/obj/i2c_lld.o
                                                  build/obj/i2c.o
i2c_lld_master_receive_timeout                    build/obj/i2c_lld.o
                                                  build/obj/i2c.o
i2c_lld_master_transmit_timeout                   build/obj/i2c_lld.o
                                                  build/obj/i2c.o
i2c_lld_start                                     build/obj/i2c_lld.o
                                                  build/obj/i2c.o
i2c_lld_stop                                      build/obj/i2c_lld.o
                                                  build/obj/i2c.o
last_sync_tim                                     build/obj/rtcan.o
localeconv                                        /opt/R2P/tools/gcc-arm-none-eabi-4_9-2014q4/bin/../lib/gcc/arm-none-eabi/4.9.3/../../../../arm-none-eabi/lib/armv7e-m/libg.a(lib_a-locale.o)
main                                              build/obj/main.o
                                                  build/obj/crt0.o
malloc                                            /opt/R2P/tools/gcc-arm-none-eabi-4_9-2014q4/bin/../lib/gcc/arm-none-eabi/4.9.3/../../../../arm-none-eabi/lib/armv7e-m/libg.a(lib_a-__atexit.o)
memchr                                            /opt/R2P/tools/gcc-arm-none-eabi-4_9-2014q4/bin/../lib/gcc/arm-none-eabi/4.9.3/../../../../arm-none-eabi/lib/armv7e-m/libg.a(lib_a-memchr.o)
                                                  /opt/R2P/tools/gcc-arm-none-eabi-4_9-2014q4/bin/../lib/gcc/arm-none-eabi/4.9.3/../../../../arm-none-eabi/lib/armv7e-m/libg.a(lib_a-svfiprintf.o)
                                                  /opt/R2P/tools/gcc-arm-none-eabi-4_9-2014q4/bin/../lib/gcc/arm-none-eabi/4.9.3/../../../../arm-none-eabi/lib/armv7e-m/libg.a(lib_a-svfprintf.o)
memcpy                                            /opt/R2P/tools/gcc-arm-none-eabi-4_9-2014q4/bin/../lib/gcc/arm-none-eabi/4.9.3/../../../../arm-none-eabi/lib/armv7e-m/libg.a(lib_a-memcpy.o)
                                                  /opt/R2P/tools/gcc-arm-none-eabi-4_9-2014q4/bin/../lib/gcc/arm-none-eabi/4.9.3/../../../../arm-none-eabi/lib/armv7e-m/libg.a(lib_a-svfiprintf.o)
                                                  /opt/R2P/tools/gcc-arm-none-eabi-4_9-2014q4/bin/../lib/gcc/arm-none-eabi/4.9.3/../../../../arm-none-eabi/lib/armv7e-m/libg.a(lib_a-mprec.o)
                                                  /opt/R2P/tools/gcc-arm-none-eabi-4_9-2014q4/bin/../lib/gcc/arm-none-eabi/4.9.3/../../../../arm-none-eabi/lib/armv7e-m/libg.a(lib_a-dtoa.o)
                                                  build/obj/Flasher_.o
                                                  build/obj/Bootloader.o
                                                  build/obj/Message.o
                                                  build/obj/memstreams.o
memmove                                           /opt/R2P/tools/gcc-arm-none-eabi-4_9-2014q4/bin/../lib/gcc/arm-none-eabi/4.9.3/../../../../arm-none-eabi/lib/armv7e-m/libg.a(lib_a-memmove.o)
                                                  /opt/R2P/tools/gcc-arm-none-eabi-4_9-2014q4/bin/../lib/gcc/arm-none-eabi/4.9.3/../../../../arm-none-eabi/lib/armv7e-m/libg.a(lib_a-reallocr.o)
                                                  /opt/R2P/tools/gcc-arm-none-eabi-4_9-2014q4/bin/../lib/gcc/arm-none-eabi/4.9.3/../../../../arm-none-eabi/lib/armv7e-m/libg.a(lib_a-svfiprintf.o)
memset                                            /opt/R2P/tools/gcc-arm-none-eabi-4_9-2014q4/bin/../lib/gcc/arm-none-eabi/4.9.3/../../../../arm-none-eabi/lib/armv7e-m/libg.a(lib_a-memset.o)
                                                  /opt/R2P/tools/gcc-arm-none-eabi-4_9-2014q4/bin/../lib/gcc/arm-none-eabi/4.9.3/../../../../arm-none-eabi/lib/armv7e-m/libg.a(lib_a-callocr.o)
                                                  build/obj/DebugTransport.o
                                                  build/obj/Bootloader.o
                                                  build/obj/Transport.o
                                                  build/obj/Middleware.o
                                                  build/obj/syscalls.o
                                                  build/obj/usb.o
msObjectInit                                      build/obj/memstreams.o
                                                  build/obj/chprintf.o
msgqueue_get                                      build/obj/msgqueue.o
                                                  build/obj/srt.o
msgqueue_init                                     build/obj/msgqueue.o
                                                  build/obj/rtcan.o
msgqueue_insert                                   build/obj/msgqueue.o
                                                  build/obj/rtcan.o
msgqueue_remove                                   build/obj/msgqueue.o
nvicDisableVector                                 build/obj/nvic.o
                                                  build/obj/rtcan_lld_tim.o
                                                  build/obj/rtcan_lld_can.o
                                                  build/obj/usb_lld.o
                                                  build/obj/serial_lld.o
                                                  build/obj/i2c_lld.o
                                                  build/obj/stm32_dma.o
nvicEnableVector                                  build/obj/nvic.o
                                                  build/obj/rtcan_lld_tim.o
                                                  build/obj/rtcan_lld_can.o
                                                  build/obj/usb_lld.o
                                                  build/obj/serial_lld.o
                                                  build/obj/i2c_lld.o
                                                  build/obj/stm32_dma.o
nvicSetSystemHandlerPriority                      build/obj/nvic.o
                                                  build/obj/chcore_v7m.o
operator delete(void*)                            build/obj/chnew.o
                                                  build/obj/main.o
                                                  build/obj/led.o
                                                  build/obj/RTCANSubscriber.o
                                                  build/obj/RTCANPublisher.o
                                                  build/obj/RTCANTransport.o
                                                  build/obj/DebugSubscriber.o
                                                  build/obj/DebugPublisher.o
                                                  build/obj/DebugTransport.o
                                                  build/obj/Transport.o
                                                  build/obj/RemoteSubscriber.o
                                                  build/obj/RemotePublisher.o
                                                  build/obj/Middleware.o
                                                  build/obj/LocalSubscriber.o
                                                  build/obj/LocalPublisher.o
                                                  build/obj/BaseSubscriber.o
                                                  build/obj/BasePublisher.o
operator delete(void*, memory_heap*)              build/obj/chnew.o
operator delete[](void*)                          build/obj/chnew.o
                                                  build/obj/Transport.o
operator delete[](void*, memory_heap*)            build/obj/chnew.o
operator new(unsigned int)                        build/obj/chnew.o
                                                  build/obj/RTCANTransport.o
                                                  build/obj/DebugTransport.o
                                                  build/obj/Middleware.o
operator new(unsigned int, memory_heap*)          build/obj/chnew.o
operator new[](unsigned int)                      build/obj/chnew.o
                                                  build/obj/main.o
                                                  build/obj/Bootloader.o
                                                  build/obj/Transport.o
                                                  build/obj/Middleware.o
operator new[](unsigned int, memory_heap*)        build/obj/chnew.o
palReadBus                                        build/obj/pal.o
palSetBusMode                                     build/obj/pal.o
palWriteBus                                       build/obj/pal.o
pal_default_config                                build/obj/board.o
                                                  build/obj/hal.o
port_halt                                         build/obj/chcore.o
                                                  build/obj/led.o
                                                  build/obj/stubs.o
                                                  build/obj/spi_lld.o
                                                  build/obj/i2c_lld.o
                                                  build/obj/chdebug.o
r2p::ArrayQueue<r2p::Message*>::ArrayQueue(r2p::Message**, unsigned int) build/obj/MessagePtrQueue.o
r2p::ArrayQueue<r2p::Message*>::ArrayQueue(r2p::Message**, unsigned int) build/obj/MessagePtrQueue.o
r2p::ArrayQueue<r2p::Message*>::fetch_unsafe(r2p::Message*&) build/obj/LocalSubscriber.o
                                                  build/obj/main.o
                                                  build/obj/led.o
                                                  build/obj/Middleware.o
r2p::ArrayQueue<r2p::Message*>::get_length() const build/obj/LocalSubscriber.o
                                                  build/obj/main.o
                                                  build/obj/led.o
                                                  build/obj/Middleware.o
r2p::ArrayQueue<r2p::Message*>::post_unsafe(r2p::Message*) build/obj/LocalSubscriber.o
                                                  build/obj/main.o
                                                  build/obj/led.o
                                                  build/obj/Middleware.o
r2p::ArrayQueue<r2p::Message*>::~ArrayQueue()     build/obj/LocalSubscriber.o
r2p::ArrayQueue<r2p::Message*>::~ArrayQueue()     build/obj/LocalSubscriber.o
r2p::ArrayQueue<r2p::TimestampedMsgPtrQueue::Entry>::ArrayQueue(r2p::TimestampedMsgPtrQueue::Entry*, unsigned int) build/obj/TimestampedMsgPtrQueue.o
r2p::ArrayQueue<r2p::TimestampedMsgPtrQueue::Entry>::ArrayQueue(r2p::TimestampedMsgPtrQueue::Entry*, unsigned int) build/obj/TimestampedMsgPtrQueue.o
r2p::ArrayQueue<r2p::TimestampedMsgPtrQueue::Entry>::fetch_unsafe(r2p::TimestampedMsgPtrQueue::Entry&) build/obj/DebugSubscriber.o
r2p::ArrayQueue<r2p::TimestampedMsgPtrQueue::Entry>::get_count() const build/obj/DebugSubscriber.o
r2p::ArrayQueue<r2p::TimestampedMsgPtrQueue::Entry>::get_length() const build/obj/DebugSubscriber.o
r2p::ArrayQueue<r2p::TimestampedMsgPtrQueue::Entry>::post_unsafe(r2p::TimestampedMsgPtrQueue::Entry) build/obj/DebugSubscriber.o
r2p::ArrayQueue<r2p::TimestampedMsgPtrQueue::Entry>::~ArrayQueue() build/obj/DebugSubscriber.o
r2p::ArrayQueue<r2p::TimestampedMsgPtrQueue::Entry>::~ArrayQueue() build/obj/DebugSubscriber.o
r2p::BasePublisher::BasePublisher()               build/obj/BasePublisher.o
r2p::BasePublisher::BasePublisher()               build/obj/BasePublisher.o
                                                  build/obj/RemotePublisher.o
                                                  build/obj/LocalPublisher.o
r2p::BasePublisher::alloc(r2p::Message*&)         build/obj/Middleware.o
                                                  build/obj/main.o
                                                  build/obj/led.o
                                                  build/obj/DebugTransport.o
                                                  build/obj/Bootloader.o
r2p::BasePublisher::alloc_unsafe(r2p::Message*&)  build/obj/Middleware.o
                                                  build/obj/main.o
                                                  build/obj/led.o
                                                  build/obj/RTCANTransport.o
                                                  build/obj/DebugTransport.o
                                                  build/obj/Bootloader.o
r2p::BasePublisher::get_topic() const             build/obj/Middleware.o
                                                  build/obj/Node.o
r2p::BasePublisher::has_topic(r2p::BasePublisher const&, char const*) build/obj/Transport.o
                                                  build/obj/DebugTransport.o
r2p::BasePublisher::notify_advertised(r2p::Topic&) build/obj/Middleware.o
                                                  build/obj/Transport.o
r2p::BasePublisher::publish(r2p::Message&)        build/obj/BasePublisher.o
                                                  build/obj/main.o
                                                  build/obj/led.o
r2p::BasePublisher::publish_locally(r2p::Message&) build/obj/DebugTransport.o
r2p::BasePublisher::publish_locally_unsafe(r2p::Message&) build/obj/BasePublisher.o
                                                  build/obj/RTCANTransport.o
r2p::BasePublisher::publish_remotely(r2p::Message&) build/obj/Middleware.o
                                                  build/obj/Bootloader.o
r2p::BasePublisher::publish_remotely_unsafe(r2p::Message&) build/obj/BasePublisher.o
r2p::BasePublisher::publish_unsafe(r2p::Message&) build/obj/BasePublisher.o
r2p::BasePublisher::~BasePublisher()              build/obj/BasePublisher.o
r2p::BasePublisher::~BasePublisher()              build/obj/BasePublisher.o
r2p::BasePublisher::~BasePublisher()              build/obj/BasePublisher.o
                                                  build/obj/RemotePublisher.o
                                                  build/obj/LocalPublisher.o
r2p::BaseSubscriber::BaseSubscriber()             build/obj/BaseSubscriber.o
r2p::BaseSubscriber::BaseSubscriber()             build/obj/BaseSubscriber.o
                                                  build/obj/RemoteSubscriber.o
                                                  build/obj/LocalSubscriber.o
r2p::BaseSubscriber::get_topic() const            build/obj/Middleware.o
                                                  build/obj/RTCANTransport.o
                                                  build/obj/DebugTransport.o
                                                  build/obj/Node.o
r2p::BaseSubscriber::has_topic(r2p::BaseSubscriber const&, char const*) build/obj/BaseSubscriber.o
                                                  build/obj/Transport.o
r2p::BaseSubscriber::notify_subscribed(r2p::Topic&) build/obj/Middleware.o
                                                  build/obj/Transport.o
r2p::BaseSubscriber::release(r2p::Message&)       build/obj/BaseSubscriber.o
                                                  build/obj/DebugTransport.o
                                                  build/obj/Bootloader.o
                                                  build/obj/Node.o
                                                  build/obj/Middleware.o
r2p::BaseSubscriber::release_unsafe(r2p::Message&) build/obj/BaseSubscriber.o
                                                  build/obj/RTCANTransport.o
r2p::BaseSubscriber::~BaseSubscriber()            build/obj/BaseSubscriber.o
                                                  build/obj/RemoteSubscriber.o
                                                  build/obj/LocalSubscriber.o
r2p::BaseSubscriber::~BaseSubscriber()            build/obj/BaseSubscriber.o
r2p::BaseSubscriber::~BaseSubscriber()            build/obj/BaseSubscriber.o
r2p::BaseSubscriberQueue::BaseSubscriberQueue()   build/obj/BaseSubscriberQueue.o
r2p::BaseSubscriberQueue::BaseSubscriberQueue()   build/obj/BaseSubscriberQueue.o
                                                  build/obj/RTCANTransport.o
                                                  build/obj/DebugTransport.o
r2p::BaseSubscriberQueue::~BaseSubscriberQueue()  build/obj/DebugTransport.o
                                                  build/obj/RTCANTransport.o
r2p::BaseSubscriberQueue::~BaseSubscriberQueue()  build/obj/DebugTransport.o
                                                  build/obj/RTCANTransport.o
r2p::BootMsg::BootMsg()                           build/obj/Middleware.o
                                                  build/obj/DebugTransport.o
r2p::BootMsg::BootMsg()                           build/obj/Middleware.o
                                                  build/obj/DebugTransport.o
r2p::Bootloader::Bootloader(unsigned short*, r2p::Publisher<r2p::BootMsg>&, r2p::SubscriberExtBuf<r2p::BootMsg>&) build/obj/Bootloader.o
                                                  build/obj/Middleware.o
r2p::Bootloader::Bootloader(unsigned short*, r2p::Publisher<r2p::BootMsg>&, r2p::SubscriberExtBuf<r2p::BootMsg>&) build/obj/Bootloader.o
r2p::Bootloader::FlashAppInfo::compute_data_program(r2p::Bootloader::FlashAppInfo const*, unsigned int, unsigned int) build/obj/Bootloader.o
r2p::Bootloader::FlashAppInfo::compute_next(r2p::Bootloader::FlashAppInfo const*, unsigned int, unsigned int) build/obj/Bootloader.o
r2p::Bootloader::FlashAppInfo::compute_program(r2p::Bootloader::FlashAppInfo const*) build/obj/Bootloader.o
r2p::Bootloader::FlashAppInfo::get_data_program() const build/obj/Bootloader.o
r2p::Bootloader::FlashAppInfo::get_next() const   build/obj/Bootloader.o
r2p::Bootloader::FlashAppInfo::get_program() const build/obj/Bootloader.o
r2p::Bootloader::FlashAppInfo::has_name(char const*) const build/obj/Bootloader.o
r2p::Bootloader::FlashAppInfo::is_valid() const   build/obj/Bootloader.o
r2p::Bootloader::Iterator::Iterator(r2p::Bootloader::FlashAppInfo const*) build/obj/Bootloader.o
r2p::Bootloader::Iterator::Iterator(r2p::Bootloader::FlashAppInfo const*) build/obj/Bootloader.o
r2p::Bootloader::Iterator::Iterator(r2p::Bootloader::Iterator const&) build/obj/Bootloader.o
r2p::Bootloader::Iterator::Iterator(r2p::Bootloader::Iterator const&) build/obj/Bootloader.o
r2p::Bootloader::Iterator::operator r2p::Bootloader::FlashAppInfo const*() const build/obj/Bootloader.o
r2p::Bootloader::Iterator::operator!=(r2p::Bootloader::Iterator const&) const build/obj/Bootloader.o
r2p::Bootloader::Iterator::operator*() const      build/obj/Bootloader.o
r2p::Bootloader::Iterator::operator++()           build/obj/Bootloader.o
r2p::Bootloader::Iterator::operator->() const     build/obj/Bootloader.o
r2p::Bootloader::alloc()                          build/obj/Bootloader.o
r2p::Bootloader::alloc(r2p::BootMsg::TypeEnum)    build/obj/Bootloader.o
r2p::Bootloader::an_invalid_signature             build/obj/Bootloader.o
r2p::Bootloader::app_threadf_wrapper(void*)       build/obj/Bootloader.o
r2p::Bootloader::begin()                          build/obj/Bootloader.o
r2p::Bootloader::begin_write()                    build/obj/Bootloader.o
r2p::Bootloader::compute_addresses(r2p::BootMsg::LinkingSetup const&, r2p::BootMsg::LinkingAddresses&) build/obj/Bootloader.o
r2p::Bootloader::do_ack()                         build/obj/Bootloader.o
r2p::Bootloader::do_appinfo()                     build/obj/Bootloader.o
r2p::Bootloader::do_error(unsigned long, char const*) build/obj/Bootloader.o
r2p::Bootloader::do_getparam()                    build/obj/Bootloader.o
r2p::Bootloader::do_loader()                      build/obj/Bootloader.o
r2p::Bootloader::do_release_error(unsigned long, char const*) build/obj/Bootloader.o
r2p::Bootloader::do_setparam()                    build/obj/Bootloader.o
r2p::Bootloader::end()                            build/obj/Bootloader.o
r2p::Bootloader::end_write()                      build/obj/Bootloader.o
r2p::Bootloader::fetch()                          build/obj/Bootloader.o
r2p::Bootloader::fetch(r2p::BootMsg::TypeEnum)    build/obj/Bootloader.o
r2p::Bootloader::get_app(char const*)             build/obj/Bootloader.o
r2p::Bootloader::get_free_address()               build/obj/Bootloader.o
r2p::Bootloader::get_free_app()                   build/obj/Bootloader.o
r2p::Bootloader::get_last_app()                   build/obj/Bootloader.o
r2p::Bootloader::get_num_apps()                   build/obj/Bootloader.o
r2p::Bootloader::launch(char const*)              build/obj/Bootloader.o
r2p::Bootloader::launch_all()                     build/obj/Bootloader.o
                                                  build/obj/Middleware.o
r2p::Bootloader::process_ihex(r2p::IhexRecord const&, r2p::BootMsg::LinkingSetup const&, r2p::BootMsg::LinkingAddresses const&) build/obj/Bootloader.o
r2p::Bootloader::publish()                        build/obj/Bootloader.o
r2p::Bootloader::release()                        build/obj/Bootloader.o
r2p::Bootloader::remove_all()                     build/obj/Bootloader.o
r2p::Bootloader::remove_last()                    build/obj/Bootloader.o
r2p::Bootloader::reserve_ram(unsigned int)        build/obj/Bootloader_.o
                                                  build/obj/Bootloader.o
r2p::Bootloader::spin_loop()                      build/obj/Bootloader.o
                                                  build/obj/Middleware.o
r2p::Bootloader::unreserve_ram(unsigned int)      build/obj/Bootloader_.o
                                                  build/obj/Bootloader.o
r2p::Bootloader::write(void const*, void const*, unsigned int) build/obj/Bootloader.o
r2p::Bootloader::write_appinfo(r2p::Bootloader::FlashAppInfo const*, r2p::BootMsg::LinkingSetup const&, r2p::BootMsg::LinkingAddresses const&, r2p::BootMsg::LinkingOutcome const&) build/obj/Bootloader.o
r2p::Bootloader::~Bootloader()                    build/obj/Middleware.o
r2p::Bootloader::~Bootloader()                    build/obj/Middleware.o
r2p::Checksummer::Checksummer()                   build/obj/DebugTransport.o
r2p::Checksummer::Checksummer()                   build/obj/DebugTransport.o
r2p::Checksummer::add(unsigned char const*, unsigned int) build/obj/Checksummer.o
                                                  build/obj/DebugTransport.o
r2p::Checksummer::add(unsigned char)              build/obj/Checksummer.o
                                                  build/obj/DebugTransport.o
r2p::Checksummer::add(void const*, unsigned int)  build/obj/DebugTransport.o
r2p::Checksummer::check(unsigned char) const      build/obj/DebugTransport.o
r2p::Checksummer::compute_checksum() const        build/obj/DebugTransport.o
r2p::Checksummer::~Checksummer()                  build/obj/DebugTransport.o
r2p::Checksummer::~Checksummer()                  build/obj/DebugTransport.o
r2p::DebugPublisher::DebugPublisher(r2p::Transport&) build/obj/DebugPublisher.o
r2p::DebugPublisher::DebugPublisher(r2p::Transport&) build/obj/DebugPublisher.o
                                                  build/obj/DebugTransport.o
r2p::DebugPublisher::~DebugPublisher()            build/obj/DebugPublisher.o
r2p::DebugPublisher::~DebugPublisher()            build/obj/DebugPublisher.o
                                                  build/obj/DebugTransport.o
r2p::DebugPublisher::~DebugPublisher()            build/obj/DebugPublisher.o
r2p::DebugSubscriber::DebugSubscriber(r2p::DebugTransport&, r2p::TimestampedMsgPtrQueue::Entry*, unsigned int) build/obj/DebugSubscriber.o
                                                  build/obj/DebugTransport.o
r2p::DebugSubscriber::DebugSubscriber(r2p::DebugTransport&, r2p::TimestampedMsgPtrQueue::Entry*, unsigned int) build/obj/DebugSubscriber.o
r2p::DebugSubscriber::fetch(r2p::Message*&, r2p::Time&) build/obj/DebugSubscriber.o
r2p::DebugSubscriber::fetch_unsafe(r2p::Message*&, r2p::Time&) build/obj/DebugSubscriber.o
r2p::DebugSubscriber::get_queue_count() const     build/obj/DebugSubscriber.o
                                                  build/obj/DebugTransport.o
r2p::DebugSubscriber::get_queue_length() const    build/obj/DebugSubscriber.o
r2p::DebugSubscriber::notify(r2p::Message&, r2p::Time const&) build/obj/DebugSubscriber.o
r2p::DebugSubscriber::notify_unsafe(r2p::Message&, r2p::Time const&) build/obj/DebugSubscriber.o
r2p::DebugSubscriber::~DebugSubscriber()          build/obj/DebugSubscriber.o
                                                  build/obj/DebugTransport.o
r2p::DebugSubscriber::~DebugSubscriber()          build/obj/DebugSubscriber.o
r2p::DebugSubscriber::~DebugSubscriber()          build/obj/DebugSubscriber.o
r2p::DebugTransport::DebugTransport(char const*, BaseChannel*, char*) build/obj/DebugTransport.o
                                                  build/obj/main.o
r2p::DebugTransport::DebugTransport(char const*, BaseChannel*, char*) build/obj/DebugTransport.o
r2p::DebugTransport::create_publisher(r2p::Topic&, unsigned char const*) const build/obj/DebugTransport.o
r2p::DebugTransport::create_subscriber(r2p::Topic&, r2p::TimestampedMsgPtrQueue::Entry*, unsigned int) const build/obj/DebugTransport.o
r2p::DebugTransport::expect_char(char, unsigned long) build/obj/DebugTransport.o
r2p::DebugTransport::initialize(void*, unsigned int, unsigned long, void*, unsigned int, unsigned long) build/obj/DebugTransport.o
                                                  build/obj/main.o
r2p::DebugTransport::notify_first_sub_unsafe(r2p::DebugSubscriber const&) build/obj/DebugTransport.o
                                                  build/obj/DebugSubscriber.o
r2p::DebugTransport::recv_byte(unsigned char&, unsigned long) build/obj/DebugTransport.o
r2p::DebugTransport::recv_char(char&, unsigned long) build/obj/DebugTransport.o
r2p::DebugTransport::recv_chunk(void*, unsigned int, unsigned long) build/obj/DebugTransport.o
r2p::DebugTransport::recv_chunk_rev(void*, unsigned int, unsigned long) build/obj/DebugTransport.o
r2p::DebugTransport::recv_string(char*, unsigned int, unsigned long) build/obj/DebugTransport.o
r2p::DebugTransport::rx_threadf(void*)            build/obj/DebugTransport.o
r2p::DebugTransport::send_byte(unsigned char, unsigned long) build/obj/DebugTransport.o
r2p::DebugTransport::send_byte(unsigned char, unsigned long)::hex build/obj/DebugTransport.o
r2p::DebugTransport::send_char(char, unsigned long) build/obj/DebugTransport.o
r2p::DebugTransport::send_chunk(void const*, unsigned int, unsigned long) build/obj/DebugTransport.o
r2p::DebugTransport::send_chunk_rev(void const*, unsigned int, unsigned long) build/obj/DebugTransport.o
r2p::DebugTransport::send_msg(r2p::Message const&, unsigned int, char const*, r2p::Time const&) build/obj/DebugTransport.o
r2p::DebugTransport::send_string(char const*, unsigned int, unsigned long) build/obj/DebugTransport.o
r2p::DebugTransport::skip_after_char(char, unsigned long) build/obj/DebugTransport.o
r2p::DebugTransport::spin_rx()                    build/obj/DebugTransport.o
r2p::DebugTransport::spin_tx()                    build/obj/DebugTransport.o
r2p::DebugTransport::tx_threadf(void*)            build/obj/DebugTransport.o
r2p::DebugTransport::~DebugTransport()            build/obj/DebugTransport.o
r2p::DebugTransport::~DebugTransport()            build/obj/DebugTransport.o
r2p::DebugTransport::~DebugTransport()            build/obj/DebugTransport.o
                                                  build/obj/main.o
r2p::Flasher::Flasher(unsigned short*)            build/obj/Bootloader.o
r2p::Flasher::Flasher(unsigned short*)            build/obj/Bootloader.o
r2p::Flasher::align_next(unsigned int)            build/obj/Bootloader.o
r2p::Flasher::begin()                             build/obj/Bootloader.o
r2p::Flasher::end()                               build/obj/Bootloader.o
r2p::Flasher::erase(unsigned char const*, unsigned int) build/obj/Bootloader.o
r2p::Flasher::flash(unsigned char const*, unsigned char const*, unsigned int) build/obj/Bootloader.o
r2p::Flasher::get_program_end()                   build/obj/Bootloader.o
r2p::Flasher::get_program_length()                build/obj/Bootloader.o
r2p::Flasher::get_program_start()                 build/obj/Bootloader.o
r2p::Flasher::get_ram_end()                       build/obj/Bootloader.o
r2p::Flasher::get_ram_start()                     build/obj/Bootloader.o
r2p::Flasher::is_aligned(void const*)             build/obj/Bootloader.o
r2p::Flasher::is_within_bounds(void const*)       build/obj/Bootloader.o
r2p::Flasher::~Flasher()                          build/obj/Middleware.o
r2p::Flasher::~Flasher()                          build/obj/Middleware.o
r2p::Flasher_::Flasher_(unsigned short*)          build/obj/Flasher_.o
                                                  build/obj/Bootloader.o
r2p::Flasher_::Flasher_(unsigned short*)          build/obj/Flasher_.o
r2p::Flasher_::address_of(unsigned short)         build/obj/Flasher_.o
r2p::Flasher_::align_next(unsigned char const*)   build/obj/Bootloader.o
r2p::Flasher_::align_prev(unsigned char const*)   build/obj/Bootloader.o
                                                  build/obj/Flasher_.o
r2p::Flasher_::begin()                            build/obj/Flasher_.o
                                                  build/obj/Bootloader.o
r2p::Flasher_::compare(unsigned short, unsigned short const volatile*) build/obj/Flasher_.o
r2p::Flasher_::end()                              build/obj/Flasher_.o
                                                  build/obj/Bootloader.o
r2p::Flasher_::erase(unsigned char const*, unsigned int) build/obj/Flasher_.o
                                                  build/obj/Bootloader.o
r2p::Flasher_::erase(unsigned short)              build/obj/Flasher_.o
r2p::Flasher_::erase_aligned(unsigned short const*, unsigned int) build/obj/Flasher_.o
r2p::Flasher_::erased_word                        build/obj/Flasher_.o
r2p::Flasher_::flash(unsigned char const*, unsigned char const*, unsigned int) build/obj/Flasher_.o
                                                  build/obj/Bootloader.o
r2p::Flasher_::flash_aligned(unsigned short const*, unsigned short const*, unsigned int) build/obj/Flasher_.o
r2p::Flasher_::get_program_end()                  build/obj/Bootloader.o
                                                  build/obj/Flasher_.o
r2p::Flasher_::get_program_length()               build/obj/Flasher_.o
r2p::Flasher_::get_program_start()                build/obj/Bootloader.o
                                                  build/obj/Flasher_.o
r2p::Flasher_::get_ram_end()                      build/obj/Bootloader.o
r2p::Flasher_::get_ram_start()                    build/obj/Bootloader.o
r2p::Flasher_::is_aligned(void const*)            build/obj/Bootloader.o
                                                  build/obj/Flasher_.o
r2p::Flasher_::is_erased(unsigned short)          build/obj/Flasher_.o
r2p::Flasher_::is_within_bounds(void const*)      build/obj/Bootloader.o
r2p::Flasher_::jump_to(unsigned char const*)      build/obj/Flasher_.o
r2p::Flasher_::page_of(unsigned char const*)      build/obj/Flasher_.o
r2p::Flasher_::read(unsigned short, unsigned short*) build/obj/Flasher_.o
r2p::Flasher_::set_page_buffer(unsigned short*)   build/obj/Flasher_.o
r2p::Flasher_::write(unsigned short, unsigned short const volatile*) build/obj/Flasher_.o
r2p::Flasher_::write_if_needed(unsigned short, unsigned short const volatile*) build/obj/Flasher_.o
r2p::Flasher_::~Flasher_()                        build/obj/Middleware.o
r2p::Flasher_::~Flasher_()                        build/obj/Middleware.o
r2p::IhexRecord::compute_checksum() const         build/obj/BootMsg.o
                                                  build/obj/Bootloader.o
r2p::LedMsg::LedMsg()                             build/obj/led.o
r2p::LedMsg::LedMsg()                             build/obj/led.o
r2p::LocalPublisher::LocalPublisher()             build/obj/LocalPublisher.o
r2p::LocalPublisher::LocalPublisher()             build/obj/LocalPublisher.o
                                                  build/obj/main.o
                                                  build/obj/led.o
                                                  build/obj/Middleware.o
r2p::LocalPublisher::~LocalPublisher()            build/obj/LocalPublisher.o
                                                  build/obj/main.o
                                                  build/obj/led.o
                                                  build/obj/Middleware.o
r2p::LocalPublisher::~LocalPublisher()            build/obj/LocalPublisher.o
r2p::LocalPublisher::~LocalPublisher()            build/obj/LocalPublisher.o
r2p::LocalSubscriber::LocalSubscriber(r2p::Message**, unsigned int, bool (*)(r2p::Message const&)) build/obj/LocalSubscriber.o
                                                  build/obj/led.o
                                                  build/obj/Middleware.o
r2p::LocalSubscriber::LocalSubscriber(r2p::Message**, unsigned int, bool (*)(r2p::Message const&)) build/obj/LocalSubscriber.o
r2p::LocalSubscriber::fetch(r2p::Message*&)       build/obj/LocalSubscriber.o
                                                  build/obj/Bootloader.o
r2p::LocalSubscriber::fetch(r2p::Message*&, r2p::Time&) build/obj/LocalSubscriber.o
                                                  build/obj/main.o
                                                  build/obj/led.o
                                                  build/obj/Middleware.o
r2p::LocalSubscriber::fetch_unsafe(r2p::Message*&, r2p::Time&) build/obj/LocalSubscriber.o
                                                  build/obj/main.o
                                                  build/obj/led.o
                                                  build/obj/Middleware.o
r2p::LocalSubscriber::get_callback() const        build/obj/Node.o
r2p::LocalSubscriber::get_queue_length() const    build/obj/LocalSubscriber.o
                                                  build/obj/main.o
                                                  build/obj/led.o
                                                  build/obj/Middleware.o
r2p::LocalSubscriber::notify(r2p::Message&, r2p::Time const&) build/obj/LocalSubscriber.o
                                                  build/obj/main.o
                                                  build/obj/led.o
                                                  build/obj/Middleware.o
r2p::LocalSubscriber::notify_unsafe(r2p::Message&, r2p::Time const&) build/obj/LocalSubscriber.o
                                                  build/obj/main.o
                                                  build/obj/led.o
                                                  build/obj/Middleware.o
r2p::LocalSubscriber::~LocalSubscriber()          build/obj/LocalSubscriber.o
r2p::LocalSubscriber::~LocalSubscriber()          build/obj/LocalSubscriber.o
                                                  build/obj/main.o
                                                  build/obj/led.o
                                                  build/obj/Middleware.o
r2p::LocalSubscriber::~LocalSubscriber()          build/obj/LocalSubscriber.o
r2p::MemoryPool<rtcan_msg_t>::MemoryPool(rtcan_msg_t*, unsigned int) build/obj/RTCANTransport.o
r2p::MemoryPool<rtcan_msg_t>::MemoryPool(rtcan_msg_t*, unsigned int) build/obj/RTCANTransport.o
r2p::MemoryPool<rtcan_msg_t>::alloc_unsafe()      build/obj/RTCANTransport.o
r2p::MemoryPool<rtcan_msg_t>::free_unsafe(rtcan_msg_t*) build/obj/RTCANTransport.o
r2p::MemoryPool<rtcan_msg_t>::~MemoryPool()       build/obj/RTCANTransport.o
r2p::MemoryPool<rtcan_msg_t>::~MemoryPool()       build/obj/RTCANTransport.o
r2p::MemoryPool_::MemoryPool_(unsigned int)       build/obj/Topic.o
r2p::MemoryPool_::MemoryPool_(unsigned int)       build/obj/Topic.o
r2p::MemoryPool_::MemoryPool_(void*, unsigned int, unsigned int) build/obj/RTCANTransport.o
r2p::MemoryPool_::MemoryPool_(void*, unsigned int, unsigned int) build/obj/RTCANTransport.o
r2p::MemoryPool_::alloc_unsafe()                  build/obj/Middleware.o
                                                  build/obj/main.o
                                                  build/obj/led.o
                                                  build/obj/RTCANTransport.o
                                                  build/obj/DebugTransport.o
                                                  build/obj/Bootloader.o
                                                  build/obj/Topic.o
r2p::MemoryPool_::extend(void*, unsigned int)     build/obj/Middleware.o
                                                  build/obj/RTCANTransport.o
                                                  build/obj/Transport.o
r2p::MemoryPool_::free(void*)                     build/obj/BasePublisher.o
                                                  build/obj/Topic.o
                                                  build/obj/BaseSubscriber.o
r2p::MemoryPool_::free_unsafe(void*)              build/obj/BasePublisher.o
                                                  build/obj/RTCANTransport.o
                                                  build/obj/Topic.o
                                                  build/obj/BaseSubscriber.o
r2p::MemoryPool_::get_item_size() const           build/obj/Middleware.o
                                                  build/obj/RTCANTransport.o
                                                  build/obj/DebugTransport.o
                                                  build/obj/Transport.o
                                                  build/obj/Topic.o
r2p::MemoryPool_::~MemoryPool_()                  build/obj/RTCANTransport.o
                                                  build/obj/main.o
r2p::MemoryPool_::~MemoryPool_()                  build/obj/RTCANTransport.o
                                                  build/obj/main.o
r2p::Message::Message()                           build/obj/Middleware.o
                                                  build/obj/led.o
                                                  build/obj/RTCANTransport.o
                                                  build/obj/DebugTransport.o
r2p::Message::Message()                           build/obj/Middleware.o
                                                  build/obj/led.o
                                                  build/obj/RTCANTransport.o
                                                  build/obj/DebugTransport.o
r2p::Message::acquire()                           build/obj/Message.o
                                                  build/obj/Topic.o
                                                  build/obj/Middleware.o
                                                  build/obj/BasePublisher.o
r2p::Message::acquire_unsafe()                    build/obj/BasePublisher.o
                                                  build/obj/Topic.o
                                                  build/obj/Message.o
r2p::Message::copy(r2p::Message&, r2p::Message const&, unsigned int) build/obj/Message.o
                                                  build/obj/Topic.o
r2p::Message::get_msg_from_raw_data(unsigned char const*) build/obj/RTCANTransport.o
r2p::Message::get_payload_size(unsigned int)      build/obj/Middleware.o
                                                  build/obj/RTCANTransport.o
                                                  build/obj/DebugTransport.o
                                                  build/obj/Bootloader.o
r2p::Message::get_raw_data() const                build/obj/DebugTransport.o
                                                  build/obj/RTCANTransport.o
r2p::Message::release()                           build/obj/Message.o
                                                  build/obj/Topic.o
                                                  build/obj/BaseSubscriber.o
                                                  build/obj/BasePublisher.o
r2p::Message::release_unsafe()                    build/obj/BasePublisher.o
                                                  build/obj/Topic.o
                                                  build/obj/Message.o
                                                  build/obj/BaseSubscriber.o
r2p::Message::reset()                             build/obj/Message.o
r2p::Message::reset_unsafe()                      build/obj/Message.o
                                                  build/obj/main.o
                                                  build/obj/led.o
                                                  build/obj/RTCANTransport.o
                                                  build/obj/DebugTransport.o
                                                  build/obj/Bootloader.o
                                                  build/obj/Topic.o
                                                  build/obj/Middleware.o
r2p::MessagePtrQueue::MessagePtrQueue(r2p::Message**, unsigned int) build/obj/MessagePtrQueue.o
r2p::MessagePtrQueue::MessagePtrQueue(r2p::Message**, unsigned int) build/obj/MessagePtrQueue.o
                                                  build/obj/LocalSubscriber.o
r2p::MessagePtrQueue::~MessagePtrQueue()          build/obj/LocalSubscriber.o
r2p::MessagePtrQueue::~MessagePtrQueue()          build/obj/LocalSubscriber.o
r2p::MgmtMsg::MgmtMsg()                           build/obj/Middleware.o
                                                  build/obj/RTCANTransport.o
                                                  build/obj/DebugTransport.o
r2p::MgmtMsg::MgmtMsg()                           build/obj/Middleware.o
                                                  build/obj/RTCANTransport.o
                                                  build/obj/DebugTransport.o
r2p::Middleware::Middleware(char const*, char const*, r2p::Middleware::PubSubStep*, unsigned int) build/obj/Middleware.o
                                                  build/obj/main.o
r2p::Middleware::Middleware(char const*, char const*, r2p::Middleware::PubSubStep*, unsigned int) build/obj/Middleware.o
r2p::Middleware::add(r2p::Node&)                  build/obj/Middleware.o
                                                  build/obj/Node.o
r2p::Middleware::add(r2p::Topic&)                 build/obj/Middleware.o
r2p::Middleware::add(r2p::Transport&)             build/obj/Middleware.o
                                                  build/obj/RTCANTransport.o
                                                  build/obj/DebugTransport.o
r2p::Middleware::advertise(r2p::LocalPublisher&, char const*, r2p::Time const&, unsigned int) build/obj/Middleware.o
                                                  build/obj/Node.o
r2p::Middleware::advertise(r2p::RemotePublisher&, char const*, r2p::Time const&, unsigned int) build/obj/Middleware.o
                                                  build/obj/Transport.o
r2p::Middleware::boot_mode_magic                  build/obj/Middleware.o
                                                  build/obj/main.o
                                                  build/obj/DebugTransport.o
r2p::Middleware::boot_threadf(void*)              build/obj/Middleware.o
r2p::Middleware::confirm_stop(r2p::Node const&)   build/obj/Middleware.o
                                                  build/obj/Node.o
r2p::Middleware::do_cmd_advertise(r2p::MgmtMsg const&) build/obj/Middleware.o
r2p::Middleware::do_cmd_subscribe_request(r2p::MgmtMsg const&) build/obj/Middleware.o
r2p::Middleware::do_cmd_subscribe_response(r2p::MgmtMsg const&) build/obj/Middleware.o
r2p::Middleware::do_mgmt_thread()                 build/obj/Middleware.o
r2p::Middleware::find_node(char const*)           build/obj/Middleware.o
r2p::Middleware::find_topic(char const*)          build/obj/Middleware.o
                                                  build/obj/DebugTransport.o
                                                  build/obj/Topic.o
r2p::Middleware::get_boot_topic()                 build/obj/DebugTransport.o
r2p::Middleware::get_mgmt_topic()                 build/obj/Topic.o
                                                  build/obj/RTCANTransport.o
r2p::Middleware::get_topics() const               build/obj/RTCANTransport.o
r2p::Middleware::initialize(void*, unsigned int, unsigned long, void*, unsigned int, unsigned long) build/obj/Middleware.o
                                                  build/obj/main.o
r2p::Middleware::instance                         build/obj/main.o
                                                  build/obj/RTCANTransport.o
                                                  build/obj/DebugTransport.o
                                                  build/obj/Transport.o
                                                  build/obj/Topic.o
                                                  build/obj/Node.o
                                                  build/obj/Middleware.o
r2p::Middleware::is_bootloader_mode()             build/obj/Middleware.o
                                                  build/obj/main.o
                                                  build/obj/DebugTransport.o
r2p::Middleware::is_rebooted()                    build/obj/Middleware.o
r2p::Middleware::is_stopped() const               build/obj/Middleware.o
r2p::Middleware::mgmt_threadf(void*)              build/obj/Middleware.o
r2p::Middleware::preload_bootloader_mode(bool)    build/obj/Middleware.o
r2p::Middleware::reboot()                         build/obj/Middleware_.o
                                                  build/obj/Middleware.o
r2p::Middleware::reboot_remote(char const*, bool) build/obj/Middleware.o
r2p::Middleware::rebooted_magic                   build/obj/Middleware.o
                                                  build/obj/Middleware_.o
r2p::Middleware::start()                          build/obj/Middleware.o
                                                  build/obj/main.o
r2p::Middleware::stop()                           build/obj/Middleware.o
r2p::Middleware::stop_remote(char const*)         build/obj/Middleware.o
r2p::Middleware::subscribe(r2p::LocalSubscriber&, char const*, r2p::Message*, unsigned int, unsigned int) build/obj/Middleware.o
                                                  build/obj/Node.o
r2p::Middleware::subscribe(r2p::RemoteSubscriber&, char const*, r2p::Message*, unsigned int, unsigned int) build/obj/Middleware.o
                                                  build/obj/Transport.o
r2p::Middleware::touch_topic(char const*, unsigned int) build/obj/Middleware.o
r2p::Middleware::~Middleware()                    build/obj/main.o
r2p::Middleware::~Middleware()                    build/obj/main.o
r2p::Mutex::Mutex()                               build/obj/Transport.o
r2p::Mutex::Mutex()                               build/obj/Transport.o
r2p::Mutex::Mutex(bool)                           build/obj/Middleware.o
                                                  build/obj/DebugTransport.o
r2p::Mutex::Mutex(bool)                           build/obj/Middleware.o
                                                  build/obj/DebugTransport.o
r2p::Mutex::acquire()                             build/obj/Transport.o
                                                  build/obj/DebugTransport.o
r2p::Mutex::acquire_unsafe()                      build/obj/Middleware.o
r2p::Mutex::initialize()                          build/obj/Middleware.o
                                                  build/obj/DebugTransport.o
r2p::Mutex::release()                             build/obj/Transport.o
                                                  build/obj/DebugTransport.o
r2p::Mutex::release_unsafe()                      build/obj/Middleware.o
r2p::Mutex::~Mutex()                              build/obj/Transport.o
                                                  build/obj/main.o
                                                  build/obj/DebugTransport.o
r2p::Mutex::~Mutex()                              build/obj/Transport.o
                                                  build/obj/main.o
                                                  build/obj/DebugTransport.o
r2p::Mutex_::Mutex_()                             build/obj/Transport.o
r2p::Mutex_::Mutex_()                             build/obj/Transport.o
r2p::Mutex_::Mutex_(bool)                         build/obj/Middleware.o
                                                  build/obj/DebugTransport.o
r2p::Mutex_::Mutex_(bool)                         build/obj/Middleware.o
                                                  build/obj/DebugTransport.o
r2p::Mutex_::acquire()                            build/obj/Transport.o
                                                  build/obj/DebugTransport.o
r2p::Mutex_::acquire_unsafe()                     build/obj/Middleware.o
r2p::Mutex_::initialize()                         build/obj/Middleware.o
                                                  build/obj/DebugTransport.o
                                                  build/obj/Transport.o
r2p::Mutex_::release()                            build/obj/Transport.o
                                                  build/obj/DebugTransport.o
r2p::Mutex_::release_unsafe()                     build/obj/Middleware.o
r2p::Mutex_::~Mutex_()                            build/obj/Transport.o
                                                  build/obj/main.o
                                                  build/obj/DebugTransport.o
r2p::Mutex_::~Mutex_()                            build/obj/Transport.o
                                                  build/obj/main.o
                                                  build/obj/DebugTransport.o
r2p::Node* r2p::StaticList<r2p::Node>::find_first<bool (*)(r2p::Node const&, char const*), char>(bool (*)(r2p::Node const&, char const*), char const*) const build/obj/Middleware.o
r2p::Node::Node(char const*, bool)                build/obj/Node.o
                                                  build/obj/main.o
                                                  build/obj/led.o
                                                  build/obj/Middleware.o
r2p::Node::Node(char const*, bool)                build/obj/Node.o
r2p::Node::advertise(r2p::LocalPublisher&, char const*, r2p::Time const&, unsigned int) build/obj/Node.o
                                                  build/obj/main.o
                                                  build/obj/led.o
                                                  build/obj/Middleware.o
r2p::Node::get_enabled() const                    build/obj/LocalSubscriber.o
                                                  build/obj/main.o
                                                  build/obj/led.o
                                                  build/obj/Middleware.o
r2p::Node::get_name() const                       build/obj/Middleware.o
r2p::Node::get_publishers() const                 build/obj/Middleware.o
r2p::Node::get_subscribers() const                build/obj/Middleware.o
r2p::Node::has_name(r2p::Node const&, char const*) build/obj/Middleware.o
r2p::Node::notify_stop()                          build/obj/Middleware.o
r2p::Node::notify_unsafe(unsigned int)            build/obj/LocalSubscriber.o
                                                  build/obj/main.o
                                                  build/obj/led.o
                                                  build/obj/Middleware.o
r2p::Node::set_enabled(bool)                      build/obj/Middleware.o
r2p::Node::spin(r2p::Time const&)                 build/obj/Node.o
                                                  build/obj/led.o
                                                  build/obj/Middleware.o
r2p::Node::subscribe(r2p::LocalSubscriber&, char const*, r2p::Message*, unsigned int) build/obj/Node.o
                                                  build/obj/led.o
                                                  build/obj/Middleware.o
r2p::Node::~Node()                                build/obj/Node.o
r2p::Node::~Node()                                build/obj/Node.o
                                                  build/obj/main.o
                                                  build/obj/Middleware.o
r2p::Publisher<r2p::BootMsg>::Publisher()         build/obj/Middleware.o
r2p::Publisher<r2p::BootMsg>::Publisher()         build/obj/Middleware.o
r2p::Publisher<r2p::BootMsg>::alloc(r2p::BootMsg*&) build/obj/Bootloader.o
r2p::Publisher<r2p::BootMsg>::~Publisher()        build/obj/Middleware.o
r2p::Publisher<r2p::BootMsg>::~Publisher()        build/obj/Middleware.o
r2p::Publisher<r2p::BootMsg>::~Publisher()        build/obj/Middleware.o
r2p::Publisher<r2p::LedMsg>::Publisher()          build/obj/led.o
r2p::Publisher<r2p::LedMsg>::Publisher()          build/obj/led.o
r2p::Publisher<r2p::LedMsg>::alloc(r2p::LedMsg*&) build/obj/led.o
r2p::Publisher<r2p::LedMsg>::publish(r2p::LedMsg&) build/obj/led.o
r2p::Publisher<r2p::LedMsg>::~Publisher()         build/obj/led.o
r2p::Publisher<r2p::LedMsg>::~Publisher()         build/obj/led.o
r2p::Publisher<r2p::LedMsg>::~Publisher()         build/obj/led.o
r2p::Publisher<r2p::MgmtMsg>::Publisher()         build/obj/Middleware.o
r2p::Publisher<r2p::MgmtMsg>::Publisher()         build/obj/Middleware.o
r2p::Publisher<r2p::MgmtMsg>::alloc(r2p::MgmtMsg*&) build/obj/Middleware.o
r2p::Publisher<r2p::MgmtMsg>::~Publisher()        build/obj/Middleware.o
                                                  build/obj/main.o
r2p::Publisher<r2p::MgmtMsg>::~Publisher()        build/obj/Middleware.o
                                                  build/obj/main.o
r2p::Publisher<r2p::MgmtMsg>::~Publisher()        build/obj/Middleware.o
                                                  build/obj/main.o
r2p::Publisher<r2p::String64Msg>::Publisher()     build/obj/main.o
r2p::Publisher<r2p::String64Msg>::Publisher()     build/obj/main.o
r2p::Publisher<r2p::String64Msg>::alloc(r2p::String64Msg*&) build/obj/main.o
r2p::Publisher<r2p::String64Msg>::publish(r2p::String64Msg*) build/obj/main.o
r2p::Publisher<r2p::String64Msg>::~Publisher()    build/obj/main.o
r2p::Publisher<r2p::String64Msg>::~Publisher()    build/obj/main.o
r2p::Publisher<r2p::String64Msg>::~Publisher()    build/obj/main.o
r2p::RTCANPublisher::RTCANPublisher(r2p::Transport&) build/obj/RTCANPublisher.o
r2p::RTCANPublisher::RTCANPublisher(r2p::Transport&) build/obj/RTCANPublisher.o
                                                  build/obj/RTCANTransport.o
r2p::RTCANPublisher::~RTCANPublisher()            build/obj/RTCANPublisher.o
r2p::RTCANPublisher::~RTCANPublisher()            build/obj/RTCANPublisher.o
r2p::RTCANPublisher::~RTCANPublisher()            build/obj/RTCANPublisher.o
r2p::RTCANSubscriber::RTCANSubscriber(r2p::RTCANTransport&, r2p::TimestampedMsgPtrQueue::Entry*, unsigned int) build/obj/RTCANSubscriber.o
                                                  build/obj/RTCANTransport.o
r2p::RTCANSubscriber::RTCANSubscriber(r2p::RTCANTransport&, r2p::TimestampedMsgPtrQueue::Entry*, unsigned int) build/obj/RTCANSubscriber.o
r2p::RTCANSubscriber::fetch(r2p::Message*&, r2p::Time&) build/obj/RTCANSubscriber.o
r2p::RTCANSubscriber::fetch_unsafe(r2p::Message*&, r2p::Time&) build/obj/RTCANSubscriber.o
r2p::RTCANSubscriber::get_queue_length() const    build/obj/RTCANSubscriber.o
r2p::RTCANSubscriber::notify(r2p::Message&, r2p::Time const&) build/obj/RTCANSubscriber.o
r2p::RTCANSubscriber::notify_unsafe(r2p::Message&, r2p::Time const&) build/obj/RTCANSubscriber.o
r2p::RTCANSubscriber::~RTCANSubscriber()          build/obj/RTCANSubscriber.o
r2p::RTCANSubscriber::~RTCANSubscriber()          build/obj/RTCANSubscriber.o
r2p::RTCANSubscriber::~RTCANSubscriber()          build/obj/RTCANSubscriber.o
r2p::RTCANTransport::RTCANTransport(RTCANDriver&) build/obj/RTCANTransport.o
r2p::RTCANTransport::RTCANTransport(RTCANDriver&) build/obj/RTCANTransport.o
r2p::RTCANTransport::create_publisher(r2p::Topic&, unsigned char const*) const build/obj/RTCANTransport.o
r2p::RTCANTransport::create_subscriber(r2p::Topic&, r2p::TimestampedMsgPtrQueue::Entry*, unsigned int) const build/obj/RTCANTransport.o
r2p::RTCANTransport::fill_raw_params(r2p::Topic const&, unsigned char*) build/obj/RTCANTransport.o
r2p::RTCANTransport::free_header(rtcan_msg_t&)    build/obj/RTCANTransport.o
r2p::RTCANTransport::initialize(RTCANConfig const&) build/obj/RTCANTransport.o
r2p::RTCANTransport::recv_cb(rtcan_msg_t&)        build/obj/RTCANTransport.o
r2p::RTCANTransport::send(r2p::Message*, r2p::RTCANSubscriber*) build/obj/RTCANTransport.o
                                                  build/obj/RTCANSubscriber.o
r2p::RTCANTransport::send_cb(rtcan_msg_t&)        build/obj/RTCANTransport.o
r2p::RTCANTransport::topic_id(r2p::Topic const&) const build/obj/RTCANTransport.o
r2p::RTCANTransport::~RTCANTransport()            build/obj/RTCANTransport.o
r2p::RTCANTransport::~RTCANTransport()            build/obj/RTCANTransport.o
r2p::RTCANTransport::~RTCANTransport()            build/obj/RTCANTransport.o
r2p::ReMutex::ReMutex(bool)                       build/obj/Middleware.o
r2p::ReMutex::ReMutex(bool)                       build/obj/Middleware.o
r2p::ReMutex::acquire()                           build/obj/Middleware.o
r2p::ReMutex::acquire_unsafe()                    build/obj/Middleware.o
r2p::ReMutex::initialize()                        build/obj/Middleware.o
r2p::ReMutex::release()                           build/obj/Middleware.o
r2p::ReMutex::release_unsafe()                    build/obj/Middleware.o
r2p::ReMutex::~ReMutex()                          build/obj/main.o
r2p::ReMutex::~ReMutex()                          build/obj/main.o
r2p::RemotePublisher* r2p::StaticList<r2p::RemotePublisher>::find_first<bool (*)(r2p::BasePublisher const&, char const*), char>(bool (*)(r2p::BasePublisher const&, char const*), char const*) const build/obj/Transport.o
                                                  build/obj/DebugTransport.o
r2p::RemotePublisher::RemotePublisher(r2p::Transport&) build/obj/RemotePublisher.o
                                                  build/obj/RTCANPublisher.o
                                                  build/obj/DebugPublisher.o
r2p::RemotePublisher::RemotePublisher(r2p::Transport&) build/obj/RemotePublisher.o
r2p::RemotePublisher::~RemotePublisher()          build/obj/RemotePublisher.o
r2p::RemotePublisher::~RemotePublisher()          build/obj/RemotePublisher.o
                                                  build/obj/RTCANPublisher.o
                                                  build/obj/DebugPublisher.o
r2p::RemotePublisher::~RemotePublisher()          build/obj/RemotePublisher.o
r2p::RemoteSubscriber* r2p::StaticList<r2p::RemoteSubscriber>::find_first<bool (*)(r2p::BaseSubscriber const&, char const*), char>(bool (*)(r2p::BaseSubscriber const&, char const*), char const*) const build/obj/Transport.o
r2p::RemoteSubscriber::RemoteSubscriber(r2p::Transport&) build/obj/RemoteSubscriber.o
r2p::RemoteSubscriber::RemoteSubscriber(r2p::Transport&) build/obj/RemoteSubscriber.o
                                                  build/obj/RTCANSubscriber.o
                                                  build/obj/DebugSubscriber.o
r2p::RemoteSubscriber::get_transport() const      build/obj/Topic.o
                                                  build/obj/RTCANSubscriber.o
                                                  build/obj/RTCANTransport.o
                                                  build/obj/DebugSubscriber.o
r2p::RemoteSubscriber::~RemoteSubscriber()        build/obj/RemoteSubscriber.o
                                                  build/obj/RTCANSubscriber.o
                                                  build/obj/DebugSubscriber.o
r2p::RemoteSubscriber::~RemoteSubscriber()        build/obj/RemoteSubscriber.o
r2p::RemoteSubscriber::~RemoteSubscriber()        build/obj/RemoteSubscriber.o
r2p::ScopedLock<r2p::Mutex>::ScopedLock(r2p::Mutex&) build/obj/Transport.o
r2p::ScopedLock<r2p::Mutex>::ScopedLock(r2p::Mutex&) build/obj/Transport.o
r2p::ScopedLock<r2p::Mutex>::~ScopedLock()        build/obj/Transport.o
r2p::ScopedLock<r2p::Mutex>::~ScopedLock()        build/obj/Transport.o
r2p::Semaphore::Semaphore(bool, long)             build/obj/DebugTransport.o
r2p::Semaphore::Semaphore(bool, long)             build/obj/DebugTransport.o
r2p::Semaphore::initialize(long)                  build/obj/DebugTransport.o
r2p::Semaphore::signal_unsafe()                   build/obj/DebugTransport.o
                                                  build/obj/DebugSubscriber.o
r2p::Semaphore::wait_unsafe()                     build/obj/DebugTransport.o
r2p::Semaphore::~Semaphore()                      build/obj/DebugTransport.o
r2p::Semaphore::~Semaphore()                      build/obj/DebugTransport.o
r2p::Semaphore_::Semaphore_(bool, long)           build/obj/DebugTransport.o
r2p::Semaphore_::Semaphore_(bool, long)           build/obj/DebugTransport.o
r2p::Semaphore_::initialize(long)                 build/obj/DebugTransport.o
r2p::Semaphore_::signal_unsafe()                  build/obj/DebugTransport.o
                                                  build/obj/DebugSubscriber.o
r2p::Semaphore_::wait_unsafe()                    build/obj/DebugTransport.o
r2p::Semaphore_::~Semaphore_()                    build/obj/DebugTransport.o
r2p::Semaphore_::~Semaphore_()                    build/obj/DebugTransport.o
r2p::SimplePool_::SimplePool_()                   build/obj/SimplePool_.o
r2p::SimplePool_::SimplePool_()                   build/obj/SimplePool_.o
r2p::SimplePool_::SimplePool_(void*, unsigned int, unsigned int) build/obj/SimplePool_.o
r2p::SimplePool_::SimplePool_(void*, unsigned int, unsigned int) build/obj/SimplePool_.o
r2p::SimplePool_::alloc()                         build/obj/SimplePool_.o
r2p::SimplePool_::alloc_unsafe()                  build/obj/SimplePool_.o
r2p::SimplePool_::free(void*)                     build/obj/SimplePool_.o
r2p::SimplePool_::free_unsafe(void*)              build/obj/SimplePool_.o
r2p::SimplePool_::grow(void*, unsigned int, unsigned int) build/obj/SimplePool_.o
r2p::SpinEvent::SpinEvent(r2p::Thread*)           build/obj/Node.o
r2p::SpinEvent::SpinEvent(r2p::Thread*)           build/obj/Node.o
r2p::SpinEvent::get_thread() const                build/obj/LocalSubscriber.o
                                                  build/obj/main.o
                                                  build/obj/led.o
                                                  build/obj/Middleware.o
r2p::SpinEvent::set_thread(r2p::Thread*)          build/obj/Middleware.o
r2p::SpinEvent::signal(unsigned int)              build/obj/Middleware.o
r2p::SpinEvent::signal_unsafe(unsigned int)       build/obj/LocalSubscriber.o
                                                  build/obj/main.o
                                                  build/obj/led.o
                                                  build/obj/Middleware.o
r2p::SpinEvent::wait(r2p::Time const&)            build/obj/Node.o
r2p::SpinEvent::~SpinEvent()                      build/obj/Node.o
r2p::SpinEvent::~SpinEvent()                      build/obj/Node.o
r2p::SpinEvent_::SpinEvent_(r2p::Thread*)         build/obj/Node.o
r2p::SpinEvent_::SpinEvent_(r2p::Thread*)         build/obj/Node.o
r2p::SpinEvent_::get_thread() const               build/obj/LocalSubscriber.o
                                                  build/obj/main.o
                                                  build/obj/led.o
                                                  build/obj/Middleware.o
r2p::SpinEvent_::set_thread(r2p::Thread*)         build/obj/Middleware.o
r2p::SpinEvent_::signal(unsigned int)             build/obj/Middleware.o
r2p::SpinEvent_::signal_unsafe(unsigned int)      build/obj/LocalSubscriber.o
                                                  build/obj/main.o
                                                  build/obj/led.o
                                                  build/obj/Middleware.o
r2p::SpinEvent_::wait(r2p::Time const&)           build/obj/Node.o
r2p::StaticList<r2p::LocalPublisher>::ConstIterator::ConstIterator() build/obj/Middleware.o
r2p::StaticList<r2p::LocalPublisher>::ConstIterator::ConstIterator() build/obj/Middleware.o
r2p::StaticList<r2p::LocalPublisher>::ConstIterator::ConstIterator(r2p::StaticList<r2p::LocalPublisher>::ConstLink const*) build/obj/Middleware.o
r2p::StaticList<r2p::LocalPublisher>::ConstIterator::ConstIterator(r2p::StaticList<r2p::LocalPublisher>::ConstLink const*) build/obj/Middleware.o
r2p::StaticList<r2p::LocalPublisher>::ConstIterator::is_valid() const build/obj/Middleware.o
r2p::StaticList<r2p::LocalPublisher>::ConstIterator::operator++() build/obj/Middleware.o
r2p::StaticList<r2p::LocalPublisher>::ConstIterator::operator->() const build/obj/Middleware.o
r2p::StaticList<r2p::LocalPublisher>::ConstIterator::operator=(r2p::StaticList<r2p::LocalPublisher>::ConstIterator const&) build/obj/Middleware.o
r2p::StaticList<r2p::LocalPublisher>::Link::Link(r2p::LocalPublisher&) build/obj/LocalPublisher.o
r2p::StaticList<r2p::LocalPublisher>::Link::Link(r2p::LocalPublisher&) build/obj/LocalPublisher.o
r2p::StaticList<r2p::LocalPublisher>::StaticList() build/obj/Node.o
r2p::StaticList<r2p::LocalPublisher>::StaticList() build/obj/Node.o
r2p::StaticList<r2p::LocalPublisher>::begin() const build/obj/Middleware.o
r2p::StaticList<r2p::LocalPublisher>::get_head_unsafe() const build/obj/Middleware.o
r2p::StaticList<r2p::LocalPublisher>::is_empty_unsafe() const build/obj/Node.o
r2p::StaticList<r2p::LocalPublisher>::link(r2p::StaticList<r2p::LocalPublisher>::Link&) build/obj/Node.o
r2p::StaticList<r2p::LocalPublisher>::link_tail_unsafe(r2p::StaticList<r2p::LocalPublisher>::Link&) build/obj/Node.o
r2p::StaticList<r2p::LocalPublisher>::restart(r2p::StaticList<r2p::LocalPublisher>::ConstIterator&) const build/obj/Middleware.o
r2p::StaticList<r2p::LocalPublisher>::unlink_unsafe(r2p::StaticList<r2p::LocalPublisher>::Link&) build/obj/Node.o
r2p::StaticList<r2p::LocalPublisher>::~StaticList() build/obj/Node.o
r2p::StaticList<r2p::LocalPublisher>::~StaticList() build/obj/Node.o
r2p::StaticList<r2p::LocalSubscriber>::ConstIterator::ConstIterator() build/obj/Middleware.o
r2p::StaticList<r2p::LocalSubscriber>::ConstIterator::ConstIterator() build/obj/Middleware.o
r2p::StaticList<r2p::LocalSubscriber>::ConstIterator::ConstIterator(r2p::StaticList<r2p::LocalSubscriber>::ConstLink const*) build/obj/Middleware.o
r2p::StaticList<r2p::LocalSubscriber>::ConstIterator::ConstIterator(r2p::StaticList<r2p::LocalSubscriber>::ConstLink const*) build/obj/Middleware.o
r2p::StaticList<r2p::LocalSubscriber>::ConstIterator::is_valid() const build/obj/Middleware.o
r2p::StaticList<r2p::LocalSubscriber>::ConstIterator::operator++() build/obj/Middleware.o
r2p::StaticList<r2p::LocalSubscriber>::ConstIterator::operator->() const build/obj/Middleware.o
r2p::StaticList<r2p::LocalSubscriber>::ConstIterator::operator=(r2p::StaticList<r2p::LocalSubscriber>::ConstIterator const&) build/obj/Middleware.o
r2p::StaticList<r2p::LocalSubscriber>::Iterator::Iterator(r2p::StaticList<r2p::LocalSubscriber>::Link const*) build/obj/Node.o
                                                  build/obj/Topic.o
r2p::StaticList<r2p::LocalSubscriber>::Iterator::Iterator(r2p::StaticList<r2p::LocalSubscriber>::Link const*) build/obj/Node.o
                                                  build/obj/Topic.o
r2p::StaticList<r2p::LocalSubscriber>::Iterator::operator!=(r2p::StaticList<r2p::LocalSubscriber>::Iterator const&) const build/obj/Node.o
                                                  build/obj/Topic.o
r2p::StaticList<r2p::LocalSubscriber>::Iterator::operator++() build/obj/Node.o
                                                  build/obj/Topic.o
r2p::StaticList<r2p::LocalSubscriber>::Iterator::operator->() const build/obj/Node.o
                                                  build/obj/Topic.o
r2p::StaticList<r2p::LocalSubscriber>::IteratorUnsafe::IteratorUnsafe(r2p::StaticList<r2p::LocalSubscriber>::Link const*) build/obj/Topic.o
r2p::StaticList<r2p::LocalSubscriber>::IteratorUnsafe::IteratorUnsafe(r2p::StaticList<r2p::LocalSubscriber>::Link const*) build/obj/Topic.o
r2p::StaticList<r2p::LocalSubscriber>::IteratorUnsafe::operator!=(r2p::StaticList<r2p::LocalSubscriber>::IteratorUnsafe const&) const build/obj/Topic.o
r2p::StaticList<r2p::LocalSubscriber>::IteratorUnsafe::operator++() build/obj/Topic.o
r2p::StaticList<r2p::LocalSubscriber>::IteratorUnsafe::operator->() const build/obj/Topic.o
r2p::StaticList<r2p::LocalSubscriber>::Link::Link(r2p::LocalSubscriber&) build/obj/LocalSubscriber.o
r2p::StaticList<r2p::LocalSubscriber>::Link::Link(r2p::LocalSubscriber&) build/obj/LocalSubscriber.o
r2p::StaticList<r2p::LocalSubscriber>::StaticList() build/obj/Node.o
                                                  build/obj/Topic.o
r2p::StaticList<r2p::LocalSubscriber>::StaticList() build/obj/Node.o
                                                  build/obj/Topic.o
r2p::StaticList<r2p::LocalSubscriber>::begin()    build/obj/Node.o
                                                  build/obj/Topic.o
r2p::StaticList<r2p::LocalSubscriber>::begin() const build/obj/Middleware.o
r2p::StaticList<r2p::LocalSubscriber>::begin_unsafe() build/obj/Topic.o
r2p::StaticList<r2p::LocalSubscriber>::count() const build/obj/Node.o
r2p::StaticList<r2p::LocalSubscriber>::end()      build/obj/Node.o
                                                  build/obj/Topic.o
r2p::StaticList<r2p::LocalSubscriber>::end_unsafe() build/obj/Topic.o
r2p::StaticList<r2p::LocalSubscriber>::get_head() const build/obj/Node.o
                                                  build/obj/Topic.o
r2p::StaticList<r2p::LocalSubscriber>::get_head_unsafe() const build/obj/Middleware.o
                                                  build/obj/Topic.o
                                                  build/obj/Node.o
r2p::StaticList<r2p::LocalSubscriber>::is_empty_unsafe() const build/obj/Middleware.o
                                                  build/obj/Topic.o
                                                  build/obj/Node.o
r2p::StaticList<r2p::LocalSubscriber>::link(r2p::StaticList<r2p::LocalSubscriber>::Link&) build/obj/Node.o
r2p::StaticList<r2p::LocalSubscriber>::link_tail_unsafe(r2p::StaticList<r2p::LocalSubscriber>::Link&) build/obj/Node.o
r2p::StaticList<r2p::LocalSubscriber>::link_unsafe(r2p::StaticList<r2p::LocalSubscriber>::Link&) build/obj/Topic.o
r2p::StaticList<r2p::LocalSubscriber>::restart(r2p::StaticList<r2p::LocalSubscriber>::ConstIterator&) const build/obj/Middleware.o
r2p::StaticList<r2p::LocalSubscriber>::unlink(r2p::StaticList<r2p::LocalSubscriber>::Link&) build/obj/Node.o
r2p::StaticList<r2p::LocalSubscriber>::unlink_unsafe(r2p::StaticList<r2p::LocalSubscriber>::Link&) build/obj/Node.o
                                                  build/obj/Topic.o
r2p::StaticList<r2p::LocalSubscriber>::~StaticList() build/obj/Node.o
                                                  build/obj/main.o
r2p::StaticList<r2p::LocalSubscriber>::~StaticList() build/obj/Node.o
                                                  build/obj/main.o
r2p::StaticList<r2p::Node>::ConstIterator::ConstIterator() build/obj/Middleware.o
r2p::StaticList<r2p::Node>::ConstIterator::ConstIterator() build/obj/Middleware.o
r2p::StaticList<r2p::Node>::ConstIterator::ConstIterator(r2p::StaticList<r2p::Node>::ConstLink const*) build/obj/Middleware.o
r2p::StaticList<r2p::Node>::ConstIterator::ConstIterator(r2p::StaticList<r2p::Node>::ConstLink const*) build/obj/Middleware.o
r2p::StaticList<r2p::Node>::ConstIterator::is_valid() const build/obj/Middleware.o
r2p::StaticList<r2p::Node>::ConstIterator::operator*() const build/obj/Middleware.o
r2p::StaticList<r2p::Node>::ConstIterator::operator++() build/obj/Middleware.o
r2p::StaticList<r2p::Node>::ConstIterator::operator->() const build/obj/Middleware.o
r2p::StaticList<r2p::Node>::ConstIterator::operator=(r2p::StaticList<r2p::Node>::ConstIterator const&) build/obj/Middleware.o
r2p::StaticList<r2p::Node>::Iterator::Iterator(r2p::StaticList<r2p::Node>::Link const*) build/obj/Middleware.o
r2p::StaticList<r2p::Node>::Iterator::Iterator(r2p::StaticList<r2p::Node>::Link const*) build/obj/Middleware.o
r2p::StaticList<r2p::Node>::Iterator::operator!=(r2p::StaticList<r2p::Node>::Iterator const&) const build/obj/Middleware.o
r2p::StaticList<r2p::Node>::Iterator::operator++() build/obj/Middleware.o
r2p::StaticList<r2p::Node>::Iterator::operator->() const build/obj/Middleware.o
r2p::StaticList<r2p::Node>::Link::Link(r2p::Node&) build/obj/Node.o
r2p::StaticList<r2p::Node>::Link::Link(r2p::Node&) build/obj/Node.o
r2p::StaticList<r2p::Node>::StaticList()          build/obj/Middleware.o
r2p::StaticList<r2p::Node>::StaticList()          build/obj/Middleware.o
r2p::StaticList<r2p::Node>::begin()               build/obj/Middleware.o
r2p::StaticList<r2p::Node>::begin() const         build/obj/Middleware.o
r2p::StaticList<r2p::Node>::contains_unsafe(r2p::Node const&) const build/obj/Middleware.o
r2p::StaticList<r2p::Node>::end()                 build/obj/Middleware.o
r2p::StaticList<r2p::Node>::find_first(bool (*)(r2p::Node const&, void const*), void const*) const build/obj/Middleware.o
r2p::StaticList<r2p::Node>::get_head() const      build/obj/Middleware.o
r2p::StaticList<r2p::Node>::get_head_unsafe() const build/obj/Middleware.o
r2p::StaticList<r2p::Node>::link_unsafe(r2p::StaticList<r2p::Node>::Link&) build/obj/Middleware.o
r2p::StaticList<r2p::Node>::restart(r2p::StaticList<r2p::Node>::ConstIterator&) const build/obj/Middleware.o
r2p::StaticList<r2p::Node>::unlink_unsafe(r2p::StaticList<r2p::Node>::Link&) build/obj/Middleware.o
r2p::StaticList<r2p::Node>::~StaticList()         build/obj/main.o
r2p::StaticList<r2p::Node>::~StaticList()         build/obj/main.o
r2p::StaticList<r2p::RemotePublisher>::Link::Link(r2p::RemotePublisher&) build/obj/RemotePublisher.o
r2p::StaticList<r2p::RemotePublisher>::Link::Link(r2p::RemotePublisher&) build/obj/RemotePublisher.o
r2p::StaticList<r2p::RemotePublisher>::StaticList() build/obj/Transport.o
r2p::StaticList<r2p::RemotePublisher>::StaticList() build/obj/Transport.o
r2p::StaticList<r2p::RemotePublisher>::find_first(bool (*)(r2p::RemotePublisher const&, void const*), void const*) const build/obj/Transport.o
                                                  build/obj/DebugTransport.o
r2p::StaticList<r2p::RemotePublisher>::is_empty_unsafe() const build/obj/Transport.o
r2p::StaticList<r2p::RemotePublisher>::link(r2p::StaticList<r2p::RemotePublisher>::Link&) build/obj/Transport.o
r2p::StaticList<r2p::RemotePublisher>::link_tail_unsafe(r2p::StaticList<r2p::RemotePublisher>::Link&) build/obj/Transport.o
r2p::StaticList<r2p::RemotePublisher>::unlink_unsafe(r2p::StaticList<r2p::RemotePublisher>::Link&) build/obj/Transport.o
r2p::StaticList<r2p::RemotePublisher>::~StaticList() build/obj/Transport.o
r2p::StaticList<r2p::RemotePublisher>::~StaticList() build/obj/Transport.o
r2p::StaticList<r2p::RemoteSubscriber>::Iterator::Iterator(r2p::StaticList<r2p::RemoteSubscriber>::Link const*) build/obj/Topic.o
r2p::StaticList<r2p::RemoteSubscriber>::Iterator::Iterator(r2p::StaticList<r2p::RemoteSubscriber>::Link const*) build/obj/Topic.o
r2p::StaticList<r2p::RemoteSubscriber>::Iterator::operator!=(r2p::StaticList<r2p::RemoteSubscriber>::Iterator const&) const build/obj/Topic.o
r2p::StaticList<r2p::RemoteSubscriber>::Iterator::operator++() build/obj/Topic.o
r2p::StaticList<r2p::RemoteSubscriber>::Iterator::operator->() const build/obj/Topic.o
r2p::StaticList<r2p::RemoteSubscriber>::IteratorUnsafe::IteratorUnsafe(r2p::StaticList<r2p::RemoteSubscriber>::Link const*) build/obj/Topic.o
r2p::StaticList<r2p::RemoteSubscriber>::IteratorUnsafe::IteratorUnsafe(r2p::StaticList<r2p::RemoteSubscriber>::Link const*) build/obj/Topic.o
r2p::StaticList<r2p::RemoteSubscriber>::IteratorUnsafe::operator!=(r2p::StaticList<r2p::RemoteSubscriber>::IteratorUnsafe const&) const build/obj/Topic.o
r2p::StaticList<r2p::RemoteSubscriber>::IteratorUnsafe::operator++() build/obj/Topic.o
r2p::StaticList<r2p::RemoteSubscriber>::IteratorUnsafe::operator->() const build/obj/Topic.o
r2p::StaticList<r2p::RemoteSubscriber>::Link::Link(r2p::RemoteSubscriber&) build/obj/RemoteSubscriber.o
r2p::StaticList<r2p::RemoteSubscriber>::Link::Link(r2p::RemoteSubscriber&) build/obj/RemoteSubscriber.o
r2p::StaticList<r2p::RemoteSubscriber>::StaticList() build/obj/Topic.o
                                                  build/obj/Transport.o
r2p::StaticList<r2p::RemoteSubscriber>::StaticList() build/obj/Topic.o
                                                  build/obj/Transport.o
r2p::StaticList<r2p::RemoteSubscriber>::begin()   build/obj/Topic.o
r2p::StaticList<r2p::RemoteSubscriber>::begin_unsafe() build/obj/Topic.o
r2p::StaticList<r2p::RemoteSubscriber>::end()     build/obj/Topic.o
r2p::StaticList<r2p::RemoteSubscriber>::end_unsafe() build/obj/Topic.o
r2p::StaticList<r2p::RemoteSubscriber>::find_first(bool (*)(r2p::RemoteSubscriber const&, void const*), void const*) const build/obj/Transport.o
r2p::StaticList<r2p::RemoteSubscriber>::get_head() const build/obj/Topic.o
r2p::StaticList<r2p::RemoteSubscriber>::get_head_unsafe() const build/obj/Topic.o
r2p::StaticList<r2p::RemoteSubscriber>::is_empty_unsafe() const build/obj/Topic.o
                                                  build/obj/Transport.o
r2p::StaticList<r2p::RemoteSubscriber>::link(r2p::StaticList<r2p::RemoteSubscriber>::Link&) build/obj/Transport.o
r2p::StaticList<r2p::RemoteSubscriber>::link_tail_unsafe(r2p::StaticList<r2p::RemoteSubscriber>::Link&) build/obj/Transport.o
r2p::StaticList<r2p::RemoteSubscriber>::link_unsafe(r2p::StaticList<r2p::RemoteSubscriber>::Link&) build/obj/Topic.o
r2p::StaticList<r2p::RemoteSubscriber>::unlink_unsafe(r2p::StaticList<r2p::RemoteSubscriber>::Link&) build/obj/Topic.o
                                                  build/obj/Transport.o
r2p::StaticList<r2p::RemoteSubscriber>::~StaticList() build/obj/Transport.o
                                                  build/obj/main.o
r2p::StaticList<r2p::RemoteSubscriber>::~StaticList() build/obj/Transport.o
                                                  build/obj/main.o
r2p::StaticList<r2p::Topic>::Link::Link(r2p::Topic&) build/obj/Topic.o
r2p::StaticList<r2p::Topic>::Link::Link(r2p::Topic&) build/obj/Topic.o
r2p::StaticList<r2p::Topic>::StaticList()         build/obj/Middleware.o
r2p::StaticList<r2p::Topic>::StaticList()         build/obj/Middleware.o
r2p::StaticList<r2p::Topic>::find_first(bool (*)(r2p::Topic const&, void const*), void const*) const build/obj/Middleware.o
r2p::StaticList<r2p::Topic>::index_of(r2p::Topic const&) const build/obj/RTCANTransport.o
r2p::StaticList<r2p::Topic>::is_empty_unsafe() const build/obj/Middleware.o
r2p::StaticList<r2p::Topic>::link(r2p::StaticList<r2p::Topic>::Link&) build/obj/Middleware.o
r2p::StaticList<r2p::Topic>::link_tail_unsafe(r2p::StaticList<r2p::Topic>::Link&) build/obj/Middleware.o
r2p::StaticList<r2p::Topic>::unlink_unsafe(r2p::StaticList<r2p::Topic>::Link&) build/obj/Middleware.o
r2p::StaticList<r2p::Topic>::~StaticList()        build/obj/main.o
r2p::StaticList<r2p::Topic>::~StaticList()        build/obj/main.o
r2p::StaticList<r2p::Transport>::Iterator::Iterator(r2p::StaticList<r2p::Transport>::Link const*) build/obj/Middleware.o
r2p::StaticList<r2p::Transport>::Iterator::Iterator(r2p::StaticList<r2p::Transport>::Link const*) build/obj/Middleware.o
r2p::StaticList<r2p::Transport>::Iterator::operator!=(r2p::StaticList<r2p::Transport>::Iterator const&) const build/obj/Middleware.o
r2p::StaticList<r2p::Transport>::Iterator::operator++() build/obj/Middleware.o
r2p::StaticList<r2p::Transport>::Iterator::operator->() const build/obj/Middleware.o
r2p::StaticList<r2p::Transport>::Link::Link(r2p::Transport&) build/obj/Transport.o
r2p::StaticList<r2p::Transport>::Link::Link(r2p::Transport&) build/obj/Transport.o
r2p::StaticList<r2p::Transport>::StaticList()     build/obj/Middleware.o
r2p::StaticList<r2p::Transport>::StaticList()     build/obj/Middleware.o
r2p::StaticList<r2p::Transport>::begin()          build/obj/Middleware.o
r2p::StaticList<r2p::Transport>::count() const    build/obj/Middleware.o
r2p::StaticList<r2p::Transport>::end()            build/obj/Middleware.o
r2p::StaticList<r2p::Transport>::get_head() const build/obj/Middleware.o
r2p::StaticList<r2p::Transport>::get_head_unsafe() const build/obj/Middleware.o
r2p::StaticList<r2p::Transport>::is_empty_unsafe() const build/obj/Middleware.o
r2p::StaticList<r2p::Transport>::link(r2p::StaticList<r2p::Transport>::Link&) build/obj/Middleware.o
r2p::StaticList<r2p::Transport>::link_tail_unsafe(r2p::StaticList<r2p::Transport>::Link&) build/obj/Middleware.o
r2p::StaticList<r2p::Transport>::unlink_unsafe(r2p::StaticList<r2p::Transport>::Link&) build/obj/Middleware.o
r2p::StaticList<r2p::Transport>::~StaticList()    build/obj/main.o
r2p::StaticList<r2p::Transport>::~StaticList()    build/obj/main.o
r2p::StaticList_::StaticList_()                   build/obj/StaticList_.o
r2p::StaticList_::StaticList_()                   build/obj/StaticList_.o
r2p::StaticList_::contains(void const*) const     build/obj/StaticList_.o
r2p::StaticList_::contains_unsafe(void const*) const build/obj/StaticList_.o
r2p::StaticList_::count() const                   build/obj/StaticList_.o
r2p::StaticList_::count_unsafe() const            build/obj/StaticList_.o
r2p::StaticList_::find_first(bool (*)(void const*)) const build/obj/StaticList_.o
r2p::StaticList_::find_first(bool (*)(void const*, void const*), void const*) const build/obj/StaticList_.o
r2p::StaticList_::find_first_unsafe(bool (*)(void const*)) const build/obj/StaticList_.o
r2p::StaticList_::find_first_unsafe(bool (*)(void const*, void const*), void const*) const build/obj/StaticList_.o
r2p::StaticList_::get_head() const                build/obj/StaticList_.o
r2p::StaticList_::get_head_unsafe() const         build/obj/StaticList_.o
r2p::StaticList_::index_of(void const*) const     build/obj/StaticList_.o
r2p::StaticList_::index_of_unsafe(void const*) const build/obj/StaticList_.o
r2p::StaticList_::is_empty() const                build/obj/StaticList_.o
r2p::StaticList_::is_empty_unsafe() const         build/obj/StaticList_.o
r2p::StaticList_::link(r2p::StaticList_::Link&)   build/obj/StaticList_.o
r2p::StaticList_::link_unsafe(r2p::StaticList_::Link&) build/obj/StaticList_.o
r2p::StaticList_::unlink(r2p::StaticList_::Link&) build/obj/StaticList_.o
r2p::StaticList_::unlink_unsafe(r2p::StaticList_::Link&) build/obj/StaticList_.o
r2p::StaticQueue<r2p::BaseSubscriber>::Link::Link(r2p::BaseSubscriber&) build/obj/DebugSubscriber.o
r2p::StaticQueue<r2p::BaseSubscriber>::Link::Link(r2p::BaseSubscriber&) build/obj/DebugSubscriber.o
r2p::StaticQueue<r2p::BaseSubscriber>::StaticQueue() build/obj/BaseSubscriberQueue.o
r2p::StaticQueue<r2p::BaseSubscriber>::StaticQueue() build/obj/BaseSubscriberQueue.o
r2p::StaticQueue<r2p::BaseSubscriber>::peek_unsafe(r2p::StaticQueue<r2p::BaseSubscriber>::Link const*&) const build/obj/DebugTransport.o
r2p::StaticQueue<r2p::BaseSubscriber>::post_unsafe(r2p::StaticQueue<r2p::BaseSubscriber>::Link&) build/obj/DebugTransport.o
                                                  build/obj/DebugSubscriber.o
r2p::StaticQueue<r2p::BaseSubscriber>::skip_unsafe() build/obj/DebugTransport.o
r2p::StaticQueue<r2p::BaseSubscriber>::~StaticQueue() build/obj/DebugTransport.o
                                                  build/obj/RTCANTransport.o
r2p::StaticQueue<r2p::BaseSubscriber>::~StaticQueue() build/obj/DebugTransport.o
                                                  build/obj/RTCANTransport.o
r2p::StaticQueue_::StaticQueue_()                 build/obj/StaticQueue_.o
                                                  build/obj/BaseSubscriberQueue.o
r2p::StaticQueue_::StaticQueue_()                 build/obj/StaticQueue_.o
r2p::StaticQueue_::fetch(r2p::StaticQueue_::Link&) build/obj/StaticQueue_.o
r2p::StaticQueue_::fetch_unsafe(r2p::StaticQueue_::Link&) build/obj/StaticQueue_.o
r2p::StaticQueue_::get_head() const               build/obj/StaticQueue_.o
r2p::StaticQueue_::get_head_unsafe() const        build/obj/StaticQueue_.o
r2p::StaticQueue_::get_tail() const               build/obj/StaticQueue_.o
r2p::StaticQueue_::get_tail_unsafe() const        build/obj/StaticQueue_.o
r2p::StaticQueue_::is_empty() const               build/obj/StaticQueue_.o
r2p::StaticQueue_::is_empty_unsafe() const        build/obj/StaticQueue_.o
r2p::StaticQueue_::peek(r2p::StaticQueue_::Link const*&) const build/obj/StaticQueue_.o
r2p::StaticQueue_::peek_unsafe(r2p::StaticQueue_::Link const*&) const build/obj/StaticQueue_.o
                                                  build/obj/DebugTransport.o
r2p::StaticQueue_::post(r2p::StaticQueue_::Link&) build/obj/StaticQueue_.o
r2p::StaticQueue_::post_unsafe(r2p::StaticQueue_::Link&) build/obj/StaticQueue_.o
                                                  build/obj/DebugSubscriber.o
                                                  build/obj/DebugTransport.o
r2p::StaticQueue_::skip()                         build/obj/StaticQueue_.o
r2p::StaticQueue_::skip_unsafe()                  build/obj/StaticQueue_.o
                                                  build/obj/DebugTransport.o
r2p::StaticQueue_::~StaticQueue_()                build/obj/DebugTransport.o
                                                  build/obj/RTCANTransport.o
r2p::StaticQueue_::~StaticQueue_()                build/obj/DebugTransport.o
                                                  build/obj/RTCANTransport.o
r2p::Subscriber<r2p::LedMsg, 5u>::Subscriber(bool (*)(r2p::LedMsg const&)) build/obj/led.o
r2p::Subscriber<r2p::LedMsg, 5u>::Subscriber(bool (*)(r2p::LedMsg const&)) build/obj/led.o
r2p::Subscriber<r2p::LedMsg, 5u>::~Subscriber()   build/obj/led.o
r2p::Subscriber<r2p::LedMsg, 5u>::~Subscriber()   build/obj/led.o
r2p::Subscriber<r2p::LedMsg, 5u>::~Subscriber()   build/obj/led.o
r2p::SubscriberExtBuf<r2p::BootMsg>::SubscriberExtBuf(r2p::BootMsg**, unsigned int, bool (*)(r2p::BootMsg const&)) build/obj/Middleware.o
r2p::SubscriberExtBuf<r2p::BootMsg>::SubscriberExtBuf(r2p::BootMsg**, unsigned int, bool (*)(r2p::BootMsg const&)) build/obj/Middleware.o
r2p::SubscriberExtBuf<r2p::BootMsg>::fetch(r2p::BootMsg*&) build/obj/Bootloader.o
r2p::SubscriberExtBuf<r2p::BootMsg>::release(r2p::BootMsg&) build/obj/Bootloader.o
r2p::SubscriberExtBuf<r2p::BootMsg>::~SubscriberExtBuf() build/obj/Middleware.o
r2p::SubscriberExtBuf<r2p::BootMsg>::~SubscriberExtBuf() build/obj/Middleware.o
r2p::SubscriberExtBuf<r2p::BootMsg>::~SubscriberExtBuf() build/obj/Middleware.o
r2p::SubscriberExtBuf<r2p::LedMsg>::SubscriberExtBuf(r2p::LedMsg**, unsigned int, bool (*)(r2p::LedMsg const&)) build/obj/led.o
r2p::SubscriberExtBuf<r2p::LedMsg>::SubscriberExtBuf(r2p::LedMsg**, unsigned int, bool (*)(r2p::LedMsg const&)) build/obj/led.o
r2p::SubscriberExtBuf<r2p::LedMsg>::~SubscriberExtBuf() build/obj/led.o
r2p::SubscriberExtBuf<r2p::LedMsg>::~SubscriberExtBuf() build/obj/led.o
r2p::SubscriberExtBuf<r2p::LedMsg>::~SubscriberExtBuf() build/obj/led.o
r2p::SubscriberExtBuf<r2p::MgmtMsg>::SubscriberExtBuf(r2p::MgmtMsg**, unsigned int, bool (*)(r2p::MgmtMsg const&)) build/obj/Middleware.o
r2p::SubscriberExtBuf<r2p::MgmtMsg>::SubscriberExtBuf(r2p::MgmtMsg**, unsigned int, bool (*)(r2p::MgmtMsg const&)) build/obj/Middleware.o
r2p::SubscriberExtBuf<r2p::MgmtMsg>::fetch(r2p::MgmtMsg*&, r2p::Time&) build/obj/Middleware.o
r2p::SubscriberExtBuf<r2p::MgmtMsg>::release(r2p::MgmtMsg&) build/obj/Middleware.o
r2p::SubscriberExtBuf<r2p::MgmtMsg>::~SubscriberExtBuf() build/obj/Middleware.o
                                                  build/obj/main.o
r2p::SubscriberExtBuf<r2p::MgmtMsg>::~SubscriberExtBuf() build/obj/Middleware.o
                                                  build/obj/main.o
r2p::SubscriberExtBuf<r2p::MgmtMsg>::~SubscriberExtBuf() build/obj/Middleware.o
                                                  build/obj/main.o
r2p::SysLock::Scope::Scope()                      build/obj/Middleware.o
                                                  build/obj/Topic.o
r2p::SysLock::Scope::Scope()                      build/obj/Middleware.o
                                                  build/obj/Topic.o
r2p::SysLock::Scope::~Scope()                     build/obj/Middleware.o
                                                  build/obj/Topic.o
r2p::SysLock::Scope::~Scope()                     build/obj/Middleware.o
                                                  build/obj/Topic.o
r2p::SysLock::acquire()                           build/obj/SimplePool_.o
                                                  build/obj/main.o
                                                  build/obj/led.o
                                                  build/obj/RTCANSubscriber.o
                                                  build/obj/RTCANTransport.o
                                                  build/obj/DebugSubscriber.o
                                                  build/obj/DebugTransport.o
                                                  build/obj/Bootloader.o
                                                  build/obj/Transport.o
                                                  build/obj/Topic.o
                                                  build/obj/Node.o
                                                  build/obj/Middleware.o
                                                  build/obj/Message.o
                                                  build/obj/LocalSubscriber.o
                                                  build/obj/StaticQueue_.o
                                                  build/obj/StaticList_.o
r2p::SysLock::release()                           build/obj/SimplePool_.o
                                                  build/obj/main.o
                                                  build/obj/led.o
                                                  build/obj/RTCANSubscriber.o
                                                  build/obj/RTCANTransport.o
                                                  build/obj/DebugSubscriber.o
                                                  build/obj/DebugTransport.o
                                                  build/obj/Bootloader.o
                                                  build/obj/Transport.o
                                                  build/obj/Topic.o
                                                  build/obj/Node.o
                                                  build/obj/Middleware.o
                                                  build/obj/Message.o
                                                  build/obj/LocalSubscriber.o
                                                  build/obj/StaticQueue_.o
                                                  build/obj/StaticList_.o
r2p::SysLock_::acquire()                          build/obj/SimplePool_.o
                                                  build/obj/main.o
                                                  build/obj/led.o
                                                  build/obj/RTCANSubscriber.o
                                                  build/obj/RTCANTransport.o
                                                  build/obj/DebugSubscriber.o
                                                  build/obj/DebugTransport.o
                                                  build/obj/Bootloader.o
                                                  build/obj/Transport.o
                                                  build/obj/Topic.o
                                                  build/obj/Node.o
                                                  build/obj/Middleware.o
                                                  build/obj/Message.o
                                                  build/obj/LocalSubscriber.o
                                                  build/obj/StaticQueue_.o
                                                  build/obj/StaticList_.o
r2p::SysLock_::release()                          build/obj/SimplePool_.o
                                                  build/obj/main.o
                                                  build/obj/led.o
                                                  build/obj/RTCANSubscriber.o
                                                  build/obj/RTCANTransport.o
                                                  build/obj/DebugSubscriber.o
                                                  build/obj/DebugTransport.o
                                                  build/obj/Bootloader.o
                                                  build/obj/Transport.o
                                                  build/obj/Topic.o
                                                  build/obj/Node.o
                                                  build/obj/Middleware.o
                                                  build/obj/Message.o
                                                  build/obj/LocalSubscriber.o
                                                  build/obj/StaticQueue_.o
                                                  build/obj/StaticList_.o
r2p::Thread::create_heap(void*, unsigned int, unsigned long, long (*)(void*), void*, char const*) build/obj/Bootloader.o
                                                  build/obj/main.o
r2p::Thread::create_static(void*, unsigned int, unsigned long, long (*)(void*), void*, char const*) build/obj/Middleware.o
                                                  build/obj/DebugTransport.o
r2p::Thread::self()                               build/obj/Middleware.o
                                                  build/obj/Node.o
r2p::Thread::sleep(r2p::Time const&)              build/obj/Middleware.o
                                                  build/obj/main.o
                                                  build/obj/Bootloader.o
r2p::Thread_::create_heap(void*, unsigned int, unsigned long, long (*)(void*), void*, char const*) build/obj/Bootloader.o
                                                  build/obj/main.o
r2p::Thread_::create_static(void*, unsigned int, unsigned long, long (*)(void*), void*, char const*) build/obj/Middleware.o
                                                  build/obj/DebugTransport.o
r2p::Thread_::self()                              build/obj/Middleware.o
                                                  build/obj/Node.o
r2p::Thread_::sleep(r2p::Time const&)             build/obj/Middleware.o
                                                  build/obj/main.o
                                                  build/obj/Bootloader.o
r2p::Time::IMMEDIATE                              build/obj/Time.o
                                                  build/obj/Node.o
r2p::Time::INFINITE                               build/obj/Time.o
                                                  build/obj/main.o
                                                  build/obj/led.o
                                                  build/obj/Time_.o
                                                  build/obj/RTCANTransport.o
                                                  build/obj/DebugTransport.o
                                                  build/obj/Transport.o
                                                  build/obj/Topic.o
                                                  build/obj/Node.o
                                                  build/obj/Middleware.o
r2p::Time::INFINITEN                              build/obj/Time.o
                                                  build/obj/Time_.o
r2p::Time::Time()                                 build/obj/Middleware.o
                                                  build/obj/RTCANTransport.o
                                                  build/obj/DebugSubscriber.o
                                                  build/obj/DebugTransport.o
                                                  build/obj/Transport.o
                                                  build/obj/Node.o
r2p::Time::Time()                                 build/obj/Middleware.o
                                                  build/obj/RTCANTransport.o
                                                  build/obj/DebugSubscriber.o
                                                  build/obj/DebugTransport.o
                                                  build/obj/Transport.o
                                                  build/obj/Node.o
r2p::Time::Time(r2p::Time const&)                 build/obj/Middleware.o
                                                  build/obj/DebugSubscriber.o
                                                  build/obj/Topic.o
r2p::Time::Time(r2p::Time const&)                 build/obj/Middleware.o
                                                  build/obj/DebugSubscriber.o
                                                  build/obj/Topic.o
r2p::Time::Time<int>(int)                         build/obj/Time.o
r2p::Time::Time<int>(int)                         build/obj/Time.o
r2p::Time::Time<long>(long)                       build/obj/Middleware.o
                                                  build/obj/main.o
                                                  build/obj/led.o
                                                  build/obj/Time_.o
                                                  build/obj/DebugTransport.o
                                                  build/obj/Bootloader.o
r2p::Time::Time<long>(long)                       build/obj/Middleware.o
                                                  build/obj/main.o
                                                  build/obj/led.o
                                                  build/obj/Time_.o
                                                  build/obj/DebugTransport.o
                                                  build/obj/Bootloader.o
r2p::Time::ms(long)                               build/obj/Middleware.o
                                                  build/obj/main.o
                                                  build/obj/led.o
                                                  build/obj/Time_.o
                                                  build/obj/Bootloader.o
r2p::Time::now()                                  build/obj/Time_.o
                                                  build/obj/main.o
                                                  build/obj/led.o
                                                  build/obj/DebugTransport.o
                                                  build/obj/Bootloader.o
                                                  build/obj/Middleware.o
                                                  build/obj/LocalSubscriber.o
                                                  build/obj/BasePublisher.o
r2p::Time::operator=(r2p::Time const&)            build/obj/LocalSubscriber.o
                                                  build/obj/main.o
                                                  build/obj/led.o
                                                  build/obj/DebugSubscriber.o
                                                  build/obj/Topic.o
                                                  build/obj/Middleware.o
r2p::Time::to_ms_raw() const                      build/obj/Node.o
r2p::Time::to_s_raw() const                       build/obj/Middleware.o
                                                  build/obj/main.o
                                                  build/obj/Bootloader.o
r2p::Time::to_us_raw() const                      build/obj/Node.o
r2p::TimestampedMsgPtrQueue::Entry::Entry()       build/obj/Transport.o
                                                  build/obj/RTCANTransport.o
                                                  build/obj/DebugSubscriber.o
                                                  build/obj/DebugTransport.o
r2p::TimestampedMsgPtrQueue::Entry::Entry()       build/obj/Transport.o
                                                  build/obj/RTCANTransport.o
                                                  build/obj/DebugSubscriber.o
                                                  build/obj/DebugTransport.o
r2p::TimestampedMsgPtrQueue::Entry::Entry(r2p::Message*, r2p::Time const&) build/obj/DebugSubscriber.o
r2p::TimestampedMsgPtrQueue::Entry::Entry(r2p::Message*, r2p::Time const&) build/obj/DebugSubscriber.o
r2p::TimestampedMsgPtrQueue::Entry::Entry(r2p::TimestampedMsgPtrQueue::Entry const&) build/obj/DebugSubscriber.o
r2p::TimestampedMsgPtrQueue::Entry::Entry(r2p::TimestampedMsgPtrQueue::Entry const&) build/obj/DebugSubscriber.o
r2p::TimestampedMsgPtrQueue::Entry::operator=(r2p::TimestampedMsgPtrQueue::Entry const&) build/obj/DebugSubscriber.o
r2p::TimestampedMsgPtrQueue::TimestampedMsgPtrQueue(r2p::TimestampedMsgPtrQueue::Entry*, unsigned int) build/obj/TimestampedMsgPtrQueue.o
                                                  build/obj/DebugSubscriber.o
r2p::TimestampedMsgPtrQueue::TimestampedMsgPtrQueue(r2p::TimestampedMsgPtrQueue::Entry*, unsigned int) build/obj/TimestampedMsgPtrQueue.o
r2p::TimestampedMsgPtrQueue::fetch_unsafe(r2p::TimestampedMsgPtrQueue::Entry&) build/obj/DebugSubscriber.o
r2p::TimestampedMsgPtrQueue::get_count() const    build/obj/DebugSubscriber.o
r2p::TimestampedMsgPtrQueue::get_length() const   build/obj/DebugSubscriber.o
r2p::TimestampedMsgPtrQueue::post_unsafe(r2p::TimestampedMsgPtrQueue::Entry&) build/obj/DebugSubscriber.o
r2p::TimestampedMsgPtrQueue::~TimestampedMsgPtrQueue() build/obj/DebugSubscriber.o
r2p::TimestampedMsgPtrQueue::~TimestampedMsgPtrQueue() build/obj/DebugSubscriber.o
r2p::Topic* r2p::StaticList<r2p::Topic>::find_first<bool (*)(r2p::Topic const&, char const*), char>(bool (*)(r2p::Topic const&, char const*), char const*) const build/obj/Middleware.o
r2p::Topic::Topic(char const*, unsigned int, bool) build/obj/Topic.o
r2p::Topic::Topic(char const*, unsigned int, bool) build/obj/Topic.o
                                                  build/obj/Middleware.o
r2p::Topic::advertise(r2p::LocalPublisher&, r2p::Time const&) build/obj/Topic.o
                                                  build/obj/Middleware.o
r2p::Topic::advertise(r2p::RemotePublisher&, r2p::Time const&) build/obj/Topic.o
                                                  build/obj/Transport.o
                                                  build/obj/Middleware.o
r2p::Topic::alloc()                               build/obj/Topic.o
                                                  build/obj/RTCANTransport.o
r2p::Topic::alloc_unsafe()                        build/obj/Middleware.o
                                                  build/obj/main.o
                                                  build/obj/led.o
                                                  build/obj/RTCANTransport.o
                                                  build/obj/DebugTransport.o
                                                  build/obj/Bootloader.o
                                                  build/obj/Topic.o
r2p::Topic::compute_deadline() const              build/obj/Middleware.o
r2p::Topic::compute_deadline(r2p::Time const&) const build/obj/Middleware.o
r2p::Topic::compute_deadline_unsafe(r2p::Time const&) const build/obj/Middleware.o
r2p::Topic::extend_pool(r2p::Message*, unsigned int) build/obj/Middleware.o
                                                  build/obj/Transport.o
r2p::Topic::forward_copy(r2p::Message const&, r2p::Time const&) build/obj/Topic.o
                                                  build/obj/Middleware.o
r2p::Topic::forward_copy_unsafe(r2p::Message const&, r2p::Time const&) build/obj/Topic.o
r2p::Topic::free(r2p::Message&)                   build/obj/BasePublisher.o
                                                  build/obj/Topic.o
                                                  build/obj/BaseSubscriber.o
r2p::Topic::free_unsafe(r2p::Message&)            build/obj/BasePublisher.o
                                                  build/obj/Topic.o
                                                  build/obj/BaseSubscriber.o
r2p::Topic::get_max_queue_length() const          build/obj/Middleware.o
r2p::Topic::get_name() const                      build/obj/BaseSubscriber.o
                                                  build/obj/RTCANTransport.o
                                                  build/obj/DebugTransport.o
                                                  build/obj/Transport.o
                                                  build/obj/Middleware.o
r2p::Topic::get_payload_size() const              build/obj/Middleware.o
                                                  build/obj/RTCANTransport.o
                                                  build/obj/DebugTransport.o
r2p::Topic::get_publish_timeout() const           build/obj/DebugTransport.o
r2p::Topic::get_type_size() const                 build/obj/Topic.o
                                                  build/obj/Transport.o
r2p::Topic::has_local_publishers() const          build/obj/Middleware.o
r2p::Topic::has_local_subscribers() const         build/obj/Middleware.o
                                                  build/obj/Topic.o
r2p::Topic::has_name(r2p::Topic const&, char const*) build/obj/BaseSubscriber.o
                                                  build/obj/RTCANTransport.o
                                                  build/obj/DebugTransport.o
                                                  build/obj/Transport.o
                                                  build/obj/Middleware.o
r2p::Topic::has_remote_subscribers() const        build/obj/Topic.o
r2p::Topic::notify_locals(r2p::Message&, r2p::Time const&) build/obj/Topic.o
                                                  build/obj/DebugTransport.o
                                                  build/obj/BasePublisher.o
r2p::Topic::notify_locals_unsafe(r2p::Message&, r2p::Time const&) build/obj/Topic.o
                                                  build/obj/BasePublisher.o
r2p::Topic::notify_remotes(r2p::Message&, r2p::Time const&) build/obj/Topic.o
                                                  build/obj/Bootloader.o
                                                  build/obj/Middleware.o
                                                  build/obj/BasePublisher.o
r2p::Topic::notify_remotes_unsafe(r2p::Message&, r2p::Time const&) build/obj/Topic.o
                                                  build/obj/BasePublisher.o
r2p::Topic::patch_pubsub_msg(r2p::Message&, r2p::Transport&) const build/obj/Topic.o
r2p::Topic::subscribe(r2p::LocalSubscriber&, unsigned int) build/obj/Topic.o
                                                  build/obj/Middleware.o
r2p::Topic::subscribe(r2p::RemoteSubscriber&, unsigned int) build/obj/Topic.o
                                                  build/obj/Transport.o
                                                  build/obj/Middleware.o
r2p::Topic::~Topic()                              build/obj/main.o
r2p::Topic::~Topic()                              build/obj/main.o
r2p::Transport::Transport(char const*)            build/obj/Transport.o
r2p::Transport::Transport(char const*)            build/obj/Transport.o
                                                  build/obj/RTCANTransport.o
                                                  build/obj/DebugTransport.o
r2p::Transport::advertise(r2p::RemotePublisher&, char const*, r2p::Time const&, unsigned int) build/obj/Transport.o
                                                  build/obj/RTCANTransport.o
                                                  build/obj/DebugTransport.o
r2p::Transport::advertise_cb(r2p::Topic&, unsigned char const*) build/obj/Transport.o
                                                  build/obj/Middleware.o
r2p::Transport::fill_raw_params(r2p::Topic const&, unsigned char*) build/obj/Transport.o
                                                  build/obj/DebugTransport.o
r2p::Transport::subscribe(r2p::RemoteSubscriber&, char const*, r2p::Message*, unsigned int, unsigned int) build/obj/Transport.o
                                                  build/obj/RTCANTransport.o
                                                  build/obj/DebugTransport.o
r2p::Transport::subscribe_cb(r2p::Topic&, unsigned int, unsigned char*) build/obj/Transport.o
                                                  build/obj/Middleware.o
r2p::Transport::touch_publisher(r2p::Topic&, unsigned char const*) build/obj/Transport.o
r2p::Transport::touch_subscriber(r2p::Topic&, unsigned int, unsigned char*) build/obj/Transport.o
r2p::Transport::~Transport()                      build/obj/Transport.o
                                                  build/obj/RTCANTransport.o
                                                  build/obj/DebugTransport.o
r2p::Transport::~Transport()                      build/obj/Transport.o
r2p::Transport::~Transport()                      build/obj/Transport.o
r2p::Uncopyable::Uncopyable()                     build/obj/SimplePool_.o
                                                  build/obj/Flasher_.o
                                                  build/obj/RTCANTransport.o
                                                  build/obj/DebugTransport.o
                                                  build/obj/Bootloader.o
                                                  build/obj/Transport.o
                                                  build/obj/Topic.o
                                                  build/obj/TimestampedMsgPtrQueue.o
                                                  build/obj/Node.o
                                                  build/obj/Middleware.o
                                                  build/obj/MessagePtrQueue.o
                                                  build/obj/BaseSubscriberQueue.o
                                                  build/obj/BaseSubscriber.o
                                                  build/obj/BasePublisher.o
                                                  build/obj/StaticQueue_.o
                                                  build/obj/StaticList_.o
r2p::Uncopyable::Uncopyable()                     build/obj/SimplePool_.o
                                                  build/obj/Flasher_.o
                                                  build/obj/RTCANTransport.o
                                                  build/obj/DebugTransport.o
                                                  build/obj/Bootloader.o
                                                  build/obj/Transport.o
                                                  build/obj/Topic.o
                                                  build/obj/TimestampedMsgPtrQueue.o
                                                  build/obj/Node.o
                                                  build/obj/Middleware.o
                                                  build/obj/MessagePtrQueue.o
                                                  build/obj/BaseSubscriberQueue.o
                                                  build/obj/BaseSubscriber.o
                                                  build/obj/BasePublisher.o
                                                  build/obj/StaticQueue_.o
                                                  build/obj/StaticList_.o
r2p::Uncopyable::~Uncopyable()                    build/obj/BasePublisher.o
                                                  build/obj/main.o
                                                  build/obj/RTCANTransport.o
                                                  build/obj/DebugSubscriber.o
                                                  build/obj/DebugTransport.o
                                                  build/obj/Transport.o
                                                  build/obj/Topic.o
                                                  build/obj/Node.o
                                                  build/obj/Middleware.o
                                                  build/obj/LocalSubscriber.o
                                                  build/obj/BaseSubscriber.o
r2p::Uncopyable::~Uncopyable()                    build/obj/BasePublisher.o
                                                  build/obj/main.o
                                                  build/obj/RTCANTransport.o
                                                  build/obj/DebugSubscriber.o
                                                  build/obj/DebugTransport.o
                                                  build/obj/Transport.o
                                                  build/obj/Topic.o
                                                  build/obj/Node.o
                                                  build/obj/Middleware.o
                                                  build/obj/LocalSubscriber.o
                                                  build/obj/BaseSubscriber.o
r2p::callback(r2p::LedMsg const&)                 build/obj/led.o
r2p::check_bounds(void const*, unsigned int, void const*, unsigned int) build/obj/Bootloader.o
                                                  build/obj/Flasher_.o
r2p::compute_offset(void const*, unsigned int)    build/obj/Flasher_.o
r2p::default_ledpub_conf                          build/obj/led.o
r2p::default_ledsub_conf                          build/obj/led.o
r2p::is_identifier(char const*)                   build/obj/Utils.o
r2p::is_identifier(char const*, unsigned int)     build/obj/Utils.o
                                                  build/obj/Transport.o
                                                  build/obj/Topic.o
                                                  build/obj/Node.o
                                                  build/obj/Middleware.o
r2p::led2gpio(unsigned int)                       build/obj/led.o
r2p::led2pin(unsigned int)                        build/obj/led.o
r2p::ledpub_node(void*)                           build/obj/led.o
r2p::ledsub_node(void*)                           build/obj/led.o
                                                  build/obj/main.o
r2p::operator+(r2p::Time const&, r2p::Time const&) build/obj/Middleware.o
                                                  build/obj/DebugTransport.o
r2p::operator-(r2p::Time const&, r2p::Time const&) build/obj/Middleware.o
r2p::operator==(r2p::Time const&, r2p::Time const&) build/obj/Node.o
r2p::operator>(r2p::Time const&, r2p::Time const&) build/obj/Topic.o
r2p::operator>=(r2p::Time const&, r2p::Time const&) build/obj/Middleware.o
rlist                                             build/obj/chschd.o
                                                  build/obj/main.o
                                                  build/obj/Node.o
                                                  build/obj/Middleware.o
                                                  build/obj/shell.o
                                                  build/obj/i2c_lld.o
                                                  build/obj/spi.o
                                                  build/obj/chqueues.o
                                                  build/obj/chmsg.o
                                                  build/obj/chevents.o
                                                  build/obj/chcond.o
                                                  build/obj/chmtx.o
                                                  build/obj/chsem.o
                                                  build/obj/chregistry.o
                                                  build/obj/chthreads.o
                                                  build/obj/chdebug.o
                                                  build/obj/chsys.o
                                                  build/obj/chcore_v7m.o
rtcanGetTime                                      build/obj/rtcan.o
rtcanInit                                         build/obj/rtcan.o
                                                  build/obj/RTCANTransport.o
rtcanReceive                                      build/obj/rtcan.o
rtcanReceiveMask                                  build/obj/rtcan.o
                                                  build/obj/RTCANTransport.o
rtcanReset                                        build/obj/rtcan.o
                                                  build/obj/rtcan_lld_can.o
rtcanStart                                        build/obj/rtcan.o
                                                  build/obj/RTCANTransport.o
rtcanStop                                         build/obj/rtcan.o
rtcanTransmit                                     build/obj/rtcan.o
rtcanTransmitI                                    build/obj/rtcan.o
                                                  build/obj/RTCANTransport.o
rtcan_alst_isr_code                               build/obj/rtcan.o
                                                  build/obj/rtcan_lld_can.o
rtcan_blinker                                     build/obj/rtcan.o
rtcan_ismaster                                    build/obj/rtcan.o
rtcan_lld_can_addfilter                           build/obj/rtcan_lld_can.o
                                                  build/obj/rtcan.o
rtcan_lld_can_init                                build/obj/rtcan_lld_can.o
                                                  build/obj/rtcan.o
rtcan_lld_can_receive                             build/obj/rtcan_lld_can.o
                                                  build/obj/rtcan.o
rtcan_lld_can_rxne                                build/obj/rtcan_lld_can.o
rtcan_lld_can_start                               build/obj/rtcan_lld_can.o
                                                  build/obj/rtcan.o
rtcan_lld_can_stop                                build/obj/rtcan_lld_can.o
                                                  build/obj/rtcan.o
rtcan_lld_can_transmit                            build/obj/rtcan_lld_can.o
                                                  build/obj/srt.o
rtcan_lld_can_txe                                 build/obj/rtcan_lld_can.o
                                                  build/obj/srt.o
rtcan_lld_tim_get_counter                         build/obj/rtcan_lld_tim.o
                                                  build/obj/rtcan.o
rtcan_lld_tim_get_interval                        build/obj/rtcan_lld_tim.o
rtcan_lld_tim_init                                build/obj/rtcan_lld_tim.o
                                                  build/obj/rtcan.o
rtcan_lld_tim_set_counter                         build/obj/rtcan_lld_tim.o
rtcan_lld_tim_set_interval                        build/obj/rtcan_lld_tim.o
rtcan_lld_tim_start                               build/obj/rtcan_lld_tim.o
rtcan_lld_tim_start_timer                         build/obj/rtcan_lld_tim.o
rtcan_lld_tim_stop                                build/obj/rtcan_lld_tim.o
rtcan_lld_tim_stop_timer                          build/obj/rtcan_lld_tim.o
rtcan_rx_isr_code                                 build/obj/rtcan.o
                                                  build/obj/rtcan_lld_can.o
rtcan_terr_isr_code                               build/obj/rtcan.o
                                                  build/obj/rtcan_lld_can.o
rtcan_tim_isr_code                                build/obj/rtcan.o
                                                  build/obj/rtcan_lld_tim.o
rtcan_txok_isr_code                               build/obj/rtcan.o
                                                  build/obj/rtcan_lld_can.o
sdIncomingDataI                                   build/obj/serial.o
                                                  build/obj/serial_lld.o
sdInit                                            build/obj/serial.o
                                                  build/obj/hal.o
sdObjectInit                                      build/obj/serial.o
                                                  build/obj/serial_lld.o
sdRequestDataI                                    build/obj/serial.o
sdStart                                           build/obj/serial.o
                                                  build/obj/main.o
sdStop                                            build/obj/serial.o
sd_lld_init                                       build/obj/serial_lld.o
                                                  build/obj/serial.o
sd_lld_start                                      build/obj/serial_lld.o
                                                  build/obj/serial.o
sd_lld_stop                                       build/obj/serial_lld.o
                                                  build/obj/serial.o
sduConfigureHookI                                 build/obj/serial_usb.o
                                                  build/obj/usbcfg.o
sduDataReceived                                   build/obj/serial_usb.o
                                                  build/obj/usbcfg.o
sduDataTransmitted                                build/obj/serial_usb.o
                                                  build/obj/usbcfg.o
sduInit                                           build/obj/serial_usb.o
                                                  build/obj/hal.o
sduInterruptTransmitted                           build/obj/serial_usb.o
                                                  build/obj/usbcfg.o
sduObjectInit                                     build/obj/serial_usb.o
                                                  build/obj/main.o
sduRequestsHook                                   build/obj/serial_usb.o
                                                  build/obj/usbcfg.o
sduStart                                          build/obj/serial_usb.o
                                                  build/obj/main.o
sduStop                                           build/obj/serial_usb.o
serusbcfg                                         build/obj/usbcfg.o
                                                  build/obj/main.o
setlocale                                         /opt/R2P/tools/gcc-arm-none-eabi-4_9-2014q4/bin/../lib/gcc/arm-none-eabi/4.9.3/../../../../arm-none-eabi/lib/armv7e-m/libg.a(lib_a-locale.o)
shellCreate                                       build/obj/shell.o
shellCreateStatic                                 build/obj/shell.o
shellExit                                         build/obj/shell.o
shellGetLine                                      build/obj/shell.o
shellInit                                         build/obj/shell.o
shell_terminated                                  build/obj/shell.o
spiAcquireBus                                     build/obj/spi.o
spiExchange                                       build/obj/spi.o
spiIgnore                                         build/obj/spi.o
spiInit                                           build/obj/spi.o
                                                  build/obj/hal.o
spiObjectInit                                     build/obj/spi.o
                                                  build/obj/spi_lld.o
spiReceive                                        build/obj/spi.o
spiReleaseBus                                     build/obj/spi.o
spiSelect                                         build/obj/spi.o
spiSend                                           build/obj/spi.o
spiStart                                          build/obj/spi.o
spiStartExchange                                  build/obj/spi.o
spiStartIgnore                                    build/obj/spi.o
spiStartReceive                                   build/obj/spi.o
spiStartSend                                      build/obj/spi.o
spiStop                                           build/obj/spi.o
spiUnselect                                       build/obj/spi.o
spi_lld_exchange                                  build/obj/spi_lld.o
                                                  build/obj/spi.o
spi_lld_ignore                                    build/obj/spi_lld.o
                                                  build/obj/spi.o
spi_lld_init                                      build/obj/spi_lld.o
                                                  build/obj/spi.o
spi_lld_polled_exchange                           build/obj/spi_lld.o
spi_lld_receive                                   build/obj/spi_lld.o
                                                  build/obj/spi.o
spi_lld_select                                    build/obj/spi_lld.o
                                                  build/obj/spi.o
spi_lld_send                                      build/obj/spi_lld.o
                                                  build/obj/spi.o
spi_lld_start                                     build/obj/spi_lld.o
                                                  build/obj/spi.o
spi_lld_stop                                      build/obj/spi_lld.o
                                                  build/obj/spi.o
spi_lld_unselect                                  build/obj/spi_lld.o
                                                  build/obj/spi.o
sprintf                                           /opt/R2P/tools/gcc-arm-none-eabi-4_9-2014q4/bin/../lib/gcc/arm-none-eabi/4.9.3/../../../../arm-none-eabi/lib/armv7e-m/libg.a(lib_a-sprintf.o)
                                                  build/obj/main.o
srt_laxity                                        build/obj/srt.o
srt_transmit                                      build/obj/srt.o
                                                  build/obj/rtcan.o
stm32_clock_init                                  build/obj/hal_lld.o
                                                  build/obj/board.o
stm32_id8                                         build/obj/rtcan.o
                                                  build/obj/RTCANTransport.o
strcasecmp                                        /opt/R2P/tools/gcc-arm-none-eabi-4_9-2014q4/bin/../lib/gcc/arm-none-eabi/4.9.3/../../../../arm-none-eabi/lib/armv7e-m/libg.a(lib_a-strcasecmp.o)
                                                  build/obj/shell.o
strcmp                                            /opt/R2P/tools/gcc-arm-none-eabi-4_9-2014q4/bin/../lib/gcc/arm-none-eabi/4.9.3/../../../../arm-none-eabi/lib/armv7e-m/libg.a(lib_a-strcmp.o)
                                                  /opt/R2P/tools/gcc-arm-none-eabi-4_9-2014q4/bin/../lib/gcc/arm-none-eabi/4.9.3/../../../../arm-none-eabi/lib/armv7e-m/libg.a(lib_a-locale.o)
strlen                                            /opt/R2P/tools/gcc-arm-none-eabi-4_9-2014q4/bin/../lib/gcc/arm-none-eabi/4.9.3/../../../../arm-none-eabi/lib/armv7e-m/libg.a(lib_a-strlen.o)
                                                  /opt/R2P/tools/gcc-arm-none-eabi-4_9-2014q4/bin/../lib/gcc/arm-none-eabi/4.9.3/../../../../arm-none-eabi/lib/armv7e-m/libg.a(lib_a-svfiprintf.o)
                                                  /opt/R2P/tools/gcc-arm-none-eabi-4_9-2014q4/bin/../lib/gcc/arm-none-eabi/4.9.3/../../../../arm-none-eabi/lib/armv7e-m/libg.a(lib_a-svfprintf.o)
strncmp                                           /opt/R2P/tools/gcc-arm-none-eabi-4_9-2014q4/bin/../lib/gcc/arm-none-eabi/4.9.3/../../../../arm-none-eabi/lib/armv7e-m/libg.a(lib_a-strncmp.o)
                                                  build/obj/RTCANTransport.o
                                                  build/obj/DebugTransport.o
                                                  build/obj/Bootloader.o
                                                  build/obj/Transport.o
                                                  build/obj/Middleware.o
                                                  build/obj/BaseSubscriber.o
strncpy                                           /opt/R2P/tools/gcc-arm-none-eabi-4_9-2014q4/bin/../lib/gcc/arm-none-eabi/4.9.3/../../../../arm-none-eabi/lib/armv7e-m/libg.a(lib_a-strncpy.o)
                                                  build/obj/Bootloader.o
                                                  build/obj/Middleware.o
strnlen                                           /opt/R2P/tools/gcc-arm-none-eabi-4_9-2014q4/bin/../lib/gcc/arm-none-eabi/4.9.3/../../../../arm-none-eabi/lib/armv7e-m/libg.a(lib_a-strnlen.o)
                                                  build/obj/DebugTransport.o
strpbrk                                           /opt/R2P/tools/gcc-arm-none-eabi-4_9-2014q4/bin/../lib/gcc/arm-none-eabi/4.9.3/../../../../arm-none-eabi/lib/armv7e-m/libg.a(lib_a-strpbrk.o)
                                                  build/obj/shell.o
strspn                                            /opt/R2P/tools/gcc-arm-none-eabi-4_9-2014q4/bin/../lib/gcc/arm-none-eabi/4.9.3/../../../../arm-none-eabi/lib/armv7e-m/libg.a(lib_a-strspn.o)
                                                  build/obj/shell.o
test_pub_node(void*)                              build/obj/main.o
unsigned int r2p::Message::get_payload_size<r2p::BootMsg>() build/obj/Bootloader.o
unsigned int r2p::Message::get_payload_size<r2p::MgmtMsg>() build/obj/Middleware.o
unsigned int r2p::compute_chunk_size<unsigned char>(unsigned char const*, unsigned char const*) build/obj/Bootloader.o
                                                  build/obj/Flasher_.o
usbDisableEndpointsI                              build/obj/usb.o
usbInit                                           build/obj/usb.o
                                                  build/obj/hal.o
usbInitEndpointI                                  build/obj/usb.o
                                                  build/obj/usbcfg.o
usbObjectInit                                     build/obj/usb.o
                                                  build/obj/usb_lld.o
usbPrepareQueuedReceive                           build/obj/usb.o
                                                  build/obj/serial_usb.o
usbPrepareQueuedTransmit                          build/obj/usb.o
                                                  build/obj/serial_usb.o
usbPrepareReceive                                 build/obj/usb.o
usbPrepareTransmit                                build/obj/usb.o
usbStallReceiveI                                  build/obj/usb.o
usbStallTransmitI                                 build/obj/usb.o
usbStart                                          build/obj/usb.o
                                                  build/obj/main.o
usbStartReceiveI                                  build/obj/usb.o
                                                  build/obj/serial_usb.o
usbStartTransmitI                                 build/obj/usb.o
                                                  build/obj/serial_usb.o
usbStop                                           build/obj/usb.o
usb_lld_clear_in                                  build/obj/usb_lld.o
                                                  build/obj/usb.o
usb_lld_clear_out                                 build/obj/usb_lld.o
                                                  build/obj/usb.o
usb_lld_connect_bus(USBDriver*)                   build/obj/main.o
usb_lld_disable_endpoints                         build/obj/usb_lld.o
                                                  build/obj/usb.o
usb_lld_disconnect_bus(USBDriver*)                build/obj/main.o
usb_lld_get_status_in                             build/obj/usb_lld.o
                                                  build/obj/usb.o
usb_lld_get_status_out                            build/obj/usb_lld.o
                                                  build/obj/usb.o
usb_lld_init                                      build/obj/usb_lld.o
                                                  build/obj/usb.o
usb_lld_init_endpoint                             build/obj/usb_lld.o
                                                  build/obj/usb.o
usb_lld_prepare_receive                           build/obj/usb_lld.o
                                                  build/obj/usb.o
usb_lld_prepare_transmit                          build/obj/usb_lld.o
                                                  build/obj/usb.o
usb_lld_read_setup                                build/obj/usb_lld.o
                                                  build/obj/usb.o
usb_lld_reset                                     build/obj/usb_lld.o
                                                  build/obj/usb.o
usb_lld_set_address                               build/obj/usb_lld.o
                                                  build/obj/usb.o
usb_lld_stall_in                                  build/obj/usb_lld.o
                                                  build/obj/usb.o
usb_lld_stall_out                                 build/obj/usb_lld.o
                                                  build/obj/usb.o
usb_lld_start                                     build/obj/usb_lld.o
                                                  build/obj/usb.o
usb_lld_start_in                                  build/obj/usb_lld.o
                                                  build/obj/usb.o
usb_lld_start_out                                 build/obj/usb_lld.o
                                                  build/obj/usb.o
usb_lld_stop                                      build/obj/usb_lld.o
                                                  build/obj/usb.o
usbcfg                                            build/obj/usbcfg.o
                                                  build/obj/main.o
void r2p::Checksummer::add<long>(long const&)     build/obj/DebugTransport.o
void r2p::Message::reset_payload<r2p::BootMsg>(r2p::BootMsg&) build/obj/Bootloader.o
void r2p::Message::reset_payload<r2p::MgmtMsg>(r2p::MgmtMsg&) build/obj/Middleware.o
vtable for r2p::BasePublisher                     build/obj/BasePublisher.o
vtable for r2p::BaseSubscriber                    build/obj/BaseSubscriber.o
vtable for r2p::DebugPublisher                    build/obj/DebugPublisher.o
vtable for r2p::DebugSubscriber                   build/obj/DebugSubscriber.o
vtable for r2p::DebugTransport                    build/obj/DebugTransport.o
vtable for r2p::LocalPublisher                    build/obj/LocalPublisher.o
vtable for r2p::LocalSubscriber                   build/obj/LocalSubscriber.o
vtable for r2p::Publisher<r2p::BootMsg>           build/obj/Middleware.o
vtable for r2p::Publisher<r2p::LedMsg>            build/obj/led.o
vtable for r2p::Publisher<r2p::MgmtMsg>           build/obj/Middleware.o
                                                  build/obj/main.o
vtable for r2p::Publisher<r2p::String64Msg>       build/obj/main.o
vtable for r2p::RTCANPublisher                    build/obj/RTCANPublisher.o
vtable for r2p::RTCANSubscriber                   build/obj/RTCANSubscriber.o
vtable for r2p::RTCANTransport                    build/obj/RTCANTransport.o
vtable for r2p::RemotePublisher                   build/obj/RemotePublisher.o
vtable for r2p::RemoteSubscriber                  build/obj/RemoteSubscriber.o
vtable for r2p::Subscriber<r2p::LedMsg, 5u>       build/obj/led.o
vtable for r2p::SubscriberExtBuf<r2p::BootMsg>    build/obj/Middleware.o
vtable for r2p::SubscriberExtBuf<r2p::LedMsg>     build/obj/led.o
vtable for r2p::SubscriberExtBuf<r2p::MgmtMsg>    build/obj/Middleware.o
                                                  build/obj/main.o
vtable for r2p::Transport                         build/obj/Transport.o
vtlist                                            build/obj/chvt.o
                                                  build/obj/Time_.o
                                                  build/obj/srt.o
                                                  build/obj/rtcan.o
                                                  build/obj/shell.o
                                                  build/obj/chthreads.o
                                                  build/obj/chdebug.o
                                                  build/obj/chsys.o
